ARM GAS  C:\DOCUME~1\ADMINI~1\LOCALS~1\Temp\ccn8QGi5.s 			page 1


   1              		.syntax unified
   2              		.cpu cortex-m3
   3              		.fpu softvfp
   4              		.eabi_attribute 20, 1
   5              		.eabi_attribute 21, 1
   6              		.eabi_attribute 23, 3
   7              		.eabi_attribute 24, 1
   8              		.eabi_attribute 25, 1
   9              		.eabi_attribute 26, 1
  10              		.eabi_attribute 30, 6
  11              		.eabi_attribute 18, 4
  12              		.thumb
  13              		.file	"Application.c"
  20 0000 BF000000 		.text
  20      02005A00 
  20      00000201 
  20      FB0E0D00 
  20      01010101 
  21              	.Ltext0:
  22              		.cfi_sections	.debug_frame
  23              		.global	buttonStatus
  24              		.bss
  25              		.type	buttonStatus, %object
  26              		.size	buttonStatus, 1
  27              	buttonStatus:
  28 0000 00       		.space	1
  29              		.comm	buttonMask,4,4
  30              		.global	applicationInitiate
  31              		.data
  32              		.type	applicationInitiate, %object
  33              		.size	applicationInitiate, 1
  34              	applicationInitiate:
  35 0000 01       		.byte	1
  36              		.global	playlistControlReport
  37              		.bss
  38              		.type	playlistControlReport, %object
  39              		.size	playlistControlReport, 1
  40              	playlistControlReport:
  41 0001 00       		.space	1
  42              		.global	prevReport
  43              		.type	prevReport, %object
  44              		.size	prevReport, 1
  45              	prevReport:
  46 0002 00       		.space	1
  47              		.global	switchDebounceTimer
  48              		.type	switchDebounceTimer, %object
  49              		.size	switchDebounceTimer, 1
  50              	switchDebounceTimer:
  51 0003 00       		.space	1
  52              		.section	.text.ConfigureApplication,"ax",%progbits
  53              		.align	2
ARM GAS  C:\DOCUME~1\ADMINI~1\LOCALS~1\Temp\ccn8QGi5.s 			page 2


  54              		.global	ConfigureApplication
  55              		.thumb
  56              		.thumb_func
  57              		.type	ConfigureApplication, %function
  58              	ConfigureApplication:
  59              	.LFB29:
  60              		.file 1 ".\\Application.c"
   1:.\Application.c **** /*******************************************************************************
   2:.\Application.c **** * File Name: Application.c
   3:.\Application.c **** *
   4:.\Application.c **** * Version 1.0
   5:.\Application.c **** *
   6:.\Application.c **** *  Description: This file contains all the application layer code for
   7:.\Application.c **** *               user interface handling routines
   8:.\Application.c **** *
   9:.\Application.c **** ********************************************************************************
  10:.\Application.c **** * Copyright (2008-2013), Cypress Semiconductor Corporation.
  11:.\Application.c **** ********************************************************************************
  12:.\Application.c **** * This software is owned by Cypress Semiconductor Corporation (Cypress) and is
  13:.\Application.c **** * protected by and subject to worldwide patent protection (United States and
  14:.\Application.c **** * foreign), United States copyright laws and international treaty provisions.
  15:.\Application.c **** * Cypress hereby grants to licensee a personal, non-exclusive, non-transferable
  16:.\Application.c **** * license to copy, use, modify, create derivative works of, and compile the
  17:.\Application.c **** * Cypress Source Code and derivative works for the sole purpose of creating
  18:.\Application.c **** * custom software in support of licensee product to be used only in conjunction
  19:.\Application.c **** * with a Cypress integrated circuit as specified in the applicable agreement.
  20:.\Application.c **** * Any reproduction, modification, translation, compilation, or representation of
  21:.\Application.c **** * this software except as specified above is prohibited without the express
  22:.\Application.c **** * written permission of Cypress.
  23:.\Application.c **** *
  24:.\Application.c **** * Disclaimer: CYPRESS MAKES NO WARRANTY OF ANY KIND, EXPRESS OR IMPLIED, WITH
  25:.\Application.c **** * REGARD TO THIS MATERIAL, INCLUDING, BUT NOT LIMITED TO, THE IMPLIED
  26:.\Application.c **** * WARRANTIES OF MERCHANTABILITY AND FITNESS FOR A PARTICULAR PURPOSE.
  27:.\Application.c **** * Cypress reserves the right to make changes without further notice to the
  28:.\Application.c **** * materials described herein. Cypress does not assume any liability arising out
  29:.\Application.c **** * of the application or use of any product or circuit described herein. Cypress
  30:.\Application.c **** * does not authorize its products for use as critical components in life-support
  31:.\Application.c **** * systems where a malfunction or failure may reasonably be expected to result in
  32:.\Application.c **** * significant injury to the user. The inclusion of Cypress' product in a life-
  33:.\Application.c **** * support systems application implies that the manufacturer assumes all risk of
  34:.\Application.c **** * such use and in doing so indemnifies Cypress against all charges. Use may be
  35:.\Application.c **** * limited by and subject to the applicable Cypress software license agreement.
  36:.\Application.c **** *******************************************************************************/
  37:.\Application.c **** #include <Application.h>
  38:.\Application.c **** #include <AudioControl.h>
  39:.\Application.c **** #include <Configuration.h>
  40:.\Application.c **** #include <codec.h>		
  41:.\Application.c **** #include <device.h>
  42:.\Application.c **** #include <Interrupts.h>
  43:.\Application.c **** #include <stdio.h>
  44:.\Application.c **** #include <USBInterface.h>
  45:.\Application.c **** #include <VolumeControl.h>
  46:.\Application.c **** 
  47:.\Application.c **** /* function declaration */
  48:.\Application.c **** static void HandleUserInputs(void);
  49:.\Application.c **** static void CheckPlayPauseButton(void);
  50:.\Application.c **** 
ARM GAS  C:\DOCUME~1\ADMINI~1\LOCALS~1\Temp\ccn8QGi5.s 			page 3


  51:.\Application.c **** /* Extern declarations */
  52:.\Application.c **** extern uint8 USBFS_initVar;
  53:.\Application.c **** extern volatile uint8 USBFS_currentVolume[];
  54:.\Application.c **** extern volatile uint8 USBFS_currentMute;
  55:.\Application.c **** 
  56:.\Application.c **** extern CYBIT codecInit;
  57:.\Application.c **** extern CYBIT outPlaying;
  58:.\Application.c **** 
  59:.\Application.c **** /* Global variables used for playlist-control buttons */
  60:.\Application.c **** uint8 buttonStatus = 0;
  61:.\Application.c **** uint32 buttonMask;
  62:.\Application.c **** CYBIT applicationInitiate = TRUE;
  63:.\Application.c **** uint8 playlistControlReport = 0;
  64:.\Application.c **** uint8 prevReport = 0;
  65:.\Application.c **** 
  66:.\Application.c **** /* Global variables used for the switch "PSOC_SW", which is used for Play/Pause */
  67:.\Application.c **** uint8 switchDebounceTimer = 0;
  68:.\Application.c **** 
  69:.\Application.c **** /*******************************************************************************
  70:.\Application.c **** * Function Name: ConfigureApplication
  71:.\Application.c **** ********************************************************************************
  72:.\Application.c **** * Summary:
  73:.\Application.c **** *        This function configures the application layer hardware modules and
  74:.\Application.c **** *        clocks to be in sync with the audio clock updates done in 
  75:.\Application.c **** *        ConfigureAudioPath API
  76:.\Application.c **** *
  77:.\Application.c **** * Parameters:
  78:.\Application.c **** *  void
  79:.\Application.c **** *
  80:.\Application.c **** * Return:
  81:.\Application.c **** *  void
  82:.\Application.c **** *
  83:.\Application.c **** *******************************************************************************/
  84:.\Application.c **** void ConfigureApplication(void)
  85:.\Application.c **** {
  61              		.loc 1 85 0
  62              		.cfi_startproc
  63              		@ args = 0, pretend = 0, frame = 0
  64              		@ frame_needed = 1, uses_anonymous_args = 0
  65 0000 80B5     		push	{r7, lr}
  66              	.LCFI0:
  67              		.cfi_def_cfa_offset 8
  68 0002 00AF     		add	r7, sp, #0
  69              		.cfi_offset 14, -4
  70              		.cfi_offset 7, -8
  71              	.LCFI1:
  72              		.cfi_def_cfa_register 7
  86:.\Application.c ****     CYGlobalIntEnable;
  73              		.loc 1 86 0
  74              	@ 86 ".\Application.c" 1
  75 0004 62B6     		CPSIE   i
  76              	@ 0 "" 2
  87:.\Application.c **** 	
  88:.\Application.c ****     /* Configure the I2C clock speed for 400kHz operation */
  89:.\Application.c **** 	#ifdef CODEC_I2C_SUPPORTED
  90:.\Application.c **** 	I2C_Master_CLKDIV1_REG = I2C_DIVIDER_400KHZ_OPERATION;
  91:.\Application.c **** 	#endif
ARM GAS  C:\DOCUME~1\ADMINI~1\LOCALS~1\Temp\ccn8QGi5.s 			page 4


  92:.\Application.c ****             
  93:.\Application.c ****     /* Enable 8ms tick sleep ISR */
  94:.\Application.c ****     SystemTickTimer_Start();
  77              		.loc 1 94 0
  78              		.thumb
  79 0006 FFF7FEFF 		bl	SystemTickTimer_Start
  95:.\Application.c ****     isr_Tick_StartEx(Tick_Interrupt);
  80              		.loc 1 95 0
  81 000a 40F20000 		movw	r0, #:lower16:Tick_Interrupt
  82 000e C0F20000 		movt	r0, #:upper16:Tick_Interrupt
  83 0012 FFF7FEFF 		bl	isr_Tick_StartEx
  96:.\Application.c ****     
  97:.\Application.c ****     #ifdef ENABLE_WATCHDOG
  98:.\Application.c ****     /* Watchdog timer is clocked from internal 1KHz ILO, for USB Operation 100KHz ILO is selected i
  99:.\Application.c ****      * configuration wizard, explicitly enable 1KHz ILO for WDT */
 100:.\Application.c ****     CyILO_Start1K();
  84              		.loc 1 100 0
  85 0016 FFF7FEFF 		bl	CyILO_Start1K
 101:.\Application.c ****     
 102:.\Application.c ****     /* Enable Watchdog for recovering from unresponsive system, The time for WDT is set to two 1sec
 103:.\Application.c ****     CyWdtStart(CYWDT_1024_TICKS, CYWDT_LPMODE_DISABLED);
  86              		.loc 1 103 0
  87 001a 4FF00300 		mov	r0, #3
  88 001e 4FF00301 		mov	r1, #3
  89 0022 FFF7FEFF 		bl	CyWdtStart
 104:.\Application.c ****     #endif
 105:.\Application.c ****     
 106:.\Application.c ****     /* USER_CODE: [Accessory Initialization] Placeholder for initializing additional user added com
 107:.\Application.c ****      * external peripherals. This block of code is called once after accessory reset event and the 
 108:.\Application.c ****      * will be in idle mode (See TopDesign.cysch for idle mode clock details) */
 109:.\Application.c **** }
  90              		.loc 1 109 0
  91 0026 80BD     		pop	{r7, pc}
  92              		.cfi_endproc
  93              	.LFE29:
  94              		.size	ConfigureApplication, .-ConfigureApplication
  95              		.section	.text.HandleApplicationInterface,"ax",%progbits
  96              		.align	2
  97              		.global	HandleApplicationInterface
  98              		.thumb
  99              		.thumb_func
 100              		.type	HandleApplicationInterface, %function
 101              	HandleApplicationInterface:
 102              	.LFB30:
 110:.\Application.c **** 
 111:.\Application.c **** /*******************************************************************************
 112:.\Application.c **** * Function Name: HandleApplicationInterface
 113:.\Application.c **** ********************************************************************************
 114:.\Application.c **** * Summary:
 115:.\Application.c **** *        This function handles all the application layer related firmware code
 116:.\Application.c **** *        related to user inputs
 117:.\Application.c **** *
 118:.\Application.c **** * Parameters:
 119:.\Application.c **** *  void
 120:.\Application.c **** *
 121:.\Application.c **** * Return:
 122:.\Application.c **** *  void
ARM GAS  C:\DOCUME~1\ADMINI~1\LOCALS~1\Temp\ccn8QGi5.s 			page 5


 123:.\Application.c **** *
 124:.\Application.c **** *******************************************************************************/
 125:.\Application.c **** void HandleApplicationInterface(void)
 126:.\Application.c **** {
 103              		.loc 1 126 0
 104              		.cfi_startproc
 105              		@ args = 0, pretend = 0, frame = 0
 106              		@ frame_needed = 1, uses_anonymous_args = 0
 107 0000 80B5     		push	{r7, lr}
 108              	.LCFI2:
 109              		.cfi_def_cfa_offset 8
 110 0002 00AF     		add	r7, sp, #0
 111              		.cfi_offset 14, -4
 112              		.cfi_offset 7, -8
 113              	.LCFI3:
 114              		.cfi_def_cfa_register 7
 127:.\Application.c ****    
 128:.\Application.c **** 	HandleUserInputs(); /* Handle play/pause button user inputs */
 115              		.loc 1 128 0
 116 0004 FFF7FEFF 		bl	HandleUserInputs
 129:.\Application.c ****     
 130:.\Application.c **** 	/* Turning ON the STATUS LED consumes ~4 mA. Comment out the below line if LED indication while au
 131:.\Application.c **** 	 * is not needed */
 132:.\Application.c **** 	UpdateAudioStatusUI(); /* Update the Status LED depending on the audio streaming mode */
 117              		.loc 1 132 0
 118 0008 FFF7FEFF 		bl	UpdateAudioStatusUI
 133:.\Application.c **** 		
 134:.\Application.c **** 	#ifdef ENABLE_VOLUME_CONTROL
 135:.\Application.c ****     HandleUSBVolumeUpdate(); /* Update the codec volume as per the volume update from the host */
 136:.\Application.c ****     #endif 
 137:.\Application.c **** 	
 138:.\Application.c **** }
 119              		.loc 1 138 0
 120 000c 80BD     		pop	{r7, pc}
 121              		.cfi_endproc
 122              	.LFE30:
 123              		.size	HandleApplicationInterface, .-HandleApplicationInterface
 124 000e 00BF     		.section	.text.HandleUserInputs,"ax",%progbits
 125              		.align	2
 126              		.thumb
 127              		.thumb_func
 128              		.type	HandleUserInputs, %function
 129              	HandleUserInputs:
 130              	.LFB31:
 139:.\Application.c **** 
 140:.\Application.c **** /*******************************************************************************
 141:.\Application.c **** * Function Name: HandleUserInputs
 142:.\Application.c **** ********************************************************************************
 143:.\Application.c **** * Summary:  Handles play/pause button user inputs for play track 
 144:.\Application.c **** *           functions.
 145:.\Application.c **** *
 146:.\Application.c **** * Parameters:
 147:.\Application.c **** *  void
 148:.\Application.c **** *
 149:.\Application.c **** * Return:
 150:.\Application.c **** *  void
 151:.\Application.c **** *
ARM GAS  C:\DOCUME~1\ADMINI~1\LOCALS~1\Temp\ccn8QGi5.s 			page 6


 152:.\Application.c **** *******************************************************************************/
 153:.\Application.c **** static void HandleUserInputs(void)
 154:.\Application.c **** {
 131              		.loc 1 154 0
 132              		.cfi_startproc
 133              		@ args = 0, pretend = 0, frame = 0
 134              		@ frame_needed = 1, uses_anonymous_args = 0
 135 0000 80B5     		push	{r7, lr}
 136              	.LCFI4:
 137              		.cfi_def_cfa_offset 8
 138 0002 00AF     		add	r7, sp, #0
 139              		.cfi_offset 14, -4
 140              		.cfi_offset 7, -8
 141              	.LCFI5:
 142              		.cfi_def_cfa_register 7
 155:.\Application.c ****      CheckPlayPauseButton();
 143              		.loc 1 155 0
 144 0004 FFF7FEFF 		bl	CheckPlayPauseButton
 156:.\Application.c **** 	 
 157:.\Application.c **** 	if(IS_MAC_PC_PLAYLIST_CONTROL_NEEDED())
 145              		.loc 1 157 0
 146 0008 FFF7FEFF 		bl	USBFS_GetConfiguration
 147 000c 0346     		mov	r3, r0
 148 000e 002B     		cmp	r3, #0
 149 0010 24D0     		beq	.L7
 150 0012 4FF00400 		mov	r0, #4
 151 0016 FFF7FEFF 		bl	USBFS_GetEPState
 152 001a 0346     		mov	r3, r0
 153 001c 012B     		cmp	r3, #1
 154 001e 1DD1     		bne	.L7
 155 0020 40F20003 		movw	r3, #:lower16:prevReport
 156 0024 C0F20003 		movt	r3, #:upper16:prevReport
 157 0028 1A78     		ldrb	r2, [r3, #0]	@ zero_extendqisi2
 158 002a 40F20003 		movw	r3, #:lower16:playlistControlReport
 159 002e C0F20003 		movt	r3, #:upper16:playlistControlReport
 160 0032 1B78     		ldrb	r3, [r3, #0]	@ zero_extendqisi2
 161 0034 9A42     		cmp	r2, r3
 162 0036 11D0     		beq	.L7
 158:.\Application.c ****     {
 159:.\Application.c ****         prevReport = playlistControlReport;
 163              		.loc 1 159 0
 164 0038 40F20003 		movw	r3, #:lower16:playlistControlReport
 165 003c C0F20003 		movt	r3, #:upper16:playlistControlReport
 166 0040 1A78     		ldrb	r2, [r3, #0]	@ zero_extendqisi2
 167 0042 40F20003 		movw	r3, #:lower16:prevReport
 168 0046 C0F20003 		movt	r3, #:upper16:prevReport
 169 004a 1A70     		strb	r2, [r3, #0]
 160:.\Application.c ****         USBFS_LoadInEP(MAC_PC_HID_CONTROL_ENDPOINT, USBFS_NULL, sizeof(playlistControlReport));
 170              		.loc 1 160 0
 171 004c 4FF00400 		mov	r0, #4
 172 0050 4FF00001 		mov	r1, #0
 173 0054 4FF00102 		mov	r2, #1
 174 0058 FFF7FEFF 		bl	USBFS_LoadInEP
 175              	.L7:
 161:.\Application.c ****     }
 162:.\Application.c **** 	
 163:.\Application.c **** }
ARM GAS  C:\DOCUME~1\ADMINI~1\LOCALS~1\Temp\ccn8QGi5.s 			page 7


 176              		.loc 1 163 0
 177 005c 80BD     		pop	{r7, pc}
 178              		.cfi_endproc
 179              	.LFE31:
 180              		.size	HandleUserInputs, .-HandleUserInputs
 181 005e 00BF     		.section	.text.CheckPlayPauseButton,"ax",%progbits
 182              		.align	2
 183              		.thumb
 184              		.thumb_func
 185              		.type	CheckPlayPauseButton, %function
 186              	CheckPlayPauseButton:
 187              	.LFB32:
 164:.\Application.c **** 
 165:.\Application.c **** /*******************************************************************************
 166:.\Application.c **** * Function Name: CheckPlayPauseButton
 167:.\Application.c **** ********************************************************************************
 168:.\Application.c **** * Summary: Check whether Play/Pause button is pressed and take necessary action
 169:.\Application.c **** *
 170:.\Application.c **** * Parameters:
 171:.\Application.c **** *  void
 172:.\Application.c **** *
 173:.\Application.c **** * Return:
 174:.\Application.c **** *  void
 175:.\Application.c **** *
 176:.\Application.c **** *******************************************************************************/
 177:.\Application.c **** static void CheckPlayPauseButton(void)
 178:.\Application.c **** {   
 188              		.loc 1 178 0
 189              		.cfi_startproc
 190              		@ args = 0, pretend = 0, frame = 0
 191              		@ frame_needed = 1, uses_anonymous_args = 0
 192 0000 80B5     		push	{r7, lr}
 193              	.LCFI6:
 194              		.cfi_def_cfa_offset 8
 195 0002 00AF     		add	r7, sp, #0
 196              		.cfi_offset 14, -4
 197              		.cfi_offset 7, -8
 198              	.LCFI7:
 199              		.cfi_def_cfa_register 7
 179:.\Application.c ****     /* Check if PSOC_SW is pressed */
 180:.\Application.c ****    
 181:.\Application.c **** 	if(PSOC_SW_Read() == FALSE)
 200              		.loc 1 181 0
 201 0004 FFF7FEFF 		bl	PSOC_SW_Read
 202 0008 0346     		mov	r3, r0
 203 000a 002B     		cmp	r3, #0
 204 000c 3BD1     		bne	.L9
 182:.\Application.c ****     {
 183:.\Application.c ****      	/* Register the button press for the first time and check if button debouncing is completed *
 184:.\Application.c **** 		if(!(buttonStatus & PLAY_PAUSE_MASK)) 
 205              		.loc 1 184 0
 206 000e 40F20003 		movw	r3, #:lower16:buttonStatus
 207 0012 C0F20003 		movt	r3, #:upper16:buttonStatus
 208 0016 1B78     		ldrb	r3, [r3, #0]	@ zero_extendqisi2
 209 0018 03F00403 		and	r3, r3, #4
 210 001c 002B     		cmp	r3, #0
 211 001e 14D1     		bne	.L10
ARM GAS  C:\DOCUME~1\ADMINI~1\LOCALS~1\Temp\ccn8QGi5.s 			page 8


 185:.\Application.c ****         {
 186:.\Application.c ****             buttonStatus = buttonStatus | PLAY_PAUSE_MASK; /* register button press event */
 212              		.loc 1 186 0
 213 0020 40F20003 		movw	r3, #:lower16:buttonStatus
 214 0024 C0F20003 		movt	r3, #:upper16:buttonStatus
 215 0028 1B78     		ldrb	r3, [r3, #0]	@ zero_extendqisi2
 216 002a 43F00403 		orr	r3, r3, #4
 217 002e DAB2     		uxtb	r2, r3
 218 0030 40F20003 		movw	r3, #:lower16:buttonStatus
 219 0034 C0F20003 		movt	r3, #:upper16:buttonStatus
 220 0038 1A70     		strb	r2, [r3, #0]
 187:.\Application.c ****             switchDebounceTimer = SWITCH_DEBOUNCE_DELAY;
 221              		.loc 1 187 0
 222 003a 40F20003 		movw	r3, #:lower16:switchDebounceTimer
 223 003e C0F20003 		movt	r3, #:upper16:switchDebounceTimer
 224 0042 4FF00402 		mov	r2, #4
 225 0046 1A70     		strb	r2, [r3, #0]
 188:.\Application.c **** 		}
 189:.\Application.c **** 		/* If the button status is pressed and switch debounce is complete update the PlaylistControlRepo
 190:.\Application.c ****         else if ((buttonStatus & PLAY_PAUSE_MASK) && (switchDebounceTimer == 0))
 191:.\Application.c **** 		{
 192:.\Application.c **** 			playlistControlReport = playlistControlReport | MAC_PC_PLAY_PAUSE_MASK;
 226              		.loc 1 192 0
 227 0048 44E0     		b	.L13
 228              	.L10:
 229              		.loc 1 190 0
 230 004a 40F20003 		movw	r3, #:lower16:buttonStatus
 231 004e C0F20003 		movt	r3, #:upper16:buttonStatus
 232 0052 1B78     		ldrb	r3, [r3, #0]	@ zero_extendqisi2
 233 0054 03F00403 		and	r3, r3, #4
 234 0058 002B     		cmp	r3, #0
 235 005a 38D0     		beq	.L14
 236 005c 40F20003 		movw	r3, #:lower16:switchDebounceTimer
 237 0060 C0F20003 		movt	r3, #:upper16:switchDebounceTimer
 238 0064 1B78     		ldrb	r3, [r3, #0]	@ zero_extendqisi2
 239 0066 002B     		cmp	r3, #0
 240 0068 33D1     		bne	.L15
 241              		.loc 1 192 0
 242 006a 40F20003 		movw	r3, #:lower16:playlistControlReport
 243 006e C0F20003 		movt	r3, #:upper16:playlistControlReport
 244 0072 1B78     		ldrb	r3, [r3, #0]	@ zero_extendqisi2
 245 0074 43F00103 		orr	r3, r3, #1
 246 0078 DAB2     		uxtb	r2, r3
 247 007a 40F20003 		movw	r3, #:lower16:playlistControlReport
 248 007e C0F20003 		movt	r3, #:upper16:playlistControlReport
 249 0082 1A70     		strb	r2, [r3, #0]
 250 0084 26E0     		b	.L13
 251              	.L9:
 193:.\Application.c **** 		}
 194:.\Application.c ****     	
 195:.\Application.c ****     }
 196:.\Application.c **** 	/* If the button is released, clear the button status and update the button release status in Play
 197:.\Application.c ****     else 
 198:.\Application.c **** 	{
 199:.\Application.c **** 		if((buttonStatus & PLAY_PAUSE_MASK))
 252              		.loc 1 199 0
 253 0086 40F20003 		movw	r3, #:lower16:buttonStatus
ARM GAS  C:\DOCUME~1\ADMINI~1\LOCALS~1\Temp\ccn8QGi5.s 			page 9


 254 008a C0F20003 		movt	r3, #:upper16:buttonStatus
 255 008e 1B78     		ldrb	r3, [r3, #0]	@ zero_extendqisi2
 256 0090 03F00403 		and	r3, r3, #4
 257 0094 002B     		cmp	r3, #0
 258 0096 1DD0     		beq	.L13
 200:.\Application.c **** 	    {
 201:.\Application.c **** 	        buttonStatus = buttonStatus & (~PLAY_PAUSE_MASK);
 259              		.loc 1 201 0
 260 0098 40F20003 		movw	r3, #:lower16:buttonStatus
 261 009c C0F20003 		movt	r3, #:upper16:buttonStatus
 262 00a0 1B78     		ldrb	r3, [r3, #0]	@ zero_extendqisi2
 263 00a2 1A46     		mov	r2, r3
 264 00a4 02F0FB02 		and	r2, r2, #251
 265 00a8 40F20003 		movw	r3, #:lower16:buttonStatus
 266 00ac C0F20003 		movt	r3, #:upper16:buttonStatus
 267 00b0 1A70     		strb	r2, [r3, #0]
 202:.\Application.c **** 	        playlistControlReport = playlistControlReport & (~MAC_PC_PLAY_PAUSE_MASK);
 268              		.loc 1 202 0
 269 00b2 40F20003 		movw	r3, #:lower16:playlistControlReport
 270 00b6 C0F20003 		movt	r3, #:upper16:playlistControlReport
 271 00ba 1B78     		ldrb	r3, [r3, #0]	@ zero_extendqisi2
 272 00bc 1A46     		mov	r2, r3
 273 00be 02F0FE02 		and	r2, r2, #254
 274 00c2 40F20003 		movw	r3, #:lower16:playlistControlReport
 275 00c6 C0F20003 		movt	r3, #:upper16:playlistControlReport
 276 00ca 1A70     		strb	r2, [r3, #0]
 277 00cc 02E0     		b	.L13
 278              	.L14:
 279              		.loc 1 192 0
 280 00ce 00BF     		nop
 281 00d0 00E0     		b	.L13
 282              	.L15:
 283 00d2 00BF     		nop
 284              	.L13:
 203:.\Application.c **** 	    }
 204:.\Application.c **** 	}
 205:.\Application.c **** }
 285              		.loc 1 205 0
 286 00d4 80BD     		pop	{r7, pc}
 287              		.cfi_endproc
 288              	.LFE32:
 289              		.size	CheckPlayPauseButton, .-CheckPlayPauseButton
 290 00d6 00BF     		.text
 291              	.Letext0: