ARM GAS  C:\DOCUME~1\ADMINI~1\LOCALS~1\Temp\ccy7AVsL.s 			page 1


   1              		.syntax unified
   2              		.cpu cortex-m3
   3              		.fpu softvfp
   4              		.eabi_attribute 20, 1
   5              		.eabi_attribute 21, 1
   6              		.eabi_attribute 23, 3
   7              		.eabi_attribute 24, 1
   8              		.eabi_attribute 25, 1
   9              		.eabi_attribute 26, 1
  10              		.eabi_attribute 30, 6
  11              		.eabi_attribute 18, 4
  12              		.thumb
  13              		.file	"AudioClkGen.c"
  14              		.section	.debug_abbrev,"",%progbits
  15              	.Ldebug_abbrev0:
  16              		.section	.debug_info,"",%progbits
  17              	.Ldebug_info0:
  18              		.section	.debug_line,"",%progbits
  19              	.Ldebug_line0:
  20 0000 E7000000 		.text
  20      02006400 
  20      00000201 
  20      FB0E0D00 
  20      01010101 
  21              	.Ltext0:
  22              		.cfi_sections	.debug_frame
  23              		.section	.text.AudioClkGen_Start,"ax",%progbits
  24              		.align	2
  25              		.global	AudioClkGen_Start
  26              		.thumb
  27              		.thumb_func
  28              		.type	AudioClkGen_Start, %function
  29              	AudioClkGen_Start:
  30              	.LFB0:
  31              		.file 1 ".\\Generated_Source\\PSoC5\\AudioClkGen.c"
   1:.\Generated_Source\PSoC5/AudioClkGen.c **** /*******************************************************************************
   2:.\Generated_Source\PSoC5/AudioClkGen.c **** * File Name: AudioClkGen.c  
   3:.\Generated_Source\PSoC5/AudioClkGen.c **** * 
   4:.\Generated_Source\PSoC5/AudioClkGen.c **** * Version 0.83 
   5:.\Generated_Source\PSoC5/AudioClkGen.c **** *
   6:.\Generated_Source\PSoC5/AudioClkGen.c **** * Description:
   7:.\Generated_Source\PSoC5/AudioClkGen.c **** *  This file contains API to enable firmware control of divider settings and 
   8:.\Generated_Source\PSoC5/AudioClkGen.c **** *  audio clock generation.
   9:.\Generated_Source\PSoC5/AudioClkGen.c **** *
  10:.\Generated_Source\PSoC5/AudioClkGen.c **** *  Note: Only includes support for digital audio.
  11:.\Generated_Source\PSoC5/AudioClkGen.c **** *
  12:.\Generated_Source\PSoC5/AudioClkGen.c **** *******************************************************************************
  13:.\Generated_Source\PSoC5/AudioClkGen.c **** * Copyright 2008-2013, Cypress Semiconductor Corporation.  All rights reserved.
  14:.\Generated_Source\PSoC5/AudioClkGen.c **** * You may use this file only in accordance with the license, terms, conditions, 
  15:.\Generated_Source\PSoC5/AudioClkGen.c **** * disclaimers, and limitations in the end user license agreement accompanying 
  16:.\Generated_Source\PSoC5/AudioClkGen.c **** * the software package with which this file was provided.
  17:.\Generated_Source\PSoC5/AudioClkGen.c **** *******************************************************************************/
  18:.\Generated_Source\PSoC5/AudioClkGen.c **** 
  19:.\Generated_Source\PSoC5/AudioClkGen.c **** #include "cytypes.h"
  20:.\Generated_Source\PSoC5/AudioClkGen.c **** #include "cyfitter.h"
  21:.\Generated_Source\PSoC5/AudioClkGen.c **** #include "CyLib.h"
  22:.\Generated_Source\PSoC5/AudioClkGen.c **** 
ARM GAS  C:\DOCUME~1\ADMINI~1\LOCALS~1\Temp\ccy7AVsL.s 			page 2


  23:.\Generated_Source\PSoC5/AudioClkGen.c **** #include "AudioClkGen.h"
  24:.\Generated_Source\PSoC5/AudioClkGen.c **** #include "AudioClkGen_Clock_I2S.h"
  25:.\Generated_Source\PSoC5/AudioClkGen.c **** #include "AudioClkGen_Clock_SCK.h"
  26:.\Generated_Source\PSoC5/AudioClkGen.c **** 
  27:.\Generated_Source\PSoC5/AudioClkGen.c **** //#define BUSCLK_48
  28:.\Generated_Source\PSoC5/AudioClkGen.c **** #define BUSCLK_36
  29:.\Generated_Source\PSoC5/AudioClkGen.c **** //#define BUSCLK_24
  30:.\Generated_Source\PSoC5/AudioClkGen.c **** //#define BUSCLK_16
  31:.\Generated_Source\PSoC5/AudioClkGen.c **** //#define BUSCLK_12
  32:.\Generated_Source\PSoC5/AudioClkGen.c **** //#define WORD_PERIOD_32
  33:.\Generated_Source\PSoC5/AudioClkGen.c **** //#define NEW_16M_CLKGEN_VALUES
  34:.\Generated_Source\PSoC5/AudioClkGen.c **** #define AudioClkGen_HIGH_PERIOD		(*(reg8 *) AudioClkGen_UDB_ACG_div_Div_u0__D0_REG)
  35:.\Generated_Source\PSoC5/AudioClkGen.c **** #define AudioClkGen_LOW_PERIOD 		(*(reg8 *) AudioClkGen_UDB_ACG_div_Div_u0__D1_REG)
  36:.\Generated_Source\PSoC5/AudioClkGen.c **** 
  37:.\Generated_Source\PSoC5/AudioClkGen.c **** #define AudioClkGen_C0_0				(*(reg8 *) AudioClkGen_UDB_ACG_sync_SofCounter_u0__D0_REG)
  38:.\Generated_Source\PSoC5/AudioClkGen.c **** #define AudioClkGen_C0_1				(*(reg8 *) AudioClkGen_UDB_ACG_sync_SofCounter_u1__D0_REG)
  39:.\Generated_Source\PSoC5/AudioClkGen.c **** #define AudioClkGen_N					(*(reg8 *) AudioClkGen_UDB_ACG_sync_Counter_u0__D0_REG)
  40:.\Generated_Source\PSoC5/AudioClkGen.c **** #define AudioClkGen_SHIFT_CNT			(*(reg8 *) AudioClkGen_UDB_ACG_sync_Counter_u0__D1_REG)
  41:.\Generated_Source\PSoC5/AudioClkGen.c **** 
  42:.\Generated_Source\PSoC5/AudioClkGen.c **** #define AudioClkGen_NC0_INIT_0			(*(reg8 *) AudioClkGen_UDB_ACG_shaper_Div_u0__A1_REG)
  43:.\Generated_Source\PSoC5/AudioClkGen.c **** #define AudioClkGen_NC0_INIT_1			(*(reg8 *) AudioClkGen_UDB_ACG_shaper_Div_u1__A1_REG)
  44:.\Generated_Source\PSoC5/AudioClkGen.c **** 
  45:.\Generated_Source\PSoC5/AudioClkGen.c **** #define AudioClkGen_THRESHOLD_0		(*(reg8 *) AudioClkGen_UDB_ACG_shaper_Div_u0__D0_REG)
  46:.\Generated_Source\PSoC5/AudioClkGen.c **** #define AudioClkGen_THRESHOLD_1		(*(reg8 *) AudioClkGen_UDB_ACG_shaper_Div_u1__D0_REG)
  47:.\Generated_Source\PSoC5/AudioClkGen.c **** 
  48:.\Generated_Source\PSoC5/AudioClkGen.c **** #define AudioClkGen_M_0				(*(reg8 *) AudioClkGen_UDB_ACG_shaper_Div_u0__D1_REG)
  49:.\Generated_Source\PSoC5/AudioClkGen.c **** #define AudioClkGen_M_1				(*(reg8 *) AudioClkGen_UDB_ACG_shaper_Div_u1__D1_REG)
  50:.\Generated_Source\PSoC5/AudioClkGen.c **** 
  51:.\Generated_Source\PSoC5/AudioClkGen.c **** #define AudioClkGen_NC0_0				(*(reg8 *) AudioClkGen_UDB_ACG_sync_SofCounter_u0__D1_REG)
  52:.\Generated_Source\PSoC5/AudioClkGen.c **** #define AudioClkGen_NC0_1				(*(reg8 *) AudioClkGen_UDB_ACG_sync_SofCounter_u1__D1_REG)
  53:.\Generated_Source\PSoC5/AudioClkGen.c **** 
  54:.\Generated_Source\PSoC5/AudioClkGen.c **** /*******************************************************************************
  55:.\Generated_Source\PSoC5/AudioClkGen.c **** * Function Name: AudioClkGen_Start
  56:.\Generated_Source\PSoC5/AudioClkGen.c **** ********************************************************************************
  57:.\Generated_Source\PSoC5/AudioClkGen.c **** * Summary:
  58:.\Generated_Source\PSoC5/AudioClkGen.c **** *  The start function initializes the fractional divider with the default values.
  59:.\Generated_Source\PSoC5/AudioClkGen.c **** *
  60:.\Generated_Source\PSoC5/AudioClkGen.c **** * Parameters:  
  61:.\Generated_Source\PSoC5/AudioClkGen.c **** *  void  
  62:.\Generated_Source\PSoC5/AudioClkGen.c **** *
  63:.\Generated_Source\PSoC5/AudioClkGen.c **** * Return: 
  64:.\Generated_Source\PSoC5/AudioClkGen.c **** *  void
  65:.\Generated_Source\PSoC5/AudioClkGen.c **** *
  66:.\Generated_Source\PSoC5/AudioClkGen.c **** *******************************************************************************/
  67:.\Generated_Source\PSoC5/AudioClkGen.c **** void AudioClkGen_Start(void)
  68:.\Generated_Source\PSoC5/AudioClkGen.c **** {
  32              		.loc 1 68 0
  33              		.cfi_startproc
  34              		@ args = 0, pretend = 0, frame = 0
  35              		@ frame_needed = 1, uses_anonymous_args = 0
  36              		@ link register save eliminated.
  37 0000 80B4     		push	{r7}
  38              	.LCFI0:
  39              		.cfi_def_cfa_offset 4
  40 0002 00AF     		add	r7, sp, #0
  41              		.cfi_offset 7, -4
  42              	.LCFI1:
ARM GAS  C:\DOCUME~1\ADMINI~1\LOCALS~1\Temp\ccy7AVsL.s 			page 3


  43              		.cfi_def_cfa_register 7
  69:.\Generated_Source\PSoC5/AudioClkGen.c **** 	/* Divide by 23 plus a fraction
  70:.\Generated_Source\PSoC5/AudioClkGen.c **** 	 * When the waveform is 24 cycles long the extra cycle is added to the high period of the clock ou
  71:.\Generated_Source\PSoC5/AudioClkGen.c **** 	AudioClkGen_HIGH_PERIOD = (11-2);	/* High period is 11 or 12 cycles */
  44              		.loc 1 71 0
  45 0004 46F22743 		movw	r3, #:lower16:1073767463
  46 0008 C4F20003 		movt	r3, #:upper16:1073767463
  47 000c 4FF00902 		mov	r2, #9
  48 0010 1A70     		strb	r2, [r3, #0]
  72:.\Generated_Source\PSoC5/AudioClkGen.c **** 	AudioClkGen_LOW_PERIOD = (23-2);	/* Overall period is 23 or 24 cycles */
  49              		.loc 1 72 0
  50 0012 46F23743 		movw	r3, #:lower16:1073767479
  51 0016 C4F20003 		movt	r3, #:upper16:1073767479
  52 001a 4FF01502 		mov	r2, #21
  53 001e 1A70     		strb	r2, [r3, #0]
  73:.\Generated_Source\PSoC5/AudioClkGen.c **** 	
  74:.\Generated_Source\PSoC5/AudioClkGen.c **** 	/* Settings that aren't audio rate dependent */
  75:.\Generated_Source\PSoC5/AudioClkGen.c **** 	AudioClkGen_C0_0 = (uint8)((24000 - 74) & 0xFF);
  54              		.loc 1 75 0
  55 0020 46F22653 		movw	r3, #:lower16:1073767718
  56 0024 C4F20003 		movt	r3, #:upper16:1073767718
  57 0028 4FF07602 		mov	r2, #118
  58 002c 1A70     		strb	r2, [r3, #0]
  76:.\Generated_Source\PSoC5/AudioClkGen.c **** 	AudioClkGen_C0_1 = (uint8)(((24000 - 74) >> 8) & 0xFF);
  59              		.loc 1 76 0
  60 002e 46F22753 		movw	r3, #:lower16:1073767719
  61 0032 C4F20003 		movt	r3, #:upper16:1073767719
  62 0036 4FF05D02 		mov	r2, #93
  63 003a 1A70     		strb	r2, [r3, #0]
  77:.\Generated_Source\PSoC5/AudioClkGen.c **** 	AudioClkGen_N = (55-2);
  64              		.loc 1 77 0
  65 003c 46F22643 		movw	r3, #:lower16:1073767462
  66 0040 C4F20003 		movt	r3, #:upper16:1073767462
  67 0044 4FF03502 		mov	r2, #53
  68 0048 1A70     		strb	r2, [r3, #0]
  78:.\Generated_Source\PSoC5/AudioClkGen.c **** 	AudioClkGen_SHIFT_CNT = (16-1);	/* Shift counter */	
  69              		.loc 1 78 0
  70 004a 46F23643 		movw	r3, #:lower16:1073767478
  71 004e C4F20003 		movt	r3, #:upper16:1073767478
  72 0052 4FF00F02 		mov	r2, #15
  73 0056 1A70     		strb	r2, [r3, #0]
  79:.\Generated_Source\PSoC5/AudioClkGen.c **** }
  74              		.loc 1 79 0
  75 0058 BD46     		mov	sp, r7
  76 005a 80BC     		pop	{r7}
  77 005c 7047     		bx	lr
  78              		.cfi_endproc
  79              	.LFE0:
  80              		.size	AudioClkGen_Start, .-AudioClkGen_Start
  81 005e 00BF     		.section	.text.AudioClkGen_Stop,"ax",%progbits
  82              		.align	2
  83              		.global	AudioClkGen_Stop
  84              		.thumb
  85              		.thumb_func
  86              		.type	AudioClkGen_Stop, %function
  87              	AudioClkGen_Stop:
  88              	.LFB1:
ARM GAS  C:\DOCUME~1\ADMINI~1\LOCALS~1\Temp\ccy7AVsL.s 			page 4


  80:.\Generated_Source\PSoC5/AudioClkGen.c **** 
  81:.\Generated_Source\PSoC5/AudioClkGen.c **** /*******************************************************************************
  82:.\Generated_Source\PSoC5/AudioClkGen.c **** * Function Name: AudioClkGen_Stop
  83:.\Generated_Source\PSoC5/AudioClkGen.c **** ********************************************************************************
  84:.\Generated_Source\PSoC5/AudioClkGen.c **** * Summary:
  85:.\Generated_Source\PSoC5/AudioClkGen.c **** *  The stop function halts the fractional divider (currently a placeholder).
  86:.\Generated_Source\PSoC5/AudioClkGen.c **** *
  87:.\Generated_Source\PSoC5/AudioClkGen.c **** * Parameters:  
  88:.\Generated_Source\PSoC5/AudioClkGen.c **** *  void  
  89:.\Generated_Source\PSoC5/AudioClkGen.c **** *
  90:.\Generated_Source\PSoC5/AudioClkGen.c **** * Return: 
  91:.\Generated_Source\PSoC5/AudioClkGen.c **** *  void
  92:.\Generated_Source\PSoC5/AudioClkGen.c **** *
  93:.\Generated_Source\PSoC5/AudioClkGen.c **** *******************************************************************************/
  94:.\Generated_Source\PSoC5/AudioClkGen.c **** void AudioClkGen_Stop(void)
  95:.\Generated_Source\PSoC5/AudioClkGen.c **** {
  89              		.loc 1 95 0
  90              		.cfi_startproc
  91              		@ args = 0, pretend = 0, frame = 0
  92              		@ frame_needed = 1, uses_anonymous_args = 0
  93              		@ link register save eliminated.
  94 0000 80B4     		push	{r7}
  95              	.LCFI2:
  96              		.cfi_def_cfa_offset 4
  97 0002 00AF     		add	r7, sp, #0
  98              		.cfi_offset 7, -4
  99              	.LCFI3:
 100              		.cfi_def_cfa_register 7
  96:.\Generated_Source\PSoC5/AudioClkGen.c **** 	;
  97:.\Generated_Source\PSoC5/AudioClkGen.c **** }
 101              		.loc 1 97 0
 102 0004 BD46     		mov	sp, r7
 103 0006 80BC     		pop	{r7}
 104 0008 7047     		bx	lr
 105              		.cfi_endproc
 106              	.LFE1:
 107              		.size	AudioClkGen_Stop, .-AudioClkGen_Stop
 108 000a 00BF     		.section	.text.AudioClkGen_SetAudioRate,"ax",%progbits
 109              		.align	2
 110              		.global	AudioClkGen_SetAudioRate
 111              		.thumb
 112              		.thumb_func
 113              		.type	AudioClkGen_SetAudioRate, %function
 114              	AudioClkGen_SetAudioRate:
 115              	.LFB2:
  98:.\Generated_Source\PSoC5/AudioClkGen.c **** 
  99:.\Generated_Source\PSoC5/AudioClkGen.c **** /*******************************************************************************
 100:.\Generated_Source\PSoC5/AudioClkGen.c **** * Function Name: AudioClkGen_SetDividerAudioRate
 101:.\Generated_Source\PSoC5/AudioClkGen.c **** ********************************************************************************
 102:.\Generated_Source\PSoC5/AudioClkGen.c **** * Summary:
 103:.\Generated_Source\PSoC5/AudioClkGen.c **** *  This function is used to setup all the required internal values for 
 104:.\Generated_Source\PSoC5/AudioClkGen.c **** *  to generate common audio sample rate clocks from a 24 MHz input
 105:.\Generated_Source\PSoC5/AudioClkGen.c **** *
 106:.\Generated_Source\PSoC5/AudioClkGen.c **** * Parameters:  
 107:.\Generated_Source\PSoC5/AudioClkGen.c **** *  rate: Desired audio sample rate to be fed to PLL.  
 108:.\Generated_Source\PSoC5/AudioClkGen.c **** *  		 Must be one of the following:
 109:.\Generated_Source\PSoC5/AudioClkGen.c **** *		AudioClkGen_RATE_8KHZ
ARM GAS  C:\DOCUME~1\ADMINI~1\LOCALS~1\Temp\ccy7AVsL.s 			page 5


 110:.\Generated_Source\PSoC5/AudioClkGen.c **** *		AudioClkGen_RATE_11KHZ
 111:.\Generated_Source\PSoC5/AudioClkGen.c **** *		AudioClkGen_RATE_16KHZ
 112:.\Generated_Source\PSoC5/AudioClkGen.c **** *		AudioClkGen_RATE_22KHZ
 113:.\Generated_Source\PSoC5/AudioClkGen.c **** *		AudioClkGen_RATE_32KHZ
 114:.\Generated_Source\PSoC5/AudioClkGen.c **** *		AudioClkGen_RATE_44KHZ
 115:.\Generated_Source\PSoC5/AudioClkGen.c **** * 		AudioClkGen_RATE_48KHZ
 116:.\Generated_Source\PSoC5/AudioClkGen.c **** * 		AudioClkGen_RATE_96KHZ
 117:.\Generated_Source\PSoC5/AudioClkGen.c **** *
 118:.\Generated_Source\PSoC5/AudioClkGen.c **** * Return: 
 119:.\Generated_Source\PSoC5/AudioClkGen.c **** *  char*: string with current audio sample frequency
 120:.\Generated_Source\PSoC5/AudioClkGen.c **** *
 121:.\Generated_Source\PSoC5/AudioClkGen.c **** *******************************************************************************/
 122:.\Generated_Source\PSoC5/AudioClkGen.c **** void AudioClkGen_SetAudioRate(uint8 rate) 
 123:.\Generated_Source\PSoC5/AudioClkGen.c **** {
 116              		.loc 1 123 0
 117              		.cfi_startproc
 118              		@ args = 0, pretend = 0, frame = 8
 119              		@ frame_needed = 1, uses_anonymous_args = 0
 120 0000 80B5     		push	{r7, lr}
 121              	.LCFI4:
 122              		.cfi_def_cfa_offset 8
 123 0002 82B0     		sub	sp, sp, #8
 124              	.LCFI5:
 125              		.cfi_def_cfa_offset 16
 126 0004 00AF     		add	r7, sp, #0
 127              		.cfi_offset 14, -4
 128              		.cfi_offset 7, -8
 129              	.LCFI6:
 130              		.cfi_def_cfa_register 7
 131 0006 0346     		mov	r3, r0
 132 0008 FB71     		strb	r3, [r7, #7]
 124:.\Generated_Source\PSoC5/AudioClkGen.c **** 	/* Turn off the PLL */
 125:.\Generated_Source\PSoC5/AudioClkGen.c **** 	//CyPLL_OUT_Stop();	    
 126:.\Generated_Source\PSoC5/AudioClkGen.c **** 	
 127:.\Generated_Source\PSoC5/AudioClkGen.c **** 	switch (rate) {	
 133              		.loc 1 127 0
 134 000a FB79     		ldrb	r3, [r7, #7]	@ zero_extendqisi2
 135 000c 072B     		cmp	r3, #7
 136 000e 00F28C80 		bhi	.L6
 137 0012 4FF00102 		mov	r2, #1
 138 0016 02FA03F3 		lsl	r3, r2, r3
 139 001a 03F09D02 		and	r2, r3, #157
 140 001e 002A     		cmp	r2, #0
 141 0020 04D1     		bne	.L7
 142 0022 03F06203 		and	r3, r3, #98
 143 0026 002B     		cmp	r3, #0
 144 0028 40D1     		bne	.L8
 145 002a 7EE0     		b	.L6
 146              	.L7:
 128:.\Generated_Source\PSoC5/AudioClkGen.c **** 		case AudioClkGen_RATE_8KHZ:				
 129:.\Generated_Source\PSoC5/AudioClkGen.c **** 		case AudioClkGen_RATE_16KHZ:				
 130:.\Generated_Source\PSoC5/AudioClkGen.c **** 		case AudioClkGen_RATE_32KHZ:				
 131:.\Generated_Source\PSoC5/AudioClkGen.c **** 		case AudioClkGen_RATE_48KHZ:
 132:.\Generated_Source\PSoC5/AudioClkGen.c **** 		case AudioClkGen_RATE_96KHZ:		
 133:.\Generated_Source\PSoC5/AudioClkGen.c **** 				#ifdef BUSCLK_48
 134:.\Generated_Source\PSoC5/AudioClkGen.c **** 				CY_SET_XTND_REG16((void CYFAR *)(CYDEV_FASTCLK_PLL_P), 48);
 135:.\Generated_Source\PSoC5/AudioClkGen.c **** 				#endif
ARM GAS  C:\DOCUME~1\ADMINI~1\LOCALS~1\Temp\ccy7AVsL.s 			page 6


 136:.\Generated_Source\PSoC5/AudioClkGen.c **** 				
 137:.\Generated_Source\PSoC5/AudioClkGen.c **** 				#ifdef BUSCLK_36
 138:.\Generated_Source\PSoC5/AudioClkGen.c **** 				CY_SET_XTND_REG16((void CYFAR *)(CYDEV_FASTCLK_PLL_P), 36);
 147              		.loc 1 138 0
 148 002c 44F22223 		movw	r3, #:lower16:1073758754
 149 0030 C4F20003 		movt	r3, #:upper16:1073758754
 150 0034 4FF02402 		mov	r2, #36
 151 0038 1A80     		strh	r2, [r3, #0]	@ movhi
 139:.\Generated_Source\PSoC5/AudioClkGen.c **** 				#endif
 140:.\Generated_Source\PSoC5/AudioClkGen.c **** 				
 141:.\Generated_Source\PSoC5/AudioClkGen.c **** 				#ifdef BUSCLK_24
 142:.\Generated_Source\PSoC5/AudioClkGen.c **** 				CY_SET_XTND_REG16((void CYFAR *)(CYDEV_FASTCLK_PLL_P), 24);
 143:.\Generated_Source\PSoC5/AudioClkGen.c **** 				#endif
 144:.\Generated_Source\PSoC5/AudioClkGen.c **** 				
 145:.\Generated_Source\PSoC5/AudioClkGen.c **** 				#ifdef BUSCLK_12
 146:.\Generated_Source\PSoC5/AudioClkGen.c **** 				CY_SET_XTND_REG16((void CYFAR *)(CYDEV_FASTCLK_PLL_P), 12);
 147:.\Generated_Source\PSoC5/AudioClkGen.c **** 				#endif
 148:.\Generated_Source\PSoC5/AudioClkGen.c ****                 
 149:.\Generated_Source\PSoC5/AudioClkGen.c ****                 #ifdef BUSCLK_16
 150:.\Generated_Source\PSoC5/AudioClkGen.c ****                      #ifdef NEW_16M_CLKGEN_VALUES
 151:.\Generated_Source\PSoC5/AudioClkGen.c ****                         CY_CLK_PLL_P_REG = 18; /* P = 18 */
 152:.\Generated_Source\PSoC5/AudioClkGen.c ****                         CY_CLK_PLL_Q_REG = 0; /* Q = 1*/
 153:.\Generated_Source\PSoC5/AudioClkGen.c ****                     #else
 154:.\Generated_Source\PSoC5/AudioClkGen.c ****                         CY_CLK_PLL_P_REG = 36; /* P = 33 */
 155:.\Generated_Source\PSoC5/AudioClkGen.c ****                         CY_CLK_PLL_Q_REG = 1; /* Q = 2*/
 156:.\Generated_Source\PSoC5/AudioClkGen.c ****                     #endif    
 157:.\Generated_Source\PSoC5/AudioClkGen.c ****                 #endif
 158:.\Generated_Source\PSoC5/AudioClkGen.c **** 				
 159:.\Generated_Source\PSoC5/AudioClkGen.c ****                 #ifdef NEW_16M_CLKGEN_VALUES
 160:.\Generated_Source\PSoC5/AudioClkGen.c ****                     AudioClkGen_NC0_INIT_0 = (uint8)(14336 & 0xFF);
 161:.\Generated_Source\PSoC5/AudioClkGen.c ****     				AudioClkGen_NC0_INIT_1 = (uint8)((14336 >> 8) & 0xFF);
 162:.\Generated_Source\PSoC5/AudioClkGen.c ****     				AudioClkGen_THRESHOLD_0 = (uint8)(34816 & 0xFF);
 163:.\Generated_Source\PSoC5/AudioClkGen.c ****     				AudioClkGen_THRESHOLD_1 = (uint8)((34816 >> 8) & 0xFF);
 164:.\Generated_Source\PSoC5/AudioClkGen.c ****     				AudioClkGen_M_0 = (uint8)(32768 & 0xFF);
 165:.\Generated_Source\PSoC5/AudioClkGen.c ****     				AudioClkGen_M_1 = (uint8)((32768 >> 8) & 0xFF);		
 166:.\Generated_Source\PSoC5/AudioClkGen.c ****                     AudioClkGen_N = (32-2);
 167:.\Generated_Source\PSoC5/AudioClkGen.c **** 					AudioClkGen_LOW_PERIOD = (23-2);	// Overall period is 23 or 24 cycles
 168:.\Generated_Source\PSoC5/AudioClkGen.c ****     				AudioClkGen_NC0_0 = (uint8)(14336 & 0xFF);
 169:.\Generated_Source\PSoC5/AudioClkGen.c ****     				AudioClkGen_NC0_1 = (uint8)((14336 >> 8) & 0xFF);
 170:.\Generated_Source\PSoC5/AudioClkGen.c ****                 #else
 171:.\Generated_Source\PSoC5/AudioClkGen.c ****     				AudioClkGen_NC0_INIT_0 = (uint8)(24640 & 0xFF);
 152              		.loc 1 171 0
 153 003a 46F21453 		movw	r3, #:lower16:1073767700
 154 003e C4F20003 		movt	r3, #:upper16:1073767700
 155 0042 4FF04002 		mov	r2, #64
 156 0046 1A70     		strb	r2, [r3, #0]
 172:.\Generated_Source\PSoC5/AudioClkGen.c ****     				AudioClkGen_NC0_INIT_1 = (uint8)((24640 >> 8) & 0xFF);
 157              		.loc 1 172 0
 158 0048 46F21553 		movw	r3, #:lower16:1073767701
 159 004c C4F20003 		movt	r3, #:upper16:1073767701
 160 0050 4FF06002 		mov	r2, #96
 161 0054 1A70     		strb	r2, [r3, #0]
 173:.\Generated_Source\PSoC5/AudioClkGen.c ****     				AudioClkGen_THRESHOLD_0 = (uint8)(36288 & 0xFF);
 162              		.loc 1 173 0
 163 0056 46F22453 		movw	r3, #:lower16:1073767716
 164 005a C4F20003 		movt	r3, #:upper16:1073767716
 165 005e 6FF03F02 		mvn	r2, #63
ARM GAS  C:\DOCUME~1\ADMINI~1\LOCALS~1\Temp\ccy7AVsL.s 			page 7


 166 0062 1A70     		strb	r2, [r3, #0]
 174:.\Generated_Source\PSoC5/AudioClkGen.c ****     				AudioClkGen_THRESHOLD_1 = (uint8)((36288 >> 8) & 0xFF);
 167              		.loc 1 174 0
 168 0064 46F22553 		movw	r3, #:lower16:1073767717
 169 0068 C4F20003 		movt	r3, #:upper16:1073767717
 170 006c 6FF07202 		mvn	r2, #114
 171 0070 1A70     		strb	r2, [r3, #0]
 175:.\Generated_Source\PSoC5/AudioClkGen.c ****     				AudioClkGen_M_0 = (uint8)(56320 & 0xFF);
 172              		.loc 1 175 0
 173 0072 46F23453 		movw	r3, #:lower16:1073767732
 174 0076 C4F20003 		movt	r3, #:upper16:1073767732
 175 007a 4FF00002 		mov	r2, #0
 176 007e 1A70     		strb	r2, [r3, #0]
 176:.\Generated_Source\PSoC5/AudioClkGen.c ****     				AudioClkGen_M_1 = (uint8)((56320 >> 8) & 0xFF);										
 177              		.loc 1 176 0
 178 0080 46F23553 		movw	r3, #:lower16:1073767733
 179 0084 C4F20003 		movt	r3, #:upper16:1073767733
 180 0088 6FF02302 		mvn	r2, #35
 181 008c 1A70     		strb	r2, [r3, #0]
 177:.\Generated_Source\PSoC5/AudioClkGen.c ****     				AudioClkGen_NC0_0 = (uint8)(24640 & 0xFF);
 182              		.loc 1 177 0
 183 008e 46F23653 		movw	r3, #:lower16:1073767734
 184 0092 C4F20003 		movt	r3, #:upper16:1073767734
 185 0096 4FF04002 		mov	r2, #64
 186 009a 1A70     		strb	r2, [r3, #0]
 178:.\Generated_Source\PSoC5/AudioClkGen.c ****     				AudioClkGen_NC0_1 = (uint8)((24640 >> 8) & 0xFF);
 187              		.loc 1 178 0
 188 009c 46F23753 		movw	r3, #:lower16:1073767735
 189 00a0 C4F20003 		movt	r3, #:upper16:1073767735
 190 00a4 4FF06002 		mov	r2, #96
 191 00a8 1A70     		strb	r2, [r3, #0]
 179:.\Generated_Source\PSoC5/AudioClkGen.c ****                 #endif
 180:.\Generated_Source\PSoC5/AudioClkGen.c **** 			break;
 192              		.loc 1 180 0
 193 00aa 3EE0     		b	.L6
 194              	.L8:
 181:.\Generated_Source\PSoC5/AudioClkGen.c **** 		case AudioClkGen_RATE_11KHZ:		
 182:.\Generated_Source\PSoC5/AudioClkGen.c **** 		case AudioClkGen_RATE_22KHZ:		
 183:.\Generated_Source\PSoC5/AudioClkGen.c **** 		case AudioClkGen_RATE_44KHZ:
 184:.\Generated_Source\PSoC5/AudioClkGen.c **** 				#ifdef BUSCLK_48
 185:.\Generated_Source\PSoC5/AudioClkGen.c **** 				CY_SET_XTND_REG16((void CYFAR *)(CYDEV_FASTCLK_PLL_P), 44);
 186:.\Generated_Source\PSoC5/AudioClkGen.c **** 				#endif
 187:.\Generated_Source\PSoC5/AudioClkGen.c **** 				
 188:.\Generated_Source\PSoC5/AudioClkGen.c **** 				#ifdef BUSCLK_36
 189:.\Generated_Source\PSoC5/AudioClkGen.c **** 				CY_SET_XTND_REG16((void CYFAR *)(CYDEV_FASTCLK_PLL_P), 33);
 195              		.loc 1 189 0
 196 00ac 44F22223 		movw	r3, #:lower16:1073758754
 197 00b0 C4F20003 		movt	r3, #:upper16:1073758754
 198 00b4 4FF02102 		mov	r2, #33
 199 00b8 1A80     		strh	r2, [r3, #0]	@ movhi
 190:.\Generated_Source\PSoC5/AudioClkGen.c **** 				#endif
 191:.\Generated_Source\PSoC5/AudioClkGen.c **** 				
 192:.\Generated_Source\PSoC5/AudioClkGen.c **** 				#ifdef BUSCLK_24
 193:.\Generated_Source\PSoC5/AudioClkGen.c **** 				CY_SET_XTND_REG16((void CYFAR *)(CYDEV_FASTCLK_PLL_P), 22);
 194:.\Generated_Source\PSoC5/AudioClkGen.c **** 				#endif
 195:.\Generated_Source\PSoC5/AudioClkGen.c **** 				
 196:.\Generated_Source\PSoC5/AudioClkGen.c **** 				#ifdef BUSCLK_12
ARM GAS  C:\DOCUME~1\ADMINI~1\LOCALS~1\Temp\ccy7AVsL.s 			page 8


 197:.\Generated_Source\PSoC5/AudioClkGen.c **** 				CY_SET_XTND_REG16((void CYFAR *)(CYDEV_FASTCLK_PLL_P), 11);
 198:.\Generated_Source\PSoC5/AudioClkGen.c **** 				#endif
 199:.\Generated_Source\PSoC5/AudioClkGen.c ****                 
 200:.\Generated_Source\PSoC5/AudioClkGen.c ****                 #ifdef BUSCLK_16
 201:.\Generated_Source\PSoC5/AudioClkGen.c ****                     #ifdef NEW_16M_CLKGEN_VALUES
 202:.\Generated_Source\PSoC5/AudioClkGen.c ****                         CY_CLK_PLL_P_REG = 16; /* P = 16 */
 203:.\Generated_Source\PSoC5/AudioClkGen.c ****                         CY_CLK_PLL_Q_REG = 0; /* Q = 1*/
 204:.\Generated_Source\PSoC5/AudioClkGen.c ****                     #else
 205:.\Generated_Source\PSoC5/AudioClkGen.c ****                         CY_CLK_PLL_P_REG = 33; /* P = 33 */
 206:.\Generated_Source\PSoC5/AudioClkGen.c ****                         CY_CLK_PLL_Q_REG = 1; /* Q = 1*/
 207:.\Generated_Source\PSoC5/AudioClkGen.c ****                     #endif
 208:.\Generated_Source\PSoC5/AudioClkGen.c ****                 #endif
 209:.\Generated_Source\PSoC5/AudioClkGen.c **** 
 210:.\Generated_Source\PSoC5/AudioClkGen.c ****                 #ifdef NEW_16M_CLKGEN_VALUES
 211:.\Generated_Source\PSoC5/AudioClkGen.c ****                     AudioClkGen_NC0_INIT_0 = (uint8)(21456 & 0xFF);
 212:.\Generated_Source\PSoC5/AudioClkGen.c ****     				AudioClkGen_NC0_INIT_1 = (uint8)((21456 >> 8) & 0xFF);
 213:.\Generated_Source\PSoC5/AudioClkGen.c ****     				AudioClkGen_THRESHOLD_0 = (uint8)(27188 & 0xFF);
 214:.\Generated_Source\PSoC5/AudioClkGen.c ****     				AudioClkGen_THRESHOLD_1 = (uint8)((27188 >> 8) & 0xFF);
 215:.\Generated_Source\PSoC5/AudioClkGen.c ****     				AudioClkGen_M_0 = (uint8)(31752 & 0xFF);
 216:.\Generated_Source\PSoC5/AudioClkGen.c ****     				AudioClkGen_M_1 = (uint8)((31752 >> 8) & 0xFF);
 217:.\Generated_Source\PSoC5/AudioClkGen.c ****                     AudioClkGen_N = (30-2);
 218:.\Generated_Source\PSoC5/AudioClkGen.c **** 					AudioClkGen_LOW_PERIOD = (22-2);	// Overall period is 22 or 23 cycles
 219:.\Generated_Source\PSoC5/AudioClkGen.c ****     				AudioClkGen_NC0_0 = (uint8)(21456 & 0xFF);
 220:.\Generated_Source\PSoC5/AudioClkGen.c ****     				AudioClkGen_NC0_1 = (uint8)((21456 >> 8) & 0xFF);
 221:.\Generated_Source\PSoC5/AudioClkGen.c ****                 #else                                
 222:.\Generated_Source\PSoC5/AudioClkGen.c ****     				AudioClkGen_NC0_INIT_0 = (uint8)(21696 & 0xFF);
 200              		.loc 1 222 0
 201 00ba 46F21453 		movw	r3, #:lower16:1073767700
 202 00be C4F20003 		movt	r3, #:upper16:1073767700
 203 00c2 6FF03F02 		mvn	r2, #63
 204 00c6 1A70     		strb	r2, [r3, #0]
 223:.\Generated_Source\PSoC5/AudioClkGen.c ****     				AudioClkGen_NC0_INIT_1 = (uint8)((21696 >> 8) & 0xFF);
 205              		.loc 1 223 0
 206 00c8 46F21553 		movw	r3, #:lower16:1073767701
 207 00cc C4F20003 		movt	r3, #:upper16:1073767701
 208 00d0 4FF05402 		mov	r2, #84
 209 00d4 1A70     		strb	r2, [r3, #0]
 224:.\Generated_Source\PSoC5/AudioClkGen.c ****     				AudioClkGen_THRESHOLD_0 = (uint8)(39296 & 0xFF);
 210              		.loc 1 224 0
 211 00d6 46F22453 		movw	r3, #:lower16:1073767716
 212 00da C4F20003 		movt	r3, #:upper16:1073767716
 213 00de 6FF07F02 		mvn	r2, #127
 214 00e2 1A70     		strb	r2, [r3, #0]
 225:.\Generated_Source\PSoC5/AudioClkGen.c ****     				AudioClkGen_THRESHOLD_1 = (uint8)((39296 >> 8) & 0xFF);
 215              		.loc 1 225 0
 216 00e4 46F22553 		movw	r3, #:lower16:1073767717
 217 00e8 C4F20003 		movt	r3, #:upper16:1073767717
 218 00ec 6FF06602 		mvn	r2, #102
 219 00f0 1A70     		strb	r2, [r3, #0]
 226:.\Generated_Source\PSoC5/AudioClkGen.c ****     				AudioClkGen_M_0 = (uint8)(56448 & 0xFF);
 220              		.loc 1 226 0
 221 00f2 46F23453 		movw	r3, #:lower16:1073767732
 222 00f6 C4F20003 		movt	r3, #:upper16:1073767732
 223 00fa 6FF07F02 		mvn	r2, #127
 224 00fe 1A70     		strb	r2, [r3, #0]
 227:.\Generated_Source\PSoC5/AudioClkGen.c ****     				AudioClkGen_M_1 = (uint8)((56448 >> 8) & 0xFF);										
 225              		.loc 1 227 0
ARM GAS  C:\DOCUME~1\ADMINI~1\LOCALS~1\Temp\ccy7AVsL.s 			page 9


 226 0100 46F23553 		movw	r3, #:lower16:1073767733
 227 0104 C4F20003 		movt	r3, #:upper16:1073767733
 228 0108 6FF02302 		mvn	r2, #35
 229 010c 1A70     		strb	r2, [r3, #0]
 228:.\Generated_Source\PSoC5/AudioClkGen.c ****     				AudioClkGen_NC0_0 = (uint8)(21696 & 0xFF);
 230              		.loc 1 228 0
 231 010e 46F23653 		movw	r3, #:lower16:1073767734
 232 0112 C4F20003 		movt	r3, #:upper16:1073767734
 233 0116 6FF03F02 		mvn	r2, #63
 234 011a 1A70     		strb	r2, [r3, #0]
 229:.\Generated_Source\PSoC5/AudioClkGen.c ****     				AudioClkGen_NC0_1 = (uint8)((21696 >> 8) & 0xFF);					
 235              		.loc 1 229 0
 236 011c 46F23753 		movw	r3, #:lower16:1073767735
 237 0120 C4F20003 		movt	r3, #:upper16:1073767735
 238 0124 4FF05402 		mov	r2, #84
 239 0128 1A70     		strb	r2, [r3, #0]
 240              	.L6:
 230:.\Generated_Source\PSoC5/AudioClkGen.c ****                 #endif
 231:.\Generated_Source\PSoC5/AudioClkGen.c **** 			break;				
 232:.\Generated_Source\PSoC5/AudioClkGen.c **** 		default:
 233:.\Generated_Source\PSoC5/AudioClkGen.c **** 			break;
 234:.\Generated_Source\PSoC5/AudioClkGen.c **** 	}
 235:.\Generated_Source\PSoC5/AudioClkGen.c **** 	
 236:.\Generated_Source\PSoC5/AudioClkGen.c **** 	/* Turn on the PLL */
 237:.\Generated_Source\PSoC5/AudioClkGen.c **** 	CyPLL_OUT_Start(0);
 241              		.loc 1 237 0
 242 012a 4FF00000 		mov	r0, #0
 243 012e FFF7FEFF 		bl	CyPLL_OUT_Start
 238:.\Generated_Source\PSoC5/AudioClkGen.c ****     
 239:.\Generated_Source\PSoC5/AudioClkGen.c **** 	/* Wait to allow the PLL clock to stabilize */
 240:.\Generated_Source\PSoC5/AudioClkGen.c **** 	CyDelayUs(250);
 244              		.loc 1 240 0
 245 0132 4FF0FA00 		mov	r0, #250
 246 0136 FFF7FEFF 		bl	CyDelayUs
 241:.\Generated_Source\PSoC5/AudioClkGen.c **** 	
 242:.\Generated_Source\PSoC5/AudioClkGen.c **** 	switch (rate) {	
 247              		.loc 1 242 0
 248 013a FB79     		ldrb	r3, [r7, #7]	@ zero_extendqisi2
 249 013c 072B     		cmp	r3, #7
 250 013e 7AD8     		bhi	.L19
 251 0140 01A2     		adr	r2, .L18
 252 0142 52F823F0 		ldr	pc, [r2, r3, lsl #2]
 253 0146 00BF     		.align	2
 254              	.L18:
 255 0148 B7010000 		.word	.L10+1
 256 014c 05020000 		.word	.L11+1
 257 0150 9D010000 		.word	.L12+1
 258 0154 83010000 		.word	.L13+1
 259 0158 69010000 		.word	.L14+1
 260 015c D1010000 		.word	.L15+1
 261 0160 EB010000 		.word	.L16+1
 262 0164 1F020000 		.word	.L17+1
 263              	.L14:
 243:.\Generated_Source\PSoC5/AudioClkGen.c **** 		case AudioClkGen_RATE_8KHZ:				
 244:.\Generated_Source\PSoC5/AudioClkGen.c **** 			#if (AudioClkGen_Enable_Mclk)
 245:.\Generated_Source\PSoC5/AudioClkGen.c **** 			AudioClkGen_Clock_SCK_SetDividerRegister(23,0);	/* divide by 24 */
 264              		.loc 1 245 0
ARM GAS  C:\DOCUME~1\ADMINI~1\LOCALS~1\Temp\ccy7AVsL.s 			page 10


 265 0168 4FF01700 		mov	r0, #23
 266 016c 4FF00001 		mov	r1, #0
 267 0170 FFF7FEFF 		bl	AudioClkGen_Clock_SCK_SetDividerRegister
 246:.\Generated_Source\PSoC5/AudioClkGen.c **** 			#endif			
 247:.\Generated_Source\PSoC5/AudioClkGen.c **** 			#if (AudioClkGen_Enable_I2Sclk)
 248:.\Generated_Source\PSoC5/AudioClkGen.c **** 			AudioClkGen_Clock_I2S_SetDividerRegister(47,0);	/* divide by 48 */
 268              		.loc 1 248 0
 269 0174 4FF02F00 		mov	r0, #47
 270 0178 4FF00001 		mov	r1, #0
 271 017c FFF7FEFF 		bl	AudioClkGen_Clock_I2S_SetDividerRegister
 249:.\Generated_Source\PSoC5/AudioClkGen.c **** 			#endif
 250:.\Generated_Source\PSoC5/AudioClkGen.c **** 			break;
 272              		.loc 1 250 0
 273 0180 59E0     		b	.L19
 274              	.L13:
 251:.\Generated_Source\PSoC5/AudioClkGen.c **** 		case AudioClkGen_RATE_16KHZ:				
 252:.\Generated_Source\PSoC5/AudioClkGen.c **** 			#if (AudioClkGen_Enable_Mclk)
 253:.\Generated_Source\PSoC5/AudioClkGen.c **** 			AudioClkGen_Clock_SCK_SetDividerRegister(11,0);	/* divide by 12 */
 275              		.loc 1 253 0
 276 0182 4FF00B00 		mov	r0, #11
 277 0186 4FF00001 		mov	r1, #0
 278 018a FFF7FEFF 		bl	AudioClkGen_Clock_SCK_SetDividerRegister
 254:.\Generated_Source\PSoC5/AudioClkGen.c **** 			#endif
 255:.\Generated_Source\PSoC5/AudioClkGen.c **** 			#if (AudioClkGen_Enable_I2Sclk)
 256:.\Generated_Source\PSoC5/AudioClkGen.c **** 			AudioClkGen_Clock_I2S_SetDividerRegister(23,0);	/* divide by 24 */
 279              		.loc 1 256 0
 280 018e 4FF01700 		mov	r0, #23
 281 0192 4FF00001 		mov	r1, #0
 282 0196 FFF7FEFF 		bl	AudioClkGen_Clock_I2S_SetDividerRegister
 257:.\Generated_Source\PSoC5/AudioClkGen.c **** 			#endif
 258:.\Generated_Source\PSoC5/AudioClkGen.c **** 			break;
 283              		.loc 1 258 0
 284 019a 4CE0     		b	.L19
 285              	.L12:
 259:.\Generated_Source\PSoC5/AudioClkGen.c **** 		case AudioClkGen_RATE_32KHZ:				
 260:.\Generated_Source\PSoC5/AudioClkGen.c **** 		#ifdef BUSCLK_48
 261:.\Generated_Source\PSoC5/AudioClkGen.c **** 				#if (AudioClkGen_Enable_Mclk)
 262:.\Generated_Source\PSoC5/AudioClkGen.c **** 				AudioClkGen_Clock_SCK_SetDivider(5);	//divide by 6..
 263:.\Generated_Source\PSoC5/AudioClkGen.c **** 				#endif
 264:.\Generated_Source\PSoC5/AudioClkGen.c **** 				#if (AudioClkGen_Enable_I2Sclk)
 265:.\Generated_Source\PSoC5/AudioClkGen.c **** 					#ifdef WORD_PERIOD_32
 266:.\Generated_Source\PSoC5/AudioClkGen.c **** 					AudioClkGen_Clock_I2S_SetDivider(23);	//divide by 24..
 267:.\Generated_Source\PSoC5/AudioClkGen.c **** 					#else
 268:.\Generated_Source\PSoC5/AudioClkGen.c **** 					AudioClkGen_Clock_I2S_SetDivider(11);	//divide by 12..
 269:.\Generated_Source\PSoC5/AudioClkGen.c **** 					#endif
 270:.\Generated_Source\PSoC5/AudioClkGen.c **** 				#endif
 271:.\Generated_Source\PSoC5/AudioClkGen.c **** 			#endif
 272:.\Generated_Source\PSoC5/AudioClkGen.c **** 			
 273:.\Generated_Source\PSoC5/AudioClkGen.c **** 			#ifdef BUSCLK_36
 274:.\Generated_Source\PSoC5/AudioClkGen.c **** 				#if (AudioClkGen_Enable_Mclk)
 275:.\Generated_Source\PSoC5/AudioClkGen.c **** 				AudioClkGen_Clock_SCK_SetDivider(3);	//divide by 4..
 286              		.loc 1 275 0
 287 019c 4FF00300 		mov	r0, #3
 288 01a0 4FF00101 		mov	r1, #1
 289 01a4 FFF7FEFF 		bl	AudioClkGen_Clock_SCK_SetDividerRegister
 276:.\Generated_Source\PSoC5/AudioClkGen.c **** 				#endif
 277:.\Generated_Source\PSoC5/AudioClkGen.c **** 				#if (AudioClkGen_Enable_I2Sclk)
ARM GAS  C:\DOCUME~1\ADMINI~1\LOCALS~1\Temp\ccy7AVsL.s 			page 11


 278:.\Generated_Source\PSoC5/AudioClkGen.c **** 					#ifdef WORD_PERIOD_32
 279:.\Generated_Source\PSoC5/AudioClkGen.c **** 					AudioClkGen_Clock_I2S_SetDivider(17);	//divide by 18
 280:.\Generated_Source\PSoC5/AudioClkGen.c **** 					#else
 281:.\Generated_Source\PSoC5/AudioClkGen.c **** 					AudioClkGen_Clock_I2S_SetDivider(8);	//divide by 9
 290              		.loc 1 281 0
 291 01a8 4FF00800 		mov	r0, #8
 292 01ac 4FF00101 		mov	r1, #1
 293 01b0 FFF7FEFF 		bl	AudioClkGen_Clock_I2S_SetDividerRegister
 282:.\Generated_Source\PSoC5/AudioClkGen.c **** 					#endif
 283:.\Generated_Source\PSoC5/AudioClkGen.c **** 				#endif
 284:.\Generated_Source\PSoC5/AudioClkGen.c **** 			#endif
 285:.\Generated_Source\PSoC5/AudioClkGen.c **** 			#ifdef BUSCLK_24
 286:.\Generated_Source\PSoC5/AudioClkGen.c **** 				#if (AudioClkGen_Enable_Mclk)
 287:.\Generated_Source\PSoC5/AudioClkGen.c **** 				AudioClkGen_Clock_SCK_SetDivider(2);	//divide by 3
 288:.\Generated_Source\PSoC5/AudioClkGen.c **** 				#endif
 289:.\Generated_Source\PSoC5/AudioClkGen.c **** 				#if (AudioClkGen_Enable_I2Sclk)
 290:.\Generated_Source\PSoC5/AudioClkGen.c **** 					#ifdef WORD_PERIOD_32
 291:.\Generated_Source\PSoC5/AudioClkGen.c **** 					AudioClkGen_Clock_I2S_SetDivider(11);	//divide by 12
 292:.\Generated_Source\PSoC5/AudioClkGen.c **** 					#else
 293:.\Generated_Source\PSoC5/AudioClkGen.c **** 					AudioClkGen_Clock_I2S_SetDivider(5);	//divide by 6
 294:.\Generated_Source\PSoC5/AudioClkGen.c **** 					#endif
 295:.\Generated_Source\PSoC5/AudioClkGen.c **** 				#endif
 296:.\Generated_Source\PSoC5/AudioClkGen.c **** 			#endif
 297:.\Generated_Source\PSoC5/AudioClkGen.c **** 
 298:.\Generated_Source\PSoC5/AudioClkGen.c **** 				#ifdef BUSCLK_12
 299:.\Generated_Source\PSoC5/AudioClkGen.c **** 				#if (AudioClkGen_Enable_Mclk)
 300:.\Generated_Source\PSoC5/AudioClkGen.c **** 				AudioClkGen_Clock_SCK_SetDivider(0);	//divide by 1
 301:.\Generated_Source\PSoC5/AudioClkGen.c **** 				#endif
 302:.\Generated_Source\PSoC5/AudioClkGen.c **** 				#if (AudioClkGen_Enable_I2Sclk)
 303:.\Generated_Source\PSoC5/AudioClkGen.c **** 					#ifdef WORD_PERIOD_32
 304:.\Generated_Source\PSoC5/AudioClkGen.c **** 					AudioClkGen_Clock_I2S_SetDivider(5);	//divide by 6
 305:.\Generated_Source\PSoC5/AudioClkGen.c **** 					#else
 306:.\Generated_Source\PSoC5/AudioClkGen.c **** 					AudioClkGen_Clock_I2S_SetDivider(1);	//divide by 2
 307:.\Generated_Source\PSoC5/AudioClkGen.c **** 					#endif
 308:.\Generated_Source\PSoC5/AudioClkGen.c **** 				#endif
 309:.\Generated_Source\PSoC5/AudioClkGen.c **** 			#endif
 310:.\Generated_Source\PSoC5/AudioClkGen.c ****             
 311:.\Generated_Source\PSoC5/AudioClkGen.c ****             #ifdef BUSCLK_16
 312:.\Generated_Source\PSoC5/AudioClkGen.c ****                 AudioClkGen_Clock_SCK_SetDivider(0);	//divide by 1
 313:.\Generated_Source\PSoC5/AudioClkGen.c **** 				#ifdef WORD_PERIOD_32
 314:.\Generated_Source\PSoC5/AudioClkGen.c **** 					AudioClkGen_Clock_I2S_SetDivider(8);	//divide by 9
 315:.\Generated_Source\PSoC5/AudioClkGen.c **** 				#else
 316:.\Generated_Source\PSoC5/AudioClkGen.c **** 					AudioClkGen_Clock_I2S_SetDivider(3);	//divide by 4
 317:.\Generated_Source\PSoC5/AudioClkGen.c **** 				#endif
 318:.\Generated_Source\PSoC5/AudioClkGen.c ****             #endif
 319:.\Generated_Source\PSoC5/AudioClkGen.c **** 			break;			
 294              		.loc 1 319 0
 295 01b4 3FE0     		b	.L19
 296              	.L10:
 320:.\Generated_Source\PSoC5/AudioClkGen.c **** 		case AudioClkGen_RATE_48KHZ:		
 321:.\Generated_Source\PSoC5/AudioClkGen.c **** 			#ifdef BUSCLK_48
 322:.\Generated_Source\PSoC5/AudioClkGen.c **** 				#if (AudioClkGen_Enable_Mclk)
 323:.\Generated_Source\PSoC5/AudioClkGen.c **** 				AudioClkGen_Clock_SCK_SetDivider(3);	//divide by 4
 324:.\Generated_Source\PSoC5/AudioClkGen.c **** 				#endif
 325:.\Generated_Source\PSoC5/AudioClkGen.c **** 				#if (AudioClkGen_Enable_I2Sclk)
 326:.\Generated_Source\PSoC5/AudioClkGen.c **** 					#ifdef WORD_PERIOD_32
 327:.\Generated_Source\PSoC5/AudioClkGen.c **** 					AudioClkGen_Clock_I2S_SetDivider(15);	//divide by 16
ARM GAS  C:\DOCUME~1\ADMINI~1\LOCALS~1\Temp\ccy7AVsL.s 			page 12


 328:.\Generated_Source\PSoC5/AudioClkGen.c **** 					#else
 329:.\Generated_Source\PSoC5/AudioClkGen.c **** 					AudioClkGen_Clock_I2S_SetDivider(7);	//divide by 8
 330:.\Generated_Source\PSoC5/AudioClkGen.c **** 					#endif
 331:.\Generated_Source\PSoC5/AudioClkGen.c **** 				#endif
 332:.\Generated_Source\PSoC5/AudioClkGen.c **** 			#endif
 333:.\Generated_Source\PSoC5/AudioClkGen.c **** 			
 334:.\Generated_Source\PSoC5/AudioClkGen.c **** 			#ifdef BUSCLK_36
 335:.\Generated_Source\PSoC5/AudioClkGen.c **** 				#if (AudioClkGen_Enable_Mclk)
 336:.\Generated_Source\PSoC5/AudioClkGen.c **** 				AudioClkGen_Clock_SCK_SetDivider(2);	//divide by 3
 297              		.loc 1 336 0
 298 01b6 4FF00200 		mov	r0, #2
 299 01ba 4FF00101 		mov	r1, #1
 300 01be FFF7FEFF 		bl	AudioClkGen_Clock_SCK_SetDividerRegister
 337:.\Generated_Source\PSoC5/AudioClkGen.c **** 				#endif
 338:.\Generated_Source\PSoC5/AudioClkGen.c **** 				#if (AudioClkGen_Enable_I2Sclk)
 339:.\Generated_Source\PSoC5/AudioClkGen.c **** 					#ifdef WORD_PERIOD_32
 340:.\Generated_Source\PSoC5/AudioClkGen.c **** 					AudioClkGen_Clock_I2S_SetDivider(11);	//divide by 12
 341:.\Generated_Source\PSoC5/AudioClkGen.c **** 					#else
 342:.\Generated_Source\PSoC5/AudioClkGen.c **** 					AudioClkGen_Clock_I2S_SetDivider(5);	//divide by 6
 301              		.loc 1 342 0
 302 01c2 4FF00500 		mov	r0, #5
 303 01c6 4FF00101 		mov	r1, #1
 304 01ca FFF7FEFF 		bl	AudioClkGen_Clock_I2S_SetDividerRegister
 343:.\Generated_Source\PSoC5/AudioClkGen.c **** 					#endif
 344:.\Generated_Source\PSoC5/AudioClkGen.c **** 				#endif
 345:.\Generated_Source\PSoC5/AudioClkGen.c **** 			#endif
 346:.\Generated_Source\PSoC5/AudioClkGen.c **** 			#ifdef BUSCLK_24
 347:.\Generated_Source\PSoC5/AudioClkGen.c **** 				#if (AudioClkGen_Enable_Mclk)
 348:.\Generated_Source\PSoC5/AudioClkGen.c **** 				AudioClkGen_Clock_SCK_SetDivider(1);	//divide by 2
 349:.\Generated_Source\PSoC5/AudioClkGen.c **** 				#endif
 350:.\Generated_Source\PSoC5/AudioClkGen.c **** 				#if (AudioClkGen_Enable_I2Sclk)
 351:.\Generated_Source\PSoC5/AudioClkGen.c **** 					#ifdef WORD_PERIOD_32
 352:.\Generated_Source\PSoC5/AudioClkGen.c **** 					AudioClkGen_Clock_I2S_SetDivider(7);	//divide by 8
 353:.\Generated_Source\PSoC5/AudioClkGen.c **** 					#else
 354:.\Generated_Source\PSoC5/AudioClkGen.c **** 					AudioClkGen_Clock_I2S_SetDivider(3);	//divide by 4
 355:.\Generated_Source\PSoC5/AudioClkGen.c **** 					#endif
 356:.\Generated_Source\PSoC5/AudioClkGen.c **** 				#endif
 357:.\Generated_Source\PSoC5/AudioClkGen.c **** 			#endif
 358:.\Generated_Source\PSoC5/AudioClkGen.c **** 
 359:.\Generated_Source\PSoC5/AudioClkGen.c **** 			#ifdef BUSCLK_12
 360:.\Generated_Source\PSoC5/AudioClkGen.c **** 				#if (AudioClkGen_Enable_Mclk)
 361:.\Generated_Source\PSoC5/AudioClkGen.c **** 				AudioClkGen_Clock_SCK_SetDivider(0);	//divide by 1
 362:.\Generated_Source\PSoC5/AudioClkGen.c **** 				#endif
 363:.\Generated_Source\PSoC5/AudioClkGen.c **** 				#if (AudioClkGen_Enable_I2Sclk)
 364:.\Generated_Source\PSoC5/AudioClkGen.c **** 					#ifdef WORD_PERIOD_32
 365:.\Generated_Source\PSoC5/AudioClkGen.c **** 					AudioClkGen_Clock_I2S_SetDivider(3);	//divide by 4
 366:.\Generated_Source\PSoC5/AudioClkGen.c **** 					#else
 367:.\Generated_Source\PSoC5/AudioClkGen.c **** 					AudioClkGen_Clock_I2S_SetDivider(1);	//divide by 2
 368:.\Generated_Source\PSoC5/AudioClkGen.c **** 					#endif
 369:.\Generated_Source\PSoC5/AudioClkGen.c **** 				#endif
 370:.\Generated_Source\PSoC5/AudioClkGen.c **** 			#endif
 371:.\Generated_Source\PSoC5/AudioClkGen.c ****             
 372:.\Generated_Source\PSoC5/AudioClkGen.c ****             #ifdef BUSCLK_16
 373:.\Generated_Source\PSoC5/AudioClkGen.c ****                 AudioClkGen_Clock_SCK_SetDivider(0);	//divide by 1
 374:.\Generated_Source\PSoC5/AudioClkGen.c **** 				#ifdef WORD_PERIOD_32
 375:.\Generated_Source\PSoC5/AudioClkGen.c **** 					AudioClkGen_Clock_I2S_SetDivider(5);	//divide by 6
 376:.\Generated_Source\PSoC5/AudioClkGen.c **** 				#else
ARM GAS  C:\DOCUME~1\ADMINI~1\LOCALS~1\Temp\ccy7AVsL.s 			page 13


 377:.\Generated_Source\PSoC5/AudioClkGen.c **** 					AudioClkGen_Clock_I2S_SetDivider(2);	//divide by 3
 378:.\Generated_Source\PSoC5/AudioClkGen.c **** 				#endif
 379:.\Generated_Source\PSoC5/AudioClkGen.c ****             #endif
 380:.\Generated_Source\PSoC5/AudioClkGen.c **** 			break;
 305              		.loc 1 380 0
 306 01ce 32E0     		b	.L19
 307              	.L15:
 381:.\Generated_Source\PSoC5/AudioClkGen.c **** 		case AudioClkGen_RATE_11KHZ:		
 382:.\Generated_Source\PSoC5/AudioClkGen.c **** 			#if (AudioClkGen_Enable_Mclk)
 383:.\Generated_Source\PSoC5/AudioClkGen.c **** 			AudioClkGen_Clock_SCK_SetDividerRegister(15,0);	/* divide by 16 */
 308              		.loc 1 383 0
 309 01d0 4FF00F00 		mov	r0, #15
 310 01d4 4FF00001 		mov	r1, #0
 311 01d8 FFF7FEFF 		bl	AudioClkGen_Clock_SCK_SetDividerRegister
 384:.\Generated_Source\PSoC5/AudioClkGen.c **** 			#endif
 385:.\Generated_Source\PSoC5/AudioClkGen.c **** 			#if (AudioClkGen_Enable_I2Sclk)
 386:.\Generated_Source\PSoC5/AudioClkGen.c **** 			AudioClkGen_Clock_I2S_SetDividerRegister(31,0);	/* divide by 32 */
 312              		.loc 1 386 0
 313 01dc 4FF01F00 		mov	r0, #31
 314 01e0 4FF00001 		mov	r1, #0
 315 01e4 FFF7FEFF 		bl	AudioClkGen_Clock_I2S_SetDividerRegister
 387:.\Generated_Source\PSoC5/AudioClkGen.c **** 			#endif
 388:.\Generated_Source\PSoC5/AudioClkGen.c **** 			break;
 316              		.loc 1 388 0
 317 01e8 25E0     		b	.L19
 318              	.L16:
 389:.\Generated_Source\PSoC5/AudioClkGen.c **** 		case AudioClkGen_RATE_22KHZ:		
 390:.\Generated_Source\PSoC5/AudioClkGen.c **** 			#if (AudioClkGen_Enable_Mclk)
 391:.\Generated_Source\PSoC5/AudioClkGen.c **** 			AudioClkGen_Clock_SCK_SetDividerRegister(7,0);	/* divide by 8 */
 319              		.loc 1 391 0
 320 01ea 4FF00700 		mov	r0, #7
 321 01ee 4FF00001 		mov	r1, #0
 322 01f2 FFF7FEFF 		bl	AudioClkGen_Clock_SCK_SetDividerRegister
 392:.\Generated_Source\PSoC5/AudioClkGen.c **** 			#endif
 393:.\Generated_Source\PSoC5/AudioClkGen.c **** 			#if (AudioClkGen_Enable_I2Sclk)
 394:.\Generated_Source\PSoC5/AudioClkGen.c **** 			AudioClkGen_Clock_I2S_SetDividerRegister(15,0);	/* divide by 16 */
 323              		.loc 1 394 0
 324 01f6 4FF00F00 		mov	r0, #15
 325 01fa 4FF00001 		mov	r1, #0
 326 01fe FFF7FEFF 		bl	AudioClkGen_Clock_I2S_SetDividerRegister
 395:.\Generated_Source\PSoC5/AudioClkGen.c **** 			#endif
 396:.\Generated_Source\PSoC5/AudioClkGen.c **** 			break;
 327              		.loc 1 396 0
 328 0202 18E0     		b	.L19
 329              	.L11:
 397:.\Generated_Source\PSoC5/AudioClkGen.c **** 		case AudioClkGen_RATE_44KHZ:
 398:.\Generated_Source\PSoC5/AudioClkGen.c **** 			#ifdef BUSCLK_48
 399:.\Generated_Source\PSoC5/AudioClkGen.c **** 				#if (AudioClkGen_Enable_Mclk)
 400:.\Generated_Source\PSoC5/AudioClkGen.c **** 				AudioClkGen_Clock_SCK_SetDivider(3);	//divide by 4
 401:.\Generated_Source\PSoC5/AudioClkGen.c **** 				#endif
 402:.\Generated_Source\PSoC5/AudioClkGen.c **** 				#if (AudioClkGen_Enable_I2Sclk)
 403:.\Generated_Source\PSoC5/AudioClkGen.c **** 					#ifdef WORD_PERIOD_32
 404:.\Generated_Source\PSoC5/AudioClkGen.c **** 					AudioClkGen_Clock_I2S_SetDivider(15);	//divide by 16
 405:.\Generated_Source\PSoC5/AudioClkGen.c **** 					#else
 406:.\Generated_Source\PSoC5/AudioClkGen.c **** 					AudioClkGen_Clock_I2S_SetDivider(7);	//divide by 8
 407:.\Generated_Source\PSoC5/AudioClkGen.c **** 					#endif
 408:.\Generated_Source\PSoC5/AudioClkGen.c **** 				#endif
ARM GAS  C:\DOCUME~1\ADMINI~1\LOCALS~1\Temp\ccy7AVsL.s 			page 14


 409:.\Generated_Source\PSoC5/AudioClkGen.c **** 			#endif
 410:.\Generated_Source\PSoC5/AudioClkGen.c **** 			
 411:.\Generated_Source\PSoC5/AudioClkGen.c **** 			#ifdef BUSCLK_36
 412:.\Generated_Source\PSoC5/AudioClkGen.c **** 				#if (AudioClkGen_Enable_Mclk)
 413:.\Generated_Source\PSoC5/AudioClkGen.c **** 				AudioClkGen_Clock_SCK_SetDivider(2);	//divide by 3
 330              		.loc 1 413 0
 331 0204 4FF00200 		mov	r0, #2
 332 0208 4FF00101 		mov	r1, #1
 333 020c FFF7FEFF 		bl	AudioClkGen_Clock_SCK_SetDividerRegister
 414:.\Generated_Source\PSoC5/AudioClkGen.c **** 				#endif
 415:.\Generated_Source\PSoC5/AudioClkGen.c **** 				#if (AudioClkGen_Enable_I2Sclk)
 416:.\Generated_Source\PSoC5/AudioClkGen.c **** 					#ifdef WORD_PERIOD_32
 417:.\Generated_Source\PSoC5/AudioClkGen.c **** 					AudioClkGen_Clock_I2S_SetDivider(11);	//divide by 12
 418:.\Generated_Source\PSoC5/AudioClkGen.c **** 					#else
 419:.\Generated_Source\PSoC5/AudioClkGen.c **** 					AudioClkGen_Clock_I2S_SetDivider(5);	//divide by 6
 334              		.loc 1 419 0
 335 0210 4FF00500 		mov	r0, #5
 336 0214 4FF00101 		mov	r1, #1
 337 0218 FFF7FEFF 		bl	AudioClkGen_Clock_I2S_SetDividerRegister
 420:.\Generated_Source\PSoC5/AudioClkGen.c **** 					#endif
 421:.\Generated_Source\PSoC5/AudioClkGen.c **** 				#endif
 422:.\Generated_Source\PSoC5/AudioClkGen.c **** 			#endif
 423:.\Generated_Source\PSoC5/AudioClkGen.c **** 			
 424:.\Generated_Source\PSoC5/AudioClkGen.c **** 			#ifdef BUSCLK_24
 425:.\Generated_Source\PSoC5/AudioClkGen.c **** 				#if (AudioClkGen_Enable_Mclk)
 426:.\Generated_Source\PSoC5/AudioClkGen.c **** 				AudioClkGen_Clock_SCK_SetDivider(1);	//divide by 2
 427:.\Generated_Source\PSoC5/AudioClkGen.c **** 				#endif
 428:.\Generated_Source\PSoC5/AudioClkGen.c **** 				#if (AudioClkGen_Enable_I2Sclk)
 429:.\Generated_Source\PSoC5/AudioClkGen.c **** 					#ifdef WORD_PERIOD_32
 430:.\Generated_Source\PSoC5/AudioClkGen.c **** 					AudioClkGen_Clock_I2S_SetDivider(7);	//divide by 8
 431:.\Generated_Source\PSoC5/AudioClkGen.c **** 					#else
 432:.\Generated_Source\PSoC5/AudioClkGen.c **** 					AudioClkGen_Clock_I2S_SetDivider(3);	//divide by 4
 433:.\Generated_Source\PSoC5/AudioClkGen.c **** 					#endif
 434:.\Generated_Source\PSoC5/AudioClkGen.c **** 				#endif
 435:.\Generated_Source\PSoC5/AudioClkGen.c **** 			#endif
 436:.\Generated_Source\PSoC5/AudioClkGen.c **** 			
 437:.\Generated_Source\PSoC5/AudioClkGen.c **** 			#ifdef BUSCLK_12
 438:.\Generated_Source\PSoC5/AudioClkGen.c **** 				#if (AudioClkGen_Enable_Mclk)
 439:.\Generated_Source\PSoC5/AudioClkGen.c **** 				AudioClkGen_Clock_SCK_SetDivider(0);	//divide by 1
 440:.\Generated_Source\PSoC5/AudioClkGen.c **** 				#endif
 441:.\Generated_Source\PSoC5/AudioClkGen.c **** 				#if (AudioClkGen_Enable_I2Sclk)
 442:.\Generated_Source\PSoC5/AudioClkGen.c **** 					#ifdef WORD_PERIOD_32
 443:.\Generated_Source\PSoC5/AudioClkGen.c **** 					AudioClkGen_Clock_I2S_SetDivider(3);	//divide by 4
 444:.\Generated_Source\PSoC5/AudioClkGen.c **** 					#else
 445:.\Generated_Source\PSoC5/AudioClkGen.c **** 					AudioClkGen_Clock_I2S_SetDivider(1);	//divide by 2
 446:.\Generated_Source\PSoC5/AudioClkGen.c **** 					#endif
 447:.\Generated_Source\PSoC5/AudioClkGen.c **** 				#endif
 448:.\Generated_Source\PSoC5/AudioClkGen.c **** 			#endif
 449:.\Generated_Source\PSoC5/AudioClkGen.c ****             
 450:.\Generated_Source\PSoC5/AudioClkGen.c ****             #ifdef BUSCLK_16
 451:.\Generated_Source\PSoC5/AudioClkGen.c ****                 AudioClkGen_Clock_SCK_SetDivider(0);	//divide by 1
 452:.\Generated_Source\PSoC5/AudioClkGen.c **** 				#ifdef WORD_PERIOD_32
 453:.\Generated_Source\PSoC5/AudioClkGen.c **** 					AudioClkGen_Clock_I2S_SetDivider(5);	//divide by 6
 454:.\Generated_Source\PSoC5/AudioClkGen.c **** 				#else
 455:.\Generated_Source\PSoC5/AudioClkGen.c **** 					AudioClkGen_Clock_I2S_SetDivider(2);	//divide by 3
 456:.\Generated_Source\PSoC5/AudioClkGen.c **** 				#endif	
 457:.\Generated_Source\PSoC5/AudioClkGen.c ****             #endif
ARM GAS  C:\DOCUME~1\ADMINI~1\LOCALS~1\Temp\ccy7AVsL.s 			page 15


 458:.\Generated_Source\PSoC5/AudioClkGen.c **** 			
 459:.\Generated_Source\PSoC5/AudioClkGen.c **** 			break;
 338              		.loc 1 459 0
 339 021c 0BE0     		b	.L19
 340              	.L17:
 460:.\Generated_Source\PSoC5/AudioClkGen.c **** 
 461:.\Generated_Source\PSoC5/AudioClkGen.c **** 		case AudioClkGen_RATE_96KHZ: 
 462:.\Generated_Source\PSoC5/AudioClkGen.c **** 			#if (AudioClkGen_Enable_Mclk) 
 463:.\Generated_Source\PSoC5/AudioClkGen.c **** 			AudioClkGen_Clock_SCK_SetDividerRegister(1,0); //divide by 2 
 341              		.loc 1 463 0
 342 021e 4FF00100 		mov	r0, #1
 343 0222 4FF00001 		mov	r1, #0
 344 0226 FFF7FEFF 		bl	AudioClkGen_Clock_SCK_SetDividerRegister
 464:.\Generated_Source\PSoC5/AudioClkGen.c **** 			#endif 
 465:.\Generated_Source\PSoC5/AudioClkGen.c **** 			#if (AudioClkGen_Enable_I2Sclk) 
 466:.\Generated_Source\PSoC5/AudioClkGen.c **** 			AudioClkGen_Clock_I2S_SetDividerRegister(3,0); //divide by 4 
 345              		.loc 1 466 0
 346 022a 4FF00300 		mov	r0, #3
 347 022e 4FF00001 		mov	r1, #0
 348 0232 FFF7FEFF 		bl	AudioClkGen_Clock_I2S_SetDividerRegister
 349              	.L19:
 467:.\Generated_Source\PSoC5/AudioClkGen.c **** 			#endif 
 468:.\Generated_Source\PSoC5/AudioClkGen.c **** 			break;
 469:.\Generated_Source\PSoC5/AudioClkGen.c **** 		default:
 470:.\Generated_Source\PSoC5/AudioClkGen.c **** 			break;
 471:.\Generated_Source\PSoC5/AudioClkGen.c **** 	}
 472:.\Generated_Source\PSoC5/AudioClkGen.c **** }
 350              		.loc 1 472 0
 351 0236 07F10807 		add	r7, r7, #8
 352 023a BD46     		mov	sp, r7
 353 023c 80BD     		pop	{r7, pc}
 354              		.cfi_endproc
 355              	.LFE2:
 356              		.size	AudioClkGen_SetAudioRate, .-AudioClkGen_SetAudioRate
 357              		.text
 358              	.Letext0:
 359              		.section	.debug_loc,"",%progbits
 360              	.Ldebug_loc0:
 361              	.LLST0:
 362 0000 00000000 		.4byte	.LFB0
 363 0004 02000000 		.4byte	.LCFI0
 364 0008 0100     		.2byte	0x1
 365 000a 5D       		.byte	0x5d
 366 000b 02000000 		.4byte	.LCFI0
 367 000f 04000000 		.4byte	.LCFI1
 368 0013 0200     		.2byte	0x2
 369 0015 7D       		.byte	0x7d
 370 0016 04       		.sleb128 4
 371 0017 04000000 		.4byte	.LCFI1
 372 001b 5E000000 		.4byte	.LFE0
 373 001f 0200     		.2byte	0x2
 374 0021 77       		.byte	0x77
 375 0022 04       		.sleb128 4
 376 0023 00000000 		.4byte	0x0
 377 0027 00000000 		.4byte	0x0
 378              	.LLST1:
 379 002b 00000000 		.4byte	.LFB1
ARM GAS  C:\DOCUME~1\ADMINI~1\LOCALS~1\Temp\ccy7AVsL.s 			page 16


 380 002f 02000000 		.4byte	.LCFI2
 381 0033 0100     		.2byte	0x1
 382 0035 5D       		.byte	0x5d
 383 0036 02000000 		.4byte	.LCFI2
 384 003a 04000000 		.4byte	.LCFI3
 385 003e 0200     		.2byte	0x2
 386 0040 7D       		.byte	0x7d
 387 0041 04       		.sleb128 4
 388 0042 04000000 		.4byte	.LCFI3
 389 0046 0A000000 		.4byte	.LFE1
 390 004a 0200     		.2byte	0x2
 391 004c 77       		.byte	0x77
 392 004d 04       		.sleb128 4
 393 004e 00000000 		.4byte	0x0
 394 0052 00000000 		.4byte	0x0
 395              	.LLST2:
 396 0056 00000000 		.4byte	.LFB2
 397 005a 02000000 		.4byte	.LCFI4
 398 005e 0100     		.2byte	0x1
 399 0060 5D       		.byte	0x5d
 400 0061 02000000 		.4byte	.LCFI4
 401 0065 04000000 		.4byte	.LCFI5
 402 0069 0200     		.2byte	0x2
 403 006b 7D       		.byte	0x7d
 404 006c 08       		.sleb128 8
 405 006d 04000000 		.4byte	.LCFI5
 406 0071 06000000 		.4byte	.LCFI6
 407 0075 0200     		.2byte	0x2
 408 0077 7D       		.byte	0x7d
 409 0078 10       		.sleb128 16
 410 0079 06000000 		.4byte	.LCFI6
 411 007d 3E020000 		.4byte	.LFE2
 412 0081 0200     		.2byte	0x2
 413 0083 77       		.byte	0x77
 414 0084 10       		.sleb128 16
 415 0085 00000000 		.4byte	0x0
 416 0089 00000000 		.4byte	0x0
 417              		.file 2 ".\\Generated_Source\\PSoC5\\/cytypes.h"
 418              		.section	.debug_info
 419 0000 DD000000 		.4byte	0xdd
 420 0004 0200     		.2byte	0x2
 421 0006 00000000 		.4byte	.Ldebug_abbrev0
 422 000a 04       		.byte	0x4
 423 000b 01       		.uleb128 0x1
 424 000c 7F000000 		.4byte	.LASF14
 425 0010 01       		.byte	0x1
 426 0011 26010000 		.4byte	.LASF15
 427 0015 AE000000 		.4byte	.LASF16
 428 0019 00000000 		.4byte	0x0
 429 001d 00000000 		.4byte	0x0
 430 0021 00000000 		.4byte	.Ldebug_ranges0+0x0
 431 0025 00000000 		.4byte	.Ldebug_line0
 432 0029 02       		.uleb128 0x2
 433 002a 01       		.byte	0x1
 434 002b 06       		.byte	0x6
 435 002c 14010000 		.4byte	.LASF0
 436 0030 02       		.uleb128 0x2
ARM GAS  C:\DOCUME~1\ADMINI~1\LOCALS~1\Temp\ccy7AVsL.s 			page 17


 437 0031 01       		.byte	0x1
 438 0032 08       		.byte	0x8
 439 0033 8B000000 		.4byte	.LASF1
 440 0037 02       		.uleb128 0x2
 441 0038 02       		.byte	0x2
 442 0039 05       		.byte	0x5
 443 003a 4D010000 		.4byte	.LASF2
 444 003e 02       		.uleb128 0x2
 445 003f 02       		.byte	0x2
 446 0040 07       		.byte	0x7
 447 0041 0E000000 		.4byte	.LASF3
 448 0045 02       		.uleb128 0x2
 449 0046 04       		.byte	0x4
 450 0047 05       		.byte	0x5
 451 0048 9E000000 		.4byte	.LASF4
 452 004c 02       		.uleb128 0x2
 453 004d 04       		.byte	0x4
 454 004e 07       		.byte	0x7
 455 004f 44000000 		.4byte	.LASF5
 456 0053 02       		.uleb128 0x2
 457 0054 08       		.byte	0x8
 458 0055 05       		.byte	0x5
 459 0056 00000000 		.4byte	.LASF6
 460 005a 02       		.uleb128 0x2
 461 005b 08       		.byte	0x8
 462 005c 07       		.byte	0x7
 463 005d 56000000 		.4byte	.LASF7
 464 0061 03       		.uleb128 0x3
 465 0062 04       		.byte	0x4
 466 0063 05       		.byte	0x5
 467 0064 696E7400 		.ascii	"int\000"
 468 0068 02       		.uleb128 0x2
 469 0069 04       		.byte	0x4
 470 006a 07       		.byte	0x7
 471 006b 21000000 		.4byte	.LASF8
 472 006f 04       		.uleb128 0x4
 473 0070 0E010000 		.4byte	.LASF17
 474 0074 02       		.byte	0x2
 475 0075 4C       		.byte	0x4c
 476 0076 30000000 		.4byte	0x30
 477 007a 02       		.uleb128 0x2
 478 007b 04       		.byte	0x4
 479 007c 04       		.byte	0x4
 480 007d 20010000 		.4byte	.LASF9
 481 0081 02       		.uleb128 0x2
 482 0082 08       		.byte	0x8
 483 0083 04       		.byte	0x4
 484 0084 A7000000 		.4byte	.LASF10
 485 0088 02       		.uleb128 0x2
 486 0089 01       		.byte	0x1
 487 008a 08       		.byte	0x8
 488 008b 99000000 		.4byte	.LASF11
 489 008f 05       		.uleb128 0x5
 490 0090 04       		.byte	0x4
 491 0091 07       		.byte	0x7
 492 0092 06       		.uleb128 0x6
 493 0093 01       		.byte	0x1
ARM GAS  C:\DOCUME~1\ADMINI~1\LOCALS~1\Temp\ccy7AVsL.s 			page 18


 494 0094 6D000000 		.4byte	.LASF12
 495 0098 01       		.byte	0x1
 496 0099 43       		.byte	0x43
 497 009a 01       		.byte	0x1
 498 009b 00000000 		.4byte	.LFB0
 499 009f 5E000000 		.4byte	.LFE0
 500 00a3 00000000 		.4byte	.LLST0
 501 00a7 06       		.uleb128 0x6
 502 00a8 01       		.byte	0x1
 503 00a9 2E000000 		.4byte	.LASF13
 504 00ad 01       		.byte	0x1
 505 00ae 5E       		.byte	0x5e
 506 00af 01       		.byte	0x1
 507 00b0 00000000 		.4byte	.LFB1
 508 00b4 0A000000 		.4byte	.LFE1
 509 00b8 2B000000 		.4byte	.LLST1
 510 00bc 07       		.uleb128 0x7
 511 00bd 01       		.byte	0x1
 512 00be 57010000 		.4byte	.LASF18
 513 00c2 01       		.byte	0x1
 514 00c3 7A       		.byte	0x7a
 515 00c4 01       		.byte	0x1
 516 00c5 00000000 		.4byte	.LFB2
 517 00c9 3E020000 		.4byte	.LFE2
 518 00cd 56000000 		.4byte	.LLST2
 519 00d1 08       		.uleb128 0x8
 520 00d2 3F000000 		.4byte	.LASF19
 521 00d6 01       		.byte	0x1
 522 00d7 7A       		.byte	0x7a
 523 00d8 6F000000 		.4byte	0x6f
 524 00dc 02       		.byte	0x2
 525 00dd 91       		.byte	0x91
 526 00de 77       		.sleb128 -9
 527 00df 00       		.byte	0x0
 528 00e0 00       		.byte	0x0
 529              		.section	.debug_abbrev
 530 0000 01       		.uleb128 0x1
 531 0001 11       		.uleb128 0x11
 532 0002 01       		.byte	0x1
 533 0003 25       		.uleb128 0x25
 534 0004 0E       		.uleb128 0xe
 535 0005 13       		.uleb128 0x13
 536 0006 0B       		.uleb128 0xb
 537 0007 03       		.uleb128 0x3
 538 0008 0E       		.uleb128 0xe
 539 0009 1B       		.uleb128 0x1b
 540 000a 0E       		.uleb128 0xe
 541 000b 11       		.uleb128 0x11
 542 000c 01       		.uleb128 0x1
 543 000d 52       		.uleb128 0x52
 544 000e 01       		.uleb128 0x1
 545 000f 55       		.uleb128 0x55
 546 0010 06       		.uleb128 0x6
 547 0011 10       		.uleb128 0x10
 548 0012 06       		.uleb128 0x6
 549 0013 00       		.byte	0x0
 550 0014 00       		.byte	0x0
ARM GAS  C:\DOCUME~1\ADMINI~1\LOCALS~1\Temp\ccy7AVsL.s 			page 19


 551 0015 02       		.uleb128 0x2
 552 0016 24       		.uleb128 0x24
 553 0017 00       		.byte	0x0
 554 0018 0B       		.uleb128 0xb
 555 0019 0B       		.uleb128 0xb
 556 001a 3E       		.uleb128 0x3e
 557 001b 0B       		.uleb128 0xb
 558 001c 03       		.uleb128 0x3
 559 001d 0E       		.uleb128 0xe
 560 001e 00       		.byte	0x0
 561 001f 00       		.byte	0x0
 562 0020 03       		.uleb128 0x3
 563 0021 24       		.uleb128 0x24
 564 0022 00       		.byte	0x0
 565 0023 0B       		.uleb128 0xb
 566 0024 0B       		.uleb128 0xb
 567 0025 3E       		.uleb128 0x3e
 568 0026 0B       		.uleb128 0xb
 569 0027 03       		.uleb128 0x3
 570 0028 08       		.uleb128 0x8
 571 0029 00       		.byte	0x0
 572 002a 00       		.byte	0x0
 573 002b 04       		.uleb128 0x4
 574 002c 16       		.uleb128 0x16
 575 002d 00       		.byte	0x0
 576 002e 03       		.uleb128 0x3
 577 002f 0E       		.uleb128 0xe
 578 0030 3A       		.uleb128 0x3a
 579 0031 0B       		.uleb128 0xb
 580 0032 3B       		.uleb128 0x3b
 581 0033 0B       		.uleb128 0xb
 582 0034 49       		.uleb128 0x49
 583 0035 13       		.uleb128 0x13
 584 0036 00       		.byte	0x0
 585 0037 00       		.byte	0x0
 586 0038 05       		.uleb128 0x5
 587 0039 24       		.uleb128 0x24
 588 003a 00       		.byte	0x0
 589 003b 0B       		.uleb128 0xb
 590 003c 0B       		.uleb128 0xb
 591 003d 3E       		.uleb128 0x3e
 592 003e 0B       		.uleb128 0xb
 593 003f 00       		.byte	0x0
 594 0040 00       		.byte	0x0
 595 0041 06       		.uleb128 0x6
 596 0042 2E       		.uleb128 0x2e
 597 0043 00       		.byte	0x0
 598 0044 3F       		.uleb128 0x3f
 599 0045 0C       		.uleb128 0xc
 600 0046 03       		.uleb128 0x3
 601 0047 0E       		.uleb128 0xe
 602 0048 3A       		.uleb128 0x3a
 603 0049 0B       		.uleb128 0xb
 604 004a 3B       		.uleb128 0x3b
 605 004b 0B       		.uleb128 0xb
 606 004c 27       		.uleb128 0x27
 607 004d 0C       		.uleb128 0xc
ARM GAS  C:\DOCUME~1\ADMINI~1\LOCALS~1\Temp\ccy7AVsL.s 			page 20


 608 004e 11       		.uleb128 0x11
 609 004f 01       		.uleb128 0x1
 610 0050 12       		.uleb128 0x12
 611 0051 01       		.uleb128 0x1
 612 0052 40       		.uleb128 0x40
 613 0053 06       		.uleb128 0x6
 614 0054 00       		.byte	0x0
 615 0055 00       		.byte	0x0
 616 0056 07       		.uleb128 0x7
 617 0057 2E       		.uleb128 0x2e
 618 0058 01       		.byte	0x1
 619 0059 3F       		.uleb128 0x3f
 620 005a 0C       		.uleb128 0xc
 621 005b 03       		.uleb128 0x3
 622 005c 0E       		.uleb128 0xe
 623 005d 3A       		.uleb128 0x3a
 624 005e 0B       		.uleb128 0xb
 625 005f 3B       		.uleb128 0x3b
 626 0060 0B       		.uleb128 0xb
 627 0061 27       		.uleb128 0x27
 628 0062 0C       		.uleb128 0xc
 629 0063 11       		.uleb128 0x11
 630 0064 01       		.uleb128 0x1
 631 0065 12       		.uleb128 0x12
 632 0066 01       		.uleb128 0x1
 633 0067 40       		.uleb128 0x40
 634 0068 06       		.uleb128 0x6
 635 0069 00       		.byte	0x0
 636 006a 00       		.byte	0x0
 637 006b 08       		.uleb128 0x8
 638 006c 05       		.uleb128 0x5
 639 006d 00       		.byte	0x0
 640 006e 03       		.uleb128 0x3
 641 006f 0E       		.uleb128 0xe
 642 0070 3A       		.uleb128 0x3a
 643 0071 0B       		.uleb128 0xb
 644 0072 3B       		.uleb128 0x3b
 645 0073 0B       		.uleb128 0xb
 646 0074 49       		.uleb128 0x49
 647 0075 13       		.uleb128 0x13
 648 0076 02       		.uleb128 0x2
 649 0077 0A       		.uleb128 0xa
 650 0078 00       		.byte	0x0
 651 0079 00       		.byte	0x0
 652 007a 00       		.byte	0x0
 653              		.section	.debug_pubnames,"",%progbits
 654 0000 56000000 		.4byte	0x56
 655 0004 0200     		.2byte	0x2
 656 0006 00000000 		.4byte	.Ldebug_info0
 657 000a E1000000 		.4byte	0xe1
 658 000e 92000000 		.4byte	0x92
 659 0012 41756469 		.ascii	"AudioClkGen_Start\000"
 659      6F436C6B 
 659      47656E5F 
 659      53746172 
 659      7400
 660 0024 A7000000 		.4byte	0xa7
ARM GAS  C:\DOCUME~1\ADMINI~1\LOCALS~1\Temp\ccy7AVsL.s 			page 21


 661 0028 41756469 		.ascii	"AudioClkGen_Stop\000"
 661      6F436C6B 
 661      47656E5F 
 661      53746F70 
 661      00
 662 0039 BC000000 		.4byte	0xbc
 663 003d 41756469 		.ascii	"AudioClkGen_SetAudioRate\000"
 663      6F436C6B 
 663      47656E5F 
 663      53657441 
 663      7564696F 
 664 0056 00000000 		.4byte	0x0
 665              		.section	.debug_aranges,"",%progbits
 666 0000 2C000000 		.4byte	0x2c
 667 0004 0200     		.2byte	0x2
 668 0006 00000000 		.4byte	.Ldebug_info0
 669 000a 04       		.byte	0x4
 670 000b 00       		.byte	0x0
 671 000c 0000     		.2byte	0x0
 672 000e 0000     		.2byte	0x0
 673 0010 00000000 		.4byte	.LFB0
 674 0014 5E000000 		.4byte	.LFE0-.LFB0
 675 0018 00000000 		.4byte	.LFB1
 676 001c 0A000000 		.4byte	.LFE1-.LFB1
 677 0020 00000000 		.4byte	.LFB2
 678 0024 3E020000 		.4byte	.LFE2-.LFB2
 679 0028 00000000 		.4byte	0x0
 680 002c 00000000 		.4byte	0x0
 681              		.section	.debug_ranges,"",%progbits
 682              	.Ldebug_ranges0:
 683 0000 00000000 		.4byte	.Ltext0
 684 0004 00000000 		.4byte	.Letext0
 685 0008 00000000 		.4byte	.LFB0
 686 000c 5E000000 		.4byte	.LFE0
 687 0010 00000000 		.4byte	.LFB1
 688 0014 0A000000 		.4byte	.LFE1
 689 0018 00000000 		.4byte	.LFB2
 690 001c 3E020000 		.4byte	.LFE2
 691 0020 00000000 		.4byte	0x0
 692 0024 00000000 		.4byte	0x0
 693              		.section	.debug_str,"MS",%progbits,1
 694              	.LASF6:
 695 0000 6C6F6E67 		.ascii	"long long int\000"
 695      206C6F6E 
 695      6720696E 
 695      7400
 696              	.LASF3:
 697 000e 73686F72 		.ascii	"short unsigned int\000"
 697      7420756E 
 697      7369676E 
 697      65642069 
 697      6E7400
 698              	.LASF8:
 699 0021 756E7369 		.ascii	"unsigned int\000"
 699      676E6564 
 699      20696E74 
 699      00
ARM GAS  C:\DOCUME~1\ADMINI~1\LOCALS~1\Temp\ccy7AVsL.s 			page 22


 700              	.LASF13:
 701 002e 41756469 		.ascii	"AudioClkGen_Stop\000"
 701      6F436C6B 
 701      47656E5F 
 701      53746F70 
 701      00
 702              	.LASF19:
 703 003f 72617465 		.ascii	"rate\000"
 703      00
 704              	.LASF5:
 705 0044 6C6F6E67 		.ascii	"long unsigned int\000"
 705      20756E73 
 705      69676E65 
 705      6420696E 
 705      7400
 706              	.LASF7:
 707 0056 6C6F6E67 		.ascii	"long long unsigned int\000"
 707      206C6F6E 
 707      6720756E 
 707      7369676E 
 707      65642069 
 708              	.LASF12:
 709 006d 41756469 		.ascii	"AudioClkGen_Start\000"
 709      6F436C6B 
 709      47656E5F 
 709      53746172 
 709      7400
 710              	.LASF14:
 711 007f 474E5520 		.ascii	"GNU C 4.4.1\000"
 711      4320342E 
 711      342E3100 
 712              	.LASF1:
 713 008b 756E7369 		.ascii	"unsigned char\000"
 713      676E6564 
 713      20636861 
 713      7200
 714              	.LASF11:
 715 0099 63686172 		.ascii	"char\000"
 715      00
 716              	.LASF4:
 717 009e 6C6F6E67 		.ascii	"long int\000"
 717      20696E74 
 717      00
 718              	.LASF10:
 719 00a7 646F7562 		.ascii	"double\000"
 719      6C6500
 720              	.LASF16:
 721 00ae 5C5C7073 		.ascii	"\\\\psf\\Home\\Desktop\\USB-audio\\Firmware\\Pionee"
 721      665C486F 
 721      6D655C44 
 721      65736B74 
 721      6F705C55 
 722 00da 724B6974 		.ascii	"rKit_P5LP_USB_Audio\\PioneerKit_P5LP_USB_Audio.cyds"
 722      5F50354C 
 722      505F5553 
 722      425F4175 
 722      64696F5C 
ARM GAS  C:\DOCUME~1\ADMINI~1\LOCALS~1\Temp\ccy7AVsL.s 			page 23


 723 010c 6E00     		.ascii	"n\000"
 724              	.LASF17:
 725 010e 75696E74 		.ascii	"uint8\000"
 725      3800
 726              	.LASF0:
 727 0114 7369676E 		.ascii	"signed char\000"
 727      65642063 
 727      68617200 
 728              	.LASF9:
 729 0120 666C6F61 		.ascii	"float\000"
 729      7400
 730              	.LASF15:
 731 0126 2E5C4765 		.ascii	".\\Generated_Source\\PSoC5\\AudioClkGen.c\000"
 731      6E657261 
 731      7465645F 
 731      536F7572 
 731      63655C50 
 732              	.LASF2:
 733 014d 73686F72 		.ascii	"short int\000"
 733      7420696E 
 733      7400
 734              	.LASF18:
 735 0157 41756469 		.ascii	"AudioClkGen_SetAudioRate\000"
 735      6F436C6B 
 735      47656E5F 
 735      53657441 
 735      7564696F 
 736              		.ident	"GCC: (Sourcery G++ Lite 2010q1-188) 4.4.1"
