ARM GAS  C:\DOCUME~1\ADMINI~1\LOCALS~1\Temp\ccOu4ZQG.s 			page 1


   1              		.syntax unified
   2              		.cpu cortex-m3
   3              		.fpu softvfp
   4              		.eabi_attribute 20, 1
   5              		.eabi_attribute 21, 1
   6              		.eabi_attribute 23, 3
   7              		.eabi_attribute 24, 1
   8              		.eabi_attribute 25, 1
   9              		.eabi_attribute 26, 1
  10              		.eabi_attribute 30, 6
  11              		.eabi_attribute 18, 4
  12              		.thumb
  13              		.file	"ByteSwap_Tx.c"
  20 0000 69000000 		.text
  20      02003D00 
  20      00000201 
  20      FB0E0D00 
  20      01010101 
  21              	.Ltext0:
  22              		.cfi_sections	.debug_frame
  23              		.section	.text.ByteSwap_Tx_Start,"ax",%progbits
  24              		.align	2
  25              		.global	ByteSwap_Tx_Start
  26              		.thumb
  27              		.thumb_func
  28              		.type	ByteSwap_Tx_Start, %function
  29              	ByteSwap_Tx_Start:
  30              	.LFB0:
  31              		.file 1 ".\\Generated_Source\\PSoC5\\ByteSwap_Tx.c"
   1:.\Generated_Source\PSoC5/ByteSwap_Tx.c **** /*******************************************************************************
   2:.\Generated_Source\PSoC5/ByteSwap_Tx.c **** * File Name: ByteSwap_Tx.c  
   3:.\Generated_Source\PSoC5/ByteSwap_Tx.c **** * Version 1.10
   4:.\Generated_Source\PSoC5/ByteSwap_Tx.c **** *
   5:.\Generated_Source\PSoC5/ByteSwap_Tx.c **** * Description:
   6:.\Generated_Source\PSoC5/ByteSwap_Tx.c **** *  This file contains the setup, control and status commands for the ByteSwap
   7:.\Generated_Source\PSoC5/ByteSwap_Tx.c **** *  component.  
   8:.\Generated_Source\PSoC5/ByteSwap_Tx.c **** *
   9:.\Generated_Source\PSoC5/ByteSwap_Tx.c **** * Note: 
  10:.\Generated_Source\PSoC5/ByteSwap_Tx.c **** *
  11:.\Generated_Source\PSoC5/ByteSwap_Tx.c **** *******************************************************************************
  12:.\Generated_Source\PSoC5/ByteSwap_Tx.c **** * Copyright 2008-2011, Cypress Semiconductor Corporation.  All rights reserved.
  13:.\Generated_Source\PSoC5/ByteSwap_Tx.c **** * You may use this file only in accordance with the license, terms, conditions, 
  14:.\Generated_Source\PSoC5/ByteSwap_Tx.c **** * disclaimers, and limitations in the end user license agreement accompanying 
  15:.\Generated_Source\PSoC5/ByteSwap_Tx.c **** * the software package with which this file was provided.
  16:.\Generated_Source\PSoC5/ByteSwap_Tx.c **** *******************************************************************************/
  17:.\Generated_Source\PSoC5/ByteSwap_Tx.c **** 
  18:.\Generated_Source\PSoC5/ByteSwap_Tx.c **** #include "ByteSwap_Tx.h"  
  19:.\Generated_Source\PSoC5/ByteSwap_Tx.c **** 
  20:.\Generated_Source\PSoC5/ByteSwap_Tx.c **** /*******************************************************************************
  21:.\Generated_Source\PSoC5/ByteSwap_Tx.c **** * Function Name: ByteSwap_Tx_Start
  22:.\Generated_Source\PSoC5/ByteSwap_Tx.c **** ********************************************************************************
ARM GAS  C:\DOCUME~1\ADMINI~1\LOCALS~1\Temp\ccOu4ZQG.s 			page 2


  23:.\Generated_Source\PSoC5/ByteSwap_Tx.c **** *
  24:.\Generated_Source\PSoC5/ByteSwap_Tx.c **** * Summary:
  25:.\Generated_Source\PSoC5/ByteSwap_Tx.c **** *  Starts the Byte swap component.
  26:.\Generated_Source\PSoC5/ByteSwap_Tx.c **** *
  27:.\Generated_Source\PSoC5/ByteSwap_Tx.c **** * Parameters:
  28:.\Generated_Source\PSoC5/ByteSwap_Tx.c **** *  None.
  29:.\Generated_Source\PSoC5/ByteSwap_Tx.c **** *
  30:.\Generated_Source\PSoC5/ByteSwap_Tx.c **** * Return:
  31:.\Generated_Source\PSoC5/ByteSwap_Tx.c **** *  None.
  32:.\Generated_Source\PSoC5/ByteSwap_Tx.c **** *
  33:.\Generated_Source\PSoC5/ByteSwap_Tx.c **** * Reentrant:
  34:.\Generated_Source\PSoC5/ByteSwap_Tx.c **** *  No.
  35:.\Generated_Source\PSoC5/ByteSwap_Tx.c **** *
  36:.\Generated_Source\PSoC5/ByteSwap_Tx.c **** *******************************************************************************/
  37:.\Generated_Source\PSoC5/ByteSwap_Tx.c **** void ByteSwap_Tx_Start(void)
  38:.\Generated_Source\PSoC5/ByteSwap_Tx.c **** {
  32              		.loc 1 38 0
  33              		.cfi_startproc
  34              		@ args = 0, pretend = 0, frame = 0
  35              		@ frame_needed = 1, uses_anonymous_args = 0
  36              		@ link register save eliminated.
  37 0000 80B4     		push	{r7}
  38              	.LCFI0:
  39              		.cfi_def_cfa_offset 4
  40 0002 00AF     		add	r7, sp, #0
  41              		.cfi_offset 7, -4
  42              	.LCFI1:
  43              		.cfi_def_cfa_register 7
  39:.\Generated_Source\PSoC5/ByteSwap_Tx.c **** 	/* Configure Aux control register for FIFO status */
  40:.\Generated_Source\PSoC5/ByteSwap_Tx.c **** 	ByteSwap_Tx_AUX_CONTROL_REG = ByteSwap_Tx_AUX_CONTROL_REG & (~(ByteSwap_Tx_INPUT_FIFO_0_CLR | 
  44              		.loc 1 40 0
  45 0004 46F29043 		movw	r3, #:lower16:1073767568
  46 0008 C4F20003 		movt	r3, #:upper16:1073767568
  47 000c 46F29042 		movw	r2, #:lower16:1073767568
  48 0010 C4F20002 		movt	r2, #:upper16:1073767568
  49 0014 1278     		ldrb	r2, [r2, #0]
  50 0016 D2B2     		uxtb	r2, r2
  51 0018 02F0FC02 		and	r2, r2, #252
  52 001c 1A70     		strb	r2, [r3, #0]
  41:.\Generated_Source\PSoC5/ByteSwap_Tx.c **** 	                                                                        ByteSwap_Tx_OUTPUT_FIFO_1_
  42:.\Generated_Source\PSoC5/ByteSwap_Tx.c **** 																			
  43:.\Generated_Source\PSoC5/ByteSwap_Tx.c **** 	ByteSwap_Tx_AUX_CONTROL_REG = ByteSwap_Tx_AUX_CONTROL_REG | ByteSwap_Tx_INPUT_FIFO_LEVEL_HALF_EMPT
  53              		.loc 1 43 0
  54 001e 46F29043 		movw	r3, #:lower16:1073767568
  55 0022 C4F20003 		movt	r3, #:upper16:1073767568
  56 0026 46F29042 		movw	r2, #:lower16:1073767568
  57 002a C4F20002 		movt	r2, #:upper16:1073767568
  58 002e 1278     		ldrb	r2, [r2, #0]
  59 0030 D2B2     		uxtb	r2, r2
  60 0032 42F00C02 		orr	r2, r2, #12
  61 0036 D2B2     		uxtb	r2, r2
  62 0038 1A70     		strb	r2, [r3, #0]
  44:.\Generated_Source\PSoC5/ByteSwap_Tx.c **** 	
  45:.\Generated_Source\PSoC5/ByteSwap_Tx.c ****     /* Set Control register enable flag  */
  46:.\Generated_Source\PSoC5/ByteSwap_Tx.c **** 	ByteSwap_Tx_CONTROL_REG = ByteSwap_Tx_CONTROL_REG | ByteSwap_Tx_EN;
  63              		.loc 1 46 0
  64 003a 46F27F43 		movw	r3, #:lower16:1073767551
ARM GAS  C:\DOCUME~1\ADMINI~1\LOCALS~1\Temp\ccOu4ZQG.s 			page 3


  65 003e C4F20003 		movt	r3, #:upper16:1073767551
  66 0042 46F27F42 		movw	r2, #:lower16:1073767551
  67 0046 C4F20002 		movt	r2, #:upper16:1073767551
  68 004a 1278     		ldrb	r2, [r2, #0]
  69 004c D2B2     		uxtb	r2, r2
  70 004e 42F00102 		orr	r2, r2, #1
  71 0052 D2B2     		uxtb	r2, r2
  72 0054 1A70     		strb	r2, [r3, #0]
  47:.\Generated_Source\PSoC5/ByteSwap_Tx.c ****         
  48:.\Generated_Source\PSoC5/ByteSwap_Tx.c **** }
  73              		.loc 1 48 0
  74 0056 BD46     		mov	sp, r7
  75 0058 80BC     		pop	{r7}
  76 005a 7047     		bx	lr
  77              		.cfi_endproc
  78              	.LFE0:
  79              		.size	ByteSwap_Tx_Start, .-ByteSwap_Tx_Start
  80              		.section	.text.ByteSwap_Tx_Stop,"ax",%progbits
  81              		.align	2
  82              		.global	ByteSwap_Tx_Stop
  83              		.thumb
  84              		.thumb_func
  85              		.type	ByteSwap_Tx_Stop, %function
  86              	ByteSwap_Tx_Stop:
  87              	.LFB1:
  49:.\Generated_Source\PSoC5/ByteSwap_Tx.c **** 
  50:.\Generated_Source\PSoC5/ByteSwap_Tx.c **** /*******************************************************************************
  51:.\Generated_Source\PSoC5/ByteSwap_Tx.c **** * Function Name: ByteSwap_Tx_Stop
  52:.\Generated_Source\PSoC5/ByteSwap_Tx.c **** ********************************************************************************
  53:.\Generated_Source\PSoC5/ByteSwap_Tx.c **** *
  54:.\Generated_Source\PSoC5/ByteSwap_Tx.c **** * Summary:
  55:.\Generated_Source\PSoC5/ByteSwap_Tx.c **** *  Stops the Byte swap component.
  56:.\Generated_Source\PSoC5/ByteSwap_Tx.c **** *
  57:.\Generated_Source\PSoC5/ByteSwap_Tx.c **** * Parameters:
  58:.\Generated_Source\PSoC5/ByteSwap_Tx.c **** *  None.
  59:.\Generated_Source\PSoC5/ByteSwap_Tx.c **** *
  60:.\Generated_Source\PSoC5/ByteSwap_Tx.c **** * Return:
  61:.\Generated_Source\PSoC5/ByteSwap_Tx.c **** *  None.
  62:.\Generated_Source\PSoC5/ByteSwap_Tx.c **** *
  63:.\Generated_Source\PSoC5/ByteSwap_Tx.c **** * Reentrant:
  64:.\Generated_Source\PSoC5/ByteSwap_Tx.c **** *  No.
  65:.\Generated_Source\PSoC5/ByteSwap_Tx.c **** *
  66:.\Generated_Source\PSoC5/ByteSwap_Tx.c **** *******************************************************************************/
  67:.\Generated_Source\PSoC5/ByteSwap_Tx.c **** void ByteSwap_Tx_Stop(void)
  68:.\Generated_Source\PSoC5/ByteSwap_Tx.c **** {
  88              		.loc 1 68 0
  89              		.cfi_startproc
  90              		@ args = 0, pretend = 0, frame = 0
  91              		@ frame_needed = 1, uses_anonymous_args = 0
  92              		@ link register save eliminated.
  93 0000 80B4     		push	{r7}
  94              	.LCFI2:
  95              		.cfi_def_cfa_offset 4
  96 0002 00AF     		add	r7, sp, #0
  97              		.cfi_offset 7, -4
  98              	.LCFI3:
  99              		.cfi_def_cfa_register 7
ARM GAS  C:\DOCUME~1\ADMINI~1\LOCALS~1\Temp\ccOu4ZQG.s 			page 4


  69:.\Generated_Source\PSoC5/ByteSwap_Tx.c **** 	/* Clear Aux control FIFO status */
  70:.\Generated_Source\PSoC5/ByteSwap_Tx.c **** 	ByteSwap_Tx_AUX_CONTROL_REG = ByteSwap_Tx_AUX_CONTROL_REG | (ByteSwap_Tx_INPUT_FIFO_0_CLR | 
 100              		.loc 1 70 0
 101 0004 46F29043 		movw	r3, #:lower16:1073767568
 102 0008 C4F20003 		movt	r3, #:upper16:1073767568
 103 000c 46F29042 		movw	r2, #:lower16:1073767568
 104 0010 C4F20002 		movt	r2, #:upper16:1073767568
 105 0014 1278     		ldrb	r2, [r2, #0]
 106 0016 D2B2     		uxtb	r2, r2
 107 0018 42F00302 		orr	r2, r2, #3
 108 001c D2B2     		uxtb	r2, r2
 109 001e 1A70     		strb	r2, [r3, #0]
  71:.\Generated_Source\PSoC5/ByteSwap_Tx.c **** 	                                                                        ByteSwap_Tx_OUTPUT_FIFO_1_
  72:.\Generated_Source\PSoC5/ByteSwap_Tx.c **** 	
  73:.\Generated_Source\PSoC5/ByteSwap_Tx.c ****     /* Clears the Control register enable flag  */
  74:.\Generated_Source\PSoC5/ByteSwap_Tx.c **** 	ByteSwap_Tx_CONTROL_REG = ByteSwap_Tx_CONTROL_REG & (~ ByteSwap_Tx_EN);
 110              		.loc 1 74 0
 111 0020 46F27F43 		movw	r3, #:lower16:1073767551
 112 0024 C4F20003 		movt	r3, #:upper16:1073767551
 113 0028 46F27F42 		movw	r2, #:lower16:1073767551
 114 002c C4F20002 		movt	r2, #:upper16:1073767551
 115 0030 1278     		ldrb	r2, [r2, #0]
 116 0032 D2B2     		uxtb	r2, r2
 117 0034 02F0FE02 		and	r2, r2, #254
 118 0038 1A70     		strb	r2, [r3, #0]
  75:.\Generated_Source\PSoC5/ByteSwap_Tx.c **** }
 119              		.loc 1 75 0
 120 003a BD46     		mov	sp, r7
 121 003c 80BC     		pop	{r7}
 122 003e 7047     		bx	lr
 123              		.cfi_endproc
 124              	.LFE1:
 125              		.size	ByteSwap_Tx_Stop, .-ByteSwap_Tx_Stop
 126              		.text
 127              	.Letext0: