ARM GAS  C:\DOCUME~1\ADMINI~1\LOCALS~1\Temp\ccejnnxA.s 			page 1


   1              		.syntax unified
   2              		.cpu cortex-m3
   3              		.fpu softvfp
   4              		.eabi_attribute 20, 1
   5              		.eabi_attribute 21, 1
   6              		.eabi_attribute 23, 3
   7              		.eabi_attribute 24, 1
   8              		.eabi_attribute 25, 1
   9              		.eabi_attribute 26, 1
  10              		.eabi_attribute 30, 6
  11              		.eabi_attribute 18, 4
  12              		.thumb
  13              		.file	"I2S.c"
  20 0000 2B010000 		.text
  20      02005C00 
  20      00000201 
  20      FB0E0D00 
  20      01010101 
  21              	.Ltext0:
  22              		.cfi_sections	.debug_frame
  23              		.global	I2S_initVar
  24              		.bss
  25              		.type	I2S_initVar, %object
  26              		.size	I2S_initVar, 1
  27              	I2S_initVar:
  28 0000 00       		.space	1
  29              		.section	.text.I2S_Enable,"ax",%progbits
  30              		.align	2
  31              		.global	I2S_Enable
  32              		.thumb
  33              		.thumb_func
  34              		.type	I2S_Enable, %function
  35              	I2S_Enable:
  36              	.LFB0:
  37              		.file 1 ".\\Generated_Source\\PSoC5\\I2S.c"
   1:.\Generated_Source\PSoC5/I2S.c **** /*******************************************************************************
   2:.\Generated_Source\PSoC5/I2S.c **** * File Name: I2S.c
   3:.\Generated_Source\PSoC5/I2S.c **** * Version 2.40
   4:.\Generated_Source\PSoC5/I2S.c **** *
   5:.\Generated_Source\PSoC5/I2S.c **** * Description:
   6:.\Generated_Source\PSoC5/I2S.c **** *  This file contains the setup, control and status commands for the I2S
   7:.\Generated_Source\PSoC5/I2S.c **** *  component.
   8:.\Generated_Source\PSoC5/I2S.c **** *
   9:.\Generated_Source\PSoC5/I2S.c **** * Note:
  10:.\Generated_Source\PSoC5/I2S.c **** *
  11:.\Generated_Source\PSoC5/I2S.c **** *******************************************************************************
  12:.\Generated_Source\PSoC5/I2S.c **** * Copyright 2008-2012, Cypress Semiconductor Corporation.  All rights reserved.
  13:.\Generated_Source\PSoC5/I2S.c **** * You may use this file only in accordance with the license, terms, conditions,
  14:.\Generated_Source\PSoC5/I2S.c **** * disclaimers, and limitations in the end user license agreement accompanying
  15:.\Generated_Source\PSoC5/I2S.c **** * the software package with which this file was provided.
  16:.\Generated_Source\PSoC5/I2S.c **** *******************************************************************************/
ARM GAS  C:\DOCUME~1\ADMINI~1\LOCALS~1\Temp\ccejnnxA.s 			page 2


  17:.\Generated_Source\PSoC5/I2S.c **** 
  18:.\Generated_Source\PSoC5/I2S.c **** #include "I2S.h"
  19:.\Generated_Source\PSoC5/I2S.c **** 
  20:.\Generated_Source\PSoC5/I2S.c **** uint8 I2S_initVar = 0u;
  21:.\Generated_Source\PSoC5/I2S.c **** 
  22:.\Generated_Source\PSoC5/I2S.c **** 
  23:.\Generated_Source\PSoC5/I2S.c **** /*******************************************************************************
  24:.\Generated_Source\PSoC5/I2S.c **** * Function Name: I2S_Enable
  25:.\Generated_Source\PSoC5/I2S.c **** ********************************************************************************
  26:.\Generated_Source\PSoC5/I2S.c **** *
  27:.\Generated_Source\PSoC5/I2S.c **** * Summary:
  28:.\Generated_Source\PSoC5/I2S.c **** *  Enables I2S interface.
  29:.\Generated_Source\PSoC5/I2S.c **** *
  30:.\Generated_Source\PSoC5/I2S.c **** * Parameters:
  31:.\Generated_Source\PSoC5/I2S.c **** *  None.
  32:.\Generated_Source\PSoC5/I2S.c **** *
  33:.\Generated_Source\PSoC5/I2S.c **** * Return:
  34:.\Generated_Source\PSoC5/I2S.c **** *  None.
  35:.\Generated_Source\PSoC5/I2S.c **** *
  36:.\Generated_Source\PSoC5/I2S.c **** *******************************************************************************/
  37:.\Generated_Source\PSoC5/I2S.c **** void I2S_Enable(void) 
  38:.\Generated_Source\PSoC5/I2S.c **** {
  38              		.loc 1 38 0
  39              		.cfi_startproc
  40              		@ args = 0, pretend = 0, frame = 8
  41              		@ frame_needed = 1, uses_anonymous_args = 0
  42 0000 80B5     		push	{r7, lr}
  43              	.LCFI0:
  44              		.cfi_def_cfa_offset 8
  45 0002 82B0     		sub	sp, sp, #8
  46              	.LCFI1:
  47              		.cfi_def_cfa_offset 16
  48 0004 00AF     		add	r7, sp, #0
  49              		.cfi_offset 14, -4
  50              		.cfi_offset 7, -8
  51              	.LCFI2:
  52              		.cfi_def_cfa_register 7
  39:.\Generated_Source\PSoC5/I2S.c ****     uint8 enableInterrupts;
  40:.\Generated_Source\PSoC5/I2S.c **** 
  41:.\Generated_Source\PSoC5/I2S.c ****     enableInterrupts = CyEnterCriticalSection();
  53              		.loc 1 41 0
  54 0006 FFF7FEFF 		bl	CyEnterCriticalSection
  55 000a 0346     		mov	r3, r0
  56 000c FB71     		strb	r3, [r7, #7]
  42:.\Generated_Source\PSoC5/I2S.c ****     I2S_AUX_CONTROL_REG |= I2S_CNTR7_EN;
  57              		.loc 1 42 0
  58 000e 46F29743 		movw	r3, #:lower16:1073767575
  59 0012 C4F20003 		movt	r3, #:upper16:1073767575
  60 0016 46F29742 		movw	r2, #:lower16:1073767575
  61 001a C4F20002 		movt	r2, #:upper16:1073767575
  62 001e 1278     		ldrb	r2, [r2, #0]
  63 0020 D2B2     		uxtb	r2, r2
  64 0022 42F02002 		orr	r2, r2, #32
  65 0026 D2B2     		uxtb	r2, r2
  66 0028 1A70     		strb	r2, [r3, #0]
  43:.\Generated_Source\PSoC5/I2S.c ****     CyExitCriticalSection(enableInterrupts);
  67              		.loc 1 43 0
ARM GAS  C:\DOCUME~1\ADMINI~1\LOCALS~1\Temp\ccejnnxA.s 			page 3


  68 002a FB79     		ldrb	r3, [r7, #7]	@ zero_extendqisi2
  69 002c 1846     		mov	r0, r3
  70 002e FFF7FEFF 		bl	CyExitCriticalSection
  44:.\Generated_Source\PSoC5/I2S.c **** 
  45:.\Generated_Source\PSoC5/I2S.c ****     I2S_CONTROL_REG |= I2S_EN;
  71              		.loc 1 45 0
  72 0032 46F27653 		movw	r3, #:lower16:1073767798
  73 0036 C4F20003 		movt	r3, #:upper16:1073767798
  74 003a 46F27652 		movw	r2, #:lower16:1073767798
  75 003e C4F20002 		movt	r2, #:upper16:1073767798
  76 0042 1278     		ldrb	r2, [r2, #0]
  77 0044 D2B2     		uxtb	r2, r2
  78 0046 42F00402 		orr	r2, r2, #4
  79 004a D2B2     		uxtb	r2, r2
  80 004c 1A70     		strb	r2, [r3, #0]
  46:.\Generated_Source\PSoC5/I2S.c **** }
  81              		.loc 1 46 0
  82 004e 07F10807 		add	r7, r7, #8
  83 0052 BD46     		mov	sp, r7
  84 0054 80BD     		pop	{r7, pc}
  85              		.cfi_endproc
  86              	.LFE0:
  87              		.size	I2S_Enable, .-I2S_Enable
  88 0056 00BF     		.section	.text.I2S_Init,"ax",%progbits
  89              		.align	2
  90              		.global	I2S_Init
  91              		.thumb
  92              		.thumb_func
  93              		.type	I2S_Init, %function
  94              	I2S_Init:
  95              	.LFB1:
  47:.\Generated_Source\PSoC5/I2S.c **** 
  48:.\Generated_Source\PSoC5/I2S.c **** 
  49:.\Generated_Source\PSoC5/I2S.c **** /*******************************************************************************
  50:.\Generated_Source\PSoC5/I2S.c **** * Function Name: I2S_Init
  51:.\Generated_Source\PSoC5/I2S.c **** ********************************************************************************
  52:.\Generated_Source\PSoC5/I2S.c **** *
  53:.\Generated_Source\PSoC5/I2S.c **** * Summary:
  54:.\Generated_Source\PSoC5/I2S.c **** *  Initializes Tx and/or Rx interrupt sources with initial values.
  55:.\Generated_Source\PSoC5/I2S.c **** *
  56:.\Generated_Source\PSoC5/I2S.c **** * Parameters:
  57:.\Generated_Source\PSoC5/I2S.c **** *  None.
  58:.\Generated_Source\PSoC5/I2S.c **** *
  59:.\Generated_Source\PSoC5/I2S.c **** * Return:
  60:.\Generated_Source\PSoC5/I2S.c **** *  None.
  61:.\Generated_Source\PSoC5/I2S.c **** *
  62:.\Generated_Source\PSoC5/I2S.c **** *******************************************************************************/
  63:.\Generated_Source\PSoC5/I2S.c **** void I2S_Init(void) 
  64:.\Generated_Source\PSoC5/I2S.c **** {
  96              		.loc 1 64 0
  97              		.cfi_startproc
  98              		@ args = 0, pretend = 0, frame = 0
  99              		@ frame_needed = 1, uses_anonymous_args = 0
 100 0000 80B5     		push	{r7, lr}
 101              	.LCFI3:
 102              		.cfi_def_cfa_offset 8
 103 0002 00AF     		add	r7, sp, #0
ARM GAS  C:\DOCUME~1\ADMINI~1\LOCALS~1\Temp\ccejnnxA.s 			page 4


 104              		.cfi_offset 14, -4
 105              		.cfi_offset 7, -8
 106              	.LCFI4:
 107              		.cfi_def_cfa_register 7
  65:.\Generated_Source\PSoC5/I2S.c ****     /* Writes Tx and/or Rx interrupt source values provided for customizer */
  66:.\Generated_Source\PSoC5/I2S.c ****     #if(I2S_TX_DIRECTION_ENABLE)
  67:.\Generated_Source\PSoC5/I2S.c ****         I2S_SetTxInterruptMode(I2S_DEFAULT_TX_INT_SOURCE);
 108              		.loc 1 67 0
 109 0004 4FF00000 		mov	r0, #0
 110 0008 FFF7FEFF 		bl	I2S_SetTxInterruptMode
  68:.\Generated_Source\PSoC5/I2S.c ****     #endif /* (I2S_TX_DIRECTION_ENABLE) */
  69:.\Generated_Source\PSoC5/I2S.c ****     
  70:.\Generated_Source\PSoC5/I2S.c ****     #if(I2S_RX_DIRECTION_ENABLE)
  71:.\Generated_Source\PSoC5/I2S.c ****         I2S_SetRxInterruptMode(I2S_DEFAULT_RX_INT_SOURCE);
  72:.\Generated_Source\PSoC5/I2S.c ****     #endif /* (I2S_RX_DIRECTION_ENABLE) */
  73:.\Generated_Source\PSoC5/I2S.c **** }
 111              		.loc 1 73 0
 112 000c 80BD     		pop	{r7, pc}
 113              		.cfi_endproc
 114              	.LFE1:
 115              		.size	I2S_Init, .-I2S_Init
 116 000e 00BF     		.section	.text.I2S_Start,"ax",%progbits
 117              		.align	2
 118              		.global	I2S_Start
 119              		.thumb
 120              		.thumb_func
 121              		.type	I2S_Start, %function
 122              	I2S_Start:
 123              	.LFB2:
  74:.\Generated_Source\PSoC5/I2S.c **** 
  75:.\Generated_Source\PSoC5/I2S.c **** 
  76:.\Generated_Source\PSoC5/I2S.c **** /*******************************************************************************
  77:.\Generated_Source\PSoC5/I2S.c **** * Function Name: I2S_Start
  78:.\Generated_Source\PSoC5/I2S.c **** ********************************************************************************
  79:.\Generated_Source\PSoC5/I2S.c **** *
  80:.\Generated_Source\PSoC5/I2S.c **** * Summary:
  81:.\Generated_Source\PSoC5/I2S.c **** *  Starts the I2S interface.
  82:.\Generated_Source\PSoC5/I2S.c **** *
  83:.\Generated_Source\PSoC5/I2S.c **** * Parameters:
  84:.\Generated_Source\PSoC5/I2S.c **** *  None.
  85:.\Generated_Source\PSoC5/I2S.c **** *
  86:.\Generated_Source\PSoC5/I2S.c **** * Return:
  87:.\Generated_Source\PSoC5/I2S.c **** *  None.
  88:.\Generated_Source\PSoC5/I2S.c **** *
  89:.\Generated_Source\PSoC5/I2S.c **** * Global Variables:
  90:.\Generated_Source\PSoC5/I2S.c **** *  I2S_initVar - used to check initial configuration, modified on
  91:.\Generated_Source\PSoC5/I2S.c **** *  first function call.
  92:.\Generated_Source\PSoC5/I2S.c **** *
  93:.\Generated_Source\PSoC5/I2S.c **** * Reentrant:
  94:.\Generated_Source\PSoC5/I2S.c **** *  No.
  95:.\Generated_Source\PSoC5/I2S.c **** *
  96:.\Generated_Source\PSoC5/I2S.c **** *******************************************************************************/
  97:.\Generated_Source\PSoC5/I2S.c **** void I2S_Start(void) 
  98:.\Generated_Source\PSoC5/I2S.c **** {
 124              		.loc 1 98 0
 125              		.cfi_startproc
 126              		@ args = 0, pretend = 0, frame = 0
ARM GAS  C:\DOCUME~1\ADMINI~1\LOCALS~1\Temp\ccejnnxA.s 			page 5


 127              		@ frame_needed = 1, uses_anonymous_args = 0
 128 0000 80B5     		push	{r7, lr}
 129              	.LCFI5:
 130              		.cfi_def_cfa_offset 8
 131 0002 00AF     		add	r7, sp, #0
 132              		.cfi_offset 14, -4
 133              		.cfi_offset 7, -8
 134              	.LCFI6:
 135              		.cfi_def_cfa_register 7
  99:.\Generated_Source\PSoC5/I2S.c ****     /* Writes Tx and/or Rx interrupt source values provided for customizer */
 100:.\Generated_Source\PSoC5/I2S.c ****     if(0u == I2S_initVar)
 136              		.loc 1 100 0
 137 0004 40F20003 		movw	r3, #:lower16:I2S_initVar
 138 0008 C0F20003 		movt	r3, #:upper16:I2S_initVar
 139 000c 1B78     		ldrb	r3, [r3, #0]	@ zero_extendqisi2
 140 000e 002B     		cmp	r3, #0
 141 0010 08D1     		bne	.L6
 101:.\Generated_Source\PSoC5/I2S.c ****     {
 102:.\Generated_Source\PSoC5/I2S.c ****         I2S_Init();
 142              		.loc 1 102 0
 143 0012 FFF7FEFF 		bl	I2S_Init
 103:.\Generated_Source\PSoC5/I2S.c ****         I2S_initVar = 1u;
 144              		.loc 1 103 0
 145 0016 40F20003 		movw	r3, #:lower16:I2S_initVar
 146 001a C0F20003 		movt	r3, #:upper16:I2S_initVar
 147 001e 4FF00102 		mov	r2, #1
 148 0022 1A70     		strb	r2, [r3, #0]
 149              	.L6:
 104:.\Generated_Source\PSoC5/I2S.c ****     }
 105:.\Generated_Source\PSoC5/I2S.c **** 
 106:.\Generated_Source\PSoC5/I2S.c ****     I2S_Enable();
 150              		.loc 1 106 0
 151 0024 FFF7FEFF 		bl	I2S_Enable
 107:.\Generated_Source\PSoC5/I2S.c **** }
 152              		.loc 1 107 0
 153 0028 80BD     		pop	{r7, pc}
 154              		.cfi_endproc
 155              	.LFE2:
 156              		.size	I2S_Start, .-I2S_Start
 157 002a 00BF     		.section	.text.I2S_Stop,"ax",%progbits
 158              		.align	2
 159              		.global	I2S_Stop
 160              		.thumb
 161              		.thumb_func
 162              		.type	I2S_Stop, %function
 163              	I2S_Stop:
 164              	.LFB3:
 108:.\Generated_Source\PSoC5/I2S.c **** 
 109:.\Generated_Source\PSoC5/I2S.c **** 
 110:.\Generated_Source\PSoC5/I2S.c **** /*******************************************************************************
 111:.\Generated_Source\PSoC5/I2S.c **** * Function Name: I2S_Stop
 112:.\Generated_Source\PSoC5/I2S.c **** ********************************************************************************
 113:.\Generated_Source\PSoC5/I2S.c **** *
 114:.\Generated_Source\PSoC5/I2S.c **** * Summary:
 115:.\Generated_Source\PSoC5/I2S.c **** *  Disables the I2S interface.
 116:.\Generated_Source\PSoC5/I2S.c **** *
 117:.\Generated_Source\PSoC5/I2S.c **** * Parameters:
ARM GAS  C:\DOCUME~1\ADMINI~1\LOCALS~1\Temp\ccejnnxA.s 			page 6


 118:.\Generated_Source\PSoC5/I2S.c **** *  None.
 119:.\Generated_Source\PSoC5/I2S.c **** *
 120:.\Generated_Source\PSoC5/I2S.c **** * Return:
 121:.\Generated_Source\PSoC5/I2S.c **** *  None.
 122:.\Generated_Source\PSoC5/I2S.c **** *
 123:.\Generated_Source\PSoC5/I2S.c **** *******************************************************************************/
 124:.\Generated_Source\PSoC5/I2S.c **** void I2S_Stop(void) 
 125:.\Generated_Source\PSoC5/I2S.c **** {
 165              		.loc 1 125 0
 166              		.cfi_startproc
 167              		@ args = 0, pretend = 0, frame = 8
 168              		@ frame_needed = 1, uses_anonymous_args = 0
 169 0000 80B5     		push	{r7, lr}
 170              	.LCFI7:
 171              		.cfi_def_cfa_offset 8
 172 0002 82B0     		sub	sp, sp, #8
 173              	.LCFI8:
 174              		.cfi_def_cfa_offset 16
 175 0004 00AF     		add	r7, sp, #0
 176              		.cfi_offset 14, -4
 177              		.cfi_offset 7, -8
 178              	.LCFI9:
 179              		.cfi_def_cfa_register 7
 126:.\Generated_Source\PSoC5/I2S.c ****     uint8 enableInterrupts;
 127:.\Generated_Source\PSoC5/I2S.c **** 
 128:.\Generated_Source\PSoC5/I2S.c ****     I2S_CONTROL_REG &= ((uint8) ~I2S_EN);
 180              		.loc 1 128 0
 181 0006 46F27653 		movw	r3, #:lower16:1073767798
 182 000a C4F20003 		movt	r3, #:upper16:1073767798
 183 000e 46F27652 		movw	r2, #:lower16:1073767798
 184 0012 C4F20002 		movt	r2, #:upper16:1073767798
 185 0016 1278     		ldrb	r2, [r2, #0]
 186 0018 D2B2     		uxtb	r2, r2
 187 001a 02F0FB02 		and	r2, r2, #251
 188 001e 1A70     		strb	r2, [r3, #0]
 129:.\Generated_Source\PSoC5/I2S.c **** 
 130:.\Generated_Source\PSoC5/I2S.c ****     enableInterrupts = CyEnterCriticalSection();
 189              		.loc 1 130 0
 190 0020 FFF7FEFF 		bl	CyEnterCriticalSection
 191 0024 0346     		mov	r3, r0
 192 0026 FB71     		strb	r3, [r7, #7]
 131:.\Generated_Source\PSoC5/I2S.c ****     I2S_AUX_CONTROL_REG &= ((uint8) ~I2S_CNTR7_EN);
 193              		.loc 1 131 0
 194 0028 46F29743 		movw	r3, #:lower16:1073767575
 195 002c C4F20003 		movt	r3, #:upper16:1073767575
 196 0030 46F29742 		movw	r2, #:lower16:1073767575
 197 0034 C4F20002 		movt	r2, #:upper16:1073767575
 198 0038 1278     		ldrb	r2, [r2, #0]
 199 003a D2B2     		uxtb	r2, r2
 200 003c 02F0DF02 		and	r2, r2, #223
 201 0040 1A70     		strb	r2, [r3, #0]
 132:.\Generated_Source\PSoC5/I2S.c ****     CyExitCriticalSection(enableInterrupts);
 202              		.loc 1 132 0
 203 0042 FB79     		ldrb	r3, [r7, #7]	@ zero_extendqisi2
 204 0044 1846     		mov	r0, r3
 205 0046 FFF7FEFF 		bl	CyExitCriticalSection
 133:.\Generated_Source\PSoC5/I2S.c **** 
ARM GAS  C:\DOCUME~1\ADMINI~1\LOCALS~1\Temp\ccejnnxA.s 			page 7


 134:.\Generated_Source\PSoC5/I2S.c ****     /* Set counter to zero to force reload when component is enabled */
 135:.\Generated_Source\PSoC5/I2S.c ****     I2S_CNT7_COUNT_REG = I2S_CNTR7_COUNT_0;
 206              		.loc 1 135 0
 207 004a 46F27743 		movw	r3, #:lower16:1073767543
 208 004e C4F20003 		movt	r3, #:upper16:1073767543
 209 0052 4FF00002 		mov	r2, #0
 210 0056 1A70     		strb	r2, [r3, #0]
 136:.\Generated_Source\PSoC5/I2S.c **** 
 137:.\Generated_Source\PSoC5/I2S.c ****     #if(I2S_TX_DIRECTION_ENABLE)
 138:.\Generated_Source\PSoC5/I2S.c ****         I2S_DisableTx();
 211              		.loc 1 138 0
 212 0058 FFF7FEFF 		bl	I2S_DisableTx
 139:.\Generated_Source\PSoC5/I2S.c ****         I2S_ClearTxFIFO();
 213              		.loc 1 139 0
 214 005c FFF7FEFF 		bl	I2S_ClearTxFIFO
 140:.\Generated_Source\PSoC5/I2S.c ****     #endif /* (I2S_TX_DIRECTION_ENABLE) */
 141:.\Generated_Source\PSoC5/I2S.c ****     
 142:.\Generated_Source\PSoC5/I2S.c ****     #if(I2S_RX_DIRECTION_ENABLE)
 143:.\Generated_Source\PSoC5/I2S.c ****         I2S_DisableRx();
 144:.\Generated_Source\PSoC5/I2S.c ****         I2S_ClearRxFIFO();
 145:.\Generated_Source\PSoC5/I2S.c ****     #endif /* (I2S_RX_DIRECTION_ENABLE) */
 146:.\Generated_Source\PSoC5/I2S.c **** }
 215              		.loc 1 146 0
 216 0060 07F10807 		add	r7, r7, #8
 217 0064 BD46     		mov	sp, r7
 218 0066 80BD     		pop	{r7, pc}
 219              		.cfi_endproc
 220              	.LFE3:
 221              		.size	I2S_Stop, .-I2S_Stop
 222              		.section	.text.I2S_EnableTx,"ax",%progbits
 223              		.align	2
 224              		.global	I2S_EnableTx
 225              		.thumb
 226              		.thumb_func
 227              		.type	I2S_EnableTx, %function
 228              	I2S_EnableTx:
 229              	.LFB4:
 147:.\Generated_Source\PSoC5/I2S.c **** 
 148:.\Generated_Source\PSoC5/I2S.c **** 
 149:.\Generated_Source\PSoC5/I2S.c **** #if(I2S_TX_DIRECTION_ENABLE)
 150:.\Generated_Source\PSoC5/I2S.c ****     /*******************************************************************************
 151:.\Generated_Source\PSoC5/I2S.c ****     * Function Name: I2S_EnableTx
 152:.\Generated_Source\PSoC5/I2S.c ****     ********************************************************************************
 153:.\Generated_Source\PSoC5/I2S.c ****     *
 154:.\Generated_Source\PSoC5/I2S.c ****     * Summary:
 155:.\Generated_Source\PSoC5/I2S.c ****     *  Enables the Tx direction of the I2S interface.  At the next word
 156:.\Generated_Source\PSoC5/I2S.c ****     *  select falling edge transmission will begin.
 157:.\Generated_Source\PSoC5/I2S.c ****     *
 158:.\Generated_Source\PSoC5/I2S.c ****     * Parameters:
 159:.\Generated_Source\PSoC5/I2S.c ****     *  None.
 160:.\Generated_Source\PSoC5/I2S.c ****     *
 161:.\Generated_Source\PSoC5/I2S.c ****     * Return:
 162:.\Generated_Source\PSoC5/I2S.c ****     *  None.
 163:.\Generated_Source\PSoC5/I2S.c ****     *
 164:.\Generated_Source\PSoC5/I2S.c ****     *******************************************************************************/
 165:.\Generated_Source\PSoC5/I2S.c ****     void I2S_EnableTx(void) 
 166:.\Generated_Source\PSoC5/I2S.c ****     {
ARM GAS  C:\DOCUME~1\ADMINI~1\LOCALS~1\Temp\ccejnnxA.s 			page 8


 230              		.loc 1 166 0
 231              		.cfi_startproc
 232              		@ args = 0, pretend = 0, frame = 8
 233              		@ frame_needed = 1, uses_anonymous_args = 0
 234 0000 80B5     		push	{r7, lr}
 235              	.LCFI10:
 236              		.cfi_def_cfa_offset 8
 237 0002 82B0     		sub	sp, sp, #8
 238              	.LCFI11:
 239              		.cfi_def_cfa_offset 16
 240 0004 00AF     		add	r7, sp, #0
 241              		.cfi_offset 14, -4
 242              		.cfi_offset 7, -8
 243              	.LCFI12:
 244              		.cfi_def_cfa_register 7
 167:.\Generated_Source\PSoC5/I2S.c ****         uint8 enableInterrupts;
 168:.\Generated_Source\PSoC5/I2S.c **** 
 169:.\Generated_Source\PSoC5/I2S.c ****         I2S_CONTROL_REG |= I2S_TX_EN;
 245              		.loc 1 169 0
 246 0006 46F27653 		movw	r3, #:lower16:1073767798
 247 000a C4F20003 		movt	r3, #:upper16:1073767798
 248 000e 46F27652 		movw	r2, #:lower16:1073767798
 249 0012 C4F20002 		movt	r2, #:upper16:1073767798
 250 0016 1278     		ldrb	r2, [r2, #0]
 251 0018 D2B2     		uxtb	r2, r2
 252 001a 42F00102 		orr	r2, r2, #1
 253 001e D2B2     		uxtb	r2, r2
 254 0020 1A70     		strb	r2, [r3, #0]
 170:.\Generated_Source\PSoC5/I2S.c **** 
 171:.\Generated_Source\PSoC5/I2S.c ****         enableInterrupts = CyEnterCriticalSection();
 255              		.loc 1 171 0
 256 0022 FFF7FEFF 		bl	CyEnterCriticalSection
 257 0026 0346     		mov	r3, r0
 258 0028 FB71     		strb	r3, [r7, #7]
 172:.\Generated_Source\PSoC5/I2S.c ****         I2S_TX_STATUS_AUX_CONTROL_REG |= I2S_TX_INT_EN;
 259              		.loc 1 172 0
 260 002a 46F29343 		movw	r3, #:lower16:1073767571
 261 002e C4F20003 		movt	r3, #:upper16:1073767571
 262 0032 46F29342 		movw	r2, #:lower16:1073767571
 263 0036 C4F20002 		movt	r2, #:upper16:1073767571
 264 003a 1278     		ldrb	r2, [r2, #0]
 265 003c D2B2     		uxtb	r2, r2
 266 003e 42F01002 		orr	r2, r2, #16
 267 0042 D2B2     		uxtb	r2, r2
 268 0044 1A70     		strb	r2, [r3, #0]
 173:.\Generated_Source\PSoC5/I2S.c ****         CyExitCriticalSection(enableInterrupts);
 269              		.loc 1 173 0
 270 0046 FB79     		ldrb	r3, [r7, #7]	@ zero_extendqisi2
 271 0048 1846     		mov	r0, r3
 272 004a FFF7FEFF 		bl	CyExitCriticalSection
 174:.\Generated_Source\PSoC5/I2S.c ****     }
 273              		.loc 1 174 0
 274 004e 07F10807 		add	r7, r7, #8
 275 0052 BD46     		mov	sp, r7
 276 0054 80BD     		pop	{r7, pc}
 277              		.cfi_endproc
 278              	.LFE4:
ARM GAS  C:\DOCUME~1\ADMINI~1\LOCALS~1\Temp\ccejnnxA.s 			page 9


 279              		.size	I2S_EnableTx, .-I2S_EnableTx
 280 0056 00BF     		.section	.text.I2S_DisableTx,"ax",%progbits
 281              		.align	2
 282              		.global	I2S_DisableTx
 283              		.thumb
 284              		.thumb_func
 285              		.type	I2S_DisableTx, %function
 286              	I2S_DisableTx:
 287              	.LFB5:
 175:.\Generated_Source\PSoC5/I2S.c **** 
 176:.\Generated_Source\PSoC5/I2S.c **** 
 177:.\Generated_Source\PSoC5/I2S.c ****     /*******************************************************************************
 178:.\Generated_Source\PSoC5/I2S.c ****     * Function Name: I2S_DisableTx
 179:.\Generated_Source\PSoC5/I2S.c ****     ********************************************************************************
 180:.\Generated_Source\PSoC5/I2S.c ****     *
 181:.\Generated_Source\PSoC5/I2S.c ****     * Summary:
 182:.\Generated_Source\PSoC5/I2S.c ****     *  Disables the Tx direction of the I2S interface.  At the next word
 183:.\Generated_Source\PSoC5/I2S.c ****     *  select falling edge transmission of data will stop and a constant 0 value
 184:.\Generated_Source\PSoC5/I2S.c ****     *  will be transmitted.
 185:.\Generated_Source\PSoC5/I2S.c ****     *
 186:.\Generated_Source\PSoC5/I2S.c ****     * Parameters:
 187:.\Generated_Source\PSoC5/I2S.c ****     *  None.
 188:.\Generated_Source\PSoC5/I2S.c ****     *
 189:.\Generated_Source\PSoC5/I2S.c ****     * Return:
 190:.\Generated_Source\PSoC5/I2S.c ****     *  None.
 191:.\Generated_Source\PSoC5/I2S.c ****     *
 192:.\Generated_Source\PSoC5/I2S.c ****     *******************************************************************************/
 193:.\Generated_Source\PSoC5/I2S.c ****     void I2S_DisableTx(void) 
 194:.\Generated_Source\PSoC5/I2S.c ****     {
 288              		.loc 1 194 0
 289              		.cfi_startproc
 290              		@ args = 0, pretend = 0, frame = 8
 291              		@ frame_needed = 1, uses_anonymous_args = 0
 292 0000 80B5     		push	{r7, lr}
 293              	.LCFI13:
 294              		.cfi_def_cfa_offset 8
 295 0002 82B0     		sub	sp, sp, #8
 296              	.LCFI14:
 297              		.cfi_def_cfa_offset 16
 298 0004 00AF     		add	r7, sp, #0
 299              		.cfi_offset 14, -4
 300              		.cfi_offset 7, -8
 301              	.LCFI15:
 302              		.cfi_def_cfa_register 7
 195:.\Generated_Source\PSoC5/I2S.c ****         uint8 enableInterrupts;
 196:.\Generated_Source\PSoC5/I2S.c **** 
 197:.\Generated_Source\PSoC5/I2S.c ****         I2S_CONTROL_REG &= ((uint8) ~I2S_TX_EN);
 303              		.loc 1 197 0
 304 0006 46F27653 		movw	r3, #:lower16:1073767798
 305 000a C4F20003 		movt	r3, #:upper16:1073767798
 306 000e 46F27652 		movw	r2, #:lower16:1073767798
 307 0012 C4F20002 		movt	r2, #:upper16:1073767798
 308 0016 1278     		ldrb	r2, [r2, #0]
 309 0018 D2B2     		uxtb	r2, r2
 310 001a 02F0FE02 		and	r2, r2, #254
 311 001e 1A70     		strb	r2, [r3, #0]
 198:.\Generated_Source\PSoC5/I2S.c **** 
ARM GAS  C:\DOCUME~1\ADMINI~1\LOCALS~1\Temp\ccejnnxA.s 			page 10


 199:.\Generated_Source\PSoC5/I2S.c ****         enableInterrupts = CyEnterCriticalSection();
 312              		.loc 1 199 0
 313 0020 FFF7FEFF 		bl	CyEnterCriticalSection
 314 0024 0346     		mov	r3, r0
 315 0026 FB71     		strb	r3, [r7, #7]
 200:.\Generated_Source\PSoC5/I2S.c ****         I2S_TX_STATUS_AUX_CONTROL_REG &= ((uint8) ~I2S_TX_INT_EN);
 316              		.loc 1 200 0
 317 0028 46F29343 		movw	r3, #:lower16:1073767571
 318 002c C4F20003 		movt	r3, #:upper16:1073767571
 319 0030 46F29342 		movw	r2, #:lower16:1073767571
 320 0034 C4F20002 		movt	r2, #:upper16:1073767571
 321 0038 1278     		ldrb	r2, [r2, #0]
 322 003a D2B2     		uxtb	r2, r2
 323 003c 02F0EF02 		and	r2, r2, #239
 324 0040 1A70     		strb	r2, [r3, #0]
 201:.\Generated_Source\PSoC5/I2S.c ****         CyExitCriticalSection(enableInterrupts);
 325              		.loc 1 201 0
 326 0042 FB79     		ldrb	r3, [r7, #7]	@ zero_extendqisi2
 327 0044 1846     		mov	r0, r3
 328 0046 FFF7FEFF 		bl	CyExitCriticalSection
 202:.\Generated_Source\PSoC5/I2S.c ****     }
 329              		.loc 1 202 0
 330 004a 07F10807 		add	r7, r7, #8
 331 004e BD46     		mov	sp, r7
 332 0050 80BD     		pop	{r7, pc}
 333              		.cfi_endproc
 334              	.LFE5:
 335              		.size	I2S_DisableTx, .-I2S_DisableTx
 336 0052 00BF     		.section	.text.I2S_SetTxInterruptMode,"ax",%progbits
 337              		.align	2
 338              		.global	I2S_SetTxInterruptMode
 339              		.thumb
 340              		.thumb_func
 341              		.type	I2S_SetTxInterruptMode, %function
 342              	I2S_SetTxInterruptMode:
 343              	.LFB6:
 203:.\Generated_Source\PSoC5/I2S.c **** 
 204:.\Generated_Source\PSoC5/I2S.c **** 
 205:.\Generated_Source\PSoC5/I2S.c ****     /*******************************************************************************
 206:.\Generated_Source\PSoC5/I2S.c ****     * Function Name: I2S_SetTxInterruptMode
 207:.\Generated_Source\PSoC5/I2S.c ****     ********************************************************************************
 208:.\Generated_Source\PSoC5/I2S.c ****     *
 209:.\Generated_Source\PSoC5/I2S.c ****     * Summary:
 210:.\Generated_Source\PSoC5/I2S.c ****     *  Sets the interrupt source for the I2S Tx direction interrupt.
 211:.\Generated_Source\PSoC5/I2S.c ****     *
 212:.\Generated_Source\PSoC5/I2S.c ****     * Parameters:
 213:.\Generated_Source\PSoC5/I2S.c ****     *  Byte containing the constant for the selected interrupt sources.
 214:.\Generated_Source\PSoC5/I2S.c ****     *   I2S_TX_FIFO_UNDEFLOW
 215:.\Generated_Source\PSoC5/I2S.c ****     *   I2S_TX_FIFO_0_NOT_FULL
 216:.\Generated_Source\PSoC5/I2S.c ****     *   I2S_TX_FIFO_1_NOT_FULL
 217:.\Generated_Source\PSoC5/I2S.c ****     *
 218:.\Generated_Source\PSoC5/I2S.c ****     * Return:
 219:.\Generated_Source\PSoC5/I2S.c ****     *  None
 220:.\Generated_Source\PSoC5/I2S.c ****     *
 221:.\Generated_Source\PSoC5/I2S.c ****     *******************************************************************************/
 222:.\Generated_Source\PSoC5/I2S.c ****     void I2S_SetTxInterruptMode(uint8 interruptSource)
 223:.\Generated_Source\PSoC5/I2S.c ****                                                                 
ARM GAS  C:\DOCUME~1\ADMINI~1\LOCALS~1\Temp\ccejnnxA.s 			page 11


 224:.\Generated_Source\PSoC5/I2S.c ****     {
 344              		.loc 1 224 0
 345              		.cfi_startproc
 346              		@ args = 0, pretend = 0, frame = 8
 347              		@ frame_needed = 1, uses_anonymous_args = 0
 348              		@ link register save eliminated.
 349 0000 80B4     		push	{r7}
 350              	.LCFI16:
 351              		.cfi_def_cfa_offset 4
 352 0002 83B0     		sub	sp, sp, #12
 353              	.LCFI17:
 354              		.cfi_def_cfa_offset 16
 355 0004 00AF     		add	r7, sp, #0
 356              		.cfi_offset 7, -4
 357              	.LCFI18:
 358              		.cfi_def_cfa_register 7
 359 0006 0346     		mov	r3, r0
 360 0008 FB71     		strb	r3, [r7, #7]
 225:.\Generated_Source\PSoC5/I2S.c ****         I2S_TX_STATUS_MASK_REG = (interruptSource & I2S_TX_ST_MASK);
 361              		.loc 1 225 0
 362 000a 46F28343 		movw	r3, #:lower16:1073767555
 363 000e C4F20003 		movt	r3, #:upper16:1073767555
 364 0012 FA79     		ldrb	r2, [r7, #7]	@ zero_extendqisi2
 365 0014 02F00702 		and	r2, r2, #7
 366 0018 1A70     		strb	r2, [r3, #0]
 226:.\Generated_Source\PSoC5/I2S.c ****     }
 367              		.loc 1 226 0
 368 001a 07F10C07 		add	r7, r7, #12
 369 001e BD46     		mov	sp, r7
 370 0020 80BC     		pop	{r7}
 371 0022 7047     		bx	lr
 372              		.cfi_endproc
 373              	.LFE6:
 374              		.size	I2S_SetTxInterruptMode, .-I2S_SetTxInterruptMode
 375              		.section	.text.I2S_ReadTxStatus,"ax",%progbits
 376              		.align	2
 377              		.global	I2S_ReadTxStatus
 378              		.thumb
 379              		.thumb_func
 380              		.type	I2S_ReadTxStatus, %function
 381              	I2S_ReadTxStatus:
 382              	.LFB7:
 227:.\Generated_Source\PSoC5/I2S.c **** 
 228:.\Generated_Source\PSoC5/I2S.c **** 
 229:.\Generated_Source\PSoC5/I2S.c ****     /*******************************************************************************
 230:.\Generated_Source\PSoC5/I2S.c ****     * Function Name: I2S_ReadTxStatus
 231:.\Generated_Source\PSoC5/I2S.c ****     ********************************************************************************
 232:.\Generated_Source\PSoC5/I2S.c ****     *
 233:.\Generated_Source\PSoC5/I2S.c ****     * Summary:
 234:.\Generated_Source\PSoC5/I2S.c ****     *  Returns state in the I2S Tx status register.
 235:.\Generated_Source\PSoC5/I2S.c ****     *
 236:.\Generated_Source\PSoC5/I2S.c ****     * Parameters:
 237:.\Generated_Source\PSoC5/I2S.c ****     *  None.
 238:.\Generated_Source\PSoC5/I2S.c ****     *
 239:.\Generated_Source\PSoC5/I2S.c ****     * Return:
 240:.\Generated_Source\PSoC5/I2S.c ****     *  State of the I2S Tx status register
 241:.\Generated_Source\PSoC5/I2S.c ****     *   I2S_RET_TX_FIFO_UNDERFLOW (Clear on Read)
ARM GAS  C:\DOCUME~1\ADMINI~1\LOCALS~1\Temp\ccejnnxA.s 			page 12


 242:.\Generated_Source\PSoC5/I2S.c ****     *   I2S_RET_TX_FIFO_0_NOT_FULL
 243:.\Generated_Source\PSoC5/I2S.c ****     *   I2S_RET_TX_FIFO_1_NOT_FULL
 244:.\Generated_Source\PSoC5/I2S.c ****     *
 245:.\Generated_Source\PSoC5/I2S.c ****     * Side Effects:
 246:.\Generated_Source\PSoC5/I2S.c ****     *  Clears the bits of I2S Tx status register that are Clear on Read.
 247:.\Generated_Source\PSoC5/I2S.c ****     *
 248:.\Generated_Source\PSoC5/I2S.c ****     *******************************************************************************/
 249:.\Generated_Source\PSoC5/I2S.c ****     uint8 I2S_ReadTxStatus(void) 
 250:.\Generated_Source\PSoC5/I2S.c ****     {
 383              		.loc 1 250 0
 384              		.cfi_startproc
 385              		@ args = 0, pretend = 0, frame = 0
 386              		@ frame_needed = 1, uses_anonymous_args = 0
 387              		@ link register save eliminated.
 388 0000 80B4     		push	{r7}
 389              	.LCFI19:
 390              		.cfi_def_cfa_offset 4
 391 0002 00AF     		add	r7, sp, #0
 392              		.cfi_offset 7, -4
 393              	.LCFI20:
 394              		.cfi_def_cfa_register 7
 251:.\Generated_Source\PSoC5/I2S.c ****         return(I2S_TX_STATUS_REG & I2S_TX_ST_MASK);
 395              		.loc 1 251 0
 396 0004 46F26343 		movw	r3, #:lower16:1073767523
 397 0008 C4F20003 		movt	r3, #:upper16:1073767523
 398 000c 1B78     		ldrb	r3, [r3, #0]
 399 000e DBB2     		uxtb	r3, r3
 400 0010 03F00703 		and	r3, r3, #7
 252:.\Generated_Source\PSoC5/I2S.c ****     }
 401              		.loc 1 252 0
 402 0014 1846     		mov	r0, r3
 403 0016 BD46     		mov	sp, r7
 404 0018 80BC     		pop	{r7}
 405 001a 7047     		bx	lr
 406              		.cfi_endproc
 407              	.LFE7:
 408              		.size	I2S_ReadTxStatus, .-I2S_ReadTxStatus
 409              		.section	.text.I2S_WriteByte,"ax",%progbits
 410              		.align	2
 411              		.global	I2S_WriteByte
 412              		.thumb
 413              		.thumb_func
 414              		.type	I2S_WriteByte, %function
 415              	I2S_WriteByte:
 416              	.LFB8:
 253:.\Generated_Source\PSoC5/I2S.c **** 
 254:.\Generated_Source\PSoC5/I2S.c **** 
 255:.\Generated_Source\PSoC5/I2S.c ****     /*******************************************************************************
 256:.\Generated_Source\PSoC5/I2S.c ****     * Function Name: I2S_WriteByte
 257:.\Generated_Source\PSoC5/I2S.c ****     ********************************************************************************
 258:.\Generated_Source\PSoC5/I2S.c ****     *
 259:.\Generated_Source\PSoC5/I2S.c ****     * Summary:
 260:.\Generated_Source\PSoC5/I2S.c ****     *  Writes a single byte into the Tx FIFO.
 261:.\Generated_Source\PSoC5/I2S.c ****     *
 262:.\Generated_Source\PSoC5/I2S.c ****     * Parameters:
 263:.\Generated_Source\PSoC5/I2S.c ****     *  wrData: Byte containing the data to transmit.
 264:.\Generated_Source\PSoC5/I2S.c ****     *  wordSelect: Indicates to write to the Left (0) or Right (1) channel.  In the
ARM GAS  C:\DOCUME~1\ADMINI~1\LOCALS~1\Temp\ccejnnxA.s 			page 13


 265:.\Generated_Source\PSoC5/I2S.c ****     *              interleaved mode this parameter is ignored
 266:.\Generated_Source\PSoC5/I2S.c ****     *
 267:.\Generated_Source\PSoC5/I2S.c ****     * Return:
 268:.\Generated_Source\PSoC5/I2S.c ****     *  None.
 269:.\Generated_Source\PSoC5/I2S.c ****     *
 270:.\Generated_Source\PSoC5/I2S.c ****     * Reentrant:
 271:.\Generated_Source\PSoC5/I2S.c ****     *  No.
 272:.\Generated_Source\PSoC5/I2S.c ****     *
 273:.\Generated_Source\PSoC5/I2S.c ****     *******************************************************************************/
 274:.\Generated_Source\PSoC5/I2S.c ****     void I2S_WriteByte(uint8 wrData, uint8 wordSelect) 
 275:.\Generated_Source\PSoC5/I2S.c ****     {
 417              		.loc 1 275 0
 418              		.cfi_startproc
 419              		@ args = 0, pretend = 0, frame = 8
 420              		@ frame_needed = 1, uses_anonymous_args = 0
 421              		@ link register save eliminated.
 422 0000 80B4     		push	{r7}
 423              	.LCFI21:
 424              		.cfi_def_cfa_offset 4
 425 0002 83B0     		sub	sp, sp, #12
 426              	.LCFI22:
 427              		.cfi_def_cfa_offset 16
 428 0004 00AF     		add	r7, sp, #0
 429              		.cfi_offset 7, -4
 430              	.LCFI23:
 431              		.cfi_def_cfa_register 7
 432 0006 0246     		mov	r2, r0
 433 0008 0B46     		mov	r3, r1
 434 000a FA71     		strb	r2, [r7, #7]
 435 000c BB71     		strb	r3, [r7, #6]
 276:.\Generated_Source\PSoC5/I2S.c ****         #if(I2S_TX_DATA_INTERLEAVED)
 277:.\Generated_Source\PSoC5/I2S.c ****             if(0u != wordSelect)
 278:.\Generated_Source\PSoC5/I2S.c ****             {
 279:.\Generated_Source\PSoC5/I2S.c ****                 /* Suppress compiler warning */
 280:.\Generated_Source\PSoC5/I2S.c ****             }
 281:.\Generated_Source\PSoC5/I2S.c ****             
 282:.\Generated_Source\PSoC5/I2S.c ****             I2S_TX_FIFO_0_REG = wrData;
 436              		.loc 1 282 0
 437 000e 46F24043 		movw	r3, #:lower16:1073767488
 438 0012 C4F20003 		movt	r3, #:upper16:1073767488
 439 0016 FA79     		ldrb	r2, [r7, #7]
 440 0018 1A70     		strb	r2, [r3, #0]
 283:.\Generated_Source\PSoC5/I2S.c ****             
 284:.\Generated_Source\PSoC5/I2S.c ****         #else
 285:.\Generated_Source\PSoC5/I2S.c ****             if(I2S_TX_LEFT_CHANNEL == wordSelect)
 286:.\Generated_Source\PSoC5/I2S.c ****             {
 287:.\Generated_Source\PSoC5/I2S.c ****                 I2S_TX_FIFO_0_REG = wrData;
 288:.\Generated_Source\PSoC5/I2S.c ****             }
 289:.\Generated_Source\PSoC5/I2S.c ****             else
 290:.\Generated_Source\PSoC5/I2S.c ****             {
 291:.\Generated_Source\PSoC5/I2S.c ****                 I2S_TX_FIFO_1_REG = wrData;
 292:.\Generated_Source\PSoC5/I2S.c ****             }
 293:.\Generated_Source\PSoC5/I2S.c ****             
 294:.\Generated_Source\PSoC5/I2S.c ****         #endif /* (I2S_TX_DATA_INTERLEAVED) */
 295:.\Generated_Source\PSoC5/I2S.c ****     }
 441              		.loc 1 295 0
 442 001a 07F10C07 		add	r7, r7, #12
ARM GAS  C:\DOCUME~1\ADMINI~1\LOCALS~1\Temp\ccejnnxA.s 			page 14


 443 001e BD46     		mov	sp, r7
 444 0020 80BC     		pop	{r7}
 445 0022 7047     		bx	lr
 446              		.cfi_endproc
 447              	.LFE8:
 448              		.size	I2S_WriteByte, .-I2S_WriteByte
 449              		.section	.text.I2S_ClearTxFIFO,"ax",%progbits
 450              		.align	2
 451              		.global	I2S_ClearTxFIFO
 452              		.thumb
 453              		.thumb_func
 454              		.type	I2S_ClearTxFIFO, %function
 455              	I2S_ClearTxFIFO:
 456              	.LFB9:
 296:.\Generated_Source\PSoC5/I2S.c **** 
 297:.\Generated_Source\PSoC5/I2S.c **** 
 298:.\Generated_Source\PSoC5/I2S.c ****     /*******************************************************************************
 299:.\Generated_Source\PSoC5/I2S.c ****     * Function Name: I2S_ClearTxFIFO
 300:.\Generated_Source\PSoC5/I2S.c ****     ********************************************************************************
 301:.\Generated_Source\PSoC5/I2S.c ****     *
 302:.\Generated_Source\PSoC5/I2S.c ****     * Summary:
 303:.\Generated_Source\PSoC5/I2S.c ****     *  Clears out the Tx FIFO.  Any data present in the FIFO will not be
 304:.\Generated_Source\PSoC5/I2S.c ****     *  sent. This call should be made only when the Tx direction is disabled.
 305:.\Generated_Source\PSoC5/I2S.c ****     *
 306:.\Generated_Source\PSoC5/I2S.c ****     * Parameters:
 307:.\Generated_Source\PSoC5/I2S.c ****     *  None.
 308:.\Generated_Source\PSoC5/I2S.c ****     *
 309:.\Generated_Source\PSoC5/I2S.c ****     * Return:
 310:.\Generated_Source\PSoC5/I2S.c ****     *  None.
 311:.\Generated_Source\PSoC5/I2S.c ****     *
 312:.\Generated_Source\PSoC5/I2S.c ****     *******************************************************************************/
 313:.\Generated_Source\PSoC5/I2S.c ****     void I2S_ClearTxFIFO(void) 
 314:.\Generated_Source\PSoC5/I2S.c ****     {
 457              		.loc 1 314 0
 458              		.cfi_startproc
 459              		@ args = 0, pretend = 0, frame = 8
 460              		@ frame_needed = 1, uses_anonymous_args = 0
 461 0000 80B5     		push	{r7, lr}
 462              	.LCFI24:
 463              		.cfi_def_cfa_offset 8
 464 0002 82B0     		sub	sp, sp, #8
 465              	.LCFI25:
 466              		.cfi_def_cfa_offset 16
 467 0004 00AF     		add	r7, sp, #0
 468              		.cfi_offset 14, -4
 469              		.cfi_offset 7, -8
 470              	.LCFI26:
 471              		.cfi_def_cfa_register 7
 315:.\Generated_Source\PSoC5/I2S.c ****         uint8 enableInterrupts;
 316:.\Generated_Source\PSoC5/I2S.c **** 
 317:.\Generated_Source\PSoC5/I2S.c ****         enableInterrupts = CyEnterCriticalSection();
 472              		.loc 1 317 0
 473 0006 FFF7FEFF 		bl	CyEnterCriticalSection
 474 000a 0346     		mov	r3, r0
 475 000c FB71     		strb	r3, [r7, #7]
 318:.\Generated_Source\PSoC5/I2S.c ****         I2S_TX_AUX_CONTROL_REG |= ((uint8)  I2S_TX_FIFO_0_CLR);
 476              		.loc 1 318 0
ARM GAS  C:\DOCUME~1\ADMINI~1\LOCALS~1\Temp\ccejnnxA.s 			page 15


 477 000e 46F29043 		movw	r3, #:lower16:1073767568
 478 0012 C4F20003 		movt	r3, #:upper16:1073767568
 479 0016 46F29042 		movw	r2, #:lower16:1073767568
 480 001a C4F20002 		movt	r2, #:upper16:1073767568
 481 001e 1278     		ldrb	r2, [r2, #0]
 482 0020 D2B2     		uxtb	r2, r2
 483 0022 42F00102 		orr	r2, r2, #1
 484 0026 D2B2     		uxtb	r2, r2
 485 0028 1A70     		strb	r2, [r3, #0]
 319:.\Generated_Source\PSoC5/I2S.c ****         I2S_TX_AUX_CONTROL_REG &= ((uint8) ~I2S_TX_FIFO_0_CLR);
 486              		.loc 1 319 0
 487 002a 46F29043 		movw	r3, #:lower16:1073767568
 488 002e C4F20003 		movt	r3, #:upper16:1073767568
 489 0032 46F29042 		movw	r2, #:lower16:1073767568
 490 0036 C4F20002 		movt	r2, #:upper16:1073767568
 491 003a 1278     		ldrb	r2, [r2, #0]
 492 003c D2B2     		uxtb	r2, r2
 493 003e 02F0FE02 		and	r2, r2, #254
 494 0042 1A70     		strb	r2, [r3, #0]
 320:.\Generated_Source\PSoC5/I2S.c **** 
 321:.\Generated_Source\PSoC5/I2S.c ****         #if(I2S_TX_DATA_SEPARATED)
 322:.\Generated_Source\PSoC5/I2S.c ****             I2S_TX_AUX_CONTROL_REG |= ((uint8)  I2S_TX_FIFO_1_CLR);
 323:.\Generated_Source\PSoC5/I2S.c ****             I2S_TX_AUX_CONTROL_REG &= ((uint8) ~I2S_TX_FIFO_1_CLR);
 324:.\Generated_Source\PSoC5/I2S.c ****         #endif /* (I2S_TX_DATA_SEPARATED) */
 325:.\Generated_Source\PSoC5/I2S.c ****         CyExitCriticalSection(enableInterrupts);
 495              		.loc 1 325 0
 496 0044 FB79     		ldrb	r3, [r7, #7]	@ zero_extendqisi2
 497 0046 1846     		mov	r0, r3
 498 0048 FFF7FEFF 		bl	CyExitCriticalSection
 326:.\Generated_Source\PSoC5/I2S.c ****     }
 499              		.loc 1 326 0
 500 004c 07F10807 		add	r7, r7, #8
 501 0050 BD46     		mov	sp, r7
 502 0052 80BD     		pop	{r7, pc}
 503              		.cfi_endproc
 504              	.LFE9:
 505              		.size	I2S_ClearTxFIFO, .-I2S_ClearTxFIFO
 506              		.text
 507              	.Letext0: