ARM GAS  C:\DOCUME~1\ADMINI~1\LOCALS~1\Temp\ccsdmRry.s 			page 1


   1              		.syntax unified
   2              		.cpu cortex-m3
   3              		.fpu softvfp
   4              		.eabi_attribute 20, 1
   5              		.eabi_attribute 21, 1
   6              		.eabi_attribute 23, 3
   7              		.eabi_attribute 24, 1
   8              		.eabi_attribute 25, 1
   9              		.eabi_attribute 26, 1
  10              		.eabi_attribute 30, 6
  11              		.eabi_attribute 18, 4
  12              		.thumb
  13              		.file	"Interrupts.c"
  20 0000 C6000000 		.text
  20      02005900 
  20      00000201 
  20      FB0E0D00 
  20      01010101 
  21              	.Ltext0:
  22              		.cfi_sections	.debug_frame
  23              		.section	.text.InDMADone_Interrupt,"ax",%progbits
  24              		.align	2
  25              		.global	InDMADone_Interrupt
  26              		.thumb
  27              		.thumb_func
  28              		.type	InDMADone_Interrupt, %function
  29              	InDMADone_Interrupt:
  30              	.LFB29:
  31              		.file 1 ".\\Interrupts.c"
   1:.\Interrupts.c **** /*******************************************************************************
   2:.\Interrupts.c **** * File Name: Interrupts.c
   3:.\Interrupts.c **** *
   4:.\Interrupts.c **** * Version 1.0
   5:.\Interrupts.c **** *
   6:.\Interrupts.c **** *  Description: This file contains interrupt service routines for all the interrupts
   7:.\Interrupts.c **** *               in the system
   8:.\Interrupts.c **** *
   9:.\Interrupts.c **** ********************************************************************************
  10:.\Interrupts.c **** * Copyright (2008-2013), Cypress Semiconductor Corporation.
  11:.\Interrupts.c **** ********************************************************************************
  12:.\Interrupts.c **** * This software is owned by Cypress Semiconductor Corporation (Cypress) and is
  13:.\Interrupts.c **** * protected by and subject to worldwide patent protection (United States and
  14:.\Interrupts.c **** * foreign), United States copyright laws and international treaty provisions.
  15:.\Interrupts.c **** * Cypress hereby grants to licensee a personal, non-exclusive, non-transferable
  16:.\Interrupts.c **** * license to copy, use, modify, create derivative works of, and compile the
  17:.\Interrupts.c **** * Cypress Source Code and derivative works for the sole purpose of creating
  18:.\Interrupts.c **** * custom software in support of licensee product to be used only in conjunction
  19:.\Interrupts.c **** * with a Cypress integrated circuit as specified in the applicable agreement.
  20:.\Interrupts.c **** * Any reproduction, modification, translation, compilation, or representation of
  21:.\Interrupts.c **** * this software except as specified above is prohibited without the express
  22:.\Interrupts.c **** * written permission of Cypress.
ARM GAS  C:\DOCUME~1\ADMINI~1\LOCALS~1\Temp\ccsdmRry.s 			page 2


  23:.\Interrupts.c **** *
  24:.\Interrupts.c **** * Disclaimer: CYPRESS MAKES NO WARRANTY OF ANY KIND, EXPRESS OR IMPLIED, WITH
  25:.\Interrupts.c **** * REGARD TO THIS MATERIAL, INCLUDING, BUT NOT LIMITED TO, THE IMPLIED
  26:.\Interrupts.c **** * WARRANTIES OF MERCHANTABILITY AND FITNESS FOR A PARTICULAR PURPOSE.
  27:.\Interrupts.c **** * Cypress reserves the right to make changes without further notice to the
  28:.\Interrupts.c **** * materials described herein. Cypress does not assume any liability arising out
  29:.\Interrupts.c **** * of the application or use of any product or circuit described herein. Cypress
  30:.\Interrupts.c **** * does not authorize its products for use as critical components in life-support
  31:.\Interrupts.c **** * systems where a malfunction or failure may reasonably be expected to result in
  32:.\Interrupts.c **** * significant injury to the user. The inclusion of Cypress' product in a life-
  33:.\Interrupts.c **** * support systems application implies that the manufacturer assumes all risk of
  34:.\Interrupts.c **** * such use and in doing so indemnifies Cypress against all charges. Use may be
  35:.\Interrupts.c **** * limited by and subject to the applicable Cypress software license agreement.
  36:.\Interrupts.c **** *******************************************************************************/
  37:.\Interrupts.c **** #include <Application.h>
  38:.\Interrupts.c **** #include <AudioControl.h>
  39:.\Interrupts.c **** #include <Configuration.h>
  40:.\Interrupts.c **** #include <device.h>
  41:.\Interrupts.c **** #include <Interrupts.h>
  42:.\Interrupts.c **** #include <USBInterface.h>
  43:.\Interrupts.c **** extern uint16 inCnt;
  44:.\Interrupts.c **** extern uint16 inLevel;
  45:.\Interrupts.c **** extern uint16 inUsbCount;
  46:.\Interrupts.c **** extern uint16 inUsbShadow;
  47:.\Interrupts.c **** extern CYBIT applicationTimerTick;
  48:.\Interrupts.c **** extern uint16 outLevel;
  49:.\Interrupts.c **** extern uint16 outUsbCount;
  50:.\Interrupts.c **** extern uint16 outUsbShadow;
  51:.\Interrupts.c **** 
  52:.\Interrupts.c **** extern volatile uint8 USBFS_device;
  53:.\Interrupts.c **** 
  54:.\Interrupts.c **** #ifndef ENABLE_DIGITAL_AUDIO_OUT_ONLY
  55:.\Interrupts.c **** extern CYBIT inPlaying;
  56:.\Interrupts.c **** #endif
  57:.\Interrupts.c **** 
  58:.\Interrupts.c **** #ifndef ENABLE_DIGITAL_AUDIO_IN_ONLY
  59:.\Interrupts.c **** extern CYBIT outPlaying;
  60:.\Interrupts.c **** #endif
  61:.\Interrupts.c **** 
  62:.\Interrupts.c **** /*******************************************************************************
  63:.\Interrupts.c **** * Function Name: InDMADone_Interrupt
  64:.\Interrupts.c **** ********************************************************************************
  65:.\Interrupts.c **** * Summary:
  66:.\Interrupts.c **** *   The Interrupt Service Routine for isr_InDMADone. Arms USB Audio In end-point
  67:.\Interrupts.c **** * 	for USB host to receive audio data.
  68:.\Interrupts.c **** *
  69:.\Interrupts.c **** * Parameters:  
  70:.\Interrupts.c **** *	InDMADone interrupt vector
  71:.\Interrupts.c **** *
  72:.\Interrupts.c **** * Return:
  73:.\Interrupts.c **** *   void.
  74:.\Interrupts.c **** *
  75:.\Interrupts.c **** *******************************************************************************/
  76:.\Interrupts.c **** CY_ISR(InDMADone_Interrupt)
  77:.\Interrupts.c **** {
  32              		.loc 1 77 0
  33              		.cfi_startproc
ARM GAS  C:\DOCUME~1\ADMINI~1\LOCALS~1\Temp\ccsdmRry.s 			page 3


  34              		@ args = 0, pretend = 0, frame = 0
  35              		@ frame_needed = 1, uses_anonymous_args = 0
  36 0000 80B5     		push	{r7, lr}
  37              	.LCFI0:
  38              		.cfi_def_cfa_offset 8
  39 0002 00AF     		add	r7, sp, #0
  40              		.cfi_offset 14, -4
  41              		.cfi_offset 7, -8
  42              	.LCFI1:
  43              		.cfi_def_cfa_register 7
  78:.\Interrupts.c ****     #ifndef ENABLE_DIGITAL_AUDIO_OUT_ONLY
  79:.\Interrupts.c ****     /* Parameters to this API Call CHANGES DEPENDING ON DATA ENDPOINT MEMORY MODE */
  80:.\Interrupts.c ****     USBFS_LoadInEP(AUDIO_IN_ENDPOINT, USBFS_NULL, inCnt);
  44              		.loc 1 80 0
  45 0004 40F20003 		movw	r3, #:lower16:inCnt
  46 0008 C0F20003 		movt	r3, #:upper16:inCnt
  47 000c 1B88     		ldrh	r3, [r3, #0]
  48 000e 4FF00200 		mov	r0, #2
  49 0012 4FF00001 		mov	r1, #0
  50 0016 1A46     		mov	r2, r3
  51 0018 FFF7FEFF 		bl	USBFS_LoadInEP
  81:.\Interrupts.c **** 	#endif
  82:.\Interrupts.c ****     
  83:.\Interrupts.c ****     /* USER_CODE: [Audio IN EP loaded] This ISR is triggered once the required audio IN data for th
  84:.\Interrupts.c ****      * transfer is made available at the USB audio IN endpoint memory */
  85:.\Interrupts.c **** }
  52              		.loc 1 85 0
  53 001c 80BD     		pop	{r7, pc}
  54              		.cfi_endproc
  55              	.LFE29:
  56              		.size	InDMADone_Interrupt, .-InDMADone_Interrupt
  57 001e 00BF     		.section	.text.RxDMADone_Interrupt,"ax",%progbits
  58              		.align	2
  59              		.global	RxDMADone_Interrupt
  60              		.thumb
  61              		.thumb_func
  62              		.type	RxDMADone_Interrupt, %function
  63              	RxDMADone_Interrupt:
  64              	.LFB30:
  86:.\Interrupts.c **** 
  87:.\Interrupts.c **** /*******************************************************************************
  88:.\Interrupts.c **** * Function Name: RxDMADone_Interrupt
  89:.\Interrupts.c **** ********************************************************************************
  90:.\Interrupts.c **** * Summary:
  91:.\Interrupts.c **** *   The Interrupt Service Routine for isr_RxDMADone. This handles the AUDIO In
  92:.\Interrupts.c **** *	buffer pointers and detects overflow of the buffer to stop AUDIO In. 
  93:.\Interrupts.c **** *
  94:.\Interrupts.c **** * Parameters:  
  95:.\Interrupts.c **** *	RxDMADone interrupt vector
  96:.\Interrupts.c **** *
  97:.\Interrupts.c **** * Return:
  98:.\Interrupts.c **** *   void.
  99:.\Interrupts.c **** *
 100:.\Interrupts.c **** *******************************************************************************/
 101:.\Interrupts.c **** CY_ISR(RxDMADone_Interrupt)
 102:.\Interrupts.c **** {
  65              		.loc 1 102 0
ARM GAS  C:\DOCUME~1\ADMINI~1\LOCALS~1\Temp\ccsdmRry.s 			page 4


  66              		.cfi_startproc
  67              		@ args = 0, pretend = 0, frame = 8
  68              		@ frame_needed = 1, uses_anonymous_args = 0
  69 0000 80B5     		push	{r7, lr}
  70              	.LCFI2:
  71              		.cfi_def_cfa_offset 8
  72 0002 82B0     		sub	sp, sp, #8
  73              	.LCFI3:
  74              		.cfi_def_cfa_offset 16
  75 0004 00AF     		add	r7, sp, #0
  76              		.cfi_offset 14, -4
  77              		.cfi_offset 7, -8
  78              	.LCFI4:
  79              		.cfi_def_cfa_register 7
 103:.\Interrupts.c ****     #ifndef ENABLE_DIGITAL_AUDIO_OUT_ONLY 
 104:.\Interrupts.c ****     uint16 removed;
 105:.\Interrupts.c **** 	
 106:.\Interrupts.c **** 	/* Note: Care must be taken in the application code to update inUsbCount atomically */
 107:.\Interrupts.c **** 	removed = inUsbCount - inUsbShadow;
  80              		.loc 1 107 0
  81 0006 40F20003 		movw	r3, #:lower16:inUsbCount
  82 000a C0F20003 		movt	r3, #:upper16:inUsbCount
  83 000e 1A88     		ldrh	r2, [r3, #0]
  84 0010 40F20003 		movw	r3, #:lower16:inUsbShadow
  85 0014 C0F20003 		movt	r3, #:upper16:inUsbShadow
  86 0018 1B88     		ldrh	r3, [r3, #0]
  87 001a C3EB0203 		rsb	r3, r3, r2
  88 001e FB80     		strh	r3, [r7, #6]	@ movhi
 108:.\Interrupts.c **** 	inLevel -= removed;
  89              		.loc 1 108 0
  90 0020 40F20003 		movw	r3, #:lower16:inLevel
  91 0024 C0F20003 		movt	r3, #:upper16:inLevel
  92 0028 1A88     		ldrh	r2, [r3, #0]
  93 002a FB88     		ldrh	r3, [r7, #6]	@ movhi
  94 002c C3EB0203 		rsb	r3, r3, r2
  95 0030 9AB2     		uxth	r2, r3
  96 0032 40F20003 		movw	r3, #:lower16:inLevel
  97 0036 C0F20003 		movt	r3, #:upper16:inLevel
  98 003a 1A80     		strh	r2, [r3, #0]	@ movhi
 109:.\Interrupts.c ****     
 110:.\Interrupts.c ****     #if 0
 111:.\Interrupts.c **** 	if (inLevel <= IN_TRANS_SIZE) 
 112:.\Interrupts.c **** 		for(;;) ;		/* Underflow should not happen */
 113:.\Interrupts.c ****     #endif
 114:.\Interrupts.c ****     
 115:.\Interrupts.c **** 	inUsbShadow = inUsbCount;
  99              		.loc 1 115 0
 100 003c 40F20003 		movw	r3, #:lower16:inUsbCount
 101 0040 C0F20003 		movt	r3, #:upper16:inUsbCount
 102 0044 1A88     		ldrh	r2, [r3, #0]
 103 0046 40F20003 		movw	r3, #:lower16:inUsbShadow
 104 004a C0F20003 		movt	r3, #:upper16:inUsbShadow
 105 004e 1A80     		strh	r2, [r3, #0]	@ movhi
 116:.\Interrupts.c **** 		
 117:.\Interrupts.c **** 	if (inLevel >= IN_BUFSIZE) 
 106              		.loc 1 117 0
 107 0050 40F20003 		movw	r3, #:lower16:inLevel
ARM GAS  C:\DOCUME~1\ADMINI~1\LOCALS~1\Temp\ccsdmRry.s 			page 5


 108 0054 C0F20003 		movt	r3, #:upper16:inLevel
 109 0058 1A88     		ldrh	r2, [r3, #0]
 110 005a 40F2FF23 		movw	r3, #767
 111 005e 9A42     		cmp	r2, r3
 112 0060 02D9     		bls	.L4
 118:.\Interrupts.c ****     {
 119:.\Interrupts.c ****        Stop_PDM_InPath();
 113              		.loc 1 119 0
 114 0062 FFF7FEFF 		bl	Stop_PDM_InPath
 115 0066 0CE0     		b	.L6
 116              	.L4:
 120:.\Interrupts.c **** 	}
 121:.\Interrupts.c **** 	else 
 122:.\Interrupts.c ****     {
 123:.\Interrupts.c **** 		inLevel += IN_TRANS_SIZE;
 117              		.loc 1 123 0
 118 0068 40F20003 		movw	r3, #:lower16:inLevel
 119 006c C0F20003 		movt	r3, #:upper16:inLevel
 120 0070 1B88     		ldrh	r3, [r3, #0]
 121 0072 03F16003 		add	r3, r3, #96
 122 0076 9AB2     		uxth	r2, r3
 123 0078 40F20003 		movw	r3, #:lower16:inLevel
 124 007c C0F20003 		movt	r3, #:upper16:inLevel
 125 0080 1A80     		strh	r2, [r3, #0]	@ movhi
 126              	.L6:
 124:.\Interrupts.c **** 	}
 125:.\Interrupts.c ****     #endif
 126:.\Interrupts.c ****     
 127:.\Interrupts.c ****     /* USER_CODE: [Audio IN buffer pointers] ISR triggered by audio IN data transfer DMA (see TopDe
 128:.\Interrupts.c ****      * the audio IN buffer pointers */
 129:.\Interrupts.c **** }
 127              		.loc 1 129 0
 128 0082 07F10807 		add	r7, r7, #8
 129 0086 BD46     		mov	sp, r7
 130 0088 80BD     		pop	{r7, pc}
 131              		.cfi_endproc
 132              	.LFE30:
 133              		.size	RxDMADone_Interrupt, .-RxDMADone_Interrupt
 134 008a 00BF     		.section	.text.Tick_Interrupt,"ax",%progbits
 135              		.align	2
 136              		.global	Tick_Interrupt
 137              		.thumb
 138              		.thumb_func
 139              		.type	Tick_Interrupt, %function
 140              	Tick_Interrupt:
 141              	.LFB31:
 130:.\Interrupts.c **** 
 131:.\Interrupts.c **** /*******************************************************************************
 132:.\Interrupts.c **** * Function Name: Tick_Interrupt
 133:.\Interrupts.c **** ********************************************************************************
 134:.\Interrupts.c **** * Summary:
 135:.\Interrupts.c **** *   The Interrupt Service Routine for isr_Tick. Sets flag for the timer function
 136:.\Interrupts.c **** *	to manage all counting operations
 137:.\Interrupts.c **** *
 138:.\Interrupts.c **** * Parameters:  
 139:.\Interrupts.c **** *	Sleep Timer tick interrupt vector
 140:.\Interrupts.c **** *
ARM GAS  C:\DOCUME~1\ADMINI~1\LOCALS~1\Temp\ccsdmRry.s 			page 6


 141:.\Interrupts.c **** * Return:
 142:.\Interrupts.c **** *   void.
 143:.\Interrupts.c **** *
 144:.\Interrupts.c **** *******************************************************************************/
 145:.\Interrupts.c **** CY_ISR(Tick_Interrupt)
 146:.\Interrupts.c **** {
 142              		.loc 1 146 0
 143              		.cfi_startproc
 144              		@ args = 0, pretend = 0, frame = 0
 145              		@ frame_needed = 1, uses_anonymous_args = 0
 146              		@ link register save eliminated.
 147 0000 80B4     		push	{r7}
 148              	.LCFI5:
 149              		.cfi_def_cfa_offset 4
 150 0002 00AF     		add	r7, sp, #0
 151              		.cfi_offset 7, -4
 152              	.LCFI6:
 153              		.cfi_def_cfa_register 7
 147:.\Interrupts.c ****     applicationTimerTick = CY_PM_INT_SR_REG;	
 154              		.loc 1 147 0
 155 0004 44F29033 		movw	r3, #:lower16:1073759120
 156 0008 C4F20003 		movt	r3, #:upper16:1073759120
 157 000c 1B78     		ldrb	r3, [r3, #0]
 158 000e DAB2     		uxtb	r2, r3
 159 0010 40F20003 		movw	r3, #:lower16:applicationTimerTick
 160 0014 C0F20003 		movt	r3, #:upper16:applicationTimerTick
 161 0018 1A70     		strb	r2, [r3, #0]
 148:.\Interrupts.c **** 	applicationTimerTick = TRUE;
 162              		.loc 1 148 0
 163 001a 40F20003 		movw	r3, #:lower16:applicationTimerTick
 164 001e C0F20003 		movt	r3, #:upper16:applicationTimerTick
 165 0022 4FF00102 		mov	r2, #1
 166 0026 1A70     		strb	r2, [r3, #0]
 149:.\Interrupts.c **** }
 167              		.loc 1 149 0
 168 0028 BD46     		mov	sp, r7
 169 002a 80BC     		pop	{r7}
 170 002c 7047     		bx	lr
 171              		.cfi_endproc
 172              	.LFE31:
 173              		.size	Tick_Interrupt, .-Tick_Interrupt
 174 002e 00BF     		.section	.text.TxDMADone_Interrupt,"ax",%progbits
 175              		.align	2
 176              		.global	TxDMADone_Interrupt
 177              		.thumb
 178              		.thumb_func
 179              		.type	TxDMADone_Interrupt, %function
 180              	TxDMADone_Interrupt:
 181              	.LFB32:
 150:.\Interrupts.c **** 
 151:.\Interrupts.c **** /*******************************************************************************
 152:.\Interrupts.c **** * Function Name: TxDMADone_Interrupt
 153:.\Interrupts.c **** ********************************************************************************
 154:.\Interrupts.c **** * Summary:
 155:.\Interrupts.c **** *   The Interrupt Service Routine for isr_TxDMADone. This handles the AUDIO Out
 156:.\Interrupts.c **** *	buffer pointers and detects underflow of the buffer to stop AUDIO out.
 157:.\Interrupts.c **** *
ARM GAS  C:\DOCUME~1\ADMINI~1\LOCALS~1\Temp\ccsdmRry.s 			page 7


 158:.\Interrupts.c **** * Parameters:  
 159:.\Interrupts.c **** *	TxDMADone interrupt vector
 160:.\Interrupts.c **** *
 161:.\Interrupts.c **** * Return:
 162:.\Interrupts.c **** *   void.
 163:.\Interrupts.c **** *
 164:.\Interrupts.c **** *******************************************************************************/
 165:.\Interrupts.c **** CY_ISR(TxDMADone_Interrupt)
 166:.\Interrupts.c **** {
 182              		.loc 1 166 0
 183              		.cfi_startproc
 184              		@ args = 0, pretend = 0, frame = 8
 185              		@ frame_needed = 1, uses_anonymous_args = 0
 186 0000 80B5     		push	{r7, lr}
 187              	.LCFI7:
 188              		.cfi_def_cfa_offset 8
 189 0002 82B0     		sub	sp, sp, #8
 190              	.LCFI8:
 191              		.cfi_def_cfa_offset 16
 192 0004 00AF     		add	r7, sp, #0
 193              		.cfi_offset 14, -4
 194              		.cfi_offset 7, -8
 195              	.LCFI9:
 196              		.cfi_def_cfa_register 7
 167:.\Interrupts.c ****     #ifndef ENABLE_DIGITAL_AUDIO_IN_ONLY 
 168:.\Interrupts.c **** 	uint16 added;
 169:.\Interrupts.c **** 
 170:.\Interrupts.c **** 	/* Note: Care must be taken in the application code to update outUsbCount atomically
 171:.\Interrupts.c **** 	 * Code is currently implemented with both updaters of this value in interrupts that are
 172:.\Interrupts.c **** 	 * the same priority so the code will not execute at the same time, but the code
 173:.\Interrupts.c **** 	 * has been written so that this is not a requirement. */
 174:.\Interrupts.c ****     
 175:.\Interrupts.c **** 	added = outUsbCount - outUsbShadow;
 197              		.loc 1 175 0
 198 0006 40F20003 		movw	r3, #:lower16:outUsbCount
 199 000a C0F20003 		movt	r3, #:upper16:outUsbCount
 200 000e 1A88     		ldrh	r2, [r3, #0]
 201 0010 40F20003 		movw	r3, #:lower16:outUsbShadow
 202 0014 C0F20003 		movt	r3, #:upper16:outUsbShadow
 203 0018 1B88     		ldrh	r3, [r3, #0]
 204 001a C3EB0203 		rsb	r3, r3, r2
 205 001e FB80     		strh	r3, [r7, #6]	@ movhi
 176:.\Interrupts.c **** 	outLevel += added;
 206              		.loc 1 176 0
 207 0020 40F20003 		movw	r3, #:lower16:outLevel
 208 0024 C0F20003 		movt	r3, #:upper16:outLevel
 209 0028 1A88     		ldrh	r2, [r3, #0]
 210 002a FB88     		ldrh	r3, [r7, #6]	@ movhi
 211 002c 1344     		add	r3, r2, r3
 212 002e 9AB2     		uxth	r2, r3
 213 0030 40F20003 		movw	r3, #:lower16:outLevel
 214 0034 C0F20003 		movt	r3, #:upper16:outLevel
 215 0038 1A80     		strh	r2, [r3, #0]	@ movhi
 177:.\Interrupts.c ****     
 178:.\Interrupts.c ****     #if 0
 179:.\Interrupts.c **** 	if (outLevel > OUT_BUFSIZE) 
 180:.\Interrupts.c **** 		for(;;) ;		/* Overflow should not happen */
ARM GAS  C:\DOCUME~1\ADMINI~1\LOCALS~1\Temp\ccsdmRry.s 			page 8


 181:.\Interrupts.c ****     #endif
 182:.\Interrupts.c ****     
 183:.\Interrupts.c **** 	outUsbShadow = outUsbCount;
 216              		.loc 1 183 0
 217 003a 40F20003 		movw	r3, #:lower16:outUsbCount
 218 003e C0F20003 		movt	r3, #:upper16:outUsbCount
 219 0042 1A88     		ldrh	r2, [r3, #0]
 220 0044 40F20003 		movw	r3, #:lower16:outUsbShadow
 221 0048 C0F20003 		movt	r3, #:upper16:outUsbShadow
 222 004c 1A80     		strh	r2, [r3, #0]	@ movhi
 184:.\Interrupts.c **** 	
 185:.\Interrupts.c **** 	if (outLevel <= OUT_AUDIOMAXPKT) 
 223              		.loc 1 185 0
 224 004e 40F20003 		movw	r3, #:lower16:outLevel
 225 0052 C0F20003 		movt	r3, #:upper16:outLevel
 226 0056 1B88     		ldrh	r3, [r3, #0]
 227 0058 B3F5907F 		cmp	r3, #288
 228 005c 02D8     		bhi	.L10
 186:.\Interrupts.c **** 	{
 187:.\Interrupts.c **** 		/* Underflow, so disable the DMA, mute and tell the main task to reset all its structures Stop DM
 188:.\Interrupts.c **** 		Stop_I2S_Tx();
 229              		.loc 1 188 0
 230 005e FFF7FEFF 		bl	Stop_I2S_Tx
 231 0062 0CE0     		b	.L12
 232              	.L10:
 189:.\Interrupts.c **** 	}
 190:.\Interrupts.c **** 	else
 191:.\Interrupts.c **** 	{
 192:.\Interrupts.c **** 		outLevel -= OUT_TRANS_SIZE;
 233              		.loc 1 192 0
 234 0064 40F20003 		movw	r3, #:lower16:outLevel
 235 0068 C0F20003 		movt	r3, #:upper16:outLevel
 236 006c 1B88     		ldrh	r3, [r3, #0]
 237 006e A3F19003 		sub	r3, r3, #144
 238 0072 9AB2     		uxth	r2, r3
 239 0074 40F20003 		movw	r3, #:lower16:outLevel
 240 0078 C0F20003 		movt	r3, #:upper16:outLevel
 241 007c 1A80     		strh	r2, [r3, #0]	@ movhi
 242              	.L12:
 193:.\Interrupts.c **** 	}
 194:.\Interrupts.c ****     #endif
 195:.\Interrupts.c ****     
 196:.\Interrupts.c ****     /* USER_CODE: [Audio OUT buffer pointers] ISR triggered by audio OUT data transfer DMA (see Top
 197:.\Interrupts.c ****      * the audio OUT buffer pointers */
 198:.\Interrupts.c **** }
 243              		.loc 1 198 0
 244 007e 07F10807 		add	r7, r7, #8
 245 0082 BD46     		mov	sp, r7
 246 0084 80BD     		pop	{r7, pc}
 247              		.cfi_endproc
 248              	.LFE32:
 249              		.size	TxDMADone_Interrupt, .-TxDMADone_Interrupt
 250 0086 00BF     		.section	.text.cicOverflow_Interrupt,"ax",%progbits
 251              		.align	2
 252              		.global	cicOverflow_Interrupt
 253              		.thumb
 254              		.thumb_func
ARM GAS  C:\DOCUME~1\ADMINI~1\LOCALS~1\Temp\ccsdmRry.s 			page 9


 255              		.type	cicOverflow_Interrupt, %function
 256              	cicOverflow_Interrupt:
 257              	.LFB33:
 199:.\Interrupts.c **** 
 200:.\Interrupts.c **** /*******************************************************************************
 201:.\Interrupts.c **** * Function Name: cicOverflow_Interrupt
 202:.\Interrupts.c **** ********************************************************************************
 203:.\Interrupts.c **** *
 204:.\Interrupts.c **** * Summary:
 205:.\Interrupts.c **** *  ISR for the PDM CIC FIFO OVerflow interrupt
 206:.\Interrupts.c **** *
 207:.\Interrupts.c **** * Parameters:
 208:.\Interrupts.c **** *  None
 209:.\Interrupts.c **** *
 210:.\Interrupts.c **** * Return:
 211:.\Interrupts.c **** *  None
 212:.\Interrupts.c **** *
 213:.\Interrupts.c **** * Global Variables:
 214:.\Interrupts.c **** *  None
 215:.\Interrupts.c **** *******************************************************************************/
 216:.\Interrupts.c **** CY_ISR(cicOverflow_Interrupt)
 217:.\Interrupts.c **** {
 258              		.loc 1 217 0
 259              		.cfi_startproc
 260              		@ args = 0, pretend = 0, frame = 8
 261              		@ frame_needed = 1, uses_anonymous_args = 0
 262 0000 80B5     		push	{r7, lr}
 263              	.LCFI10:
 264              		.cfi_def_cfa_offset 8
 265 0002 82B0     		sub	sp, sp, #8
 266              	.LCFI11:
 267              		.cfi_def_cfa_offset 16
 268 0004 00AF     		add	r7, sp, #0
 269              		.cfi_offset 14, -4
 270              		.cfi_offset 7, -8
 271              	.LCFI12:
 272              		.cfi_def_cfa_register 7
 218:.\Interrupts.c **** 	uint8 cic_overflow_status;	
 219:.\Interrupts.c **** 	
 220:.\Interrupts.c **** 	/* Read the status register to know the cause and clear the interrupt */
 221:.\Interrupts.c **** 	cic_overflow_status = PDM_CIC_ReadInterruptStatus(); 
 273              		.loc 1 221 0
 274 0006 FFF7FEFF 		bl	PDM_CIC_ReadInterruptStatus
 275 000a 0346     		mov	r3, r0
 276 000c FB71     		strb	r3, [r7, #7]
 222:.\Interrupts.c **** 
 223:.\Interrupts.c **** 	/* USER CODE: Add your code to be executed when the overflow occurs */	
 224:.\Interrupts.c **** }
 277              		.loc 1 224 0
 278 000e 07F10807 		add	r7, r7, #8
 279 0012 BD46     		mov	sp, r7
 280 0014 80BD     		pop	{r7, pc}
 281              		.cfi_endproc
 282              	.LFE33:
 283              		.size	cicOverflow_Interrupt, .-cicOverflow_Interrupt
 284 0016 00BF     		.text
 285              	.Letext0:
ARM GAS  C:\DOCUME~1\ADMINI~1\LOCALS~1\Temp\ccsdmRry.s 			page 10

