ARM GAS  C:\DOCUME~1\ADMINI~1\LOCALS~1\Temp\cccWMgio.s 			page 1


   1              		.syntax unified
   2              		.cpu cortex-m3
   3              		.fpu softvfp
   4              		.eabi_attribute 20, 1
   5              		.eabi_attribute 21, 1
   6              		.eabi_attribute 23, 3
   7              		.eabi_attribute 24, 1
   8              		.eabi_attribute 25, 1
   9              		.eabi_attribute 26, 1
  10              		.eabi_attribute 30, 6
  11              		.eabi_attribute 18, 4
  12              		.thumb
  13              		.file	"PDM_CIC_Status_Reg.c"
  20 0000 CE000000 		.text
  20      02006B00 
  20      00000201 
  20      FB0E0D00 
  20      01010101 
  21              	.Ltext0:
  22              		.cfi_sections	.debug_frame
  23              		.section	.text.PDM_CIC_Status_Reg_Read,"ax",%progbits
  24              		.align	2
  25              		.global	PDM_CIC_Status_Reg_Read
  26              		.thumb
  27              		.thumb_func
  28              		.type	PDM_CIC_Status_Reg_Read, %function
  29              	PDM_CIC_Status_Reg_Read:
  30              	.LFB0:
  31              		.file 1 ".\\Generated_Source\\PSoC5\\PDM_CIC_Status_Reg.c"
   1:.\Generated_Source\PSoC5/PDM_CIC_Status_Reg.c **** /*******************************************************************************
   2:.\Generated_Source\PSoC5/PDM_CIC_Status_Reg.c **** * File Name: PDM_CIC_Status_Reg.c  
   3:.\Generated_Source\PSoC5/PDM_CIC_Status_Reg.c **** * Version 1.80
   4:.\Generated_Source\PSoC5/PDM_CIC_Status_Reg.c **** *
   5:.\Generated_Source\PSoC5/PDM_CIC_Status_Reg.c **** * Description:
   6:.\Generated_Source\PSoC5/PDM_CIC_Status_Reg.c **** *  This file contains API to enable firmware to read the value of a Status 
   7:.\Generated_Source\PSoC5/PDM_CIC_Status_Reg.c **** *  Register.
   8:.\Generated_Source\PSoC5/PDM_CIC_Status_Reg.c **** *
   9:.\Generated_Source\PSoC5/PDM_CIC_Status_Reg.c **** * Note:
  10:.\Generated_Source\PSoC5/PDM_CIC_Status_Reg.c **** *
  11:.\Generated_Source\PSoC5/PDM_CIC_Status_Reg.c **** ********************************************************************************
  12:.\Generated_Source\PSoC5/PDM_CIC_Status_Reg.c **** * Copyright 2008-2012, Cypress Semiconductor Corporation.  All rights reserved.
  13:.\Generated_Source\PSoC5/PDM_CIC_Status_Reg.c **** * You may use this file only in accordance with the license, terms, conditions, 
  14:.\Generated_Source\PSoC5/PDM_CIC_Status_Reg.c **** * disclaimers, and limitations in the end user license agreement accompanying 
  15:.\Generated_Source\PSoC5/PDM_CIC_Status_Reg.c **** * the software package with which this file was provided.
  16:.\Generated_Source\PSoC5/PDM_CIC_Status_Reg.c **** *******************************************************************************/
  17:.\Generated_Source\PSoC5/PDM_CIC_Status_Reg.c **** 
  18:.\Generated_Source\PSoC5/PDM_CIC_Status_Reg.c **** #include "PDM_CIC_Status_Reg.h"
  19:.\Generated_Source\PSoC5/PDM_CIC_Status_Reg.c **** 
  20:.\Generated_Source\PSoC5/PDM_CIC_Status_Reg.c **** #if !defined(PDM_CIC_Status_Reg_sts_intr_sts_reg__REMOVED) /* Check for removal by optimization */
  21:.\Generated_Source\PSoC5/PDM_CIC_Status_Reg.c **** 
  22:.\Generated_Source\PSoC5/PDM_CIC_Status_Reg.c **** 
ARM GAS  C:\DOCUME~1\ADMINI~1\LOCALS~1\Temp\cccWMgio.s 			page 2


  23:.\Generated_Source\PSoC5/PDM_CIC_Status_Reg.c **** /*******************************************************************************
  24:.\Generated_Source\PSoC5/PDM_CIC_Status_Reg.c **** * Function Name: PDM_CIC_Status_Reg_Read
  25:.\Generated_Source\PSoC5/PDM_CIC_Status_Reg.c **** ********************************************************************************
  26:.\Generated_Source\PSoC5/PDM_CIC_Status_Reg.c **** *
  27:.\Generated_Source\PSoC5/PDM_CIC_Status_Reg.c **** * Summary:
  28:.\Generated_Source\PSoC5/PDM_CIC_Status_Reg.c **** *  Reads the current value assigned to the Status Register.
  29:.\Generated_Source\PSoC5/PDM_CIC_Status_Reg.c **** *
  30:.\Generated_Source\PSoC5/PDM_CIC_Status_Reg.c **** * Parameters:
  31:.\Generated_Source\PSoC5/PDM_CIC_Status_Reg.c **** *  None.
  32:.\Generated_Source\PSoC5/PDM_CIC_Status_Reg.c **** *
  33:.\Generated_Source\PSoC5/PDM_CIC_Status_Reg.c **** * Return:
  34:.\Generated_Source\PSoC5/PDM_CIC_Status_Reg.c **** *  The current value in the Status Register.
  35:.\Generated_Source\PSoC5/PDM_CIC_Status_Reg.c **** *
  36:.\Generated_Source\PSoC5/PDM_CIC_Status_Reg.c **** *******************************************************************************/
  37:.\Generated_Source\PSoC5/PDM_CIC_Status_Reg.c **** uint8 PDM_CIC_Status_Reg_Read(void) 
  38:.\Generated_Source\PSoC5/PDM_CIC_Status_Reg.c **** { 
  32              		.loc 1 38 0
  33              		.cfi_startproc
  34              		@ args = 0, pretend = 0, frame = 0
  35              		@ frame_needed = 1, uses_anonymous_args = 0
  36              		@ link register save eliminated.
  37 0000 80B4     		push	{r7}
  38              	.LCFI0:
  39              		.cfi_def_cfa_offset 4
  40 0002 00AF     		add	r7, sp, #0
  41              		.cfi_offset 7, -4
  42              	.LCFI1:
  43              		.cfi_def_cfa_register 7
  39:.\Generated_Source\PSoC5/PDM_CIC_Status_Reg.c ****     return PDM_CIC_Status_Reg_Status;
  44              		.loc 1 39 0
  45 0004 46F26843 		movw	r3, #:lower16:1073767528
  46 0008 C4F20003 		movt	r3, #:upper16:1073767528
  47 000c 1B78     		ldrb	r3, [r3, #0]
  48 000e DBB2     		uxtb	r3, r3
  40:.\Generated_Source\PSoC5/PDM_CIC_Status_Reg.c **** }
  49              		.loc 1 40 0
  50 0010 1846     		mov	r0, r3
  51 0012 BD46     		mov	sp, r7
  52 0014 80BC     		pop	{r7}
  53 0016 7047     		bx	lr
  54              		.cfi_endproc
  55              	.LFE0:
  56              		.size	PDM_CIC_Status_Reg_Read, .-PDM_CIC_Status_Reg_Read
  57              		.section	.text.PDM_CIC_Status_Reg_InterruptEnable,"ax",%progbits
  58              		.align	2
  59              		.global	PDM_CIC_Status_Reg_InterruptEnable
  60              		.thumb
  61              		.thumb_func
  62              		.type	PDM_CIC_Status_Reg_InterruptEnable, %function
  63              	PDM_CIC_Status_Reg_InterruptEnable:
  64              	.LFB1:
  41:.\Generated_Source\PSoC5/PDM_CIC_Status_Reg.c **** 
  42:.\Generated_Source\PSoC5/PDM_CIC_Status_Reg.c **** 
  43:.\Generated_Source\PSoC5/PDM_CIC_Status_Reg.c **** /*******************************************************************************
  44:.\Generated_Source\PSoC5/PDM_CIC_Status_Reg.c **** * Function Name: PDM_CIC_Status_Reg_InterruptEnable
  45:.\Generated_Source\PSoC5/PDM_CIC_Status_Reg.c **** ********************************************************************************
  46:.\Generated_Source\PSoC5/PDM_CIC_Status_Reg.c **** *
ARM GAS  C:\DOCUME~1\ADMINI~1\LOCALS~1\Temp\cccWMgio.s 			page 3


  47:.\Generated_Source\PSoC5/PDM_CIC_Status_Reg.c **** * Summary:
  48:.\Generated_Source\PSoC5/PDM_CIC_Status_Reg.c **** *  Enables the Status Register interrupt.
  49:.\Generated_Source\PSoC5/PDM_CIC_Status_Reg.c **** *
  50:.\Generated_Source\PSoC5/PDM_CIC_Status_Reg.c **** * Parameters:
  51:.\Generated_Source\PSoC5/PDM_CIC_Status_Reg.c **** *  None.
  52:.\Generated_Source\PSoC5/PDM_CIC_Status_Reg.c **** *
  53:.\Generated_Source\PSoC5/PDM_CIC_Status_Reg.c **** * Return:
  54:.\Generated_Source\PSoC5/PDM_CIC_Status_Reg.c **** *  None.
  55:.\Generated_Source\PSoC5/PDM_CIC_Status_Reg.c **** *
  56:.\Generated_Source\PSoC5/PDM_CIC_Status_Reg.c **** *******************************************************************************/
  57:.\Generated_Source\PSoC5/PDM_CIC_Status_Reg.c **** void PDM_CIC_Status_Reg_InterruptEnable(void) 
  58:.\Generated_Source\PSoC5/PDM_CIC_Status_Reg.c **** {
  65              		.loc 1 58 0
  66              		.cfi_startproc
  67              		@ args = 0, pretend = 0, frame = 8
  68              		@ frame_needed = 1, uses_anonymous_args = 0
  69 0000 80B5     		push	{r7, lr}
  70              	.LCFI2:
  71              		.cfi_def_cfa_offset 8
  72 0002 82B0     		sub	sp, sp, #8
  73              	.LCFI3:
  74              		.cfi_def_cfa_offset 16
  75 0004 00AF     		add	r7, sp, #0
  76              		.cfi_offset 14, -4
  77              		.cfi_offset 7, -8
  78              	.LCFI4:
  79              		.cfi_def_cfa_register 7
  59:.\Generated_Source\PSoC5/PDM_CIC_Status_Reg.c ****     uint8 interruptState;
  60:.\Generated_Source\PSoC5/PDM_CIC_Status_Reg.c ****     interruptState = CyEnterCriticalSection();
  80              		.loc 1 60 0
  81 0006 FFF7FEFF 		bl	CyEnterCriticalSection
  82 000a 0346     		mov	r3, r0
  83 000c FB71     		strb	r3, [r7, #7]
  61:.\Generated_Source\PSoC5/PDM_CIC_Status_Reg.c ****     PDM_CIC_Status_Reg_Status_Aux_Ctrl |= PDM_CIC_Status_Reg_STATUS_INTR_ENBL;
  84              		.loc 1 61 0
  85 000e 46F29843 		movw	r3, #:lower16:1073767576
  86 0012 C4F20003 		movt	r3, #:upper16:1073767576
  87 0016 46F29842 		movw	r2, #:lower16:1073767576
  88 001a C4F20002 		movt	r2, #:upper16:1073767576
  89 001e 1278     		ldrb	r2, [r2, #0]
  90 0020 D2B2     		uxtb	r2, r2
  91 0022 42F01002 		orr	r2, r2, #16
  92 0026 D2B2     		uxtb	r2, r2
  93 0028 1A70     		strb	r2, [r3, #0]
  62:.\Generated_Source\PSoC5/PDM_CIC_Status_Reg.c ****     CyExitCriticalSection(interruptState);
  94              		.loc 1 62 0
  95 002a FB79     		ldrb	r3, [r7, #7]	@ zero_extendqisi2
  96 002c 1846     		mov	r0, r3
  97 002e FFF7FEFF 		bl	CyExitCriticalSection
  63:.\Generated_Source\PSoC5/PDM_CIC_Status_Reg.c **** }
  98              		.loc 1 63 0
  99 0032 07F10807 		add	r7, r7, #8
 100 0036 BD46     		mov	sp, r7
 101 0038 80BD     		pop	{r7, pc}
 102              		.cfi_endproc
 103              	.LFE1:
 104              		.size	PDM_CIC_Status_Reg_InterruptEnable, .-PDM_CIC_Status_Reg_InterruptEnable
ARM GAS  C:\DOCUME~1\ADMINI~1\LOCALS~1\Temp\cccWMgio.s 			page 4


 105 003a 00BF     		.section	.text.PDM_CIC_Status_Reg_InterruptDisable,"ax",%progbits
 106              		.align	2
 107              		.global	PDM_CIC_Status_Reg_InterruptDisable
 108              		.thumb
 109              		.thumb_func
 110              		.type	PDM_CIC_Status_Reg_InterruptDisable, %function
 111              	PDM_CIC_Status_Reg_InterruptDisable:
 112              	.LFB2:
  64:.\Generated_Source\PSoC5/PDM_CIC_Status_Reg.c **** 
  65:.\Generated_Source\PSoC5/PDM_CIC_Status_Reg.c **** 
  66:.\Generated_Source\PSoC5/PDM_CIC_Status_Reg.c **** /*******************************************************************************
  67:.\Generated_Source\PSoC5/PDM_CIC_Status_Reg.c **** * Function Name: PDM_CIC_Status_Reg_InterruptDisable
  68:.\Generated_Source\PSoC5/PDM_CIC_Status_Reg.c **** ********************************************************************************
  69:.\Generated_Source\PSoC5/PDM_CIC_Status_Reg.c **** *
  70:.\Generated_Source\PSoC5/PDM_CIC_Status_Reg.c **** * Summary:
  71:.\Generated_Source\PSoC5/PDM_CIC_Status_Reg.c **** *  Disables the Status Register interrupt.
  72:.\Generated_Source\PSoC5/PDM_CIC_Status_Reg.c **** *
  73:.\Generated_Source\PSoC5/PDM_CIC_Status_Reg.c **** * Parameters:
  74:.\Generated_Source\PSoC5/PDM_CIC_Status_Reg.c **** *  None.
  75:.\Generated_Source\PSoC5/PDM_CIC_Status_Reg.c **** *
  76:.\Generated_Source\PSoC5/PDM_CIC_Status_Reg.c **** * Return:
  77:.\Generated_Source\PSoC5/PDM_CIC_Status_Reg.c **** *  None.
  78:.\Generated_Source\PSoC5/PDM_CIC_Status_Reg.c **** *
  79:.\Generated_Source\PSoC5/PDM_CIC_Status_Reg.c **** *******************************************************************************/
  80:.\Generated_Source\PSoC5/PDM_CIC_Status_Reg.c **** void PDM_CIC_Status_Reg_InterruptDisable(void) 
  81:.\Generated_Source\PSoC5/PDM_CIC_Status_Reg.c **** {
 113              		.loc 1 81 0
 114              		.cfi_startproc
 115              		@ args = 0, pretend = 0, frame = 8
 116              		@ frame_needed = 1, uses_anonymous_args = 0
 117 0000 80B5     		push	{r7, lr}
 118              	.LCFI5:
 119              		.cfi_def_cfa_offset 8
 120 0002 82B0     		sub	sp, sp, #8
 121              	.LCFI6:
 122              		.cfi_def_cfa_offset 16
 123 0004 00AF     		add	r7, sp, #0
 124              		.cfi_offset 14, -4
 125              		.cfi_offset 7, -8
 126              	.LCFI7:
 127              		.cfi_def_cfa_register 7
  82:.\Generated_Source\PSoC5/PDM_CIC_Status_Reg.c ****     uint8 interruptState;
  83:.\Generated_Source\PSoC5/PDM_CIC_Status_Reg.c ****     interruptState = CyEnterCriticalSection();
 128              		.loc 1 83 0
 129 0006 FFF7FEFF 		bl	CyEnterCriticalSection
 130 000a 0346     		mov	r3, r0
 131 000c FB71     		strb	r3, [r7, #7]
  84:.\Generated_Source\PSoC5/PDM_CIC_Status_Reg.c ****     PDM_CIC_Status_Reg_Status_Aux_Ctrl &= (uint8)(~PDM_CIC_Status_Reg_STATUS_INTR_ENBL);
 132              		.loc 1 84 0
 133 000e 46F29843 		movw	r3, #:lower16:1073767576
 134 0012 C4F20003 		movt	r3, #:upper16:1073767576
 135 0016 46F29842 		movw	r2, #:lower16:1073767576
 136 001a C4F20002 		movt	r2, #:upper16:1073767576
 137 001e 1278     		ldrb	r2, [r2, #0]
 138 0020 D2B2     		uxtb	r2, r2
 139 0022 02F0EF02 		and	r2, r2, #239
 140 0026 1A70     		strb	r2, [r3, #0]
ARM GAS  C:\DOCUME~1\ADMINI~1\LOCALS~1\Temp\cccWMgio.s 			page 5


  85:.\Generated_Source\PSoC5/PDM_CIC_Status_Reg.c ****     CyExitCriticalSection(interruptState);
 141              		.loc 1 85 0
 142 0028 FB79     		ldrb	r3, [r7, #7]	@ zero_extendqisi2
 143 002a 1846     		mov	r0, r3
 144 002c FFF7FEFF 		bl	CyExitCriticalSection
  86:.\Generated_Source\PSoC5/PDM_CIC_Status_Reg.c **** }
 145              		.loc 1 86 0
 146 0030 07F10807 		add	r7, r7, #8
 147 0034 BD46     		mov	sp, r7
 148 0036 80BD     		pop	{r7, pc}
 149              		.cfi_endproc
 150              	.LFE2:
 151              		.size	PDM_CIC_Status_Reg_InterruptDisable, .-PDM_CIC_Status_Reg_InterruptDisable
 152              		.section	.text.PDM_CIC_Status_Reg_WriteMask,"ax",%progbits
 153              		.align	2
 154              		.global	PDM_CIC_Status_Reg_WriteMask
 155              		.thumb
 156              		.thumb_func
 157              		.type	PDM_CIC_Status_Reg_WriteMask, %function
 158              	PDM_CIC_Status_Reg_WriteMask:
 159              	.LFB3:
  87:.\Generated_Source\PSoC5/PDM_CIC_Status_Reg.c **** 
  88:.\Generated_Source\PSoC5/PDM_CIC_Status_Reg.c **** 
  89:.\Generated_Source\PSoC5/PDM_CIC_Status_Reg.c **** /*******************************************************************************
  90:.\Generated_Source\PSoC5/PDM_CIC_Status_Reg.c **** * Function Name: PDM_CIC_Status_Reg_WriteMask
  91:.\Generated_Source\PSoC5/PDM_CIC_Status_Reg.c **** ********************************************************************************
  92:.\Generated_Source\PSoC5/PDM_CIC_Status_Reg.c **** *
  93:.\Generated_Source\PSoC5/PDM_CIC_Status_Reg.c **** * Summary:
  94:.\Generated_Source\PSoC5/PDM_CIC_Status_Reg.c **** *  Writes the current mask value assigned to the Status Register.
  95:.\Generated_Source\PSoC5/PDM_CIC_Status_Reg.c **** *
  96:.\Generated_Source\PSoC5/PDM_CIC_Status_Reg.c **** * Parameters:
  97:.\Generated_Source\PSoC5/PDM_CIC_Status_Reg.c **** *  mask:  Value to write into the mask register.
  98:.\Generated_Source\PSoC5/PDM_CIC_Status_Reg.c **** *
  99:.\Generated_Source\PSoC5/PDM_CIC_Status_Reg.c **** * Return:
 100:.\Generated_Source\PSoC5/PDM_CIC_Status_Reg.c **** *  None.
 101:.\Generated_Source\PSoC5/PDM_CIC_Status_Reg.c **** *
 102:.\Generated_Source\PSoC5/PDM_CIC_Status_Reg.c **** *******************************************************************************/
 103:.\Generated_Source\PSoC5/PDM_CIC_Status_Reg.c **** void PDM_CIC_Status_Reg_WriteMask(uint8 mask) 
 104:.\Generated_Source\PSoC5/PDM_CIC_Status_Reg.c **** {
 160              		.loc 1 104 0
 161              		.cfi_startproc
 162              		@ args = 0, pretend = 0, frame = 8
 163              		@ frame_needed = 1, uses_anonymous_args = 0
 164              		@ link register save eliminated.
 165 0000 80B4     		push	{r7}
 166              	.LCFI8:
 167              		.cfi_def_cfa_offset 4
 168 0002 83B0     		sub	sp, sp, #12
 169              	.LCFI9:
 170              		.cfi_def_cfa_offset 16
 171 0004 00AF     		add	r7, sp, #0
 172              		.cfi_offset 7, -4
 173              	.LCFI10:
 174              		.cfi_def_cfa_register 7
 175 0006 0346     		mov	r3, r0
 176 0008 FB71     		strb	r3, [r7, #7]
 105:.\Generated_Source\PSoC5/PDM_CIC_Status_Reg.c ****     #if(PDM_CIC_Status_Reg_INPUTS < 8u)
ARM GAS  C:\DOCUME~1\ADMINI~1\LOCALS~1\Temp\cccWMgio.s 			page 6


 106:.\Generated_Source\PSoC5/PDM_CIC_Status_Reg.c ****     	mask &= (uint8)((((uint8)1u) << PDM_CIC_Status_Reg_INPUTS) - 1u);
 177              		.loc 1 106 0
 178 000a FB79     		ldrb	r3, [r7, #7]
 179 000c 03F00F03 		and	r3, r3, #15
 180 0010 FB71     		strb	r3, [r7, #7]
 107:.\Generated_Source\PSoC5/PDM_CIC_Status_Reg.c **** 	#endif /* End PDM_CIC_Status_Reg_INPUTS < 8u */
 108:.\Generated_Source\PSoC5/PDM_CIC_Status_Reg.c ****     PDM_CIC_Status_Reg_Status_Mask = mask;
 181              		.loc 1 108 0
 182 0012 46F28843 		movw	r3, #:lower16:1073767560
 183 0016 C4F20003 		movt	r3, #:upper16:1073767560
 184 001a FA79     		ldrb	r2, [r7, #7]
 185 001c 1A70     		strb	r2, [r3, #0]
 109:.\Generated_Source\PSoC5/PDM_CIC_Status_Reg.c **** }
 186              		.loc 1 109 0
 187 001e 07F10C07 		add	r7, r7, #12
 188 0022 BD46     		mov	sp, r7
 189 0024 80BC     		pop	{r7}
 190 0026 7047     		bx	lr
 191              		.cfi_endproc
 192              	.LFE3:
 193              		.size	PDM_CIC_Status_Reg_WriteMask, .-PDM_CIC_Status_Reg_WriteMask
 194              		.section	.text.PDM_CIC_Status_Reg_ReadMask,"ax",%progbits
 195              		.align	2
 196              		.global	PDM_CIC_Status_Reg_ReadMask
 197              		.thumb
 198              		.thumb_func
 199              		.type	PDM_CIC_Status_Reg_ReadMask, %function
 200              	PDM_CIC_Status_Reg_ReadMask:
 201              	.LFB4:
 110:.\Generated_Source\PSoC5/PDM_CIC_Status_Reg.c **** 
 111:.\Generated_Source\PSoC5/PDM_CIC_Status_Reg.c **** 
 112:.\Generated_Source\PSoC5/PDM_CIC_Status_Reg.c **** /*******************************************************************************
 113:.\Generated_Source\PSoC5/PDM_CIC_Status_Reg.c **** * Function Name: PDM_CIC_Status_Reg_ReadMask
 114:.\Generated_Source\PSoC5/PDM_CIC_Status_Reg.c **** ********************************************************************************
 115:.\Generated_Source\PSoC5/PDM_CIC_Status_Reg.c **** *
 116:.\Generated_Source\PSoC5/PDM_CIC_Status_Reg.c **** * Summary:
 117:.\Generated_Source\PSoC5/PDM_CIC_Status_Reg.c **** *  Reads the current interrupt mask assigned to the Status Register.
 118:.\Generated_Source\PSoC5/PDM_CIC_Status_Reg.c **** *
 119:.\Generated_Source\PSoC5/PDM_CIC_Status_Reg.c **** * Parameters:
 120:.\Generated_Source\PSoC5/PDM_CIC_Status_Reg.c **** *  None.
 121:.\Generated_Source\PSoC5/PDM_CIC_Status_Reg.c **** *
 122:.\Generated_Source\PSoC5/PDM_CIC_Status_Reg.c **** * Return:
 123:.\Generated_Source\PSoC5/PDM_CIC_Status_Reg.c **** *  The value of the interrupt mask of the Status Register.
 124:.\Generated_Source\PSoC5/PDM_CIC_Status_Reg.c **** *
 125:.\Generated_Source\PSoC5/PDM_CIC_Status_Reg.c **** *******************************************************************************/
 126:.\Generated_Source\PSoC5/PDM_CIC_Status_Reg.c **** uint8 PDM_CIC_Status_Reg_ReadMask(void) 
 127:.\Generated_Source\PSoC5/PDM_CIC_Status_Reg.c **** {
 202              		.loc 1 127 0
 203              		.cfi_startproc
 204              		@ args = 0, pretend = 0, frame = 0
 205              		@ frame_needed = 1, uses_anonymous_args = 0
 206              		@ link register save eliminated.
 207 0000 80B4     		push	{r7}
 208              	.LCFI11:
 209              		.cfi_def_cfa_offset 4
 210 0002 00AF     		add	r7, sp, #0
 211              		.cfi_offset 7, -4
ARM GAS  C:\DOCUME~1\ADMINI~1\LOCALS~1\Temp\cccWMgio.s 			page 7


 212              	.LCFI12:
 213              		.cfi_def_cfa_register 7
 128:.\Generated_Source\PSoC5/PDM_CIC_Status_Reg.c ****     return PDM_CIC_Status_Reg_Status_Mask;
 214              		.loc 1 128 0
 215 0004 46F28843 		movw	r3, #:lower16:1073767560
 216 0008 C4F20003 		movt	r3, #:upper16:1073767560
 217 000c 1B78     		ldrb	r3, [r3, #0]
 218 000e DBB2     		uxtb	r3, r3
 129:.\Generated_Source\PSoC5/PDM_CIC_Status_Reg.c **** }
 219              		.loc 1 129 0
 220 0010 1846     		mov	r0, r3
 221 0012 BD46     		mov	sp, r7
 222 0014 80BC     		pop	{r7}
 223 0016 7047     		bx	lr
 224              		.cfi_endproc
 225              	.LFE4:
 226              		.size	PDM_CIC_Status_Reg_ReadMask, .-PDM_CIC_Status_Reg_ReadMask
 227              		.text
 228              	.Letext0: