ARM GAS  C:\DOCUME~1\ADMINI~1\LOCALS~1\Temp\ccvcEeBl.s 			page 1


   1              		.syntax unified
   2              		.cpu cortex-m3
   3              		.fpu softvfp
   4              		.eabi_attribute 20, 1
   5              		.eabi_attribute 21, 1
   6              		.eabi_attribute 23, 3
   7              		.eabi_attribute 24, 1
   8              		.eabi_attribute 25, 1
   9              		.eabi_attribute 26, 1
  10              		.eabi_attribute 30, 6
  11              		.eabi_attribute 18, 4
  12              		.thumb
  13              		.file	"PDM_CIC.c"
  20 0000 F9020000 		.text
  20      0200F100 
  20      00000201 
  20      FB0E0D00 
  20      01010101 
  21              	.Ltext0:
  22              		.cfi_sections	.debug_frame
  23              		.global	PDM_CIC_initVar
  24              		.bss
  25              		.type	PDM_CIC_initVar, %object
  26              		.size	PDM_CIC_initVar, 1
  27              	PDM_CIC_initVar:
  28 0000 00       		.space	1
  29              		.data
  30              		.align	2
  31              		.type	PDM_CIC_backup, %object
  32              		.size	PDM_CIC_backup, 2
  33              	PDM_CIC_backup:
  34 0000 00       		.byte	0
  35 0001 1F       		.byte	31
  36 0002 0000     		.section	.text.PDM_CIC_Start,"ax",%progbits
  37              		.align	2
  38              		.global	PDM_CIC_Start
  39              		.thumb
  40              		.thumb_func
  41              		.type	PDM_CIC_Start, %function
  42              	PDM_CIC_Start:
  43              	.LFB0:
  44              		.file 1 ".\\Generated_Source\\PSoC5\\PDM_CIC.c"
   1:.\Generated_Source\PSoC5/PDM_CIC.c **** /*******************************************************************************
   2:.\Generated_Source\PSoC5/PDM_CIC.c **** * File Name: PDM_CIC.c
   3:.\Generated_Source\PSoC5/PDM_CIC.c **** * Version 2.0
   4:.\Generated_Source\PSoC5/PDM_CIC.c **** *
   5:.\Generated_Source\PSoC5/PDM_CIC.c **** * Description:
   6:.\Generated_Source\PSoC5/PDM_CIC.c **** *  This file contains the function definitions associated with the PDM CIC
   7:.\Generated_Source\PSoC5/PDM_CIC.c **** *  filter component
   8:.\Generated_Source\PSoC5/PDM_CIC.c **** *
   9:.\Generated_Source\PSoC5/PDM_CIC.c **** * Note:
ARM GAS  C:\DOCUME~1\ADMINI~1\LOCALS~1\Temp\ccvcEeBl.s 			page 2


  10:.\Generated_Source\PSoC5/PDM_CIC.c **** *
  11:.\Generated_Source\PSoC5/PDM_CIC.c **** *******************************************************************************
  12:.\Generated_Source\PSoC5/PDM_CIC.c **** * Copyright 2008-2012, Cypress Semiconductor Corporation.  All rights reserved.
  13:.\Generated_Source\PSoC5/PDM_CIC.c **** * You may use this file only in accordance with the license, terms, conditions,
  14:.\Generated_Source\PSoC5/PDM_CIC.c **** * disclaimers, and limitations in the end user license agreement accompanying
  15:.\Generated_Source\PSoC5/PDM_CIC.c **** * the software package with which this file was provided.
  16:.\Generated_Source\PSoC5/PDM_CIC.c **** *******************************************************************************/
  17:.\Generated_Source\PSoC5/PDM_CIC.c **** 
  18:.\Generated_Source\PSoC5/PDM_CIC.c **** #include "PDM_CIC.h"
  19:.\Generated_Source\PSoC5/PDM_CIC.c **** #include "cytypes.h"
  20:.\Generated_Source\PSoC5/PDM_CIC.c **** #include "cyfitter.h"
  21:.\Generated_Source\PSoC5/PDM_CIC.c **** #include "CyLib.h"
  22:.\Generated_Source\PSoC5/PDM_CIC.c **** 
  23:.\Generated_Source\PSoC5/PDM_CIC.c **** #include "PDM_CIC_Int_Ctrl_Reg.h"
  24:.\Generated_Source\PSoC5/PDM_CIC.c **** 
  25:.\Generated_Source\PSoC5/PDM_CIC.c **** #if (PDM_CIC_COMB_CTRL_AVAIL)
  26:.\Generated_Source\PSoC5/PDM_CIC.c **** 	#include "PDM_CIC_Comb_Ctrl_Reg.h"
  27:.\Generated_Source\PSoC5/PDM_CIC.c **** #endif
  28:.\Generated_Source\PSoC5/PDM_CIC.c **** 
  29:.\Generated_Source\PSoC5/PDM_CIC.c **** #if (PDM_CIC_RIGHT_CHANNEL_ENABLED)
  30:.\Generated_Source\PSoC5/PDM_CIC.c **** 	#include "PDM_CIC_DMA_CombD0Update_R_dma.h"
  31:.\Generated_Source\PSoC5/PDM_CIC.c **** 	#include "PDM_CIC_DMA_IntOut_R_dma.h"
  32:.\Generated_Source\PSoC5/PDM_CIC.c **** #endif
  33:.\Generated_Source\PSoC5/PDM_CIC.c **** 
  34:.\Generated_Source\PSoC5/PDM_CIC.c **** #if (PDM_CIC_LEFT_CHANNEL_ENABLED)
  35:.\Generated_Source\PSoC5/PDM_CIC.c **** 	#include "PDM_CIC_DMA_CombD0Update_L_dma.h"
  36:.\Generated_Source\PSoC5/PDM_CIC.c **** 	#include "PDM_CIC_DMA_IntOut_L_dma.h"
  37:.\Generated_Source\PSoC5/PDM_CIC.c **** #endif
  38:.\Generated_Source\PSoC5/PDM_CIC.c **** 
  39:.\Generated_Source\PSoC5/PDM_CIC.c **** 
  40:.\Generated_Source\PSoC5/PDM_CIC.c **** #if (PDM_CIC_INTERRUPT_ENABLED)
  41:.\Generated_Source\PSoC5/PDM_CIC.c **** 	#include "PDM_CIC_Status_Reg.h"
  42:.\Generated_Source\PSoC5/PDM_CIC.c **** #endif
  43:.\Generated_Source\PSoC5/PDM_CIC.c **** 
  44:.\Generated_Source\PSoC5/PDM_CIC.c **** #if(PDM_CIC_LEFT_CHANNEL_ENABLED)
  45:.\Generated_Source\PSoC5/PDM_CIC.c **** 	/* Address of registers holding the Integrator output. Note that these registers
  46:.\Generated_Source\PSoC5/PDM_CIC.c **** 	   hold 16-bit values */
  47:.\Generated_Source\PSoC5/PDM_CIC.c **** 	#define PDM_CIC_INT_L_LO16_OUTPUT_REG_PTR  PDM_CIC_Integrator_genblk2_dp32_l_u0__16BIT_F0_REG
  48:.\Generated_Source\PSoC5/PDM_CIC.c **** 	#define PDM_CIC_INT_L_HI16_OUTPUT_REG_PTR  PDM_CIC_Integrator_genblk2_dp32_l_u2__16BIT_F0_REG
  49:.\Generated_Source\PSoC5/PDM_CIC.c **** 
  50:.\Generated_Source\PSoC5/PDM_CIC.c **** 	/* Address of registers holding the comb input for first stage. Note that these registers
  51:.\Generated_Source\PSoC5/PDM_CIC.c **** 	   hold 16-bit values */
  52:.\Generated_Source\PSoC5/PDM_CIC.c **** 	#define PDM_CIC_COMB_L_LO16_INPUT_REG_PTR  PDM_CIC_Comb_L_genblk2_dp32_u0__16BIT_A0_REG
  53:.\Generated_Source\PSoC5/PDM_CIC.c **** 	#define PDM_CIC_COMB_L_HI16_INPUT_REG_PTR  PDM_CIC_Comb_L_genblk2_dp32_u2__16BIT_A0_REG
  54:.\Generated_Source\PSoC5/PDM_CIC.c **** #endif
  55:.\Generated_Source\PSoC5/PDM_CIC.c **** 
  56:.\Generated_Source\PSoC5/PDM_CIC.c **** #if(PDM_CIC_RIGHT_CHANNEL_ENABLED)
  57:.\Generated_Source\PSoC5/PDM_CIC.c **** 	/* Address of registers holding the Integrator output. Note that these registers
  58:.\Generated_Source\PSoC5/PDM_CIC.c **** 	   hold 16-bit values */
  59:.\Generated_Source\PSoC5/PDM_CIC.c **** 	#define PDM_CIC_INT_R_LO16_OUTPUT_REG_PTR  PDM_CIC_Integrator_genblk3_dp32_r_u0__16BIT_F0_REG
  60:.\Generated_Source\PSoC5/PDM_CIC.c **** 	#define PDM_CIC_INT_R_HI16_OUTPUT_REG_PTR  PDM_CIC_Integrator_genblk3_dp32_r_u2__16BIT_F0_REG
  61:.\Generated_Source\PSoC5/PDM_CIC.c **** 
  62:.\Generated_Source\PSoC5/PDM_CIC.c **** 	/* Address of registers holding the comb input for first stage. Note that these registers
  63:.\Generated_Source\PSoC5/PDM_CIC.c **** 	   hold 16-bit values */
  64:.\Generated_Source\PSoC5/PDM_CIC.c **** 	#define PDM_CIC_COMB_R_LO16_INPUT_REG_PTR  PDM_CIC_Comb_R_genblk2_dp32_u0__16BIT_A0_REG
  65:.\Generated_Source\PSoC5/PDM_CIC.c **** 	#define PDM_CIC_COMB_R_HI16_INPUT_REG_PTR  PDM_CIC_Comb_R_genblk2_dp32_u2__16BIT_A0_REG
  66:.\Generated_Source\PSoC5/PDM_CIC.c **** #endif
ARM GAS  C:\DOCUME~1\ADMINI~1\LOCALS~1\Temp\ccvcEeBl.s 			page 3


  67:.\Generated_Source\PSoC5/PDM_CIC.c **** 
  68:.\Generated_Source\PSoC5/PDM_CIC.c **** uint8 PDM_CIC_initVar = 0u;
  69:.\Generated_Source\PSoC5/PDM_CIC.c **** 
  70:.\Generated_Source\PSoC5/PDM_CIC.c **** static PDM_CIC_BACKUP_STRUCT  PDM_CIC_backup =
  71:.\Generated_Source\PSoC5/PDM_CIC.c **** {
  72:.\Generated_Source\PSoC5/PDM_CIC.c ****     /* Component disabled by deafult */
  73:.\Generated_Source\PSoC5/PDM_CIC.c ****     PDM_CIC_DISABLED,
  74:.\Generated_Source\PSoC5/PDM_CIC.c **** 
  75:.\Generated_Source\PSoC5/PDM_CIC.c ****     /* Decimation counter period */
  76:.\Generated_Source\PSoC5/PDM_CIC.c ****     PDM_CIC_CNT7_PERIOD,
  77:.\Generated_Source\PSoC5/PDM_CIC.c **** 
  78:.\Generated_Source\PSoC5/PDM_CIC.c **** };
  79:.\Generated_Source\PSoC5/PDM_CIC.c **** 
  80:.\Generated_Source\PSoC5/PDM_CIC.c **** /***************************************
  81:.\Generated_Source\PSoC5/PDM_CIC.c **** *        Function Prototypes
  82:.\Generated_Source\PSoC5/PDM_CIC.c **** ***************************************/
  83:.\Generated_Source\PSoC5/PDM_CIC.c **** 
  84:.\Generated_Source\PSoC5/PDM_CIC.c **** static void PDM_CIC_Integrator_Init(void);
  85:.\Generated_Source\PSoC5/PDM_CIC.c **** static void PDM_CIC_Comb_Init(void);
  86:.\Generated_Source\PSoC5/PDM_CIC.c **** 
  87:.\Generated_Source\PSoC5/PDM_CIC.c **** #if(PDM_CIC_RIGHT_CHANNEL_ENABLED)
  88:.\Generated_Source\PSoC5/PDM_CIC.c **** 	static void PDM_CIC_IntOutDma_R_Init(void);
  89:.\Generated_Source\PSoC5/PDM_CIC.c **** 	static void PDM_CIC_IntOutDma_R_Start(void);
  90:.\Generated_Source\PSoC5/PDM_CIC.c **** 	static void PDM_CIC_IntOutDma_R_Stop(void);
  91:.\Generated_Source\PSoC5/PDM_CIC.c **** 	static void PDM_CIC_CombD0UpdateDma_R_Init(void);
  92:.\Generated_Source\PSoC5/PDM_CIC.c **** 	static void PDM_CIC_CombD0UpdateDma_R_Start(void);
  93:.\Generated_Source\PSoC5/PDM_CIC.c **** 	static void PDM_CIC_CombD0UpdateDma_R_Stop(void);
  94:.\Generated_Source\PSoC5/PDM_CIC.c **** #endif
  95:.\Generated_Source\PSoC5/PDM_CIC.c **** 
  96:.\Generated_Source\PSoC5/PDM_CIC.c **** #if(PDM_CIC_LEFT_CHANNEL_ENABLED)
  97:.\Generated_Source\PSoC5/PDM_CIC.c **** 	static void PDM_CIC_IntOutDma_L_Init(void);
  98:.\Generated_Source\PSoC5/PDM_CIC.c **** 	static void PDM_CIC_IntOutDma_L_Start(void);
  99:.\Generated_Source\PSoC5/PDM_CIC.c **** 	static void PDM_CIC_IntOutDma_L_Stop(void);
 100:.\Generated_Source\PSoC5/PDM_CIC.c **** 	static void PDM_CIC_CombD0UpdateDma_L_Init(void);
 101:.\Generated_Source\PSoC5/PDM_CIC.c **** 	static void PDM_CIC_CombD0UpdateDma_L_Start(void);
 102:.\Generated_Source\PSoC5/PDM_CIC.c **** 	static void PDM_CIC_CombD0UpdateDma_L_Stop(void);
 103:.\Generated_Source\PSoC5/PDM_CIC.c **** #endif
 104:.\Generated_Source\PSoC5/PDM_CIC.c **** 
 105:.\Generated_Source\PSoC5/PDM_CIC.c **** /*******************************************************************************
 106:.\Generated_Source\PSoC5/PDM_CIC.c **** * Function Name: PDM_CIC_Start
 107:.\Generated_Source\PSoC5/PDM_CIC.c **** ********************************************************************************
 108:.\Generated_Source\PSoC5/PDM_CIC.c **** *
 109:.\Generated_Source\PSoC5/PDM_CIC.c **** * Summary:
 110:.\Generated_Source\PSoC5/PDM_CIC.c **** *  Starts the PDM CIC Filter component
 111:.\Generated_Source\PSoC5/PDM_CIC.c **** *
 112:.\Generated_Source\PSoC5/PDM_CIC.c **** * Parameters:
 113:.\Generated_Source\PSoC5/PDM_CIC.c **** *  None.
 114:.\Generated_Source\PSoC5/PDM_CIC.c **** *
 115:.\Generated_Source\PSoC5/PDM_CIC.c **** * Return:
 116:.\Generated_Source\PSoC5/PDM_CIC.c **** *  None.
 117:.\Generated_Source\PSoC5/PDM_CIC.c **** *
 118:.\Generated_Source\PSoC5/PDM_CIC.c **** * Global Variables:
 119:.\Generated_Source\PSoC5/PDM_CIC.c **** *  PDM_CIC_initVar - is used to indicate initial configuration
 120:.\Generated_Source\PSoC5/PDM_CIC.c **** *  of this component.  The variable is initialized to zero and set to 1
 121:.\Generated_Source\PSoC5/PDM_CIC.c **** *  the first time PDM_CIC_Start() is called. This allows for component
 122:.\Generated_Source\PSoC5/PDM_CIC.c **** *  initialization without re-initialization in all subsequent calls
 123:.\Generated_Source\PSoC5/PDM_CIC.c **** *  to the PDM_CIC_Start() routine.
ARM GAS  C:\DOCUME~1\ADMINI~1\LOCALS~1\Temp\ccvcEeBl.s 			page 4


 124:.\Generated_Source\PSoC5/PDM_CIC.c **** *
 125:.\Generated_Source\PSoC5/PDM_CIC.c **** *
 126:.\Generated_Source\PSoC5/PDM_CIC.c **** *******************************************************************************/
 127:.\Generated_Source\PSoC5/PDM_CIC.c **** void PDM_CIC_Start(void)
 128:.\Generated_Source\PSoC5/PDM_CIC.c **** {
  45              		.loc 1 128 0
  46              		.cfi_startproc
  47              		@ args = 0, pretend = 0, frame = 0
  48              		@ frame_needed = 1, uses_anonymous_args = 0
  49 0000 80B5     		push	{r7, lr}
  50              	.LCFI0:
  51              		.cfi_def_cfa_offset 8
  52 0002 00AF     		add	r7, sp, #0
  53              		.cfi_offset 14, -4
  54              		.cfi_offset 7, -8
  55              	.LCFI1:
  56              		.cfi_def_cfa_register 7
 129:.\Generated_Source\PSoC5/PDM_CIC.c ****     if(0u == PDM_CIC_initVar)
  57              		.loc 1 129 0
  58 0004 40F20003 		movw	r3, #:lower16:PDM_CIC_initVar
  59 0008 C0F20003 		movt	r3, #:upper16:PDM_CIC_initVar
  60 000c 1B78     		ldrb	r3, [r3, #0]	@ zero_extendqisi2
  61 000e 002B     		cmp	r3, #0
  62 0010 0ED1     		bne	.L2
 130:.\Generated_Source\PSoC5/PDM_CIC.c ****     {
 131:.\Generated_Source\PSoC5/PDM_CIC.c ****         /* Initialize DMA's only the first time */
 132:.\Generated_Source\PSoC5/PDM_CIC.c **** 		
 133:.\Generated_Source\PSoC5/PDM_CIC.c **** 		#if(PDM_CIC_RIGHT_CHANNEL_ENABLED)
 134:.\Generated_Source\PSoC5/PDM_CIC.c **** 	        PDM_CIC_IntOutDma_R_Init();
  63              		.loc 1 134 0
  64 0012 FFF7FEFF 		bl	PDM_CIC_IntOutDma_R_Init
 135:.\Generated_Source\PSoC5/PDM_CIC.c **** 			PDM_CIC_CombD0UpdateDma_R_Init();	
  65              		.loc 1 135 0
  66 0016 FFF7FEFF 		bl	PDM_CIC_CombD0UpdateDma_R_Init
 136:.\Generated_Source\PSoC5/PDM_CIC.c **** 		#endif
 137:.\Generated_Source\PSoC5/PDM_CIC.c **** 		
 138:.\Generated_Source\PSoC5/PDM_CIC.c **** 		#if(PDM_CIC_LEFT_CHANNEL_ENABLED)
 139:.\Generated_Source\PSoC5/PDM_CIC.c **** 	        PDM_CIC_IntOutDma_L_Init();
  67              		.loc 1 139 0
  68 001a FFF7FEFF 		bl	PDM_CIC_IntOutDma_L_Init
 140:.\Generated_Source\PSoC5/PDM_CIC.c **** 			PDM_CIC_CombD0UpdateDma_L_Init();
  69              		.loc 1 140 0
  70 001e FFF7FEFF 		bl	PDM_CIC_CombD0UpdateDma_L_Init
 141:.\Generated_Source\PSoC5/PDM_CIC.c **** 		#endif		
 142:.\Generated_Source\PSoC5/PDM_CIC.c **** 
 143:.\Generated_Source\PSoC5/PDM_CIC.c ****         /* Set init flag */
 144:.\Generated_Source\PSoC5/PDM_CIC.c ****         PDM_CIC_initVar = 1u;
  71              		.loc 1 144 0
  72 0022 40F20003 		movw	r3, #:lower16:PDM_CIC_initVar
  73 0026 C0F20003 		movt	r3, #:upper16:PDM_CIC_initVar
  74 002a 4FF00102 		mov	r2, #1
  75 002e 1A70     		strb	r2, [r3, #0]
  76              	.L2:
 145:.\Generated_Source\PSoC5/PDM_CIC.c ****     }
 146:.\Generated_Source\PSoC5/PDM_CIC.c **** 	
 147:.\Generated_Source\PSoC5/PDM_CIC.c **** 	PDM_CIC_Int_Ctrl_Reg_Control = PDM_CIC_Int_Ctrl_Reg_Control & (~PDM_CIC_INT_ENABLE_MASK);
  77              		.loc 1 147 0
ARM GAS  C:\DOCUME~1\ADMINI~1\LOCALS~1\Temp\ccvcEeBl.s 			page 5


  78 0030 46F27E43 		movw	r3, #:lower16:1073767550
  79 0034 C4F20003 		movt	r3, #:upper16:1073767550
  80 0038 46F27E42 		movw	r2, #:lower16:1073767550
  81 003c C4F20002 		movt	r2, #:upper16:1073767550
  82 0040 1278     		ldrb	r2, [r2, #0]
  83 0042 D2B2     		uxtb	r2, r2
  84 0044 02F0FE02 		and	r2, r2, #254
  85 0048 1A70     		strb	r2, [r3, #0]
 148:.\Generated_Source\PSoC5/PDM_CIC.c **** 	
 149:.\Generated_Source\PSoC5/PDM_CIC.c **** 	#if(PDM_CIC_COMB_CTRL_AVAIL)
 150:.\Generated_Source\PSoC5/PDM_CIC.c **** 		PDM_CIC_Comb_Ctrl_Reg_Control = PDM_CIC_Comb_Ctrl_Reg_Control & (~PDM_CIC_COMB_ENABLE_MASK);
 151:.\Generated_Source\PSoC5/PDM_CIC.c **** 	#endif /* (PDM_CIC_COMB_CTRL_AVAIL) */
 152:.\Generated_Source\PSoC5/PDM_CIC.c **** 
 153:.\Generated_Source\PSoC5/PDM_CIC.c **** 	/* Initialize the comb and integrator components */
 154:.\Generated_Source\PSoC5/PDM_CIC.c **** 	PDM_CIC_Comb_Init();
  86              		.loc 1 154 0
  87 004a FFF7FEFF 		bl	PDM_CIC_Comb_Init
 155:.\Generated_Source\PSoC5/PDM_CIC.c **** 	PDM_CIC_Integrator_Init();	
  88              		.loc 1 155 0
  89 004e FFF7FEFF 		bl	PDM_CIC_Integrator_Init
 156:.\Generated_Source\PSoC5/PDM_CIC.c **** 	
 157:.\Generated_Source\PSoC5/PDM_CIC.c **** 	#if(PDM_CIC_LEFT_CHANNEL_ENABLED)
 158:.\Generated_Source\PSoC5/PDM_CIC.c **** 		/*  Start the DMA channels */
 159:.\Generated_Source\PSoC5/PDM_CIC.c **** 		PDM_CIC_IntOutDma_L_Start();
  90              		.loc 1 159 0
  91 0052 FFF7FEFF 		bl	PDM_CIC_IntOutDma_L_Start
 160:.\Generated_Source\PSoC5/PDM_CIC.c **** 		PDM_CIC_CombD0UpdateDma_L_Start();
  92              		.loc 1 160 0
  93 0056 FFF7FEFF 		bl	PDM_CIC_CombD0UpdateDma_L_Start
 161:.\Generated_Source\PSoC5/PDM_CIC.c **** 	#endif
 162:.\Generated_Source\PSoC5/PDM_CIC.c **** 	
 163:.\Generated_Source\PSoC5/PDM_CIC.c **** 	#if(PDM_CIC_RIGHT_CHANNEL_ENABLED)
 164:.\Generated_Source\PSoC5/PDM_CIC.c **** 		/*  Start the DMA channels */
 165:.\Generated_Source\PSoC5/PDM_CIC.c **** 		PDM_CIC_IntOutDma_R_Start();
  94              		.loc 1 165 0
  95 005a FFF7FEFF 		bl	PDM_CIC_IntOutDma_R_Start
 166:.\Generated_Source\PSoC5/PDM_CIC.c **** 		PDM_CIC_CombD0UpdateDma_R_Start();	
  96              		.loc 1 166 0
  97 005e FFF7FEFF 		bl	PDM_CIC_CombD0UpdateDma_R_Start
 167:.\Generated_Source\PSoC5/PDM_CIC.c **** 	#endif
 168:.\Generated_Source\PSoC5/PDM_CIC.c **** 	
 169:.\Generated_Source\PSoC5/PDM_CIC.c **** 	/* Enable interrupt status generation if required */
 170:.\Generated_Source\PSoC5/PDM_CIC.c **** 	#if (PDM_CIC_INTERRUPT_ENABLED)
 171:.\Generated_Source\PSoC5/PDM_CIC.c **** 		PDM_CIC_ReadInterruptStatus(); /* Clear the status register before enabling interrupt */
  98              		.loc 1 171 0
  99 0062 FFF7FEFF 		bl	PDM_CIC_ReadInterruptStatus
 172:.\Generated_Source\PSoC5/PDM_CIC.c **** 		PDM_CIC_EnableInterruptGeneration();
 100              		.loc 1 172 0
 101 0066 FFF7FEFF 		bl	PDM_CIC_EnableInterruptGeneration
 173:.\Generated_Source\PSoC5/PDM_CIC.c **** 	#endif
 174:.\Generated_Source\PSoC5/PDM_CIC.c **** 	
 175:.\Generated_Source\PSoC5/PDM_CIC.c **** 	#if(PDM_CIC_COMB_CTRL_AVAIL)
 176:.\Generated_Source\PSoC5/PDM_CIC.c **** 		PDM_CIC_Comb_Ctrl_Reg_Control = PDM_CIC_Comb_Ctrl_Reg_Control | PDM_CIC_COMB_ENABLE_MASK;
 177:.\Generated_Source\PSoC5/PDM_CIC.c **** 	#endif /* (PDM_CIC_COMB_CTRL_AVAIL) */
 178:.\Generated_Source\PSoC5/PDM_CIC.c **** 	
 179:.\Generated_Source\PSoC5/PDM_CIC.c **** 	PDM_CIC_Int_Ctrl_Reg_Control = PDM_CIC_Int_Ctrl_Reg_Control | PDM_CIC_INT_ENABLE_MASK;
 102              		.loc 1 179 0
ARM GAS  C:\DOCUME~1\ADMINI~1\LOCALS~1\Temp\ccvcEeBl.s 			page 6


 103 006a 46F27E43 		movw	r3, #:lower16:1073767550
 104 006e C4F20003 		movt	r3, #:upper16:1073767550
 105 0072 46F27E42 		movw	r2, #:lower16:1073767550
 106 0076 C4F20002 		movt	r2, #:upper16:1073767550
 107 007a 1278     		ldrb	r2, [r2, #0]
 108 007c D2B2     		uxtb	r2, r2
 109 007e 42F00102 		orr	r2, r2, #1
 110 0082 D2B2     		uxtb	r2, r2
 111 0084 1A70     		strb	r2, [r3, #0]
 180:.\Generated_Source\PSoC5/PDM_CIC.c **** 
 181:.\Generated_Source\PSoC5/PDM_CIC.c **** }
 112              		.loc 1 181 0
 113 0086 80BD     		pop	{r7, pc}
 114              		.cfi_endproc
 115              	.LFE0:
 116              		.size	PDM_CIC_Start, .-PDM_CIC_Start
 117              		.section	.text.PDM_CIC_Stop,"ax",%progbits
 118              		.align	2
 119              		.global	PDM_CIC_Stop
 120              		.thumb
 121              		.thumb_func
 122              		.type	PDM_CIC_Stop, %function
 123              	PDM_CIC_Stop:
 124              	.LFB1:
 182:.\Generated_Source\PSoC5/PDM_CIC.c **** 
 183:.\Generated_Source\PSoC5/PDM_CIC.c **** /*******************************************************************************
 184:.\Generated_Source\PSoC5/PDM_CIC.c **** * Function Name: PDM_CIC_Stop
 185:.\Generated_Source\PSoC5/PDM_CIC.c **** ********************************************************************************
 186:.\Generated_Source\PSoC5/PDM_CIC.c **** *
 187:.\Generated_Source\PSoC5/PDM_CIC.c **** * Summary:
 188:.\Generated_Source\PSoC5/PDM_CIC.c **** *  Stops the PDM CIC Filter component
 189:.\Generated_Source\PSoC5/PDM_CIC.c **** *
 190:.\Generated_Source\PSoC5/PDM_CIC.c **** * Parameters:
 191:.\Generated_Source\PSoC5/PDM_CIC.c **** *  None.
 192:.\Generated_Source\PSoC5/PDM_CIC.c **** *
 193:.\Generated_Source\PSoC5/PDM_CIC.c **** * Return:
 194:.\Generated_Source\PSoC5/PDM_CIC.c **** *  None.
 195:.\Generated_Source\PSoC5/PDM_CIC.c **** *
 196:.\Generated_Source\PSoC5/PDM_CIC.c **** * Global Variables:
 197:.\Generated_Source\PSoC5/PDM_CIC.c **** *  None.
 198:.\Generated_Source\PSoC5/PDM_CIC.c **** *
 199:.\Generated_Source\PSoC5/PDM_CIC.c **** *
 200:.\Generated_Source\PSoC5/PDM_CIC.c **** *******************************************************************************/
 201:.\Generated_Source\PSoC5/PDM_CIC.c **** void PDM_CIC_Stop(void)
 202:.\Generated_Source\PSoC5/PDM_CIC.c **** {	
 125              		.loc 1 202 0
 126              		.cfi_startproc
 127              		@ args = 0, pretend = 0, frame = 0
 128              		@ frame_needed = 1, uses_anonymous_args = 0
 129 0000 80B5     		push	{r7, lr}
 130              	.LCFI2:
 131              		.cfi_def_cfa_offset 8
 132 0002 00AF     		add	r7, sp, #0
 133              		.cfi_offset 14, -4
 134              		.cfi_offset 7, -8
 135              	.LCFI3:
 136              		.cfi_def_cfa_register 7
ARM GAS  C:\DOCUME~1\ADMINI~1\LOCALS~1\Temp\ccvcEeBl.s 			page 7


 203:.\Generated_Source\PSoC5/PDM_CIC.c **** 	#if(PDM_CIC_LEFT_CHANNEL_ENABLED)
 204:.\Generated_Source\PSoC5/PDM_CIC.c **** 		/*  Stop the DMA channels */
 205:.\Generated_Source\PSoC5/PDM_CIC.c **** 		PDM_CIC_IntOutDma_L_Stop();
 137              		.loc 1 205 0
 138 0004 FFF7FEFF 		bl	PDM_CIC_IntOutDma_L_Stop
 206:.\Generated_Source\PSoC5/PDM_CIC.c **** 		PDM_CIC_CombD0UpdateDma_L_Stop();
 139              		.loc 1 206 0
 140 0008 FFF7FEFF 		bl	PDM_CIC_CombD0UpdateDma_L_Stop
 207:.\Generated_Source\PSoC5/PDM_CIC.c **** 	#endif
 208:.\Generated_Source\PSoC5/PDM_CIC.c **** 	
 209:.\Generated_Source\PSoC5/PDM_CIC.c **** 	#if(PDM_CIC_RIGHT_CHANNEL_ENABLED)
 210:.\Generated_Source\PSoC5/PDM_CIC.c **** 		/*  Stop the DMA channels */
 211:.\Generated_Source\PSoC5/PDM_CIC.c **** 		PDM_CIC_IntOutDma_R_Stop();
 141              		.loc 1 211 0
 142 000c FFF7FEFF 		bl	PDM_CIC_IntOutDma_R_Stop
 212:.\Generated_Source\PSoC5/PDM_CIC.c **** 		PDM_CIC_CombD0UpdateDma_R_Stop();	
 143              		.loc 1 212 0
 144 0010 FFF7FEFF 		bl	PDM_CIC_CombD0UpdateDma_R_Stop
 213:.\Generated_Source\PSoC5/PDM_CIC.c **** 	#endif	
 214:.\Generated_Source\PSoC5/PDM_CIC.c **** 	
 215:.\Generated_Source\PSoC5/PDM_CIC.c **** 	#if(PDM_CIC_COMB_CTRL_AVAIL)
 216:.\Generated_Source\PSoC5/PDM_CIC.c **** 		PDM_CIC_Comb_Ctrl_Reg_Control = PDM_CIC_Comb_Ctrl_Reg_Control & (~PDM_CIC_COMB_ENABLE_MASK);
 217:.\Generated_Source\PSoC5/PDM_CIC.c **** 	#endif /* (PDM_CIC_COMB_CTRL_AVAIL) */	
 218:.\Generated_Source\PSoC5/PDM_CIC.c **** 	
 219:.\Generated_Source\PSoC5/PDM_CIC.c **** 	PDM_CIC_Int_Ctrl_Reg_Control = PDM_CIC_Int_Ctrl_Reg_Control & (~PDM_CIC_INT_ENABLE_MASK);
 145              		.loc 1 219 0
 146 0014 46F27E43 		movw	r3, #:lower16:1073767550
 147 0018 C4F20003 		movt	r3, #:upper16:1073767550
 148 001c 46F27E42 		movw	r2, #:lower16:1073767550
 149 0020 C4F20002 		movt	r2, #:upper16:1073767550
 150 0024 1278     		ldrb	r2, [r2, #0]
 151 0026 D2B2     		uxtb	r2, r2
 152 0028 02F0FE02 		and	r2, r2, #254
 153 002c 1A70     		strb	r2, [r3, #0]
 220:.\Generated_Source\PSoC5/PDM_CIC.c **** 	
 221:.\Generated_Source\PSoC5/PDM_CIC.c **** 	/* Disable interrupt status generation if required */
 222:.\Generated_Source\PSoC5/PDM_CIC.c **** 	#if (PDM_CIC_INTERRUPT_ENABLED)
 223:.\Generated_Source\PSoC5/PDM_CIC.c **** 		PDM_CIC_DisableInterruptGeneration();
 154              		.loc 1 223 0
 155 002e FFF7FEFF 		bl	PDM_CIC_DisableInterruptGeneration
 224:.\Generated_Source\PSoC5/PDM_CIC.c **** 		PDM_CIC_ReadInterruptStatus(); /* Clear the status register after disabling interrupt */
 156              		.loc 1 224 0
 157 0032 FFF7FEFF 		bl	PDM_CIC_ReadInterruptStatus
 225:.\Generated_Source\PSoC5/PDM_CIC.c **** 	#endif
 226:.\Generated_Source\PSoC5/PDM_CIC.c **** }
 158              		.loc 1 226 0
 159 0036 80BD     		pop	{r7, pc}
 160              		.cfi_endproc
 161              	.LFE1:
 162              		.size	PDM_CIC_Stop, .-PDM_CIC_Stop
 163              		.section	.text.PDM_CIC_SaveConfig,"ax",%progbits
 164              		.align	2
 165              		.global	PDM_CIC_SaveConfig
 166              		.thumb
 167              		.thumb_func
 168              		.type	PDM_CIC_SaveConfig, %function
 169              	PDM_CIC_SaveConfig:
ARM GAS  C:\DOCUME~1\ADMINI~1\LOCALS~1\Temp\ccvcEeBl.s 			page 8


 170              	.LFB2:
 227:.\Generated_Source\PSoC5/PDM_CIC.c **** 
 228:.\Generated_Source\PSoC5/PDM_CIC.c **** /*******************************************************************************
 229:.\Generated_Source\PSoC5/PDM_CIC.c **** * Function Name: PDM_CIC_SaveConfig
 230:.\Generated_Source\PSoC5/PDM_CIC.c **** ********************************************************************************
 231:.\Generated_Source\PSoC5/PDM_CIC.c **** *
 232:.\Generated_Source\PSoC5/PDM_CIC.c **** * Summary:
 233:.\Generated_Source\PSoC5/PDM_CIC.c **** *  Saves PDM CIC filter configuration.
 234:.\Generated_Source\PSoC5/PDM_CIC.c **** *
 235:.\Generated_Source\PSoC5/PDM_CIC.c **** * Parameters:
 236:.\Generated_Source\PSoC5/PDM_CIC.c **** *  None.
 237:.\Generated_Source\PSoC5/PDM_CIC.c **** *
 238:.\Generated_Source\PSoC5/PDM_CIC.c **** * Return:
 239:.\Generated_Source\PSoC5/PDM_CIC.c **** *  None.
 240:.\Generated_Source\PSoC5/PDM_CIC.c **** *
 241:.\Generated_Source\PSoC5/PDM_CIC.c **** * Global Variables:
 242:.\Generated_Source\PSoC5/PDM_CIC.c **** *  PDM_CIC_backup - modified when non-retention registers are saved.
 243:.\Generated_Source\PSoC5/PDM_CIC.c **** *
 244:.\Generated_Source\PSoC5/PDM_CIC.c **** * Reentrant:
 245:.\Generated_Source\PSoC5/PDM_CIC.c **** *  No.
 246:.\Generated_Source\PSoC5/PDM_CIC.c **** *
 247:.\Generated_Source\PSoC5/PDM_CIC.c **** *******************************************************************************/
 248:.\Generated_Source\PSoC5/PDM_CIC.c **** void PDM_CIC_SaveConfig(void)
 249:.\Generated_Source\PSoC5/PDM_CIC.c **** {
 171              		.loc 1 249 0
 172              		.cfi_startproc
 173              		@ args = 0, pretend = 0, frame = 0
 174              		@ frame_needed = 1, uses_anonymous_args = 0
 175              		@ link register save eliminated.
 176 0000 80B4     		push	{r7}
 177              	.LCFI4:
 178              		.cfi_def_cfa_offset 4
 179 0002 00AF     		add	r7, sp, #0
 180              		.cfi_offset 7, -4
 181              	.LCFI5:
 182              		.cfi_def_cfa_register 7
 250:.\Generated_Source\PSoC5/PDM_CIC.c **** 	PDM_CIC_backup.Cnt7Period = PDM_CIC_CNT7_PERIOD_REG;
 183              		.loc 1 250 0
 184 0004 46F28753 		movw	r3, #:lower16:1073767815
 185 0008 C4F20003 		movt	r3, #:upper16:1073767815
 186 000c 1B78     		ldrb	r3, [r3, #0]
 187 000e DAB2     		uxtb	r2, r3
 188 0010 40F20003 		movw	r3, #:lower16:PDM_CIC_backup
 189 0014 C0F20003 		movt	r3, #:upper16:PDM_CIC_backup
 190 0018 5A70     		strb	r2, [r3, #1]
 251:.\Generated_Source\PSoC5/PDM_CIC.c **** }
 191              		.loc 1 251 0
 192 001a BD46     		mov	sp, r7
 193 001c 80BC     		pop	{r7}
 194 001e 7047     		bx	lr
 195              		.cfi_endproc
 196              	.LFE2:
 197              		.size	PDM_CIC_SaveConfig, .-PDM_CIC_SaveConfig
 198              		.section	.text.PDM_CIC_RestoreConfig,"ax",%progbits
 199              		.align	2
 200              		.global	PDM_CIC_RestoreConfig
 201              		.thumb
ARM GAS  C:\DOCUME~1\ADMINI~1\LOCALS~1\Temp\ccvcEeBl.s 			page 9


 202              		.thumb_func
 203              		.type	PDM_CIC_RestoreConfig, %function
 204              	PDM_CIC_RestoreConfig:
 205              	.LFB3:
 252:.\Generated_Source\PSoC5/PDM_CIC.c **** 
 253:.\Generated_Source\PSoC5/PDM_CIC.c **** /*******************************************************************************
 254:.\Generated_Source\PSoC5/PDM_CIC.c **** * Function Name: PDM_CIC_RestoreConfig
 255:.\Generated_Source\PSoC5/PDM_CIC.c **** ********************************************************************************
 256:.\Generated_Source\PSoC5/PDM_CIC.c **** *
 257:.\Generated_Source\PSoC5/PDM_CIC.c **** * Summary:
 258:.\Generated_Source\PSoC5/PDM_CIC.c **** *  Restores PDM CIC filter configuration.
 259:.\Generated_Source\PSoC5/PDM_CIC.c **** *
 260:.\Generated_Source\PSoC5/PDM_CIC.c **** * Parameters:
 261:.\Generated_Source\PSoC5/PDM_CIC.c **** *  None.
 262:.\Generated_Source\PSoC5/PDM_CIC.c **** *
 263:.\Generated_Source\PSoC5/PDM_CIC.c **** * Return:
 264:.\Generated_Source\PSoC5/PDM_CIC.c **** *  None.
 265:.\Generated_Source\PSoC5/PDM_CIC.c **** *
 266:.\Generated_Source\PSoC5/PDM_CIC.c **** * Global Variables:
 267:.\Generated_Source\PSoC5/PDM_CIC.c **** *  PDM_CIC_backup - used when non-retention registers are restored.
 268:.\Generated_Source\PSoC5/PDM_CIC.c **** *
 269:.\Generated_Source\PSoC5/PDM_CIC.c **** * Reentrant:
 270:.\Generated_Source\PSoC5/PDM_CIC.c **** *  No.
 271:.\Generated_Source\PSoC5/PDM_CIC.c **** *
 272:.\Generated_Source\PSoC5/PDM_CIC.c **** *******************************************************************************/
 273:.\Generated_Source\PSoC5/PDM_CIC.c **** void PDM_CIC_RestoreConfig(void)
 274:.\Generated_Source\PSoC5/PDM_CIC.c **** {
 206              		.loc 1 274 0
 207              		.cfi_startproc
 208              		@ args = 0, pretend = 0, frame = 0
 209              		@ frame_needed = 1, uses_anonymous_args = 0
 210              		@ link register save eliminated.
 211 0000 80B4     		push	{r7}
 212              	.LCFI6:
 213              		.cfi_def_cfa_offset 4
 214 0002 00AF     		add	r7, sp, #0
 215              		.cfi_offset 7, -4
 216              	.LCFI7:
 217              		.cfi_def_cfa_register 7
 275:.\Generated_Source\PSoC5/PDM_CIC.c **** 	PDM_CIC_CNT7_PERIOD_REG = PDM_CIC_backup.Cnt7Period;
 218              		.loc 1 275 0
 219 0004 46F28753 		movw	r3, #:lower16:1073767815
 220 0008 C4F20003 		movt	r3, #:upper16:1073767815
 221 000c 40F20002 		movw	r2, #:lower16:PDM_CIC_backup
 222 0010 C0F20002 		movt	r2, #:upper16:PDM_CIC_backup
 223 0014 5278     		ldrb	r2, [r2, #1]	@ zero_extendqisi2
 224 0016 1A70     		strb	r2, [r3, #0]
 276:.\Generated_Source\PSoC5/PDM_CIC.c **** }
 225              		.loc 1 276 0
 226 0018 BD46     		mov	sp, r7
 227 001a 80BC     		pop	{r7}
 228 001c 7047     		bx	lr
 229              		.cfi_endproc
 230              	.LFE3:
 231              		.size	PDM_CIC_RestoreConfig, .-PDM_CIC_RestoreConfig
 232 001e 00BF     		.section	.text.PDM_CIC_Sleep,"ax",%progbits
 233              		.align	2
ARM GAS  C:\DOCUME~1\ADMINI~1\LOCALS~1\Temp\ccvcEeBl.s 			page 10


 234              		.global	PDM_CIC_Sleep
 235              		.thumb
 236              		.thumb_func
 237              		.type	PDM_CIC_Sleep, %function
 238              	PDM_CIC_Sleep:
 239              	.LFB4:
 277:.\Generated_Source\PSoC5/PDM_CIC.c **** 
 278:.\Generated_Source\PSoC5/PDM_CIC.c **** /*******************************************************************************
 279:.\Generated_Source\PSoC5/PDM_CIC.c **** * Function Name: PDM_CIC_Sleep
 280:.\Generated_Source\PSoC5/PDM_CIC.c **** ********************************************************************************
 281:.\Generated_Source\PSoC5/PDM_CIC.c **** *
 282:.\Generated_Source\PSoC5/PDM_CIC.c **** * Summary:
 283:.\Generated_Source\PSoC5/PDM_CIC.c **** *  Prepares PDM CIC component to sleep.
 284:.\Generated_Source\PSoC5/PDM_CIC.c **** *
 285:.\Generated_Source\PSoC5/PDM_CIC.c **** * Parameters:
 286:.\Generated_Source\PSoC5/PDM_CIC.c **** *  None.
 287:.\Generated_Source\PSoC5/PDM_CIC.c **** *
 288:.\Generated_Source\PSoC5/PDM_CIC.c **** * Return:
 289:.\Generated_Source\PSoC5/PDM_CIC.c **** *  None.
 290:.\Generated_Source\PSoC5/PDM_CIC.c **** *
 291:.\Generated_Source\PSoC5/PDM_CIC.c **** * Global Variables:
 292:.\Generated_Source\PSoC5/PDM_CIC.c **** *  PDM_CIC_backup - modified when non-retention registers are saved.
 293:.\Generated_Source\PSoC5/PDM_CIC.c **** *
 294:.\Generated_Source\PSoC5/PDM_CIC.c **** * Reentrant:
 295:.\Generated_Source\PSoC5/PDM_CIC.c **** *  No.
 296:.\Generated_Source\PSoC5/PDM_CIC.c **** *
 297:.\Generated_Source\PSoC5/PDM_CIC.c **** *******************************************************************************/
 298:.\Generated_Source\PSoC5/PDM_CIC.c **** void PDM_CIC_Sleep(void)
 299:.\Generated_Source\PSoC5/PDM_CIC.c **** {
 240              		.loc 1 299 0
 241              		.cfi_startproc
 242              		@ args = 0, pretend = 0, frame = 0
 243              		@ frame_needed = 1, uses_anonymous_args = 0
 244 0000 80B5     		push	{r7, lr}
 245              	.LCFI8:
 246              		.cfi_def_cfa_offset 8
 247 0002 00AF     		add	r7, sp, #0
 248              		.cfi_offset 14, -4
 249              		.cfi_offset 7, -8
 250              	.LCFI9:
 251              		.cfi_def_cfa_register 7
 300:.\Generated_Source\PSoC5/PDM_CIC.c ****     /* Get component state */
 301:.\Generated_Source\PSoC5/PDM_CIC.c ****     PDM_CIC_backup.enableState = ((uint8) PDM_CIC_IS_ENABLE);
 252              		.loc 1 301 0
 253 0004 46F27E43 		movw	r3, #:lower16:1073767550
 254 0008 C4F20003 		movt	r3, #:upper16:1073767550
 255 000c 1B78     		ldrb	r3, [r3, #0]
 256 000e DBB2     		uxtb	r3, r3
 257 0010 1A46     		mov	r2, r3
 258 0012 02F00102 		and	r2, r2, #1
 259 0016 40F20003 		movw	r3, #:lower16:PDM_CIC_backup
 260 001a C0F20003 		movt	r3, #:upper16:PDM_CIC_backup
 261 001e 1A70     		strb	r2, [r3, #0]
 302:.\Generated_Source\PSoC5/PDM_CIC.c **** 
 303:.\Generated_Source\PSoC5/PDM_CIC.c ****     /* Save registers configuration */
 304:.\Generated_Source\PSoC5/PDM_CIC.c ****     PDM_CIC_SaveConfig();
 262              		.loc 1 304 0
ARM GAS  C:\DOCUME~1\ADMINI~1\LOCALS~1\Temp\ccvcEeBl.s 			page 11


 263 0020 FFF7FEFF 		bl	PDM_CIC_SaveConfig
 305:.\Generated_Source\PSoC5/PDM_CIC.c **** 
 306:.\Generated_Source\PSoC5/PDM_CIC.c ****     /* Stop component */
 307:.\Generated_Source\PSoC5/PDM_CIC.c ****     PDM_CIC_Stop();
 264              		.loc 1 307 0
 265 0024 FFF7FEFF 		bl	PDM_CIC_Stop
 308:.\Generated_Source\PSoC5/PDM_CIC.c **** }
 266              		.loc 1 308 0
 267 0028 80BD     		pop	{r7, pc}
 268              		.cfi_endproc
 269              	.LFE4:
 270              		.size	PDM_CIC_Sleep, .-PDM_CIC_Sleep
 271 002a 00BF     		.section	.text.PDM_CIC_Wakeup,"ax",%progbits
 272              		.align	2
 273              		.global	PDM_CIC_Wakeup
 274              		.thumb
 275              		.thumb_func
 276              		.type	PDM_CIC_Wakeup, %function
 277              	PDM_CIC_Wakeup:
 278              	.LFB5:
 309:.\Generated_Source\PSoC5/PDM_CIC.c **** 
 310:.\Generated_Source\PSoC5/PDM_CIC.c **** /*******************************************************************************
 311:.\Generated_Source\PSoC5/PDM_CIC.c **** * Function Name: PDM_CIC_Wakeup
 312:.\Generated_Source\PSoC5/PDM_CIC.c **** ********************************************************************************
 313:.\Generated_Source\PSoC5/PDM_CIC.c **** *
 314:.\Generated_Source\PSoC5/PDM_CIC.c **** * Summary:
 315:.\Generated_Source\PSoC5/PDM_CIC.c **** *  Prepares PDM CIC component for wakeup.
 316:.\Generated_Source\PSoC5/PDM_CIC.c **** *
 317:.\Generated_Source\PSoC5/PDM_CIC.c **** * Parameters:
 318:.\Generated_Source\PSoC5/PDM_CIC.c **** *  None.
 319:.\Generated_Source\PSoC5/PDM_CIC.c **** *
 320:.\Generated_Source\PSoC5/PDM_CIC.c **** * Return:
 321:.\Generated_Source\PSoC5/PDM_CIC.c **** *  None.
 322:.\Generated_Source\PSoC5/PDM_CIC.c **** *
 323:.\Generated_Source\PSoC5/PDM_CIC.c **** * Global Variables:
 324:.\Generated_Source\PSoC5/PDM_CIC.c **** *  PDM_CIC_backup - used when non-retention registers are restored.
 325:.\Generated_Source\PSoC5/PDM_CIC.c **** *
 326:.\Generated_Source\PSoC5/PDM_CIC.c **** * Reentrant:
 327:.\Generated_Source\PSoC5/PDM_CIC.c **** *  No.
 328:.\Generated_Source\PSoC5/PDM_CIC.c **** *
 329:.\Generated_Source\PSoC5/PDM_CIC.c **** *******************************************************************************/
 330:.\Generated_Source\PSoC5/PDM_CIC.c **** /* Restores the component after low power mode exit */
 331:.\Generated_Source\PSoC5/PDM_CIC.c **** void PDM_CIC_Wakeup(void)
 332:.\Generated_Source\PSoC5/PDM_CIC.c **** {
 279              		.loc 1 332 0
 280              		.cfi_startproc
 281              		@ args = 0, pretend = 0, frame = 0
 282              		@ frame_needed = 1, uses_anonymous_args = 0
 283 0000 80B5     		push	{r7, lr}
 284              	.LCFI10:
 285              		.cfi_def_cfa_offset 8
 286 0002 00AF     		add	r7, sp, #0
 287              		.cfi_offset 14, -4
 288              		.cfi_offset 7, -8
 289              	.LCFI11:
 290              		.cfi_def_cfa_register 7
 333:.\Generated_Source\PSoC5/PDM_CIC.c ****     /* Restore registers values */
ARM GAS  C:\DOCUME~1\ADMINI~1\LOCALS~1\Temp\ccvcEeBl.s 			page 12


 334:.\Generated_Source\PSoC5/PDM_CIC.c ****     PDM_CIC_RestoreConfig();
 291              		.loc 1 334 0
 292 0004 FFF7FEFF 		bl	PDM_CIC_RestoreConfig
 335:.\Generated_Source\PSoC5/PDM_CIC.c **** 
 336:.\Generated_Source\PSoC5/PDM_CIC.c ****     if(0u != PDM_CIC_backup.enableState)
 293              		.loc 1 336 0
 294 0008 40F20003 		movw	r3, #:lower16:PDM_CIC_backup
 295 000c C0F20003 		movt	r3, #:upper16:PDM_CIC_backup
 296 0010 1B78     		ldrb	r3, [r3, #0]	@ zero_extendqisi2
 297 0012 002B     		cmp	r3, #0
 298 0014 01D0     		beq	.L14
 337:.\Generated_Source\PSoC5/PDM_CIC.c ****     {
 338:.\Generated_Source\PSoC5/PDM_CIC.c ****     	/* Start component */
 339:.\Generated_Source\PSoC5/PDM_CIC.c ****     	PDM_CIC_Start();
 299              		.loc 1 339 0
 300 0016 FFF7FEFF 		bl	PDM_CIC_Start
 301              	.L14:
 340:.\Generated_Source\PSoC5/PDM_CIC.c ****     }
 341:.\Generated_Source\PSoC5/PDM_CIC.c **** }
 302              		.loc 1 341 0
 303 001a 80BD     		pop	{r7, pc}
 304              		.cfi_endproc
 305              	.LFE5:
 306              		.size	PDM_CIC_Wakeup, .-PDM_CIC_Wakeup
 307              		.section	.text.PDM_CIC_ReadInterruptStatus,"ax",%progbits
 308              		.align	2
 309              		.global	PDM_CIC_ReadInterruptStatus
 310              		.thumb
 311              		.thumb_func
 312              		.type	PDM_CIC_ReadInterruptStatus, %function
 313              	PDM_CIC_ReadInterruptStatus:
 314              	.LFB6:
 342:.\Generated_Source\PSoC5/PDM_CIC.c **** 
 343:.\Generated_Source\PSoC5/PDM_CIC.c **** /* Conditional compilation of Interrupt related API's */
 344:.\Generated_Source\PSoC5/PDM_CIC.c **** #if (PDM_CIC_INTERRUPT_ENABLED)
 345:.\Generated_Source\PSoC5/PDM_CIC.c **** 
 346:.\Generated_Source\PSoC5/PDM_CIC.c **** 	/*******************************************************************************
 347:.\Generated_Source\PSoC5/PDM_CIC.c **** 	* Function Name: PDM_CIC_ReadInterruptStatus
 348:.\Generated_Source\PSoC5/PDM_CIC.c **** 	********************************************************************************
 349:.\Generated_Source\PSoC5/PDM_CIC.c **** 	*
 350:.\Generated_Source\PSoC5/PDM_CIC.c **** 	* Summary:
 351:.\Generated_Source\PSoC5/PDM_CIC.c **** 	*  Returns the current value of the PDM CIC status register
 352:.\Generated_Source\PSoC5/PDM_CIC.c **** 	*
 353:.\Generated_Source\PSoC5/PDM_CIC.c **** 	* Parameters:
 354:.\Generated_Source\PSoC5/PDM_CIC.c **** 	*  None.
 355:.\Generated_Source\PSoC5/PDM_CIC.c **** 	*
 356:.\Generated_Source\PSoC5/PDM_CIC.c **** 	* Return:
 357:.\Generated_Source\PSoC5/PDM_CIC.c **** 	*  uint8 - Status register value
 358:.\Generated_Source\PSoC5/PDM_CIC.c **** 	*
 359:.\Generated_Source\PSoC5/PDM_CIC.c **** 	* Global Variables:
 360:.\Generated_Source\PSoC5/PDM_CIC.c **** 	*  None.
 361:.\Generated_Source\PSoC5/PDM_CIC.c **** 	*
 362:.\Generated_Source\PSoC5/PDM_CIC.c **** 	*
 363:.\Generated_Source\PSoC5/PDM_CIC.c **** 	*******************************************************************************/
 364:.\Generated_Source\PSoC5/PDM_CIC.c **** 	uint8 PDM_CIC_ReadInterruptStatus()
 365:.\Generated_Source\PSoC5/PDM_CIC.c **** 	{
 315              		.loc 1 365 0
ARM GAS  C:\DOCUME~1\ADMINI~1\LOCALS~1\Temp\ccvcEeBl.s 			page 13


 316              		.cfi_startproc
 317              		@ args = 0, pretend = 0, frame = 0
 318              		@ frame_needed = 1, uses_anonymous_args = 0
 319 0000 80B5     		push	{r7, lr}
 320              	.LCFI12:
 321              		.cfi_def_cfa_offset 8
 322 0002 00AF     		add	r7, sp, #0
 323              		.cfi_offset 14, -4
 324              		.cfi_offset 7, -8
 325              	.LCFI13:
 326              		.cfi_def_cfa_register 7
 366:.\Generated_Source\PSoC5/PDM_CIC.c **** 		return(PDM_CIC_Status_Reg_Read());
 327              		.loc 1 366 0
 328 0004 FFF7FEFF 		bl	PDM_CIC_Status_Reg_Read
 329 0008 0346     		mov	r3, r0
 367:.\Generated_Source\PSoC5/PDM_CIC.c **** 	}
 330              		.loc 1 367 0
 331 000a 1846     		mov	r0, r3
 332 000c 80BD     		pop	{r7, pc}
 333              		.cfi_endproc
 334              	.LFE6:
 335              		.size	PDM_CIC_ReadInterruptStatus, .-PDM_CIC_ReadInterruptStatus
 336 000e 00BF     		.section	.text.PDM_CIC_EnableInterruptGeneration,"ax",%progbits
 337              		.align	2
 338              		.global	PDM_CIC_EnableInterruptGeneration
 339              		.thumb
 340              		.thumb_func
 341              		.type	PDM_CIC_EnableInterruptGeneration, %function
 342              	PDM_CIC_EnableInterruptGeneration:
 343              	.LFB7:
 368:.\Generated_Source\PSoC5/PDM_CIC.c **** 
 369:.\Generated_Source\PSoC5/PDM_CIC.c **** 	/*******************************************************************************
 370:.\Generated_Source\PSoC5/PDM_CIC.c **** 	* Function Name: PDM_CIC_EnableInterruptGeneration
 371:.\Generated_Source\PSoC5/PDM_CIC.c **** 	********************************************************************************
 372:.\Generated_Source\PSoC5/PDM_CIC.c **** 	*
 373:.\Generated_Source\PSoC5/PDM_CIC.c **** 	* Summary:
 374:.\Generated_Source\PSoC5/PDM_CIC.c **** 	*  Enables interrupt signal generation by the status register
 375:.\Generated_Source\PSoC5/PDM_CIC.c **** 	*
 376:.\Generated_Source\PSoC5/PDM_CIC.c **** 	* Parameters:
 377:.\Generated_Source\PSoC5/PDM_CIC.c **** 	*  None.
 378:.\Generated_Source\PSoC5/PDM_CIC.c **** 	*
 379:.\Generated_Source\PSoC5/PDM_CIC.c **** 	* Return:
 380:.\Generated_Source\PSoC5/PDM_CIC.c **** 	*  None.
 381:.\Generated_Source\PSoC5/PDM_CIC.c **** 	*
 382:.\Generated_Source\PSoC5/PDM_CIC.c **** 	* Global Variables:
 383:.\Generated_Source\PSoC5/PDM_CIC.c **** 	*  None.
 384:.\Generated_Source\PSoC5/PDM_CIC.c **** 	*
 385:.\Generated_Source\PSoC5/PDM_CIC.c **** 	*
 386:.\Generated_Source\PSoC5/PDM_CIC.c **** 	*******************************************************************************/
 387:.\Generated_Source\PSoC5/PDM_CIC.c **** 	void  PDM_CIC_EnableInterruptGeneration()
 388:.\Generated_Source\PSoC5/PDM_CIC.c **** 	{
 344              		.loc 1 388 0
 345              		.cfi_startproc
 346              		@ args = 0, pretend = 0, frame = 0
 347              		@ frame_needed = 1, uses_anonymous_args = 0
 348 0000 80B5     		push	{r7, lr}
 349              	.LCFI14:
ARM GAS  C:\DOCUME~1\ADMINI~1\LOCALS~1\Temp\ccvcEeBl.s 			page 14


 350              		.cfi_def_cfa_offset 8
 351 0002 00AF     		add	r7, sp, #0
 352              		.cfi_offset 14, -4
 353              		.cfi_offset 7, -8
 354              	.LCFI15:
 355              		.cfi_def_cfa_register 7
 389:.\Generated_Source\PSoC5/PDM_CIC.c **** 		PDM_CIC_Status_Reg_InterruptEnable();
 356              		.loc 1 389 0
 357 0004 FFF7FEFF 		bl	PDM_CIC_Status_Reg_InterruptEnable
 390:.\Generated_Source\PSoC5/PDM_CIC.c **** 	}
 358              		.loc 1 390 0
 359 0008 80BD     		pop	{r7, pc}
 360              		.cfi_endproc
 361              	.LFE7:
 362              		.size	PDM_CIC_EnableInterruptGeneration, .-PDM_CIC_EnableInterruptGeneration
 363 000a 00BF     		.section	.text.PDM_CIC_DisableInterruptGeneration,"ax",%progbits
 364              		.align	2
 365              		.global	PDM_CIC_DisableInterruptGeneration
 366              		.thumb
 367              		.thumb_func
 368              		.type	PDM_CIC_DisableInterruptGeneration, %function
 369              	PDM_CIC_DisableInterruptGeneration:
 370              	.LFB8:
 391:.\Generated_Source\PSoC5/PDM_CIC.c **** 
 392:.\Generated_Source\PSoC5/PDM_CIC.c **** 	/*******************************************************************************
 393:.\Generated_Source\PSoC5/PDM_CIC.c **** 	* Function Name: PDM_CIC_DisableInterruptGeneration
 394:.\Generated_Source\PSoC5/PDM_CIC.c **** 	********************************************************************************
 395:.\Generated_Source\PSoC5/PDM_CIC.c **** 	*
 396:.\Generated_Source\PSoC5/PDM_CIC.c **** 	* Summary:
 397:.\Generated_Source\PSoC5/PDM_CIC.c **** 	*  Disables interrupt signal generation by the status register
 398:.\Generated_Source\PSoC5/PDM_CIC.c **** 	*
 399:.\Generated_Source\PSoC5/PDM_CIC.c **** 	* Parameters:
 400:.\Generated_Source\PSoC5/PDM_CIC.c **** 	*  None.
 401:.\Generated_Source\PSoC5/PDM_CIC.c **** 	*
 402:.\Generated_Source\PSoC5/PDM_CIC.c **** 	* Return:
 403:.\Generated_Source\PSoC5/PDM_CIC.c **** 	*  None.
 404:.\Generated_Source\PSoC5/PDM_CIC.c **** 	*
 405:.\Generated_Source\PSoC5/PDM_CIC.c **** 	* Global Variables:
 406:.\Generated_Source\PSoC5/PDM_CIC.c **** 	*  None.
 407:.\Generated_Source\PSoC5/PDM_CIC.c **** 	*
 408:.\Generated_Source\PSoC5/PDM_CIC.c **** 	*
 409:.\Generated_Source\PSoC5/PDM_CIC.c **** 	*******************************************************************************/
 410:.\Generated_Source\PSoC5/PDM_CIC.c **** 	void  PDM_CIC_DisableInterruptGeneration()
 411:.\Generated_Source\PSoC5/PDM_CIC.c **** 	{
 371              		.loc 1 411 0
 372              		.cfi_startproc
 373              		@ args = 0, pretend = 0, frame = 0
 374              		@ frame_needed = 1, uses_anonymous_args = 0
 375 0000 80B5     		push	{r7, lr}
 376              	.LCFI16:
 377              		.cfi_def_cfa_offset 8
 378 0002 00AF     		add	r7, sp, #0
 379              		.cfi_offset 14, -4
 380              		.cfi_offset 7, -8
 381              	.LCFI17:
 382              		.cfi_def_cfa_register 7
 412:.\Generated_Source\PSoC5/PDM_CIC.c **** 		PDM_CIC_Status_Reg_InterruptDisable();
ARM GAS  C:\DOCUME~1\ADMINI~1\LOCALS~1\Temp\ccvcEeBl.s 			page 15


 383              		.loc 1 412 0
 384 0004 FFF7FEFF 		bl	PDM_CIC_Status_Reg_InterruptDisable
 413:.\Generated_Source\PSoC5/PDM_CIC.c **** 	}
 385              		.loc 1 413 0
 386 0008 80BD     		pop	{r7, pc}
 387              		.cfi_endproc
 388              	.LFE8:
 389              		.size	PDM_CIC_DisableInterruptGeneration, .-PDM_CIC_DisableInterruptGeneration
 390 000a 00BF     		.section	.text.PDM_CIC_Integrator_Init,"ax",%progbits
 391              		.align	2
 392              		.thumb
 393              		.thumb_func
 394              		.type	PDM_CIC_Integrator_Init, %function
 395              	PDM_CIC_Integrator_Init:
 396              	.LFB9:
 414:.\Generated_Source\PSoC5/PDM_CIC.c **** 
 415:.\Generated_Source\PSoC5/PDM_CIC.c **** #endif /* (PDM_CIC_INTERRUPT_ENABLED) */
 416:.\Generated_Source\PSoC5/PDM_CIC.c **** 
 417:.\Generated_Source\PSoC5/PDM_CIC.c **** /*******************************************************************************
 418:.\Generated_Source\PSoC5/PDM_CIC.c **** * Function Name: PDM_CIC_Integrator_Init
 419:.\Generated_Source\PSoC5/PDM_CIC.c **** ********************************************************************************
 420:.\Generated_Source\PSoC5/PDM_CIC.c **** *
 421:.\Generated_Source\PSoC5/PDM_CIC.c **** * Summary:
 422:.\Generated_Source\PSoC5/PDM_CIC.c **** *  Initializes the integrator
 423:.\Generated_Source\PSoC5/PDM_CIC.c **** *
 424:.\Generated_Source\PSoC5/PDM_CIC.c **** * Parameters:
 425:.\Generated_Source\PSoC5/PDM_CIC.c **** *  None.
 426:.\Generated_Source\PSoC5/PDM_CIC.c **** *
 427:.\Generated_Source\PSoC5/PDM_CIC.c **** * Return:
 428:.\Generated_Source\PSoC5/PDM_CIC.c **** *  None.
 429:.\Generated_Source\PSoC5/PDM_CIC.c **** *
 430:.\Generated_Source\PSoC5/PDM_CIC.c **** * Global Variables:
 431:.\Generated_Source\PSoC5/PDM_CIC.c **** *  None.
 432:.\Generated_Source\PSoC5/PDM_CIC.c **** *
 433:.\Generated_Source\PSoC5/PDM_CIC.c **** *
 434:.\Generated_Source\PSoC5/PDM_CIC.c **** *******************************************************************************/
 435:.\Generated_Source\PSoC5/PDM_CIC.c **** static void PDM_CIC_Integrator_Init(void)
 436:.\Generated_Source\PSoC5/PDM_CIC.c **** {
 397              		.loc 1 436 0
 398              		.cfi_startproc
 399              		@ args = 0, pretend = 0, frame = 8
 400              		@ frame_needed = 1, uses_anonymous_args = 0
 401 0000 80B5     		push	{r7, lr}
 402              	.LCFI18:
 403              		.cfi_def_cfa_offset 8
 404 0002 82B0     		sub	sp, sp, #8
 405              	.LCFI19:
 406              		.cfi_def_cfa_offset 16
 407 0004 00AF     		add	r7, sp, #0
 408              		.cfi_offset 14, -4
 409              		.cfi_offset 7, -8
 410              	.LCFI20:
 411              		.cfi_def_cfa_register 7
 437:.\Generated_Source\PSoC5/PDM_CIC.c **** 	uint8 enableInterrupts;	
 438:.\Generated_Source\PSoC5/PDM_CIC.c **** 	
 439:.\Generated_Source\PSoC5/PDM_CIC.c **** 	enableInterrupts = CyEnterCriticalSection();
 412              		.loc 1 439 0
ARM GAS  C:\DOCUME~1\ADMINI~1\LOCALS~1\Temp\ccvcEeBl.s 			page 16


 413 0006 FFF7FEFF 		bl	CyEnterCriticalSection
 414 000a 0346     		mov	r3, r0
 415 000c FB71     		strb	r3, [r7, #7]
 440:.\Generated_Source\PSoC5/PDM_CIC.c **** 	
 441:.\Generated_Source\PSoC5/PDM_CIC.c **** 	#if(PDM_CIC_LEFT_CHANNEL_ENABLED)	
 442:.\Generated_Source\PSoC5/PDM_CIC.c **** 		/* Reset the F0, F1 FIFO buffer pointers and status signals */
 443:.\Generated_Source\PSoC5/PDM_CIC.c **** 		CY_SET_REG8(PDM_CIC_Integrator_genblk2_dp32_l_u0__DP_AUX_CTL_REG, CY_GET_REG8(PDM_CIC_Integrator_
 416              		.loc 1 443 0
 417 000e 46F29243 		movw	r3, #:lower16:1073767570
 418 0012 C4F20003 		movt	r3, #:upper16:1073767570
 419 0016 46F29242 		movw	r2, #:lower16:1073767570
 420 001a C4F20002 		movt	r2, #:upper16:1073767570
 421 001e 1278     		ldrb	r2, [r2, #0]
 422 0020 D2B2     		uxtb	r2, r2
 423 0022 42F00302 		orr	r2, r2, #3
 424 0026 D2B2     		uxtb	r2, r2
 425 0028 1A70     		strb	r2, [r3, #0]
 444:.\Generated_Source\PSoC5/PDM_CIC.c **** 		CY_SET_REG8(PDM_CIC_Integrator_genblk2_dp32_l_u1__DP_AUX_CTL_REG, CY_GET_REG8(PDM_CIC_Integrator_
 426              		.loc 1 444 0
 427 002a 46F29343 		movw	r3, #:lower16:1073767571
 428 002e C4F20003 		movt	r3, #:upper16:1073767571
 429 0032 46F29342 		movw	r2, #:lower16:1073767571
 430 0036 C4F20002 		movt	r2, #:upper16:1073767571
 431 003a 1278     		ldrb	r2, [r2, #0]
 432 003c D2B2     		uxtb	r2, r2
 433 003e 42F00302 		orr	r2, r2, #3
 434 0042 D2B2     		uxtb	r2, r2
 435 0044 1A70     		strb	r2, [r3, #0]
 445:.\Generated_Source\PSoC5/PDM_CIC.c **** 		CY_SET_REG8(PDM_CIC_Integrator_genblk2_dp32_l_u2__DP_AUX_CTL_REG, CY_GET_REG8(PDM_CIC_Integrator_
 436              		.loc 1 445 0
 437 0046 46F29443 		movw	r3, #:lower16:1073767572
 438 004a C4F20003 		movt	r3, #:upper16:1073767572
 439 004e 46F29442 		movw	r2, #:lower16:1073767572
 440 0052 C4F20002 		movt	r2, #:upper16:1073767572
 441 0056 1278     		ldrb	r2, [r2, #0]
 442 0058 D2B2     		uxtb	r2, r2
 443 005a 42F00302 		orr	r2, r2, #3
 444 005e D2B2     		uxtb	r2, r2
 445 0060 1A70     		strb	r2, [r3, #0]
 446:.\Generated_Source\PSoC5/PDM_CIC.c **** 		CY_SET_REG8(PDM_CIC_Integrator_genblk2_dp32_l_u3__DP_AUX_CTL_REG, CY_GET_REG8(PDM_CIC_Integrator_
 446              		.loc 1 446 0
 447 0062 46F29543 		movw	r3, #:lower16:1073767573
 448 0066 C4F20003 		movt	r3, #:upper16:1073767573
 449 006a 46F29542 		movw	r2, #:lower16:1073767573
 450 006e C4F20002 		movt	r2, #:upper16:1073767573
 451 0072 1278     		ldrb	r2, [r2, #0]
 452 0074 D2B2     		uxtb	r2, r2
 453 0076 42F00302 		orr	r2, r2, #3
 454 007a D2B2     		uxtb	r2, r2
 455 007c 1A70     		strb	r2, [r3, #0]
 447:.\Generated_Source\PSoC5/PDM_CIC.c **** 		
 448:.\Generated_Source\PSoC5/PDM_CIC.c **** 		CY_SET_REG8(PDM_CIC_Integrator_genblk2_dp32_l_u0__DP_AUX_CTL_REG, CY_GET_REG8(PDM_CIC_Integrator_
 456              		.loc 1 448 0
 457 007e 46F29243 		movw	r3, #:lower16:1073767570
 458 0082 C4F20003 		movt	r3, #:upper16:1073767570
 459 0086 46F29242 		movw	r2, #:lower16:1073767570
 460 008a C4F20002 		movt	r2, #:upper16:1073767570
ARM GAS  C:\DOCUME~1\ADMINI~1\LOCALS~1\Temp\ccvcEeBl.s 			page 17


 461 008e 1278     		ldrb	r2, [r2, #0]
 462 0090 D2B2     		uxtb	r2, r2
 463 0092 02F0FC02 		and	r2, r2, #252
 464 0096 1A70     		strb	r2, [r3, #0]
 449:.\Generated_Source\PSoC5/PDM_CIC.c **** 		CY_SET_REG8(PDM_CIC_Integrator_genblk2_dp32_l_u1__DP_AUX_CTL_REG, CY_GET_REG8(PDM_CIC_Integrator_
 465              		.loc 1 449 0
 466 0098 46F29343 		movw	r3, #:lower16:1073767571
 467 009c C4F20003 		movt	r3, #:upper16:1073767571
 468 00a0 46F29342 		movw	r2, #:lower16:1073767571
 469 00a4 C4F20002 		movt	r2, #:upper16:1073767571
 470 00a8 1278     		ldrb	r2, [r2, #0]
 471 00aa D2B2     		uxtb	r2, r2
 472 00ac 02F0FC02 		and	r2, r2, #252
 473 00b0 1A70     		strb	r2, [r3, #0]
 450:.\Generated_Source\PSoC5/PDM_CIC.c **** 		CY_SET_REG8(PDM_CIC_Integrator_genblk2_dp32_l_u2__DP_AUX_CTL_REG, CY_GET_REG8(PDM_CIC_Integrator_
 474              		.loc 1 450 0
 475 00b2 46F29443 		movw	r3, #:lower16:1073767572
 476 00b6 C4F20003 		movt	r3, #:upper16:1073767572
 477 00ba 46F29442 		movw	r2, #:lower16:1073767572
 478 00be C4F20002 		movt	r2, #:upper16:1073767572
 479 00c2 1278     		ldrb	r2, [r2, #0]
 480 00c4 D2B2     		uxtb	r2, r2
 481 00c6 02F0FC02 		and	r2, r2, #252
 482 00ca 1A70     		strb	r2, [r3, #0]
 451:.\Generated_Source\PSoC5/PDM_CIC.c **** 		CY_SET_REG8(PDM_CIC_Integrator_genblk2_dp32_l_u3__DP_AUX_CTL_REG, CY_GET_REG8(PDM_CIC_Integrator_
 483              		.loc 1 451 0
 484 00cc 46F29543 		movw	r3, #:lower16:1073767573
 485 00d0 C4F20003 		movt	r3, #:upper16:1073767573
 486 00d4 46F29542 		movw	r2, #:lower16:1073767573
 487 00d8 C4F20002 		movt	r2, #:upper16:1073767573
 488 00dc 1278     		ldrb	r2, [r2, #0]
 489 00de D2B2     		uxtb	r2, r2
 490 00e0 02F0FC02 		and	r2, r2, #252
 491 00e4 1A70     		strb	r2, [r3, #0]
 452:.\Generated_Source\PSoC5/PDM_CIC.c **** 	#endif /* (PDM_CIC_LEFT_CHANNEL_ENABLED) */
 453:.\Generated_Source\PSoC5/PDM_CIC.c **** 	
 454:.\Generated_Source\PSoC5/PDM_CIC.c **** 	#if(PDM_CIC_RIGHT_CHANNEL_ENABLED)
 455:.\Generated_Source\PSoC5/PDM_CIC.c **** 		/* Reset the F0, F1 FIFO buffer pointers and status signals */
 456:.\Generated_Source\PSoC5/PDM_CIC.c **** 		CY_SET_REG8(PDM_CIC_Integrator_genblk3_dp32_r_u0__DP_AUX_CTL_REG, CY_GET_REG8(PDM_CIC_Integrator_
 492              		.loc 1 456 0
 493 00e6 46F29853 		movw	r3, #:lower16:1073767832
 494 00ea C4F20003 		movt	r3, #:upper16:1073767832
 495 00ee 46F29852 		movw	r2, #:lower16:1073767832
 496 00f2 C4F20002 		movt	r2, #:upper16:1073767832
 497 00f6 1278     		ldrb	r2, [r2, #0]
 498 00f8 D2B2     		uxtb	r2, r2
 499 00fa 42F00302 		orr	r2, r2, #3
 500 00fe D2B2     		uxtb	r2, r2
 501 0100 1A70     		strb	r2, [r3, #0]
 457:.\Generated_Source\PSoC5/PDM_CIC.c **** 		CY_SET_REG8(PDM_CIC_Integrator_genblk3_dp32_r_u1__DP_AUX_CTL_REG, CY_GET_REG8(PDM_CIC_Integrator_
 502              		.loc 1 457 0
 503 0102 46F29953 		movw	r3, #:lower16:1073767833
 504 0106 C4F20003 		movt	r3, #:upper16:1073767833
 505 010a 46F29952 		movw	r2, #:lower16:1073767833
 506 010e C4F20002 		movt	r2, #:upper16:1073767833
 507 0112 1278     		ldrb	r2, [r2, #0]
 508 0114 D2B2     		uxtb	r2, r2
ARM GAS  C:\DOCUME~1\ADMINI~1\LOCALS~1\Temp\ccvcEeBl.s 			page 18


 509 0116 42F00302 		orr	r2, r2, #3
 510 011a D2B2     		uxtb	r2, r2
 511 011c 1A70     		strb	r2, [r3, #0]
 458:.\Generated_Source\PSoC5/PDM_CIC.c **** 		CY_SET_REG8(PDM_CIC_Integrator_genblk3_dp32_r_u2__DP_AUX_CTL_REG, CY_GET_REG8(PDM_CIC_Integrator_
 512              		.loc 1 458 0
 513 011e 46F29A53 		movw	r3, #:lower16:1073767834
 514 0122 C4F20003 		movt	r3, #:upper16:1073767834
 515 0126 46F29A52 		movw	r2, #:lower16:1073767834
 516 012a C4F20002 		movt	r2, #:upper16:1073767834
 517 012e 1278     		ldrb	r2, [r2, #0]
 518 0130 D2B2     		uxtb	r2, r2
 519 0132 42F00302 		orr	r2, r2, #3
 520 0136 D2B2     		uxtb	r2, r2
 521 0138 1A70     		strb	r2, [r3, #0]
 459:.\Generated_Source\PSoC5/PDM_CIC.c **** 		CY_SET_REG8(PDM_CIC_Integrator_genblk3_dp32_r_u3__DP_AUX_CTL_REG, CY_GET_REG8(PDM_CIC_Integrator_
 522              		.loc 1 459 0
 523 013a 46F29B53 		movw	r3, #:lower16:1073767835
 524 013e C4F20003 		movt	r3, #:upper16:1073767835
 525 0142 46F29B52 		movw	r2, #:lower16:1073767835
 526 0146 C4F20002 		movt	r2, #:upper16:1073767835
 527 014a 1278     		ldrb	r2, [r2, #0]
 528 014c D2B2     		uxtb	r2, r2
 529 014e 42F00302 		orr	r2, r2, #3
 530 0152 D2B2     		uxtb	r2, r2
 531 0154 1A70     		strb	r2, [r3, #0]
 460:.\Generated_Source\PSoC5/PDM_CIC.c **** 		
 461:.\Generated_Source\PSoC5/PDM_CIC.c **** 		CY_SET_REG8(PDM_CIC_Integrator_genblk3_dp32_r_u0__DP_AUX_CTL_REG, CY_GET_REG8(PDM_CIC_Integrator_
 532              		.loc 1 461 0
 533 0156 46F29853 		movw	r3, #:lower16:1073767832
 534 015a C4F20003 		movt	r3, #:upper16:1073767832
 535 015e 46F29852 		movw	r2, #:lower16:1073767832
 536 0162 C4F20002 		movt	r2, #:upper16:1073767832
 537 0166 1278     		ldrb	r2, [r2, #0]
 538 0168 D2B2     		uxtb	r2, r2
 539 016a 02F0FC02 		and	r2, r2, #252
 540 016e 1A70     		strb	r2, [r3, #0]
 462:.\Generated_Source\PSoC5/PDM_CIC.c **** 		CY_SET_REG8(PDM_CIC_Integrator_genblk3_dp32_r_u1__DP_AUX_CTL_REG, CY_GET_REG8(PDM_CIC_Integrator_
 541              		.loc 1 462 0
 542 0170 46F29953 		movw	r3, #:lower16:1073767833
 543 0174 C4F20003 		movt	r3, #:upper16:1073767833
 544 0178 46F29952 		movw	r2, #:lower16:1073767833
 545 017c C4F20002 		movt	r2, #:upper16:1073767833
 546 0180 1278     		ldrb	r2, [r2, #0]
 547 0182 D2B2     		uxtb	r2, r2
 548 0184 02F0FC02 		and	r2, r2, #252
 549 0188 1A70     		strb	r2, [r3, #0]
 463:.\Generated_Source\PSoC5/PDM_CIC.c **** 		CY_SET_REG8(PDM_CIC_Integrator_genblk3_dp32_r_u2__DP_AUX_CTL_REG, CY_GET_REG8(PDM_CIC_Integrator_
 550              		.loc 1 463 0
 551 018a 46F29A53 		movw	r3, #:lower16:1073767834
 552 018e C4F20003 		movt	r3, #:upper16:1073767834
 553 0192 46F29A52 		movw	r2, #:lower16:1073767834
 554 0196 C4F20002 		movt	r2, #:upper16:1073767834
 555 019a 1278     		ldrb	r2, [r2, #0]
 556 019c D2B2     		uxtb	r2, r2
 557 019e 02F0FC02 		and	r2, r2, #252
 558 01a2 1A70     		strb	r2, [r3, #0]
 464:.\Generated_Source\PSoC5/PDM_CIC.c **** 		CY_SET_REG8(PDM_CIC_Integrator_genblk3_dp32_r_u3__DP_AUX_CTL_REG, CY_GET_REG8(PDM_CIC_Integrator_
ARM GAS  C:\DOCUME~1\ADMINI~1\LOCALS~1\Temp\ccvcEeBl.s 			page 19


 559              		.loc 1 464 0
 560 01a4 46F29B53 		movw	r3, #:lower16:1073767835
 561 01a8 C4F20003 		movt	r3, #:upper16:1073767835
 562 01ac 46F29B52 		movw	r2, #:lower16:1073767835
 563 01b0 C4F20002 		movt	r2, #:upper16:1073767835
 564 01b4 1278     		ldrb	r2, [r2, #0]
 565 01b6 D2B2     		uxtb	r2, r2
 566 01b8 02F0FC02 		and	r2, r2, #252
 567 01bc 1A70     		strb	r2, [r3, #0]
 465:.\Generated_Source\PSoC5/PDM_CIC.c **** 	#endif /* (PDM_CIC_RIGHT_CHANNEL_ENABLED) */
 466:.\Generated_Source\PSoC5/PDM_CIC.c **** 	
 467:.\Generated_Source\PSoC5/PDM_CIC.c **** 	/* Enable the decimator counter module */
 468:.\Generated_Source\PSoC5/PDM_CIC.c **** 	CY_SET_REG8(PDM_CIC_Integrator_Counter7__CONTROL_AUX_CTL_REG, CY_GET_REG8(PDM_CIC_Integrator_Count
 568              		.loc 1 468 0
 569 01be 46F29753 		movw	r3, #:lower16:1073767831
 570 01c2 C4F20003 		movt	r3, #:upper16:1073767831
 571 01c6 46F29752 		movw	r2, #:lower16:1073767831
 572 01ca C4F20002 		movt	r2, #:upper16:1073767831
 573 01ce 1278     		ldrb	r2, [r2, #0]
 574 01d0 D2B2     		uxtb	r2, r2
 575 01d2 42F02002 		orr	r2, r2, #32
 576 01d6 D2B2     		uxtb	r2, r2
 577 01d8 1A70     		strb	r2, [r3, #0]
 469:.\Generated_Source\PSoC5/PDM_CIC.c **** 	
 470:.\Generated_Source\PSoC5/PDM_CIC.c **** 	CyExitCriticalSection(enableInterrupts);	
 578              		.loc 1 470 0
 579 01da FB79     		ldrb	r3, [r7, #7]	@ zero_extendqisi2
 580 01dc 1846     		mov	r0, r3
 581 01de FFF7FEFF 		bl	CyExitCriticalSection
 471:.\Generated_Source\PSoC5/PDM_CIC.c **** 	
 472:.\Generated_Source\PSoC5/PDM_CIC.c **** }
 582              		.loc 1 472 0
 583 01e2 07F10807 		add	r7, r7, #8
 584 01e6 BD46     		mov	sp, r7
 585 01e8 80BD     		pop	{r7, pc}
 586              		.cfi_endproc
 587              	.LFE9:
 588              		.size	PDM_CIC_Integrator_Init, .-PDM_CIC_Integrator_Init
 589 01ea 00BF     		.section	.text.PDM_CIC_Comb_Init,"ax",%progbits
 590              		.align	2
 591              		.thumb
 592              		.thumb_func
 593              		.type	PDM_CIC_Comb_Init, %function
 594              	PDM_CIC_Comb_Init:
 595              	.LFB10:
 473:.\Generated_Source\PSoC5/PDM_CIC.c **** 
 474:.\Generated_Source\PSoC5/PDM_CIC.c **** /*******************************************************************************
 475:.\Generated_Source\PSoC5/PDM_CIC.c **** * Function Name: PDM_CIC_Comb_Init
 476:.\Generated_Source\PSoC5/PDM_CIC.c **** ********************************************************************************
 477:.\Generated_Source\PSoC5/PDM_CIC.c **** *
 478:.\Generated_Source\PSoC5/PDM_CIC.c **** * Summary:
 479:.\Generated_Source\PSoC5/PDM_CIC.c **** *  Initializes the comb
 480:.\Generated_Source\PSoC5/PDM_CIC.c **** *
 481:.\Generated_Source\PSoC5/PDM_CIC.c **** * Parameters:
 482:.\Generated_Source\PSoC5/PDM_CIC.c **** *  None.
 483:.\Generated_Source\PSoC5/PDM_CIC.c **** *
 484:.\Generated_Source\PSoC5/PDM_CIC.c **** * Return:
ARM GAS  C:\DOCUME~1\ADMINI~1\LOCALS~1\Temp\ccvcEeBl.s 			page 20


 485:.\Generated_Source\PSoC5/PDM_CIC.c **** *  None.
 486:.\Generated_Source\PSoC5/PDM_CIC.c **** *
 487:.\Generated_Source\PSoC5/PDM_CIC.c **** * Global Variables:
 488:.\Generated_Source\PSoC5/PDM_CIC.c **** *  None.
 489:.\Generated_Source\PSoC5/PDM_CIC.c **** *
 490:.\Generated_Source\PSoC5/PDM_CIC.c **** *
 491:.\Generated_Source\PSoC5/PDM_CIC.c **** *******************************************************************************/
 492:.\Generated_Source\PSoC5/PDM_CIC.c **** static void PDM_CIC_Comb_Init(void)
 493:.\Generated_Source\PSoC5/PDM_CIC.c **** {
 596              		.loc 1 493 0
 597              		.cfi_startproc
 598              		@ args = 0, pretend = 0, frame = 8
 599              		@ frame_needed = 1, uses_anonymous_args = 0
 600 0000 80B5     		push	{r7, lr}
 601              	.LCFI21:
 602              		.cfi_def_cfa_offset 8
 603 0002 82B0     		sub	sp, sp, #8
 604              	.LCFI22:
 605              		.cfi_def_cfa_offset 16
 606 0004 00AF     		add	r7, sp, #0
 607              		.cfi_offset 14, -4
 608              		.cfi_offset 7, -8
 609              	.LCFI23:
 610              		.cfi_def_cfa_register 7
 494:.\Generated_Source\PSoC5/PDM_CIC.c **** 	uint8 enableInterrupts;	
 495:.\Generated_Source\PSoC5/PDM_CIC.c **** 	
 496:.\Generated_Source\PSoC5/PDM_CIC.c **** 	enableInterrupts = CyEnterCriticalSection();
 611              		.loc 1 496 0
 612 0006 FFF7FEFF 		bl	CyEnterCriticalSection
 613 000a 0346     		mov	r3, r0
 614 000c FB71     		strb	r3, [r7, #7]
 497:.\Generated_Source\PSoC5/PDM_CIC.c **** 	
 498:.\Generated_Source\PSoC5/PDM_CIC.c **** 	#if(PDM_CIC_LEFT_CHANNEL_ENABLED)	
 499:.\Generated_Source\PSoC5/PDM_CIC.c **** 		/* Reset the F0, F1 FIFO buffer pointers and status signals */
 500:.\Generated_Source\PSoC5/PDM_CIC.c **** 		CY_SET_REG8(PDM_CIC_Comb_L_genblk2_dp32_u0__DP_AUX_CTL_REG, CY_GET_REG8(PDM_CIC_Comb_L_genblk2_dp
 615              		.loc 1 500 0
 616 000e 46F29C43 		movw	r3, #:lower16:1073767580
 617 0012 C4F20003 		movt	r3, #:upper16:1073767580
 618 0016 46F29C42 		movw	r2, #:lower16:1073767580
 619 001a C4F20002 		movt	r2, #:upper16:1073767580
 620 001e 1278     		ldrb	r2, [r2, #0]
 621 0020 D2B2     		uxtb	r2, r2
 622 0022 42F00302 		orr	r2, r2, #3
 623 0026 D2B2     		uxtb	r2, r2
 624 0028 1A70     		strb	r2, [r3, #0]
 501:.\Generated_Source\PSoC5/PDM_CIC.c **** 		CY_SET_REG8(PDM_CIC_Comb_L_genblk2_dp32_u1__DP_AUX_CTL_REG, CY_GET_REG8(PDM_CIC_Comb_L_genblk2_dp
 625              		.loc 1 501 0
 626 002a 46F29D43 		movw	r3, #:lower16:1073767581
 627 002e C4F20003 		movt	r3, #:upper16:1073767581
 628 0032 46F29D42 		movw	r2, #:lower16:1073767581
 629 0036 C4F20002 		movt	r2, #:upper16:1073767581
 630 003a 1278     		ldrb	r2, [r2, #0]
 631 003c D2B2     		uxtb	r2, r2
 632 003e 42F00302 		orr	r2, r2, #3
 633 0042 D2B2     		uxtb	r2, r2
 634 0044 1A70     		strb	r2, [r3, #0]
 502:.\Generated_Source\PSoC5/PDM_CIC.c **** 		CY_SET_REG8(PDM_CIC_Comb_L_genblk2_dp32_u2__DP_AUX_CTL_REG, CY_GET_REG8(PDM_CIC_Comb_L_genblk2_dp
ARM GAS  C:\DOCUME~1\ADMINI~1\LOCALS~1\Temp\ccvcEeBl.s 			page 21


 635              		.loc 1 502 0
 636 0046 46F29E43 		movw	r3, #:lower16:1073767582
 637 004a C4F20003 		movt	r3, #:upper16:1073767582
 638 004e 46F29E42 		movw	r2, #:lower16:1073767582
 639 0052 C4F20002 		movt	r2, #:upper16:1073767582
 640 0056 1278     		ldrb	r2, [r2, #0]
 641 0058 D2B2     		uxtb	r2, r2
 642 005a 42F00302 		orr	r2, r2, #3
 643 005e D2B2     		uxtb	r2, r2
 644 0060 1A70     		strb	r2, [r3, #0]
 503:.\Generated_Source\PSoC5/PDM_CIC.c **** 		CY_SET_REG8(PDM_CIC_Comb_L_genblk2_dp32_u3__DP_AUX_CTL_REG, CY_GET_REG8(PDM_CIC_Comb_L_genblk2_dp
 645              		.loc 1 503 0
 646 0062 46F29F43 		movw	r3, #:lower16:1073767583
 647 0066 C4F20003 		movt	r3, #:upper16:1073767583
 648 006a 46F29F42 		movw	r2, #:lower16:1073767583
 649 006e C4F20002 		movt	r2, #:upper16:1073767583
 650 0072 1278     		ldrb	r2, [r2, #0]
 651 0074 D2B2     		uxtb	r2, r2
 652 0076 42F00302 		orr	r2, r2, #3
 653 007a D2B2     		uxtb	r2, r2
 654 007c 1A70     		strb	r2, [r3, #0]
 504:.\Generated_Source\PSoC5/PDM_CIC.c **** 		
 505:.\Generated_Source\PSoC5/PDM_CIC.c **** 		CY_SET_REG8(PDM_CIC_Comb_L_genblk2_dp32_u0__DP_AUX_CTL_REG, CY_GET_REG8(PDM_CIC_Comb_L_genblk2_dp
 655              		.loc 1 505 0
 656 007e 46F29C43 		movw	r3, #:lower16:1073767580
 657 0082 C4F20003 		movt	r3, #:upper16:1073767580
 658 0086 46F29C42 		movw	r2, #:lower16:1073767580
 659 008a C4F20002 		movt	r2, #:upper16:1073767580
 660 008e 1278     		ldrb	r2, [r2, #0]
 661 0090 D2B2     		uxtb	r2, r2
 662 0092 02F0FC02 		and	r2, r2, #252
 663 0096 1A70     		strb	r2, [r3, #0]
 506:.\Generated_Source\PSoC5/PDM_CIC.c **** 		CY_SET_REG8(PDM_CIC_Comb_L_genblk2_dp32_u1__DP_AUX_CTL_REG, CY_GET_REG8(PDM_CIC_Comb_L_genblk2_dp
 664              		.loc 1 506 0
 665 0098 46F29D43 		movw	r3, #:lower16:1073767581
 666 009c C4F20003 		movt	r3, #:upper16:1073767581
 667 00a0 46F29D42 		movw	r2, #:lower16:1073767581
 668 00a4 C4F20002 		movt	r2, #:upper16:1073767581
 669 00a8 1278     		ldrb	r2, [r2, #0]
 670 00aa D2B2     		uxtb	r2, r2
 671 00ac 02F0FC02 		and	r2, r2, #252
 672 00b0 1A70     		strb	r2, [r3, #0]
 507:.\Generated_Source\PSoC5/PDM_CIC.c **** 		CY_SET_REG8(PDM_CIC_Comb_L_genblk2_dp32_u2__DP_AUX_CTL_REG, CY_GET_REG8(PDM_CIC_Comb_L_genblk2_dp
 673              		.loc 1 507 0
 674 00b2 46F29E43 		movw	r3, #:lower16:1073767582
 675 00b6 C4F20003 		movt	r3, #:upper16:1073767582
 676 00ba 46F29E42 		movw	r2, #:lower16:1073767582
 677 00be C4F20002 		movt	r2, #:upper16:1073767582
 678 00c2 1278     		ldrb	r2, [r2, #0]
 679 00c4 D2B2     		uxtb	r2, r2
 680 00c6 02F0FC02 		and	r2, r2, #252
 681 00ca 1A70     		strb	r2, [r3, #0]
 508:.\Generated_Source\PSoC5/PDM_CIC.c **** 		CY_SET_REG8(PDM_CIC_Comb_L_genblk2_dp32_u3__DP_AUX_CTL_REG, CY_GET_REG8(PDM_CIC_Comb_L_genblk2_dp
 682              		.loc 1 508 0
 683 00cc 46F29F43 		movw	r3, #:lower16:1073767583
 684 00d0 C4F20003 		movt	r3, #:upper16:1073767583
 685 00d4 46F29F42 		movw	r2, #:lower16:1073767583
ARM GAS  C:\DOCUME~1\ADMINI~1\LOCALS~1\Temp\ccvcEeBl.s 			page 22


 686 00d8 C4F20002 		movt	r2, #:upper16:1073767583
 687 00dc 1278     		ldrb	r2, [r2, #0]
 688 00de D2B2     		uxtb	r2, r2
 689 00e0 02F0FC02 		and	r2, r2, #252
 690 00e4 1A70     		strb	r2, [r3, #0]
 509:.\Generated_Source\PSoC5/PDM_CIC.c **** 	#endif /* (PDM_CIC_LEFT_CHANNEL_ENABLED) */
 510:.\Generated_Source\PSoC5/PDM_CIC.c **** 	
 511:.\Generated_Source\PSoC5/PDM_CIC.c **** 	#if(PDM_CIC_RIGHT_CHANNEL_ENABLED)	
 512:.\Generated_Source\PSoC5/PDM_CIC.c **** 		/* Reset the F0, F1 FIFO buffer pointers and status signals */
 513:.\Generated_Source\PSoC5/PDM_CIC.c **** 		CY_SET_REG8(PDM_CIC_Comb_R_genblk2_dp32_u0__DP_AUX_CTL_REG, CY_GET_REG8(PDM_CIC_Comb_R_genblk2_dp
 691              		.loc 1 513 0
 692 00e6 46F29843 		movw	r3, #:lower16:1073767576
 693 00ea C4F20003 		movt	r3, #:upper16:1073767576
 694 00ee 46F29842 		movw	r2, #:lower16:1073767576
 695 00f2 C4F20002 		movt	r2, #:upper16:1073767576
 696 00f6 1278     		ldrb	r2, [r2, #0]
 697 00f8 D2B2     		uxtb	r2, r2
 698 00fa 42F00302 		orr	r2, r2, #3
 699 00fe D2B2     		uxtb	r2, r2
 700 0100 1A70     		strb	r2, [r3, #0]
 514:.\Generated_Source\PSoC5/PDM_CIC.c **** 		CY_SET_REG8(PDM_CIC_Comb_R_genblk2_dp32_u1__DP_AUX_CTL_REG, CY_GET_REG8(PDM_CIC_Comb_R_genblk2_dp
 701              		.loc 1 514 0
 702 0102 46F29943 		movw	r3, #:lower16:1073767577
 703 0106 C4F20003 		movt	r3, #:upper16:1073767577
 704 010a 46F29942 		movw	r2, #:lower16:1073767577
 705 010e C4F20002 		movt	r2, #:upper16:1073767577
 706 0112 1278     		ldrb	r2, [r2, #0]
 707 0114 D2B2     		uxtb	r2, r2
 708 0116 42F00302 		orr	r2, r2, #3
 709 011a D2B2     		uxtb	r2, r2
 710 011c 1A70     		strb	r2, [r3, #0]
 515:.\Generated_Source\PSoC5/PDM_CIC.c **** 		CY_SET_REG8(PDM_CIC_Comb_R_genblk2_dp32_u2__DP_AUX_CTL_REG, CY_GET_REG8(PDM_CIC_Comb_R_genblk2_dp
 711              		.loc 1 515 0
 712 011e 46F29A43 		movw	r3, #:lower16:1073767578
 713 0122 C4F20003 		movt	r3, #:upper16:1073767578
 714 0126 46F29A42 		movw	r2, #:lower16:1073767578
 715 012a C4F20002 		movt	r2, #:upper16:1073767578
 716 012e 1278     		ldrb	r2, [r2, #0]
 717 0130 D2B2     		uxtb	r2, r2
 718 0132 42F00302 		orr	r2, r2, #3
 719 0136 D2B2     		uxtb	r2, r2
 720 0138 1A70     		strb	r2, [r3, #0]
 516:.\Generated_Source\PSoC5/PDM_CIC.c **** 		CY_SET_REG8(PDM_CIC_Comb_R_genblk2_dp32_u3__DP_AUX_CTL_REG, CY_GET_REG8(PDM_CIC_Comb_R_genblk2_dp
 721              		.loc 1 516 0
 722 013a 46F29B43 		movw	r3, #:lower16:1073767579
 723 013e C4F20003 		movt	r3, #:upper16:1073767579
 724 0142 46F29B42 		movw	r2, #:lower16:1073767579
 725 0146 C4F20002 		movt	r2, #:upper16:1073767579
 726 014a 1278     		ldrb	r2, [r2, #0]
 727 014c D2B2     		uxtb	r2, r2
 728 014e 42F00302 		orr	r2, r2, #3
 729 0152 D2B2     		uxtb	r2, r2
 730 0154 1A70     		strb	r2, [r3, #0]
 517:.\Generated_Source\PSoC5/PDM_CIC.c **** 		
 518:.\Generated_Source\PSoC5/PDM_CIC.c **** 		CY_SET_REG8(PDM_CIC_Comb_R_genblk2_dp32_u0__DP_AUX_CTL_REG, CY_GET_REG8(PDM_CIC_Comb_R_genblk2_dp
 731              		.loc 1 518 0
 732 0156 46F29843 		movw	r3, #:lower16:1073767576
ARM GAS  C:\DOCUME~1\ADMINI~1\LOCALS~1\Temp\ccvcEeBl.s 			page 23


 733 015a C4F20003 		movt	r3, #:upper16:1073767576
 734 015e 46F29842 		movw	r2, #:lower16:1073767576
 735 0162 C4F20002 		movt	r2, #:upper16:1073767576
 736 0166 1278     		ldrb	r2, [r2, #0]
 737 0168 D2B2     		uxtb	r2, r2
 738 016a 02F0FC02 		and	r2, r2, #252
 739 016e 1A70     		strb	r2, [r3, #0]
 519:.\Generated_Source\PSoC5/PDM_CIC.c **** 		CY_SET_REG8(PDM_CIC_Comb_R_genblk2_dp32_u1__DP_AUX_CTL_REG, CY_GET_REG8(PDM_CIC_Comb_R_genblk2_dp
 740              		.loc 1 519 0
 741 0170 46F29943 		movw	r3, #:lower16:1073767577
 742 0174 C4F20003 		movt	r3, #:upper16:1073767577
 743 0178 46F29942 		movw	r2, #:lower16:1073767577
 744 017c C4F20002 		movt	r2, #:upper16:1073767577
 745 0180 1278     		ldrb	r2, [r2, #0]
 746 0182 D2B2     		uxtb	r2, r2
 747 0184 02F0FC02 		and	r2, r2, #252
 748 0188 1A70     		strb	r2, [r3, #0]
 520:.\Generated_Source\PSoC5/PDM_CIC.c **** 		CY_SET_REG8(PDM_CIC_Comb_R_genblk2_dp32_u2__DP_AUX_CTL_REG, CY_GET_REG8(PDM_CIC_Comb_R_genblk2_dp
 749              		.loc 1 520 0
 750 018a 46F29A43 		movw	r3, #:lower16:1073767578
 751 018e C4F20003 		movt	r3, #:upper16:1073767578
 752 0192 46F29A42 		movw	r2, #:lower16:1073767578
 753 0196 C4F20002 		movt	r2, #:upper16:1073767578
 754 019a 1278     		ldrb	r2, [r2, #0]
 755 019c D2B2     		uxtb	r2, r2
 756 019e 02F0FC02 		and	r2, r2, #252
 757 01a2 1A70     		strb	r2, [r3, #0]
 521:.\Generated_Source\PSoC5/PDM_CIC.c **** 		CY_SET_REG8(PDM_CIC_Comb_R_genblk2_dp32_u3__DP_AUX_CTL_REG, CY_GET_REG8(PDM_CIC_Comb_R_genblk2_dp
 758              		.loc 1 521 0
 759 01a4 46F29B43 		movw	r3, #:lower16:1073767579
 760 01a8 C4F20003 		movt	r3, #:upper16:1073767579
 761 01ac 46F29B42 		movw	r2, #:lower16:1073767579
 762 01b0 C4F20002 		movt	r2, #:upper16:1073767579
 763 01b4 1278     		ldrb	r2, [r2, #0]
 764 01b6 D2B2     		uxtb	r2, r2
 765 01b8 02F0FC02 		and	r2, r2, #252
 766 01bc 1A70     		strb	r2, [r3, #0]
 522:.\Generated_Source\PSoC5/PDM_CIC.c **** 	#endif /* (PDM_CIC_RIGHT_CHANNEL_ENABLED) */
 523:.\Generated_Source\PSoC5/PDM_CIC.c **** 	
 524:.\Generated_Source\PSoC5/PDM_CIC.c **** 	CyExitCriticalSection(enableInterrupts);
 767              		.loc 1 524 0
 768 01be FB79     		ldrb	r3, [r7, #7]	@ zero_extendqisi2
 769 01c0 1846     		mov	r0, r3
 770 01c2 FFF7FEFF 		bl	CyExitCriticalSection
 525:.\Generated_Source\PSoC5/PDM_CIC.c **** 	
 526:.\Generated_Source\PSoC5/PDM_CIC.c **** 	#if(PDM_CIC_LEFT_CHANNEL_ENABLED)	
 527:.\Generated_Source\PSoC5/PDM_CIC.c **** 		/* Write 0 to the 32-bit D0 register */
 528:.\Generated_Source\PSoC5/PDM_CIC.c **** 		CY_SET_REG8(PDM_CIC_Comb_L_genblk2_dp32_u0__D0_REG, 0x00);
 771              		.loc 1 528 0
 772 01c6 46F22C43 		movw	r3, #:lower16:1073767468
 773 01ca C4F20003 		movt	r3, #:upper16:1073767468
 774 01ce 4FF00002 		mov	r2, #0
 775 01d2 1A70     		strb	r2, [r3, #0]
 529:.\Generated_Source\PSoC5/PDM_CIC.c **** 		CY_SET_REG8(PDM_CIC_Comb_L_genblk2_dp32_u1__D0_REG, 0x00);
 776              		.loc 1 529 0
 777 01d4 46F22D43 		movw	r3, #:lower16:1073767469
 778 01d8 C4F20003 		movt	r3, #:upper16:1073767469
ARM GAS  C:\DOCUME~1\ADMINI~1\LOCALS~1\Temp\ccvcEeBl.s 			page 24


 779 01dc 4FF00002 		mov	r2, #0
 780 01e0 1A70     		strb	r2, [r3, #0]
 530:.\Generated_Source\PSoC5/PDM_CIC.c **** 		CY_SET_REG8(PDM_CIC_Comb_L_genblk2_dp32_u2__D0_REG, 0x00);
 781              		.loc 1 530 0
 782 01e2 46F22E43 		movw	r3, #:lower16:1073767470
 783 01e6 C4F20003 		movt	r3, #:upper16:1073767470
 784 01ea 4FF00002 		mov	r2, #0
 785 01ee 1A70     		strb	r2, [r3, #0]
 531:.\Generated_Source\PSoC5/PDM_CIC.c **** 		CY_SET_REG8(PDM_CIC_Comb_L_genblk2_dp32_u3__D0_REG, 0x00);	
 786              		.loc 1 531 0
 787 01f0 46F22F43 		movw	r3, #:lower16:1073767471
 788 01f4 C4F20003 		movt	r3, #:upper16:1073767471
 789 01f8 4FF00002 		mov	r2, #0
 790 01fc 1A70     		strb	r2, [r3, #0]
 532:.\Generated_Source\PSoC5/PDM_CIC.c **** 	#endif /* (PDM_CIC_LEFT_CHANNEL_ENABLED) */
 533:.\Generated_Source\PSoC5/PDM_CIC.c **** 	
 534:.\Generated_Source\PSoC5/PDM_CIC.c **** 	#if(PDM_CIC_RIGHT_CHANNEL_ENABLED)
 535:.\Generated_Source\PSoC5/PDM_CIC.c **** 		/* Write 0 to the 32-bit D0 register */
 536:.\Generated_Source\PSoC5/PDM_CIC.c **** 		CY_SET_REG8(PDM_CIC_Comb_R_genblk2_dp32_u0__D0_REG, 0x00);
 791              		.loc 1 536 0
 792 01fe 46F22843 		movw	r3, #:lower16:1073767464
 793 0202 C4F20003 		movt	r3, #:upper16:1073767464
 794 0206 4FF00002 		mov	r2, #0
 795 020a 1A70     		strb	r2, [r3, #0]
 537:.\Generated_Source\PSoC5/PDM_CIC.c **** 		CY_SET_REG8(PDM_CIC_Comb_R_genblk2_dp32_u1__D0_REG, 0x00);
 796              		.loc 1 537 0
 797 020c 46F22943 		movw	r3, #:lower16:1073767465
 798 0210 C4F20003 		movt	r3, #:upper16:1073767465
 799 0214 4FF00002 		mov	r2, #0
 800 0218 1A70     		strb	r2, [r3, #0]
 538:.\Generated_Source\PSoC5/PDM_CIC.c **** 		CY_SET_REG8(PDM_CIC_Comb_R_genblk2_dp32_u2__D0_REG, 0x00);
 801              		.loc 1 538 0
 802 021a 46F22A43 		movw	r3, #:lower16:1073767466
 803 021e C4F20003 		movt	r3, #:upper16:1073767466
 804 0222 4FF00002 		mov	r2, #0
 805 0226 1A70     		strb	r2, [r3, #0]
 539:.\Generated_Source\PSoC5/PDM_CIC.c **** 		CY_SET_REG8(PDM_CIC_Comb_R_genblk2_dp32_u3__D0_REG, 0x00);	
 806              		.loc 1 539 0
 807 0228 46F22B43 		movw	r3, #:lower16:1073767467
 808 022c C4F20003 		movt	r3, #:upper16:1073767467
 809 0230 4FF00002 		mov	r2, #0
 810 0234 1A70     		strb	r2, [r3, #0]
 540:.\Generated_Source\PSoC5/PDM_CIC.c **** 	#endif /* (PDM_CIC_RIGHT_CHANNEL_ENABLED) */
 541:.\Generated_Source\PSoC5/PDM_CIC.c **** 
 542:.\Generated_Source\PSoC5/PDM_CIC.c **** }
 811              		.loc 1 542 0
 812 0236 07F10807 		add	r7, r7, #8
 813 023a BD46     		mov	sp, r7
 814 023c 80BD     		pop	{r7, pc}
 815              		.cfi_endproc
 816              	.LFE10:
 817              		.size	PDM_CIC_Comb_Init, .-PDM_CIC_Comb_Init
 818 023e 00BF     		.section	.text.PDM_CIC_IntOutDma_R_Init,"ax",%progbits
 819              		.align	2
 820              		.thumb
 821              		.thumb_func
 822              		.type	PDM_CIC_IntOutDma_R_Init, %function
ARM GAS  C:\DOCUME~1\ADMINI~1\LOCALS~1\Temp\ccvcEeBl.s 			page 25


 823              	PDM_CIC_IntOutDma_R_Init:
 824              	.LFB11:
 543:.\Generated_Source\PSoC5/PDM_CIC.c **** 
 544:.\Generated_Source\PSoC5/PDM_CIC.c **** #if (PDM_CIC_RIGHT_CHANNEL_ENABLED)
 545:.\Generated_Source\PSoC5/PDM_CIC.c **** 
 546:.\Generated_Source\PSoC5/PDM_CIC.c **** 	/*******************************************************************************
 547:.\Generated_Source\PSoC5/PDM_CIC.c **** 	* Function Name: PDM_CIC_IntOutDma_R_Init
 548:.\Generated_Source\PSoC5/PDM_CIC.c **** 	********************************************************************************
 549:.\Generated_Source\PSoC5/PDM_CIC.c **** 	*
 550:.\Generated_Source\PSoC5/PDM_CIC.c **** 	* Summary:
 551:.\Generated_Source\PSoC5/PDM_CIC.c **** 	*  Initializes the DMA channel associated with the right channel integrator output
 552:.\Generated_Source\PSoC5/PDM_CIC.c **** 	*
 553:.\Generated_Source\PSoC5/PDM_CIC.c **** 	* Parameters:
 554:.\Generated_Source\PSoC5/PDM_CIC.c **** 	*  None.
 555:.\Generated_Source\PSoC5/PDM_CIC.c **** 	*
 556:.\Generated_Source\PSoC5/PDM_CIC.c **** 	* Return:
 557:.\Generated_Source\PSoC5/PDM_CIC.c **** 	*  None.
 558:.\Generated_Source\PSoC5/PDM_CIC.c **** 	*
 559:.\Generated_Source\PSoC5/PDM_CIC.c **** 	* Global Variables:
 560:.\Generated_Source\PSoC5/PDM_CIC.c **** 	*  None.
 561:.\Generated_Source\PSoC5/PDM_CIC.c **** 	*
 562:.\Generated_Source\PSoC5/PDM_CIC.c **** 	*
 563:.\Generated_Source\PSoC5/PDM_CIC.c **** 	*******************************************************************************/
 564:.\Generated_Source\PSoC5/PDM_CIC.c **** 	static void PDM_CIC_IntOutDma_R_Init(void)
 565:.\Generated_Source\PSoC5/PDM_CIC.c **** 	{
 825              		.loc 1 565 0
 826              		.cfi_startproc
 827              		@ args = 0, pretend = 0, frame = 8
 828              		@ frame_needed = 1, uses_anonymous_args = 0
 829 0000 80B5     		push	{r7, lr}
 830              	.LCFI24:
 831              		.cfi_def_cfa_offset 8
 832 0002 82B0     		sub	sp, sp, #8
 833              	.LCFI25:
 834              		.cfi_def_cfa_offset 16
 835 0004 00AF     		add	r7, sp, #0
 836              		.cfi_offset 14, -4
 837              		.cfi_offset 7, -8
 838              	.LCFI26:
 839              		.cfi_def_cfa_register 7
 566:.\Generated_Source\PSoC5/PDM_CIC.c **** 		uint8 DMA_IntegratorOut_Channel, DMA_IntegratorOut_TD[2];
 567:.\Generated_Source\PSoC5/PDM_CIC.c **** 
 568:.\Generated_Source\PSoC5/PDM_CIC.c **** 		/* Transfer data in 2-byte bursts since UDB spoke is 2 bytes wide.
 569:.\Generated_Source\PSoC5/PDM_CIC.c **** 		   requestPerBurst = 1.
 570:.\Generated_Source\PSoC5/PDM_CIC.c **** 		   Peripheral (UDB) to Peripheral (UDB) transfer */
 571:.\Generated_Source\PSoC5/PDM_CIC.c **** 		DMA_IntegratorOut_Channel = PDM_CIC_DMA_IntOut_R_DmaInitialize(2, 1, HI16(CYDEV_PERIPH_BASE), HI1
 840              		.loc 1 571 0
 841 0006 4FF00200 		mov	r0, #2
 842 000a 4FF00101 		mov	r1, #1
 843 000e 4FF48042 		mov	r2, #16384
 844 0012 4FF48043 		mov	r3, #16384
 845 0016 FFF7FEFF 		bl	PDM_CIC_DMA_IntOut_R_DmaInitialize
 846 001a 0346     		mov	r3, r0
 847 001c FB71     		strb	r3, [r7, #7]
 572:.\Generated_Source\PSoC5/PDM_CIC.c **** 		
 573:.\Generated_Source\PSoC5/PDM_CIC.c **** 		DMA_IntegratorOut_TD[0] = CyDmaTdAllocate();
 848              		.loc 1 573 0
ARM GAS  C:\DOCUME~1\ADMINI~1\LOCALS~1\Temp\ccvcEeBl.s 			page 26


 849 001e FFF7FEFF 		bl	CyDmaTdAllocate
 850 0022 0346     		mov	r3, r0
 851 0024 3B71     		strb	r3, [r7, #4]
 574:.\Generated_Source\PSoC5/PDM_CIC.c **** 		DMA_IntegratorOut_TD[1] = CyDmaTdAllocate();
 852              		.loc 1 574 0
 853 0026 FFF7FEFF 		bl	CyDmaTdAllocate
 854 002a 0346     		mov	r3, r0
 855 002c 7B71     		strb	r3, [r7, #5]
 575:.\Generated_Source\PSoC5/PDM_CIC.c **** 		
 576:.\Generated_Source\PSoC5/PDM_CIC.c **** 		/* Circular TD's. Each TD transfer 2 bytes. Auto execute second TD. */
 577:.\Generated_Source\PSoC5/PDM_CIC.c **** 		CyDmaTdSetConfiguration(DMA_IntegratorOut_TD[0], 2, DMA_IntegratorOut_TD[1], TD_AUTO_EXEC_NEXT); 
 856              		.loc 1 577 0
 857 002e 3A79     		ldrb	r2, [r7, #4]	@ zero_extendqisi2
 858 0030 7B79     		ldrb	r3, [r7, #5]	@ zero_extendqisi2
 859 0032 1046     		mov	r0, r2
 860 0034 4FF00201 		mov	r1, #2
 861 0038 1A46     		mov	r2, r3
 862 003a 4FF02003 		mov	r3, #32
 863 003e FFF7FEFF 		bl	CyDmaTdSetConfiguration
 578:.\Generated_Source\PSoC5/PDM_CIC.c **** 		CyDmaTdSetConfiguration(DMA_IntegratorOut_TD[1], 2, DMA_IntegratorOut_TD[0], PDM_CIC_DMA_IntOut_R
 864              		.loc 1 578 0
 865 0042 7A79     		ldrb	r2, [r7, #5]	@ zero_extendqisi2
 866 0044 3B79     		ldrb	r3, [r7, #4]	@ zero_extendqisi2
 867 0046 1046     		mov	r0, r2
 868 0048 4FF00201 		mov	r1, #2
 869 004c 1A46     		mov	r2, r3
 870 004e 4FF00403 		mov	r3, #4
 871 0052 FFF7FEFF 		bl	CyDmaTdSetConfiguration
 579:.\Generated_Source\PSoC5/PDM_CIC.c **** 		
 580:.\Generated_Source\PSoC5/PDM_CIC.c **** 		/* Each TD transfers 16-bit FIFO value to 16-bit A0. Order TD's such that MSB datapath FIFO is re
 581:.\Generated_Source\PSoC5/PDM_CIC.c **** 		CyDmaTdSetAddress(DMA_IntegratorOut_TD[0], (uint16)(PDM_CIC_INT_R_LO16_OUTPUT_REG_PTR), (uint16)(
 872              		.loc 1 581 0
 873 0056 3B79     		ldrb	r3, [r7, #4]	@ zero_extendqisi2
 874 0058 1846     		mov	r0, r3
 875 005a 46F69021 		movw	r1, #27280
 876 005e 46F61002 		movw	r2, #26640
 877 0062 FFF7FEFF 		bl	CyDmaTdSetAddress
 582:.\Generated_Source\PSoC5/PDM_CIC.c **** 		CyDmaTdSetAddress(DMA_IntegratorOut_TD[1], (uint16)(PDM_CIC_INT_R_HI16_OUTPUT_REG_PTR), (uint16)(
 878              		.loc 1 582 0
 879 0066 7B79     		ldrb	r3, [r7, #5]	@ zero_extendqisi2
 880 0068 1846     		mov	r0, r3
 881 006a 46F69421 		movw	r1, #27284
 882 006e 46F61402 		movw	r2, #26644
 883 0072 FFF7FEFF 		bl	CyDmaTdSetAddress
 583:.\Generated_Source\PSoC5/PDM_CIC.c **** 		
 584:.\Generated_Source\PSoC5/PDM_CIC.c **** 		/* Set the initial TD for the channel */
 585:.\Generated_Source\PSoC5/PDM_CIC.c **** 		CyDmaChSetInitialTd(DMA_IntegratorOut_Channel, DMA_IntegratorOut_TD[0]);
 884              		.loc 1 585 0
 885 0076 3B79     		ldrb	r3, [r7, #4]	@ zero_extendqisi2
 886 0078 FA79     		ldrb	r2, [r7, #7]	@ zero_extendqisi2
 887 007a 1046     		mov	r0, r2
 888 007c 1946     		mov	r1, r3
 889 007e FFF7FEFF 		bl	CyDmaChSetInitialTd
 586:.\Generated_Source\PSoC5/PDM_CIC.c **** 	}
 890              		.loc 1 586 0
 891 0082 07F10807 		add	r7, r7, #8
 892 0086 BD46     		mov	sp, r7
ARM GAS  C:\DOCUME~1\ADMINI~1\LOCALS~1\Temp\ccvcEeBl.s 			page 27


 893 0088 80BD     		pop	{r7, pc}
 894              		.cfi_endproc
 895              	.LFE11:
 896              		.size	PDM_CIC_IntOutDma_R_Init, .-PDM_CIC_IntOutDma_R_Init
 897 008a 00BF     		.section	.text.PDM_CIC_IntOutDma_R_Start,"ax",%progbits
 898              		.align	2
 899              		.thumb
 900              		.thumb_func
 901              		.type	PDM_CIC_IntOutDma_R_Start, %function
 902              	PDM_CIC_IntOutDma_R_Start:
 903              	.LFB12:
 587:.\Generated_Source\PSoC5/PDM_CIC.c **** 
 588:.\Generated_Source\PSoC5/PDM_CIC.c **** 	/*******************************************************************************
 589:.\Generated_Source\PSoC5/PDM_CIC.c **** 	* Function Name: PDM_CIC_IntOutDma_R_Start
 590:.\Generated_Source\PSoC5/PDM_CIC.c **** 	********************************************************************************
 591:.\Generated_Source\PSoC5/PDM_CIC.c **** 	*
 592:.\Generated_Source\PSoC5/PDM_CIC.c **** 	* Summary:
 593:.\Generated_Source\PSoC5/PDM_CIC.c **** 	*  Starts the DMA channel associated with the right channel integrator output
 594:.\Generated_Source\PSoC5/PDM_CIC.c **** 	*
 595:.\Generated_Source\PSoC5/PDM_CIC.c **** 	* Parameters:
 596:.\Generated_Source\PSoC5/PDM_CIC.c **** 	*  None.
 597:.\Generated_Source\PSoC5/PDM_CIC.c **** 	*
 598:.\Generated_Source\PSoC5/PDM_CIC.c **** 	* Return:
 599:.\Generated_Source\PSoC5/PDM_CIC.c **** 	*  None.
 600:.\Generated_Source\PSoC5/PDM_CIC.c **** 	*
 601:.\Generated_Source\PSoC5/PDM_CIC.c **** 	* Global Variables:
 602:.\Generated_Source\PSoC5/PDM_CIC.c **** 	*  None.
 603:.\Generated_Source\PSoC5/PDM_CIC.c **** 	*
 604:.\Generated_Source\PSoC5/PDM_CIC.c **** 	*
 605:.\Generated_Source\PSoC5/PDM_CIC.c **** 	*******************************************************************************/
 606:.\Generated_Source\PSoC5/PDM_CIC.c **** 	static void PDM_CIC_IntOutDma_R_Start(void)
 607:.\Generated_Source\PSoC5/PDM_CIC.c **** 	{	
 904              		.loc 1 607 0
 905              		.cfi_startproc
 906              		@ args = 0, pretend = 0, frame = 0
 907              		@ frame_needed = 1, uses_anonymous_args = 0
 908 0000 80B5     		push	{r7, lr}
 909              	.LCFI27:
 910              		.cfi_def_cfa_offset 8
 911 0002 00AF     		add	r7, sp, #0
 912              		.cfi_offset 14, -4
 913              		.cfi_offset 7, -8
 914              	.LCFI28:
 915              		.cfi_def_cfa_register 7
 608:.\Generated_Source\PSoC5/PDM_CIC.c **** 		CyDmaClearPendingDrq(PDM_CIC_DMA_IntOut_R_DmaHandle);
 916              		.loc 1 608 0
 917 0004 40F20003 		movw	r3, #:lower16:PDM_CIC_DMA_IntOut_R_DmaHandle
 918 0008 C0F20003 		movt	r3, #:upper16:PDM_CIC_DMA_IntOut_R_DmaHandle
 919 000c 1B78     		ldrb	r3, [r3, #0]	@ zero_extendqisi2
 920 000e 1846     		mov	r0, r3
 921 0010 FFF7FEFF 		bl	CyDmaClearPendingDrq
 609:.\Generated_Source\PSoC5/PDM_CIC.c **** 		
 610:.\Generated_Source\PSoC5/PDM_CIC.c **** 		CyDmaChEnable(PDM_CIC_DMA_IntOut_R_DmaHandle, 1);
 922              		.loc 1 610 0
 923 0014 40F20003 		movw	r3, #:lower16:PDM_CIC_DMA_IntOut_R_DmaHandle
 924 0018 C0F20003 		movt	r3, #:upper16:PDM_CIC_DMA_IntOut_R_DmaHandle
 925 001c 1B78     		ldrb	r3, [r3, #0]	@ zero_extendqisi2
ARM GAS  C:\DOCUME~1\ADMINI~1\LOCALS~1\Temp\ccvcEeBl.s 			page 28


 926 001e 1846     		mov	r0, r3
 927 0020 4FF00101 		mov	r1, #1
 928 0024 FFF7FEFF 		bl	CyDmaChEnable
 611:.\Generated_Source\PSoC5/PDM_CIC.c **** 	}
 929              		.loc 1 611 0
 930 0028 80BD     		pop	{r7, pc}
 931              		.cfi_endproc
 932              	.LFE12:
 933              		.size	PDM_CIC_IntOutDma_R_Start, .-PDM_CIC_IntOutDma_R_Start
 934 002a 00BF     		.section	.text.PDM_CIC_IntOutDma_R_Stop,"ax",%progbits
 935              		.align	2
 936              		.thumb
 937              		.thumb_func
 938              		.type	PDM_CIC_IntOutDma_R_Stop, %function
 939              	PDM_CIC_IntOutDma_R_Stop:
 940              	.LFB13:
 612:.\Generated_Source\PSoC5/PDM_CIC.c **** 
 613:.\Generated_Source\PSoC5/PDM_CIC.c **** 	/*******************************************************************************
 614:.\Generated_Source\PSoC5/PDM_CIC.c **** 	* Function Name: PDM_CIC_IntOutDma_R_Stop
 615:.\Generated_Source\PSoC5/PDM_CIC.c **** 	********************************************************************************
 616:.\Generated_Source\PSoC5/PDM_CIC.c **** 	*
 617:.\Generated_Source\PSoC5/PDM_CIC.c **** 	* Summary:
 618:.\Generated_Source\PSoC5/PDM_CIC.c **** 	*  Stops (and disables) the DMA channel associated with the right channel integrator output
 619:.\Generated_Source\PSoC5/PDM_CIC.c **** 	*
 620:.\Generated_Source\PSoC5/PDM_CIC.c **** 	* Parameters:
 621:.\Generated_Source\PSoC5/PDM_CIC.c **** 	*  None.
 622:.\Generated_Source\PSoC5/PDM_CIC.c **** 	*
 623:.\Generated_Source\PSoC5/PDM_CIC.c **** 	* Return:
 624:.\Generated_Source\PSoC5/PDM_CIC.c **** 	*  None.
 625:.\Generated_Source\PSoC5/PDM_CIC.c **** 	*
 626:.\Generated_Source\PSoC5/PDM_CIC.c **** 	* Global Variables:
 627:.\Generated_Source\PSoC5/PDM_CIC.c **** 	*  None.
 628:.\Generated_Source\PSoC5/PDM_CIC.c **** 	*
 629:.\Generated_Source\PSoC5/PDM_CIC.c **** 	*
 630:.\Generated_Source\PSoC5/PDM_CIC.c **** 	*******************************************************************************/
 631:.\Generated_Source\PSoC5/PDM_CIC.c **** 	static void PDM_CIC_IntOutDma_R_Stop(void)
 632:.\Generated_Source\PSoC5/PDM_CIC.c **** 	{	
 941              		.loc 1 632 0
 942              		.cfi_startproc
 943              		@ args = 0, pretend = 0, frame = 0
 944              		@ frame_needed = 1, uses_anonymous_args = 0
 945 0000 80B5     		push	{r7, lr}
 946              	.LCFI29:
 947              		.cfi_def_cfa_offset 8
 948 0002 00AF     		add	r7, sp, #0
 949              		.cfi_offset 14, -4
 950              		.cfi_offset 7, -8
 951              	.LCFI30:
 952              		.cfi_def_cfa_register 7
 633:.\Generated_Source\PSoC5/PDM_CIC.c **** 		/* Terminate the TD chain which also disables the channel */
 634:.\Generated_Source\PSoC5/PDM_CIC.c **** 		CyDmaChSetRequest(PDM_CIC_DMA_IntOut_R_DmaHandle , CPU_TERM_CHAIN);
 953              		.loc 1 634 0
 954 0004 40F20003 		movw	r3, #:lower16:PDM_CIC_DMA_IntOut_R_DmaHandle
 955 0008 C0F20003 		movt	r3, #:upper16:PDM_CIC_DMA_IntOut_R_DmaHandle
 956 000c 1B78     		ldrb	r3, [r3, #0]	@ zero_extendqisi2
 957 000e 1846     		mov	r0, r3
 958 0010 4FF00401 		mov	r1, #4
ARM GAS  C:\DOCUME~1\ADMINI~1\LOCALS~1\Temp\ccvcEeBl.s 			page 29


 959 0014 FFF7FEFF 		bl	CyDmaChSetRequest
 635:.\Generated_Source\PSoC5/PDM_CIC.c **** 	}
 960              		.loc 1 635 0
 961 0018 80BD     		pop	{r7, pc}
 962              		.cfi_endproc
 963              	.LFE13:
 964              		.size	PDM_CIC_IntOutDma_R_Stop, .-PDM_CIC_IntOutDma_R_Stop
 965 001a 00BF     		.section	.text.PDM_CIC_CombD0UpdateDma_R_Init,"ax",%progbits
 966              		.align	2
 967              		.thumb
 968              		.thumb_func
 969              		.type	PDM_CIC_CombD0UpdateDma_R_Init, %function
 970              	PDM_CIC_CombD0UpdateDma_R_Init:
 971              	.LFB14:
 636:.\Generated_Source\PSoC5/PDM_CIC.c **** 
 637:.\Generated_Source\PSoC5/PDM_CIC.c **** 	/*******************************************************************************
 638:.\Generated_Source\PSoC5/PDM_CIC.c **** 	* Function Name: PDM_CIC_CombD0UpdateDma_R_Init
 639:.\Generated_Source\PSoC5/PDM_CIC.c **** 	********************************************************************************
 640:.\Generated_Source\PSoC5/PDM_CIC.c **** 	*
 641:.\Generated_Source\PSoC5/PDM_CIC.c **** 	* Summary:
 642:.\Generated_Source\PSoC5/PDM_CIC.c **** 	*  Initializes the DMA channel associated with the Comb D0 register update
 643:.\Generated_Source\PSoC5/PDM_CIC.c **** 	*  for right channel
 644:.\Generated_Source\PSoC5/PDM_CIC.c **** 	*
 645:.\Generated_Source\PSoC5/PDM_CIC.c **** 	* Parameters:
 646:.\Generated_Source\PSoC5/PDM_CIC.c **** 	*  None.
 647:.\Generated_Source\PSoC5/PDM_CIC.c **** 	*
 648:.\Generated_Source\PSoC5/PDM_CIC.c **** 	* Return:
 649:.\Generated_Source\PSoC5/PDM_CIC.c **** 	*  None.
 650:.\Generated_Source\PSoC5/PDM_CIC.c **** 	*
 651:.\Generated_Source\PSoC5/PDM_CIC.c **** 	* Global Variables:
 652:.\Generated_Source\PSoC5/PDM_CIC.c **** 	*  None.
 653:.\Generated_Source\PSoC5/PDM_CIC.c **** 	*
 654:.\Generated_Source\PSoC5/PDM_CIC.c **** 	*
 655:.\Generated_Source\PSoC5/PDM_CIC.c **** 	*******************************************************************************/
 656:.\Generated_Source\PSoC5/PDM_CIC.c **** 	static void PDM_CIC_CombD0UpdateDma_R_Init(void)
 657:.\Generated_Source\PSoC5/PDM_CIC.c **** 	{
 972              		.loc 1 657 0
 973              		.cfi_startproc
 974              		@ args = 0, pretend = 0, frame = 8
 975              		@ frame_needed = 1, uses_anonymous_args = 0
 976 0000 80B5     		push	{r7, lr}
 977              	.LCFI31:
 978              		.cfi_def_cfa_offset 8
 979 0002 82B0     		sub	sp, sp, #8
 980              	.LCFI32:
 981              		.cfi_def_cfa_offset 16
 982 0004 00AF     		add	r7, sp, #0
 983              		.cfi_offset 14, -4
 984              		.cfi_offset 7, -8
 985              	.LCFI33:
 986              		.cfi_def_cfa_register 7
 658:.\Generated_Source\PSoC5/PDM_CIC.c **** 		uint8 DMA_CombD0Update_Channel, DMA_CombD0Update_TD[2];
 659:.\Generated_Source\PSoC5/PDM_CIC.c **** 
 660:.\Generated_Source\PSoC5/PDM_CIC.c **** 		/* Transfer data in 2-byte bursts since UDB spoke is 2 bytes wide.
 661:.\Generated_Source\PSoC5/PDM_CIC.c **** 			requestPerBurst = 1.
 662:.\Generated_Source\PSoC5/PDM_CIC.c **** 		   Peripheral (UDB) to Peripheral (UDB) transfer */
 663:.\Generated_Source\PSoC5/PDM_CIC.c **** 		DMA_CombD0Update_Channel = PDM_CIC_DMA_CombD0Update_R_DmaInitialize(2, 1, HI16(CYDEV_PERIPH_BASE)
ARM GAS  C:\DOCUME~1\ADMINI~1\LOCALS~1\Temp\ccvcEeBl.s 			page 30


 987              		.loc 1 663 0
 988 0006 4FF00200 		mov	r0, #2
 989 000a 4FF00101 		mov	r1, #1
 990 000e 4FF48042 		mov	r2, #16384
 991 0012 4FF48043 		mov	r3, #16384
 992 0016 FFF7FEFF 		bl	PDM_CIC_DMA_CombD0Update_R_DmaInitialize
 993 001a 0346     		mov	r3, r0
 994 001c FB71     		strb	r3, [r7, #7]
 664:.\Generated_Source\PSoC5/PDM_CIC.c **** 		DMA_CombD0Update_TD[0] = CyDmaTdAllocate();
 995              		.loc 1 664 0
 996 001e FFF7FEFF 		bl	CyDmaTdAllocate
 997 0022 0346     		mov	r3, r0
 998 0024 3B71     		strb	r3, [r7, #4]
 665:.\Generated_Source\PSoC5/PDM_CIC.c **** 		DMA_CombD0Update_TD[1] = CyDmaTdAllocate();
 999              		.loc 1 665 0
 1000 0026 FFF7FEFF 		bl	CyDmaTdAllocate
 1001 002a 0346     		mov	r3, r0
 1002 002c 7B71     		strb	r3, [r7, #5]
 666:.\Generated_Source\PSoC5/PDM_CIC.c **** 		
 667:.\Generated_Source\PSoC5/PDM_CIC.c **** 		/* Circular TD's. Each TD transfer 2 bytes. Auto execute second TD. */
 668:.\Generated_Source\PSoC5/PDM_CIC.c **** 		CyDmaTdSetConfiguration(DMA_CombD0Update_TD[0], 2, DMA_CombD0Update_TD[1], TD_AUTO_EXEC_NEXT);
 1003              		.loc 1 668 0
 1004 002e 3A79     		ldrb	r2, [r7, #4]	@ zero_extendqisi2
 1005 0030 7B79     		ldrb	r3, [r7, #5]	@ zero_extendqisi2
 1006 0032 1046     		mov	r0, r2
 1007 0034 4FF00201 		mov	r1, #2
 1008 0038 1A46     		mov	r2, r3
 1009 003a 4FF02003 		mov	r3, #32
 1010 003e FFF7FEFF 		bl	CyDmaTdSetConfiguration
 669:.\Generated_Source\PSoC5/PDM_CIC.c **** 		CyDmaTdSetConfiguration(DMA_CombD0Update_TD[1], 2, DMA_CombD0Update_TD[0], PDM_CIC_DMA_CombD0Upda
 1011              		.loc 1 669 0
 1012 0042 7A79     		ldrb	r2, [r7, #5]	@ zero_extendqisi2
 1013 0044 3B79     		ldrb	r3, [r7, #4]	@ zero_extendqisi2
 1014 0046 1046     		mov	r0, r2
 1015 0048 4FF00201 		mov	r1, #2
 1016 004c 1A46     		mov	r2, r3
 1017 004e 4FF00403 		mov	r3, #4
 1018 0052 FFF7FEFF 		bl	CyDmaTdSetConfiguration
 670:.\Generated_Source\PSoC5/PDM_CIC.c **** 		
 671:.\Generated_Source\PSoC5/PDM_CIC.c **** 		/* Each TD transfers 16-bit A1 value to 16-bit D0. */
 672:.\Generated_Source\PSoC5/PDM_CIC.c **** 		CyDmaTdSetAddress(DMA_CombD0Update_TD[0], (uint16)PDM_CIC_Comb_R_genblk2_dp32_u0__16BIT_A1_REG, (
 1019              		.loc 1 672 0
 1020 0056 3B79     		ldrb	r3, [r7, #4]	@ zero_extendqisi2
 1021 0058 1846     		mov	r0, r3
 1022 005a 46F63001 		movw	r1, #26672
 1023 005e 46F65002 		movw	r2, #26704
 1024 0062 FFF7FEFF 		bl	CyDmaTdSetAddress
 673:.\Generated_Source\PSoC5/PDM_CIC.c **** 		CyDmaTdSetAddress(DMA_CombD0Update_TD[1], (uint16)PDM_CIC_Comb_R_genblk2_dp32_u2__16BIT_A1_REG, (
 1025              		.loc 1 673 0
 1026 0066 7B79     		ldrb	r3, [r7, #5]	@ zero_extendqisi2
 1027 0068 1846     		mov	r0, r3
 1028 006a 46F63401 		movw	r1, #26676
 1029 006e 46F65402 		movw	r2, #26708
 1030 0072 FFF7FEFF 		bl	CyDmaTdSetAddress
 674:.\Generated_Source\PSoC5/PDM_CIC.c **** 		
 675:.\Generated_Source\PSoC5/PDM_CIC.c **** 		/* Set the initial TD for the channel */
 676:.\Generated_Source\PSoC5/PDM_CIC.c **** 		CyDmaChSetInitialTd(DMA_CombD0Update_Channel, DMA_CombD0Update_TD[0]);
ARM GAS  C:\DOCUME~1\ADMINI~1\LOCALS~1\Temp\ccvcEeBl.s 			page 31


 1031              		.loc 1 676 0
 1032 0076 3B79     		ldrb	r3, [r7, #4]	@ zero_extendqisi2
 1033 0078 FA79     		ldrb	r2, [r7, #7]	@ zero_extendqisi2
 1034 007a 1046     		mov	r0, r2
 1035 007c 1946     		mov	r1, r3
 1036 007e FFF7FEFF 		bl	CyDmaChSetInitialTd
 677:.\Generated_Source\PSoC5/PDM_CIC.c **** 	}
 1037              		.loc 1 677 0
 1038 0082 07F10807 		add	r7, r7, #8
 1039 0086 BD46     		mov	sp, r7
 1040 0088 80BD     		pop	{r7, pc}
 1041              		.cfi_endproc
 1042              	.LFE14:
 1043              		.size	PDM_CIC_CombD0UpdateDma_R_Init, .-PDM_CIC_CombD0UpdateDma_R_Init
 1044 008a 00BF     		.section	.text.PDM_CIC_CombD0UpdateDma_R_Start,"ax",%progbits
 1045              		.align	2
 1046              		.thumb
 1047              		.thumb_func
 1048              		.type	PDM_CIC_CombD0UpdateDma_R_Start, %function
 1049              	PDM_CIC_CombD0UpdateDma_R_Start:
 1050              	.LFB15:
 678:.\Generated_Source\PSoC5/PDM_CIC.c **** 
 679:.\Generated_Source\PSoC5/PDM_CIC.c **** 	/*******************************************************************************
 680:.\Generated_Source\PSoC5/PDM_CIC.c **** 	* Function Name: PDM_CIC_CombD0UpdateDma_R_Start
 681:.\Generated_Source\PSoC5/PDM_CIC.c **** 	********************************************************************************
 682:.\Generated_Source\PSoC5/PDM_CIC.c **** 	*
 683:.\Generated_Source\PSoC5/PDM_CIC.c **** 	* Summary:
 684:.\Generated_Source\PSoC5/PDM_CIC.c **** 	*  Starts the DMA channel associated with the Comb D0 register update for right
 685:.\Generated_Source\PSoC5/PDM_CIC.c **** 	*  channel
 686:.\Generated_Source\PSoC5/PDM_CIC.c **** 	*
 687:.\Generated_Source\PSoC5/PDM_CIC.c **** 	* Parameters:
 688:.\Generated_Source\PSoC5/PDM_CIC.c **** 	*  None.
 689:.\Generated_Source\PSoC5/PDM_CIC.c **** 	*
 690:.\Generated_Source\PSoC5/PDM_CIC.c **** 	* Return:
 691:.\Generated_Source\PSoC5/PDM_CIC.c **** 	*  None.
 692:.\Generated_Source\PSoC5/PDM_CIC.c **** 	*
 693:.\Generated_Source\PSoC5/PDM_CIC.c **** 	* Global Variables:
 694:.\Generated_Source\PSoC5/PDM_CIC.c **** 	*  None.
 695:.\Generated_Source\PSoC5/PDM_CIC.c **** 	*
 696:.\Generated_Source\PSoC5/PDM_CIC.c **** 	*
 697:.\Generated_Source\PSoC5/PDM_CIC.c **** 	*******************************************************************************/
 698:.\Generated_Source\PSoC5/PDM_CIC.c **** 	static void PDM_CIC_CombD0UpdateDma_R_Start(void)
 699:.\Generated_Source\PSoC5/PDM_CIC.c **** 	{	
 1051              		.loc 1 699 0
 1052              		.cfi_startproc
 1053              		@ args = 0, pretend = 0, frame = 0
 1054              		@ frame_needed = 1, uses_anonymous_args = 0
 1055 0000 80B5     		push	{r7, lr}
 1056              	.LCFI34:
 1057              		.cfi_def_cfa_offset 8
 1058 0002 00AF     		add	r7, sp, #0
 1059              		.cfi_offset 14, -4
 1060              		.cfi_offset 7, -8
 1061              	.LCFI35:
 1062              		.cfi_def_cfa_register 7
 700:.\Generated_Source\PSoC5/PDM_CIC.c **** 		CyDmaClearPendingDrq(PDM_CIC_DMA_CombD0Update_R_DmaHandle);	
 1063              		.loc 1 700 0
ARM GAS  C:\DOCUME~1\ADMINI~1\LOCALS~1\Temp\ccvcEeBl.s 			page 32


 1064 0004 40F20003 		movw	r3, #:lower16:PDM_CIC_DMA_CombD0Update_R_DmaHandle
 1065 0008 C0F20003 		movt	r3, #:upper16:PDM_CIC_DMA_CombD0Update_R_DmaHandle
 1066 000c 1B78     		ldrb	r3, [r3, #0]	@ zero_extendqisi2
 1067 000e 1846     		mov	r0, r3
 1068 0010 FFF7FEFF 		bl	CyDmaClearPendingDrq
 701:.\Generated_Source\PSoC5/PDM_CIC.c **** 		CyDmaChEnable(PDM_CIC_DMA_CombD0Update_R_DmaHandle, 1);
 1069              		.loc 1 701 0
 1070 0014 40F20003 		movw	r3, #:lower16:PDM_CIC_DMA_CombD0Update_R_DmaHandle
 1071 0018 C0F20003 		movt	r3, #:upper16:PDM_CIC_DMA_CombD0Update_R_DmaHandle
 1072 001c 1B78     		ldrb	r3, [r3, #0]	@ zero_extendqisi2
 1073 001e 1846     		mov	r0, r3
 1074 0020 4FF00101 		mov	r1, #1
 1075 0024 FFF7FEFF 		bl	CyDmaChEnable
 702:.\Generated_Source\PSoC5/PDM_CIC.c **** 	}
 1076              		.loc 1 702 0
 1077 0028 80BD     		pop	{r7, pc}
 1078              		.cfi_endproc
 1079              	.LFE15:
 1080              		.size	PDM_CIC_CombD0UpdateDma_R_Start, .-PDM_CIC_CombD0UpdateDma_R_Start
 1081 002a 00BF     		.section	.text.PDM_CIC_CombD0UpdateDma_R_Stop,"ax",%progbits
 1082              		.align	2
 1083              		.thumb
 1084              		.thumb_func
 1085              		.type	PDM_CIC_CombD0UpdateDma_R_Stop, %function
 1086              	PDM_CIC_CombD0UpdateDma_R_Stop:
 1087              	.LFB16:
 703:.\Generated_Source\PSoC5/PDM_CIC.c **** 
 704:.\Generated_Source\PSoC5/PDM_CIC.c **** 	/*******************************************************************************
 705:.\Generated_Source\PSoC5/PDM_CIC.c **** 	* Function Name: PDM_CIC_CombD0UpdateDma_R_Stop
 706:.\Generated_Source\PSoC5/PDM_CIC.c **** 	********************************************************************************
 707:.\Generated_Source\PSoC5/PDM_CIC.c **** 	*
 708:.\Generated_Source\PSoC5/PDM_CIC.c **** 	* Summary:
 709:.\Generated_Source\PSoC5/PDM_CIC.c **** 	*  Stops (and disables) the DMA channel associated with the Comb D0 register update
 710:.\Generated_Source\PSoC5/PDM_CIC.c **** 	*  for the right channel
 711:.\Generated_Source\PSoC5/PDM_CIC.c **** 	*
 712:.\Generated_Source\PSoC5/PDM_CIC.c **** 	* Parameters:
 713:.\Generated_Source\PSoC5/PDM_CIC.c **** 	*  None.
 714:.\Generated_Source\PSoC5/PDM_CIC.c **** 	*
 715:.\Generated_Source\PSoC5/PDM_CIC.c **** 	* Return:
 716:.\Generated_Source\PSoC5/PDM_CIC.c **** 	*  None.
 717:.\Generated_Source\PSoC5/PDM_CIC.c **** 	*
 718:.\Generated_Source\PSoC5/PDM_CIC.c **** 	* Global Variables:
 719:.\Generated_Source\PSoC5/PDM_CIC.c **** 	*  None.
 720:.\Generated_Source\PSoC5/PDM_CIC.c **** 	*
 721:.\Generated_Source\PSoC5/PDM_CIC.c **** 	*
 722:.\Generated_Source\PSoC5/PDM_CIC.c **** 	*******************************************************************************/
 723:.\Generated_Source\PSoC5/PDM_CIC.c **** 	static void PDM_CIC_CombD0UpdateDma_R_Stop(void)
 724:.\Generated_Source\PSoC5/PDM_CIC.c **** 	{	
 1088              		.loc 1 724 0
 1089              		.cfi_startproc
 1090              		@ args = 0, pretend = 0, frame = 0
 1091              		@ frame_needed = 1, uses_anonymous_args = 0
 1092 0000 80B5     		push	{r7, lr}
 1093              	.LCFI36:
 1094              		.cfi_def_cfa_offset 8
 1095 0002 00AF     		add	r7, sp, #0
 1096              		.cfi_offset 14, -4
ARM GAS  C:\DOCUME~1\ADMINI~1\LOCALS~1\Temp\ccvcEeBl.s 			page 33


 1097              		.cfi_offset 7, -8
 1098              	.LCFI37:
 1099              		.cfi_def_cfa_register 7
 725:.\Generated_Source\PSoC5/PDM_CIC.c **** 		/* Terminate the TD chain which also disables the channel */
 726:.\Generated_Source\PSoC5/PDM_CIC.c **** 		CyDmaChSetRequest(PDM_CIC_DMA_CombD0Update_R_DmaHandle , CPU_TERM_CHAIN);
 1100              		.loc 1 726 0
 1101 0004 40F20003 		movw	r3, #:lower16:PDM_CIC_DMA_CombD0Update_R_DmaHandle
 1102 0008 C0F20003 		movt	r3, #:upper16:PDM_CIC_DMA_CombD0Update_R_DmaHandle
 1103 000c 1B78     		ldrb	r3, [r3, #0]	@ zero_extendqisi2
 1104 000e 1846     		mov	r0, r3
 1105 0010 4FF00401 		mov	r1, #4
 1106 0014 FFF7FEFF 		bl	CyDmaChSetRequest
 727:.\Generated_Source\PSoC5/PDM_CIC.c **** 	}
 1107              		.loc 1 727 0
 1108 0018 80BD     		pop	{r7, pc}
 1109              		.cfi_endproc
 1110              	.LFE16:
 1111              		.size	PDM_CIC_CombD0UpdateDma_R_Stop, .-PDM_CIC_CombD0UpdateDma_R_Stop
 1112 001a 00BF     		.section	.text.PDM_CIC_IntOutDma_L_Init,"ax",%progbits
 1113              		.align	2
 1114              		.thumb
 1115              		.thumb_func
 1116              		.type	PDM_CIC_IntOutDma_L_Init, %function
 1117              	PDM_CIC_IntOutDma_L_Init:
 1118              	.LFB17:
 728:.\Generated_Source\PSoC5/PDM_CIC.c **** #endif /* (PDM_CIC_RIGHT_CHANNEL_ENABLED) */
 729:.\Generated_Source\PSoC5/PDM_CIC.c **** 
 730:.\Generated_Source\PSoC5/PDM_CIC.c **** #if (PDM_CIC_LEFT_CHANNEL_ENABLED)
 731:.\Generated_Source\PSoC5/PDM_CIC.c **** 	/*******************************************************************************
 732:.\Generated_Source\PSoC5/PDM_CIC.c **** 	* Function Name: PDM_CIC_IntOutDma_L_Init
 733:.\Generated_Source\PSoC5/PDM_CIC.c **** 	********************************************************************************
 734:.\Generated_Source\PSoC5/PDM_CIC.c **** 	*
 735:.\Generated_Source\PSoC5/PDM_CIC.c **** 	* Summary:
 736:.\Generated_Source\PSoC5/PDM_CIC.c **** 	*  Initializes the DMA channel associated with the left channel integrator output
 737:.\Generated_Source\PSoC5/PDM_CIC.c **** 	*
 738:.\Generated_Source\PSoC5/PDM_CIC.c **** 	* Parameters:
 739:.\Generated_Source\PSoC5/PDM_CIC.c **** 	*  None.
 740:.\Generated_Source\PSoC5/PDM_CIC.c **** 	*
 741:.\Generated_Source\PSoC5/PDM_CIC.c **** 	* Return:
 742:.\Generated_Source\PSoC5/PDM_CIC.c **** 	*  None.
 743:.\Generated_Source\PSoC5/PDM_CIC.c **** 	*
 744:.\Generated_Source\PSoC5/PDM_CIC.c **** 	* Global Variables:
 745:.\Generated_Source\PSoC5/PDM_CIC.c **** 	*  None.
 746:.\Generated_Source\PSoC5/PDM_CIC.c **** 	*
 747:.\Generated_Source\PSoC5/PDM_CIC.c **** 	*
 748:.\Generated_Source\PSoC5/PDM_CIC.c **** 	*******************************************************************************/
 749:.\Generated_Source\PSoC5/PDM_CIC.c **** 	static void PDM_CIC_IntOutDma_L_Init(void)
 750:.\Generated_Source\PSoC5/PDM_CIC.c **** 	{
 1119              		.loc 1 750 0
 1120              		.cfi_startproc
 1121              		@ args = 0, pretend = 0, frame = 8
 1122              		@ frame_needed = 1, uses_anonymous_args = 0
 1123 0000 80B5     		push	{r7, lr}
 1124              	.LCFI38:
 1125              		.cfi_def_cfa_offset 8
 1126 0002 82B0     		sub	sp, sp, #8
 1127              	.LCFI39:
ARM GAS  C:\DOCUME~1\ADMINI~1\LOCALS~1\Temp\ccvcEeBl.s 			page 34


 1128              		.cfi_def_cfa_offset 16
 1129 0004 00AF     		add	r7, sp, #0
 1130              		.cfi_offset 14, -4
 1131              		.cfi_offset 7, -8
 1132              	.LCFI40:
 1133              		.cfi_def_cfa_register 7
 751:.\Generated_Source\PSoC5/PDM_CIC.c **** 		uint8 DMA_IntegratorOut_Channel, DMA_IntegratorOut_TD[2];
 752:.\Generated_Source\PSoC5/PDM_CIC.c **** 
 753:.\Generated_Source\PSoC5/PDM_CIC.c **** 		/* Transfer data in 2-byte bursts since UDB spoke is 2 bytes wide.
 754:.\Generated_Source\PSoC5/PDM_CIC.c **** 		   requestPerBurst = 1.
 755:.\Generated_Source\PSoC5/PDM_CIC.c **** 		   Peripheral (UDB) to Peripheral (UDB) transfer */
 756:.\Generated_Source\PSoC5/PDM_CIC.c **** 		DMA_IntegratorOut_Channel = PDM_CIC_DMA_IntOut_L_DmaInitialize(2, 1, HI16(CYDEV_PERIPH_BASE), HI1
 1134              		.loc 1 756 0
 1135 0006 4FF00200 		mov	r0, #2
 1136 000a 4FF00101 		mov	r1, #1
 1137 000e 4FF48042 		mov	r2, #16384
 1138 0012 4FF48043 		mov	r3, #16384
 1139 0016 FFF7FEFF 		bl	PDM_CIC_DMA_IntOut_L_DmaInitialize
 1140 001a 0346     		mov	r3, r0
 1141 001c FB71     		strb	r3, [r7, #7]
 757:.\Generated_Source\PSoC5/PDM_CIC.c **** 		
 758:.\Generated_Source\PSoC5/PDM_CIC.c **** 		DMA_IntegratorOut_TD[0] = CyDmaTdAllocate();
 1142              		.loc 1 758 0
 1143 001e FFF7FEFF 		bl	CyDmaTdAllocate
 1144 0022 0346     		mov	r3, r0
 1145 0024 3B71     		strb	r3, [r7, #4]
 759:.\Generated_Source\PSoC5/PDM_CIC.c **** 		DMA_IntegratorOut_TD[1] = CyDmaTdAllocate();
 1146              		.loc 1 759 0
 1147 0026 FFF7FEFF 		bl	CyDmaTdAllocate
 1148 002a 0346     		mov	r3, r0
 1149 002c 7B71     		strb	r3, [r7, #5]
 760:.\Generated_Source\PSoC5/PDM_CIC.c **** 		
 761:.\Generated_Source\PSoC5/PDM_CIC.c **** 		/* Circular TD's. Each TD transfer 2 bytes. Auto execute second TD. */
 762:.\Generated_Source\PSoC5/PDM_CIC.c **** 		CyDmaTdSetConfiguration(DMA_IntegratorOut_TD[0], 2, DMA_IntegratorOut_TD[1], TD_AUTO_EXEC_NEXT); 
 1150              		.loc 1 762 0
 1151 002e 3A79     		ldrb	r2, [r7, #4]	@ zero_extendqisi2
 1152 0030 7B79     		ldrb	r3, [r7, #5]	@ zero_extendqisi2
 1153 0032 1046     		mov	r0, r2
 1154 0034 4FF00201 		mov	r1, #2
 1155 0038 1A46     		mov	r2, r3
 1156 003a 4FF02003 		mov	r3, #32
 1157 003e FFF7FEFF 		bl	CyDmaTdSetConfiguration
 763:.\Generated_Source\PSoC5/PDM_CIC.c **** 		CyDmaTdSetConfiguration(DMA_IntegratorOut_TD[1], 2, DMA_IntegratorOut_TD[0], PDM_CIC_DMA_IntOut_L
 1158              		.loc 1 763 0
 1159 0042 7A79     		ldrb	r2, [r7, #5]	@ zero_extendqisi2
 1160 0044 3B79     		ldrb	r3, [r7, #4]	@ zero_extendqisi2
 1161 0046 1046     		mov	r0, r2
 1162 0048 4FF00201 		mov	r1, #2
 1163 004c 1A46     		mov	r2, r3
 1164 004e 4FF00403 		mov	r3, #4
 1165 0052 FFF7FEFF 		bl	CyDmaTdSetConfiguration
 764:.\Generated_Source\PSoC5/PDM_CIC.c **** 		
 765:.\Generated_Source\PSoC5/PDM_CIC.c **** 		/* Each TD transfers 16-bit FIFO value to 16-bit A0. Order TD's such that MSB datapath FIFO is re
 766:.\Generated_Source\PSoC5/PDM_CIC.c **** 		CyDmaTdSetAddress(DMA_IntegratorOut_TD[0], (uint16)(PDM_CIC_INT_L_LO16_OUTPUT_REG_PTR), (uint16)(
 1166              		.loc 1 766 0
 1167 0056 3B79     		ldrb	r3, [r7, #4]	@ zero_extendqisi2
 1168 0058 1846     		mov	r0, r3
ARM GAS  C:\DOCUME~1\ADMINI~1\LOCALS~1\Temp\ccvcEeBl.s 			page 35


 1169 005a 46F68401 		movw	r1, #26756
 1170 005e 46F61802 		movw	r2, #26648
 1171 0062 FFF7FEFF 		bl	CyDmaTdSetAddress
 767:.\Generated_Source\PSoC5/PDM_CIC.c **** 		CyDmaTdSetAddress(DMA_IntegratorOut_TD[1], (uint16)(PDM_CIC_INT_L_HI16_OUTPUT_REG_PTR), (uint16)(
 1172              		.loc 1 767 0
 1173 0066 7B79     		ldrb	r3, [r7, #5]	@ zero_extendqisi2
 1174 0068 1846     		mov	r0, r3
 1175 006a 46F68801 		movw	r1, #26760
 1176 006e 46F61C02 		movw	r2, #26652
 1177 0072 FFF7FEFF 		bl	CyDmaTdSetAddress
 768:.\Generated_Source\PSoC5/PDM_CIC.c **** 		
 769:.\Generated_Source\PSoC5/PDM_CIC.c **** 		/* Set the initial TD for the channel */
 770:.\Generated_Source\PSoC5/PDM_CIC.c **** 		CyDmaChSetInitialTd(DMA_IntegratorOut_Channel, DMA_IntegratorOut_TD[0]);
 1178              		.loc 1 770 0
 1179 0076 3B79     		ldrb	r3, [r7, #4]	@ zero_extendqisi2
 1180 0078 FA79     		ldrb	r2, [r7, #7]	@ zero_extendqisi2
 1181 007a 1046     		mov	r0, r2
 1182 007c 1946     		mov	r1, r3
 1183 007e FFF7FEFF 		bl	CyDmaChSetInitialTd
 771:.\Generated_Source\PSoC5/PDM_CIC.c **** 	}
 1184              		.loc 1 771 0
 1185 0082 07F10807 		add	r7, r7, #8
 1186 0086 BD46     		mov	sp, r7
 1187 0088 80BD     		pop	{r7, pc}
 1188              		.cfi_endproc
 1189              	.LFE17:
 1190              		.size	PDM_CIC_IntOutDma_L_Init, .-PDM_CIC_IntOutDma_L_Init
 1191 008a 00BF     		.section	.text.PDM_CIC_IntOutDma_L_Start,"ax",%progbits
 1192              		.align	2
 1193              		.thumb
 1194              		.thumb_func
 1195              		.type	PDM_CIC_IntOutDma_L_Start, %function
 1196              	PDM_CIC_IntOutDma_L_Start:
 1197              	.LFB18:
 772:.\Generated_Source\PSoC5/PDM_CIC.c **** 
 773:.\Generated_Source\PSoC5/PDM_CIC.c **** 	/*******************************************************************************
 774:.\Generated_Source\PSoC5/PDM_CIC.c **** 	* Function Name: PDM_CIC_IntOutDma_L_Start
 775:.\Generated_Source\PSoC5/PDM_CIC.c **** 	********************************************************************************
 776:.\Generated_Source\PSoC5/PDM_CIC.c **** 	*
 777:.\Generated_Source\PSoC5/PDM_CIC.c **** 	* Summary:
 778:.\Generated_Source\PSoC5/PDM_CIC.c **** 	*  Starts the DMA channel associated with the left channel integrator output
 779:.\Generated_Source\PSoC5/PDM_CIC.c **** 	*
 780:.\Generated_Source\PSoC5/PDM_CIC.c **** 	* Parameters:
 781:.\Generated_Source\PSoC5/PDM_CIC.c **** 	*  None.
 782:.\Generated_Source\PSoC5/PDM_CIC.c **** 	*
 783:.\Generated_Source\PSoC5/PDM_CIC.c **** 	* Return:
 784:.\Generated_Source\PSoC5/PDM_CIC.c **** 	*  None.
 785:.\Generated_Source\PSoC5/PDM_CIC.c **** 	*
 786:.\Generated_Source\PSoC5/PDM_CIC.c **** 	* Global Variables:
 787:.\Generated_Source\PSoC5/PDM_CIC.c **** 	*  None.
 788:.\Generated_Source\PSoC5/PDM_CIC.c **** 	*
 789:.\Generated_Source\PSoC5/PDM_CIC.c **** 	*
 790:.\Generated_Source\PSoC5/PDM_CIC.c **** 	*******************************************************************************/
 791:.\Generated_Source\PSoC5/PDM_CIC.c **** 	static void PDM_CIC_IntOutDma_L_Start(void)
 792:.\Generated_Source\PSoC5/PDM_CIC.c **** 	{	
 1198              		.loc 1 792 0
 1199              		.cfi_startproc
ARM GAS  C:\DOCUME~1\ADMINI~1\LOCALS~1\Temp\ccvcEeBl.s 			page 36


 1200              		@ args = 0, pretend = 0, frame = 0
 1201              		@ frame_needed = 1, uses_anonymous_args = 0
 1202 0000 80B5     		push	{r7, lr}
 1203              	.LCFI41:
 1204              		.cfi_def_cfa_offset 8
 1205 0002 00AF     		add	r7, sp, #0
 1206              		.cfi_offset 14, -4
 1207              		.cfi_offset 7, -8
 1208              	.LCFI42:
 1209              		.cfi_def_cfa_register 7
 793:.\Generated_Source\PSoC5/PDM_CIC.c **** 		CyDmaClearPendingDrq(PDM_CIC_DMA_IntOut_L_DmaHandle);
 1210              		.loc 1 793 0
 1211 0004 40F20003 		movw	r3, #:lower16:PDM_CIC_DMA_IntOut_L_DmaHandle
 1212 0008 C0F20003 		movt	r3, #:upper16:PDM_CIC_DMA_IntOut_L_DmaHandle
 1213 000c 1B78     		ldrb	r3, [r3, #0]	@ zero_extendqisi2
 1214 000e 1846     		mov	r0, r3
 1215 0010 FFF7FEFF 		bl	CyDmaClearPendingDrq
 794:.\Generated_Source\PSoC5/PDM_CIC.c **** 		
 795:.\Generated_Source\PSoC5/PDM_CIC.c **** 		CyDmaChEnable(PDM_CIC_DMA_IntOut_L_DmaHandle, 1);
 1216              		.loc 1 795 0
 1217 0014 40F20003 		movw	r3, #:lower16:PDM_CIC_DMA_IntOut_L_DmaHandle
 1218 0018 C0F20003 		movt	r3, #:upper16:PDM_CIC_DMA_IntOut_L_DmaHandle
 1219 001c 1B78     		ldrb	r3, [r3, #0]	@ zero_extendqisi2
 1220 001e 1846     		mov	r0, r3
 1221 0020 4FF00101 		mov	r1, #1
 1222 0024 FFF7FEFF 		bl	CyDmaChEnable
 796:.\Generated_Source\PSoC5/PDM_CIC.c **** 	}
 1223              		.loc 1 796 0
 1224 0028 80BD     		pop	{r7, pc}
 1225              		.cfi_endproc
 1226              	.LFE18:
 1227              		.size	PDM_CIC_IntOutDma_L_Start, .-PDM_CIC_IntOutDma_L_Start
 1228 002a 00BF     		.section	.text.PDM_CIC_IntOutDma_L_Stop,"ax",%progbits
 1229              		.align	2
 1230              		.thumb
 1231              		.thumb_func
 1232              		.type	PDM_CIC_IntOutDma_L_Stop, %function
 1233              	PDM_CIC_IntOutDma_L_Stop:
 1234              	.LFB19:
 797:.\Generated_Source\PSoC5/PDM_CIC.c **** 
 798:.\Generated_Source\PSoC5/PDM_CIC.c **** 	/*******************************************************************************
 799:.\Generated_Source\PSoC5/PDM_CIC.c **** 	* Function Name: PDM_CIC_IntOutDma_L_Stop
 800:.\Generated_Source\PSoC5/PDM_CIC.c **** 	********************************************************************************
 801:.\Generated_Source\PSoC5/PDM_CIC.c **** 	*
 802:.\Generated_Source\PSoC5/PDM_CIC.c **** 	* Summary:
 803:.\Generated_Source\PSoC5/PDM_CIC.c **** 	*  Stops (and disables) the DMA channel associated with the left channel integrator output
 804:.\Generated_Source\PSoC5/PDM_CIC.c **** 	*
 805:.\Generated_Source\PSoC5/PDM_CIC.c **** 	* Parameters:
 806:.\Generated_Source\PSoC5/PDM_CIC.c **** 	*  None.
 807:.\Generated_Source\PSoC5/PDM_CIC.c **** 	*
 808:.\Generated_Source\PSoC5/PDM_CIC.c **** 	* Return:
 809:.\Generated_Source\PSoC5/PDM_CIC.c **** 	*  None.
 810:.\Generated_Source\PSoC5/PDM_CIC.c **** 	*
 811:.\Generated_Source\PSoC5/PDM_CIC.c **** 	* Global Variables:
 812:.\Generated_Source\PSoC5/PDM_CIC.c **** 	*  None.
 813:.\Generated_Source\PSoC5/PDM_CIC.c **** 	*
 814:.\Generated_Source\PSoC5/PDM_CIC.c **** 	*
ARM GAS  C:\DOCUME~1\ADMINI~1\LOCALS~1\Temp\ccvcEeBl.s 			page 37


 815:.\Generated_Source\PSoC5/PDM_CIC.c **** 	*******************************************************************************/
 816:.\Generated_Source\PSoC5/PDM_CIC.c **** 	static void PDM_CIC_IntOutDma_L_Stop(void)
 817:.\Generated_Source\PSoC5/PDM_CIC.c **** 	{	
 1235              		.loc 1 817 0
 1236              		.cfi_startproc
 1237              		@ args = 0, pretend = 0, frame = 0
 1238              		@ frame_needed = 1, uses_anonymous_args = 0
 1239 0000 80B5     		push	{r7, lr}
 1240              	.LCFI43:
 1241              		.cfi_def_cfa_offset 8
 1242 0002 00AF     		add	r7, sp, #0
 1243              		.cfi_offset 14, -4
 1244              		.cfi_offset 7, -8
 1245              	.LCFI44:
 1246              		.cfi_def_cfa_register 7
 818:.\Generated_Source\PSoC5/PDM_CIC.c **** 		/* Terminate the TD chain which also disables the channel */
 819:.\Generated_Source\PSoC5/PDM_CIC.c **** 		CyDmaChSetRequest(PDM_CIC_DMA_IntOut_L_DmaHandle , CPU_TERM_CHAIN);
 1247              		.loc 1 819 0
 1248 0004 40F20003 		movw	r3, #:lower16:PDM_CIC_DMA_IntOut_L_DmaHandle
 1249 0008 C0F20003 		movt	r3, #:upper16:PDM_CIC_DMA_IntOut_L_DmaHandle
 1250 000c 1B78     		ldrb	r3, [r3, #0]	@ zero_extendqisi2
 1251 000e 1846     		mov	r0, r3
 1252 0010 4FF00401 		mov	r1, #4
 1253 0014 FFF7FEFF 		bl	CyDmaChSetRequest
 820:.\Generated_Source\PSoC5/PDM_CIC.c **** 	}
 1254              		.loc 1 820 0
 1255 0018 80BD     		pop	{r7, pc}
 1256              		.cfi_endproc
 1257              	.LFE19:
 1258              		.size	PDM_CIC_IntOutDma_L_Stop, .-PDM_CIC_IntOutDma_L_Stop
 1259 001a 00BF     		.section	.text.PDM_CIC_CombD0UpdateDma_L_Init,"ax",%progbits
 1260              		.align	2
 1261              		.thumb
 1262              		.thumb_func
 1263              		.type	PDM_CIC_CombD0UpdateDma_L_Init, %function
 1264              	PDM_CIC_CombD0UpdateDma_L_Init:
 1265              	.LFB20:
 821:.\Generated_Source\PSoC5/PDM_CIC.c **** 
 822:.\Generated_Source\PSoC5/PDM_CIC.c **** 	/*******************************************************************************
 823:.\Generated_Source\PSoC5/PDM_CIC.c **** 	* Function Name: PDM_CIC_CombD0UpdateDma_L_Init
 824:.\Generated_Source\PSoC5/PDM_CIC.c **** 	********************************************************************************
 825:.\Generated_Source\PSoC5/PDM_CIC.c **** 	*
 826:.\Generated_Source\PSoC5/PDM_CIC.c **** 	* Summary:
 827:.\Generated_Source\PSoC5/PDM_CIC.c **** 	*  Initializes the DMA channel associated with the Comb D0 register update
 828:.\Generated_Source\PSoC5/PDM_CIC.c **** 	*  for left channel
 829:.\Generated_Source\PSoC5/PDM_CIC.c **** 	*
 830:.\Generated_Source\PSoC5/PDM_CIC.c **** 	* Parameters:
 831:.\Generated_Source\PSoC5/PDM_CIC.c **** 	*  None.
 832:.\Generated_Source\PSoC5/PDM_CIC.c **** 	*
 833:.\Generated_Source\PSoC5/PDM_CIC.c **** 	* Return:
 834:.\Generated_Source\PSoC5/PDM_CIC.c **** 	*  None.
 835:.\Generated_Source\PSoC5/PDM_CIC.c **** 	*
 836:.\Generated_Source\PSoC5/PDM_CIC.c **** 	* Global Variables:
 837:.\Generated_Source\PSoC5/PDM_CIC.c **** 	*  None.
 838:.\Generated_Source\PSoC5/PDM_CIC.c **** 	*
 839:.\Generated_Source\PSoC5/PDM_CIC.c **** 	*
 840:.\Generated_Source\PSoC5/PDM_CIC.c **** 	*******************************************************************************/
ARM GAS  C:\DOCUME~1\ADMINI~1\LOCALS~1\Temp\ccvcEeBl.s 			page 38


 841:.\Generated_Source\PSoC5/PDM_CIC.c **** 	static void PDM_CIC_CombD0UpdateDma_L_Init(void)
 842:.\Generated_Source\PSoC5/PDM_CIC.c **** 	{
 1266              		.loc 1 842 0
 1267              		.cfi_startproc
 1268              		@ args = 0, pretend = 0, frame = 8
 1269              		@ frame_needed = 1, uses_anonymous_args = 0
 1270 0000 80B5     		push	{r7, lr}
 1271              	.LCFI45:
 1272              		.cfi_def_cfa_offset 8
 1273 0002 82B0     		sub	sp, sp, #8
 1274              	.LCFI46:
 1275              		.cfi_def_cfa_offset 16
 1276 0004 00AF     		add	r7, sp, #0
 1277              		.cfi_offset 14, -4
 1278              		.cfi_offset 7, -8
 1279              	.LCFI47:
 1280              		.cfi_def_cfa_register 7
 843:.\Generated_Source\PSoC5/PDM_CIC.c **** 		uint8 DMA_CombD0Update_Channel, DMA_CombD0Update_TD[2];
 844:.\Generated_Source\PSoC5/PDM_CIC.c **** 
 845:.\Generated_Source\PSoC5/PDM_CIC.c **** 		/* Transfer data in 2-byte bursts since UDB spoke is 2 bytes wide.
 846:.\Generated_Source\PSoC5/PDM_CIC.c **** 			requestPerBurst = 1.
 847:.\Generated_Source\PSoC5/PDM_CIC.c **** 		   Peripheral (UDB) to Peripheral (UDB) transfer */
 848:.\Generated_Source\PSoC5/PDM_CIC.c **** 		DMA_CombD0Update_Channel = PDM_CIC_DMA_CombD0Update_L_DmaInitialize(2, 1, HI16(CYDEV_PERIPH_BASE)
 1281              		.loc 1 848 0
 1282 0006 4FF00200 		mov	r0, #2
 1283 000a 4FF00101 		mov	r1, #1
 1284 000e 4FF48042 		mov	r2, #16384
 1285 0012 4FF48043 		mov	r3, #16384
 1286 0016 FFF7FEFF 		bl	PDM_CIC_DMA_CombD0Update_L_DmaInitialize
 1287 001a 0346     		mov	r3, r0
 1288 001c FB71     		strb	r3, [r7, #7]
 849:.\Generated_Source\PSoC5/PDM_CIC.c **** 		DMA_CombD0Update_TD[0] = CyDmaTdAllocate();
 1289              		.loc 1 849 0
 1290 001e FFF7FEFF 		bl	CyDmaTdAllocate
 1291 0022 0346     		mov	r3, r0
 1292 0024 3B71     		strb	r3, [r7, #4]
 850:.\Generated_Source\PSoC5/PDM_CIC.c **** 		DMA_CombD0Update_TD[1] = CyDmaTdAllocate();
 1293              		.loc 1 850 0
 1294 0026 FFF7FEFF 		bl	CyDmaTdAllocate
 1295 002a 0346     		mov	r3, r0
 1296 002c 7B71     		strb	r3, [r7, #5]
 851:.\Generated_Source\PSoC5/PDM_CIC.c **** 		
 852:.\Generated_Source\PSoC5/PDM_CIC.c **** 		/* Circular TD's. Each TD transfer 2 bytes. Auto execute second TD. */
 853:.\Generated_Source\PSoC5/PDM_CIC.c **** 		CyDmaTdSetConfiguration(DMA_CombD0Update_TD[0], 2, DMA_CombD0Update_TD[1], TD_AUTO_EXEC_NEXT);
 1297              		.loc 1 853 0
 1298 002e 3A79     		ldrb	r2, [r7, #4]	@ zero_extendqisi2
 1299 0030 7B79     		ldrb	r3, [r7, #5]	@ zero_extendqisi2
 1300 0032 1046     		mov	r0, r2
 1301 0034 4FF00201 		mov	r1, #2
 1302 0038 1A46     		mov	r2, r3
 1303 003a 4FF02003 		mov	r3, #32
 1304 003e FFF7FEFF 		bl	CyDmaTdSetConfiguration
 854:.\Generated_Source\PSoC5/PDM_CIC.c **** 		CyDmaTdSetConfiguration(DMA_CombD0Update_TD[1], 2, DMA_CombD0Update_TD[0], PDM_CIC_DMA_CombD0Upda
 1305              		.loc 1 854 0
 1306 0042 7A79     		ldrb	r2, [r7, #5]	@ zero_extendqisi2
 1307 0044 3B79     		ldrb	r3, [r7, #4]	@ zero_extendqisi2
 1308 0046 1046     		mov	r0, r2
ARM GAS  C:\DOCUME~1\ADMINI~1\LOCALS~1\Temp\ccvcEeBl.s 			page 39


 1309 0048 4FF00201 		mov	r1, #2
 1310 004c 1A46     		mov	r2, r3
 1311 004e 4FF00403 		mov	r3, #4
 1312 0052 FFF7FEFF 		bl	CyDmaTdSetConfiguration
 855:.\Generated_Source\PSoC5/PDM_CIC.c **** 		
 856:.\Generated_Source\PSoC5/PDM_CIC.c **** 		/* Each TD transfers 16-bit A1 value to 16-bit D0. */
 857:.\Generated_Source\PSoC5/PDM_CIC.c **** 		CyDmaTdSetAddress(DMA_CombD0Update_TD[0], (uint16)PDM_CIC_Comb_L_genblk2_dp32_u0__16BIT_A1_REG, (
 1313              		.loc 1 857 0
 1314 0056 3B79     		ldrb	r3, [r7, #4]	@ zero_extendqisi2
 1315 0058 1846     		mov	r0, r3
 1316 005a 46F63801 		movw	r1, #26680
 1317 005e 46F65802 		movw	r2, #26712
 1318 0062 FFF7FEFF 		bl	CyDmaTdSetAddress
 858:.\Generated_Source\PSoC5/PDM_CIC.c **** 		CyDmaTdSetAddress(DMA_CombD0Update_TD[1], (uint16)PDM_CIC_Comb_L_genblk2_dp32_u2__16BIT_A1_REG, (
 1319              		.loc 1 858 0
 1320 0066 7B79     		ldrb	r3, [r7, #5]	@ zero_extendqisi2
 1321 0068 1846     		mov	r0, r3
 1322 006a 46F63C01 		movw	r1, #26684
 1323 006e 46F65C02 		movw	r2, #26716
 1324 0072 FFF7FEFF 		bl	CyDmaTdSetAddress
 859:.\Generated_Source\PSoC5/PDM_CIC.c **** 		
 860:.\Generated_Source\PSoC5/PDM_CIC.c **** 		/* Set the initial TD for the channel */
 861:.\Generated_Source\PSoC5/PDM_CIC.c **** 		CyDmaChSetInitialTd(DMA_CombD0Update_Channel, DMA_CombD0Update_TD[0]);
 1325              		.loc 1 861 0
 1326 0076 3B79     		ldrb	r3, [r7, #4]	@ zero_extendqisi2
 1327 0078 FA79     		ldrb	r2, [r7, #7]	@ zero_extendqisi2
 1328 007a 1046     		mov	r0, r2
 1329 007c 1946     		mov	r1, r3
 1330 007e FFF7FEFF 		bl	CyDmaChSetInitialTd
 862:.\Generated_Source\PSoC5/PDM_CIC.c **** 	}
 1331              		.loc 1 862 0
 1332 0082 07F10807 		add	r7, r7, #8
 1333 0086 BD46     		mov	sp, r7
 1334 0088 80BD     		pop	{r7, pc}
 1335              		.cfi_endproc
 1336              	.LFE20:
 1337              		.size	PDM_CIC_CombD0UpdateDma_L_Init, .-PDM_CIC_CombD0UpdateDma_L_Init
 1338 008a 00BF     		.section	.text.PDM_CIC_CombD0UpdateDma_L_Start,"ax",%progbits
 1339              		.align	2
 1340              		.thumb
 1341              		.thumb_func
 1342              		.type	PDM_CIC_CombD0UpdateDma_L_Start, %function
 1343              	PDM_CIC_CombD0UpdateDma_L_Start:
 1344              	.LFB21:
 863:.\Generated_Source\PSoC5/PDM_CIC.c **** 
 864:.\Generated_Source\PSoC5/PDM_CIC.c **** 	/*******************************************************************************
 865:.\Generated_Source\PSoC5/PDM_CIC.c **** 	* Function Name: PDM_CIC_CombD0UpdateDma_L_Start
 866:.\Generated_Source\PSoC5/PDM_CIC.c **** 	********************************************************************************
 867:.\Generated_Source\PSoC5/PDM_CIC.c **** 	*
 868:.\Generated_Source\PSoC5/PDM_CIC.c **** 	* Summary:
 869:.\Generated_Source\PSoC5/PDM_CIC.c **** 	*  Starts the DMA channel associated with the Comb D0 register update for left
 870:.\Generated_Source\PSoC5/PDM_CIC.c **** 	*  channel
 871:.\Generated_Source\PSoC5/PDM_CIC.c **** 	*
 872:.\Generated_Source\PSoC5/PDM_CIC.c **** 	* Parameters:
 873:.\Generated_Source\PSoC5/PDM_CIC.c **** 	*  None.
 874:.\Generated_Source\PSoC5/PDM_CIC.c **** 	*
 875:.\Generated_Source\PSoC5/PDM_CIC.c **** 	* Return:
ARM GAS  C:\DOCUME~1\ADMINI~1\LOCALS~1\Temp\ccvcEeBl.s 			page 40


 876:.\Generated_Source\PSoC5/PDM_CIC.c **** 	*  None.
 877:.\Generated_Source\PSoC5/PDM_CIC.c **** 	*
 878:.\Generated_Source\PSoC5/PDM_CIC.c **** 	* Global Variables:
 879:.\Generated_Source\PSoC5/PDM_CIC.c **** 	*  None.
 880:.\Generated_Source\PSoC5/PDM_CIC.c **** 	*
 881:.\Generated_Source\PSoC5/PDM_CIC.c **** 	*
 882:.\Generated_Source\PSoC5/PDM_CIC.c **** 	*******************************************************************************/
 883:.\Generated_Source\PSoC5/PDM_CIC.c **** 	static void PDM_CIC_CombD0UpdateDma_L_Start(void)
 884:.\Generated_Source\PSoC5/PDM_CIC.c **** 	{	
 1345              		.loc 1 884 0
 1346              		.cfi_startproc
 1347              		@ args = 0, pretend = 0, frame = 0
 1348              		@ frame_needed = 1, uses_anonymous_args = 0
 1349 0000 80B5     		push	{r7, lr}
 1350              	.LCFI48:
 1351              		.cfi_def_cfa_offset 8
 1352 0002 00AF     		add	r7, sp, #0
 1353              		.cfi_offset 14, -4
 1354              		.cfi_offset 7, -8
 1355              	.LCFI49:
 1356              		.cfi_def_cfa_register 7
 885:.\Generated_Source\PSoC5/PDM_CIC.c **** 		CyDmaClearPendingDrq(PDM_CIC_DMA_CombD0Update_L_DmaHandle);	
 1357              		.loc 1 885 0
 1358 0004 40F20003 		movw	r3, #:lower16:PDM_CIC_DMA_CombD0Update_L_DmaHandle
 1359 0008 C0F20003 		movt	r3, #:upper16:PDM_CIC_DMA_CombD0Update_L_DmaHandle
 1360 000c 1B78     		ldrb	r3, [r3, #0]	@ zero_extendqisi2
 1361 000e 1846     		mov	r0, r3
 1362 0010 FFF7FEFF 		bl	CyDmaClearPendingDrq
 886:.\Generated_Source\PSoC5/PDM_CIC.c **** 		CyDmaChEnable(PDM_CIC_DMA_CombD0Update_L_DmaHandle, 1);
 1363              		.loc 1 886 0
 1364 0014 40F20003 		movw	r3, #:lower16:PDM_CIC_DMA_CombD0Update_L_DmaHandle
 1365 0018 C0F20003 		movt	r3, #:upper16:PDM_CIC_DMA_CombD0Update_L_DmaHandle
 1366 001c 1B78     		ldrb	r3, [r3, #0]	@ zero_extendqisi2
 1367 001e 1846     		mov	r0, r3
 1368 0020 4FF00101 		mov	r1, #1
 1369 0024 FFF7FEFF 		bl	CyDmaChEnable
 887:.\Generated_Source\PSoC5/PDM_CIC.c **** 	}
 1370              		.loc 1 887 0
 1371 0028 80BD     		pop	{r7, pc}
 1372              		.cfi_endproc
 1373              	.LFE21:
 1374              		.size	PDM_CIC_CombD0UpdateDma_L_Start, .-PDM_CIC_CombD0UpdateDma_L_Start
 1375 002a 00BF     		.section	.text.PDM_CIC_CombD0UpdateDma_L_Stop,"ax",%progbits
 1376              		.align	2
 1377              		.thumb
 1378              		.thumb_func
 1379              		.type	PDM_CIC_CombD0UpdateDma_L_Stop, %function
 1380              	PDM_CIC_CombD0UpdateDma_L_Stop:
 1381              	.LFB22:
 888:.\Generated_Source\PSoC5/PDM_CIC.c **** 
 889:.\Generated_Source\PSoC5/PDM_CIC.c **** 	/*******************************************************************************
 890:.\Generated_Source\PSoC5/PDM_CIC.c **** 	* Function Name: PDM_CIC_CombD0UpdateDma_L_Stop
 891:.\Generated_Source\PSoC5/PDM_CIC.c **** 	********************************************************************************
 892:.\Generated_Source\PSoC5/PDM_CIC.c **** 	*
 893:.\Generated_Source\PSoC5/PDM_CIC.c **** 	* Summary:
 894:.\Generated_Source\PSoC5/PDM_CIC.c **** 	*  Stops (and disables) the DMA channel associated with the Comb D0 register update
 895:.\Generated_Source\PSoC5/PDM_CIC.c **** 	*  for the left channel
ARM GAS  C:\DOCUME~1\ADMINI~1\LOCALS~1\Temp\ccvcEeBl.s 			page 41


 896:.\Generated_Source\PSoC5/PDM_CIC.c **** 	*
 897:.\Generated_Source\PSoC5/PDM_CIC.c **** 	* Parameters:
 898:.\Generated_Source\PSoC5/PDM_CIC.c **** 	*  None.
 899:.\Generated_Source\PSoC5/PDM_CIC.c **** 	*
 900:.\Generated_Source\PSoC5/PDM_CIC.c **** 	* Return:
 901:.\Generated_Source\PSoC5/PDM_CIC.c **** 	*  None.
 902:.\Generated_Source\PSoC5/PDM_CIC.c **** 	*
 903:.\Generated_Source\PSoC5/PDM_CIC.c **** 	* Global Variables:
 904:.\Generated_Source\PSoC5/PDM_CIC.c **** 	*  None.
 905:.\Generated_Source\PSoC5/PDM_CIC.c **** 	*
 906:.\Generated_Source\PSoC5/PDM_CIC.c **** 	*
 907:.\Generated_Source\PSoC5/PDM_CIC.c **** 	*******************************************************************************/
 908:.\Generated_Source\PSoC5/PDM_CIC.c **** 	static void PDM_CIC_CombD0UpdateDma_L_Stop(void)
 909:.\Generated_Source\PSoC5/PDM_CIC.c **** 	{	
 1382              		.loc 1 909 0
 1383              		.cfi_startproc
 1384              		@ args = 0, pretend = 0, frame = 0
 1385              		@ frame_needed = 1, uses_anonymous_args = 0
 1386 0000 80B5     		push	{r7, lr}
 1387              	.LCFI50:
 1388              		.cfi_def_cfa_offset 8
 1389 0002 00AF     		add	r7, sp, #0
 1390              		.cfi_offset 14, -4
 1391              		.cfi_offset 7, -8
 1392              	.LCFI51:
 1393              		.cfi_def_cfa_register 7
 910:.\Generated_Source\PSoC5/PDM_CIC.c **** 		/* Terminate the TD chain which also disables the channel */
 911:.\Generated_Source\PSoC5/PDM_CIC.c **** 		CyDmaChSetRequest(PDM_CIC_DMA_CombD0Update_L_DmaHandle , CPU_TERM_CHAIN);
 1394              		.loc 1 911 0
 1395 0004 40F20003 		movw	r3, #:lower16:PDM_CIC_DMA_CombD0Update_L_DmaHandle
 1396 0008 C0F20003 		movt	r3, #:upper16:PDM_CIC_DMA_CombD0Update_L_DmaHandle
 1397 000c 1B78     		ldrb	r3, [r3, #0]	@ zero_extendqisi2
 1398 000e 1846     		mov	r0, r3
 1399 0010 4FF00401 		mov	r1, #4
 1400 0014 FFF7FEFF 		bl	CyDmaChSetRequest
 912:.\Generated_Source\PSoC5/PDM_CIC.c **** 	}
 1401              		.loc 1 912 0
 1402 0018 80BD     		pop	{r7, pc}
 1403              		.cfi_endproc
 1404              	.LFE22:
 1405              		.size	PDM_CIC_CombD0UpdateDma_L_Stop, .-PDM_CIC_CombD0UpdateDma_L_Stop
 1406 001a 00BF     		.text
 1407              	.Letext0: