ARM GAS  C:\DOCUME~1\ADMINI~1\LOCALS~1\Temp\ccdn5ALw.s 			page 1


   1              		.syntax unified
   2              		.cpu cortex-m3
   3              		.fpu softvfp
   4              		.eabi_attribute 20, 1
   5              		.eabi_attribute 21, 1
   6              		.eabi_attribute 23, 3
   7              		.eabi_attribute 24, 1
   8              		.eabi_attribute 25, 1
   9              		.eabi_attribute 26, 1
  10              		.eabi_attribute 30, 6
  11              		.eabi_attribute 18, 4
  12              		.thumb
  13              		.file	"USBFS_episr.c"
  20 0000 3D010000 		.text
  20      02009600 
  20      00000201 
  20      FB0E0D00 
  20      01010101 
  21              	.Ltext0:
  22              		.cfi_sections	.debug_frame
  23              		.section	.text.USBFS_EP_2_ISR,"ax",%progbits
  24              		.align	2
  25              		.global	USBFS_EP_2_ISR
  26              		.thumb
  27              		.thumb_func
  28              		.type	USBFS_EP_2_ISR, %function
  29              	USBFS_EP_2_ISR:
  30              	.LFB29:
  31              		.file 1 ".\\Generated_Source\\PSoC5\\USBFS_episr.c"
   1:.\Generated_Source\PSoC5/USBFS_episr.c **** /*******************************************************************************
   2:.\Generated_Source\PSoC5/USBFS_episr.c **** * File Name: USBFS_episr.c
   3:.\Generated_Source\PSoC5/USBFS_episr.c **** * Version 2.50
   4:.\Generated_Source\PSoC5/USBFS_episr.c **** *
   5:.\Generated_Source\PSoC5/USBFS_episr.c **** * Description:
   6:.\Generated_Source\PSoC5/USBFS_episr.c **** *  Data endpoint Interrupt Service Routines
   7:.\Generated_Source\PSoC5/USBFS_episr.c **** *
   8:.\Generated_Source\PSoC5/USBFS_episr.c **** * Note:
   9:.\Generated_Source\PSoC5/USBFS_episr.c **** *
  10:.\Generated_Source\PSoC5/USBFS_episr.c **** ********************************************************************************
  11:.\Generated_Source\PSoC5/USBFS_episr.c **** * Copyright 2008-2012, Cypress Semiconductor Corporation.  All rights reserved.
  12:.\Generated_Source\PSoC5/USBFS_episr.c **** * You may use this file only in accordance with the license, terms, conditions,
  13:.\Generated_Source\PSoC5/USBFS_episr.c **** * disclaimers, and limitations in the end user license agreement accompanying
  14:.\Generated_Source\PSoC5/USBFS_episr.c **** * the software package with which this file was provided.
  15:.\Generated_Source\PSoC5/USBFS_episr.c **** *******************************************************************************/
  16:.\Generated_Source\PSoC5/USBFS_episr.c **** 
  17:.\Generated_Source\PSoC5/USBFS_episr.c **** #include "USBFS.h"
  18:.\Generated_Source\PSoC5/USBFS_episr.c **** 
  19:.\Generated_Source\PSoC5/USBFS_episr.c **** 
  20:.\Generated_Source\PSoC5/USBFS_episr.c **** /***************************************
  21:.\Generated_Source\PSoC5/USBFS_episr.c **** * Custom Declarations
  22:.\Generated_Source\PSoC5/USBFS_episr.c **** ***************************************/
ARM GAS  C:\DOCUME~1\ADMINI~1\LOCALS~1\Temp\ccdn5ALw.s 			page 2


  23:.\Generated_Source\PSoC5/USBFS_episr.c **** /* `#START CUSTOM_DECLARATIONS` Place your declaration here */
  24:.\Generated_Source\PSoC5/USBFS_episr.c **** #include <Configuration.h>
  25:.\Generated_Source\PSoC5/USBFS_episr.c **** #include <Application.h>
  26:.\Generated_Source\PSoC5/USBFS_episr.c **** #include <AudioControl.h>
  27:.\Generated_Source\PSoC5/USBFS_episr.c **** #include <device.h>
  28:.\Generated_Source\PSoC5/USBFS_episr.c **** #include <USBInterface.h>
  29:.\Generated_Source\PSoC5/USBFS_episr.c **** 
  30:.\Generated_Source\PSoC5/USBFS_episr.c **** #ifndef ENABLE_DIGITAL_AUDIO_OUT_ONLY
  31:.\Generated_Source\PSoC5/USBFS_episr.c **** extern CYBIT inPlaying;
  32:.\Generated_Source\PSoC5/USBFS_episr.c **** #endif
  33:.\Generated_Source\PSoC5/USBFS_episr.c **** /* `#END` */
  34:.\Generated_Source\PSoC5/USBFS_episr.c **** 
  35:.\Generated_Source\PSoC5/USBFS_episr.c **** 
  36:.\Generated_Source\PSoC5/USBFS_episr.c **** /***************************************
  37:.\Generated_Source\PSoC5/USBFS_episr.c **** * External function references
  38:.\Generated_Source\PSoC5/USBFS_episr.c **** ***************************************/
  39:.\Generated_Source\PSoC5/USBFS_episr.c **** 
  40:.\Generated_Source\PSoC5/USBFS_episr.c **** void USBFS_InitComponent(uint8 device, uint8 mode) ;
  41:.\Generated_Source\PSoC5/USBFS_episr.c **** void USBFS_ReInitComponent(void) ;
  42:.\Generated_Source\PSoC5/USBFS_episr.c **** #if defined(USBFS_ENABLE_MIDI_STREAMING) && (USBFS_ENABLE_MIDI_API != 0u)
  43:.\Generated_Source\PSoC5/USBFS_episr.c ****     void USBFS_MIDI_OUT_EP_Service(void) ;
  44:.\Generated_Source\PSoC5/USBFS_episr.c **** #endif /* End USBFS_ENABLE_MIDI_STREAMING*/
  45:.\Generated_Source\PSoC5/USBFS_episr.c **** 
  46:.\Generated_Source\PSoC5/USBFS_episr.c **** 
  47:.\Generated_Source\PSoC5/USBFS_episr.c **** /***************************************
  48:.\Generated_Source\PSoC5/USBFS_episr.c **** * External references
  49:.\Generated_Source\PSoC5/USBFS_episr.c **** ***************************************/
  50:.\Generated_Source\PSoC5/USBFS_episr.c **** 
  51:.\Generated_Source\PSoC5/USBFS_episr.c **** extern volatile T_USBFS_EP_CTL_BLOCK USBFS_EP[];
  52:.\Generated_Source\PSoC5/USBFS_episr.c **** extern volatile uint8 USBFS_device;
  53:.\Generated_Source\PSoC5/USBFS_episr.c **** #if defined(USBFS_ENABLE_MIDI_STREAMING) && (USBFS_ENABLE_MIDI_API != 0u)
  54:.\Generated_Source\PSoC5/USBFS_episr.c ****     extern volatile uint8 USBFS_midi_out_ep;
  55:.\Generated_Source\PSoC5/USBFS_episr.c ****     extern volatile uint8 USBFS_midi_in_ep;
  56:.\Generated_Source\PSoC5/USBFS_episr.c ****     #if USBFS_MIDI_IN_BUFF_SIZE >= 256
  57:.\Generated_Source\PSoC5/USBFS_episr.c ****         extern volatile uint16 USBFS_midiInPointer;     /* Input endpoint buffer pointer */
  58:.\Generated_Source\PSoC5/USBFS_episr.c ****     #else
  59:.\Generated_Source\PSoC5/USBFS_episr.c ****         extern volatile uint8 USBFS_midiInPointer;      /* Input endpoint buffer pointer */
  60:.\Generated_Source\PSoC5/USBFS_episr.c ****     #endif /* End USBFS_MIDI_IN_BUFF_SIZE >=256 */    
  61:.\Generated_Source\PSoC5/USBFS_episr.c **** #endif /* End USBFS_ENABLE_MIDI_STREAMING*/
  62:.\Generated_Source\PSoC5/USBFS_episr.c **** 
  63:.\Generated_Source\PSoC5/USBFS_episr.c **** #if(USBFS_EP1_ISR_REMOVE == 0u)
  64:.\Generated_Source\PSoC5/USBFS_episr.c **** 
  65:.\Generated_Source\PSoC5/USBFS_episr.c **** 
  66:.\Generated_Source\PSoC5/USBFS_episr.c ****     /******************************************************************************
  67:.\Generated_Source\PSoC5/USBFS_episr.c ****     * Function Name: USBFS_EP_1_ISR
  68:.\Generated_Source\PSoC5/USBFS_episr.c ****     *******************************************************************************
  69:.\Generated_Source\PSoC5/USBFS_episr.c ****     *
  70:.\Generated_Source\PSoC5/USBFS_episr.c ****     * Summary:
  71:.\Generated_Source\PSoC5/USBFS_episr.c ****     *  Endpoint 1 Interrupt Service Routine
  72:.\Generated_Source\PSoC5/USBFS_episr.c ****     *
  73:.\Generated_Source\PSoC5/USBFS_episr.c ****     * Parameters:
  74:.\Generated_Source\PSoC5/USBFS_episr.c ****     *  None.
  75:.\Generated_Source\PSoC5/USBFS_episr.c ****     *
  76:.\Generated_Source\PSoC5/USBFS_episr.c ****     * Return:
  77:.\Generated_Source\PSoC5/USBFS_episr.c ****     *  None.
  78:.\Generated_Source\PSoC5/USBFS_episr.c ****     *
  79:.\Generated_Source\PSoC5/USBFS_episr.c ****     ******************************************************************************/
ARM GAS  C:\DOCUME~1\ADMINI~1\LOCALS~1\Temp\ccdn5ALw.s 			page 3


  80:.\Generated_Source\PSoC5/USBFS_episr.c ****     CY_ISR(USBFS_EP_1_ISR)
  81:.\Generated_Source\PSoC5/USBFS_episr.c ****     {
  82:.\Generated_Source\PSoC5/USBFS_episr.c ****         #if defined(USBFS_ENABLE_MIDI_STREAMING) && (USBFS_ENABLE_MIDI_API != 0u) && \
  83:.\Generated_Source\PSoC5/USBFS_episr.c ****             (USBFS_EP_MM == USBFS__EP_DMAAUTO) && (CY_PSOC3)
  84:.\Generated_Source\PSoC5/USBFS_episr.c ****             uint8 int_en;
  85:.\Generated_Source\PSoC5/USBFS_episr.c ****         #endif /* CY_PSOC3 & ENABLE_MIDI_STREAMING */
  86:.\Generated_Source\PSoC5/USBFS_episr.c ****     
  87:.\Generated_Source\PSoC5/USBFS_episr.c ****         /* `#START EP1_USER_CODE` Place your code here */
  88:.\Generated_Source\PSoC5/USBFS_episr.c **** 		#ifndef ENABLE_DIGITAL_AUDIO_IN_ONLY
  89:.\Generated_Source\PSoC5/USBFS_episr.c **** 		ProcessAudioOut();
  90:.\Generated_Source\PSoC5/USBFS_episr.c **** 		#endif
  91:.\Generated_Source\PSoC5/USBFS_episr.c ****         /* `#END` */
  92:.\Generated_Source\PSoC5/USBFS_episr.c **** 
  93:.\Generated_Source\PSoC5/USBFS_episr.c ****         #if defined(USBFS_ENABLE_MIDI_STREAMING) && (USBFS_ENABLE_MIDI_API != 0u) && \
  94:.\Generated_Source\PSoC5/USBFS_episr.c ****             (USBFS_EP_MM == USBFS__EP_DMAAUTO) && (CY_PSOC3)
  95:.\Generated_Source\PSoC5/USBFS_episr.c ****             int_en = EA;
  96:.\Generated_Source\PSoC5/USBFS_episr.c ****             CyGlobalIntEnable;  /* Make sure nested interrupt is enabled */
  97:.\Generated_Source\PSoC5/USBFS_episr.c ****         #endif /* CY_PSOC3 & ENABLE_MIDI_STREAMING */
  98:.\Generated_Source\PSoC5/USBFS_episr.c **** 
  99:.\Generated_Source\PSoC5/USBFS_episr.c ****         CY_GET_REG8(USBFS_SIE_EP1_CR0_PTR); /* Must read the mode reg */
 100:.\Generated_Source\PSoC5/USBFS_episr.c ****         /* Do not toggle ISOC endpoint */
 101:.\Generated_Source\PSoC5/USBFS_episr.c ****         if((USBFS_EP[USBFS_EP1].attrib & USBFS_EP_TYPE_MASK) !=
 102:.\Generated_Source\PSoC5/USBFS_episr.c ****                                                                                     USBFS_EP_TYPE_I
 103:.\Generated_Source\PSoC5/USBFS_episr.c ****         {
 104:.\Generated_Source\PSoC5/USBFS_episr.c ****             USBFS_EP[USBFS_EP1].epToggle ^= USBFS_EPX_CNT_DATA_TOGGLE;
 105:.\Generated_Source\PSoC5/USBFS_episr.c ****         }
 106:.\Generated_Source\PSoC5/USBFS_episr.c ****         USBFS_EP[USBFS_EP1].apiEpState = USBFS_EVENT_PENDING;
 107:.\Generated_Source\PSoC5/USBFS_episr.c ****         CY_SET_REG8(USBFS_SIE_EP_INT_SR_PTR, CY_GET_REG8(USBFS_SIE_EP_INT_SR_PTR)
 108:.\Generated_Source\PSoC5/USBFS_episr.c ****                                                                             & ~USBFS_SIE_EP_INT_EP1
 109:.\Generated_Source\PSoC5/USBFS_episr.c **** 
 110:.\Generated_Source\PSoC5/USBFS_episr.c ****         #if defined(USBFS_ENABLE_MIDI_STREAMING) && (USBFS_ENABLE_MIDI_API != 0u) && \
 111:.\Generated_Source\PSoC5/USBFS_episr.c ****             (USBFS_EP_MM == USBFS__EP_DMAAUTO) 
 112:.\Generated_Source\PSoC5/USBFS_episr.c ****             if(USBFS_midi_out_ep == USBFS_EP1)
 113:.\Generated_Source\PSoC5/USBFS_episr.c ****             {
 114:.\Generated_Source\PSoC5/USBFS_episr.c ****                 USBFS_MIDI_OUT_EP_Service();
 115:.\Generated_Source\PSoC5/USBFS_episr.c ****             }   
 116:.\Generated_Source\PSoC5/USBFS_episr.c ****         #endif /* End USBFS_ENABLE_MIDI_STREAMING*/
 117:.\Generated_Source\PSoC5/USBFS_episr.c **** 
 118:.\Generated_Source\PSoC5/USBFS_episr.c ****         /* `#START EP1_END_USER_CODE` Place your code here */
 119:.\Generated_Source\PSoC5/USBFS_episr.c **** 
 120:.\Generated_Source\PSoC5/USBFS_episr.c ****         /* `#END` */
 121:.\Generated_Source\PSoC5/USBFS_episr.c **** 
 122:.\Generated_Source\PSoC5/USBFS_episr.c ****         #if defined(USBFS_ENABLE_MIDI_STREAMING) && (USBFS_ENABLE_MIDI_API != 0u) && \
 123:.\Generated_Source\PSoC5/USBFS_episr.c ****             (USBFS_EP_MM == USBFS__EP_DMAAUTO) && (CY_PSOC3)
 124:.\Generated_Source\PSoC5/USBFS_episr.c ****             EA = int_en;
 125:.\Generated_Source\PSoC5/USBFS_episr.c ****         #endif /* CY_PSOC3 & ENABLE_MIDI_STREAMING */
 126:.\Generated_Source\PSoC5/USBFS_episr.c ****     }
 127:.\Generated_Source\PSoC5/USBFS_episr.c **** 
 128:.\Generated_Source\PSoC5/USBFS_episr.c **** #endif   /* End USBFS_EP1_ISR_REMOVE */
 129:.\Generated_Source\PSoC5/USBFS_episr.c **** 
 130:.\Generated_Source\PSoC5/USBFS_episr.c **** 
 131:.\Generated_Source\PSoC5/USBFS_episr.c **** #if(USBFS_EP2_ISR_REMOVE == 0u)
 132:.\Generated_Source\PSoC5/USBFS_episr.c **** 
 133:.\Generated_Source\PSoC5/USBFS_episr.c ****     /*******************************************************************************
 134:.\Generated_Source\PSoC5/USBFS_episr.c ****     * Function Name: USBFS_EP_2_ISR
 135:.\Generated_Source\PSoC5/USBFS_episr.c ****     ********************************************************************************
 136:.\Generated_Source\PSoC5/USBFS_episr.c ****     *
ARM GAS  C:\DOCUME~1\ADMINI~1\LOCALS~1\Temp\ccdn5ALw.s 			page 4


 137:.\Generated_Source\PSoC5/USBFS_episr.c ****     * Summary:
 138:.\Generated_Source\PSoC5/USBFS_episr.c ****     *  Endpoint 2 Interrupt Service Routine
 139:.\Generated_Source\PSoC5/USBFS_episr.c ****     *
 140:.\Generated_Source\PSoC5/USBFS_episr.c ****     * Parameters:
 141:.\Generated_Source\PSoC5/USBFS_episr.c ****     *  None.
 142:.\Generated_Source\PSoC5/USBFS_episr.c ****     *
 143:.\Generated_Source\PSoC5/USBFS_episr.c ****     * Return:
 144:.\Generated_Source\PSoC5/USBFS_episr.c ****     *  None.
 145:.\Generated_Source\PSoC5/USBFS_episr.c ****     *
 146:.\Generated_Source\PSoC5/USBFS_episr.c ****     *******************************************************************************/
 147:.\Generated_Source\PSoC5/USBFS_episr.c ****     CY_ISR(USBFS_EP_2_ISR)
 148:.\Generated_Source\PSoC5/USBFS_episr.c ****     {
  32              		.loc 1 148 0
  33              		.cfi_startproc
  34              		@ args = 0, pretend = 0, frame = 0
  35              		@ frame_needed = 1, uses_anonymous_args = 0
  36 0000 80B5     		push	{r7, lr}
  37              	.LCFI0:
  38              		.cfi_def_cfa_offset 8
  39 0002 00AF     		add	r7, sp, #0
  40              		.cfi_offset 14, -4
  41              		.cfi_offset 7, -8
  42              	.LCFI1:
  43              		.cfi_def_cfa_register 7
 149:.\Generated_Source\PSoC5/USBFS_episr.c ****         #if defined(USBFS_ENABLE_MIDI_STREAMING) && (USBFS_ENABLE_MIDI_API != 0u) && \
 150:.\Generated_Source\PSoC5/USBFS_episr.c ****             (USBFS_EP_MM == USBFS__EP_DMAAUTO) && (CY_PSOC3)
 151:.\Generated_Source\PSoC5/USBFS_episr.c ****             uint8 int_en;
 152:.\Generated_Source\PSoC5/USBFS_episr.c ****         #endif /* CY_PSOC3 & ENABLE_MIDI_STREAMING */
 153:.\Generated_Source\PSoC5/USBFS_episr.c ****     
 154:.\Generated_Source\PSoC5/USBFS_episr.c ****         /* `#START EP2_USER_CODE` Place your code here */
 155:.\Generated_Source\PSoC5/USBFS_episr.c ****         #ifndef ENABLE_DIGITAL_AUDIO_OUT_ONLY
 156:.\Generated_Source\PSoC5/USBFS_episr.c **** 		ProcessAudioIn();
  44              		.loc 1 156 0
  45 0004 FFF7FEFF 		bl	ProcessAudioIn
 157:.\Generated_Source\PSoC5/USBFS_episr.c ****         #endif
 158:.\Generated_Source\PSoC5/USBFS_episr.c ****         /* `#END` */
 159:.\Generated_Source\PSoC5/USBFS_episr.c **** 
 160:.\Generated_Source\PSoC5/USBFS_episr.c ****         #if defined(USBFS_ENABLE_MIDI_STREAMING) && (USBFS_ENABLE_MIDI_API != 0u) && \
 161:.\Generated_Source\PSoC5/USBFS_episr.c ****             (USBFS_EP_MM == USBFS__EP_DMAAUTO) && (CY_PSOC3)
 162:.\Generated_Source\PSoC5/USBFS_episr.c ****             int_en = EA;
 163:.\Generated_Source\PSoC5/USBFS_episr.c ****             CyGlobalIntEnable;  /* Make sure nested interrupt is enabled */
 164:.\Generated_Source\PSoC5/USBFS_episr.c ****         #endif /* CY_PSOC3 & ENABLE_MIDI_STREAMING */
 165:.\Generated_Source\PSoC5/USBFS_episr.c **** 
 166:.\Generated_Source\PSoC5/USBFS_episr.c ****         CY_GET_REG8(USBFS_SIE_EP2_CR0_PTR); /* Must read the mode reg */
  46              		.loc 1 166 0
  47 0008 46F21E03 		movw	r3, #:lower16:1073766430
  48 000c C4F20003 		movt	r3, #:upper16:1073766430
  49 0010 1B78     		ldrb	r3, [r3, #0]
 167:.\Generated_Source\PSoC5/USBFS_episr.c ****         /* Do not toggle ISOC endpoint */
 168:.\Generated_Source\PSoC5/USBFS_episr.c ****         if((USBFS_EP[USBFS_EP2].attrib & USBFS_EP_TYPE_MASK) !=
  50              		.loc 1 168 0
  51 0012 40F20003 		movw	r3, #:lower16:USBFS_EP
  52 0016 C0F20003 		movt	r3, #:upper16:USBFS_EP
  53 001a 1B7E     		ldrb	r3, [r3, #24]
  54 001c DBB2     		uxtb	r3, r3
  55 001e 03F00303 		and	r3, r3, #3
  56 0022 012B     		cmp	r3, #1
ARM GAS  C:\DOCUME~1\ADMINI~1\LOCALS~1\Temp\ccdn5ALw.s 			page 5


  57 0024 0FD0     		beq	.L2
 169:.\Generated_Source\PSoC5/USBFS_episr.c ****                                                                                     USBFS_EP_TYPE_I
 170:.\Generated_Source\PSoC5/USBFS_episr.c ****         {
 171:.\Generated_Source\PSoC5/USBFS_episr.c ****             USBFS_EP[USBFS_EP2].epToggle ^= USBFS_EPX_CNT_DATA_TOGGLE;
  58              		.loc 1 171 0
  59 0026 40F20003 		movw	r3, #:lower16:USBFS_EP
  60 002a C0F20003 		movt	r3, #:upper16:USBFS_EP
  61 002e DB7E     		ldrb	r3, [r3, #27]
  62 0030 DAB2     		uxtb	r2, r3
  63 0032 6FF07F03 		mvn	r3, #127
  64 0036 82EA0303 		eor	r3, r2, r3
  65 003a DAB2     		uxtb	r2, r3
  66 003c 40F20003 		movw	r3, #:lower16:USBFS_EP
  67 0040 C0F20003 		movt	r3, #:upper16:USBFS_EP
  68 0044 DA76     		strb	r2, [r3, #27]
  69              	.L2:
 172:.\Generated_Source\PSoC5/USBFS_episr.c ****         }
 173:.\Generated_Source\PSoC5/USBFS_episr.c ****         USBFS_EP[USBFS_EP2].apiEpState = USBFS_EVENT_PENDING;
  70              		.loc 1 173 0
  71 0046 40F20003 		movw	r3, #:lower16:USBFS_EP
  72 004a C0F20003 		movt	r3, #:upper16:USBFS_EP
  73 004e 4FF00102 		mov	r2, #1
  74 0052 5A76     		strb	r2, [r3, #25]
 174:.\Generated_Source\PSoC5/USBFS_episr.c ****         CY_SET_REG8(USBFS_SIE_EP_INT_SR_PTR, CY_GET_REG8(USBFS_SIE_EP_INT_SR_PTR)
  75              		.loc 1 174 0
  76 0054 46F20B03 		movw	r3, #:lower16:1073766411
  77 0058 C4F20003 		movt	r3, #:upper16:1073766411
  78 005c 46F20B02 		movw	r2, #:lower16:1073766411
  79 0060 C4F20002 		movt	r2, #:upper16:1073766411
  80 0064 1278     		ldrb	r2, [r2, #0]
  81 0066 D2B2     		uxtb	r2, r2
  82 0068 02F0FD02 		and	r2, r2, #253
  83 006c 1A70     		strb	r2, [r3, #0]
 175:.\Generated_Source\PSoC5/USBFS_episr.c ****                                                                         & ~USBFS_SIE_EP_INT_EP2_MAS
 176:.\Generated_Source\PSoC5/USBFS_episr.c **** 
 177:.\Generated_Source\PSoC5/USBFS_episr.c ****         #if defined(USBFS_ENABLE_MIDI_STREAMING) && (USBFS_ENABLE_MIDI_API != 0u) && \
 178:.\Generated_Source\PSoC5/USBFS_episr.c ****             (USBFS_EP_MM == USBFS__EP_DMAAUTO)
 179:.\Generated_Source\PSoC5/USBFS_episr.c ****             if(USBFS_midi_out_ep == USBFS_EP2)
 180:.\Generated_Source\PSoC5/USBFS_episr.c ****             {
 181:.\Generated_Source\PSoC5/USBFS_episr.c ****                 USBFS_MIDI_OUT_EP_Service();
 182:.\Generated_Source\PSoC5/USBFS_episr.c ****             }   
 183:.\Generated_Source\PSoC5/USBFS_episr.c ****         #endif /* End USBFS_ENABLE_MIDI_STREAMING*/
 184:.\Generated_Source\PSoC5/USBFS_episr.c **** 
 185:.\Generated_Source\PSoC5/USBFS_episr.c ****         /* `#START EP2_END_USER_CODE` Place your code here */
 186:.\Generated_Source\PSoC5/USBFS_episr.c **** 
 187:.\Generated_Source\PSoC5/USBFS_episr.c ****         /* `#END` */
 188:.\Generated_Source\PSoC5/USBFS_episr.c **** 
 189:.\Generated_Source\PSoC5/USBFS_episr.c ****         #if defined(USBFS_ENABLE_MIDI_STREAMING) && (USBFS_ENABLE_MIDI_API != 0u) && \
 190:.\Generated_Source\PSoC5/USBFS_episr.c ****             (USBFS_EP_MM == USBFS__EP_DMAAUTO) && (CY_PSOC3)
 191:.\Generated_Source\PSoC5/USBFS_episr.c ****             EA = int_en;
 192:.\Generated_Source\PSoC5/USBFS_episr.c ****         #endif /* CY_PSOC3 & ENABLE_MIDI_STREAMING */
 193:.\Generated_Source\PSoC5/USBFS_episr.c ****     }
  84              		.loc 1 193 0
  85 006e 80BD     		pop	{r7, pc}
  86              		.cfi_endproc
  87              	.LFE29:
  88              		.size	USBFS_EP_2_ISR, .-USBFS_EP_2_ISR
ARM GAS  C:\DOCUME~1\ADMINI~1\LOCALS~1\Temp\ccdn5ALw.s 			page 6


  89              		.section	.text.USBFS_EP_4_ISR,"ax",%progbits
  90              		.align	2
  91              		.global	USBFS_EP_4_ISR
  92              		.thumb
  93              		.thumb_func
  94              		.type	USBFS_EP_4_ISR, %function
  95              	USBFS_EP_4_ISR:
  96              	.LFB30:
 194:.\Generated_Source\PSoC5/USBFS_episr.c **** 
 195:.\Generated_Source\PSoC5/USBFS_episr.c **** #endif   /* End USBFS_EP2_ISR_REMOVE */
 196:.\Generated_Source\PSoC5/USBFS_episr.c **** 
 197:.\Generated_Source\PSoC5/USBFS_episr.c **** 
 198:.\Generated_Source\PSoC5/USBFS_episr.c **** #if(USBFS_EP3_ISR_REMOVE == 0u)
 199:.\Generated_Source\PSoC5/USBFS_episr.c **** 
 200:.\Generated_Source\PSoC5/USBFS_episr.c ****     /*******************************************************************************
 201:.\Generated_Source\PSoC5/USBFS_episr.c ****     * Function Name: USBFS_EP_3_ISR
 202:.\Generated_Source\PSoC5/USBFS_episr.c ****     ********************************************************************************
 203:.\Generated_Source\PSoC5/USBFS_episr.c ****     *
 204:.\Generated_Source\PSoC5/USBFS_episr.c ****     * Summary:
 205:.\Generated_Source\PSoC5/USBFS_episr.c ****     *  Endpoint 3 Interrupt Service Routine
 206:.\Generated_Source\PSoC5/USBFS_episr.c ****     *
 207:.\Generated_Source\PSoC5/USBFS_episr.c ****     * Parameters:
 208:.\Generated_Source\PSoC5/USBFS_episr.c ****     *  None.
 209:.\Generated_Source\PSoC5/USBFS_episr.c ****     *
 210:.\Generated_Source\PSoC5/USBFS_episr.c ****     * Return:
 211:.\Generated_Source\PSoC5/USBFS_episr.c ****     *  None.
 212:.\Generated_Source\PSoC5/USBFS_episr.c ****     *
 213:.\Generated_Source\PSoC5/USBFS_episr.c ****     *******************************************************************************/
 214:.\Generated_Source\PSoC5/USBFS_episr.c ****     CY_ISR(USBFS_EP_3_ISR)
 215:.\Generated_Source\PSoC5/USBFS_episr.c ****     {
 216:.\Generated_Source\PSoC5/USBFS_episr.c ****         #if defined(USBFS_ENABLE_MIDI_STREAMING) && (USBFS_ENABLE_MIDI_API != 0u) && \
 217:.\Generated_Source\PSoC5/USBFS_episr.c ****             (USBFS_EP_MM == USBFS__EP_DMAAUTO) && (CY_PSOC3)
 218:.\Generated_Source\PSoC5/USBFS_episr.c ****             uint8 int_en;
 219:.\Generated_Source\PSoC5/USBFS_episr.c ****         #endif /* CY_PSOC3 & ENABLE_MIDI_STREAMING */
 220:.\Generated_Source\PSoC5/USBFS_episr.c ****     
 221:.\Generated_Source\PSoC5/USBFS_episr.c ****         /* `#START EP3_USER_CODE` Place your code here */
 222:.\Generated_Source\PSoC5/USBFS_episr.c **** 
 223:.\Generated_Source\PSoC5/USBFS_episr.c ****         /* `#END` */
 224:.\Generated_Source\PSoC5/USBFS_episr.c **** 
 225:.\Generated_Source\PSoC5/USBFS_episr.c ****         #if defined(USBFS_ENABLE_MIDI_STREAMING) && (USBFS_ENABLE_MIDI_API != 0u) && \
 226:.\Generated_Source\PSoC5/USBFS_episr.c ****             (USBFS_EP_MM == USBFS__EP_DMAAUTO) && (CY_PSOC3)
 227:.\Generated_Source\PSoC5/USBFS_episr.c ****             int_en = EA;
 228:.\Generated_Source\PSoC5/USBFS_episr.c ****             CyGlobalIntEnable;  /* Make sure nested interrupt is enabled */
 229:.\Generated_Source\PSoC5/USBFS_episr.c ****         #endif /* CY_PSOC3 & ENABLE_MIDI_STREAMING */
 230:.\Generated_Source\PSoC5/USBFS_episr.c **** 
 231:.\Generated_Source\PSoC5/USBFS_episr.c ****         CY_GET_REG8(USBFS_SIE_EP3_CR0_PTR); /* Must read the mode reg */
 232:.\Generated_Source\PSoC5/USBFS_episr.c ****         /* Do not toggle ISOC endpoint */
 233:.\Generated_Source\PSoC5/USBFS_episr.c ****         if((USBFS_EP[USBFS_EP3].attrib & USBFS_EP_TYPE_MASK) !=
 234:.\Generated_Source\PSoC5/USBFS_episr.c ****                                                                                     USBFS_EP_TYPE_I
 235:.\Generated_Source\PSoC5/USBFS_episr.c ****         {
 236:.\Generated_Source\PSoC5/USBFS_episr.c ****             USBFS_EP[USBFS_EP3].epToggle ^= USBFS_EPX_CNT_DATA_TOGGLE;
 237:.\Generated_Source\PSoC5/USBFS_episr.c ****         }
 238:.\Generated_Source\PSoC5/USBFS_episr.c ****         USBFS_EP[USBFS_EP3].apiEpState = USBFS_EVENT_PENDING;
 239:.\Generated_Source\PSoC5/USBFS_episr.c ****         CY_SET_REG8(USBFS_SIE_EP_INT_SR_PTR, CY_GET_REG8(USBFS_SIE_EP_INT_SR_PTR)
 240:.\Generated_Source\PSoC5/USBFS_episr.c ****                                                                         & ~USBFS_SIE_EP_INT_EP3_MAS
 241:.\Generated_Source\PSoC5/USBFS_episr.c **** 
 242:.\Generated_Source\PSoC5/USBFS_episr.c ****         #if defined(USBFS_ENABLE_MIDI_STREAMING) && (USBFS_ENABLE_MIDI_API != 0u) && \
ARM GAS  C:\DOCUME~1\ADMINI~1\LOCALS~1\Temp\ccdn5ALw.s 			page 7


 243:.\Generated_Source\PSoC5/USBFS_episr.c ****             (USBFS_EP_MM == USBFS__EP_DMAAUTO) 
 244:.\Generated_Source\PSoC5/USBFS_episr.c ****             if(USBFS_midi_out_ep == USBFS_EP3)
 245:.\Generated_Source\PSoC5/USBFS_episr.c ****             {
 246:.\Generated_Source\PSoC5/USBFS_episr.c ****                 USBFS_MIDI_OUT_EP_Service();
 247:.\Generated_Source\PSoC5/USBFS_episr.c ****             }   
 248:.\Generated_Source\PSoC5/USBFS_episr.c ****         #endif /* End USBFS_ENABLE_MIDI_STREAMING*/
 249:.\Generated_Source\PSoC5/USBFS_episr.c **** 
 250:.\Generated_Source\PSoC5/USBFS_episr.c ****         /* `#START EP3_END_USER_CODE` Place your code here */
 251:.\Generated_Source\PSoC5/USBFS_episr.c **** 
 252:.\Generated_Source\PSoC5/USBFS_episr.c ****         /* `#END` */
 253:.\Generated_Source\PSoC5/USBFS_episr.c **** 
 254:.\Generated_Source\PSoC5/USBFS_episr.c ****         #if defined(USBFS_ENABLE_MIDI_STREAMING) && (USBFS_ENABLE_MIDI_API != 0u) && \
 255:.\Generated_Source\PSoC5/USBFS_episr.c ****             (USBFS_EP_MM == USBFS__EP_DMAAUTO) && (CY_PSOC3)
 256:.\Generated_Source\PSoC5/USBFS_episr.c ****             EA = int_en;
 257:.\Generated_Source\PSoC5/USBFS_episr.c ****         #endif /* CY_PSOC3 & ENABLE_MIDI_STREAMING */
 258:.\Generated_Source\PSoC5/USBFS_episr.c ****     }
 259:.\Generated_Source\PSoC5/USBFS_episr.c **** 
 260:.\Generated_Source\PSoC5/USBFS_episr.c **** #endif   /* End USBFS_EP3_ISR_REMOVE */
 261:.\Generated_Source\PSoC5/USBFS_episr.c **** 
 262:.\Generated_Source\PSoC5/USBFS_episr.c **** 
 263:.\Generated_Source\PSoC5/USBFS_episr.c **** #if(USBFS_EP4_ISR_REMOVE == 0u)
 264:.\Generated_Source\PSoC5/USBFS_episr.c **** 
 265:.\Generated_Source\PSoC5/USBFS_episr.c ****     /*******************************************************************************
 266:.\Generated_Source\PSoC5/USBFS_episr.c ****     * Function Name: USBFS_EP_4_ISR
 267:.\Generated_Source\PSoC5/USBFS_episr.c ****     ********************************************************************************
 268:.\Generated_Source\PSoC5/USBFS_episr.c ****     *
 269:.\Generated_Source\PSoC5/USBFS_episr.c ****     * Summary:
 270:.\Generated_Source\PSoC5/USBFS_episr.c ****     *  Endpoint 4 Interrupt Service Routine
 271:.\Generated_Source\PSoC5/USBFS_episr.c ****     *
 272:.\Generated_Source\PSoC5/USBFS_episr.c ****     * Parameters:
 273:.\Generated_Source\PSoC5/USBFS_episr.c ****     *  None.
 274:.\Generated_Source\PSoC5/USBFS_episr.c ****     *
 275:.\Generated_Source\PSoC5/USBFS_episr.c ****     * Return:
 276:.\Generated_Source\PSoC5/USBFS_episr.c ****     *  None.
 277:.\Generated_Source\PSoC5/USBFS_episr.c ****     *
 278:.\Generated_Source\PSoC5/USBFS_episr.c ****     *******************************************************************************/
 279:.\Generated_Source\PSoC5/USBFS_episr.c ****     CY_ISR(USBFS_EP_4_ISR)
 280:.\Generated_Source\PSoC5/USBFS_episr.c ****     {
  97              		.loc 1 280 0
  98              		.cfi_startproc
  99              		@ args = 0, pretend = 0, frame = 0
 100              		@ frame_needed = 1, uses_anonymous_args = 0
 101              		@ link register save eliminated.
 102 0000 80B4     		push	{r7}
 103              	.LCFI2:
 104              		.cfi_def_cfa_offset 4
 105 0002 00AF     		add	r7, sp, #0
 106              		.cfi_offset 7, -4
 107              	.LCFI3:
 108              		.cfi_def_cfa_register 7
 281:.\Generated_Source\PSoC5/USBFS_episr.c ****         #if defined(USBFS_ENABLE_MIDI_STREAMING) && (USBFS_ENABLE_MIDI_API != 0u) && \
 282:.\Generated_Source\PSoC5/USBFS_episr.c ****             (USBFS_EP_MM == USBFS__EP_DMAAUTO) && (CY_PSOC3)
 283:.\Generated_Source\PSoC5/USBFS_episr.c ****             uint8 int_en;
 284:.\Generated_Source\PSoC5/USBFS_episr.c ****         #endif /* CY_PSOC3 & ENABLE_MIDI_STREAMING */
 285:.\Generated_Source\PSoC5/USBFS_episr.c ****     
 286:.\Generated_Source\PSoC5/USBFS_episr.c ****         /* `#START EP4_USER_CODE` Place your code here */
 287:.\Generated_Source\PSoC5/USBFS_episr.c **** 
ARM GAS  C:\DOCUME~1\ADMINI~1\LOCALS~1\Temp\ccdn5ALw.s 			page 8


 288:.\Generated_Source\PSoC5/USBFS_episr.c ****         /* `#END` */
 289:.\Generated_Source\PSoC5/USBFS_episr.c **** 
 290:.\Generated_Source\PSoC5/USBFS_episr.c ****         #if defined(USBFS_ENABLE_MIDI_STREAMING) && (USBFS_ENABLE_MIDI_API != 0u) && \
 291:.\Generated_Source\PSoC5/USBFS_episr.c ****             (USBFS_EP_MM == USBFS__EP_DMAAUTO) && (CY_PSOC3)
 292:.\Generated_Source\PSoC5/USBFS_episr.c ****             int_en = EA;
 293:.\Generated_Source\PSoC5/USBFS_episr.c ****             CyGlobalIntEnable;  /* Make sure nested interrupt is enabled */
 294:.\Generated_Source\PSoC5/USBFS_episr.c ****         #endif /* CY_PSOC3 & ENABLE_MIDI_STREAMING */
 295:.\Generated_Source\PSoC5/USBFS_episr.c **** 
 296:.\Generated_Source\PSoC5/USBFS_episr.c ****         CY_GET_REG8(USBFS_SIE_EP4_CR0_PTR); /* Must read the mode reg */
 109              		.loc 1 296 0
 110 0004 46F23E03 		movw	r3, #:lower16:1073766462
 111 0008 C4F20003 		movt	r3, #:upper16:1073766462
 112 000c 1B78     		ldrb	r3, [r3, #0]
 297:.\Generated_Source\PSoC5/USBFS_episr.c ****         /* Do not toggle ISOC endpoint */
 298:.\Generated_Source\PSoC5/USBFS_episr.c ****         if((USBFS_EP[USBFS_EP4].attrib & USBFS_EP_TYPE_MASK) !=
 113              		.loc 1 298 0
 114 000e 40F20003 		movw	r3, #:lower16:USBFS_EP
 115 0012 C0F20003 		movt	r3, #:upper16:USBFS_EP
 116 0016 93F83030 		ldrb	r3, [r3, #48]
 117 001a DBB2     		uxtb	r3, r3
 118 001c 03F00303 		and	r3, r3, #3
 119 0020 012B     		cmp	r3, #1
 120 0022 11D0     		beq	.L5
 299:.\Generated_Source\PSoC5/USBFS_episr.c ****                                                                                     USBFS_EP_TYPE_I
 300:.\Generated_Source\PSoC5/USBFS_episr.c ****         {
 301:.\Generated_Source\PSoC5/USBFS_episr.c ****             USBFS_EP[USBFS_EP4].epToggle ^= USBFS_EPX_CNT_DATA_TOGGLE;
 121              		.loc 1 301 0
 122 0024 40F20003 		movw	r3, #:lower16:USBFS_EP
 123 0028 C0F20003 		movt	r3, #:upper16:USBFS_EP
 124 002c 93F83330 		ldrb	r3, [r3, #51]
 125 0030 DAB2     		uxtb	r2, r3
 126 0032 6FF07F03 		mvn	r3, #127
 127 0036 82EA0303 		eor	r3, r2, r3
 128 003a DAB2     		uxtb	r2, r3
 129 003c 40F20003 		movw	r3, #:lower16:USBFS_EP
 130 0040 C0F20003 		movt	r3, #:upper16:USBFS_EP
 131 0044 83F83320 		strb	r2, [r3, #51]
 132              	.L5:
 302:.\Generated_Source\PSoC5/USBFS_episr.c ****         }
 303:.\Generated_Source\PSoC5/USBFS_episr.c ****         USBFS_EP[USBFS_EP4].apiEpState = USBFS_EVENT_PENDING;
 133              		.loc 1 303 0
 134 0048 40F20003 		movw	r3, #:lower16:USBFS_EP
 135 004c C0F20003 		movt	r3, #:upper16:USBFS_EP
 136 0050 4FF00102 		mov	r2, #1
 137 0054 83F83120 		strb	r2, [r3, #49]
 304:.\Generated_Source\PSoC5/USBFS_episr.c ****         CY_SET_REG8(USBFS_SIE_EP_INT_SR_PTR, CY_GET_REG8(USBFS_SIE_EP_INT_SR_PTR)
 138              		.loc 1 304 0
 139 0058 46F20B03 		movw	r3, #:lower16:1073766411
 140 005c C4F20003 		movt	r3, #:upper16:1073766411
 141 0060 46F20B02 		movw	r2, #:lower16:1073766411
 142 0064 C4F20002 		movt	r2, #:upper16:1073766411
 143 0068 1278     		ldrb	r2, [r2, #0]
 144 006a D2B2     		uxtb	r2, r2
 145 006c 02F0F702 		and	r2, r2, #247
 146 0070 1A70     		strb	r2, [r3, #0]
 305:.\Generated_Source\PSoC5/USBFS_episr.c ****                                                                         & ~USBFS_SIE_EP_INT_EP4_MAS
 306:.\Generated_Source\PSoC5/USBFS_episr.c **** 
ARM GAS  C:\DOCUME~1\ADMINI~1\LOCALS~1\Temp\ccdn5ALw.s 			page 9


 307:.\Generated_Source\PSoC5/USBFS_episr.c ****         #if defined(USBFS_ENABLE_MIDI_STREAMING) && (USBFS_ENABLE_MIDI_API != 0u) && \
 308:.\Generated_Source\PSoC5/USBFS_episr.c ****             (USBFS_EP_MM == USBFS__EP_DMAAUTO) 
 309:.\Generated_Source\PSoC5/USBFS_episr.c ****             if(USBFS_midi_out_ep == USBFS_EP4)
 310:.\Generated_Source\PSoC5/USBFS_episr.c ****             {
 311:.\Generated_Source\PSoC5/USBFS_episr.c ****                 USBFS_MIDI_OUT_EP_Service();
 312:.\Generated_Source\PSoC5/USBFS_episr.c ****             }   
 313:.\Generated_Source\PSoC5/USBFS_episr.c ****         #endif /* End USBFS_ENABLE_MIDI_STREAMING*/
 314:.\Generated_Source\PSoC5/USBFS_episr.c **** 
 315:.\Generated_Source\PSoC5/USBFS_episr.c ****         /* `#START EP4_END_USER_CODE` Place your code here */
 316:.\Generated_Source\PSoC5/USBFS_episr.c **** 
 317:.\Generated_Source\PSoC5/USBFS_episr.c ****         /* `#END` */
 318:.\Generated_Source\PSoC5/USBFS_episr.c **** 
 319:.\Generated_Source\PSoC5/USBFS_episr.c ****         #if defined(USBFS_ENABLE_MIDI_STREAMING) && (USBFS_ENABLE_MIDI_API != 0u) && \
 320:.\Generated_Source\PSoC5/USBFS_episr.c ****             (USBFS_EP_MM == USBFS__EP_DMAAUTO) && (CY_PSOC3)
 321:.\Generated_Source\PSoC5/USBFS_episr.c ****             EA = int_en;
 322:.\Generated_Source\PSoC5/USBFS_episr.c ****         #endif /* CY_PSOC3 & ENABLE_MIDI_STREAMING */
 323:.\Generated_Source\PSoC5/USBFS_episr.c ****     }
 147              		.loc 1 323 0
 148 0072 BD46     		mov	sp, r7
 149 0074 80BC     		pop	{r7}
 150 0076 7047     		bx	lr
 151              		.cfi_endproc
 152              	.LFE30:
 153              		.size	USBFS_EP_4_ISR, .-USBFS_EP_4_ISR
 154              		.section	.text.USBFS_EP_6_ISR,"ax",%progbits
 155              		.align	2
 156              		.global	USBFS_EP_6_ISR
 157              		.thumb
 158              		.thumb_func
 159              		.type	USBFS_EP_6_ISR, %function
 160              	USBFS_EP_6_ISR:
 161              	.LFB31:
 324:.\Generated_Source\PSoC5/USBFS_episr.c **** 
 325:.\Generated_Source\PSoC5/USBFS_episr.c **** #endif   /* End USBFS_EP4_ISR_REMOVE */
 326:.\Generated_Source\PSoC5/USBFS_episr.c **** 
 327:.\Generated_Source\PSoC5/USBFS_episr.c **** 
 328:.\Generated_Source\PSoC5/USBFS_episr.c **** #if(USBFS_EP5_ISR_REMOVE == 0u)
 329:.\Generated_Source\PSoC5/USBFS_episr.c **** 
 330:.\Generated_Source\PSoC5/USBFS_episr.c ****     /*******************************************************************************
 331:.\Generated_Source\PSoC5/USBFS_episr.c ****     * Function Name: USBFS_EP_5_ISR
 332:.\Generated_Source\PSoC5/USBFS_episr.c ****     ********************************************************************************
 333:.\Generated_Source\PSoC5/USBFS_episr.c ****     *
 334:.\Generated_Source\PSoC5/USBFS_episr.c ****     * Summary:
 335:.\Generated_Source\PSoC5/USBFS_episr.c ****     *  Endpoint 5 Interrupt Service Routine
 336:.\Generated_Source\PSoC5/USBFS_episr.c ****     *
 337:.\Generated_Source\PSoC5/USBFS_episr.c ****     * Parameters:
 338:.\Generated_Source\PSoC5/USBFS_episr.c ****     *  None.
 339:.\Generated_Source\PSoC5/USBFS_episr.c ****     *
 340:.\Generated_Source\PSoC5/USBFS_episr.c ****     * Return:
 341:.\Generated_Source\PSoC5/USBFS_episr.c ****     *  None.
 342:.\Generated_Source\PSoC5/USBFS_episr.c ****     *
 343:.\Generated_Source\PSoC5/USBFS_episr.c ****     *******************************************************************************/
 344:.\Generated_Source\PSoC5/USBFS_episr.c ****     CY_ISR(USBFS_EP_5_ISR)
 345:.\Generated_Source\PSoC5/USBFS_episr.c ****     {
 346:.\Generated_Source\PSoC5/USBFS_episr.c ****         #if defined(USBFS_ENABLE_MIDI_STREAMING) && (USBFS_ENABLE_MIDI_API != 0u) && \
 347:.\Generated_Source\PSoC5/USBFS_episr.c ****             (USBFS_EP_MM == USBFS__EP_DMAAUTO) && (CY_PSOC3)
 348:.\Generated_Source\PSoC5/USBFS_episr.c ****             uint8 int_en;
ARM GAS  C:\DOCUME~1\ADMINI~1\LOCALS~1\Temp\ccdn5ALw.s 			page 10


 349:.\Generated_Source\PSoC5/USBFS_episr.c ****         #endif /* CY_PSOC3 & ENABLE_MIDI_STREAMING */
 350:.\Generated_Source\PSoC5/USBFS_episr.c ****     
 351:.\Generated_Source\PSoC5/USBFS_episr.c ****         /* `#START EP5_USER_CODE` Place your code here */
 352:.\Generated_Source\PSoC5/USBFS_episr.c **** 
 353:.\Generated_Source\PSoC5/USBFS_episr.c ****         /* `#END` */
 354:.\Generated_Source\PSoC5/USBFS_episr.c **** 
 355:.\Generated_Source\PSoC5/USBFS_episr.c ****         #if defined(USBFS_ENABLE_MIDI_STREAMING) && (USBFS_ENABLE_MIDI_API != 0u) && \
 356:.\Generated_Source\PSoC5/USBFS_episr.c ****             (USBFS_EP_MM == USBFS__EP_DMAAUTO) && (CY_PSOC3)
 357:.\Generated_Source\PSoC5/USBFS_episr.c ****             int_en = EA;
 358:.\Generated_Source\PSoC5/USBFS_episr.c ****             CyGlobalIntEnable;  /* Make sure nested interrupt is enabled */
 359:.\Generated_Source\PSoC5/USBFS_episr.c ****         #endif /* CY_PSOC3 & ENABLE_MIDI_STREAMING */
 360:.\Generated_Source\PSoC5/USBFS_episr.c **** 
 361:.\Generated_Source\PSoC5/USBFS_episr.c ****         CY_GET_REG8(USBFS_SIE_EP5_CR0_PTR); /* Must read the mode reg */
 362:.\Generated_Source\PSoC5/USBFS_episr.c ****         /* Do not toggle ISOC endpoint */
 363:.\Generated_Source\PSoC5/USBFS_episr.c ****         if((USBFS_EP[USBFS_EP5].attrib & USBFS_EP_TYPE_MASK) !=
 364:.\Generated_Source\PSoC5/USBFS_episr.c ****                                                                                     USBFS_EP_TYPE_I
 365:.\Generated_Source\PSoC5/USBFS_episr.c ****         {
 366:.\Generated_Source\PSoC5/USBFS_episr.c ****             USBFS_EP[USBFS_EP5].epToggle ^= USBFS_EPX_CNT_DATA_TOGGLE;
 367:.\Generated_Source\PSoC5/USBFS_episr.c ****         }
 368:.\Generated_Source\PSoC5/USBFS_episr.c ****         USBFS_EP[USBFS_EP5].apiEpState = USBFS_EVENT_PENDING;
 369:.\Generated_Source\PSoC5/USBFS_episr.c ****         CY_SET_REG8(USBFS_SIE_EP_INT_SR_PTR, CY_GET_REG8(USBFS_SIE_EP_INT_SR_PTR)
 370:.\Generated_Source\PSoC5/USBFS_episr.c ****                                                                         & ~USBFS_SIE_EP_INT_EP5_MAS
 371:.\Generated_Source\PSoC5/USBFS_episr.c **** 
 372:.\Generated_Source\PSoC5/USBFS_episr.c ****         #if defined(USBFS_ENABLE_MIDI_STREAMING) && (USBFS_ENABLE_MIDI_API != 0u) && \
 373:.\Generated_Source\PSoC5/USBFS_episr.c ****             (USBFS_EP_MM == USBFS__EP_DMAAUTO) 
 374:.\Generated_Source\PSoC5/USBFS_episr.c ****             if(USBFS_midi_out_ep == USBFS_EP5)
 375:.\Generated_Source\PSoC5/USBFS_episr.c ****             {
 376:.\Generated_Source\PSoC5/USBFS_episr.c ****                 USBFS_MIDI_OUT_EP_Service();
 377:.\Generated_Source\PSoC5/USBFS_episr.c ****             }   
 378:.\Generated_Source\PSoC5/USBFS_episr.c ****         #endif /* End USBFS_ENABLE_MIDI_STREAMING*/
 379:.\Generated_Source\PSoC5/USBFS_episr.c **** 
 380:.\Generated_Source\PSoC5/USBFS_episr.c ****         /* `#START EP5_END_USER_CODE` Place your code here */
 381:.\Generated_Source\PSoC5/USBFS_episr.c **** 
 382:.\Generated_Source\PSoC5/USBFS_episr.c ****         /* `#END` */
 383:.\Generated_Source\PSoC5/USBFS_episr.c **** 
 384:.\Generated_Source\PSoC5/USBFS_episr.c ****         #if defined(USBFS_ENABLE_MIDI_STREAMING) && (USBFS_ENABLE_MIDI_API != 0u) && \
 385:.\Generated_Source\PSoC5/USBFS_episr.c ****             (USBFS_EP_MM == USBFS__EP_DMAAUTO) && (CY_PSOC3)
 386:.\Generated_Source\PSoC5/USBFS_episr.c ****             EA = int_en;
 387:.\Generated_Source\PSoC5/USBFS_episr.c ****         #endif /* CY_PSOC3 & ENABLE_MIDI_STREAMING */
 388:.\Generated_Source\PSoC5/USBFS_episr.c ****     }
 389:.\Generated_Source\PSoC5/USBFS_episr.c **** #endif   /* End USBFS_EP5_ISR_REMOVE */
 390:.\Generated_Source\PSoC5/USBFS_episr.c **** 
 391:.\Generated_Source\PSoC5/USBFS_episr.c **** 
 392:.\Generated_Source\PSoC5/USBFS_episr.c **** #if(USBFS_EP6_ISR_REMOVE == 0u)
 393:.\Generated_Source\PSoC5/USBFS_episr.c **** 
 394:.\Generated_Source\PSoC5/USBFS_episr.c ****     /*******************************************************************************
 395:.\Generated_Source\PSoC5/USBFS_episr.c ****     * Function Name: USBFS_EP_6_ISR
 396:.\Generated_Source\PSoC5/USBFS_episr.c ****     ********************************************************************************
 397:.\Generated_Source\PSoC5/USBFS_episr.c ****     *
 398:.\Generated_Source\PSoC5/USBFS_episr.c ****     * Summary:
 399:.\Generated_Source\PSoC5/USBFS_episr.c ****     *  Endpoint 6 Interrupt Service Routine
 400:.\Generated_Source\PSoC5/USBFS_episr.c ****     *
 401:.\Generated_Source\PSoC5/USBFS_episr.c ****     * Parameters:
 402:.\Generated_Source\PSoC5/USBFS_episr.c ****     *  None.
 403:.\Generated_Source\PSoC5/USBFS_episr.c ****     *
 404:.\Generated_Source\PSoC5/USBFS_episr.c ****     * Return:
 405:.\Generated_Source\PSoC5/USBFS_episr.c ****     *  None.
ARM GAS  C:\DOCUME~1\ADMINI~1\LOCALS~1\Temp\ccdn5ALw.s 			page 11


 406:.\Generated_Source\PSoC5/USBFS_episr.c ****     *
 407:.\Generated_Source\PSoC5/USBFS_episr.c ****     *******************************************************************************/
 408:.\Generated_Source\PSoC5/USBFS_episr.c ****     CY_ISR(USBFS_EP_6_ISR)
 409:.\Generated_Source\PSoC5/USBFS_episr.c ****     {
 162              		.loc 1 409 0
 163              		.cfi_startproc
 164              		@ args = 0, pretend = 0, frame = 0
 165              		@ frame_needed = 1, uses_anonymous_args = 0
 166              		@ link register save eliminated.
 167 0000 80B4     		push	{r7}
 168              	.LCFI4:
 169              		.cfi_def_cfa_offset 4
 170 0002 00AF     		add	r7, sp, #0
 171              		.cfi_offset 7, -4
 172              	.LCFI5:
 173              		.cfi_def_cfa_register 7
 410:.\Generated_Source\PSoC5/USBFS_episr.c ****         #if defined(USBFS_ENABLE_MIDI_STREAMING) && (USBFS_ENABLE_MIDI_API != 0u) && \
 411:.\Generated_Source\PSoC5/USBFS_episr.c ****             (USBFS_EP_MM == USBFS__EP_DMAAUTO) && (CY_PSOC3)
 412:.\Generated_Source\PSoC5/USBFS_episr.c ****             uint8 int_en;
 413:.\Generated_Source\PSoC5/USBFS_episr.c ****         #endif /* CY_PSOC3 & ENABLE_MIDI_STREAMING */
 414:.\Generated_Source\PSoC5/USBFS_episr.c ****     
 415:.\Generated_Source\PSoC5/USBFS_episr.c ****         /* `#START EP6_USER_CODE` Place your code here */
 416:.\Generated_Source\PSoC5/USBFS_episr.c **** 
 417:.\Generated_Source\PSoC5/USBFS_episr.c ****         /* `#END` */
 418:.\Generated_Source\PSoC5/USBFS_episr.c **** 
 419:.\Generated_Source\PSoC5/USBFS_episr.c ****         #if defined(USBFS_ENABLE_MIDI_STREAMING) && (USBFS_ENABLE_MIDI_API != 0u) && \
 420:.\Generated_Source\PSoC5/USBFS_episr.c ****             (USBFS_EP_MM == USBFS__EP_DMAAUTO) && (CY_PSOC3)
 421:.\Generated_Source\PSoC5/USBFS_episr.c ****             int_en = EA;
 422:.\Generated_Source\PSoC5/USBFS_episr.c ****             CyGlobalIntEnable;  /* Make sure nested interrupt is enabled */
 423:.\Generated_Source\PSoC5/USBFS_episr.c ****         #endif /* CY_PSOC3 & ENABLE_MIDI_STREAMING */
 424:.\Generated_Source\PSoC5/USBFS_episr.c **** 
 425:.\Generated_Source\PSoC5/USBFS_episr.c ****         CY_GET_REG8(USBFS_SIE_EP6_CR0_PTR); /* Must read the mode reg */
 174              		.loc 1 425 0
 175 0004 46F25E03 		movw	r3, #:lower16:1073766494
 176 0008 C4F20003 		movt	r3, #:upper16:1073766494
 177 000c 1B78     		ldrb	r3, [r3, #0]
 426:.\Generated_Source\PSoC5/USBFS_episr.c ****         /* Do not toggle ISOC endpoint */
 427:.\Generated_Source\PSoC5/USBFS_episr.c ****         if((USBFS_EP[USBFS_EP6].attrib & USBFS_EP_TYPE_MASK) !=
 178              		.loc 1 427 0
 179 000e 40F20003 		movw	r3, #:lower16:USBFS_EP
 180 0012 C0F20003 		movt	r3, #:upper16:USBFS_EP
 181 0016 93F84830 		ldrb	r3, [r3, #72]
 182 001a DBB2     		uxtb	r3, r3
 183 001c 03F00303 		and	r3, r3, #3
 184 0020 012B     		cmp	r3, #1
 185 0022 11D0     		beq	.L8
 428:.\Generated_Source\PSoC5/USBFS_episr.c ****                                                                                     USBFS_EP_TYPE_I
 429:.\Generated_Source\PSoC5/USBFS_episr.c ****         {
 430:.\Generated_Source\PSoC5/USBFS_episr.c ****             USBFS_EP[USBFS_EP6].epToggle ^= USBFS_EPX_CNT_DATA_TOGGLE;
 186              		.loc 1 430 0
 187 0024 40F20003 		movw	r3, #:lower16:USBFS_EP
 188 0028 C0F20003 		movt	r3, #:upper16:USBFS_EP
 189 002c 93F84B30 		ldrb	r3, [r3, #75]
 190 0030 DAB2     		uxtb	r2, r3
 191 0032 6FF07F03 		mvn	r3, #127
 192 0036 82EA0303 		eor	r3, r2, r3
 193 003a DAB2     		uxtb	r2, r3
ARM GAS  C:\DOCUME~1\ADMINI~1\LOCALS~1\Temp\ccdn5ALw.s 			page 12


 194 003c 40F20003 		movw	r3, #:lower16:USBFS_EP
 195 0040 C0F20003 		movt	r3, #:upper16:USBFS_EP
 196 0044 83F84B20 		strb	r2, [r3, #75]
 197              	.L8:
 431:.\Generated_Source\PSoC5/USBFS_episr.c ****         }
 432:.\Generated_Source\PSoC5/USBFS_episr.c ****         USBFS_EP[USBFS_EP6].apiEpState = USBFS_EVENT_PENDING;
 198              		.loc 1 432 0
 199 0048 40F20003 		movw	r3, #:lower16:USBFS_EP
 200 004c C0F20003 		movt	r3, #:upper16:USBFS_EP
 201 0050 4FF00102 		mov	r2, #1
 202 0054 83F84920 		strb	r2, [r3, #73]
 433:.\Generated_Source\PSoC5/USBFS_episr.c ****         CY_SET_REG8(USBFS_SIE_EP_INT_SR_PTR, CY_GET_REG8(USBFS_SIE_EP_INT_SR_PTR)
 203              		.loc 1 433 0
 204 0058 46F20B03 		movw	r3, #:lower16:1073766411
 205 005c C4F20003 		movt	r3, #:upper16:1073766411
 206 0060 46F20B02 		movw	r2, #:lower16:1073766411
 207 0064 C4F20002 		movt	r2, #:upper16:1073766411
 208 0068 1278     		ldrb	r2, [r2, #0]
 209 006a D2B2     		uxtb	r2, r2
 210 006c 02F0DF02 		and	r2, r2, #223
 211 0070 1A70     		strb	r2, [r3, #0]
 434:.\Generated_Source\PSoC5/USBFS_episr.c ****                                                                         & ~USBFS_SIE_EP_INT_EP6_MAS
 435:.\Generated_Source\PSoC5/USBFS_episr.c **** 
 436:.\Generated_Source\PSoC5/USBFS_episr.c ****         #if defined(USBFS_ENABLE_MIDI_STREAMING) && (USBFS_ENABLE_MIDI_API != 0u) && \
 437:.\Generated_Source\PSoC5/USBFS_episr.c ****             (USBFS_EP_MM == USBFS__EP_DMAAUTO) 
 438:.\Generated_Source\PSoC5/USBFS_episr.c ****             if(USBFS_midi_out_ep == USBFS_EP6)
 439:.\Generated_Source\PSoC5/USBFS_episr.c ****             {
 440:.\Generated_Source\PSoC5/USBFS_episr.c ****                 USBFS_MIDI_OUT_EP_Service();
 441:.\Generated_Source\PSoC5/USBFS_episr.c ****             }   
 442:.\Generated_Source\PSoC5/USBFS_episr.c ****         #endif /* End USBFS_ENABLE_MIDI_STREAMING*/
 443:.\Generated_Source\PSoC5/USBFS_episr.c **** 
 444:.\Generated_Source\PSoC5/USBFS_episr.c ****         /* `#START EP6_END_USER_CODE` Place your code here */
 445:.\Generated_Source\PSoC5/USBFS_episr.c **** 
 446:.\Generated_Source\PSoC5/USBFS_episr.c ****         /* `#END` */
 447:.\Generated_Source\PSoC5/USBFS_episr.c **** 
 448:.\Generated_Source\PSoC5/USBFS_episr.c ****         #if defined(USBFS_ENABLE_MIDI_STREAMING) && (USBFS_ENABLE_MIDI_API != 0u) && \
 449:.\Generated_Source\PSoC5/USBFS_episr.c ****             (USBFS_EP_MM == USBFS__EP_DMAAUTO) && (CY_PSOC3)
 450:.\Generated_Source\PSoC5/USBFS_episr.c ****             EA = int_en;
 451:.\Generated_Source\PSoC5/USBFS_episr.c ****         #endif /* CY_PSOC3 & ENABLE_MIDI_STREAMING */
 452:.\Generated_Source\PSoC5/USBFS_episr.c ****     }
 212              		.loc 1 452 0
 213 0072 BD46     		mov	sp, r7
 214 0074 80BC     		pop	{r7}
 215 0076 7047     		bx	lr
 216              		.cfi_endproc
 217              	.LFE31:
 218              		.size	USBFS_EP_6_ISR, .-USBFS_EP_6_ISR
 219              		.section	.text.USBFS_SOF_ISR,"ax",%progbits
 220              		.align	2
 221              		.global	USBFS_SOF_ISR
 222              		.thumb
 223              		.thumb_func
 224              		.type	USBFS_SOF_ISR, %function
 225              	USBFS_SOF_ISR:
 226              	.LFB32:
 453:.\Generated_Source\PSoC5/USBFS_episr.c **** 
 454:.\Generated_Source\PSoC5/USBFS_episr.c **** #endif   /* End USBFS_EP6_ISR_REMOVE */
ARM GAS  C:\DOCUME~1\ADMINI~1\LOCALS~1\Temp\ccdn5ALw.s 			page 13


 455:.\Generated_Source\PSoC5/USBFS_episr.c **** 
 456:.\Generated_Source\PSoC5/USBFS_episr.c **** 
 457:.\Generated_Source\PSoC5/USBFS_episr.c **** #if(USBFS_EP7_ISR_REMOVE == 0u)
 458:.\Generated_Source\PSoC5/USBFS_episr.c **** 
 459:.\Generated_Source\PSoC5/USBFS_episr.c ****     /*******************************************************************************
 460:.\Generated_Source\PSoC5/USBFS_episr.c ****     * Function Name: USBFS_EP_7_ISR
 461:.\Generated_Source\PSoC5/USBFS_episr.c ****     ********************************************************************************
 462:.\Generated_Source\PSoC5/USBFS_episr.c ****     *
 463:.\Generated_Source\PSoC5/USBFS_episr.c ****     * Summary:
 464:.\Generated_Source\PSoC5/USBFS_episr.c ****     *  Endpoint 7 Interrupt Service Routine
 465:.\Generated_Source\PSoC5/USBFS_episr.c ****     *
 466:.\Generated_Source\PSoC5/USBFS_episr.c ****     * Parameters:
 467:.\Generated_Source\PSoC5/USBFS_episr.c ****     *  None.
 468:.\Generated_Source\PSoC5/USBFS_episr.c ****     *
 469:.\Generated_Source\PSoC5/USBFS_episr.c ****     * Return:
 470:.\Generated_Source\PSoC5/USBFS_episr.c ****     *  None.
 471:.\Generated_Source\PSoC5/USBFS_episr.c ****     *
 472:.\Generated_Source\PSoC5/USBFS_episr.c ****     *******************************************************************************/
 473:.\Generated_Source\PSoC5/USBFS_episr.c ****     CY_ISR(USBFS_EP_7_ISR)
 474:.\Generated_Source\PSoC5/USBFS_episr.c ****     {
 475:.\Generated_Source\PSoC5/USBFS_episr.c ****         #if defined(USBFS_ENABLE_MIDI_STREAMING) && (USBFS_ENABLE_MIDI_API != 0u) && \
 476:.\Generated_Source\PSoC5/USBFS_episr.c ****             (USBFS_EP_MM == USBFS__EP_DMAAUTO) && (CY_PSOC3)
 477:.\Generated_Source\PSoC5/USBFS_episr.c ****             uint8 int_en;
 478:.\Generated_Source\PSoC5/USBFS_episr.c ****         #endif /* CY_PSOC3 & ENABLE_MIDI_STREAMING */
 479:.\Generated_Source\PSoC5/USBFS_episr.c ****     
 480:.\Generated_Source\PSoC5/USBFS_episr.c ****         /* `#START EP7_USER_CODE` Place your code here */
 481:.\Generated_Source\PSoC5/USBFS_episr.c **** 		
 482:.\Generated_Source\PSoC5/USBFS_episr.c ****         /* `#END` */
 483:.\Generated_Source\PSoC5/USBFS_episr.c **** 
 484:.\Generated_Source\PSoC5/USBFS_episr.c ****         #if defined(USBFS_ENABLE_MIDI_STREAMING) && (USBFS_ENABLE_MIDI_API != 0u) && \
 485:.\Generated_Source\PSoC5/USBFS_episr.c ****             (USBFS_EP_MM == USBFS__EP_DMAAUTO) && (CY_PSOC3)
 486:.\Generated_Source\PSoC5/USBFS_episr.c ****             int_en = EA;
 487:.\Generated_Source\PSoC5/USBFS_episr.c ****             CyGlobalIntEnable;  /* Make sure nested interrupt is enabled */
 488:.\Generated_Source\PSoC5/USBFS_episr.c ****         #endif /* CY_PSOC3 & ENABLE_MIDI_STREAMING */
 489:.\Generated_Source\PSoC5/USBFS_episr.c **** 
 490:.\Generated_Source\PSoC5/USBFS_episr.c ****         CY_GET_REG8(USBFS_SIE_EP7_CR0_PTR); /* Must read the mode reg */
 491:.\Generated_Source\PSoC5/USBFS_episr.c ****         /* Do not toggle ISOC endpoint */
 492:.\Generated_Source\PSoC5/USBFS_episr.c ****         if((USBFS_EP[USBFS_EP7].attrib & USBFS_EP_TYPE_MASK) !=
 493:.\Generated_Source\PSoC5/USBFS_episr.c ****                                                                                     USBFS_EP_TYPE_I
 494:.\Generated_Source\PSoC5/USBFS_episr.c ****         {
 495:.\Generated_Source\PSoC5/USBFS_episr.c ****             USBFS_EP[USBFS_EP7].epToggle ^= USBFS_EPX_CNT_DATA_TOGGLE;
 496:.\Generated_Source\PSoC5/USBFS_episr.c ****         }
 497:.\Generated_Source\PSoC5/USBFS_episr.c ****         USBFS_EP[USBFS_EP7].apiEpState = USBFS_EVENT_PENDING;
 498:.\Generated_Source\PSoC5/USBFS_episr.c ****         CY_SET_REG8(USBFS_SIE_EP_INT_SR_PTR, CY_GET_REG8(USBFS_SIE_EP_INT_SR_PTR)
 499:.\Generated_Source\PSoC5/USBFS_episr.c ****                                                                         & ~USBFS_SIE_EP_INT_EP7_MAS
 500:.\Generated_Source\PSoC5/USBFS_episr.c **** 
 501:.\Generated_Source\PSoC5/USBFS_episr.c ****         #if defined(USBFS_ENABLE_MIDI_STREAMING) && (USBFS_ENABLE_MIDI_API != 0u) && \
 502:.\Generated_Source\PSoC5/USBFS_episr.c ****             (USBFS_EP_MM == USBFS__EP_DMAAUTO) 
 503:.\Generated_Source\PSoC5/USBFS_episr.c ****             if(USBFS_midi_out_ep == USBFS_EP7)
 504:.\Generated_Source\PSoC5/USBFS_episr.c ****             {
 505:.\Generated_Source\PSoC5/USBFS_episr.c ****                 USBFS_MIDI_OUT_EP_Service();
 506:.\Generated_Source\PSoC5/USBFS_episr.c ****             }   
 507:.\Generated_Source\PSoC5/USBFS_episr.c ****         #endif /* End USBFS_ENABLE_MIDI_STREAMING*/
 508:.\Generated_Source\PSoC5/USBFS_episr.c **** 
 509:.\Generated_Source\PSoC5/USBFS_episr.c ****         /* `#START EP7_END_USER_CODE` Place your code here */
 510:.\Generated_Source\PSoC5/USBFS_episr.c **** 
 511:.\Generated_Source\PSoC5/USBFS_episr.c ****         /* `#END` */
ARM GAS  C:\DOCUME~1\ADMINI~1\LOCALS~1\Temp\ccdn5ALw.s 			page 14


 512:.\Generated_Source\PSoC5/USBFS_episr.c **** 
 513:.\Generated_Source\PSoC5/USBFS_episr.c ****         #if defined(USBFS_ENABLE_MIDI_STREAMING) && (USBFS_ENABLE_MIDI_API != 0u) && \
 514:.\Generated_Source\PSoC5/USBFS_episr.c ****             (USBFS_EP_MM == USBFS__EP_DMAAUTO) && (CY_PSOC3)
 515:.\Generated_Source\PSoC5/USBFS_episr.c ****             EA = int_en;
 516:.\Generated_Source\PSoC5/USBFS_episr.c ****         #endif /* CY_PSOC3 & ENABLE_MIDI_STREAMING */
 517:.\Generated_Source\PSoC5/USBFS_episr.c ****     }
 518:.\Generated_Source\PSoC5/USBFS_episr.c **** 
 519:.\Generated_Source\PSoC5/USBFS_episr.c **** #endif   /* End USBFS_EP7_ISR_REMOVE */
 520:.\Generated_Source\PSoC5/USBFS_episr.c **** 
 521:.\Generated_Source\PSoC5/USBFS_episr.c **** 
 522:.\Generated_Source\PSoC5/USBFS_episr.c **** #if(USBFS_EP8_ISR_REMOVE == 0u)
 523:.\Generated_Source\PSoC5/USBFS_episr.c **** 
 524:.\Generated_Source\PSoC5/USBFS_episr.c ****     /*******************************************************************************
 525:.\Generated_Source\PSoC5/USBFS_episr.c ****     * Function Name: USBFS_EP_8_ISR
 526:.\Generated_Source\PSoC5/USBFS_episr.c ****     ********************************************************************************
 527:.\Generated_Source\PSoC5/USBFS_episr.c ****     *
 528:.\Generated_Source\PSoC5/USBFS_episr.c ****     * Summary:
 529:.\Generated_Source\PSoC5/USBFS_episr.c ****     *  Endpoint 8 Interrupt Service Routine
 530:.\Generated_Source\PSoC5/USBFS_episr.c ****     *
 531:.\Generated_Source\PSoC5/USBFS_episr.c ****     * Parameters:
 532:.\Generated_Source\PSoC5/USBFS_episr.c ****     *  None.
 533:.\Generated_Source\PSoC5/USBFS_episr.c ****     *
 534:.\Generated_Source\PSoC5/USBFS_episr.c ****     * Return:
 535:.\Generated_Source\PSoC5/USBFS_episr.c ****     *  None.
 536:.\Generated_Source\PSoC5/USBFS_episr.c ****     *
 537:.\Generated_Source\PSoC5/USBFS_episr.c ****     *******************************************************************************/
 538:.\Generated_Source\PSoC5/USBFS_episr.c ****     CY_ISR(USBFS_EP_8_ISR)
 539:.\Generated_Source\PSoC5/USBFS_episr.c ****     {
 540:.\Generated_Source\PSoC5/USBFS_episr.c ****         #if defined(USBFS_ENABLE_MIDI_STREAMING) && (USBFS_ENABLE_MIDI_API != 0u) && \
 541:.\Generated_Source\PSoC5/USBFS_episr.c ****             (USBFS_EP_MM == USBFS__EP_DMAAUTO) && (CY_PSOC3)
 542:.\Generated_Source\PSoC5/USBFS_episr.c ****             uint8 int_en;
 543:.\Generated_Source\PSoC5/USBFS_episr.c ****         #endif /* CY_PSOC3 & ENABLE_MIDI_STREAMING */
 544:.\Generated_Source\PSoC5/USBFS_episr.c ****     
 545:.\Generated_Source\PSoC5/USBFS_episr.c ****         /* `#START EP8_USER_CODE` Place your code here */
 546:.\Generated_Source\PSoC5/USBFS_episr.c ****         #ifdef MIDI_ENABLED
 547:.\Generated_Source\PSoC5/USBFS_episr.c ****         /* `#END` */
 548:.\Generated_Source\PSoC5/USBFS_episr.c **** 
 549:.\Generated_Source\PSoC5/USBFS_episr.c ****         #if defined(USBFS_ENABLE_MIDI_STREAMING) && (USBFS_ENABLE_MIDI_API != 0u) && \
 550:.\Generated_Source\PSoC5/USBFS_episr.c ****             (USBFS_EP_MM == USBFS__EP_DMAAUTO) && (CY_PSOC3)
 551:.\Generated_Source\PSoC5/USBFS_episr.c ****             int_en = EA;
 552:.\Generated_Source\PSoC5/USBFS_episr.c ****             CyGlobalIntEnable;  /* Make sure nested interrupt is enabled */
 553:.\Generated_Source\PSoC5/USBFS_episr.c ****         #endif /* CY_PSOC3 & ENABLE_MIDI_STREAMING */
 554:.\Generated_Source\PSoC5/USBFS_episr.c **** 
 555:.\Generated_Source\PSoC5/USBFS_episr.c ****         CY_GET_REG8(USBFS_SIE_EP8_CR0_PTR); /* Must read the mode reg */
 556:.\Generated_Source\PSoC5/USBFS_episr.c ****         /* Do not toggle ISOC endpoint */
 557:.\Generated_Source\PSoC5/USBFS_episr.c ****         if((USBFS_EP[USBFS_EP8].attrib & USBFS_EP_TYPE_MASK) !=
 558:.\Generated_Source\PSoC5/USBFS_episr.c ****                                                                                     USBFS_EP_TYPE_I
 559:.\Generated_Source\PSoC5/USBFS_episr.c ****         {
 560:.\Generated_Source\PSoC5/USBFS_episr.c ****             USBFS_EP[USBFS_EP8].epToggle ^= USBFS_EPX_CNT_DATA_TOGGLE;
 561:.\Generated_Source\PSoC5/USBFS_episr.c ****         }
 562:.\Generated_Source\PSoC5/USBFS_episr.c ****         USBFS_EP[USBFS_EP8].apiEpState = USBFS_EVENT_PENDING;
 563:.\Generated_Source\PSoC5/USBFS_episr.c ****         CY_SET_REG8(USBFS_SIE_EP_INT_SR_PTR, CY_GET_REG8(USBFS_SIE_EP_INT_SR_PTR)
 564:.\Generated_Source\PSoC5/USBFS_episr.c ****                                                                         & ~USBFS_SIE_EP_INT_EP8_MAS
 565:.\Generated_Source\PSoC5/USBFS_episr.c **** 
 566:.\Generated_Source\PSoC5/USBFS_episr.c ****         #if defined(USBFS_ENABLE_MIDI_STREAMING) && (USBFS_ENABLE_MIDI_API != 0u) && \
 567:.\Generated_Source\PSoC5/USBFS_episr.c ****             (USBFS_EP_MM == USBFS__EP_DMAAUTO) 
 568:.\Generated_Source\PSoC5/USBFS_episr.c ****             if(USBFS_midi_out_ep == USBFS_EP8)
ARM GAS  C:\DOCUME~1\ADMINI~1\LOCALS~1\Temp\ccdn5ALw.s 			page 15


 569:.\Generated_Source\PSoC5/USBFS_episr.c ****             {
 570:.\Generated_Source\PSoC5/USBFS_episr.c ****                 USBFS_MIDI_OUT_EP_Service();
 571:.\Generated_Source\PSoC5/USBFS_episr.c ****             }   
 572:.\Generated_Source\PSoC5/USBFS_episr.c ****         #endif /* End USBFS_ENABLE_MIDI_STREAMING*/
 573:.\Generated_Source\PSoC5/USBFS_episr.c **** 
 574:.\Generated_Source\PSoC5/USBFS_episr.c ****         /* `#START EP8_END_USER_CODE` Place your code here */
 575:.\Generated_Source\PSoC5/USBFS_episr.c ****         #endif
 576:.\Generated_Source\PSoC5/USBFS_episr.c ****         /* `#END` */
 577:.\Generated_Source\PSoC5/USBFS_episr.c **** 
 578:.\Generated_Source\PSoC5/USBFS_episr.c ****         #if defined(USBFS_ENABLE_MIDI_STREAMING) && (USBFS_ENABLE_MIDI_API != 0u) && \
 579:.\Generated_Source\PSoC5/USBFS_episr.c ****             (USBFS_EP_MM == USBFS__EP_DMAAUTO) && (CY_PSOC3)
 580:.\Generated_Source\PSoC5/USBFS_episr.c ****             EA = int_en;
 581:.\Generated_Source\PSoC5/USBFS_episr.c ****         #endif /* CY_PSOC3 & ENABLE_MIDI_STREAMING */
 582:.\Generated_Source\PSoC5/USBFS_episr.c ****     }
 583:.\Generated_Source\PSoC5/USBFS_episr.c **** 
 584:.\Generated_Source\PSoC5/USBFS_episr.c **** #endif   /* End USBFS_EP8_ISR_REMOVE */
 585:.\Generated_Source\PSoC5/USBFS_episr.c **** 
 586:.\Generated_Source\PSoC5/USBFS_episr.c **** 
 587:.\Generated_Source\PSoC5/USBFS_episr.c **** /*******************************************************************************
 588:.\Generated_Source\PSoC5/USBFS_episr.c **** * Function Name: USBFS_SOF_ISR
 589:.\Generated_Source\PSoC5/USBFS_episr.c **** ********************************************************************************
 590:.\Generated_Source\PSoC5/USBFS_episr.c **** *
 591:.\Generated_Source\PSoC5/USBFS_episr.c **** * Summary:
 592:.\Generated_Source\PSoC5/USBFS_episr.c **** *  Start of Frame Interrupt Service Routine
 593:.\Generated_Source\PSoC5/USBFS_episr.c **** *
 594:.\Generated_Source\PSoC5/USBFS_episr.c **** * Parameters:
 595:.\Generated_Source\PSoC5/USBFS_episr.c **** *  None.
 596:.\Generated_Source\PSoC5/USBFS_episr.c **** *
 597:.\Generated_Source\PSoC5/USBFS_episr.c **** * Return:
 598:.\Generated_Source\PSoC5/USBFS_episr.c **** *  None.
 599:.\Generated_Source\PSoC5/USBFS_episr.c **** *
 600:.\Generated_Source\PSoC5/USBFS_episr.c **** *******************************************************************************/
 601:.\Generated_Source\PSoC5/USBFS_episr.c **** CY_ISR(USBFS_SOF_ISR)
 602:.\Generated_Source\PSoC5/USBFS_episr.c **** {
 227              		.loc 1 602 0
 228              		.cfi_startproc
 229              		@ args = 0, pretend = 0, frame = 0
 230              		@ frame_needed = 1, uses_anonymous_args = 0
 231              		@ link register save eliminated.
 232 0000 80B4     		push	{r7}
 233              	.LCFI6:
 234              		.cfi_def_cfa_offset 4
 235 0002 00AF     		add	r7, sp, #0
 236              		.cfi_offset 7, -4
 237              	.LCFI7:
 238              		.cfi_def_cfa_register 7
 603:.\Generated_Source\PSoC5/USBFS_episr.c ****     /* `#START SOF_USER_CODE` Place your code here */
 604:.\Generated_Source\PSoC5/USBFS_episr.c **** 
 605:.\Generated_Source\PSoC5/USBFS_episr.c ****     /* `#END` */
 606:.\Generated_Source\PSoC5/USBFS_episr.c **** }
 239              		.loc 1 606 0
 240 0004 BD46     		mov	sp, r7
 241 0006 80BC     		pop	{r7}
 242 0008 7047     		bx	lr
 243              		.cfi_endproc
 244              	.LFE32:
 245              		.size	USBFS_SOF_ISR, .-USBFS_SOF_ISR
ARM GAS  C:\DOCUME~1\ADMINI~1\LOCALS~1\Temp\ccdn5ALw.s 			page 16


 246 000a 00BF     		.section	.text.USBFS_BUS_RESET_ISR,"ax",%progbits
 247              		.align	2
 248              		.global	USBFS_BUS_RESET_ISR
 249              		.thumb
 250              		.thumb_func
 251              		.type	USBFS_BUS_RESET_ISR, %function
 252              	USBFS_BUS_RESET_ISR:
 253              	.LFB33:
 607:.\Generated_Source\PSoC5/USBFS_episr.c **** 
 608:.\Generated_Source\PSoC5/USBFS_episr.c **** 
 609:.\Generated_Source\PSoC5/USBFS_episr.c **** /*******************************************************************************
 610:.\Generated_Source\PSoC5/USBFS_episr.c **** * Function Name: USBFS_BUS_RESET_ISR
 611:.\Generated_Source\PSoC5/USBFS_episr.c **** ********************************************************************************
 612:.\Generated_Source\PSoC5/USBFS_episr.c **** *
 613:.\Generated_Source\PSoC5/USBFS_episr.c **** * Summary:
 614:.\Generated_Source\PSoC5/USBFS_episr.c **** *  USB Bus Reset Interrupt Service Routine.  Calls _Start with the same
 615:.\Generated_Source\PSoC5/USBFS_episr.c **** *  parameters as the last USER call to _Start
 616:.\Generated_Source\PSoC5/USBFS_episr.c **** *
 617:.\Generated_Source\PSoC5/USBFS_episr.c **** * Parameters:
 618:.\Generated_Source\PSoC5/USBFS_episr.c **** *  None.
 619:.\Generated_Source\PSoC5/USBFS_episr.c **** *
 620:.\Generated_Source\PSoC5/USBFS_episr.c **** * Return:
 621:.\Generated_Source\PSoC5/USBFS_episr.c **** *  None.
 622:.\Generated_Source\PSoC5/USBFS_episr.c **** *
 623:.\Generated_Source\PSoC5/USBFS_episr.c **** *******************************************************************************/
 624:.\Generated_Source\PSoC5/USBFS_episr.c **** CY_ISR(USBFS_BUS_RESET_ISR)
 625:.\Generated_Source\PSoC5/USBFS_episr.c **** {
 254              		.loc 1 625 0
 255              		.cfi_startproc
 256              		@ args = 0, pretend = 0, frame = 0
 257              		@ frame_needed = 1, uses_anonymous_args = 0
 258 0000 80B5     		push	{r7, lr}
 259              	.LCFI8:
 260              		.cfi_def_cfa_offset 8
 261 0002 00AF     		add	r7, sp, #0
 262              		.cfi_offset 14, -4
 263              		.cfi_offset 7, -8
 264              	.LCFI9:
 265              		.cfi_def_cfa_register 7
 626:.\Generated_Source\PSoC5/USBFS_episr.c ****     /* `#START BUS_RESET_USER_CODE` Place your code here */
 627:.\Generated_Source\PSoC5/USBFS_episr.c ****     
 628:.\Generated_Source\PSoC5/USBFS_episr.c ****     /* `#END` */
 629:.\Generated_Source\PSoC5/USBFS_episr.c **** 
 630:.\Generated_Source\PSoC5/USBFS_episr.c ****     USBFS_ReInitComponent();
 266              		.loc 1 630 0
 267 0004 FFF7FEFF 		bl	USBFS_ReInitComponent
 631:.\Generated_Source\PSoC5/USBFS_episr.c **** }
 268              		.loc 1 631 0
 269 0008 80BD     		pop	{r7, pc}
 270              		.cfi_endproc
 271              	.LFE33:
 272              		.size	USBFS_BUS_RESET_ISR, .-USBFS_BUS_RESET_ISR
 273 000a 00BF     		.section	.text.USBFS_ARB_ISR,"ax",%progbits
 274              		.align	2
 275              		.global	USBFS_ARB_ISR
 276              		.thumb
 277              		.thumb_func
ARM GAS  C:\DOCUME~1\ADMINI~1\LOCALS~1\Temp\ccdn5ALw.s 			page 17


 278              		.type	USBFS_ARB_ISR, %function
 279              	USBFS_ARB_ISR:
 280              	.LFB34:
 632:.\Generated_Source\PSoC5/USBFS_episr.c **** 
 633:.\Generated_Source\PSoC5/USBFS_episr.c **** 
 634:.\Generated_Source\PSoC5/USBFS_episr.c **** #if((USBFS_EP_MM != USBFS__EP_MANUAL) && (USBFS_ARB_ISR_REMOVE == 0u))
 635:.\Generated_Source\PSoC5/USBFS_episr.c **** 
 636:.\Generated_Source\PSoC5/USBFS_episr.c **** 
 637:.\Generated_Source\PSoC5/USBFS_episr.c ****     /*******************************************************************************
 638:.\Generated_Source\PSoC5/USBFS_episr.c ****     * Function Name: USBFS_ARB_ISR
 639:.\Generated_Source\PSoC5/USBFS_episr.c ****     ********************************************************************************
 640:.\Generated_Source\PSoC5/USBFS_episr.c ****     *
 641:.\Generated_Source\PSoC5/USBFS_episr.c ****     * Summary:
 642:.\Generated_Source\PSoC5/USBFS_episr.c ****     *  Arbiter Interrupt Service Routine
 643:.\Generated_Source\PSoC5/USBFS_episr.c ****     *
 644:.\Generated_Source\PSoC5/USBFS_episr.c ****     * Parameters:
 645:.\Generated_Source\PSoC5/USBFS_episr.c ****     *  None.
 646:.\Generated_Source\PSoC5/USBFS_episr.c ****     *
 647:.\Generated_Source\PSoC5/USBFS_episr.c ****     * Return:
 648:.\Generated_Source\PSoC5/USBFS_episr.c ****     *  None.
 649:.\Generated_Source\PSoC5/USBFS_episr.c ****     *
 650:.\Generated_Source\PSoC5/USBFS_episr.c ****     * Side effect:
 651:.\Generated_Source\PSoC5/USBFS_episr.c ****     *  Search for EP8 int_status will be much slower than search for EP1 int_status.
 652:.\Generated_Source\PSoC5/USBFS_episr.c ****     *
 653:.\Generated_Source\PSoC5/USBFS_episr.c ****     *******************************************************************************/
 654:.\Generated_Source\PSoC5/USBFS_episr.c ****     CY_ISR(USBFS_ARB_ISR)
 655:.\Generated_Source\PSoC5/USBFS_episr.c ****     {
 281              		.loc 1 655 0
 282              		.cfi_startproc
 283              		@ args = 0, pretend = 0, frame = 8
 284              		@ frame_needed = 1, uses_anonymous_args = 0
 285              		@ link register save eliminated.
 286 0000 80B4     		push	{r7}
 287              	.LCFI10:
 288              		.cfi_def_cfa_offset 4
 289 0002 83B0     		sub	sp, sp, #12
 290              	.LCFI11:
 291              		.cfi_def_cfa_offset 16
 292 0004 00AF     		add	r7, sp, #0
 293              		.cfi_offset 7, -4
 294              	.LCFI12:
 295              		.cfi_def_cfa_register 7
 656:.\Generated_Source\PSoC5/USBFS_episr.c ****         uint8 int_status;
 657:.\Generated_Source\PSoC5/USBFS_episr.c ****         uint8 ep_status;
 658:.\Generated_Source\PSoC5/USBFS_episr.c ****         uint8 ep = USBFS_EP1;
 296              		.loc 1 658 0
 297 0006 4FF00103 		mov	r3, #1
 298 000a BB71     		strb	r3, [r7, #6]
 659:.\Generated_Source\PSoC5/USBFS_episr.c ****         uint8 ptr = 0u;
 299              		.loc 1 659 0
 300 000c 4FF00003 		mov	r3, #0
 301 0010 FB71     		strb	r3, [r7, #7]
 660:.\Generated_Source\PSoC5/USBFS_episr.c **** 
 661:.\Generated_Source\PSoC5/USBFS_episr.c ****         /* `#START ARB_BEGIN_USER_CODE` Place your code here */
 662:.\Generated_Source\PSoC5/USBFS_episr.c **** 		int_status = USBFS_ARB_INT_SR_REG;                   /* read Arbiter Status Register */
 302              		.loc 1 662 0
 303 0012 46F29F03 		movw	r3, #:lower16:1073766559
ARM GAS  C:\DOCUME~1\ADMINI~1\LOCALS~1\Temp\ccdn5ALw.s 			page 18


 304 0016 C4F20003 		movt	r3, #:upper16:1073766559
 305 001a 1B78     		ldrb	r3, [r3, #0]
 306 001c 3B71     		strb	r3, [r7, #4]
 663:.\Generated_Source\PSoC5/USBFS_episr.c ****         USBFS_ARB_INT_SR_REG = int_status;                   /* Clear Serviced Interrupts */
 307              		.loc 1 663 0
 308 001e 46F29F03 		movw	r3, #:lower16:1073766559
 309 0022 C4F20003 		movt	r3, #:upper16:1073766559
 310 0026 3A79     		ldrb	r2, [r7, #4]
 311 0028 1A70     		strb	r2, [r3, #0]
 664:.\Generated_Source\PSoC5/USBFS_episr.c **** 
 665:.\Generated_Source\PSoC5/USBFS_episr.c ****         while(int_status != 0u)
 312              		.loc 1 665 0
 313 002a 5EE0     		b	.L15
 314              	.L18:
 666:.\Generated_Source\PSoC5/USBFS_episr.c ****         {
 667:.\Generated_Source\PSoC5/USBFS_episr.c ****             if(int_status & 1u)  /* If EpX interrupt present */
 315              		.loc 1 667 0
 316 002c 3B79     		ldrb	r3, [r7, #4]	@ zero_extendqisi2
 317 002e 03F00103 		and	r3, r3, #1
 318 0032 DBB2     		uxtb	r3, r3
 319 0034 002B     		cmp	r3, #0
 320 0036 4CD0     		beq	.L16
 668:.\Generated_Source\PSoC5/USBFS_episr.c ****             {
 669:.\Generated_Source\PSoC5/USBFS_episr.c ****                 ep_status  = USBFS_ARB_EP1_SR_PTR[ptr];       /* read Endpoint Status Register */
 321              		.loc 1 669 0
 322 0038 FA79     		ldrb	r2, [r7, #7]	@ zero_extendqisi2
 323 003a 46F28203 		movw	r3, #:lower16:1073766530
 324 003e C4F20003 		movt	r3, #:upper16:1073766530
 325 0042 1344     		add	r3, r2, r3
 326 0044 1B78     		ldrb	r3, [r3, #0]
 327 0046 7B71     		strb	r3, [r7, #5]
 670:.\Generated_Source\PSoC5/USBFS_episr.c ****                 /* If In Buffer Full */
 671:.\Generated_Source\PSoC5/USBFS_episr.c ****                 if(ep_status & USBFS_ARB_EPX_SR_IN_BUF_FULL)
 328              		.loc 1 671 0
 329 0048 7B79     		ldrb	r3, [r7, #5]	@ zero_extendqisi2
 330 004a 03F00103 		and	r3, r3, #1
 331 004e DBB2     		uxtb	r3, r3
 332 0050 002B     		cmp	r3, #0
 333 0052 36D0     		beq	.L17
 672:.\Generated_Source\PSoC5/USBFS_episr.c ****                 {
 673:.\Generated_Source\PSoC5/USBFS_episr.c ****                    if(USBFS_EP[ep].addr & USBFS_DIR_IN)
 334              		.loc 1 673 0
 335 0054 B979     		ldrb	r1, [r7, #6]	@ zero_extendqisi2
 336 0056 40F20002 		movw	r2, #:lower16:USBFS_EP
 337 005a C0F20002 		movt	r2, #:upper16:USBFS_EP
 338 005e 0B46     		mov	r3, r1
 339 0060 4FEA4303 		lsl	r3, r3, #1
 340 0064 0B44     		add	r3, r3, r1
 341 0066 4FEA8303 		lsl	r3, r3, #2
 342 006a 1344     		add	r3, r3, r2
 343 006c 1B79     		ldrb	r3, [r3, #4]
 344 006e DBB2     		uxtb	r3, r3
 345 0070 5BB2     		sxtb	r3, r3
 346 0072 002B     		cmp	r3, #0
 347 0074 25DA     		bge	.L17
 674:.\Generated_Source\PSoC5/USBFS_episr.c ****                     {
 675:.\Generated_Source\PSoC5/USBFS_episr.c ****                         /* Workaround for ARB interrupt failure issue at low CPU speeds like 3 MHz:
ARM GAS  C:\DOCUME~1\ADMINI~1\LOCALS~1\Temp\ccdn5ALw.s 			page 19


 676:.\Generated_Source\PSoC5/USBFS_episr.c **** 						 * When CPU clock is running slow (3MHz or so) It takes 8 times more time to execute the IN_D
 677:.\Generated_Source\PSoC5/USBFS_episr.c **** 						 * instruction inside the ARB isr code after arming the IN endpoint. In this time, if the USB
 678:.\Generated_Source\PSoC5/USBFS_episr.c **** 						 * IN token for the endpoint which was armed, it will process the IN token and complete the I
 679:.\Generated_Source\PSoC5/USBFS_episr.c **** 						 * IN_DATA_RDY flag is cleared by ARB ISR. Workaround for this issue is clear the flag first 
 680:.\Generated_Source\PSoC5/USBFS_episr.c **** 						{
 681:.\Generated_Source\PSoC5/USBFS_episr.c **** 							/* Clear Data ready status*/
 682:.\Generated_Source\PSoC5/USBFS_episr.c **** 	                        USBFS_ARB_EP1_CFG_PTR[ptr] &= ~USBFS_ARB_EPX_CFG_IN_DATA_RDY;
 348              		.loc 1 682 0
 349 0076 FA79     		ldrb	r2, [r7, #7]	@ zero_extendqisi2
 350 0078 46F28003 		movw	r3, #:lower16:1073766528
 351 007c C4F20003 		movt	r3, #:upper16:1073766528
 352 0080 1344     		add	r3, r2, r3
 353 0082 F979     		ldrb	r1, [r7, #7]	@ zero_extendqisi2
 354 0084 46F28002 		movw	r2, #:lower16:1073766528
 355 0088 C4F20002 		movt	r2, #:upper16:1073766528
 356 008c 0A44     		add	r2, r1, r2
 357 008e 1278     		ldrb	r2, [r2, #0]
 358 0090 D2B2     		uxtb	r2, r2
 359 0092 02F0FE02 		and	r2, r2, #254
 360 0096 1A70     		strb	r2, [r3, #0]
 683:.\Generated_Source\PSoC5/USBFS_episr.c **** 							
 684:.\Generated_Source\PSoC5/USBFS_episr.c **** 							/* Write the Mode register */
 685:.\Generated_Source\PSoC5/USBFS_episr.c **** 	                        USBFS_SIE_EP1_CR0_PTR[ptr] = USBFS_EP[ep].epMode;	                        
 361              		.loc 1 685 0
 362 0098 FA79     		ldrb	r2, [r7, #7]	@ zero_extendqisi2
 363 009a 46F20E03 		movw	r3, #:lower16:1073766414
 364 009e C4F20003 		movt	r3, #:upper16:1073766414
 365 00a2 1344     		add	r3, r2, r3
 366 00a4 B879     		ldrb	r0, [r7, #6]	@ zero_extendqisi2
 367 00a6 40F20001 		movw	r1, #:lower16:USBFS_EP
 368 00aa C0F20001 		movt	r1, #:upper16:USBFS_EP
 369 00ae 0246     		mov	r2, r0
 370 00b0 4FEA4202 		lsl	r2, r2, #1
 371 00b4 0244     		add	r2, r2, r0
 372 00b6 4FEA8202 		lsl	r2, r2, #2
 373 00ba 0A44     		add	r2, r2, r1
 374 00bc 5279     		ldrb	r2, [r2, #5]
 375 00be D2B2     		uxtb	r2, r2
 376 00c0 1A70     		strb	r2, [r3, #0]
 377              	.L17:
 686:.\Generated_Source\PSoC5/USBFS_episr.c **** 						}
 687:.\Generated_Source\PSoC5/USBFS_episr.c ****                         #if defined(USBFS_ENABLE_MIDI_STREAMING) && (USBFS_ENABLE_MIDI_API != 0u)
 688:.\Generated_Source\PSoC5/USBFS_episr.c ****                             if(ep == USBFS_midi_in_ep)
 689:.\Generated_Source\PSoC5/USBFS_episr.c ****                             {   /* Clear MIDI input pointer*/
 690:.\Generated_Source\PSoC5/USBFS_episr.c ****                                 USBFS_midiInPointer = 0u;
 691:.\Generated_Source\PSoC5/USBFS_episr.c ****                             }
 692:.\Generated_Source\PSoC5/USBFS_episr.c ****                         #endif /* End USBFS_ENABLE_MIDI_STREAMING*/
 693:.\Generated_Source\PSoC5/USBFS_episr.c ****                     }
 694:.\Generated_Source\PSoC5/USBFS_episr.c ****                 }
 695:.\Generated_Source\PSoC5/USBFS_episr.c ****                 /* (re)arm Out EP only for mode2 */
 696:.\Generated_Source\PSoC5/USBFS_episr.c ****                 #if(USBFS_EP_MM != USBFS__EP_DMAAUTO)
 697:.\Generated_Source\PSoC5/USBFS_episr.c ****                     /* If DMA Grant */
 698:.\Generated_Source\PSoC5/USBFS_episr.c ****                     if(ep_status & USBFS_ARB_EPX_SR_DMA_GNT)
 699:.\Generated_Source\PSoC5/USBFS_episr.c ****                     {
 700:.\Generated_Source\PSoC5/USBFS_episr.c ****                         if((USBFS_EP[ep].addr & USBFS_DIR_IN) == 0u)
 701:.\Generated_Source\PSoC5/USBFS_episr.c ****                         {
 702:.\Generated_Source\PSoC5/USBFS_episr.c ****                                 USBFS_EP[ep].apiEpState = USBFS_NO_EVENT_PENDING;
ARM GAS  C:\DOCUME~1\ADMINI~1\LOCALS~1\Temp\ccdn5ALw.s 			page 20


 703:.\Generated_Source\PSoC5/USBFS_episr.c ****                                 /* Write the Mode register */
 704:.\Generated_Source\PSoC5/USBFS_episr.c ****                                 USBFS_SIE_EP1_CR0_PTR[ptr] = USBFS_EP[ep].epMode;
 705:.\Generated_Source\PSoC5/USBFS_episr.c ****                         }
 706:.\Generated_Source\PSoC5/USBFS_episr.c ****                     }
 707:.\Generated_Source\PSoC5/USBFS_episr.c ****                 #endif /* End USBFS_EP_MM */
 708:.\Generated_Source\PSoC5/USBFS_episr.c **** 
 709:.\Generated_Source\PSoC5/USBFS_episr.c ****                 USBFS_ARB_EP1_SR_PTR[ptr] = ep_status;       /* Clear Serviced events */
 378              		.loc 1 709 0
 379 00c2 FA79     		ldrb	r2, [r7, #7]	@ zero_extendqisi2
 380 00c4 46F28203 		movw	r3, #:lower16:1073766530
 381 00c8 C4F20003 		movt	r3, #:upper16:1073766530
 382 00cc 1344     		add	r3, r2, r3
 383 00ce 7A79     		ldrb	r2, [r7, #5]
 384 00d0 1A70     		strb	r2, [r3, #0]
 385              	.L16:
 710:.\Generated_Source\PSoC5/USBFS_episr.c ****             }
 711:.\Generated_Source\PSoC5/USBFS_episr.c ****             ptr += USBFS_EPX_CNTX_ADDR_OFFSET;               /* prepare pointer for next EP */
 386              		.loc 1 711 0
 387 00d2 FB79     		ldrb	r3, [r7, #7]
 388 00d4 03F11003 		add	r3, r3, #16
 389 00d8 FB71     		strb	r3, [r7, #7]
 712:.\Generated_Source\PSoC5/USBFS_episr.c ****             ep++;
 390              		.loc 1 712 0
 391 00da BB79     		ldrb	r3, [r7, #6]
 392 00dc 03F10103 		add	r3, r3, #1
 393 00e0 BB71     		strb	r3, [r7, #6]
 713:.\Generated_Source\PSoC5/USBFS_episr.c ****             int_status >>= 1;
 394              		.loc 1 713 0
 395 00e2 3B79     		ldrb	r3, [r7, #4]	@ zero_extendqisi2
 396 00e4 4FEA5303 		lsr	r3, r3, #1
 397 00e8 3B71     		strb	r3, [r7, #4]
 398              	.L15:
 399              		.loc 1 665 0
 400 00ea 3B79     		ldrb	r3, [r7, #4]	@ zero_extendqisi2
 401 00ec 002B     		cmp	r3, #0
 402 00ee 9DD1     		bne	.L18
 714:.\Generated_Source\PSoC5/USBFS_episr.c ****         }
 715:.\Generated_Source\PSoC5/USBFS_episr.c **** 		return;
 716:.\Generated_Source\PSoC5/USBFS_episr.c **** 		#if 0
 717:.\Generated_Source\PSoC5/USBFS_episr.c ****         /* `#END` */
 718:.\Generated_Source\PSoC5/USBFS_episr.c **** 
 719:.\Generated_Source\PSoC5/USBFS_episr.c ****         int_status = USBFS_ARB_INT_SR_REG;                   /* read Arbiter Status Register */
 720:.\Generated_Source\PSoC5/USBFS_episr.c ****         USBFS_ARB_INT_SR_REG = int_status;                   /* Clear Serviced Interrupts */
 721:.\Generated_Source\PSoC5/USBFS_episr.c **** 
 722:.\Generated_Source\PSoC5/USBFS_episr.c ****         while(int_status != 0u)
 723:.\Generated_Source\PSoC5/USBFS_episr.c ****         {
 724:.\Generated_Source\PSoC5/USBFS_episr.c ****             if(int_status & 1u)  /* If EpX interrupt present */
 725:.\Generated_Source\PSoC5/USBFS_episr.c ****             {
 726:.\Generated_Source\PSoC5/USBFS_episr.c ****                 ep_status  = USBFS_ARB_EP1_SR_PTR[ptr];       /* read Endpoint Status Register */
 727:.\Generated_Source\PSoC5/USBFS_episr.c ****                 /* If In Buffer Full */
 728:.\Generated_Source\PSoC5/USBFS_episr.c ****                 if(ep_status & USBFS_ARB_EPX_SR_IN_BUF_FULL)
 729:.\Generated_Source\PSoC5/USBFS_episr.c ****                 {
 730:.\Generated_Source\PSoC5/USBFS_episr.c ****                    if(USBFS_EP[ep].addr & USBFS_DIR_IN)
 731:.\Generated_Source\PSoC5/USBFS_episr.c ****                     {
 732:.\Generated_Source\PSoC5/USBFS_episr.c ****                         /* Write the Mode register */
 733:.\Generated_Source\PSoC5/USBFS_episr.c ****                         USBFS_SIE_EP1_CR0_PTR[ptr] = USBFS_EP[ep].epMode;
 734:.\Generated_Source\PSoC5/USBFS_episr.c ****                         /* Clear Data ready status*/
ARM GAS  C:\DOCUME~1\ADMINI~1\LOCALS~1\Temp\ccdn5ALw.s 			page 21


 735:.\Generated_Source\PSoC5/USBFS_episr.c ****                         USBFS_ARB_EP1_CFG_PTR[ptr] &= ~USBFS_ARB_EPX_CFG_IN_DATA_RDY;
 736:.\Generated_Source\PSoC5/USBFS_episr.c ****                         #if defined(USBFS_ENABLE_MIDI_STREAMING) && (USBFS_ENABLE_MIDI_API != 0u)
 737:.\Generated_Source\PSoC5/USBFS_episr.c ****                             if(ep == USBFS_midi_in_ep)
 738:.\Generated_Source\PSoC5/USBFS_episr.c ****                             {   /* Clear MIDI input pointer*/
 739:.\Generated_Source\PSoC5/USBFS_episr.c ****                                 USBFS_midiInPointer = 0u;
 740:.\Generated_Source\PSoC5/USBFS_episr.c ****                             }
 741:.\Generated_Source\PSoC5/USBFS_episr.c ****                         #endif /* End USBFS_ENABLE_MIDI_STREAMING*/
 742:.\Generated_Source\PSoC5/USBFS_episr.c ****                     }
 743:.\Generated_Source\PSoC5/USBFS_episr.c ****                 }
 744:.\Generated_Source\PSoC5/USBFS_episr.c ****                 /* (re)arm Out EP only for mode2 */
 745:.\Generated_Source\PSoC5/USBFS_episr.c ****                 #if(USBFS_EP_MM != USBFS__EP_DMAAUTO)
 746:.\Generated_Source\PSoC5/USBFS_episr.c ****                     /* If DMA Grant */
 747:.\Generated_Source\PSoC5/USBFS_episr.c ****                     if(ep_status & USBFS_ARB_EPX_SR_DMA_GNT)
 748:.\Generated_Source\PSoC5/USBFS_episr.c ****                     {
 749:.\Generated_Source\PSoC5/USBFS_episr.c ****                         if((USBFS_EP[ep].addr & USBFS_DIR_IN) == 0u)
 750:.\Generated_Source\PSoC5/USBFS_episr.c ****                         {
 751:.\Generated_Source\PSoC5/USBFS_episr.c ****                                 USBFS_EP[ep].apiEpState = USBFS_NO_EVENT_PENDING;
 752:.\Generated_Source\PSoC5/USBFS_episr.c ****                                 /* Write the Mode register */
 753:.\Generated_Source\PSoC5/USBFS_episr.c ****                                 USBFS_SIE_EP1_CR0_PTR[ptr] = USBFS_EP[ep].epMode;
 754:.\Generated_Source\PSoC5/USBFS_episr.c ****                         }
 755:.\Generated_Source\PSoC5/USBFS_episr.c ****                     }
 756:.\Generated_Source\PSoC5/USBFS_episr.c ****                 #endif /* End USBFS_EP_MM */
 757:.\Generated_Source\PSoC5/USBFS_episr.c **** 
 758:.\Generated_Source\PSoC5/USBFS_episr.c ****                 /* `#START ARB_USER_CODE` Place your code here for handle Buffer Underflow/Overflow
 759:.\Generated_Source\PSoC5/USBFS_episr.c **** 
 760:.\Generated_Source\PSoC5/USBFS_episr.c ****                 /* `#END` */
 761:.\Generated_Source\PSoC5/USBFS_episr.c **** 
 762:.\Generated_Source\PSoC5/USBFS_episr.c ****                 USBFS_ARB_EP1_SR_PTR[ptr] = ep_status;       /* Clear Serviced events */
 763:.\Generated_Source\PSoC5/USBFS_episr.c ****             }
 764:.\Generated_Source\PSoC5/USBFS_episr.c ****             ptr += USBFS_EPX_CNTX_ADDR_OFFSET;               /* prepare pointer for next EP */
 765:.\Generated_Source\PSoC5/USBFS_episr.c ****             ep++;
 766:.\Generated_Source\PSoC5/USBFS_episr.c ****             int_status >>= 1;
 767:.\Generated_Source\PSoC5/USBFS_episr.c ****         }
 768:.\Generated_Source\PSoC5/USBFS_episr.c **** 
 769:.\Generated_Source\PSoC5/USBFS_episr.c ****         /* `#START ARB_END_USER_CODE` Place your code here */
 770:.\Generated_Source\PSoC5/USBFS_episr.c **** 		#endif 
 771:.\Generated_Source\PSoC5/USBFS_episr.c ****         /* `#END` */
 772:.\Generated_Source\PSoC5/USBFS_episr.c ****     }
 403              		.loc 1 772 0
 404 00f0 07F10C07 		add	r7, r7, #12
 405 00f4 BD46     		mov	sp, r7
 406 00f6 80BC     		pop	{r7}
 407 00f8 7047     		bx	lr
 408              		.cfi_endproc
 409              	.LFE34:
 410              		.size	USBFS_ARB_ISR, .-USBFS_ARB_ISR
 411 00fa 00BF     		.text
 412              	.Letext0: