ARM GAS  C:\DOCUME~1\ADMINI~1\LOCALS~1\Temp\ccyKCgI6.s 			page 1


   1              		.syntax unified
   2              		.cpu cortex-m3
   3              		.fpu softvfp
   4              		.eabi_attribute 20, 1
   5              		.eabi_attribute 21, 1
   6              		.eabi_attribute 23, 3
   7              		.eabi_attribute 24, 1
   8              		.eabi_attribute 25, 1
   9              		.eabi_attribute 26, 1
  10              		.eabi_attribute 30, 6
  11              		.eabi_attribute 18, 4
  12              		.thumb
  13              		.file	"USBFS.c"
  20 0000 DA020000 		.text
  20      02008200 
  20      00000201 
  20      FB0E0D00 
  20      01010101 
  21              	.Ltext0:
  22              		.cfi_sections	.debug_frame
  23              		.global	USBFS_initVar
  24              		.bss
  25              		.type	USBFS_initVar, %object
  26              		.size	USBFS_initVar, 1
  27              	USBFS_initVar:
  28 0000 00       		.space	1
  29              		.comm	USBFS_DmaChan,9,4
  30              		.comm	USBFS_DmaTd,9,4
  31              		.section	.text.USBFS_Start,"ax",%progbits
  32              		.align	2
  33              		.global	USBFS_Start
  34              		.thumb
  35              		.thumb_func
  36              		.type	USBFS_Start, %function
  37              	USBFS_Start:
  38              	.LFB0:
  39              		.file 1 ".\\Generated_Source\\PSoC5\\USBFS.c"
   1:.\Generated_Source\PSoC5/USBFS.c **** /*******************************************************************************
   2:.\Generated_Source\PSoC5/USBFS.c **** * File Name: USBFS.c
   3:.\Generated_Source\PSoC5/USBFS.c **** * Version 2.50
   4:.\Generated_Source\PSoC5/USBFS.c **** *
   5:.\Generated_Source\PSoC5/USBFS.c **** * Description:
   6:.\Generated_Source\PSoC5/USBFS.c **** *  API for USBFS Component.
   7:.\Generated_Source\PSoC5/USBFS.c **** *
   8:.\Generated_Source\PSoC5/USBFS.c **** * Note:
   9:.\Generated_Source\PSoC5/USBFS.c **** *  Many of the functions use endpoint number.  RAM arrays are sized with 9
  10:.\Generated_Source\PSoC5/USBFS.c **** *  elements so they are indexed directly by epNumber.  The SIE and ARB
  11:.\Generated_Source\PSoC5/USBFS.c **** *  registers are indexed by variations of epNumber - 1.
  12:.\Generated_Source\PSoC5/USBFS.c **** *
  13:.\Generated_Source\PSoC5/USBFS.c **** ********************************************************************************
  14:.\Generated_Source\PSoC5/USBFS.c **** * Copyright 2008-2012, Cypress Semiconductor Corporation.  All rights reserved.
ARM GAS  C:\DOCUME~1\ADMINI~1\LOCALS~1\Temp\ccyKCgI6.s 			page 2


  15:.\Generated_Source\PSoC5/USBFS.c **** * You may use this file only in accordance with the license, terms, conditions,
  16:.\Generated_Source\PSoC5/USBFS.c **** * disclaimers, and limitations in the end user license agreement accompanying
  17:.\Generated_Source\PSoC5/USBFS.c **** * the software package with which this file was provided.
  18:.\Generated_Source\PSoC5/USBFS.c **** *******************************************************************************/
  19:.\Generated_Source\PSoC5/USBFS.c **** 
  20:.\Generated_Source\PSoC5/USBFS.c **** #include <CyDmac.h>
  21:.\Generated_Source\PSoC5/USBFS.c **** #include "USBFS.h"
  22:.\Generated_Source\PSoC5/USBFS.c **** #include "USBFS_hid.h"
  23:.\Generated_Source\PSoC5/USBFS.c **** #if(USBFS_DMA1_REMOVE == 0u)
  24:.\Generated_Source\PSoC5/USBFS.c ****     #include "USBFS_ep1_dma.h"
  25:.\Generated_Source\PSoC5/USBFS.c **** #endif   /* End USBFS_DMA1_REMOVE */
  26:.\Generated_Source\PSoC5/USBFS.c **** #if(USBFS_DMA2_REMOVE == 0u)
  27:.\Generated_Source\PSoC5/USBFS.c ****     #include "USBFS_ep2_dma.h"
  28:.\Generated_Source\PSoC5/USBFS.c **** #endif   /* End USBFS_DMA2_REMOVE */
  29:.\Generated_Source\PSoC5/USBFS.c **** #if(USBFS_DMA3_REMOVE == 0u)
  30:.\Generated_Source\PSoC5/USBFS.c ****     #include "USBFS_ep3_dma.h"
  31:.\Generated_Source\PSoC5/USBFS.c **** #endif   /* End USBFS_DMA3_REMOVE */
  32:.\Generated_Source\PSoC5/USBFS.c **** #if(USBFS_DMA4_REMOVE == 0u)
  33:.\Generated_Source\PSoC5/USBFS.c ****     #include "USBFS_ep4_dma.h"
  34:.\Generated_Source\PSoC5/USBFS.c **** #endif   /* End USBFS_DMA4_REMOVE */
  35:.\Generated_Source\PSoC5/USBFS.c **** #if(USBFS_DMA5_REMOVE == 0u)
  36:.\Generated_Source\PSoC5/USBFS.c ****     #include "USBFS_ep5_dma.h"
  37:.\Generated_Source\PSoC5/USBFS.c **** #endif   /* End USBFS_DMA5_REMOVE */
  38:.\Generated_Source\PSoC5/USBFS.c **** #if(USBFS_DMA6_REMOVE == 0u)
  39:.\Generated_Source\PSoC5/USBFS.c ****     #include "USBFS_ep6_dma.h"
  40:.\Generated_Source\PSoC5/USBFS.c **** #endif   /* End USBFS_DMA6_REMOVE */
  41:.\Generated_Source\PSoC5/USBFS.c **** #if(USBFS_DMA7_REMOVE == 0u)
  42:.\Generated_Source\PSoC5/USBFS.c ****     #include "USBFS_ep7_dma.h"
  43:.\Generated_Source\PSoC5/USBFS.c **** #endif   /* End USBFS_DMA7_REMOVE */
  44:.\Generated_Source\PSoC5/USBFS.c **** #if(USBFS_DMA8_REMOVE == 0u)
  45:.\Generated_Source\PSoC5/USBFS.c ****     #include "USBFS_ep8_dma.h"
  46:.\Generated_Source\PSoC5/USBFS.c **** #endif   /* End USBFS_DMA8_REMOVE */
  47:.\Generated_Source\PSoC5/USBFS.c **** 
  48:.\Generated_Source\PSoC5/USBFS.c **** 
  49:.\Generated_Source\PSoC5/USBFS.c **** /***************************************
  50:.\Generated_Source\PSoC5/USBFS.c **** * External data references
  51:.\Generated_Source\PSoC5/USBFS.c **** ***************************************/
  52:.\Generated_Source\PSoC5/USBFS.c **** 
  53:.\Generated_Source\PSoC5/USBFS.c **** extern volatile uint8 USBFS_configuration;
  54:.\Generated_Source\PSoC5/USBFS.c **** extern volatile uint8 USBFS_interfaceNumber;
  55:.\Generated_Source\PSoC5/USBFS.c **** extern volatile uint8 USBFS_configurationChanged;
  56:.\Generated_Source\PSoC5/USBFS.c **** extern volatile uint8 USBFS_interfaceSetting[];
  57:.\Generated_Source\PSoC5/USBFS.c **** extern volatile uint8 USBFS_interfaceSetting_last[];
  58:.\Generated_Source\PSoC5/USBFS.c **** extern volatile uint8 USBFS_deviceAddress;
  59:.\Generated_Source\PSoC5/USBFS.c **** extern volatile uint8 USBFS_deviceStatus;
  60:.\Generated_Source\PSoC5/USBFS.c **** extern volatile uint8 USBFS_device;
  61:.\Generated_Source\PSoC5/USBFS.c **** extern volatile uint8 USBFS_transferState;
  62:.\Generated_Source\PSoC5/USBFS.c **** extern volatile uint8 USBFS_lastPacketSize;
  63:.\Generated_Source\PSoC5/USBFS.c **** 
  64:.\Generated_Source\PSoC5/USBFS.c **** extern volatile T_USBFS_EP_CTL_BLOCK USBFS_EP[];
  65:.\Generated_Source\PSoC5/USBFS.c **** 
  66:.\Generated_Source\PSoC5/USBFS.c **** #if defined(USBFS_ENABLE_HID_CLASS)
  67:.\Generated_Source\PSoC5/USBFS.c ****     extern volatile uint8 USBFS_hidProtocol[];
  68:.\Generated_Source\PSoC5/USBFS.c **** #endif /* USBFS_ENABLE_HID_CLASS */
  69:.\Generated_Source\PSoC5/USBFS.c **** 
  70:.\Generated_Source\PSoC5/USBFS.c **** 
  71:.\Generated_Source\PSoC5/USBFS.c **** /***************************************
ARM GAS  C:\DOCUME~1\ADMINI~1\LOCALS~1\Temp\ccyKCgI6.s 			page 3


  72:.\Generated_Source\PSoC5/USBFS.c **** * External function references
  73:.\Generated_Source\PSoC5/USBFS.c **** ***************************************/
  74:.\Generated_Source\PSoC5/USBFS.c **** 
  75:.\Generated_Source\PSoC5/USBFS.c **** CY_ISR_PROTO(USBFS_EP_0_ISR);
  76:.\Generated_Source\PSoC5/USBFS.c **** #if(USBFS_EP1_ISR_REMOVE == 0u)
  77:.\Generated_Source\PSoC5/USBFS.c ****     CY_ISR_PROTO(USBFS_EP_1_ISR);
  78:.\Generated_Source\PSoC5/USBFS.c **** #endif /* End USBFS_EP1_ISR_REMOVE */
  79:.\Generated_Source\PSoC5/USBFS.c **** #if(USBFS_EP2_ISR_REMOVE == 0u)
  80:.\Generated_Source\PSoC5/USBFS.c ****     CY_ISR_PROTO(USBFS_EP_2_ISR);
  81:.\Generated_Source\PSoC5/USBFS.c **** #endif /* End USBFS_EP2_ISR_REMOVE */
  82:.\Generated_Source\PSoC5/USBFS.c **** #if(USBFS_EP3_ISR_REMOVE == 0u)
  83:.\Generated_Source\PSoC5/USBFS.c ****     CY_ISR_PROTO(USBFS_EP_3_ISR);
  84:.\Generated_Source\PSoC5/USBFS.c **** #endif /* End USBFS_EP3_ISR_REMOVE */
  85:.\Generated_Source\PSoC5/USBFS.c **** #if(USBFS_EP4_ISR_REMOVE == 0u)
  86:.\Generated_Source\PSoC5/USBFS.c ****     CY_ISR_PROTO(USBFS_EP_4_ISR);
  87:.\Generated_Source\PSoC5/USBFS.c **** #endif /* End USBFS_EP4_ISR_REMOVE */
  88:.\Generated_Source\PSoC5/USBFS.c **** #if(USBFS_EP5_ISR_REMOVE == 0u)
  89:.\Generated_Source\PSoC5/USBFS.c ****     CY_ISR_PROTO(USBFS_EP_5_ISR);
  90:.\Generated_Source\PSoC5/USBFS.c **** #endif /* End USBFS_EP5_ISR_REMOVE */
  91:.\Generated_Source\PSoC5/USBFS.c **** #if(USBFS_EP6_ISR_REMOVE == 0u)
  92:.\Generated_Source\PSoC5/USBFS.c ****     CY_ISR_PROTO(USBFS_EP_6_ISR);
  93:.\Generated_Source\PSoC5/USBFS.c **** #endif /* End USBFS_EP6_ISR_REMOVE */
  94:.\Generated_Source\PSoC5/USBFS.c **** #if(USBFS_EP7_ISR_REMOVE == 0u)
  95:.\Generated_Source\PSoC5/USBFS.c ****     CY_ISR_PROTO(USBFS_EP_7_ISR);
  96:.\Generated_Source\PSoC5/USBFS.c **** #endif /* End USBFS_EP7_ISR_REMOVE */
  97:.\Generated_Source\PSoC5/USBFS.c **** #if(USBFS_EP8_ISR_REMOVE == 0u)
  98:.\Generated_Source\PSoC5/USBFS.c ****     CY_ISR_PROTO(USBFS_EP_8_ISR);
  99:.\Generated_Source\PSoC5/USBFS.c **** #endif /* End USBFS_EP8_ISR_REMOVE */
 100:.\Generated_Source\PSoC5/USBFS.c **** CY_ISR_PROTO(USBFS_BUS_RESET_ISR);
 101:.\Generated_Source\PSoC5/USBFS.c **** #if(USBFS_SOF_ISR_REMOVE == 0u)
 102:.\Generated_Source\PSoC5/USBFS.c ****     CY_ISR_PROTO(USBFS_SOF_ISR);
 103:.\Generated_Source\PSoC5/USBFS.c **** #endif /* End USBFS_SOF_ISR_REMOVE */
 104:.\Generated_Source\PSoC5/USBFS.c **** #if(USBFS_EP_MM != USBFS__EP_MANUAL)
 105:.\Generated_Source\PSoC5/USBFS.c ****     CY_ISR_PROTO(USBFS_ARB_ISR);
 106:.\Generated_Source\PSoC5/USBFS.c **** #endif /* End USBFS_EP_MM */
 107:.\Generated_Source\PSoC5/USBFS.c **** 
 108:.\Generated_Source\PSoC5/USBFS.c **** 
 109:.\Generated_Source\PSoC5/USBFS.c **** /***************************************
 110:.\Generated_Source\PSoC5/USBFS.c **** * Global data allocation
 111:.\Generated_Source\PSoC5/USBFS.c **** ***************************************/
 112:.\Generated_Source\PSoC5/USBFS.c **** 
 113:.\Generated_Source\PSoC5/USBFS.c **** uint8 USBFS_initVar = 0u;
 114:.\Generated_Source\PSoC5/USBFS.c **** #if(USBFS_EP_MM != USBFS__EP_MANUAL)
 115:.\Generated_Source\PSoC5/USBFS.c ****     uint8 USBFS_DmaChan[USBFS_MAX_EP];
 116:.\Generated_Source\PSoC5/USBFS.c ****     uint8 USBFS_DmaTd[USBFS_MAX_EP];
 117:.\Generated_Source\PSoC5/USBFS.c **** #endif /* End USBFS_EP_MM */
 118:.\Generated_Source\PSoC5/USBFS.c **** 
 119:.\Generated_Source\PSoC5/USBFS.c **** 
 120:.\Generated_Source\PSoC5/USBFS.c **** /*******************************************************************************
 121:.\Generated_Source\PSoC5/USBFS.c **** * Function Name: USBFS_Start
 122:.\Generated_Source\PSoC5/USBFS.c **** ********************************************************************************
 123:.\Generated_Source\PSoC5/USBFS.c **** *
 124:.\Generated_Source\PSoC5/USBFS.c **** * Summary:
 125:.\Generated_Source\PSoC5/USBFS.c **** *  This function initialize the USB SIE, arbiter and the
 126:.\Generated_Source\PSoC5/USBFS.c **** *  endpoint APIs, including setting the D+ Pullup
 127:.\Generated_Source\PSoC5/USBFS.c **** *
 128:.\Generated_Source\PSoC5/USBFS.c **** * Parameters:
ARM GAS  C:\DOCUME~1\ADMINI~1\LOCALS~1\Temp\ccyKCgI6.s 			page 4


 129:.\Generated_Source\PSoC5/USBFS.c **** *  device: Contains the device number of the desired device descriptor.
 130:.\Generated_Source\PSoC5/USBFS.c **** *          The device number can be found in the Device Descriptor Tab of 
 131:.\Generated_Source\PSoC5/USBFS.c **** *          "Configure" dialog, under the settings of desired Device Descriptor,
 132:.\Generated_Source\PSoC5/USBFS.c **** *          in the "Device Number" field.
 133:.\Generated_Source\PSoC5/USBFS.c **** *  mode: The operating voltage. This determines whether the voltage regulator
 134:.\Generated_Source\PSoC5/USBFS.c **** *        is enabled for 5V operation or if pass through mode is used for 3.3V
 135:.\Generated_Source\PSoC5/USBFS.c **** *        operation. Symbolic names and their associated values are given in the
 136:.\Generated_Source\PSoC5/USBFS.c **** *        following table.
 137:.\Generated_Source\PSoC5/USBFS.c **** *       USBFS_3V_OPERATION - Disable voltage regulator and pass-thru
 138:.\Generated_Source\PSoC5/USBFS.c **** *                                       Vcc for pull-up
 139:.\Generated_Source\PSoC5/USBFS.c **** *       USBFS_5V_OPERATION - Enable voltage regulator and use
 140:.\Generated_Source\PSoC5/USBFS.c **** *                                       regulator for pull-up
 141:.\Generated_Source\PSoC5/USBFS.c **** *       USBFS_DWR_VDDD_OPERATION - Enable or Disable voltage
 142:.\Generated_Source\PSoC5/USBFS.c **** *                         regulator depend on Vddd Voltage configuration in DWR.
 143:.\Generated_Source\PSoC5/USBFS.c **** *
 144:.\Generated_Source\PSoC5/USBFS.c **** * Return:
 145:.\Generated_Source\PSoC5/USBFS.c **** *   None.
 146:.\Generated_Source\PSoC5/USBFS.c **** *
 147:.\Generated_Source\PSoC5/USBFS.c **** * Global variables:
 148:.\Generated_Source\PSoC5/USBFS.c **** *  The USBFS_intiVar variable is used to indicate initial
 149:.\Generated_Source\PSoC5/USBFS.c **** *  configuration of this component. The variable is initialized to zero (0u)
 150:.\Generated_Source\PSoC5/USBFS.c **** *  and set to one (1u) the first time USBFS_Start() is called.
 151:.\Generated_Source\PSoC5/USBFS.c **** *  This allows for component Re-Start without unnecessary re-initialization
 152:.\Generated_Source\PSoC5/USBFS.c **** *  in all subsequent calls to the USBFS_Start() routine.
 153:.\Generated_Source\PSoC5/USBFS.c **** *  If re-initialization of the component is required the variable should be set
 154:.\Generated_Source\PSoC5/USBFS.c **** *  to zero before call of UART_Start() routine, or the user may call
 155:.\Generated_Source\PSoC5/USBFS.c **** *  USBFS_Init() and USBFS_InitComponent() as done
 156:.\Generated_Source\PSoC5/USBFS.c **** *  in the USBFS_Start() routine.
 157:.\Generated_Source\PSoC5/USBFS.c **** *
 158:.\Generated_Source\PSoC5/USBFS.c **** * Side Effects:
 159:.\Generated_Source\PSoC5/USBFS.c **** *   This function will reset all communication states to default.
 160:.\Generated_Source\PSoC5/USBFS.c **** *
 161:.\Generated_Source\PSoC5/USBFS.c **** * Reentrant:
 162:.\Generated_Source\PSoC5/USBFS.c **** *  No.
 163:.\Generated_Source\PSoC5/USBFS.c **** *
 164:.\Generated_Source\PSoC5/USBFS.c **** *******************************************************************************/
 165:.\Generated_Source\PSoC5/USBFS.c **** void USBFS_Start(uint8 device, uint8 mode) 
 166:.\Generated_Source\PSoC5/USBFS.c **** {
  40              		.loc 1 166 0
  41              		.cfi_startproc
  42              		@ args = 0, pretend = 0, frame = 8
  43              		@ frame_needed = 1, uses_anonymous_args = 0
  44 0000 80B5     		push	{r7, lr}
  45              	.LCFI0:
  46              		.cfi_def_cfa_offset 8
  47 0002 82B0     		sub	sp, sp, #8
  48              	.LCFI1:
  49              		.cfi_def_cfa_offset 16
  50 0004 00AF     		add	r7, sp, #0
  51              		.cfi_offset 14, -4
  52              		.cfi_offset 7, -8
  53              	.LCFI2:
  54              		.cfi_def_cfa_register 7
  55 0006 0246     		mov	r2, r0
  56 0008 0B46     		mov	r3, r1
  57 000a FA71     		strb	r2, [r7, #7]
  58 000c BB71     		strb	r3, [r7, #6]
ARM GAS  C:\DOCUME~1\ADMINI~1\LOCALS~1\Temp\ccyKCgI6.s 			page 5


 167:.\Generated_Source\PSoC5/USBFS.c ****     /* If not Initialized then initialize all required hardware and software */
 168:.\Generated_Source\PSoC5/USBFS.c ****     if(USBFS_initVar == 0u)
  59              		.loc 1 168 0
  60 000e 40F20003 		movw	r3, #:lower16:USBFS_initVar
  61 0012 C0F20003 		movt	r3, #:upper16:USBFS_initVar
  62 0016 1B78     		ldrb	r3, [r3, #0]	@ zero_extendqisi2
  63 0018 002B     		cmp	r3, #0
  64 001a 08D1     		bne	.L2
 169:.\Generated_Source\PSoC5/USBFS.c ****     {
 170:.\Generated_Source\PSoC5/USBFS.c ****         USBFS_Init();
  65              		.loc 1 170 0
  66 001c FFF7FEFF 		bl	USBFS_Init
 171:.\Generated_Source\PSoC5/USBFS.c ****         USBFS_initVar = 1u;
  67              		.loc 1 171 0
  68 0020 40F20003 		movw	r3, #:lower16:USBFS_initVar
  69 0024 C0F20003 		movt	r3, #:upper16:USBFS_initVar
  70 0028 4FF00102 		mov	r2, #1
  71 002c 1A70     		strb	r2, [r3, #0]
  72              	.L2:
 172:.\Generated_Source\PSoC5/USBFS.c ****     }
 173:.\Generated_Source\PSoC5/USBFS.c ****     USBFS_InitComponent(device, mode);
  73              		.loc 1 173 0
  74 002e FA79     		ldrb	r2, [r7, #7]	@ zero_extendqisi2
  75 0030 BB79     		ldrb	r3, [r7, #6]	@ zero_extendqisi2
  76 0032 1046     		mov	r0, r2
  77 0034 1946     		mov	r1, r3
  78 0036 FFF7FEFF 		bl	USBFS_InitComponent
 174:.\Generated_Source\PSoC5/USBFS.c **** }
  79              		.loc 1 174 0
  80 003a 07F10807 		add	r7, r7, #8
  81 003e BD46     		mov	sp, r7
  82 0040 80BD     		pop	{r7, pc}
  83              		.cfi_endproc
  84              	.LFE0:
  85              		.size	USBFS_Start, .-USBFS_Start
  86 0042 00BF     		.section	.text.USBFS_Init,"ax",%progbits
  87              		.align	2
  88              		.global	USBFS_Init
  89              		.thumb
  90              		.thumb_func
  91              		.type	USBFS_Init, %function
  92              	USBFS_Init:
  93              	.LFB1:
 175:.\Generated_Source\PSoC5/USBFS.c **** 
 176:.\Generated_Source\PSoC5/USBFS.c **** 
 177:.\Generated_Source\PSoC5/USBFS.c **** /*******************************************************************************
 178:.\Generated_Source\PSoC5/USBFS.c **** * Function Name: USBFS_Init
 179:.\Generated_Source\PSoC5/USBFS.c **** ********************************************************************************
 180:.\Generated_Source\PSoC5/USBFS.c **** *
 181:.\Generated_Source\PSoC5/USBFS.c **** * Summary:
 182:.\Generated_Source\PSoC5/USBFS.c **** *  Initialize component's hardware. Usually called in USBFS_Start().
 183:.\Generated_Source\PSoC5/USBFS.c **** *
 184:.\Generated_Source\PSoC5/USBFS.c **** * Parameters:
 185:.\Generated_Source\PSoC5/USBFS.c **** *  None.
 186:.\Generated_Source\PSoC5/USBFS.c **** *
 187:.\Generated_Source\PSoC5/USBFS.c **** * Return:
 188:.\Generated_Source\PSoC5/USBFS.c **** *  None.
ARM GAS  C:\DOCUME~1\ADMINI~1\LOCALS~1\Temp\ccyKCgI6.s 			page 6


 189:.\Generated_Source\PSoC5/USBFS.c **** *
 190:.\Generated_Source\PSoC5/USBFS.c **** * Reentrant:
 191:.\Generated_Source\PSoC5/USBFS.c **** *  No.
 192:.\Generated_Source\PSoC5/USBFS.c **** *
 193:.\Generated_Source\PSoC5/USBFS.c **** *******************************************************************************/
 194:.\Generated_Source\PSoC5/USBFS.c **** void USBFS_Init(void) 
 195:.\Generated_Source\PSoC5/USBFS.c **** {
  94              		.loc 1 195 0
  95              		.cfi_startproc
  96              		@ args = 0, pretend = 0, frame = 8
  97              		@ frame_needed = 1, uses_anonymous_args = 0
  98 0000 80B5     		push	{r7, lr}
  99              	.LCFI3:
 100              		.cfi_def_cfa_offset 8
 101 0002 82B0     		sub	sp, sp, #8
 102              	.LCFI4:
 103              		.cfi_def_cfa_offset 16
 104 0004 00AF     		add	r7, sp, #0
 105              		.cfi_offset 14, -4
 106              		.cfi_offset 7, -8
 107              	.LCFI5:
 108              		.cfi_def_cfa_register 7
 196:.\Generated_Source\PSoC5/USBFS.c ****     uint8 enableInterrupts;
 197:.\Generated_Source\PSoC5/USBFS.c ****     #if(USBFS_EP_MM != USBFS__EP_MANUAL)
 198:.\Generated_Source\PSoC5/USBFS.c ****         uint16 i;
 199:.\Generated_Source\PSoC5/USBFS.c ****     #endif   /* End USBFS_EP_MM != USBFS__EP_MANUAL */
 200:.\Generated_Source\PSoC5/USBFS.c **** 
 201:.\Generated_Source\PSoC5/USBFS.c ****     enableInterrupts = CyEnterCriticalSection();
 109              		.loc 1 201 0
 110 0006 FFF7FEFF 		bl	CyEnterCriticalSection
 111 000a 0346     		mov	r3, r0
 112 000c 7B71     		strb	r3, [r7, #5]
 202:.\Generated_Source\PSoC5/USBFS.c **** 
 203:.\Generated_Source\PSoC5/USBFS.c ****     /* Enable USB block  */
 204:.\Generated_Source\PSoC5/USBFS.c ****     USBFS_PM_ACT_CFG_REG |= USBFS_PM_ACT_EN_FSUSB;
 113              		.loc 1 204 0
 114 000e 44F2A533 		movw	r3, #:lower16:1073759141
 115 0012 C4F20003 		movt	r3, #:upper16:1073759141
 116 0016 44F2A532 		movw	r2, #:lower16:1073759141
 117 001a C4F20002 		movt	r2, #:upper16:1073759141
 118 001e 1278     		ldrb	r2, [r2, #0]
 119 0020 D2B2     		uxtb	r2, r2
 120 0022 42F00102 		orr	r2, r2, #1
 121 0026 D2B2     		uxtb	r2, r2
 122 0028 1A70     		strb	r2, [r3, #0]
 205:.\Generated_Source\PSoC5/USBFS.c ****     /* Enable USB block for Standby Power Mode */
 206:.\Generated_Source\PSoC5/USBFS.c ****     USBFS_PM_STBY_CFG_REG |= USBFS_PM_STBY_EN_FSUSB;
 123              		.loc 1 206 0
 124 002a 44F2B533 		movw	r3, #:lower16:1073759157
 125 002e C4F20003 		movt	r3, #:upper16:1073759157
 126 0032 44F2B532 		movw	r2, #:lower16:1073759157
 127 0036 C4F20002 		movt	r2, #:upper16:1073759157
 128 003a 1278     		ldrb	r2, [r2, #0]
 129 003c D2B2     		uxtb	r2, r2
 130 003e 42F00102 		orr	r2, r2, #1
 131 0042 D2B2     		uxtb	r2, r2
 132 0044 1A70     		strb	r2, [r3, #0]
ARM GAS  C:\DOCUME~1\ADMINI~1\LOCALS~1\Temp\ccyKCgI6.s 			page 7


 207:.\Generated_Source\PSoC5/USBFS.c **** 
 208:.\Generated_Source\PSoC5/USBFS.c ****     #if(CY_PSOC5A)
 209:.\Generated_Source\PSoC5/USBFS.c ****         /* Disable USBIO for TO3 */
 210:.\Generated_Source\PSoC5/USBFS.c ****         USBFS_PM_AVAIL_CR_REG &= ~USBFS_PM_AVAIL_EN_FSUSBIO;
 211:.\Generated_Source\PSoC5/USBFS.c ****     #endif /* End CY_PSOC5A */
 212:.\Generated_Source\PSoC5/USBFS.c **** 
 213:.\Generated_Source\PSoC5/USBFS.c ****     /* Enable core clock */
 214:.\Generated_Source\PSoC5/USBFS.c ****     USBFS_USB_CLK_EN_REG = USBFS_USB_CLK_ENABLE;
 133              		.loc 1 214 0
 134 0046 46F29D03 		movw	r3, #:lower16:1073766557
 135 004a C4F20003 		movt	r3, #:upper16:1073766557
 136 004e 4FF00102 		mov	r2, #1
 137 0052 1A70     		strb	r2, [r3, #0]
 215:.\Generated_Source\PSoC5/USBFS.c **** 
 216:.\Generated_Source\PSoC5/USBFS.c ****     USBFS_CR1_REG = USBFS_CR1_ENABLE_LOCK;
 138              		.loc 1 216 0
 139 0054 46F20903 		movw	r3, #:lower16:1073766409
 140 0058 C4F20003 		movt	r3, #:upper16:1073766409
 141 005c 4FF00202 		mov	r2, #2
 142 0060 1A70     		strb	r2, [r3, #0]
 217:.\Generated_Source\PSoC5/USBFS.c **** 
 218:.\Generated_Source\PSoC5/USBFS.c ****     #if(CY_PSOC5A)
 219:.\Generated_Source\PSoC5/USBFS.c ****         /* Enable USBIO for TO3 */
 220:.\Generated_Source\PSoC5/USBFS.c ****         USBFS_PM_AVAIL_CR_REG |= USBFS_PM_AVAIL_EN_FSUSBIO;
 221:.\Generated_Source\PSoC5/USBFS.c ****         /* Bus Reset Length, It has correct default value in ES3 */
 222:.\Generated_Source\PSoC5/USBFS.c ****         USBFS_BUS_RST_CNT_REG = USBFS_BUS_RST_COUNT;
 223:.\Generated_Source\PSoC5/USBFS.c ****     #endif /* End CY_PSOC5A */
 224:.\Generated_Source\PSoC5/USBFS.c **** 
 225:.\Generated_Source\PSoC5/USBFS.c ****     /* ENABLING USBIO PADS IN USB MODE FROM I/O MODE */
 226:.\Generated_Source\PSoC5/USBFS.c ****     #if(!CY_PSOC5A)
 227:.\Generated_Source\PSoC5/USBFS.c ****         /* Ensure USB transmit enable is low (USB_USBIO_CR0.ten). - Manual Transmission - Disabled 
 228:.\Generated_Source\PSoC5/USBFS.c ****         USBFS_USBIO_CR0_REG &= ~USBFS_USBIO_CR0_TEN;
 143              		.loc 1 228 0
 144 0062 46F21003 		movw	r3, #:lower16:1073766416
 145 0066 C4F20003 		movt	r3, #:upper16:1073766416
 146 006a 46F21002 		movw	r2, #:lower16:1073766416
 147 006e C4F20002 		movt	r2, #:upper16:1073766416
 148 0072 1278     		ldrb	r2, [r2, #0]
 149 0074 D2B2     		uxtb	r2, r2
 150 0076 02F07F02 		and	r2, r2, #127
 151 007a 1A70     		strb	r2, [r3, #0]
 229:.\Generated_Source\PSoC5/USBFS.c ****         CyDelayUs(0);  /*~50ns delay */
 152              		.loc 1 229 0
 153 007c 4FF00000 		mov	r0, #0
 154 0080 FFF7FEFF 		bl	CyDelayUs
 230:.\Generated_Source\PSoC5/USBFS.c ****         /* Disable the USBIO by asserting PM.USB_CR0.fsusbio_pd_n(Inverted)
 231:.\Generated_Source\PSoC5/USBFS.c ****         *  high. This will have been set low by the power manger out of reset.
 232:.\Generated_Source\PSoC5/USBFS.c ****         *  Also confirm USBIO pull-up disabled
 233:.\Generated_Source\PSoC5/USBFS.c ****         */
 234:.\Generated_Source\PSoC5/USBFS.c ****         USBFS_PM_USB_CR0_REG &= ~(USBFS_PM_USB_CR0_PD_N |USBFS_PM_USB_CR0_PD_PULLUP_N);
 155              		.loc 1 234 0
 156 0084 44F29433 		movw	r3, #:lower16:1073759124
 157 0088 C4F20003 		movt	r3, #:upper16:1073759124
 158 008c 44F29432 		movw	r2, #:lower16:1073759124
 159 0090 C4F20002 		movt	r2, #:upper16:1073759124
 160 0094 1278     		ldrb	r2, [r2, #0]
 161 0096 D2B2     		uxtb	r2, r2
ARM GAS  C:\DOCUME~1\ADMINI~1\LOCALS~1\Temp\ccyKCgI6.s 			page 8


 162 0098 02F0F902 		and	r2, r2, #249
 163 009c 1A70     		strb	r2, [r3, #0]
 235:.\Generated_Source\PSoC5/USBFS.c **** 
 236:.\Generated_Source\PSoC5/USBFS.c ****         /* Select iomode to USB mode*/
 237:.\Generated_Source\PSoC5/USBFS.c ****         USBFS_USBIO_CR1_REG &= ~ USBFS_USBIO_CR1_IOMODE;
 164              		.loc 1 237 0
 165 009e 46F21203 		movw	r3, #:lower16:1073766418
 166 00a2 C4F20003 		movt	r3, #:upper16:1073766418
 167 00a6 46F21202 		movw	r2, #:lower16:1073766418
 168 00aa C4F20002 		movt	r2, #:upper16:1073766418
 169 00ae 1278     		ldrb	r2, [r2, #0]
 170 00b0 D2B2     		uxtb	r2, r2
 171 00b2 02F0DF02 		and	r2, r2, #223
 172 00b6 1A70     		strb	r2, [r3, #0]
 238:.\Generated_Source\PSoC5/USBFS.c **** 
 239:.\Generated_Source\PSoC5/USBFS.c ****         /* Enable the USBIO reference by setting PM.USB_CR0.fsusbio_ref_en.*/
 240:.\Generated_Source\PSoC5/USBFS.c ****         USBFS_PM_USB_CR0_REG |= USBFS_PM_USB_CR0_REF_EN;
 173              		.loc 1 240 0
 174 00b8 44F29433 		movw	r3, #:lower16:1073759124
 175 00bc C4F20003 		movt	r3, #:upper16:1073759124
 176 00c0 44F29432 		movw	r2, #:lower16:1073759124
 177 00c4 C4F20002 		movt	r2, #:upper16:1073759124
 178 00c8 1278     		ldrb	r2, [r2, #0]
 179 00ca D2B2     		uxtb	r2, r2
 180 00cc 42F00102 		orr	r2, r2, #1
 181 00d0 D2B2     		uxtb	r2, r2
 182 00d2 1A70     		strb	r2, [r3, #0]
 241:.\Generated_Source\PSoC5/USBFS.c ****         /* The reference will be available 1 us after the regulator is enabled */
 242:.\Generated_Source\PSoC5/USBFS.c ****         CyDelayUs(1);
 183              		.loc 1 242 0
 184 00d4 4FF00100 		mov	r0, #1
 185 00d8 FFF7FEFF 		bl	CyDelayUs
 243:.\Generated_Source\PSoC5/USBFS.c ****         /* OR 40us after power restored */
 244:.\Generated_Source\PSoC5/USBFS.c ****         CyDelayUs(40);
 186              		.loc 1 244 0
 187 00dc 4FF02800 		mov	r0, #40
 188 00e0 FFF7FEFF 		bl	CyDelayUs
 245:.\Generated_Source\PSoC5/USBFS.c ****         /* Ensure the single ended disable bits are low (PRT15.INP_DIS[7:6])(input receiver enabled
 246:.\Generated_Source\PSoC5/USBFS.c ****         USBFS_DM_INP_DIS_REG &= ~USBFS_DM_MASK;
 189              		.loc 1 246 0
 190 00e4 45F2F813 		movw	r3, #:lower16:1073762808
 191 00e8 C4F20003 		movt	r3, #:upper16:1073762808
 192 00ec 45F2F812 		movw	r2, #:lower16:1073762808
 193 00f0 C4F20002 		movt	r2, #:upper16:1073762808
 194 00f4 1278     		ldrb	r2, [r2, #0]
 195 00f6 D2B2     		uxtb	r2, r2
 196 00f8 02F07F02 		and	r2, r2, #127
 197 00fc 1A70     		strb	r2, [r3, #0]
 247:.\Generated_Source\PSoC5/USBFS.c ****         USBFS_DP_INP_DIS_REG &= ~USBFS_DP_MASK;
 198              		.loc 1 247 0
 199 00fe 45F2F813 		movw	r3, #:lower16:1073762808
 200 0102 C4F20003 		movt	r3, #:upper16:1073762808
 201 0106 45F2F812 		movw	r2, #:lower16:1073762808
 202 010a C4F20002 		movt	r2, #:upper16:1073762808
 203 010e 1278     		ldrb	r2, [r2, #0]
 204 0110 D2B2     		uxtb	r2, r2
 205 0112 02F0BF02 		and	r2, r2, #191
ARM GAS  C:\DOCUME~1\ADMINI~1\LOCALS~1\Temp\ccyKCgI6.s 			page 9


 206 0116 1A70     		strb	r2, [r3, #0]
 248:.\Generated_Source\PSoC5/USBFS.c **** 
 249:.\Generated_Source\PSoC5/USBFS.c ****         /* Enable USBIO */
 250:.\Generated_Source\PSoC5/USBFS.c ****         USBFS_PM_USB_CR0_REG |= USBFS_PM_USB_CR0_PD_N;
 207              		.loc 1 250 0
 208 0118 44F29433 		movw	r3, #:lower16:1073759124
 209 011c C4F20003 		movt	r3, #:upper16:1073759124
 210 0120 44F29432 		movw	r2, #:lower16:1073759124
 211 0124 C4F20002 		movt	r2, #:upper16:1073759124
 212 0128 1278     		ldrb	r2, [r2, #0]
 213 012a D2B2     		uxtb	r2, r2
 214 012c 42F00202 		orr	r2, r2, #2
 215 0130 D2B2     		uxtb	r2, r2
 216 0132 1A70     		strb	r2, [r3, #0]
 251:.\Generated_Source\PSoC5/USBFS.c ****         CyDelayUs(2);
 217              		.loc 1 251 0
 218 0134 4FF00200 		mov	r0, #2
 219 0138 FFF7FEFF 		bl	CyDelayUs
 252:.\Generated_Source\PSoC5/USBFS.c ****         /* Set the USBIO pull-up enable */
 253:.\Generated_Source\PSoC5/USBFS.c ****         USBFS_PM_USB_CR0_REG |= USBFS_PM_USB_CR0_PD_PULLUP_N;
 220              		.loc 1 253 0
 221 013c 44F29433 		movw	r3, #:lower16:1073759124
 222 0140 C4F20003 		movt	r3, #:upper16:1073759124
 223 0144 44F29432 		movw	r2, #:lower16:1073759124
 224 0148 C4F20002 		movt	r2, #:upper16:1073759124
 225 014c 1278     		ldrb	r2, [r2, #0]
 226 014e D2B2     		uxtb	r2, r2
 227 0150 42F00402 		orr	r2, r2, #4
 228 0154 D2B2     		uxtb	r2, r2
 229 0156 1A70     		strb	r2, [r3, #0]
 254:.\Generated_Source\PSoC5/USBFS.c **** 
 255:.\Generated_Source\PSoC5/USBFS.c ****     #endif /* End !CY_PSOC5A */
 256:.\Generated_Source\PSoC5/USBFS.c **** 
 257:.\Generated_Source\PSoC5/USBFS.c ****     /* Write WAx */
 258:.\Generated_Source\PSoC5/USBFS.c ****     CY_SET_REG8(&USBFS_ARB_RW1_WA_PTR[0u],     0u);
 230              		.loc 1 258 0
 231 0158 46F28403 		movw	r3, #:lower16:1073766532
 232 015c C4F20003 		movt	r3, #:upper16:1073766532
 233 0160 4FF00002 		mov	r2, #0
 234 0164 1A70     		strb	r2, [r3, #0]
 259:.\Generated_Source\PSoC5/USBFS.c ****     CY_SET_REG8(&USBFS_ARB_RW1_WA_MSB_PTR[0u], 0u);
 235              		.loc 1 259 0
 236 0166 46F28503 		movw	r3, #:lower16:1073766533
 237 016a C4F20003 		movt	r3, #:upper16:1073766533
 238 016e 4FF00002 		mov	r2, #0
 239 0172 1A70     		strb	r2, [r3, #0]
 260:.\Generated_Source\PSoC5/USBFS.c **** 
 261:.\Generated_Source\PSoC5/USBFS.c ****     #if(USBFS_EP_MM != USBFS__EP_MANUAL)
 262:.\Generated_Source\PSoC5/USBFS.c ****         /* Init transfer descriptor. This will be used to detect the DMA state - initialized or not
 263:.\Generated_Source\PSoC5/USBFS.c ****         for (i = 0u; i < USBFS_MAX_EP; i++)
 240              		.loc 1 263 0
 241 0174 4FF00003 		mov	r3, #0
 242 0178 FB80     		strh	r3, [r7, #6]	@ movhi
 243 017a 0BE0     		b	.L5
 244              	.L6:
 264:.\Generated_Source\PSoC5/USBFS.c ****         {
 265:.\Generated_Source\PSoC5/USBFS.c ****             USBFS_DmaTd[i] = DMA_INVALID_TD;
ARM GAS  C:\DOCUME~1\ADMINI~1\LOCALS~1\Temp\ccyKCgI6.s 			page 10


 245              		.loc 1 265 0
 246 017c FA88     		ldrh	r2, [r7, #6]
 247 017e 40F20003 		movw	r3, #:lower16:USBFS_DmaTd
 248 0182 C0F20003 		movt	r3, #:upper16:USBFS_DmaTd
 249 0186 4FF0FF31 		mov	r1, #-1
 250 018a 9954     		strb	r1, [r3, r2]
 251              		.loc 1 263 0
 252 018c FB88     		ldrh	r3, [r7, #6]	@ movhi
 253 018e 03F10103 		add	r3, r3, #1
 254 0192 FB80     		strh	r3, [r7, #6]	@ movhi
 255              	.L5:
 256 0194 FB88     		ldrh	r3, [r7, #6]
 257 0196 082B     		cmp	r3, #8
 258 0198 F0D9     		bls	.L6
 266:.\Generated_Source\PSoC5/USBFS.c ****         }
 267:.\Generated_Source\PSoC5/USBFS.c ****     #endif   /* End USBFS_EP_MM != USBFS__EP_MANUAL */
 268:.\Generated_Source\PSoC5/USBFS.c **** 
 269:.\Generated_Source\PSoC5/USBFS.c ****     CyExitCriticalSection(enableInterrupts);
 259              		.loc 1 269 0
 260 019a 7B79     		ldrb	r3, [r7, #5]	@ zero_extendqisi2
 261 019c 1846     		mov	r0, r3
 262 019e FFF7FEFF 		bl	CyExitCriticalSection
 270:.\Generated_Source\PSoC5/USBFS.c **** 
 271:.\Generated_Source\PSoC5/USBFS.c **** 
 272:.\Generated_Source\PSoC5/USBFS.c ****     /* Set the bus reset Interrupt. */
 273:.\Generated_Source\PSoC5/USBFS.c ****     CyIntSetVector(USBFS_BUS_RESET_VECT_NUM,   USBFS_BUS_RESET_ISR);
 263              		.loc 1 273 0
 264 01a2 4FF01700 		mov	r0, #23
 265 01a6 40F20001 		movw	r1, #:lower16:USBFS_BUS_RESET_ISR
 266 01aa C0F20001 		movt	r1, #:upper16:USBFS_BUS_RESET_ISR
 267 01ae FFF7FEFF 		bl	CyIntSetVector
 274:.\Generated_Source\PSoC5/USBFS.c ****     CyIntSetPriority(USBFS_BUS_RESET_VECT_NUM, USBFS_BUS_RESET_PRIOR);
 268              		.loc 1 274 0
 269 01b2 4FF01700 		mov	r0, #23
 270 01b6 4FF00701 		mov	r1, #7
 271 01ba FFF7FEFF 		bl	CyIntSetPriority
 275:.\Generated_Source\PSoC5/USBFS.c **** 
 276:.\Generated_Source\PSoC5/USBFS.c ****     /* Set the SOF Interrupt. */
 277:.\Generated_Source\PSoC5/USBFS.c ****     #if(USBFS_SOF_ISR_REMOVE == 0u)
 278:.\Generated_Source\PSoC5/USBFS.c ****         CyIntSetVector(USBFS_SOF_VECT_NUM,   USBFS_SOF_ISR);
 272              		.loc 1 278 0
 273 01be 4FF01500 		mov	r0, #21
 274 01c2 40F20001 		movw	r1, #:lower16:USBFS_SOF_ISR
 275 01c6 C0F20001 		movt	r1, #:upper16:USBFS_SOF_ISR
 276 01ca FFF7FEFF 		bl	CyIntSetVector
 279:.\Generated_Source\PSoC5/USBFS.c ****         CyIntSetPriority(USBFS_SOF_VECT_NUM, USBFS_SOF_PRIOR);
 277              		.loc 1 279 0
 278 01ce 4FF01500 		mov	r0, #21
 279 01d2 4FF00701 		mov	r1, #7
 280 01d6 FFF7FEFF 		bl	CyIntSetPriority
 280:.\Generated_Source\PSoC5/USBFS.c ****     #endif   /* End USBFS_SOF_ISR_REMOVE */
 281:.\Generated_Source\PSoC5/USBFS.c **** 
 282:.\Generated_Source\PSoC5/USBFS.c ****     /* Set the Control Endpoint Interrupt. */
 283:.\Generated_Source\PSoC5/USBFS.c ****     CyIntSetVector(USBFS_EP_0_VECT_NUM,   USBFS_EP_0_ISR);
 281              		.loc 1 283 0
 282 01da 4FF01800 		mov	r0, #24
 283 01de 40F20001 		movw	r1, #:lower16:USBFS_EP_0_ISR
ARM GAS  C:\DOCUME~1\ADMINI~1\LOCALS~1\Temp\ccyKCgI6.s 			page 11


 284 01e2 C0F20001 		movt	r1, #:upper16:USBFS_EP_0_ISR
 285 01e6 FFF7FEFF 		bl	CyIntSetVector
 284:.\Generated_Source\PSoC5/USBFS.c ****     CyIntSetPriority(USBFS_EP_0_VECT_NUM, USBFS_EP_0_PRIOR);
 286              		.loc 1 284 0
 287 01ea 4FF01800 		mov	r0, #24
 288 01ee 4FF00701 		mov	r1, #7
 289 01f2 FFF7FEFF 		bl	CyIntSetPriority
 285:.\Generated_Source\PSoC5/USBFS.c **** 
 286:.\Generated_Source\PSoC5/USBFS.c ****     /* Set the Data Endpoint 1 Interrupt. */
 287:.\Generated_Source\PSoC5/USBFS.c ****     #if(USBFS_EP1_ISR_REMOVE == 0u)
 288:.\Generated_Source\PSoC5/USBFS.c ****         CyIntSetVector(USBFS_EP_1_VECT_NUM,   USBFS_EP_1_ISR);
 289:.\Generated_Source\PSoC5/USBFS.c ****         CyIntSetPriority(USBFS_EP_1_VECT_NUM, USBFS_EP_1_PRIOR);
 290:.\Generated_Source\PSoC5/USBFS.c ****     #endif   /* End USBFS_EP1_ISR_REMOVE */
 291:.\Generated_Source\PSoC5/USBFS.c **** 
 292:.\Generated_Source\PSoC5/USBFS.c ****     /* Set the Data Endpoint 2 Interrupt. */
 293:.\Generated_Source\PSoC5/USBFS.c ****     #if(USBFS_EP2_ISR_REMOVE == 0u)
 294:.\Generated_Source\PSoC5/USBFS.c ****         CyIntSetVector(USBFS_EP_2_VECT_NUM,   USBFS_EP_2_ISR);
 290              		.loc 1 294 0
 291 01f6 4FF00100 		mov	r0, #1
 292 01fa 40F20001 		movw	r1, #:lower16:USBFS_EP_2_ISR
 293 01fe C0F20001 		movt	r1, #:upper16:USBFS_EP_2_ISR
 294 0202 FFF7FEFF 		bl	CyIntSetVector
 295:.\Generated_Source\PSoC5/USBFS.c ****         CyIntSetPriority(USBFS_EP_2_VECT_NUM, USBFS_EP_2_PRIOR);
 295              		.loc 1 295 0
 296 0206 4FF00100 		mov	r0, #1
 297 020a 4FF00701 		mov	r1, #7
 298 020e FFF7FEFF 		bl	CyIntSetPriority
 296:.\Generated_Source\PSoC5/USBFS.c ****     #endif   /* End USBFS_EP2_ISR_REMOVE */
 297:.\Generated_Source\PSoC5/USBFS.c **** 
 298:.\Generated_Source\PSoC5/USBFS.c ****     /* Set the Data Endpoint 3 Interrupt. */
 299:.\Generated_Source\PSoC5/USBFS.c ****     #if(USBFS_EP3_ISR_REMOVE == 0u)
 300:.\Generated_Source\PSoC5/USBFS.c ****         CyIntSetVector(USBFS_EP_3_VECT_NUM,   USBFS_EP_3_ISR);
 301:.\Generated_Source\PSoC5/USBFS.c ****         CyIntSetPriority(USBFS_EP_3_VECT_NUM, USBFS_EP_3_PRIOR);
 302:.\Generated_Source\PSoC5/USBFS.c ****     #endif   /* End USBFS_EP3_ISR_REMOVE */
 303:.\Generated_Source\PSoC5/USBFS.c **** 
 304:.\Generated_Source\PSoC5/USBFS.c ****     /* Set the Data Endpoint 4 Interrupt. */
 305:.\Generated_Source\PSoC5/USBFS.c ****     #if(USBFS_EP4_ISR_REMOVE == 0u)
 306:.\Generated_Source\PSoC5/USBFS.c ****         CyIntSetVector(USBFS_EP_4_VECT_NUM,   USBFS_EP_4_ISR);
 299              		.loc 1 306 0
 300 0212 4FF00200 		mov	r0, #2
 301 0216 40F20001 		movw	r1, #:lower16:USBFS_EP_4_ISR
 302 021a C0F20001 		movt	r1, #:upper16:USBFS_EP_4_ISR
 303 021e FFF7FEFF 		bl	CyIntSetVector
 307:.\Generated_Source\PSoC5/USBFS.c ****         CyIntSetPriority(USBFS_EP_4_VECT_NUM, USBFS_EP_4_PRIOR);
 304              		.loc 1 307 0
 305 0222 4FF00200 		mov	r0, #2
 306 0226 4FF00701 		mov	r1, #7
 307 022a FFF7FEFF 		bl	CyIntSetPriority
 308:.\Generated_Source\PSoC5/USBFS.c ****     #endif   /* End USBFS_EP4_ISR_REMOVE */
 309:.\Generated_Source\PSoC5/USBFS.c **** 
 310:.\Generated_Source\PSoC5/USBFS.c ****     /* Set the Data Endpoint 5 Interrupt. */
 311:.\Generated_Source\PSoC5/USBFS.c ****     #if(USBFS_EP5_ISR_REMOVE == 0u)
 312:.\Generated_Source\PSoC5/USBFS.c ****         CyIntSetVector(USBFS_EP_5_VECT_NUM,   USBFS_EP_5_ISR);
 313:.\Generated_Source\PSoC5/USBFS.c ****         CyIntSetPriority(USBFS_EP_5_VECT_NUM, USBFS_EP_5_PRIOR);
 314:.\Generated_Source\PSoC5/USBFS.c ****     #endif   /* End USBFS_EP5_ISR_REMOVE */
 315:.\Generated_Source\PSoC5/USBFS.c **** 
 316:.\Generated_Source\PSoC5/USBFS.c ****     /* Set the Data Endpoint 6 Interrupt. */
ARM GAS  C:\DOCUME~1\ADMINI~1\LOCALS~1\Temp\ccyKCgI6.s 			page 12


 317:.\Generated_Source\PSoC5/USBFS.c ****     #if(USBFS_EP6_ISR_REMOVE == 0u)
 318:.\Generated_Source\PSoC5/USBFS.c ****         CyIntSetVector(USBFS_EP_6_VECT_NUM,   USBFS_EP_6_ISR);
 308              		.loc 1 318 0
 309 022e 4FF00300 		mov	r0, #3
 310 0232 40F20001 		movw	r1, #:lower16:USBFS_EP_6_ISR
 311 0236 C0F20001 		movt	r1, #:upper16:USBFS_EP_6_ISR
 312 023a FFF7FEFF 		bl	CyIntSetVector
 319:.\Generated_Source\PSoC5/USBFS.c ****         CyIntSetPriority(USBFS_EP_6_VECT_NUM, USBFS_EP_6_PRIOR);
 313              		.loc 1 319 0
 314 023e 4FF00300 		mov	r0, #3
 315 0242 4FF00701 		mov	r1, #7
 316 0246 FFF7FEFF 		bl	CyIntSetPriority
 320:.\Generated_Source\PSoC5/USBFS.c ****     #endif   /* End USBFS_EP6_ISR_REMOVE */
 321:.\Generated_Source\PSoC5/USBFS.c **** 
 322:.\Generated_Source\PSoC5/USBFS.c ****      /* Set the Data Endpoint 7 Interrupt. */
 323:.\Generated_Source\PSoC5/USBFS.c ****     #if(USBFS_EP7_ISR_REMOVE == 0u)
 324:.\Generated_Source\PSoC5/USBFS.c ****         CyIntSetVector(USBFS_EP_7_VECT_NUM,   USBFS_EP_7_ISR);
 325:.\Generated_Source\PSoC5/USBFS.c ****         CyIntSetPriority(USBFS_EP_7_VECT_NUM, USBFS_EP_7_PRIOR);
 326:.\Generated_Source\PSoC5/USBFS.c ****     #endif   /* End USBFS_EP7_ISR_REMOVE */
 327:.\Generated_Source\PSoC5/USBFS.c **** 
 328:.\Generated_Source\PSoC5/USBFS.c ****     /* Set the Data Endpoint 8 Interrupt. */
 329:.\Generated_Source\PSoC5/USBFS.c ****     #if(USBFS_EP8_ISR_REMOVE == 0u)
 330:.\Generated_Source\PSoC5/USBFS.c ****         CyIntSetVector(USBFS_EP_8_VECT_NUM,   USBFS_EP_8_ISR);
 331:.\Generated_Source\PSoC5/USBFS.c ****         CyIntSetPriority(USBFS_EP_8_VECT_NUM, USBFS_EP_8_PRIOR);
 332:.\Generated_Source\PSoC5/USBFS.c ****     #endif   /* End USBFS_EP8_ISR_REMOVE */
 333:.\Generated_Source\PSoC5/USBFS.c **** 
 334:.\Generated_Source\PSoC5/USBFS.c ****     #if((USBFS_EP_MM != USBFS__EP_MANUAL) && (USBFS_ARB_ISR_REMOVE == 0u))
 335:.\Generated_Source\PSoC5/USBFS.c ****         /* Set the ARB Interrupt. */
 336:.\Generated_Source\PSoC5/USBFS.c ****         CyIntSetVector(USBFS_ARB_VECT_NUM,   USBFS_ARB_ISR);
 317              		.loc 1 336 0
 318 024a 4FF01600 		mov	r0, #22
 319 024e 40F20001 		movw	r1, #:lower16:USBFS_ARB_ISR
 320 0252 C0F20001 		movt	r1, #:upper16:USBFS_ARB_ISR
 321 0256 FFF7FEFF 		bl	CyIntSetVector
 337:.\Generated_Source\PSoC5/USBFS.c ****         CyIntSetPriority(USBFS_ARB_VECT_NUM, USBFS_ARB_PRIOR);
 322              		.loc 1 337 0
 323 025a 4FF01600 		mov	r0, #22
 324 025e 4FF00001 		mov	r1, #0
 325 0262 FFF7FEFF 		bl	CyIntSetPriority
 338:.\Generated_Source\PSoC5/USBFS.c ****     #endif   /* End USBFS_EP_MM != USBFS__EP_MANUAL */
 339:.\Generated_Source\PSoC5/USBFS.c **** 
 340:.\Generated_Source\PSoC5/USBFS.c **** }
 326              		.loc 1 340 0
 327 0266 07F10807 		add	r7, r7, #8
 328 026a BD46     		mov	sp, r7
 329 026c 80BD     		pop	{r7, pc}
 330              		.cfi_endproc
 331              	.LFE1:
 332              		.size	USBFS_Init, .-USBFS_Init
 333 026e 00BF     		.section	.text.USBFS_InitComponent,"ax",%progbits
 334              		.align	2
 335              		.global	USBFS_InitComponent
 336              		.thumb
 337              		.thumb_func
 338              		.type	USBFS_InitComponent, %function
 339              	USBFS_InitComponent:
 340              	.LFB2:
ARM GAS  C:\DOCUME~1\ADMINI~1\LOCALS~1\Temp\ccyKCgI6.s 			page 13


 341:.\Generated_Source\PSoC5/USBFS.c **** 
 342:.\Generated_Source\PSoC5/USBFS.c **** 
 343:.\Generated_Source\PSoC5/USBFS.c **** /*******************************************************************************
 344:.\Generated_Source\PSoC5/USBFS.c **** * Function Name: USBFS_InitComponent
 345:.\Generated_Source\PSoC5/USBFS.c **** ********************************************************************************
 346:.\Generated_Source\PSoC5/USBFS.c **** *
 347:.\Generated_Source\PSoC5/USBFS.c **** * Summary:
 348:.\Generated_Source\PSoC5/USBFS.c **** *  Initialize the component, except for the HW which is done one time in
 349:.\Generated_Source\PSoC5/USBFS.c **** *  the Start function.  This function pulls up D+.
 350:.\Generated_Source\PSoC5/USBFS.c **** *
 351:.\Generated_Source\PSoC5/USBFS.c **** * Parameters:
 352:.\Generated_Source\PSoC5/USBFS.c **** *  device: Contains the device number of the desired device descriptor.
 353:.\Generated_Source\PSoC5/USBFS.c **** *          The device number can be found in the Device Descriptor Tab of 
 354:.\Generated_Source\PSoC5/USBFS.c **** *          "Configure" dialog, under the settings of desired Device Descriptor,
 355:.\Generated_Source\PSoC5/USBFS.c **** *          in the "Device Number" field.
 356:.\Generated_Source\PSoC5/USBFS.c **** *  mode: The operating voltage. This determines whether the voltage regulator
 357:.\Generated_Source\PSoC5/USBFS.c **** *        is enabled for 5V operation or if pass through mode is used for 3.3V
 358:.\Generated_Source\PSoC5/USBFS.c **** *        operation. Symbolic names and their associated values are given in the
 359:.\Generated_Source\PSoC5/USBFS.c **** *        following table.
 360:.\Generated_Source\PSoC5/USBFS.c **** *       USBFS_3V_OPERATION - Disable voltage regulator and pass-thru
 361:.\Generated_Source\PSoC5/USBFS.c **** *                                       Vcc for pull-up
 362:.\Generated_Source\PSoC5/USBFS.c **** *       USBFS_5V_OPERATION - Enable voltage regulator and use
 363:.\Generated_Source\PSoC5/USBFS.c **** *                                       regulator for pull-up
 364:.\Generated_Source\PSoC5/USBFS.c **** *       USBFS_DWR_VDDD_OPERATION - Enable or Disable voltage
 365:.\Generated_Source\PSoC5/USBFS.c **** *                         regulator depend on Vddd Voltage configuration in DWR.
 366:.\Generated_Source\PSoC5/USBFS.c **** *
 367:.\Generated_Source\PSoC5/USBFS.c **** * Return:
 368:.\Generated_Source\PSoC5/USBFS.c **** *   None.
 369:.\Generated_Source\PSoC5/USBFS.c **** *
 370:.\Generated_Source\PSoC5/USBFS.c **** * Global variables:
 371:.\Generated_Source\PSoC5/USBFS.c **** *   USBFS_device: Contains the device number of the desired device
 372:.\Generated_Source\PSoC5/USBFS.c **** *       descriptor. The device number can be found in the Device Descriptor Tab 
 373:.\Generated_Source\PSoC5/USBFS.c **** *       of "Configure" dialog, under the settings of desired Device Descriptor,
 374:.\Generated_Source\PSoC5/USBFS.c **** *       in the "Device Number" field.
 375:.\Generated_Source\PSoC5/USBFS.c **** *   USBFS_transferState: This variable used by the communication
 376:.\Generated_Source\PSoC5/USBFS.c **** *       functions to handle current transfer state. Initialized to
 377:.\Generated_Source\PSoC5/USBFS.c **** *       TRANS_STATE_IDLE in this API.
 378:.\Generated_Source\PSoC5/USBFS.c **** *   USBFS_configuration: Contains current configuration number
 379:.\Generated_Source\PSoC5/USBFS.c **** *       which is set by the Host using SET_CONFIGURATION request.
 380:.\Generated_Source\PSoC5/USBFS.c **** *       Initialized to zero in this API.
 381:.\Generated_Source\PSoC5/USBFS.c **** *   USBFS_deviceAddress: Contains current device address. This
 382:.\Generated_Source\PSoC5/USBFS.c **** *       variable is initialized to zero in this API. Host starts to communicate
 383:.\Generated_Source\PSoC5/USBFS.c **** *      to device with address 0 and then set it to whatever value using
 384:.\Generated_Source\PSoC5/USBFS.c **** *      SET_ADDRESS request.
 385:.\Generated_Source\PSoC5/USBFS.c **** *   USBFS_deviceStatus: initialized to 0.
 386:.\Generated_Source\PSoC5/USBFS.c **** *       This is two bit variable which contain power status in first bit
 387:.\Generated_Source\PSoC5/USBFS.c **** *       (DEVICE_STATUS_BUS_POWERED or DEVICE_STATUS_SELF_POWERED) and remote
 388:.\Generated_Source\PSoC5/USBFS.c **** *       wakeup status (DEVICE_STATUS_REMOTE_WAKEUP) in second bit.
 389:.\Generated_Source\PSoC5/USBFS.c **** *   USBFS_lastPacketSize initialized to 0;
 390:.\Generated_Source\PSoC5/USBFS.c **** *
 391:.\Generated_Source\PSoC5/USBFS.c **** * Reentrant:
 392:.\Generated_Source\PSoC5/USBFS.c **** *  No.
 393:.\Generated_Source\PSoC5/USBFS.c **** *
 394:.\Generated_Source\PSoC5/USBFS.c **** *******************************************************************************/
 395:.\Generated_Source\PSoC5/USBFS.c **** void USBFS_InitComponent(uint8 device, uint8 mode) 
 396:.\Generated_Source\PSoC5/USBFS.c **** {
 341              		.loc 1 396 0
ARM GAS  C:\DOCUME~1\ADMINI~1\LOCALS~1\Temp\ccyKCgI6.s 			page 14


 342              		.cfi_startproc
 343              		@ args = 0, pretend = 0, frame = 16
 344              		@ frame_needed = 1, uses_anonymous_args = 0
 345 0000 80B5     		push	{r7, lr}
 346              	.LCFI6:
 347              		.cfi_def_cfa_offset 8
 348 0002 84B0     		sub	sp, sp, #16
 349              	.LCFI7:
 350              		.cfi_def_cfa_offset 24
 351 0004 00AF     		add	r7, sp, #0
 352              		.cfi_offset 14, -4
 353              		.cfi_offset 7, -8
 354              	.LCFI8:
 355              		.cfi_def_cfa_register 7
 356 0006 0246     		mov	r2, r0
 357 0008 0B46     		mov	r3, r1
 358 000a FA71     		strb	r2, [r7, #7]
 359 000c BB71     		strb	r3, [r7, #6]
 397:.\Generated_Source\PSoC5/USBFS.c ****     /* Initialize _hidProtocol variable to comply with
 398:.\Generated_Source\PSoC5/USBFS.c ****     *  HID 7.2.6 Set_Protocol Request:
 399:.\Generated_Source\PSoC5/USBFS.c ****     *  "When initialized, all devices default to report protocol."
 400:.\Generated_Source\PSoC5/USBFS.c ****     */
 401:.\Generated_Source\PSoC5/USBFS.c ****     #if defined(USBFS_ENABLE_HID_CLASS)
 402:.\Generated_Source\PSoC5/USBFS.c ****         uint8 interface;
 403:.\Generated_Source\PSoC5/USBFS.c **** 
 404:.\Generated_Source\PSoC5/USBFS.c ****         for (interface = 0u; interface < USBFS_MAX_INTERFACES_NUMBER; interface++)
 360              		.loc 1 404 0
 361 000e 4FF00003 		mov	r3, #0
 362 0012 FB73     		strb	r3, [r7, #15]
 363 0014 0BE0     		b	.L9
 364              	.L10:
 405:.\Generated_Source\PSoC5/USBFS.c ****         {
 406:.\Generated_Source\PSoC5/USBFS.c ****             USBFS_hidProtocol[interface] = USBFS_PROTOCOL_REPORT;
 365              		.loc 1 406 0
 366 0016 FA7B     		ldrb	r2, [r7, #15]	@ zero_extendqisi2
 367 0018 40F20003 		movw	r3, #:lower16:USBFS_hidProtocol
 368 001c C0F20003 		movt	r3, #:upper16:USBFS_hidProtocol
 369 0020 4FF00101 		mov	r1, #1
 370 0024 9954     		strb	r1, [r3, r2]
 371              		.loc 1 404 0
 372 0026 FB7B     		ldrb	r3, [r7, #15]
 373 0028 03F10103 		add	r3, r3, #1
 374 002c FB73     		strb	r3, [r7, #15]
 375              	.L9:
 376 002e FB7B     		ldrb	r3, [r7, #15]	@ zero_extendqisi2
 377 0030 022B     		cmp	r3, #2
 378 0032 F0D9     		bls	.L10
 407:.\Generated_Source\PSoC5/USBFS.c ****         }
 408:.\Generated_Source\PSoC5/USBFS.c ****     #endif /* USBFS_ENABLE_HID_CLASS */
 409:.\Generated_Source\PSoC5/USBFS.c **** 
 410:.\Generated_Source\PSoC5/USBFS.c ****     /* Enable Interrupts. */
 411:.\Generated_Source\PSoC5/USBFS.c ****     CyIntEnable(USBFS_BUS_RESET_VECT_NUM);
 379              		.loc 1 411 0
 380 0034 4EF20013 		movw	r3, #:lower16:-536813312
 381 0038 CEF20003 		movt	r3, #:upper16:-536813312
 382 003c 4FF40002 		mov	r2, #8388608
 383 0040 1A60     		str	r2, [r3, #0]
ARM GAS  C:\DOCUME~1\ADMINI~1\LOCALS~1\Temp\ccyKCgI6.s 			page 15


 412:.\Generated_Source\PSoC5/USBFS.c ****     CyIntEnable(USBFS_EP_0_VECT_NUM);
 384              		.loc 1 412 0
 385 0042 4EF20013 		movw	r3, #:lower16:-536813312
 386 0046 CEF20003 		movt	r3, #:upper16:-536813312
 387 004a 4FF08072 		mov	r2, #16777216
 388 004e 1A60     		str	r2, [r3, #0]
 413:.\Generated_Source\PSoC5/USBFS.c ****     #if(USBFS_EP1_ISR_REMOVE == 0u)
 414:.\Generated_Source\PSoC5/USBFS.c ****         CyIntEnable(USBFS_EP_1_VECT_NUM);
 415:.\Generated_Source\PSoC5/USBFS.c ****     #endif   /* End USBFS_EP1_ISR_REMOVE */
 416:.\Generated_Source\PSoC5/USBFS.c ****     #if(USBFS_EP2_ISR_REMOVE == 0u)
 417:.\Generated_Source\PSoC5/USBFS.c ****         CyIntEnable(USBFS_EP_2_VECT_NUM);
 389              		.loc 1 417 0
 390 0050 4EF20013 		movw	r3, #:lower16:-536813312
 391 0054 CEF20003 		movt	r3, #:upper16:-536813312
 392 0058 4FF00202 		mov	r2, #2
 393 005c 1A60     		str	r2, [r3, #0]
 418:.\Generated_Source\PSoC5/USBFS.c ****     #endif   /* End USBFS_EP2_ISR_REMOVE */
 419:.\Generated_Source\PSoC5/USBFS.c ****     #if(USBFS_EP3_ISR_REMOVE == 0u)
 420:.\Generated_Source\PSoC5/USBFS.c ****         CyIntEnable(USBFS_EP_3_VECT_NUM);
 421:.\Generated_Source\PSoC5/USBFS.c ****     #endif   /* End USBFS_EP3_ISR_REMOVE */
 422:.\Generated_Source\PSoC5/USBFS.c ****     #if(USBFS_EP4_ISR_REMOVE == 0u)
 423:.\Generated_Source\PSoC5/USBFS.c ****         CyIntEnable(USBFS_EP_4_VECT_NUM);
 394              		.loc 1 423 0
 395 005e 4EF20013 		movw	r3, #:lower16:-536813312
 396 0062 CEF20003 		movt	r3, #:upper16:-536813312
 397 0066 4FF00402 		mov	r2, #4
 398 006a 1A60     		str	r2, [r3, #0]
 424:.\Generated_Source\PSoC5/USBFS.c ****     #endif   /* End USBFS_EP4_ISR_REMOVE */
 425:.\Generated_Source\PSoC5/USBFS.c ****     #if(USBFS_EP5_ISR_REMOVE == 0u)
 426:.\Generated_Source\PSoC5/USBFS.c ****         CyIntEnable(USBFS_EP_5_VECT_NUM);
 427:.\Generated_Source\PSoC5/USBFS.c ****     #endif   /* End USBFS_EP5_ISR_REMOVE */
 428:.\Generated_Source\PSoC5/USBFS.c ****     #if(USBFS_EP6_ISR_REMOVE == 0u)
 429:.\Generated_Source\PSoC5/USBFS.c ****         CyIntEnable(USBFS_EP_6_VECT_NUM);
 399              		.loc 1 429 0
 400 006c 4EF20013 		movw	r3, #:lower16:-536813312
 401 0070 CEF20003 		movt	r3, #:upper16:-536813312
 402 0074 4FF00802 		mov	r2, #8
 403 0078 1A60     		str	r2, [r3, #0]
 430:.\Generated_Source\PSoC5/USBFS.c ****     #endif   /* End USBFS_EP6_ISR_REMOVE */
 431:.\Generated_Source\PSoC5/USBFS.c ****     #if(USBFS_EP7_ISR_REMOVE == 0u)
 432:.\Generated_Source\PSoC5/USBFS.c ****         CyIntEnable(USBFS_EP_7_VECT_NUM);
 433:.\Generated_Source\PSoC5/USBFS.c ****     #endif   /* End USBFS_EP7_ISR_REMOVE */
 434:.\Generated_Source\PSoC5/USBFS.c ****     #if(USBFS_EP8_ISR_REMOVE == 0u)
 435:.\Generated_Source\PSoC5/USBFS.c ****         CyIntEnable(USBFS_EP_8_VECT_NUM);
 436:.\Generated_Source\PSoC5/USBFS.c ****     #endif   /* End USBFS_EP8_ISR_REMOVE */
 437:.\Generated_Source\PSoC5/USBFS.c ****     #if((USBFS_EP_MM != USBFS__EP_MANUAL) && (USBFS_ARB_ISR_REMOVE == 0u))
 438:.\Generated_Source\PSoC5/USBFS.c ****         /* usb arb interrupt enable */
 439:.\Generated_Source\PSoC5/USBFS.c ****         USBFS_ARB_INT_EN_REG = USBFS_ARB_INT_MASK;
 404              		.loc 1 439 0
 405 007a 46F29E03 		movw	r3, #:lower16:1073766558
 406 007e C4F20003 		movt	r3, #:upper16:1073766558
 407 0082 4FF02A02 		mov	r2, #42
 408 0086 1A70     		strb	r2, [r3, #0]
 440:.\Generated_Source\PSoC5/USBFS.c ****         CyIntEnable(USBFS_ARB_VECT_NUM);
 409              		.loc 1 440 0
 410 0088 4EF20013 		movw	r3, #:lower16:-536813312
 411 008c CEF20003 		movt	r3, #:upper16:-536813312
ARM GAS  C:\DOCUME~1\ADMINI~1\LOCALS~1\Temp\ccyKCgI6.s 			page 16


 412 0090 4FF48002 		mov	r2, #4194304
 413 0094 1A60     		str	r2, [r3, #0]
 441:.\Generated_Source\PSoC5/USBFS.c ****     #endif   /* End USBFS_EP_MM != USBFS__EP_MANUAL */
 442:.\Generated_Source\PSoC5/USBFS.c **** 
 443:.\Generated_Source\PSoC5/USBFS.c ****     /* Arbiter congiguration for DMA transfers */
 444:.\Generated_Source\PSoC5/USBFS.c ****     #if(USBFS_EP_MM != USBFS__EP_MANUAL)
 445:.\Generated_Source\PSoC5/USBFS.c **** 
 446:.\Generated_Source\PSoC5/USBFS.c ****         #if(USBFS_EP_MM == USBFS__EP_DMAMANUAL)
 447:.\Generated_Source\PSoC5/USBFS.c ****             USBFS_ARB_CFG_REG = USBFS_ARB_CFG_MANUAL_DMA;
 448:.\Generated_Source\PSoC5/USBFS.c ****         #endif   /* End USBFS_EP_MM == USBFS__EP_DMAMANUAL */
 449:.\Generated_Source\PSoC5/USBFS.c ****         #if(USBFS_EP_MM == USBFS__EP_DMAAUTO)
 450:.\Generated_Source\PSoC5/USBFS.c ****             /*Set cfg cmplt this rises DMA request when the full configuration is done */
 451:.\Generated_Source\PSoC5/USBFS.c ****             USBFS_ARB_CFG_REG = USBFS_ARB_CFG_AUTO_DMA | USBFS_ARB_CFG_AUTO_MEM;
 414              		.loc 1 451 0
 415 0096 46F29C03 		movw	r3, #:lower16:1073766556
 416 009a C4F20003 		movt	r3, #:upper16:1073766556
 417 009e 4FF05002 		mov	r2, #80
 418 00a2 1A70     		strb	r2, [r3, #0]
 452:.\Generated_Source\PSoC5/USBFS.c ****         #endif   /* End USBFS_EP_MM == USBFS__EP_DMAAUTO */
 453:.\Generated_Source\PSoC5/USBFS.c ****     #endif   /* End USBFS_EP_MM != USBFS__EP_MANUAL */
 454:.\Generated_Source\PSoC5/USBFS.c **** 
 455:.\Generated_Source\PSoC5/USBFS.c ****     USBFS_transferState = USBFS_TRANS_STATE_IDLE;
 419              		.loc 1 455 0
 420 00a4 40F20003 		movw	r3, #:lower16:USBFS_transferState
 421 00a8 C0F20003 		movt	r3, #:upper16:USBFS_transferState
 422 00ac 4FF00002 		mov	r2, #0
 423 00b0 1A70     		strb	r2, [r3, #0]
 456:.\Generated_Source\PSoC5/USBFS.c **** 
 457:.\Generated_Source\PSoC5/USBFS.c ****     /* USB Locking: Enabled, VRegulator: depend on mode or DWR Voltage configuration*/
 458:.\Generated_Source\PSoC5/USBFS.c ****     switch(mode)
 424              		.loc 1 458 0
 425 00b2 BB79     		ldrb	r3, [r7, #6]	@ zero_extendqisi2
 426 00b4 002B     		cmp	r3, #0
 427 00b6 02D0     		beq	.L12
 428 00b8 012B     		cmp	r3, #1
 429 00ba 08D0     		beq	.L13
 430 00bc 0FE0     		b	.L16
 431              	.L12:
 459:.\Generated_Source\PSoC5/USBFS.c ****     {
 460:.\Generated_Source\PSoC5/USBFS.c ****         case USBFS_3V_OPERATION:
 461:.\Generated_Source\PSoC5/USBFS.c ****             USBFS_CR1_REG = USBFS_CR1_ENABLE_LOCK;
 432              		.loc 1 461 0
 433 00be 46F20903 		movw	r3, #:lower16:1073766409
 434 00c2 C4F20003 		movt	r3, #:upper16:1073766409
 435 00c6 4FF00202 		mov	r2, #2
 436 00ca 1A70     		strb	r2, [r3, #0]
 462:.\Generated_Source\PSoC5/USBFS.c ****             break;
 437              		.loc 1 462 0
 438 00cc 0EE0     		b	.L14
 439              	.L13:
 463:.\Generated_Source\PSoC5/USBFS.c ****         case USBFS_5V_OPERATION:
 464:.\Generated_Source\PSoC5/USBFS.c ****             USBFS_CR1_REG = USBFS_CR1_ENABLE_LOCK | USBFS_CR1_REG_ENABLE;
 440              		.loc 1 464 0
 441 00ce 46F20903 		movw	r3, #:lower16:1073766409
 442 00d2 C4F20003 		movt	r3, #:upper16:1073766409
 443 00d6 4FF00302 		mov	r2, #3
 444 00da 1A70     		strb	r2, [r3, #0]
ARM GAS  C:\DOCUME~1\ADMINI~1\LOCALS~1\Temp\ccyKCgI6.s 			page 17


 465:.\Generated_Source\PSoC5/USBFS.c ****             break;
 445              		.loc 1 465 0
 446 00dc 06E0     		b	.L14
 447              	.L16:
 466:.\Generated_Source\PSoC5/USBFS.c ****         default:   /*USBFS_DWR_VDDD_OPERATION */
 467:.\Generated_Source\PSoC5/USBFS.c ****             #if(USBFS_VDDD_MV < USBFS_3500MV)
 468:.\Generated_Source\PSoC5/USBFS.c ****                 USBFS_CR1_REG = USBFS_CR1_ENABLE_LOCK;
 448              		.loc 1 468 0
 449 00de 46F20903 		movw	r3, #:lower16:1073766409
 450 00e2 C4F20003 		movt	r3, #:upper16:1073766409
 451 00e6 4FF00202 		mov	r2, #2
 452 00ea 1A70     		strb	r2, [r3, #0]
 453              	.L14:
 469:.\Generated_Source\PSoC5/USBFS.c ****             #else
 470:.\Generated_Source\PSoC5/USBFS.c ****                 USBFS_CR1_REG = USBFS_CR1_ENABLE_LOCK | USBFS_CR1_REG_ENABLE;
 471:.\Generated_Source\PSoC5/USBFS.c ****             #endif /* End USBFS_VDDD_MV < USBFS_3500MV */
 472:.\Generated_Source\PSoC5/USBFS.c ****             break;
 473:.\Generated_Source\PSoC5/USBFS.c ****     }
 474:.\Generated_Source\PSoC5/USBFS.c **** 
 475:.\Generated_Source\PSoC5/USBFS.c ****     /* Record the descriptor selection */
 476:.\Generated_Source\PSoC5/USBFS.c ****     USBFS_device = device;
 454              		.loc 1 476 0
 455 00ec 40F20003 		movw	r3, #:lower16:USBFS_device
 456 00f0 C0F20003 		movt	r3, #:upper16:USBFS_device
 457 00f4 FA79     		ldrb	r2, [r7, #7]
 458 00f6 1A70     		strb	r2, [r3, #0]
 477:.\Generated_Source\PSoC5/USBFS.c **** 
 478:.\Generated_Source\PSoC5/USBFS.c ****     /* Clear all of the component data */
 479:.\Generated_Source\PSoC5/USBFS.c ****     USBFS_configuration = 0u;
 459              		.loc 1 479 0
 460 00f8 40F20003 		movw	r3, #:lower16:USBFS_configuration
 461 00fc C0F20003 		movt	r3, #:upper16:USBFS_configuration
 462 0100 4FF00002 		mov	r2, #0
 463 0104 1A70     		strb	r2, [r3, #0]
 480:.\Generated_Source\PSoC5/USBFS.c ****     USBFS_interfaceNumber = 0u;
 464              		.loc 1 480 0
 465 0106 40F20003 		movw	r3, #:lower16:USBFS_interfaceNumber
 466 010a C0F20003 		movt	r3, #:upper16:USBFS_interfaceNumber
 467 010e 4FF00002 		mov	r2, #0
 468 0112 1A70     		strb	r2, [r3, #0]
 481:.\Generated_Source\PSoC5/USBFS.c ****     USBFS_configurationChanged = 0u;
 469              		.loc 1 481 0
 470 0114 40F20003 		movw	r3, #:lower16:USBFS_configurationChanged
 471 0118 C0F20003 		movt	r3, #:upper16:USBFS_configurationChanged
 472 011c 4FF00002 		mov	r2, #0
 473 0120 1A70     		strb	r2, [r3, #0]
 482:.\Generated_Source\PSoC5/USBFS.c ****     USBFS_deviceAddress  = 0u;
 474              		.loc 1 482 0
 475 0122 40F20003 		movw	r3, #:lower16:USBFS_deviceAddress
 476 0126 C0F20003 		movt	r3, #:upper16:USBFS_deviceAddress
 477 012a 4FF00002 		mov	r2, #0
 478 012e 1A70     		strb	r2, [r3, #0]
 483:.\Generated_Source\PSoC5/USBFS.c ****     USBFS_deviceStatus = 0u;
 479              		.loc 1 483 0
 480 0130 40F20003 		movw	r3, #:lower16:USBFS_deviceStatus
 481 0134 C0F20003 		movt	r3, #:upper16:USBFS_deviceStatus
 482 0138 4FF00002 		mov	r2, #0
ARM GAS  C:\DOCUME~1\ADMINI~1\LOCALS~1\Temp\ccyKCgI6.s 			page 18


 483 013c 1A70     		strb	r2, [r3, #0]
 484:.\Generated_Source\PSoC5/USBFS.c **** 
 485:.\Generated_Source\PSoC5/USBFS.c ****     USBFS_lastPacketSize = 0u;
 484              		.loc 1 485 0
 485 013e 40F20003 		movw	r3, #:lower16:USBFS_lastPacketSize
 486 0142 C0F20003 		movt	r3, #:upper16:USBFS_lastPacketSize
 487 0146 4FF00002 		mov	r2, #0
 488 014a 1A70     		strb	r2, [r3, #0]
 486:.\Generated_Source\PSoC5/USBFS.c **** 
 487:.\Generated_Source\PSoC5/USBFS.c ****     /*  ACK Setup, Stall IN/OUT */
 488:.\Generated_Source\PSoC5/USBFS.c ****     CY_SET_REG8(USBFS_EP0_CR_PTR, USBFS_MODE_STALL_IN_OUT);
 489              		.loc 1 488 0
 490 014c 46F22803 		movw	r3, #:lower16:1073766440
 491 0150 C4F20003 		movt	r3, #:upper16:1073766440
 492 0154 4FF00302 		mov	r2, #3
 493 0158 1A70     		strb	r2, [r3, #0]
 489:.\Generated_Source\PSoC5/USBFS.c **** 
 490:.\Generated_Source\PSoC5/USBFS.c ****     /* Enable the SIE with an address 0 */
 491:.\Generated_Source\PSoC5/USBFS.c ****     CY_SET_REG8(USBFS_CR0_PTR, USBFS_CR0_ENABLE);
 494              		.loc 1 491 0
 495 015a 46F20803 		movw	r3, #:lower16:1073766408
 496 015e C4F20003 		movt	r3, #:upper16:1073766408
 497 0162 6FF07F02 		mvn	r2, #127
 498 0166 1A70     		strb	r2, [r3, #0]
 492:.\Generated_Source\PSoC5/USBFS.c **** 
 493:.\Generated_Source\PSoC5/USBFS.c ****     /* Workarond for PSOC5LP */
 494:.\Generated_Source\PSoC5/USBFS.c ****     CyDelayCycles(1);
 499              		.loc 1 494 0
 500 0168 4FF00100 		mov	r0, #1
 501 016c FFF7FEFF 		bl	CyDelayCycles
 495:.\Generated_Source\PSoC5/USBFS.c ****     
 496:.\Generated_Source\PSoC5/USBFS.c ****     /* Finally, Enable d+ pullup and select iomode to USB mode*/
 497:.\Generated_Source\PSoC5/USBFS.c ****     CY_SET_REG8(USBFS_USBIO_CR1_PTR, USBFS_USBIO_CR1_USBPUEN);
 502              		.loc 1 497 0
 503 0170 46F21203 		movw	r3, #:lower16:1073766418
 504 0174 C4F20003 		movt	r3, #:upper16:1073766418
 505 0178 4FF00402 		mov	r2, #4
 506 017c 1A70     		strb	r2, [r3, #0]
 498:.\Generated_Source\PSoC5/USBFS.c **** }
 507              		.loc 1 498 0
 508 017e 07F11007 		add	r7, r7, #16
 509 0182 BD46     		mov	sp, r7
 510 0184 80BD     		pop	{r7, pc}
 511              		.cfi_endproc
 512              	.LFE2:
 513              		.size	USBFS_InitComponent, .-USBFS_InitComponent
 514 0186 00BF     		.section	.text.USBFS_ReInitComponent,"ax",%progbits
 515              		.align	2
 516              		.global	USBFS_ReInitComponent
 517              		.thumb
 518              		.thumb_func
 519              		.type	USBFS_ReInitComponent, %function
 520              	USBFS_ReInitComponent:
 521              	.LFB3:
 499:.\Generated_Source\PSoC5/USBFS.c **** 
 500:.\Generated_Source\PSoC5/USBFS.c **** 
 501:.\Generated_Source\PSoC5/USBFS.c **** /*******************************************************************************
ARM GAS  C:\DOCUME~1\ADMINI~1\LOCALS~1\Temp\ccyKCgI6.s 			page 19


 502:.\Generated_Source\PSoC5/USBFS.c **** * Function Name: USBFS_ReInitComponent
 503:.\Generated_Source\PSoC5/USBFS.c **** ********************************************************************************
 504:.\Generated_Source\PSoC5/USBFS.c **** *
 505:.\Generated_Source\PSoC5/USBFS.c **** * Summary:
 506:.\Generated_Source\PSoC5/USBFS.c **** *  This function reinitialize the component configuration and is
 507:.\Generated_Source\PSoC5/USBFS.c **** *  intend to be called from the Reset interrupt.
 508:.\Generated_Source\PSoC5/USBFS.c **** *
 509:.\Generated_Source\PSoC5/USBFS.c **** * Parameters:
 510:.\Generated_Source\PSoC5/USBFS.c **** *  None.
 511:.\Generated_Source\PSoC5/USBFS.c **** *
 512:.\Generated_Source\PSoC5/USBFS.c **** * Return:
 513:.\Generated_Source\PSoC5/USBFS.c **** *   None.
 514:.\Generated_Source\PSoC5/USBFS.c **** *
 515:.\Generated_Source\PSoC5/USBFS.c **** * Global variables:
 516:.\Generated_Source\PSoC5/USBFS.c **** *   USBFS_device: Contains the device number of the desired device 
 517:.\Generated_Source\PSoC5/USBFS.c **** *		descriptor. The device number can be found in the Device Descriptor Tab 
 518:.\Generated_Source\PSoC5/USBFS.c **** *       of "Configure" dialog, under the settings of desired Device Descriptor,
 519:.\Generated_Source\PSoC5/USBFS.c **** *       in the "Device Number" field.
 520:.\Generated_Source\PSoC5/USBFS.c **** *   USBFS_transferState: This variable used by the communication
 521:.\Generated_Source\PSoC5/USBFS.c **** *       functions to handle current transfer state. Initialized to
 522:.\Generated_Source\PSoC5/USBFS.c **** *       TRANS_STATE_IDLE in this API.
 523:.\Generated_Source\PSoC5/USBFS.c **** *   USBFS_configuration: Contains current configuration number
 524:.\Generated_Source\PSoC5/USBFS.c **** *       which is set by the Host using SET_CONFIGURATION request.
 525:.\Generated_Source\PSoC5/USBFS.c **** *       Initialized to zero in this API.
 526:.\Generated_Source\PSoC5/USBFS.c **** *   USBFS_deviceAddress: Contains current device address. This
 527:.\Generated_Source\PSoC5/USBFS.c **** *       variable is initialized to zero in this API. Host starts to communicate
 528:.\Generated_Source\PSoC5/USBFS.c **** *      to device with address 0 and then set it to whatever value using
 529:.\Generated_Source\PSoC5/USBFS.c **** *      SET_ADDRESS request.
 530:.\Generated_Source\PSoC5/USBFS.c **** *   USBFS_deviceStatus: initialized to 0.
 531:.\Generated_Source\PSoC5/USBFS.c **** *       This is two bit variable which contain power status in first bit
 532:.\Generated_Source\PSoC5/USBFS.c **** *       (DEVICE_STATUS_BUS_POWERED or DEVICE_STATUS_SELF_POWERED) and remote
 533:.\Generated_Source\PSoC5/USBFS.c **** *       wakeup status (DEVICE_STATUS_REMOTE_WAKEUP) in second bit.
 534:.\Generated_Source\PSoC5/USBFS.c **** *   USBFS_lastPacketSize initialized to 0;
 535:.\Generated_Source\PSoC5/USBFS.c **** *
 536:.\Generated_Source\PSoC5/USBFS.c **** * Reentrant:
 537:.\Generated_Source\PSoC5/USBFS.c **** *  No.
 538:.\Generated_Source\PSoC5/USBFS.c **** *
 539:.\Generated_Source\PSoC5/USBFS.c **** *******************************************************************************/
 540:.\Generated_Source\PSoC5/USBFS.c **** void USBFS_ReInitComponent() 
 541:.\Generated_Source\PSoC5/USBFS.c **** {
 522              		.loc 1 541 0
 523              		.cfi_startproc
 524              		@ args = 0, pretend = 0, frame = 8
 525              		@ frame_needed = 1, uses_anonymous_args = 0
 526              		@ link register save eliminated.
 527 0000 80B4     		push	{r7}
 528              	.LCFI9:
 529              		.cfi_def_cfa_offset 4
 530 0002 83B0     		sub	sp, sp, #12
 531              	.LCFI10:
 532              		.cfi_def_cfa_offset 16
 533 0004 00AF     		add	r7, sp, #0
 534              		.cfi_offset 7, -4
 535              	.LCFI11:
 536              		.cfi_def_cfa_register 7
 542:.\Generated_Source\PSoC5/USBFS.c ****     /* Initialize _hidProtocol variable to comply with HID 7.2.6 Set_Protocol
 543:.\Generated_Source\PSoC5/USBFS.c ****     *  Request: "When initialized, all devices default to report protocol."
ARM GAS  C:\DOCUME~1\ADMINI~1\LOCALS~1\Temp\ccyKCgI6.s 			page 20


 544:.\Generated_Source\PSoC5/USBFS.c ****     */
 545:.\Generated_Source\PSoC5/USBFS.c ****     #if defined(USBFS_ENABLE_HID_CLASS)
 546:.\Generated_Source\PSoC5/USBFS.c ****         uint8 interface;
 547:.\Generated_Source\PSoC5/USBFS.c **** 
 548:.\Generated_Source\PSoC5/USBFS.c ****         for (interface = 0u; interface < USBFS_MAX_INTERFACES_NUMBER; interface++)
 537              		.loc 1 548 0
 538 0006 4FF00003 		mov	r3, #0
 539 000a FB71     		strb	r3, [r7, #7]
 540 000c 0BE0     		b	.L18
 541              	.L19:
 549:.\Generated_Source\PSoC5/USBFS.c ****         {
 550:.\Generated_Source\PSoC5/USBFS.c ****             USBFS_hidProtocol[interface] = USBFS_PROTOCOL_REPORT;
 542              		.loc 1 550 0
 543 000e FA79     		ldrb	r2, [r7, #7]	@ zero_extendqisi2
 544 0010 40F20003 		movw	r3, #:lower16:USBFS_hidProtocol
 545 0014 C0F20003 		movt	r3, #:upper16:USBFS_hidProtocol
 546 0018 4FF00101 		mov	r1, #1
 547 001c 9954     		strb	r1, [r3, r2]
 548              		.loc 1 548 0
 549 001e FB79     		ldrb	r3, [r7, #7]
 550 0020 03F10103 		add	r3, r3, #1
 551 0024 FB71     		strb	r3, [r7, #7]
 552              	.L18:
 553 0026 FB79     		ldrb	r3, [r7, #7]	@ zero_extendqisi2
 554 0028 022B     		cmp	r3, #2
 555 002a F0D9     		bls	.L19
 551:.\Generated_Source\PSoC5/USBFS.c ****         }
 552:.\Generated_Source\PSoC5/USBFS.c ****     #endif /* USBFS_ENABLE_HID_CLASS */
 553:.\Generated_Source\PSoC5/USBFS.c **** 
 554:.\Generated_Source\PSoC5/USBFS.c ****     USBFS_transferState = USBFS_TRANS_STATE_IDLE;
 556              		.loc 1 554 0
 557 002c 40F20003 		movw	r3, #:lower16:USBFS_transferState
 558 0030 C0F20003 		movt	r3, #:upper16:USBFS_transferState
 559 0034 4FF00002 		mov	r2, #0
 560 0038 1A70     		strb	r2, [r3, #0]
 555:.\Generated_Source\PSoC5/USBFS.c **** 
 556:.\Generated_Source\PSoC5/USBFS.c ****     /* Clear all of the component data */
 557:.\Generated_Source\PSoC5/USBFS.c ****     USBFS_configuration = 0u;
 561              		.loc 1 557 0
 562 003a 40F20003 		movw	r3, #:lower16:USBFS_configuration
 563 003e C0F20003 		movt	r3, #:upper16:USBFS_configuration
 564 0042 4FF00002 		mov	r2, #0
 565 0046 1A70     		strb	r2, [r3, #0]
 558:.\Generated_Source\PSoC5/USBFS.c ****     USBFS_interfaceNumber = 0u;
 566              		.loc 1 558 0
 567 0048 40F20003 		movw	r3, #:lower16:USBFS_interfaceNumber
 568 004c C0F20003 		movt	r3, #:upper16:USBFS_interfaceNumber
 569 0050 4FF00002 		mov	r2, #0
 570 0054 1A70     		strb	r2, [r3, #0]
 559:.\Generated_Source\PSoC5/USBFS.c ****     USBFS_configurationChanged = 0u;
 571              		.loc 1 559 0
 572 0056 40F20003 		movw	r3, #:lower16:USBFS_configurationChanged
 573 005a C0F20003 		movt	r3, #:upper16:USBFS_configurationChanged
 574 005e 4FF00002 		mov	r2, #0
 575 0062 1A70     		strb	r2, [r3, #0]
 560:.\Generated_Source\PSoC5/USBFS.c ****     USBFS_deviceAddress  = 0u;
 576              		.loc 1 560 0
ARM GAS  C:\DOCUME~1\ADMINI~1\LOCALS~1\Temp\ccyKCgI6.s 			page 21


 577 0064 40F20003 		movw	r3, #:lower16:USBFS_deviceAddress
 578 0068 C0F20003 		movt	r3, #:upper16:USBFS_deviceAddress
 579 006c 4FF00002 		mov	r2, #0
 580 0070 1A70     		strb	r2, [r3, #0]
 561:.\Generated_Source\PSoC5/USBFS.c ****     USBFS_deviceStatus = 0u;
 581              		.loc 1 561 0
 582 0072 40F20003 		movw	r3, #:lower16:USBFS_deviceStatus
 583 0076 C0F20003 		movt	r3, #:upper16:USBFS_deviceStatus
 584 007a 4FF00002 		mov	r2, #0
 585 007e 1A70     		strb	r2, [r3, #0]
 562:.\Generated_Source\PSoC5/USBFS.c **** 
 563:.\Generated_Source\PSoC5/USBFS.c ****     USBFS_lastPacketSize = 0u;
 586              		.loc 1 563 0
 587 0080 40F20003 		movw	r3, #:lower16:USBFS_lastPacketSize
 588 0084 C0F20003 		movt	r3, #:upper16:USBFS_lastPacketSize
 589 0088 4FF00002 		mov	r2, #0
 590 008c 1A70     		strb	r2, [r3, #0]
 564:.\Generated_Source\PSoC5/USBFS.c **** 
 565:.\Generated_Source\PSoC5/USBFS.c **** 
 566:.\Generated_Source\PSoC5/USBFS.c ****     /*  ACK Setup, Stall IN/OUT */
 567:.\Generated_Source\PSoC5/USBFS.c ****     CY_SET_REG8(USBFS_EP0_CR_PTR, USBFS_MODE_STALL_IN_OUT);
 591              		.loc 1 567 0
 592 008e 46F22803 		movw	r3, #:lower16:1073766440
 593 0092 C4F20003 		movt	r3, #:upper16:1073766440
 594 0096 4FF00302 		mov	r2, #3
 595 009a 1A70     		strb	r2, [r3, #0]
 568:.\Generated_Source\PSoC5/USBFS.c **** 
 569:.\Generated_Source\PSoC5/USBFS.c ****     /* Enable the SIE with an address 0 */
 570:.\Generated_Source\PSoC5/USBFS.c ****     CY_SET_REG8(USBFS_CR0_PTR, USBFS_CR0_ENABLE);
 596              		.loc 1 570 0
 597 009c 46F20803 		movw	r3, #:lower16:1073766408
 598 00a0 C4F20003 		movt	r3, #:upper16:1073766408
 599 00a4 6FF07F02 		mvn	r2, #127
 600 00a8 1A70     		strb	r2, [r3, #0]
 571:.\Generated_Source\PSoC5/USBFS.c **** 
 572:.\Generated_Source\PSoC5/USBFS.c **** }
 601              		.loc 1 572 0
 602 00aa 07F10C07 		add	r7, r7, #12
 603 00ae BD46     		mov	sp, r7
 604 00b0 80BC     		pop	{r7}
 605 00b2 7047     		bx	lr
 606              		.cfi_endproc
 607              	.LFE3:
 608              		.size	USBFS_ReInitComponent, .-USBFS_ReInitComponent
 609              		.section	.text.USBFS_Stop,"ax",%progbits
 610              		.align	2
 611              		.global	USBFS_Stop
 612              		.thumb
 613              		.thumb_func
 614              		.type	USBFS_Stop, %function
 615              	USBFS_Stop:
 616              	.LFB4:
 573:.\Generated_Source\PSoC5/USBFS.c **** 
 574:.\Generated_Source\PSoC5/USBFS.c **** 
 575:.\Generated_Source\PSoC5/USBFS.c **** /*******************************************************************************
 576:.\Generated_Source\PSoC5/USBFS.c **** * Function Name: USBFS_Stop
 577:.\Generated_Source\PSoC5/USBFS.c **** ********************************************************************************
ARM GAS  C:\DOCUME~1\ADMINI~1\LOCALS~1\Temp\ccyKCgI6.s 			page 22


 578:.\Generated_Source\PSoC5/USBFS.c **** *
 579:.\Generated_Source\PSoC5/USBFS.c **** * Summary:
 580:.\Generated_Source\PSoC5/USBFS.c **** *  This function shuts down the USB function including to release
 581:.\Generated_Source\PSoC5/USBFS.c **** *  the D+ Pullup and disabling the SIE.
 582:.\Generated_Source\PSoC5/USBFS.c **** *
 583:.\Generated_Source\PSoC5/USBFS.c **** * Parameters:
 584:.\Generated_Source\PSoC5/USBFS.c **** *  None.
 585:.\Generated_Source\PSoC5/USBFS.c **** *
 586:.\Generated_Source\PSoC5/USBFS.c **** * Return:
 587:.\Generated_Source\PSoC5/USBFS.c **** *  None.
 588:.\Generated_Source\PSoC5/USBFS.c **** *
 589:.\Generated_Source\PSoC5/USBFS.c **** * Global variables:
 590:.\Generated_Source\PSoC5/USBFS.c **** *   USBFS_configuration: Contains current configuration number
 591:.\Generated_Source\PSoC5/USBFS.c **** *       which is set by the Host using SET_CONFIGURATION request.
 592:.\Generated_Source\PSoC5/USBFS.c **** *       Initialized to zero in this API.
 593:.\Generated_Source\PSoC5/USBFS.c **** *   USBFS_deviceAddress: Contains current device address. This
 594:.\Generated_Source\PSoC5/USBFS.c **** *       variable is initialized to zero in this API. Host starts to communicate
 595:.\Generated_Source\PSoC5/USBFS.c **** *      to device with address 0 and then set it to whatever value using
 596:.\Generated_Source\PSoC5/USBFS.c **** *      SET_ADDRESS request.
 597:.\Generated_Source\PSoC5/USBFS.c **** *   USBFS_deviceStatus: initialized to 0.
 598:.\Generated_Source\PSoC5/USBFS.c **** *       This is two bit variable which contain power status in first bit
 599:.\Generated_Source\PSoC5/USBFS.c **** *       (DEVICE_STATUS_BUS_POWERED or DEVICE_STATUS_SELF_POWERED) and remote
 600:.\Generated_Source\PSoC5/USBFS.c **** *       wakeup status (DEVICE_STATUS_REMOTE_WAKEUP) in second bit.
 601:.\Generated_Source\PSoC5/USBFS.c **** *   USBFS_configurationChanged: This variable is set to one after
 602:.\Generated_Source\PSoC5/USBFS.c **** *       SET_CONFIGURATION request and cleared in this function.
 603:.\Generated_Source\PSoC5/USBFS.c **** *   USBFS_intiVar variable is set to zero
 604:.\Generated_Source\PSoC5/USBFS.c **** *
 605:.\Generated_Source\PSoC5/USBFS.c **** *******************************************************************************/
 606:.\Generated_Source\PSoC5/USBFS.c **** void USBFS_Stop(void) 
 607:.\Generated_Source\PSoC5/USBFS.c **** {
 617              		.loc 1 607 0
 618              		.cfi_startproc
 619              		@ args = 0, pretend = 0, frame = 0
 620              		@ frame_needed = 1, uses_anonymous_args = 0
 621 0000 80B5     		push	{r7, lr}
 622              	.LCFI12:
 623              		.cfi_def_cfa_offset 8
 624 0002 00AF     		add	r7, sp, #0
 625              		.cfi_offset 14, -4
 626              		.cfi_offset 7, -8
 627              	.LCFI13:
 628              		.cfi_def_cfa_register 7
 608:.\Generated_Source\PSoC5/USBFS.c **** 
 609:.\Generated_Source\PSoC5/USBFS.c ****     #if(USBFS_EP_MM != USBFS__EP_MANUAL)
 610:.\Generated_Source\PSoC5/USBFS.c ****         USBFS_Stop_DMA(USBFS_MAX_EP);     /* Stop all DMAs */
 629              		.loc 1 610 0
 630 0004 4FF00900 		mov	r0, #9
 631 0008 FFF7FEFF 		bl	USBFS_Stop_DMA
 611:.\Generated_Source\PSoC5/USBFS.c ****     #endif   /* End USBFS_EP_MM != USBFS__EP_MANUAL */
 612:.\Generated_Source\PSoC5/USBFS.c **** 
 613:.\Generated_Source\PSoC5/USBFS.c ****     /* Disable the SIE */
 614:.\Generated_Source\PSoC5/USBFS.c ****     USBFS_CR0_REG &= ~USBFS_CR0_ENABLE;
 632              		.loc 1 614 0
 633 000c 46F20803 		movw	r3, #:lower16:1073766408
 634 0010 C4F20003 		movt	r3, #:upper16:1073766408
 635 0014 46F20802 		movw	r2, #:lower16:1073766408
 636 0018 C4F20002 		movt	r2, #:upper16:1073766408
ARM GAS  C:\DOCUME~1\ADMINI~1\LOCALS~1\Temp\ccyKCgI6.s 			page 23


 637 001c 1278     		ldrb	r2, [r2, #0]
 638 001e D2B2     		uxtb	r2, r2
 639 0020 02F07F02 		and	r2, r2, #127
 640 0024 1A70     		strb	r2, [r3, #0]
 615:.\Generated_Source\PSoC5/USBFS.c ****     /* Disable the d+ pullup */
 616:.\Generated_Source\PSoC5/USBFS.c ****     USBFS_USBIO_CR1_REG &= ~USBFS_USBIO_CR1_USBPUEN;
 641              		.loc 1 616 0
 642 0026 46F21203 		movw	r3, #:lower16:1073766418
 643 002a C4F20003 		movt	r3, #:upper16:1073766418
 644 002e 46F21202 		movw	r2, #:lower16:1073766418
 645 0032 C4F20002 		movt	r2, #:upper16:1073766418
 646 0036 1278     		ldrb	r2, [r2, #0]
 647 0038 D2B2     		uxtb	r2, r2
 648 003a 02F0FB02 		and	r2, r2, #251
 649 003e 1A70     		strb	r2, [r3, #0]
 617:.\Generated_Source\PSoC5/USBFS.c ****     #if(CY_PSOC5A)
 618:.\Generated_Source\PSoC5/USBFS.c ****         /* Disable USBIO block*/
 619:.\Generated_Source\PSoC5/USBFS.c ****         USBFS_PM_AVAIL_CR_REG &= ~USBFS_PM_AVAIL_EN_FSUSBIO;
 620:.\Generated_Source\PSoC5/USBFS.c ****     #endif /* End CY_PSOC5A */    
 621:.\Generated_Source\PSoC5/USBFS.c ****     /* Disable USB in ACT PM */
 622:.\Generated_Source\PSoC5/USBFS.c ****     USBFS_PM_ACT_CFG_REG &= ~USBFS_PM_ACT_EN_FSUSB;
 650              		.loc 1 622 0
 651 0040 44F2A533 		movw	r3, #:lower16:1073759141
 652 0044 C4F20003 		movt	r3, #:upper16:1073759141
 653 0048 44F2A532 		movw	r2, #:lower16:1073759141
 654 004c C4F20002 		movt	r2, #:upper16:1073759141
 655 0050 1278     		ldrb	r2, [r2, #0]
 656 0052 D2B2     		uxtb	r2, r2
 657 0054 02F0FE02 		and	r2, r2, #254
 658 0058 1A70     		strb	r2, [r3, #0]
 623:.\Generated_Source\PSoC5/USBFS.c ****     /* Disable USB block for Standby Power Mode */
 624:.\Generated_Source\PSoC5/USBFS.c ****     USBFS_PM_STBY_CFG_REG &= ~USBFS_PM_STBY_EN_FSUSB;
 659              		.loc 1 624 0
 660 005a 44F2B533 		movw	r3, #:lower16:1073759157
 661 005e C4F20003 		movt	r3, #:upper16:1073759157
 662 0062 44F2B532 		movw	r2, #:lower16:1073759157
 663 0066 C4F20002 		movt	r2, #:upper16:1073759157
 664 006a 1278     		ldrb	r2, [r2, #0]
 665 006c D2B2     		uxtb	r2, r2
 666 006e 02F0FE02 		and	r2, r2, #254
 667 0072 1A70     		strb	r2, [r3, #0]
 625:.\Generated_Source\PSoC5/USBFS.c **** 
 626:.\Generated_Source\PSoC5/USBFS.c ****     /* Disable the reset and EP interrupts */
 627:.\Generated_Source\PSoC5/USBFS.c ****     CyIntDisable(USBFS_BUS_RESET_VECT_NUM);
 668              		.loc 1 627 0
 669 0074 4EF28013 		movw	r3, #:lower16:-536813184
 670 0078 CEF20003 		movt	r3, #:upper16:-536813184
 671 007c 4FF40002 		mov	r2, #8388608
 672 0080 1A60     		str	r2, [r3, #0]
 628:.\Generated_Source\PSoC5/USBFS.c ****     CyIntDisable(USBFS_EP_0_VECT_NUM);
 673              		.loc 1 628 0
 674 0082 4EF28013 		movw	r3, #:lower16:-536813184
 675 0086 CEF20003 		movt	r3, #:upper16:-536813184
 676 008a 4FF08072 		mov	r2, #16777216
 677 008e 1A60     		str	r2, [r3, #0]
 629:.\Generated_Source\PSoC5/USBFS.c ****     #if(USBFS_EP1_ISR_REMOVE == 0u)
 630:.\Generated_Source\PSoC5/USBFS.c ****         CyIntDisable(USBFS_EP_1_VECT_NUM);
ARM GAS  C:\DOCUME~1\ADMINI~1\LOCALS~1\Temp\ccyKCgI6.s 			page 24


 631:.\Generated_Source\PSoC5/USBFS.c ****     #endif   /* End USBFS_EP1_ISR_REMOVE */
 632:.\Generated_Source\PSoC5/USBFS.c ****     #if(USBFS_EP2_ISR_REMOVE == 0u)
 633:.\Generated_Source\PSoC5/USBFS.c ****         CyIntDisable(USBFS_EP_2_VECT_NUM);
 678              		.loc 1 633 0
 679 0090 4EF28013 		movw	r3, #:lower16:-536813184
 680 0094 CEF20003 		movt	r3, #:upper16:-536813184
 681 0098 4FF00202 		mov	r2, #2
 682 009c 1A60     		str	r2, [r3, #0]
 634:.\Generated_Source\PSoC5/USBFS.c ****     #endif   /* End USBFS_EP2_ISR_REMOVE */
 635:.\Generated_Source\PSoC5/USBFS.c ****     #if(USBFS_EP3_ISR_REMOVE == 0u)
 636:.\Generated_Source\PSoC5/USBFS.c ****         CyIntDisable(USBFS_EP_3_VECT_NUM);
 637:.\Generated_Source\PSoC5/USBFS.c ****     #endif   /* End USBFS_EP3_ISR_REMOVE */
 638:.\Generated_Source\PSoC5/USBFS.c ****     #if(USBFS_EP4_ISR_REMOVE == 0u)
 639:.\Generated_Source\PSoC5/USBFS.c ****         CyIntDisable(USBFS_EP_4_VECT_NUM);
 683              		.loc 1 639 0
 684 009e 4EF28013 		movw	r3, #:lower16:-536813184
 685 00a2 CEF20003 		movt	r3, #:upper16:-536813184
 686 00a6 4FF00402 		mov	r2, #4
 687 00aa 1A60     		str	r2, [r3, #0]
 640:.\Generated_Source\PSoC5/USBFS.c ****     #endif   /* End USBFS_EP4_ISR_REMOVE */
 641:.\Generated_Source\PSoC5/USBFS.c ****     #if(USBFS_EP5_ISR_REMOVE == 0u)
 642:.\Generated_Source\PSoC5/USBFS.c ****         CyIntDisable(USBFS_EP_5_VECT_NUM);
 643:.\Generated_Source\PSoC5/USBFS.c ****     #endif   /* End USBFS_EP5_ISR_REMOVE */
 644:.\Generated_Source\PSoC5/USBFS.c ****     #if(USBFS_EP6_ISR_REMOVE == 0u)
 645:.\Generated_Source\PSoC5/USBFS.c ****         CyIntDisable(USBFS_EP_6_VECT_NUM);
 688              		.loc 1 645 0
 689 00ac 4EF28013 		movw	r3, #:lower16:-536813184
 690 00b0 CEF20003 		movt	r3, #:upper16:-536813184
 691 00b4 4FF00802 		mov	r2, #8
 692 00b8 1A60     		str	r2, [r3, #0]
 646:.\Generated_Source\PSoC5/USBFS.c ****     #endif   /* End USBFS_EP6_ISR_REMOVE */
 647:.\Generated_Source\PSoC5/USBFS.c ****     #if(USBFS_EP7_ISR_REMOVE == 0u)
 648:.\Generated_Source\PSoC5/USBFS.c ****         CyIntDisable(USBFS_EP_7_VECT_NUM);
 649:.\Generated_Source\PSoC5/USBFS.c ****     #endif   /* End USBFS_EP7_ISR_REMOVE */
 650:.\Generated_Source\PSoC5/USBFS.c ****     #if(USBFS_EP8_ISR_REMOVE == 0u)
 651:.\Generated_Source\PSoC5/USBFS.c ****         CyIntDisable(USBFS_EP_8_VECT_NUM);
 652:.\Generated_Source\PSoC5/USBFS.c ****     #endif   /* End USBFS_EP8_ISR_REMOVE */
 653:.\Generated_Source\PSoC5/USBFS.c **** 
 654:.\Generated_Source\PSoC5/USBFS.c ****     /* Clear all of the component data */
 655:.\Generated_Source\PSoC5/USBFS.c ****     USBFS_configuration = 0u;
 693              		.loc 1 655 0
 694 00ba 40F20003 		movw	r3, #:lower16:USBFS_configuration
 695 00be C0F20003 		movt	r3, #:upper16:USBFS_configuration
 696 00c2 4FF00002 		mov	r2, #0
 697 00c6 1A70     		strb	r2, [r3, #0]
 656:.\Generated_Source\PSoC5/USBFS.c ****     USBFS_interfaceNumber = 0u;
 698              		.loc 1 656 0
 699 00c8 40F20003 		movw	r3, #:lower16:USBFS_interfaceNumber
 700 00cc C0F20003 		movt	r3, #:upper16:USBFS_interfaceNumber
 701 00d0 4FF00002 		mov	r2, #0
 702 00d4 1A70     		strb	r2, [r3, #0]
 657:.\Generated_Source\PSoC5/USBFS.c ****     USBFS_configurationChanged = 0u;
 703              		.loc 1 657 0
 704 00d6 40F20003 		movw	r3, #:lower16:USBFS_configurationChanged
 705 00da C0F20003 		movt	r3, #:upper16:USBFS_configurationChanged
 706 00de 4FF00002 		mov	r2, #0
 707 00e2 1A70     		strb	r2, [r3, #0]
ARM GAS  C:\DOCUME~1\ADMINI~1\LOCALS~1\Temp\ccyKCgI6.s 			page 25


 658:.\Generated_Source\PSoC5/USBFS.c ****     USBFS_deviceAddress  = 0u;
 708              		.loc 1 658 0
 709 00e4 40F20003 		movw	r3, #:lower16:USBFS_deviceAddress
 710 00e8 C0F20003 		movt	r3, #:upper16:USBFS_deviceAddress
 711 00ec 4FF00002 		mov	r2, #0
 712 00f0 1A70     		strb	r2, [r3, #0]
 659:.\Generated_Source\PSoC5/USBFS.c ****     USBFS_deviceStatus = 0u;
 713              		.loc 1 659 0
 714 00f2 40F20003 		movw	r3, #:lower16:USBFS_deviceStatus
 715 00f6 C0F20003 		movt	r3, #:upper16:USBFS_deviceStatus
 716 00fa 4FF00002 		mov	r2, #0
 717 00fe 1A70     		strb	r2, [r3, #0]
 660:.\Generated_Source\PSoC5/USBFS.c ****     USBFS_initVar = 0u;
 718              		.loc 1 660 0
 719 0100 40F20003 		movw	r3, #:lower16:USBFS_initVar
 720 0104 C0F20003 		movt	r3, #:upper16:USBFS_initVar
 721 0108 4FF00002 		mov	r2, #0
 722 010c 1A70     		strb	r2, [r3, #0]
 661:.\Generated_Source\PSoC5/USBFS.c **** 
 662:.\Generated_Source\PSoC5/USBFS.c **** }
 723              		.loc 1 662 0
 724 010e 80BD     		pop	{r7, pc}
 725              		.cfi_endproc
 726              	.LFE4:
 727              		.size	USBFS_Stop, .-USBFS_Stop
 728              		.section	.text.USBFS_CheckActivity,"ax",%progbits
 729              		.align	2
 730              		.global	USBFS_CheckActivity
 731              		.thumb
 732              		.thumb_func
 733              		.type	USBFS_CheckActivity, %function
 734              	USBFS_CheckActivity:
 735              	.LFB5:
 663:.\Generated_Source\PSoC5/USBFS.c **** 
 664:.\Generated_Source\PSoC5/USBFS.c **** 
 665:.\Generated_Source\PSoC5/USBFS.c **** /*******************************************************************************
 666:.\Generated_Source\PSoC5/USBFS.c **** * Function Name: USBFS_CheckActivity
 667:.\Generated_Source\PSoC5/USBFS.c **** ********************************************************************************
 668:.\Generated_Source\PSoC5/USBFS.c **** *
 669:.\Generated_Source\PSoC5/USBFS.c **** * Summary:
 670:.\Generated_Source\PSoC5/USBFS.c **** *  Returns the activity status of the bus.  Clears the status hardware to
 671:.\Generated_Source\PSoC5/USBFS.c **** *  provide fresh activity status on the next call of this routine.
 672:.\Generated_Source\PSoC5/USBFS.c **** *
 673:.\Generated_Source\PSoC5/USBFS.c **** * Parameters:
 674:.\Generated_Source\PSoC5/USBFS.c **** *  None.
 675:.\Generated_Source\PSoC5/USBFS.c **** *
 676:.\Generated_Source\PSoC5/USBFS.c **** * Return:
 677:.\Generated_Source\PSoC5/USBFS.c **** *  1 - If bus activity was detected since the last call to this function
 678:.\Generated_Source\PSoC5/USBFS.c **** *  0 - If bus activity not was detected since the last call to this function
 679:.\Generated_Source\PSoC5/USBFS.c **** *
 680:.\Generated_Source\PSoC5/USBFS.c **** *******************************************************************************/
 681:.\Generated_Source\PSoC5/USBFS.c **** uint8 USBFS_CheckActivity(void) 
 682:.\Generated_Source\PSoC5/USBFS.c **** {
 736              		.loc 1 682 0
 737              		.cfi_startproc
 738              		@ args = 0, pretend = 0, frame = 8
 739              		@ frame_needed = 1, uses_anonymous_args = 0
ARM GAS  C:\DOCUME~1\ADMINI~1\LOCALS~1\Temp\ccyKCgI6.s 			page 26


 740              		@ link register save eliminated.
 741 0000 80B4     		push	{r7}
 742              	.LCFI14:
 743              		.cfi_def_cfa_offset 4
 744 0002 83B0     		sub	sp, sp, #12
 745              	.LCFI15:
 746              		.cfi_def_cfa_offset 16
 747 0004 00AF     		add	r7, sp, #0
 748              		.cfi_offset 7, -4
 749              	.LCFI16:
 750              		.cfi_def_cfa_register 7
 683:.\Generated_Source\PSoC5/USBFS.c ****     uint8 r;
 684:.\Generated_Source\PSoC5/USBFS.c **** 
 685:.\Generated_Source\PSoC5/USBFS.c ****     r = CY_GET_REG8(USBFS_CR1_PTR);
 751              		.loc 1 685 0
 752 0006 46F20903 		movw	r3, #:lower16:1073766409
 753 000a C4F20003 		movt	r3, #:upper16:1073766409
 754 000e 1B78     		ldrb	r3, [r3, #0]
 755 0010 FB71     		strb	r3, [r7, #7]
 686:.\Generated_Source\PSoC5/USBFS.c ****     CY_SET_REG8(USBFS_CR1_PTR, (r & ~USBFS_CR1_BUS_ACTIVITY));
 756              		.loc 1 686 0
 757 0012 46F20903 		movw	r3, #:lower16:1073766409
 758 0016 C4F20003 		movt	r3, #:upper16:1073766409
 759 001a FA79     		ldrb	r2, [r7, #7]	@ zero_extendqisi2
 760 001c 02F0FB02 		and	r2, r2, #251
 761 0020 1A70     		strb	r2, [r3, #0]
 687:.\Generated_Source\PSoC5/USBFS.c **** 
 688:.\Generated_Source\PSoC5/USBFS.c ****     return((r & USBFS_CR1_BUS_ACTIVITY) >> USBFS_CR1_BUS_ACTIVITY_SHIFT);
 762              		.loc 1 688 0
 763 0022 FB79     		ldrb	r3, [r7, #7]	@ zero_extendqisi2
 764 0024 03F00403 		and	r3, r3, #4
 765 0028 4FEA9303 		lsr	r3, r3, #2
 766 002c DBB2     		uxtb	r3, r3
 689:.\Generated_Source\PSoC5/USBFS.c **** }
 767              		.loc 1 689 0
 768 002e 1846     		mov	r0, r3
 769 0030 07F10C07 		add	r7, r7, #12
 770 0034 BD46     		mov	sp, r7
 771 0036 80BC     		pop	{r7}
 772 0038 7047     		bx	lr
 773              		.cfi_endproc
 774              	.LFE5:
 775              		.size	USBFS_CheckActivity, .-USBFS_CheckActivity
 776 003a 00BF     		.section	.text.USBFS_GetConfiguration,"ax",%progbits
 777              		.align	2
 778              		.global	USBFS_GetConfiguration
 779              		.thumb
 780              		.thumb_func
 781              		.type	USBFS_GetConfiguration, %function
 782              	USBFS_GetConfiguration:
 783              	.LFB6:
 690:.\Generated_Source\PSoC5/USBFS.c **** 
 691:.\Generated_Source\PSoC5/USBFS.c **** 
 692:.\Generated_Source\PSoC5/USBFS.c **** /*******************************************************************************
 693:.\Generated_Source\PSoC5/USBFS.c **** * Function Name: USBFS_GetConfiguration
 694:.\Generated_Source\PSoC5/USBFS.c **** ********************************************************************************
 695:.\Generated_Source\PSoC5/USBFS.c **** *
ARM GAS  C:\DOCUME~1\ADMINI~1\LOCALS~1\Temp\ccyKCgI6.s 			page 27


 696:.\Generated_Source\PSoC5/USBFS.c **** * Summary:
 697:.\Generated_Source\PSoC5/USBFS.c **** *  Returns the current configuration setting
 698:.\Generated_Source\PSoC5/USBFS.c **** *
 699:.\Generated_Source\PSoC5/USBFS.c **** * Parameters:
 700:.\Generated_Source\PSoC5/USBFS.c **** *  None.
 701:.\Generated_Source\PSoC5/USBFS.c **** *
 702:.\Generated_Source\PSoC5/USBFS.c **** * Return:
 703:.\Generated_Source\PSoC5/USBFS.c **** *  configuration.
 704:.\Generated_Source\PSoC5/USBFS.c **** *
 705:.\Generated_Source\PSoC5/USBFS.c **** *******************************************************************************/
 706:.\Generated_Source\PSoC5/USBFS.c **** uint8 USBFS_GetConfiguration(void) 
 707:.\Generated_Source\PSoC5/USBFS.c **** {
 784              		.loc 1 707 0
 785              		.cfi_startproc
 786              		@ args = 0, pretend = 0, frame = 0
 787              		@ frame_needed = 1, uses_anonymous_args = 0
 788              		@ link register save eliminated.
 789 0000 80B4     		push	{r7}
 790              	.LCFI17:
 791              		.cfi_def_cfa_offset 4
 792 0002 00AF     		add	r7, sp, #0
 793              		.cfi_offset 7, -4
 794              	.LCFI18:
 795              		.cfi_def_cfa_register 7
 708:.\Generated_Source\PSoC5/USBFS.c ****     return(USBFS_configuration);
 796              		.loc 1 708 0
 797 0004 40F20003 		movw	r3, #:lower16:USBFS_configuration
 798 0008 C0F20003 		movt	r3, #:upper16:USBFS_configuration
 799 000c 1B78     		ldrb	r3, [r3, #0]
 800 000e DBB2     		uxtb	r3, r3
 709:.\Generated_Source\PSoC5/USBFS.c **** }
 801              		.loc 1 709 0
 802 0010 1846     		mov	r0, r3
 803 0012 BD46     		mov	sp, r7
 804 0014 80BC     		pop	{r7}
 805 0016 7047     		bx	lr
 806              		.cfi_endproc
 807              	.LFE6:
 808              		.size	USBFS_GetConfiguration, .-USBFS_GetConfiguration
 809              		.section	.text.USBFS_IsConfigurationChanged,"ax",%progbits
 810              		.align	2
 811              		.global	USBFS_IsConfigurationChanged
 812              		.thumb
 813              		.thumb_func
 814              		.type	USBFS_IsConfigurationChanged, %function
 815              	USBFS_IsConfigurationChanged:
 816              	.LFB7:
 710:.\Generated_Source\PSoC5/USBFS.c **** 
 711:.\Generated_Source\PSoC5/USBFS.c **** 
 712:.\Generated_Source\PSoC5/USBFS.c **** /*******************************************************************************
 713:.\Generated_Source\PSoC5/USBFS.c **** * Function Name: USBFS_IsConfigurationChanged
 714:.\Generated_Source\PSoC5/USBFS.c **** ********************************************************************************
 715:.\Generated_Source\PSoC5/USBFS.c **** *
 716:.\Generated_Source\PSoC5/USBFS.c **** * Summary:
 717:.\Generated_Source\PSoC5/USBFS.c **** *  Returns the clear on read configuration state. It is usefull when PC send
 718:.\Generated_Source\PSoC5/USBFS.c **** *  double SET_CONFIGURATION request with same configuration number.
 719:.\Generated_Source\PSoC5/USBFS.c **** *
ARM GAS  C:\DOCUME~1\ADMINI~1\LOCALS~1\Temp\ccyKCgI6.s 			page 28


 720:.\Generated_Source\PSoC5/USBFS.c **** * Parameters:
 721:.\Generated_Source\PSoC5/USBFS.c **** *  None.
 722:.\Generated_Source\PSoC5/USBFS.c **** *
 723:.\Generated_Source\PSoC5/USBFS.c **** * Return:
 724:.\Generated_Source\PSoC5/USBFS.c **** *  Not zero value when new configuration has been changed, otherwise zero is
 725:.\Generated_Source\PSoC5/USBFS.c **** *  returned.
 726:.\Generated_Source\PSoC5/USBFS.c **** *
 727:.\Generated_Source\PSoC5/USBFS.c **** * Global variables:
 728:.\Generated_Source\PSoC5/USBFS.c **** *   USBFS_configurationChanged: This variable is set to one after
 729:.\Generated_Source\PSoC5/USBFS.c **** *       SET_CONFIGURATION request and cleared in this function.
 730:.\Generated_Source\PSoC5/USBFS.c **** *
 731:.\Generated_Source\PSoC5/USBFS.c **** *******************************************************************************/
 732:.\Generated_Source\PSoC5/USBFS.c **** uint8 USBFS_IsConfigurationChanged(void) 
 733:.\Generated_Source\PSoC5/USBFS.c **** {
 817              		.loc 1 733 0
 818              		.cfi_startproc
 819              		@ args = 0, pretend = 0, frame = 8
 820              		@ frame_needed = 1, uses_anonymous_args = 0
 821              		@ link register save eliminated.
 822 0000 80B4     		push	{r7}
 823              	.LCFI19:
 824              		.cfi_def_cfa_offset 4
 825 0002 83B0     		sub	sp, sp, #12
 826              	.LCFI20:
 827              		.cfi_def_cfa_offset 16
 828 0004 00AF     		add	r7, sp, #0
 829              		.cfi_offset 7, -4
 830              	.LCFI21:
 831              		.cfi_def_cfa_register 7
 734:.\Generated_Source\PSoC5/USBFS.c ****     uint8 res = 0u;
 832              		.loc 1 734 0
 833 0006 4FF00003 		mov	r3, #0
 834 000a FB71     		strb	r3, [r7, #7]
 735:.\Generated_Source\PSoC5/USBFS.c **** 
 736:.\Generated_Source\PSoC5/USBFS.c ****     if(USBFS_configurationChanged != 0u)
 835              		.loc 1 736 0
 836 000c 40F20003 		movw	r3, #:lower16:USBFS_configurationChanged
 837 0010 C0F20003 		movt	r3, #:upper16:USBFS_configurationChanged
 838 0014 1B78     		ldrb	r3, [r3, #0]
 839 0016 DBB2     		uxtb	r3, r3
 840 0018 002B     		cmp	r3, #0
 841 001a 0CD0     		beq	.L28
 737:.\Generated_Source\PSoC5/USBFS.c ****     {
 738:.\Generated_Source\PSoC5/USBFS.c ****         res = USBFS_configurationChanged;
 842              		.loc 1 738 0
 843 001c 40F20003 		movw	r3, #:lower16:USBFS_configurationChanged
 844 0020 C0F20003 		movt	r3, #:upper16:USBFS_configurationChanged
 845 0024 1B78     		ldrb	r3, [r3, #0]
 846 0026 FB71     		strb	r3, [r7, #7]
 739:.\Generated_Source\PSoC5/USBFS.c ****         USBFS_configurationChanged = 0u;
 847              		.loc 1 739 0
 848 0028 40F20003 		movw	r3, #:lower16:USBFS_configurationChanged
 849 002c C0F20003 		movt	r3, #:upper16:USBFS_configurationChanged
 850 0030 4FF00002 		mov	r2, #0
 851 0034 1A70     		strb	r2, [r3, #0]
 852              	.L28:
 740:.\Generated_Source\PSoC5/USBFS.c ****     }
ARM GAS  C:\DOCUME~1\ADMINI~1\LOCALS~1\Temp\ccyKCgI6.s 			page 29


 741:.\Generated_Source\PSoC5/USBFS.c **** 
 742:.\Generated_Source\PSoC5/USBFS.c ****     return(res);
 853              		.loc 1 742 0
 854 0036 FB79     		ldrb	r3, [r7, #7]	@ zero_extendqisi2
 743:.\Generated_Source\PSoC5/USBFS.c **** }
 855              		.loc 1 743 0
 856 0038 1846     		mov	r0, r3
 857 003a 07F10C07 		add	r7, r7, #12
 858 003e BD46     		mov	sp, r7
 859 0040 80BC     		pop	{r7}
 860 0042 7047     		bx	lr
 861              		.cfi_endproc
 862              	.LFE7:
 863              		.size	USBFS_IsConfigurationChanged, .-USBFS_IsConfigurationChanged
 864              		.section	.text.USBFS_GetInterfaceSetting,"ax",%progbits
 865              		.align	2
 866              		.global	USBFS_GetInterfaceSetting
 867              		.thumb
 868              		.thumb_func
 869              		.type	USBFS_GetInterfaceSetting, %function
 870              	USBFS_GetInterfaceSetting:
 871              	.LFB8:
 744:.\Generated_Source\PSoC5/USBFS.c **** 
 745:.\Generated_Source\PSoC5/USBFS.c **** 
 746:.\Generated_Source\PSoC5/USBFS.c **** /*******************************************************************************
 747:.\Generated_Source\PSoC5/USBFS.c **** * Function Name: USBFS_GetInterfaceSetting
 748:.\Generated_Source\PSoC5/USBFS.c **** ********************************************************************************
 749:.\Generated_Source\PSoC5/USBFS.c **** *
 750:.\Generated_Source\PSoC5/USBFS.c **** * Summary:
 751:.\Generated_Source\PSoC5/USBFS.c **** *  Returns the alternate setting from current interface
 752:.\Generated_Source\PSoC5/USBFS.c **** *
 753:.\Generated_Source\PSoC5/USBFS.c **** * Parameters:
 754:.\Generated_Source\PSoC5/USBFS.c **** *  uint8 interfaceNumber, interface number
 755:.\Generated_Source\PSoC5/USBFS.c **** *
 756:.\Generated_Source\PSoC5/USBFS.c **** * Return:
 757:.\Generated_Source\PSoC5/USBFS.c **** *  Alternate setting.
 758:.\Generated_Source\PSoC5/USBFS.c **** *
 759:.\Generated_Source\PSoC5/USBFS.c **** *******************************************************************************/
 760:.\Generated_Source\PSoC5/USBFS.c **** uint8  USBFS_GetInterfaceSetting(uint8 interfaceNumber)
 761:.\Generated_Source\PSoC5/USBFS.c ****                                                     
 762:.\Generated_Source\PSoC5/USBFS.c **** {
 872              		.loc 1 762 0
 873              		.cfi_startproc
 874              		@ args = 0, pretend = 0, frame = 8
 875              		@ frame_needed = 1, uses_anonymous_args = 0
 876              		@ link register save eliminated.
 877 0000 80B4     		push	{r7}
 878              	.LCFI22:
 879              		.cfi_def_cfa_offset 4
 880 0002 83B0     		sub	sp, sp, #12
 881              	.LCFI23:
 882              		.cfi_def_cfa_offset 16
 883 0004 00AF     		add	r7, sp, #0
 884              		.cfi_offset 7, -4
 885              	.LCFI24:
 886              		.cfi_def_cfa_register 7
 887 0006 0346     		mov	r3, r0
ARM GAS  C:\DOCUME~1\ADMINI~1\LOCALS~1\Temp\ccyKCgI6.s 			page 30


 888 0008 FB71     		strb	r3, [r7, #7]
 763:.\Generated_Source\PSoC5/USBFS.c ****     return(USBFS_interfaceSetting[interfaceNumber]);
 889              		.loc 1 763 0
 890 000a FA79     		ldrb	r2, [r7, #7]	@ zero_extendqisi2
 891 000c 40F20003 		movw	r3, #:lower16:USBFS_interfaceSetting
 892 0010 C0F20003 		movt	r3, #:upper16:USBFS_interfaceSetting
 893 0014 9B5C     		ldrb	r3, [r3, r2]
 894 0016 DBB2     		uxtb	r3, r3
 764:.\Generated_Source\PSoC5/USBFS.c **** }
 895              		.loc 1 764 0
 896 0018 1846     		mov	r0, r3
 897 001a 07F10C07 		add	r7, r7, #12
 898 001e BD46     		mov	sp, r7
 899 0020 80BC     		pop	{r7}
 900 0022 7047     		bx	lr
 901              		.cfi_endproc
 902              	.LFE8:
 903              		.size	USBFS_GetInterfaceSetting, .-USBFS_GetInterfaceSetting
 904              		.section	.text.USBFS_GetEPState,"ax",%progbits
 905              		.align	2
 906              		.global	USBFS_GetEPState
 907              		.thumb
 908              		.thumb_func
 909              		.type	USBFS_GetEPState, %function
 910              	USBFS_GetEPState:
 911              	.LFB9:
 765:.\Generated_Source\PSoC5/USBFS.c **** 
 766:.\Generated_Source\PSoC5/USBFS.c **** 
 767:.\Generated_Source\PSoC5/USBFS.c **** /*******************************************************************************
 768:.\Generated_Source\PSoC5/USBFS.c **** * Function Name: USBFS_GetEPState
 769:.\Generated_Source\PSoC5/USBFS.c **** ********************************************************************************
 770:.\Generated_Source\PSoC5/USBFS.c **** *
 771:.\Generated_Source\PSoC5/USBFS.c **** * Summary:
 772:.\Generated_Source\PSoC5/USBFS.c **** *  Returned the state of the requested endpoint.
 773:.\Generated_Source\PSoC5/USBFS.c **** *
 774:.\Generated_Source\PSoC5/USBFS.c **** * Parameters:
 775:.\Generated_Source\PSoC5/USBFS.c **** *  epNumber: Endpoint Number
 776:.\Generated_Source\PSoC5/USBFS.c **** *
 777:.\Generated_Source\PSoC5/USBFS.c **** * Return:
 778:.\Generated_Source\PSoC5/USBFS.c **** *  State of the requested endpoint.
 779:.\Generated_Source\PSoC5/USBFS.c **** *
 780:.\Generated_Source\PSoC5/USBFS.c **** *******************************************************************************/
 781:.\Generated_Source\PSoC5/USBFS.c **** uint8 USBFS_GetEPState(uint8 epNumber) 
 782:.\Generated_Source\PSoC5/USBFS.c **** {
 912              		.loc 1 782 0
 913              		.cfi_startproc
 914              		@ args = 0, pretend = 0, frame = 8
 915              		@ frame_needed = 1, uses_anonymous_args = 0
 916              		@ link register save eliminated.
 917 0000 80B4     		push	{r7}
 918              	.LCFI25:
 919              		.cfi_def_cfa_offset 4
 920 0002 83B0     		sub	sp, sp, #12
 921              	.LCFI26:
 922              		.cfi_def_cfa_offset 16
 923 0004 00AF     		add	r7, sp, #0
 924              		.cfi_offset 7, -4
ARM GAS  C:\DOCUME~1\ADMINI~1\LOCALS~1\Temp\ccyKCgI6.s 			page 31


 925              	.LCFI27:
 926              		.cfi_def_cfa_register 7
 927 0006 0346     		mov	r3, r0
 928 0008 FB71     		strb	r3, [r7, #7]
 783:.\Generated_Source\PSoC5/USBFS.c ****     return(USBFS_EP[epNumber].apiEpState);
 929              		.loc 1 783 0
 930 000a F979     		ldrb	r1, [r7, #7]	@ zero_extendqisi2
 931 000c 40F20002 		movw	r2, #:lower16:USBFS_EP
 932 0010 C0F20002 		movt	r2, #:upper16:USBFS_EP
 933 0014 0B46     		mov	r3, r1
 934 0016 4FEA4303 		lsl	r3, r3, #1
 935 001a 0B44     		add	r3, r3, r1
 936 001c 4FEA8303 		lsl	r3, r3, #2
 937 0020 1344     		add	r3, r3, r2
 938 0022 5B78     		ldrb	r3, [r3, #1]
 939 0024 DBB2     		uxtb	r3, r3
 784:.\Generated_Source\PSoC5/USBFS.c **** }
 940              		.loc 1 784 0
 941 0026 1846     		mov	r0, r3
 942 0028 07F10C07 		add	r7, r7, #12
 943 002c BD46     		mov	sp, r7
 944 002e 80BC     		pop	{r7}
 945 0030 7047     		bx	lr
 946              		.cfi_endproc
 947              	.LFE9:
 948              		.size	USBFS_GetEPState, .-USBFS_GetEPState
 949 0032 00BF     		.section	.text.USBFS_GetEPCount,"ax",%progbits
 950              		.align	2
 951              		.global	USBFS_GetEPCount
 952              		.thumb
 953              		.thumb_func
 954              		.type	USBFS_GetEPCount, %function
 955              	USBFS_GetEPCount:
 956              	.LFB10:
 785:.\Generated_Source\PSoC5/USBFS.c **** 
 786:.\Generated_Source\PSoC5/USBFS.c **** 
 787:.\Generated_Source\PSoC5/USBFS.c **** /*******************************************************************************
 788:.\Generated_Source\PSoC5/USBFS.c **** * Function Name: USBFS_GetEPCount
 789:.\Generated_Source\PSoC5/USBFS.c **** ********************************************************************************
 790:.\Generated_Source\PSoC5/USBFS.c **** *
 791:.\Generated_Source\PSoC5/USBFS.c **** * Summary:
 792:.\Generated_Source\PSoC5/USBFS.c **** *  This function supports Data Endpoints only(EP1-EP8).
 793:.\Generated_Source\PSoC5/USBFS.c **** *  Returns the transfer count for the requested endpoint.  The value from
 794:.\Generated_Source\PSoC5/USBFS.c **** *  the count registers includes 2 counts for the two byte checksum of the
 795:.\Generated_Source\PSoC5/USBFS.c **** *  packet.  This function subtracts the two counts.
 796:.\Generated_Source\PSoC5/USBFS.c **** *
 797:.\Generated_Source\PSoC5/USBFS.c **** * Parameters:
 798:.\Generated_Source\PSoC5/USBFS.c **** *  epNumber: Data Endpoint Number.
 799:.\Generated_Source\PSoC5/USBFS.c **** *            Valid values are between 1 and 8.
 800:.\Generated_Source\PSoC5/USBFS.c **** *
 801:.\Generated_Source\PSoC5/USBFS.c **** * Return:
 802:.\Generated_Source\PSoC5/USBFS.c **** *  Returns the current byte count from the specified endpoin or 0 for an
 803:.\Generated_Source\PSoC5/USBFS.c **** *  invalid endpoint.
 804:.\Generated_Source\PSoC5/USBFS.c **** *
 805:.\Generated_Source\PSoC5/USBFS.c **** *******************************************************************************/
 806:.\Generated_Source\PSoC5/USBFS.c **** uint16 USBFS_GetEPCount(uint8 epNumber) 
 807:.\Generated_Source\PSoC5/USBFS.c **** {
ARM GAS  C:\DOCUME~1\ADMINI~1\LOCALS~1\Temp\ccyKCgI6.s 			page 32


 957              		.loc 1 807 0
 958              		.cfi_startproc
 959              		@ args = 0, pretend = 0, frame = 16
 960              		@ frame_needed = 1, uses_anonymous_args = 0
 961              		@ link register save eliminated.
 962 0000 80B4     		push	{r7}
 963              	.LCFI28:
 964              		.cfi_def_cfa_offset 4
 965 0002 85B0     		sub	sp, sp, #20
 966              	.LCFI29:
 967              		.cfi_def_cfa_offset 24
 968 0004 00AF     		add	r7, sp, #0
 969              		.cfi_offset 7, -4
 970              	.LCFI30:
 971              		.cfi_def_cfa_register 7
 972 0006 0346     		mov	r3, r0
 973 0008 FB71     		strb	r3, [r7, #7]
 808:.\Generated_Source\PSoC5/USBFS.c ****     uint8 ri;
 809:.\Generated_Source\PSoC5/USBFS.c ****     uint16 count = 0u;
 974              		.loc 1 809 0
 975 000a 4FF00003 		mov	r3, #0
 976 000e FB81     		strh	r3, [r7, #14]	@ movhi
 810:.\Generated_Source\PSoC5/USBFS.c **** 
 811:.\Generated_Source\PSoC5/USBFS.c ****     if((epNumber > USBFS_EP0) && (epNumber < USBFS_MAX_EP))
 977              		.loc 1 811 0
 978 0010 FB79     		ldrb	r3, [r7, #7]	@ zero_extendqisi2
 979 0012 002B     		cmp	r3, #0
 980 0014 24D0     		beq	.L35
 981 0016 FB79     		ldrb	r3, [r7, #7]	@ zero_extendqisi2
 982 0018 082B     		cmp	r3, #8
 983 001a 21D8     		bhi	.L35
 812:.\Generated_Source\PSoC5/USBFS.c ****     {
 813:.\Generated_Source\PSoC5/USBFS.c ****         ri = ((epNumber - USBFS_EP1) << USBFS_EPX_CNTX_ADDR_SHIFT);
 984              		.loc 1 813 0
 985 001c FB79     		ldrb	r3, [r7, #7]
 986 001e 03F1FF33 		add	r3, r3, #-1
 987 0022 DBB2     		uxtb	r3, r3
 988 0024 4FEA0313 		lsl	r3, r3, #4
 989 0028 7B73     		strb	r3, [r7, #13]
 814:.\Generated_Source\PSoC5/USBFS.c **** 
 815:.\Generated_Source\PSoC5/USBFS.c ****         count = ((uint16)((CY_GET_REG8(&USBFS_SIE_EP1_CNT0_PTR[ri]) & USBFS_EPX_CNT0_MASK) << 8u)
 990              		.loc 1 815 0
 991 002a 7A7B     		ldrb	r2, [r7, #13]	@ zero_extendqisi2
 992 002c 46F20C03 		movw	r3, #:lower16:1073766412
 993 0030 C4F20003 		movt	r3, #:upper16:1073766412
 994 0034 1344     		add	r3, r2, r3
 995 0036 1B78     		ldrb	r3, [r3, #0]
 996 0038 DBB2     		uxtb	r3, r3
 997 003a 03F00703 		and	r3, r3, #7
 998 003e 4FEA0323 		lsl	r3, r3, #8
 999 0042 9AB2     		uxth	r2, r3
 816:.\Generated_Source\PSoC5/USBFS.c ****                          | CY_GET_REG8(&USBFS_SIE_EP1_CNT1_PTR[ri]))
 1000              		.loc 1 816 0
 1001 0044 797B     		ldrb	r1, [r7, #13]	@ zero_extendqisi2
 1002 0046 46F20D03 		movw	r3, #:lower16:1073766413
 1003 004a C4F20003 		movt	r3, #:upper16:1073766413
 1004 004e 0B44     		add	r3, r1, r3
ARM GAS  C:\DOCUME~1\ADMINI~1\LOCALS~1\Temp\ccyKCgI6.s 			page 33


 1005 0050 1B78     		ldrb	r3, [r3, #0]
 1006 0052 DBB2     		uxtb	r3, r3
 1007              		.loc 1 815 0
 1008 0054 42EA0303 		orr	r3, r2, r3
 1009 0058 9BB2     		uxth	r3, r3
 1010 005a A3F10203 		sub	r3, r3, #2
 1011 005e FB81     		strh	r3, [r7, #14]	@ movhi
 1012              	.L35:
 817:.\Generated_Source\PSoC5/USBFS.c ****                          - USBFS_EPX_CNTX_CRC_COUNT;
 818:.\Generated_Source\PSoC5/USBFS.c ****     }
 819:.\Generated_Source\PSoC5/USBFS.c ****     return(count);
 1013              		.loc 1 819 0
 1014 0060 FB89     		ldrh	r3, [r7, #14]
 820:.\Generated_Source\PSoC5/USBFS.c **** }
 1015              		.loc 1 820 0
 1016 0062 1846     		mov	r0, r3
 1017 0064 07F11407 		add	r7, r7, #20
 1018 0068 BD46     		mov	sp, r7
 1019 006a 80BC     		pop	{r7}
 1020 006c 7047     		bx	lr
 1021              		.cfi_endproc
 1022              	.LFE10:
 1023              		.size	USBFS_GetEPCount, .-USBFS_GetEPCount
 1024 006e 00BF     		.section	.text.USBFS_InitEP_DMA,"ax",%progbits
 1025              		.align	2
 1026              		.global	USBFS_InitEP_DMA
 1027              		.thumb
 1028              		.thumb_func
 1029              		.type	USBFS_InitEP_DMA, %function
 1030              	USBFS_InitEP_DMA:
 1031              	.LFB11:
 821:.\Generated_Source\PSoC5/USBFS.c **** 
 822:.\Generated_Source\PSoC5/USBFS.c **** 
 823:.\Generated_Source\PSoC5/USBFS.c **** #if(USBFS_EP_MM != USBFS__EP_MANUAL)
 824:.\Generated_Source\PSoC5/USBFS.c **** 
 825:.\Generated_Source\PSoC5/USBFS.c **** 
 826:.\Generated_Source\PSoC5/USBFS.c ****     /*******************************************************************************
 827:.\Generated_Source\PSoC5/USBFS.c ****     * Function Name: USBFS_InitEP_DMA
 828:.\Generated_Source\PSoC5/USBFS.c ****     ********************************************************************************
 829:.\Generated_Source\PSoC5/USBFS.c ****     *
 830:.\Generated_Source\PSoC5/USBFS.c ****     * Summary: This function allocate and initializes a EP DMA chanel to be used
 831:.\Generated_Source\PSoC5/USBFS.c ****     *     by the USBFS_LoadInEP() or USBFS_ReadOutEP() APIs.
 832:.\Generated_Source\PSoC5/USBFS.c ****     *
 833:.\Generated_Source\PSoC5/USBFS.c ****     * Parameters:
 834:.\Generated_Source\PSoC5/USBFS.c ****     *  epNumber: Contains the data endpoint number.
 835:.\Generated_Source\PSoC5/USBFS.c ****     *            Valid values are between 1 and 8.
 836:.\Generated_Source\PSoC5/USBFS.c ****     *  *pData: A pointer to a data array which will be related to the EP transfers
 837:.\Generated_Source\PSoC5/USBFS.c ****     *
 838:.\Generated_Source\PSoC5/USBFS.c ****     * Return:
 839:.\Generated_Source\PSoC5/USBFS.c ****     *  None.
 840:.\Generated_Source\PSoC5/USBFS.c ****     *
 841:.\Generated_Source\PSoC5/USBFS.c ****     * Reentrant:
 842:.\Generated_Source\PSoC5/USBFS.c ****     *  No.
 843:.\Generated_Source\PSoC5/USBFS.c ****     *
 844:.\Generated_Source\PSoC5/USBFS.c ****     *******************************************************************************/
 845:.\Generated_Source\PSoC5/USBFS.c ****     void USBFS_InitEP_DMA(uint8 epNumber, uint8 *pData) 
 846:.\Generated_Source\PSoC5/USBFS.c ****     {
ARM GAS  C:\DOCUME~1\ADMINI~1\LOCALS~1\Temp\ccyKCgI6.s 			page 34


 1032              		.loc 1 846 0
 1033              		.cfi_startproc
 1034              		@ args = 0, pretend = 0, frame = 16
 1035              		@ frame_needed = 1, uses_anonymous_args = 0
 1036 0000 90B5     		push	{r4, r7, lr}
 1037              	.LCFI31:
 1038              		.cfi_def_cfa_offset 12
 1039 0002 85B0     		sub	sp, sp, #20
 1040              	.LCFI32:
 1041              		.cfi_def_cfa_offset 32
 1042 0004 00AF     		add	r7, sp, #0
 1043              		.cfi_offset 14, -4
 1044              		.cfi_offset 7, -8
 1045              		.cfi_offset 4, -12
 1046              	.LCFI33:
 1047              		.cfi_def_cfa_register 7
 1048 0006 0346     		mov	r3, r0
 1049 0008 3960     		str	r1, [r7, #0]
 1050 000a FB71     		strb	r3, [r7, #7]
 847:.\Generated_Source\PSoC5/USBFS.c ****         uint16 src;
 848:.\Generated_Source\PSoC5/USBFS.c ****         uint16 dst;
 849:.\Generated_Source\PSoC5/USBFS.c ****         #if (defined(__C51__))          /* PSoC 3 - Source is Flash */
 850:.\Generated_Source\PSoC5/USBFS.c ****             src = HI16(CYDEV_SRAM_BASE);
 851:.\Generated_Source\PSoC5/USBFS.c ****             dst = HI16(CYDEV_PERIPH_BASE);
 852:.\Generated_Source\PSoC5/USBFS.c ****             pData = pData;
 853:.\Generated_Source\PSoC5/USBFS.c ****         #else                           /* PSoC 5 */
 854:.\Generated_Source\PSoC5/USBFS.c ****             if((USBFS_EP[epNumber].addr & USBFS_DIR_IN) != 0u )
 1051              		.loc 1 854 0
 1052 000c F979     		ldrb	r1, [r7, #7]	@ zero_extendqisi2
 1053 000e 40F20002 		movw	r2, #:lower16:USBFS_EP
 1054 0012 C0F20002 		movt	r2, #:upper16:USBFS_EP
 1055 0016 0B46     		mov	r3, r1
 1056 0018 4FEA4303 		lsl	r3, r3, #1
 1057 001c 0B44     		add	r3, r3, r1
 1058 001e 4FEA8303 		lsl	r3, r3, #2
 1059 0022 1344     		add	r3, r3, r2
 1060 0024 1B79     		ldrb	r3, [r3, #4]
 1061 0026 DBB2     		uxtb	r3, r3
 1062 0028 5BB2     		sxtb	r3, r3
 1063 002a 002B     		cmp	r3, #0
 1064 002c 07DA     		bge	.L38
 855:.\Generated_Source\PSoC5/USBFS.c ****             {   /* for the IN EP source is the flash memory buffer */
 856:.\Generated_Source\PSoC5/USBFS.c ****                 src = HI16(pData);
 1065              		.loc 1 856 0
 1066 002e 3B68     		ldr	r3, [r7, #0]
 1067 0030 4FEA1343 		lsr	r3, r3, #16
 1068 0034 BB81     		strh	r3, [r7, #12]	@ movhi
 857:.\Generated_Source\PSoC5/USBFS.c ****                 dst = HI16(CYDEV_PERIPH_BASE);
 1069              		.loc 1 857 0
 1070 0036 4FF48043 		mov	r3, #16384
 1071 003a FB81     		strh	r3, [r7, #14]	@ movhi
 1072 003c 06E0     		b	.L39
 1073              	.L38:
 858:.\Generated_Source\PSoC5/USBFS.c ****             }
 859:.\Generated_Source\PSoC5/USBFS.c ****             else
 860:.\Generated_Source\PSoC5/USBFS.c ****             {   /* for the OUT EP source is the SIE register */
 861:.\Generated_Source\PSoC5/USBFS.c ****                 src = HI16(CYDEV_PERIPH_BASE);
ARM GAS  C:\DOCUME~1\ADMINI~1\LOCALS~1\Temp\ccyKCgI6.s 			page 35


 1074              		.loc 1 861 0
 1075 003e 4FF48043 		mov	r3, #16384
 1076 0042 BB81     		strh	r3, [r7, #12]	@ movhi
 862:.\Generated_Source\PSoC5/USBFS.c ****                 dst = HI16(pData);
 1077              		.loc 1 862 0
 1078 0044 3B68     		ldr	r3, [r7, #0]
 1079 0046 4FEA1343 		lsr	r3, r3, #16
 1080 004a FB81     		strh	r3, [r7, #14]	@ movhi
 1081              	.L39:
 863:.\Generated_Source\PSoC5/USBFS.c ****             }
 864:.\Generated_Source\PSoC5/USBFS.c ****         #endif  /* End C51 */
 865:.\Generated_Source\PSoC5/USBFS.c ****         switch(epNumber)
 1082              		.loc 1 865 0
 1083 004c FB79     		ldrb	r3, [r7, #7]	@ zero_extendqisi2
 1084 004e 03F1FF33 		add	r3, r3, #-1
 1085 0052 052B     		cmp	r3, #5
 1086 0054 40D8     		bhi	.L40
 1087 0056 01A2     		adr	r2, .L47
 1088 0058 52F823F0 		ldr	pc, [r2, r3, lsl #2]
 1089              		.align	2
 1090              	.L47:
 1091 005c D9000000 		.word	.L40+1
 1092 0060 75000000 		.word	.L42+1
 1093 0064 D9000000 		.word	.L40+1
 1094 0068 97000000 		.word	.L44+1
 1095 006c D9000000 		.word	.L40+1
 1096 0070 B9000000 		.word	.L46+1
 1097              	.L42:
 866:.\Generated_Source\PSoC5/USBFS.c ****         {
 867:.\Generated_Source\PSoC5/USBFS.c ****             case USBFS_EP1:
 868:.\Generated_Source\PSoC5/USBFS.c ****                 #if(USBFS_DMA1_REMOVE == 0u)
 869:.\Generated_Source\PSoC5/USBFS.c ****                     USBFS_DmaChan[epNumber] = USBFS_ep1_DmaInitialize(
 870:.\Generated_Source\PSoC5/USBFS.c ****                         USBFS_DMA_BYTES_PER_BURST, USBFS_DMA_REQUEST_PER_BURST, src, dst);
 871:.\Generated_Source\PSoC5/USBFS.c ****                 #endif   /* End USBFS_DMA1_REMOVE */
 872:.\Generated_Source\PSoC5/USBFS.c ****                 break;
 873:.\Generated_Source\PSoC5/USBFS.c ****             case USBFS_EP2:
 874:.\Generated_Source\PSoC5/USBFS.c ****                 #if(USBFS_DMA2_REMOVE == 0u)
 875:.\Generated_Source\PSoC5/USBFS.c ****                     USBFS_DmaChan[epNumber] = USBFS_ep2_DmaInitialize(
 1098              		.loc 1 875 0
 1099 0074 FC79     		ldrb	r4, [r7, #7]	@ zero_extendqisi2
 1100 0076 BA89     		ldrh	r2, [r7, #12]
 1101 0078 FB89     		ldrh	r3, [r7, #14]
 1102 007a 4FF02000 		mov	r0, #32
 1103 007e 4FF00101 		mov	r1, #1
 1104 0082 FFF7FEFF 		bl	USBFS_ep2_DmaInitialize
 1105 0086 0346     		mov	r3, r0
 1106 0088 1A46     		mov	r2, r3
 1107 008a 40F20003 		movw	r3, #:lower16:USBFS_DmaChan
 1108 008e C0F20003 		movt	r3, #:upper16:USBFS_DmaChan
 1109 0092 1A55     		strb	r2, [r3, r4]
 876:.\Generated_Source\PSoC5/USBFS.c ****                         USBFS_DMA_BYTES_PER_BURST, USBFS_DMA_REQUEST_PER_BURST, src, dst);
 877:.\Generated_Source\PSoC5/USBFS.c ****                 #endif   /* End USBFS_DMA2_REMOVE */
 878:.\Generated_Source\PSoC5/USBFS.c ****                 break;
 1110              		.loc 1 878 0
 1111 0094 20E0     		b	.L40
 1112              	.L44:
 879:.\Generated_Source\PSoC5/USBFS.c ****             case USBFS_EP3:
ARM GAS  C:\DOCUME~1\ADMINI~1\LOCALS~1\Temp\ccyKCgI6.s 			page 36


 880:.\Generated_Source\PSoC5/USBFS.c ****                 #if(USBFS_DMA3_REMOVE == 0u)
 881:.\Generated_Source\PSoC5/USBFS.c ****                     USBFS_DmaChan[epNumber] = USBFS_ep3_DmaInitialize(
 882:.\Generated_Source\PSoC5/USBFS.c ****                         USBFS_DMA_BYTES_PER_BURST, USBFS_DMA_REQUEST_PER_BURST, src, dst);
 883:.\Generated_Source\PSoC5/USBFS.c ****                 #endif   /* End USBFS_DMA3_REMOVE */
 884:.\Generated_Source\PSoC5/USBFS.c ****                 break;
 885:.\Generated_Source\PSoC5/USBFS.c ****             case USBFS_EP4:
 886:.\Generated_Source\PSoC5/USBFS.c ****                 #if(USBFS_DMA4_REMOVE == 0u)
 887:.\Generated_Source\PSoC5/USBFS.c ****                     USBFS_DmaChan[epNumber] = USBFS_ep4_DmaInitialize(
 1113              		.loc 1 887 0
 1114 0096 FC79     		ldrb	r4, [r7, #7]	@ zero_extendqisi2
 1115 0098 BA89     		ldrh	r2, [r7, #12]
 1116 009a FB89     		ldrh	r3, [r7, #14]
 1117 009c 4FF02000 		mov	r0, #32
 1118 00a0 4FF00101 		mov	r1, #1
 1119 00a4 FFF7FEFF 		bl	USBFS_ep4_DmaInitialize
 1120 00a8 0346     		mov	r3, r0
 1121 00aa 1A46     		mov	r2, r3
 1122 00ac 40F20003 		movw	r3, #:lower16:USBFS_DmaChan
 1123 00b0 C0F20003 		movt	r3, #:upper16:USBFS_DmaChan
 1124 00b4 1A55     		strb	r2, [r3, r4]
 888:.\Generated_Source\PSoC5/USBFS.c ****                         USBFS_DMA_BYTES_PER_BURST, USBFS_DMA_REQUEST_PER_BURST, src, dst);
 889:.\Generated_Source\PSoC5/USBFS.c ****                 #endif   /* End USBFS_DMA4_REMOVE */
 890:.\Generated_Source\PSoC5/USBFS.c ****                 break;
 1125              		.loc 1 890 0
 1126 00b6 0FE0     		b	.L40
 1127              	.L46:
 891:.\Generated_Source\PSoC5/USBFS.c ****             case USBFS_EP5:
 892:.\Generated_Source\PSoC5/USBFS.c ****                 #if(USBFS_DMA5_REMOVE == 0u)
 893:.\Generated_Source\PSoC5/USBFS.c ****                     USBFS_DmaChan[epNumber] = USBFS_ep5_DmaInitialize(
 894:.\Generated_Source\PSoC5/USBFS.c ****                         USBFS_DMA_BYTES_PER_BURST, USBFS_DMA_REQUEST_PER_BURST, src, dst);
 895:.\Generated_Source\PSoC5/USBFS.c ****                 #endif   /* End USBFS_DMA5_REMOVE */
 896:.\Generated_Source\PSoC5/USBFS.c ****                 break;
 897:.\Generated_Source\PSoC5/USBFS.c ****             case USBFS_EP6:
 898:.\Generated_Source\PSoC5/USBFS.c ****                 #if(USBFS_DMA6_REMOVE == 0u)
 899:.\Generated_Source\PSoC5/USBFS.c ****                     USBFS_DmaChan[epNumber] = USBFS_ep6_DmaInitialize(
 1128              		.loc 1 899 0
 1129 00b8 FC79     		ldrb	r4, [r7, #7]	@ zero_extendqisi2
 1130 00ba BA89     		ldrh	r2, [r7, #12]
 1131 00bc FB89     		ldrh	r3, [r7, #14]
 1132 00be 4FF02000 		mov	r0, #32
 1133 00c2 4FF00101 		mov	r1, #1
 1134 00c6 FFF7FEFF 		bl	USBFS_ep6_DmaInitialize
 1135 00ca 0346     		mov	r3, r0
 1136 00cc 1A46     		mov	r2, r3
 1137 00ce 40F20003 		movw	r3, #:lower16:USBFS_DmaChan
 1138 00d2 C0F20003 		movt	r3, #:upper16:USBFS_DmaChan
 1139 00d6 1A55     		strb	r2, [r3, r4]
 1140              	.L40:
 900:.\Generated_Source\PSoC5/USBFS.c ****                         USBFS_DMA_BYTES_PER_BURST, USBFS_DMA_REQUEST_PER_BURST, src, dst);
 901:.\Generated_Source\PSoC5/USBFS.c ****                 #endif   /* End USBFS_DMA6_REMOVE */
 902:.\Generated_Source\PSoC5/USBFS.c ****                 break;
 903:.\Generated_Source\PSoC5/USBFS.c ****             case USBFS_EP7:
 904:.\Generated_Source\PSoC5/USBFS.c ****                 #if(USBFS_DMA7_REMOVE == 0u)
 905:.\Generated_Source\PSoC5/USBFS.c ****                     USBFS_DmaChan[epNumber] = USBFS_ep7_DmaInitialize(
 906:.\Generated_Source\PSoC5/USBFS.c ****                         USBFS_DMA_BYTES_PER_BURST, USBFS_DMA_REQUEST_PER_BURST, src, dst);
 907:.\Generated_Source\PSoC5/USBFS.c ****                 #endif   /* End USBFS_DMA7_REMOVE */
 908:.\Generated_Source\PSoC5/USBFS.c ****                 break;
ARM GAS  C:\DOCUME~1\ADMINI~1\LOCALS~1\Temp\ccyKCgI6.s 			page 37


 909:.\Generated_Source\PSoC5/USBFS.c ****             case USBFS_EP8:
 910:.\Generated_Source\PSoC5/USBFS.c ****                 #if(USBFS_DMA8_REMOVE == 0u)
 911:.\Generated_Source\PSoC5/USBFS.c ****                     USBFS_DmaChan[epNumber] = USBFS_ep8_DmaInitialize(
 912:.\Generated_Source\PSoC5/USBFS.c ****                         USBFS_DMA_BYTES_PER_BURST, USBFS_DMA_REQUEST_PER_BURST, src, dst);
 913:.\Generated_Source\PSoC5/USBFS.c ****                 #endif   /* End USBFS_DMA8_REMOVE */
 914:.\Generated_Source\PSoC5/USBFS.c ****                 break;
 915:.\Generated_Source\PSoC5/USBFS.c ****             default:
 916:.\Generated_Source\PSoC5/USBFS.c ****                 /* Do not support EP0 DMA transfers */
 917:.\Generated_Source\PSoC5/USBFS.c ****                 break;
 918:.\Generated_Source\PSoC5/USBFS.c ****         }
 919:.\Generated_Source\PSoC5/USBFS.c ****         if((epNumber > USBFS_EP0) && (epNumber < USBFS_MAX_EP))
 1141              		.loc 1 919 0
 1142 00d8 FB79     		ldrb	r3, [r7, #7]	@ zero_extendqisi2
 1143 00da 002B     		cmp	r3, #0
 1144 00dc 0CD0     		beq	.L49
 1145 00de FB79     		ldrb	r3, [r7, #7]	@ zero_extendqisi2
 1146 00e0 082B     		cmp	r3, #8
 1147 00e2 09D8     		bhi	.L49
 920:.\Generated_Source\PSoC5/USBFS.c ****         {
 921:.\Generated_Source\PSoC5/USBFS.c ****             USBFS_DmaTd[epNumber] = CyDmaTdAllocate();
 1148              		.loc 1 921 0
 1149 00e4 FC79     		ldrb	r4, [r7, #7]	@ zero_extendqisi2
 1150 00e6 FFF7FEFF 		bl	CyDmaTdAllocate
 1151 00ea 0346     		mov	r3, r0
 1152 00ec 1A46     		mov	r2, r3
 1153 00ee 40F20003 		movw	r3, #:lower16:USBFS_DmaTd
 1154 00f2 C0F20003 		movt	r3, #:upper16:USBFS_DmaTd
 1155 00f6 1A55     		strb	r2, [r3, r4]
 1156              	.L49:
 922:.\Generated_Source\PSoC5/USBFS.c ****         }
 923:.\Generated_Source\PSoC5/USBFS.c ****     }
 1157              		.loc 1 923 0
 1158 00f8 07F11407 		add	r7, r7, #20
 1159 00fc BD46     		mov	sp, r7
 1160 00fe 90BD     		pop	{r4, r7, pc}
 1161              		.cfi_endproc
 1162              	.LFE11:
 1163              		.size	USBFS_InitEP_DMA, .-USBFS_InitEP_DMA
 1164              		.section	.text.USBFS_Stop_DMA,"ax",%progbits
 1165              		.align	2
 1166              		.global	USBFS_Stop_DMA
 1167              		.thumb
 1168              		.thumb_func
 1169              		.type	USBFS_Stop_DMA, %function
 1170              	USBFS_Stop_DMA:
 1171              	.LFB12:
 924:.\Generated_Source\PSoC5/USBFS.c **** 
 925:.\Generated_Source\PSoC5/USBFS.c **** 
 926:.\Generated_Source\PSoC5/USBFS.c ****     /*******************************************************************************
 927:.\Generated_Source\PSoC5/USBFS.c ****     * Function Name: USBFS_Stop_DMA
 928:.\Generated_Source\PSoC5/USBFS.c ****     ********************************************************************************
 929:.\Generated_Source\PSoC5/USBFS.c ****     *
 930:.\Generated_Source\PSoC5/USBFS.c ****     * Summary: Stops and free DMA
 931:.\Generated_Source\PSoC5/USBFS.c ****     *
 932:.\Generated_Source\PSoC5/USBFS.c ****     * Parameters:
 933:.\Generated_Source\PSoC5/USBFS.c ****     *  epNumber: Contains the data endpoint number or
 934:.\Generated_Source\PSoC5/USBFS.c ****     *           USBFS_MAX_EP to stop all DMAs
ARM GAS  C:\DOCUME~1\ADMINI~1\LOCALS~1\Temp\ccyKCgI6.s 			page 38


 935:.\Generated_Source\PSoC5/USBFS.c ****     *
 936:.\Generated_Source\PSoC5/USBFS.c ****     * Return:
 937:.\Generated_Source\PSoC5/USBFS.c ****     *  None.
 938:.\Generated_Source\PSoC5/USBFS.c ****     *
 939:.\Generated_Source\PSoC5/USBFS.c ****     * Reentrant:
 940:.\Generated_Source\PSoC5/USBFS.c ****     *  No.
 941:.\Generated_Source\PSoC5/USBFS.c ****     *
 942:.\Generated_Source\PSoC5/USBFS.c ****     *******************************************************************************/
 943:.\Generated_Source\PSoC5/USBFS.c ****     void USBFS_Stop_DMA(uint8 epNumber) 
 944:.\Generated_Source\PSoC5/USBFS.c ****     {
 1172              		.loc 1 944 0
 1173              		.cfi_startproc
 1174              		@ args = 0, pretend = 0, frame = 16
 1175              		@ frame_needed = 1, uses_anonymous_args = 0
 1176 0000 80B5     		push	{r7, lr}
 1177              	.LCFI34:
 1178              		.cfi_def_cfa_offset 8
 1179 0002 84B0     		sub	sp, sp, #16
 1180              	.LCFI35:
 1181              		.cfi_def_cfa_offset 24
 1182 0004 00AF     		add	r7, sp, #0
 1183              		.cfi_offset 14, -4
 1184              		.cfi_offset 7, -8
 1185              	.LCFI36:
 1186              		.cfi_def_cfa_register 7
 1187 0006 0346     		mov	r3, r0
 1188 0008 FB71     		strb	r3, [r7, #7]
 945:.\Generated_Source\PSoC5/USBFS.c ****         uint8 i;
 946:.\Generated_Source\PSoC5/USBFS.c ****         i = (epNumber < USBFS_MAX_EP) ? epNumber : USBFS_EP1;
 1189              		.loc 1 946 0
 1190 000a FB79     		ldrb	r3, [r7, #7]	@ zero_extendqisi2
 1191 000c 082B     		cmp	r3, #8
 1192 000e 01D8     		bhi	.L51
 1193 0010 FB79     		ldrb	r3, [r7, #7]	@ zero_extendqisi2
 1194 0012 01E0     		b	.L52
 1195              	.L51:
 1196 0014 4FF00103 		mov	r3, #1
 1197              	.L52:
 1198 0018 FB73     		strb	r3, [r7, #15]
 1199              	.L55:
 947:.\Generated_Source\PSoC5/USBFS.c ****         do
 948:.\Generated_Source\PSoC5/USBFS.c ****         {
 949:.\Generated_Source\PSoC5/USBFS.c ****             if(USBFS_DmaTd[i] != DMA_INVALID_TD)
 1200              		.loc 1 949 0
 1201 001a FA7B     		ldrb	r2, [r7, #15]	@ zero_extendqisi2
 1202 001c 40F20003 		movw	r3, #:lower16:USBFS_DmaTd
 1203 0020 C0F20003 		movt	r3, #:upper16:USBFS_DmaTd
 1204 0024 9B5C     		ldrb	r3, [r3, r2]	@ zero_extendqisi2
 1205 0026 FF2B     		cmp	r3, #255
 1206 0028 19D0     		beq	.L53
 950:.\Generated_Source\PSoC5/USBFS.c ****             {
 951:.\Generated_Source\PSoC5/USBFS.c ****                 CyDmaChDisable(USBFS_DmaChan[i]);
 1207              		.loc 1 951 0
 1208 002a FA7B     		ldrb	r2, [r7, #15]	@ zero_extendqisi2
 1209 002c 40F20003 		movw	r3, #:lower16:USBFS_DmaChan
 1210 0030 C0F20003 		movt	r3, #:upper16:USBFS_DmaChan
 1211 0034 9B5C     		ldrb	r3, [r3, r2]	@ zero_extendqisi2
ARM GAS  C:\DOCUME~1\ADMINI~1\LOCALS~1\Temp\ccyKCgI6.s 			page 39


 1212 0036 1846     		mov	r0, r3
 1213 0038 FFF7FEFF 		bl	CyDmaChDisable
 952:.\Generated_Source\PSoC5/USBFS.c ****                 CyDmaTdFree(USBFS_DmaTd[i]);
 1214              		.loc 1 952 0
 1215 003c FA7B     		ldrb	r2, [r7, #15]	@ zero_extendqisi2
 1216 003e 40F20003 		movw	r3, #:lower16:USBFS_DmaTd
 1217 0042 C0F20003 		movt	r3, #:upper16:USBFS_DmaTd
 1218 0046 9B5C     		ldrb	r3, [r3, r2]	@ zero_extendqisi2
 1219 0048 1846     		mov	r0, r3
 1220 004a FFF7FEFF 		bl	CyDmaTdFree
 953:.\Generated_Source\PSoC5/USBFS.c ****                 USBFS_DmaTd[i] = DMA_INVALID_TD;
 1221              		.loc 1 953 0
 1222 004e FA7B     		ldrb	r2, [r7, #15]	@ zero_extendqisi2
 1223 0050 40F20003 		movw	r3, #:lower16:USBFS_DmaTd
 1224 0054 C0F20003 		movt	r3, #:upper16:USBFS_DmaTd
 1225 0058 4FF0FF31 		mov	r1, #-1
 1226 005c 9954     		strb	r1, [r3, r2]
 1227              	.L53:
 954:.\Generated_Source\PSoC5/USBFS.c ****             }
 955:.\Generated_Source\PSoC5/USBFS.c ****             i++;
 1228              		.loc 1 955 0
 1229 005e FB7B     		ldrb	r3, [r7, #15]
 1230 0060 03F10103 		add	r3, r3, #1
 1231 0064 FB73     		strb	r3, [r7, #15]
 956:.\Generated_Source\PSoC5/USBFS.c ****         }while((i < USBFS_MAX_EP) && (epNumber == USBFS_MAX_EP));
 1232              		.loc 1 956 0
 1233 0066 FB7B     		ldrb	r3, [r7, #15]	@ zero_extendqisi2
 1234 0068 082B     		cmp	r3, #8
 1235 006a 02D8     		bhi	.L56
 1236 006c FB79     		ldrb	r3, [r7, #7]	@ zero_extendqisi2
 1237 006e 092B     		cmp	r3, #9
 1238 0070 D3D0     		beq	.L55
 1239              	.L56:
 957:.\Generated_Source\PSoC5/USBFS.c ****     }
 1240              		.loc 1 957 0
 1241 0072 07F11007 		add	r7, r7, #16
 1242 0076 BD46     		mov	sp, r7
 1243 0078 80BD     		pop	{r7, pc}
 1244              		.cfi_endproc
 1245              	.LFE12:
 1246              		.size	USBFS_Stop_DMA, .-USBFS_Stop_DMA
 1247 007a 00BF     		.section	.text.USBFS_LoadInEP,"ax",%progbits
 1248              		.align	2
 1249              		.global	USBFS_LoadInEP
 1250              		.thumb
 1251              		.thumb_func
 1252              		.type	USBFS_LoadInEP, %function
 1253              	USBFS_LoadInEP:
 1254              	.LFB13:
 958:.\Generated_Source\PSoC5/USBFS.c **** 
 959:.\Generated_Source\PSoC5/USBFS.c **** #endif /* End USBFS_EP_MM != USBFS__EP_MANUAL */
 960:.\Generated_Source\PSoC5/USBFS.c **** 
 961:.\Generated_Source\PSoC5/USBFS.c **** 
 962:.\Generated_Source\PSoC5/USBFS.c **** /*******************************************************************************
 963:.\Generated_Source\PSoC5/USBFS.c **** * Function Name: USBFS_LoadInEP
 964:.\Generated_Source\PSoC5/USBFS.c **** ********************************************************************************
 965:.\Generated_Source\PSoC5/USBFS.c **** *
ARM GAS  C:\DOCUME~1\ADMINI~1\LOCALS~1\Temp\ccyKCgI6.s 			page 40


 966:.\Generated_Source\PSoC5/USBFS.c **** * Summary:
 967:.\Generated_Source\PSoC5/USBFS.c **** *  Loads and enables the specified USB data endpoint for an IN interrupt or bulk
 968:.\Generated_Source\PSoC5/USBFS.c **** *  transfer.
 969:.\Generated_Source\PSoC5/USBFS.c **** *
 970:.\Generated_Source\PSoC5/USBFS.c **** * Parameters:
 971:.\Generated_Source\PSoC5/USBFS.c **** *  epNumber: Contains the data endpoint number.
 972:.\Generated_Source\PSoC5/USBFS.c **** *            Valid values are between 1 and 8.
 973:.\Generated_Source\PSoC5/USBFS.c **** *  *pData: A pointer to a data array from which the data for the endpoint space
 974:.\Generated_Source\PSoC5/USBFS.c **** *          is loaded.
 975:.\Generated_Source\PSoC5/USBFS.c **** *  length: The number of bytes to transfer from the array and then send as a
 976:.\Generated_Source\PSoC5/USBFS.c **** *          result of an IN request. Valid values are between 0 and 512.
 977:.\Generated_Source\PSoC5/USBFS.c **** *
 978:.\Generated_Source\PSoC5/USBFS.c **** * Return:
 979:.\Generated_Source\PSoC5/USBFS.c **** *  None.
 980:.\Generated_Source\PSoC5/USBFS.c **** *
 981:.\Generated_Source\PSoC5/USBFS.c **** * Reentrant:
 982:.\Generated_Source\PSoC5/USBFS.c **** *  No.
 983:.\Generated_Source\PSoC5/USBFS.c **** *
 984:.\Generated_Source\PSoC5/USBFS.c **** *******************************************************************************/
 985:.\Generated_Source\PSoC5/USBFS.c **** void USBFS_LoadInEP(uint8 epNumber, uint8 *pData, uint16 length)
 986:.\Generated_Source\PSoC5/USBFS.c ****                                                                         
 987:.\Generated_Source\PSoC5/USBFS.c **** {
 1255              		.loc 1 987 0
 1256              		.cfi_startproc
 1257              		@ args = 0, pretend = 0, frame = 24
 1258              		@ frame_needed = 1, uses_anonymous_args = 0
 1259 0000 80B5     		push	{r7, lr}
 1260              	.LCFI37:
 1261              		.cfi_def_cfa_offset 8
 1262 0002 86B0     		sub	sp, sp, #24
 1263              	.LCFI38:
 1264              		.cfi_def_cfa_offset 32
 1265 0004 00AF     		add	r7, sp, #0
 1266              		.cfi_offset 14, -4
 1267              		.cfi_offset 7, -8
 1268              	.LCFI39:
 1269              		.cfi_def_cfa_register 7
 1270 0006 B960     		str	r1, [r7, #8]
 1271 0008 1346     		mov	r3, r2
 1272 000a 0246     		mov	r2, r0
 1273 000c FA73     		strb	r2, [r7, #15]
 1274 000e FB80     		strh	r3, [r7, #6]	@ movhi
 988:.\Generated_Source\PSoC5/USBFS.c ****     uint8 ri;
 989:.\Generated_Source\PSoC5/USBFS.c ****     uint8 *p;
 990:.\Generated_Source\PSoC5/USBFS.c ****     #if(USBFS_EP_MM == USBFS__EP_MANUAL)
 991:.\Generated_Source\PSoC5/USBFS.c ****         uint16 i;
 992:.\Generated_Source\PSoC5/USBFS.c ****     #endif /* End USBFS_EP_MM == USBFS__EP_MANUAL */
 993:.\Generated_Source\PSoC5/USBFS.c **** 
 994:.\Generated_Source\PSoC5/USBFS.c ****     if((epNumber > USBFS_EP0) && (epNumber < USBFS_MAX_EP))
 1275              		.loc 1 994 0
 1276 0010 FB7B     		ldrb	r3, [r7, #15]	@ zero_extendqisi2
 1277 0012 002B     		cmp	r3, #0
 1278 0014 00F0D480 		beq	.L62
 1279 0018 FB7B     		ldrb	r3, [r7, #15]	@ zero_extendqisi2
 1280 001a 082B     		cmp	r3, #8
 1281 001c 00F2D080 		bhi	.L62
 995:.\Generated_Source\PSoC5/USBFS.c ****     {
ARM GAS  C:\DOCUME~1\ADMINI~1\LOCALS~1\Temp\ccyKCgI6.s 			page 41


 996:.\Generated_Source\PSoC5/USBFS.c ****         ri = ((epNumber - USBFS_EP1) << USBFS_EPX_CNTX_ADDR_SHIFT);
 1282              		.loc 1 996 0
 1283 0020 FB7B     		ldrb	r3, [r7, #15]
 1284 0022 03F1FF33 		add	r3, r3, #-1
 1285 0026 DBB2     		uxtb	r3, r3
 1286 0028 4FEA0313 		lsl	r3, r3, #4
 1287 002c FB74     		strb	r3, [r7, #19]
 997:.\Generated_Source\PSoC5/USBFS.c ****         p = (uint8 *)&USBFS_ARB_RW1_DR_PTR[ri];
 1288              		.loc 1 997 0
 1289 002e FA7C     		ldrb	r2, [r7, #19]	@ zero_extendqisi2
 1290 0030 46F28803 		movw	r3, #:lower16:1073766536
 1291 0034 C4F20003 		movt	r3, #:upper16:1073766536
 1292 0038 1344     		add	r3, r2, r3
 1293 003a 7B61     		str	r3, [r7, #20]
 998:.\Generated_Source\PSoC5/USBFS.c **** 
 999:.\Generated_Source\PSoC5/USBFS.c ****         #if(USBFS_EP_MM != USBFS__EP_DMAAUTO)
1000:.\Generated_Source\PSoC5/USBFS.c ****             /* Limits length to available buffer space, auto MM could send packets up to 1024 bytes
1001:.\Generated_Source\PSoC5/USBFS.c ****             if(length > USBFS_EPX_DATA_BUF_MAX - USBFS_EP[epNumber].buffOffset)
1002:.\Generated_Source\PSoC5/USBFS.c ****             {
1003:.\Generated_Source\PSoC5/USBFS.c ****                 length = USBFS_EPX_DATA_BUF_MAX - USBFS_EP[epNumber].buffOffset;
1004:.\Generated_Source\PSoC5/USBFS.c ****             }
1005:.\Generated_Source\PSoC5/USBFS.c ****         #endif /* End USBFS_EP_MM != USBFS__EP_DMAAUTO */
1006:.\Generated_Source\PSoC5/USBFS.c **** 
1007:.\Generated_Source\PSoC5/USBFS.c ****         /* Set the count and data toggle */
1008:.\Generated_Source\PSoC5/USBFS.c ****         CY_SET_REG8(&USBFS_SIE_EP1_CNT0_PTR[ri], (length >> 8u) | (USBFS_EP[epNumber].epToggle));
 1294              		.loc 1 1008 0
 1295 003c FA7C     		ldrb	r2, [r7, #19]	@ zero_extendqisi2
 1296 003e 46F20C03 		movw	r3, #:lower16:1073766412
 1297 0042 C4F20003 		movt	r3, #:upper16:1073766412
 1298 0046 1344     		add	r3, r2, r3
 1299 0048 FA88     		ldrh	r2, [r7, #6]
 1300 004a 4FEA1222 		lsr	r2, r2, #8
 1301 004e 92B2     		uxth	r2, r2
 1302 0050 5FFA82FC 		uxtb	ip, r2
 1303 0054 F87B     		ldrb	r0, [r7, #15]	@ zero_extendqisi2
 1304 0056 40F20001 		movw	r1, #:lower16:USBFS_EP
 1305 005a C0F20001 		movt	r1, #:upper16:USBFS_EP
 1306 005e 0246     		mov	r2, r0
 1307 0060 4FEA4202 		lsl	r2, r2, #1
 1308 0064 0244     		add	r2, r2, r0
 1309 0066 4FEA8202 		lsl	r2, r2, #2
 1310 006a 0A44     		add	r2, r2, r1
 1311 006c D278     		ldrb	r2, [r2, #3]
 1312 006e D2B2     		uxtb	r2, r2
 1313 0070 4CEA0202 		orr	r2, ip, r2
 1314 0074 D2B2     		uxtb	r2, r2
 1315 0076 1A70     		strb	r2, [r3, #0]
1009:.\Generated_Source\PSoC5/USBFS.c ****         CY_SET_REG8(&USBFS_SIE_EP1_CNT1_PTR[ri],  length & 0xFFu);
 1316              		.loc 1 1009 0
 1317 0078 FA7C     		ldrb	r2, [r7, #19]	@ zero_extendqisi2
 1318 007a 46F20D03 		movw	r3, #:lower16:1073766413
 1319 007e C4F20003 		movt	r3, #:upper16:1073766413
 1320 0082 1344     		add	r3, r2, r3
 1321 0084 FA88     		ldrh	r2, [r7, #6]	@ movhi
 1322 0086 D2B2     		uxtb	r2, r2
 1323 0088 1A70     		strb	r2, [r3, #0]
1010:.\Generated_Source\PSoC5/USBFS.c **** 
ARM GAS  C:\DOCUME~1\ADMINI~1\LOCALS~1\Temp\ccyKCgI6.s 			page 42


1011:.\Generated_Source\PSoC5/USBFS.c ****         #if(USBFS_EP_MM == USBFS__EP_MANUAL)
1012:.\Generated_Source\PSoC5/USBFS.c ****             if(pData != NULL)
1013:.\Generated_Source\PSoC5/USBFS.c ****             {
1014:.\Generated_Source\PSoC5/USBFS.c ****                 /* Copy the data using the arbiter data register */
1015:.\Generated_Source\PSoC5/USBFS.c ****                 for (i = 0u; i < length; i++)
1016:.\Generated_Source\PSoC5/USBFS.c ****                 {
1017:.\Generated_Source\PSoC5/USBFS.c ****                     CY_SET_REG8(p, pData[i]);
1018:.\Generated_Source\PSoC5/USBFS.c ****                 }
1019:.\Generated_Source\PSoC5/USBFS.c ****             }
1020:.\Generated_Source\PSoC5/USBFS.c ****             USBFS_EP[epNumber].apiEpState = USBFS_NO_EVENT_PENDING;
1021:.\Generated_Source\PSoC5/USBFS.c ****             /* Write the Mode register */
1022:.\Generated_Source\PSoC5/USBFS.c ****             USBFS_SIE_EP1_CR0_PTR[ri] = USBFS_EP[epNumber].epMode;
1023:.\Generated_Source\PSoC5/USBFS.c ****         #else
1024:.\Generated_Source\PSoC5/USBFS.c ****             /*Init DMA if it was not initialized */
1025:.\Generated_Source\PSoC5/USBFS.c ****             if(USBFS_DmaTd[epNumber] == DMA_INVALID_TD)
 1324              		.loc 1 1025 0
 1325 008a FA7B     		ldrb	r2, [r7, #15]	@ zero_extendqisi2
 1326 008c 40F20003 		movw	r3, #:lower16:USBFS_DmaTd
 1327 0090 C0F20003 		movt	r3, #:upper16:USBFS_DmaTd
 1328 0094 9B5C     		ldrb	r3, [r3, r2]	@ zero_extendqisi2
 1329 0096 FF2B     		cmp	r3, #255
 1330 0098 04D1     		bne	.L59
1026:.\Generated_Source\PSoC5/USBFS.c ****             {
1027:.\Generated_Source\PSoC5/USBFS.c ****                 USBFS_InitEP_DMA(epNumber, pData);
 1331              		.loc 1 1027 0
 1332 009a FB7B     		ldrb	r3, [r7, #15]	@ zero_extendqisi2
 1333 009c 1846     		mov	r0, r3
 1334 009e B968     		ldr	r1, [r7, #8]
 1335 00a0 FFF7FEFF 		bl	USBFS_InitEP_DMA
 1336              	.L59:
1028:.\Generated_Source\PSoC5/USBFS.c ****             }
1029:.\Generated_Source\PSoC5/USBFS.c ****         #endif /* End USBFS_EP_MM == USBFS__EP_MANUAL */
1030:.\Generated_Source\PSoC5/USBFS.c **** 
1031:.\Generated_Source\PSoC5/USBFS.c ****         #if(USBFS_EP_MM == USBFS__EP_DMAMANUAL)
1032:.\Generated_Source\PSoC5/USBFS.c ****             if((pData != NULL) && (length > 0))
1033:.\Generated_Source\PSoC5/USBFS.c ****             {
1034:.\Generated_Source\PSoC5/USBFS.c **** 
1035:.\Generated_Source\PSoC5/USBFS.c ****                 /* Enable DMA in mode2 for transfering data */
1036:.\Generated_Source\PSoC5/USBFS.c ****                 CyDmaChDisable(USBFS_DmaChan[epNumber]);
1037:.\Generated_Source\PSoC5/USBFS.c ****                 CyDmaTdSetConfiguration(USBFS_DmaTd[epNumber], length, DMA_INVALID_TD,\
1038:.\Generated_Source\PSoC5/USBFS.c ****                                                                                     TD_TERMIN_EN | 
1039:.\Generated_Source\PSoC5/USBFS.c ****                 CyDmaTdSetAddress(USBFS_DmaTd[epNumber],  LO16((uint32)pData), LO16((uint32)p));
1040:.\Generated_Source\PSoC5/USBFS.c ****                 /* Enable the DMA */
1041:.\Generated_Source\PSoC5/USBFS.c ****                 CyDmaChSetInitialTd(USBFS_DmaChan[epNumber], USBFS_DmaTd[epNumber]);
1042:.\Generated_Source\PSoC5/USBFS.c ****                 CyDmaChEnable(USBFS_DmaChan[epNumber], 1);
1043:.\Generated_Source\PSoC5/USBFS.c ****                 /* Generate DMA request */
1044:.\Generated_Source\PSoC5/USBFS.c ****                 USBFS_ARB_EP1_CFG_PTR[ri] |= USBFS_ARB_EPX_CFG_DMA_REQ;
1045:.\Generated_Source\PSoC5/USBFS.c ****                 USBFS_ARB_EP1_CFG_PTR[ri] &= ~USBFS_ARB_EPX_CFG_DMA_REQ;
1046:.\Generated_Source\PSoC5/USBFS.c ****                 /* Mode register will be writen in arb ISR after DMA transfer copmlete */
1047:.\Generated_Source\PSoC5/USBFS.c ****             }
1048:.\Generated_Source\PSoC5/USBFS.c ****             else
1049:.\Generated_Source\PSoC5/USBFS.c ****             {
1050:.\Generated_Source\PSoC5/USBFS.c ****                 /* When zero-length packet - write the Mode register directly */
1051:.\Generated_Source\PSoC5/USBFS.c ****                 USBFS_SIE_EP1_CR0_PTR[ri] = USBFS_EP[epNumber].epMode;
1052:.\Generated_Source\PSoC5/USBFS.c ****             }
1053:.\Generated_Source\PSoC5/USBFS.c ****         #endif /* End USBFS_EP_MM == USBFS__EP_DMAMANUAL */
1054:.\Generated_Source\PSoC5/USBFS.c **** 
ARM GAS  C:\DOCUME~1\ADMINI~1\LOCALS~1\Temp\ccyKCgI6.s 			page 43


1055:.\Generated_Source\PSoC5/USBFS.c ****         #if(USBFS_EP_MM == USBFS__EP_DMAAUTO)
1056:.\Generated_Source\PSoC5/USBFS.c ****             if(pData != NULL)
 1337              		.loc 1 1056 0
 1338 00a4 BB68     		ldr	r3, [r7, #8]
 1339 00a6 002B     		cmp	r3, #0
 1340 00a8 50D0     		beq	.L60
1057:.\Generated_Source\PSoC5/USBFS.c ****             {
1058:.\Generated_Source\PSoC5/USBFS.c ****                 /* Enable DMA in mode3 for transfering data */
1059:.\Generated_Source\PSoC5/USBFS.c ****                 CyDmaChDisable(USBFS_DmaChan[epNumber]);
 1341              		.loc 1 1059 0
 1342 00aa FA7B     		ldrb	r2, [r7, #15]	@ zero_extendqisi2
 1343 00ac 40F20003 		movw	r3, #:lower16:USBFS_DmaChan
 1344 00b0 C0F20003 		movt	r3, #:upper16:USBFS_DmaChan
 1345 00b4 9B5C     		ldrb	r3, [r3, r2]	@ zero_extendqisi2
 1346 00b6 1846     		mov	r0, r3
 1347 00b8 FFF7FEFF 		bl	CyDmaChDisable
1060:.\Generated_Source\PSoC5/USBFS.c ****                 CyDmaTdSetConfiguration(USBFS_DmaTd[epNumber], length, USBFS_DmaTd[epNumber],\
 1348              		.loc 1 1060 0
 1349 00bc FA7B     		ldrb	r2, [r7, #15]	@ zero_extendqisi2
 1350 00be 40F20003 		movw	r3, #:lower16:USBFS_DmaTd
 1351 00c2 C0F20003 		movt	r3, #:upper16:USBFS_DmaTd
 1352 00c6 995C     		ldrb	r1, [r3, r2]	@ zero_extendqisi2
 1353 00c8 FA7B     		ldrb	r2, [r7, #15]	@ zero_extendqisi2
 1354 00ca 40F20003 		movw	r3, #:lower16:USBFS_DmaTd
 1355 00ce C0F20003 		movt	r3, #:upper16:USBFS_DmaTd
 1356 00d2 9B5C     		ldrb	r3, [r3, r2]	@ zero_extendqisi2
 1357 00d4 FA88     		ldrh	r2, [r7, #6]
 1358 00d6 0846     		mov	r0, r1
 1359 00d8 1146     		mov	r1, r2
 1360 00da 1A46     		mov	r2, r3
 1361 00dc 4FF01103 		mov	r3, #17
 1362 00e0 FFF7FEFF 		bl	CyDmaTdSetConfiguration
1061:.\Generated_Source\PSoC5/USBFS.c ****                                                                                     TD_TERMIN_EN | 
1062:.\Generated_Source\PSoC5/USBFS.c ****                 CyDmaTdSetAddress(USBFS_DmaTd[epNumber],  LO16((uint32)pData), LO16((uint32)p));
 1363              		.loc 1 1062 0
 1364 00e4 FA7B     		ldrb	r2, [r7, #15]	@ zero_extendqisi2
 1365 00e6 40F20003 		movw	r3, #:lower16:USBFS_DmaTd
 1366 00ea C0F20003 		movt	r3, #:upper16:USBFS_DmaTd
 1367 00ee 995C     		ldrb	r1, [r3, r2]	@ zero_extendqisi2
 1368 00f0 BB68     		ldr	r3, [r7, #8]
 1369 00f2 9AB2     		uxth	r2, r3
 1370 00f4 7B69     		ldr	r3, [r7, #20]
 1371 00f6 9BB2     		uxth	r3, r3
 1372 00f8 0846     		mov	r0, r1
 1373 00fa 1146     		mov	r1, r2
 1374 00fc 1A46     		mov	r2, r3
 1375 00fe FFF7FEFF 		bl	CyDmaTdSetAddress
1063:.\Generated_Source\PSoC5/USBFS.c ****                 /* Clear Any potential pending DMA requests before starting the DMA channel to tran
1064:.\Generated_Source\PSoC5/USBFS.c ****                 CyDmaClearPendingDrq(USBFS_DmaChan[epNumber]);
 1376              		.loc 1 1064 0
 1377 0102 FA7B     		ldrb	r2, [r7, #15]	@ zero_extendqisi2
 1378 0104 40F20003 		movw	r3, #:lower16:USBFS_DmaChan
 1379 0108 C0F20003 		movt	r3, #:upper16:USBFS_DmaChan
 1380 010c 9B5C     		ldrb	r3, [r3, r2]	@ zero_extendqisi2
 1381 010e 1846     		mov	r0, r3
 1382 0110 FFF7FEFF 		bl	CyDmaClearPendingDrq
1065:.\Generated_Source\PSoC5/USBFS.c ****                 /* Enable the DMA */
ARM GAS  C:\DOCUME~1\ADMINI~1\LOCALS~1\Temp\ccyKCgI6.s 			page 44


1066:.\Generated_Source\PSoC5/USBFS.c ****                 CyDmaChSetInitialTd(USBFS_DmaChan[epNumber], USBFS_DmaTd[epNumber]);
 1383              		.loc 1 1066 0
 1384 0114 FA7B     		ldrb	r2, [r7, #15]	@ zero_extendqisi2
 1385 0116 40F20003 		movw	r3, #:lower16:USBFS_DmaChan
 1386 011a C0F20003 		movt	r3, #:upper16:USBFS_DmaChan
 1387 011e 9A5C     		ldrb	r2, [r3, r2]	@ zero_extendqisi2
 1388 0120 F97B     		ldrb	r1, [r7, #15]	@ zero_extendqisi2
 1389 0122 40F20003 		movw	r3, #:lower16:USBFS_DmaTd
 1390 0126 C0F20003 		movt	r3, #:upper16:USBFS_DmaTd
 1391 012a 5B5C     		ldrb	r3, [r3, r1]	@ zero_extendqisi2
 1392 012c 1046     		mov	r0, r2
 1393 012e 1946     		mov	r1, r3
 1394 0130 FFF7FEFF 		bl	CyDmaChSetInitialTd
1067:.\Generated_Source\PSoC5/USBFS.c ****                 CyDmaChEnable(USBFS_DmaChan[epNumber], 1);
 1395              		.loc 1 1067 0
 1396 0134 FA7B     		ldrb	r2, [r7, #15]	@ zero_extendqisi2
 1397 0136 40F20003 		movw	r3, #:lower16:USBFS_DmaChan
 1398 013a C0F20003 		movt	r3, #:upper16:USBFS_DmaChan
 1399 013e 9B5C     		ldrb	r3, [r3, r2]	@ zero_extendqisi2
 1400 0140 1846     		mov	r0, r3
 1401 0142 4FF00101 		mov	r1, #1
 1402 0146 FFF7FEFF 		bl	CyDmaChEnable
 1403 014a 39E0     		b	.L62
 1404              	.L60:
1068:.\Generated_Source\PSoC5/USBFS.c ****             }
1069:.\Generated_Source\PSoC5/USBFS.c ****             else
1070:.\Generated_Source\PSoC5/USBFS.c ****             {
1071:.\Generated_Source\PSoC5/USBFS.c ****                 USBFS_EP[epNumber].apiEpState = USBFS_NO_EVENT_PENDING;
 1405              		.loc 1 1071 0
 1406 014c F97B     		ldrb	r1, [r7, #15]	@ zero_extendqisi2
 1407 014e 40F20002 		movw	r2, #:lower16:USBFS_EP
 1408 0152 C0F20002 		movt	r2, #:upper16:USBFS_EP
 1409 0156 0B46     		mov	r3, r1
 1410 0158 4FEA4303 		lsl	r3, r3, #1
 1411 015c 0B44     		add	r3, r3, r1
 1412 015e 4FEA8303 		lsl	r3, r3, #2
 1413 0162 1344     		add	r3, r3, r2
 1414 0164 4FF00002 		mov	r2, #0
 1415 0168 5A70     		strb	r2, [r3, #1]
1072:.\Generated_Source\PSoC5/USBFS.c ****                 if(length > 0)
 1416              		.loc 1 1072 0
 1417 016a FB88     		ldrh	r3, [r7, #6]
 1418 016c 002B     		cmp	r3, #0
 1419 016e 12D0     		beq	.L61
1073:.\Generated_Source\PSoC5/USBFS.c ****                 {
1074:.\Generated_Source\PSoC5/USBFS.c ****                     /* Set Data ready status, This will generate DMA request */
1075:.\Generated_Source\PSoC5/USBFS.c ****                     USBFS_ARB_EP1_CFG_PTR[ri] |= USBFS_ARB_EPX_CFG_IN_DATA_RDY;
 1420              		.loc 1 1075 0
 1421 0170 FA7C     		ldrb	r2, [r7, #19]	@ zero_extendqisi2
 1422 0172 46F28003 		movw	r3, #:lower16:1073766528
 1423 0176 C4F20003 		movt	r3, #:upper16:1073766528
 1424 017a 1344     		add	r3, r2, r3
 1425 017c F97C     		ldrb	r1, [r7, #19]	@ zero_extendqisi2
 1426 017e 46F28002 		movw	r2, #:lower16:1073766528
 1427 0182 C4F20002 		movt	r2, #:upper16:1073766528
 1428 0186 0A44     		add	r2, r1, r2
 1429 0188 1278     		ldrb	r2, [r2, #0]
ARM GAS  C:\DOCUME~1\ADMINI~1\LOCALS~1\Temp\ccyKCgI6.s 			page 45


 1430 018a D2B2     		uxtb	r2, r2
 1431 018c 42F00102 		orr	r2, r2, #1
 1432 0190 D2B2     		uxtb	r2, r2
 1433 0192 1A70     		strb	r2, [r3, #0]
 1434 0194 14E0     		b	.L62
 1435              	.L61:
1076:.\Generated_Source\PSoC5/USBFS.c ****                     /* Mode register will be writen in arb ISR(In Buffer Full) after first DMA tran
1077:.\Generated_Source\PSoC5/USBFS.c ****                 }
1078:.\Generated_Source\PSoC5/USBFS.c ****                 else
1079:.\Generated_Source\PSoC5/USBFS.c ****                 {
1080:.\Generated_Source\PSoC5/USBFS.c ****                     /* When zero-length packet - write the Mode register directly */
1081:.\Generated_Source\PSoC5/USBFS.c ****                     USBFS_SIE_EP1_CR0_PTR[ri] = USBFS_EP[epNumber].epMode;
 1436              		.loc 1 1081 0
 1437 0196 FA7C     		ldrb	r2, [r7, #19]	@ zero_extendqisi2
 1438 0198 46F20E03 		movw	r3, #:lower16:1073766414
 1439 019c C4F20003 		movt	r3, #:upper16:1073766414
 1440 01a0 1344     		add	r3, r2, r3
 1441 01a2 F87B     		ldrb	r0, [r7, #15]	@ zero_extendqisi2
 1442 01a4 40F20001 		movw	r1, #:lower16:USBFS_EP
 1443 01a8 C0F20001 		movt	r1, #:upper16:USBFS_EP
 1444 01ac 0246     		mov	r2, r0
 1445 01ae 4FEA4202 		lsl	r2, r2, #1
 1446 01b2 0244     		add	r2, r2, r0
 1447 01b4 4FEA8202 		lsl	r2, r2, #2
 1448 01b8 0A44     		add	r2, r2, r1
 1449 01ba 5279     		ldrb	r2, [r2, #5]
 1450 01bc D2B2     		uxtb	r2, r2
 1451 01be 1A70     		strb	r2, [r3, #0]
 1452              	.L62:
1082:.\Generated_Source\PSoC5/USBFS.c ****                 }
1083:.\Generated_Source\PSoC5/USBFS.c ****             }
1084:.\Generated_Source\PSoC5/USBFS.c ****         #endif /* End USBFS_EP_MM == USBFS__EP_DMAAUTO */
1085:.\Generated_Source\PSoC5/USBFS.c **** 
1086:.\Generated_Source\PSoC5/USBFS.c ****     }
1087:.\Generated_Source\PSoC5/USBFS.c **** }
 1453              		.loc 1 1087 0
 1454 01c0 07F11807 		add	r7, r7, #24
 1455 01c4 BD46     		mov	sp, r7
 1456 01c6 80BD     		pop	{r7, pc}
 1457              		.cfi_endproc
 1458              	.LFE13:
 1459              		.size	USBFS_LoadInEP, .-USBFS_LoadInEP
 1460              		.section	.text.USBFS_ReadOutEP,"ax",%progbits
 1461              		.align	2
 1462              		.global	USBFS_ReadOutEP
 1463              		.thumb
 1464              		.thumb_func
 1465              		.type	USBFS_ReadOutEP, %function
 1466              	USBFS_ReadOutEP:
 1467              	.LFB14:
1088:.\Generated_Source\PSoC5/USBFS.c **** 
1089:.\Generated_Source\PSoC5/USBFS.c **** 
1090:.\Generated_Source\PSoC5/USBFS.c **** /*******************************************************************************
1091:.\Generated_Source\PSoC5/USBFS.c **** * Function Name: USBFS_ReadOutEP
1092:.\Generated_Source\PSoC5/USBFS.c **** ********************************************************************************
1093:.\Generated_Source\PSoC5/USBFS.c **** *
1094:.\Generated_Source\PSoC5/USBFS.c **** * Summary:
ARM GAS  C:\DOCUME~1\ADMINI~1\LOCALS~1\Temp\ccyKCgI6.s 			page 46


1095:.\Generated_Source\PSoC5/USBFS.c **** *  Read data from an endpoint.  The application must call
1096:.\Generated_Source\PSoC5/USBFS.c **** *  USBFS_GetEPState to see if an event is pending.
1097:.\Generated_Source\PSoC5/USBFS.c **** *
1098:.\Generated_Source\PSoC5/USBFS.c **** * Parameters:
1099:.\Generated_Source\PSoC5/USBFS.c **** *  epNumber: Contains the data endpoint number.
1100:.\Generated_Source\PSoC5/USBFS.c **** *            Valid values are between 1 and 8.
1101:.\Generated_Source\PSoC5/USBFS.c **** *  pData: A pointer to a data array from which the data for the endpoint space
1102:.\Generated_Source\PSoC5/USBFS.c **** *         is loaded.
1103:.\Generated_Source\PSoC5/USBFS.c **** *  length: The number of bytes to transfer from the USB Out enpoint and loads
1104:.\Generated_Source\PSoC5/USBFS.c **** *          it into data array. Valid values are between 0 and 1023. The function
1105:.\Generated_Source\PSoC5/USBFS.c **** *          moves fewer than the requested number of bytes if the host sends
1106:.\Generated_Source\PSoC5/USBFS.c **** *          fewer bytes than requested.
1107:.\Generated_Source\PSoC5/USBFS.c **** *
1108:.\Generated_Source\PSoC5/USBFS.c **** * Returns:
1109:.\Generated_Source\PSoC5/USBFS.c **** *  Number of bytes received, 0 for an invalid endpoint.
1110:.\Generated_Source\PSoC5/USBFS.c **** *
1111:.\Generated_Source\PSoC5/USBFS.c **** * Reentrant:
1112:.\Generated_Source\PSoC5/USBFS.c **** *  No.
1113:.\Generated_Source\PSoC5/USBFS.c **** *
1114:.\Generated_Source\PSoC5/USBFS.c **** *******************************************************************************/
1115:.\Generated_Source\PSoC5/USBFS.c **** uint16 USBFS_ReadOutEP(uint8 epNumber, uint8 *pData, uint16 length)
1116:.\Generated_Source\PSoC5/USBFS.c ****                                                                         
1117:.\Generated_Source\PSoC5/USBFS.c **** {
 1468              		.loc 1 1117 0
 1469              		.cfi_startproc
 1470              		@ args = 0, pretend = 0, frame = 24
 1471              		@ frame_needed = 1, uses_anonymous_args = 0
 1472 0000 80B5     		push	{r7, lr}
 1473              	.LCFI40:
 1474              		.cfi_def_cfa_offset 8
 1475 0002 86B0     		sub	sp, sp, #24
 1476              	.LCFI41:
 1477              		.cfi_def_cfa_offset 32
 1478 0004 00AF     		add	r7, sp, #0
 1479              		.cfi_offset 14, -4
 1480              		.cfi_offset 7, -8
 1481              	.LCFI42:
 1482              		.cfi_def_cfa_register 7
 1483 0006 B960     		str	r1, [r7, #8]
 1484 0008 1346     		mov	r3, r2
 1485 000a 0246     		mov	r2, r0
 1486 000c FA73     		strb	r2, [r7, #15]
 1487 000e FB80     		strh	r3, [r7, #6]	@ movhi
1118:.\Generated_Source\PSoC5/USBFS.c ****     uint8 ri;
1119:.\Generated_Source\PSoC5/USBFS.c ****     uint8 *p;
1120:.\Generated_Source\PSoC5/USBFS.c ****     #if(USBFS_EP_MM == USBFS__EP_MANUAL)
1121:.\Generated_Source\PSoC5/USBFS.c ****         uint16 i;
1122:.\Generated_Source\PSoC5/USBFS.c ****     #endif /* End USBFS_EP_MM == USBFS__EP_MANUAL */
1123:.\Generated_Source\PSoC5/USBFS.c ****     #if(USBFS_EP_MM != USBFS__EP_DMAAUTO)
1124:.\Generated_Source\PSoC5/USBFS.c ****         uint16 xferCount;
1125:.\Generated_Source\PSoC5/USBFS.c ****     #endif /* End USBFS_EP_MM != $INSTANCE_NAME`__EP_DMAAUTO */
1126:.\Generated_Source\PSoC5/USBFS.c **** 
1127:.\Generated_Source\PSoC5/USBFS.c ****     if((epNumber > USBFS_EP0) && (epNumber < USBFS_MAX_EP) && (pData != NULL))
 1488              		.loc 1 1127 0
 1489 0010 FB7B     		ldrb	r3, [r7, #15]	@ zero_extendqisi2
 1490 0012 002B     		cmp	r3, #0
 1491 0014 71D0     		beq	.L64
ARM GAS  C:\DOCUME~1\ADMINI~1\LOCALS~1\Temp\ccyKCgI6.s 			page 47


 1492 0016 FB7B     		ldrb	r3, [r7, #15]	@ zero_extendqisi2
 1493 0018 082B     		cmp	r3, #8
 1494 001a 6ED8     		bhi	.L64
 1495 001c BB68     		ldr	r3, [r7, #8]
 1496 001e 002B     		cmp	r3, #0
 1497 0020 6BD0     		beq	.L64
1128:.\Generated_Source\PSoC5/USBFS.c ****     {
1129:.\Generated_Source\PSoC5/USBFS.c ****         ri = ((epNumber - USBFS_EP1) << USBFS_EPX_CNTX_ADDR_SHIFT);
 1498              		.loc 1 1129 0
 1499 0022 FB7B     		ldrb	r3, [r7, #15]
 1500 0024 03F1FF33 		add	r3, r3, #-1
 1501 0028 DBB2     		uxtb	r3, r3
 1502 002a 4FEA0313 		lsl	r3, r3, #4
 1503 002e FB74     		strb	r3, [r7, #19]
1130:.\Generated_Source\PSoC5/USBFS.c ****         p = (uint8 *)&USBFS_ARB_RW1_DR_PTR[ri];
 1504              		.loc 1 1130 0
 1505 0030 FA7C     		ldrb	r2, [r7, #19]	@ zero_extendqisi2
 1506 0032 46F28803 		movw	r3, #:lower16:1073766536
 1507 0036 C4F20003 		movt	r3, #:upper16:1073766536
 1508 003a 1344     		add	r3, r2, r3
 1509 003c 7B61     		str	r3, [r7, #20]
1131:.\Generated_Source\PSoC5/USBFS.c **** 
1132:.\Generated_Source\PSoC5/USBFS.c ****         #if(USBFS_EP_MM != USBFS__EP_DMAAUTO)
1133:.\Generated_Source\PSoC5/USBFS.c ****             /* Determine which is smaller the requested data or the available data */
1134:.\Generated_Source\PSoC5/USBFS.c ****             xferCount = USBFS_GetEPCount(epNumber);
1135:.\Generated_Source\PSoC5/USBFS.c ****             if (length > xferCount)
1136:.\Generated_Source\PSoC5/USBFS.c ****             {
1137:.\Generated_Source\PSoC5/USBFS.c ****                 length = xferCount;
1138:.\Generated_Source\PSoC5/USBFS.c ****             }
1139:.\Generated_Source\PSoC5/USBFS.c ****         #endif /* End USBFS_EP_MM != USBFS__EP_DMAAUTO */
1140:.\Generated_Source\PSoC5/USBFS.c **** 
1141:.\Generated_Source\PSoC5/USBFS.c ****         #if(USBFS_EP_MM == USBFS__EP_MANUAL)
1142:.\Generated_Source\PSoC5/USBFS.c ****             /* Copy the data using the arbiter data register */
1143:.\Generated_Source\PSoC5/USBFS.c ****             for (i = 0u; i < length; i++)
1144:.\Generated_Source\PSoC5/USBFS.c ****             {
1145:.\Generated_Source\PSoC5/USBFS.c ****                 pData[i] = CY_GET_REG8(p);
1146:.\Generated_Source\PSoC5/USBFS.c ****             }
1147:.\Generated_Source\PSoC5/USBFS.c **** 
1148:.\Generated_Source\PSoC5/USBFS.c ****             /* (re)arming of OUT endpoint */
1149:.\Generated_Source\PSoC5/USBFS.c ****             USBFS_EnableOutEP(epNumber);
1150:.\Generated_Source\PSoC5/USBFS.c ****         #else
1151:.\Generated_Source\PSoC5/USBFS.c ****             /*Init DMA if it was not initialized */
1152:.\Generated_Source\PSoC5/USBFS.c ****             if(USBFS_DmaTd[epNumber] == DMA_INVALID_TD)
 1510              		.loc 1 1152 0
 1511 003e FA7B     		ldrb	r2, [r7, #15]	@ zero_extendqisi2
 1512 0040 40F20003 		movw	r3, #:lower16:USBFS_DmaTd
 1513 0044 C0F20003 		movt	r3, #:upper16:USBFS_DmaTd
 1514 0048 9B5C     		ldrb	r3, [r3, r2]	@ zero_extendqisi2
 1515 004a FF2B     		cmp	r3, #255
 1516 004c 04D1     		bne	.L65
1153:.\Generated_Source\PSoC5/USBFS.c ****             {
1154:.\Generated_Source\PSoC5/USBFS.c ****                 USBFS_InitEP_DMA(epNumber, pData);
 1517              		.loc 1 1154 0
 1518 004e FB7B     		ldrb	r3, [r7, #15]	@ zero_extendqisi2
 1519 0050 1846     		mov	r0, r3
 1520 0052 B968     		ldr	r1, [r7, #8]
 1521 0054 FFF7FEFF 		bl	USBFS_InitEP_DMA
ARM GAS  C:\DOCUME~1\ADMINI~1\LOCALS~1\Temp\ccyKCgI6.s 			page 48


 1522              	.L65:
1155:.\Generated_Source\PSoC5/USBFS.c ****             }
1156:.\Generated_Source\PSoC5/USBFS.c ****         #endif /* End USBFS_EP_MM == USBFS__EP_MANUAL */
1157:.\Generated_Source\PSoC5/USBFS.c **** 
1158:.\Generated_Source\PSoC5/USBFS.c ****         #if(USBFS_EP_MM == USBFS__EP_DMAMANUAL)
1159:.\Generated_Source\PSoC5/USBFS.c ****             /* Enable DMA in mode2 for transfering data */
1160:.\Generated_Source\PSoC5/USBFS.c ****             CyDmaChDisable(USBFS_DmaChan[epNumber]);
1161:.\Generated_Source\PSoC5/USBFS.c ****             CyDmaTdSetConfiguration(USBFS_DmaTd[epNumber], length, DMA_INVALID_TD,
1162:.\Generated_Source\PSoC5/USBFS.c ****                                                                                 TD_TERMIN_EN | TD_I
1163:.\Generated_Source\PSoC5/USBFS.c ****             CyDmaTdSetAddress(USBFS_DmaTd[epNumber],  LO16((uint32)p), LO16((uint32)pData));
1164:.\Generated_Source\PSoC5/USBFS.c ****             /* Enable the DMA */
1165:.\Generated_Source\PSoC5/USBFS.c ****             CyDmaChSetInitialTd(USBFS_DmaChan[epNumber], USBFS_DmaTd[epNumber]);
1166:.\Generated_Source\PSoC5/USBFS.c ****             CyDmaChEnable(USBFS_DmaChan[epNumber], 1);
1167:.\Generated_Source\PSoC5/USBFS.c **** 
1168:.\Generated_Source\PSoC5/USBFS.c ****             /* Generate DMA request */
1169:.\Generated_Source\PSoC5/USBFS.c ****             USBFS_ARB_EP1_CFG_PTR[ri] |= USBFS_ARB_EPX_CFG_DMA_REQ;
1170:.\Generated_Source\PSoC5/USBFS.c ****             USBFS_ARB_EP1_CFG_PTR[ri] &= ~USBFS_ARB_EPX_CFG_DMA_REQ;
1171:.\Generated_Source\PSoC5/USBFS.c ****             /* Out EP will be (re)armed in arb ISR after transfer complete */
1172:.\Generated_Source\PSoC5/USBFS.c ****         #endif /* End USBFS_EP_MM == USBFS__EP_DMAMANUAL */
1173:.\Generated_Source\PSoC5/USBFS.c **** 
1174:.\Generated_Source\PSoC5/USBFS.c ****         #if(USBFS_EP_MM == USBFS__EP_DMAAUTO)
1175:.\Generated_Source\PSoC5/USBFS.c ****             /* Enable DMA in mode3 for transfering data */
1176:.\Generated_Source\PSoC5/USBFS.c ****             CyDmaChDisable(USBFS_DmaChan[epNumber]);
 1523              		.loc 1 1176 0
 1524 0058 FA7B     		ldrb	r2, [r7, #15]	@ zero_extendqisi2
 1525 005a 40F20003 		movw	r3, #:lower16:USBFS_DmaChan
 1526 005e C0F20003 		movt	r3, #:upper16:USBFS_DmaChan
 1527 0062 9B5C     		ldrb	r3, [r3, r2]	@ zero_extendqisi2
 1528 0064 1846     		mov	r0, r3
 1529 0066 FFF7FEFF 		bl	CyDmaChDisable
1177:.\Generated_Source\PSoC5/USBFS.c ****             CyDmaTdSetConfiguration(USBFS_DmaTd[epNumber], length, USBFS_DmaTd[epNumber],
 1530              		.loc 1 1177 0
 1531 006a FA7B     		ldrb	r2, [r7, #15]	@ zero_extendqisi2
 1532 006c 40F20003 		movw	r3, #:lower16:USBFS_DmaTd
 1533 0070 C0F20003 		movt	r3, #:upper16:USBFS_DmaTd
 1534 0074 995C     		ldrb	r1, [r3, r2]	@ zero_extendqisi2
 1535 0076 FA7B     		ldrb	r2, [r7, #15]	@ zero_extendqisi2
 1536 0078 40F20003 		movw	r3, #:lower16:USBFS_DmaTd
 1537 007c C0F20003 		movt	r3, #:upper16:USBFS_DmaTd
 1538 0080 9B5C     		ldrb	r3, [r3, r2]	@ zero_extendqisi2
 1539 0082 FA88     		ldrh	r2, [r7, #6]
 1540 0084 0846     		mov	r0, r1
 1541 0086 1146     		mov	r1, r2
 1542 0088 1A46     		mov	r2, r3
 1543 008a 4FF01203 		mov	r3, #18
 1544 008e FFF7FEFF 		bl	CyDmaTdSetConfiguration
1178:.\Generated_Source\PSoC5/USBFS.c ****                                                                                 TD_TERMIN_EN | TD_I
1179:.\Generated_Source\PSoC5/USBFS.c ****             CyDmaTdSetAddress(USBFS_DmaTd[epNumber],  LO16((uint32)p), LO16((uint32)pData));
 1545              		.loc 1 1179 0
 1546 0092 FA7B     		ldrb	r2, [r7, #15]	@ zero_extendqisi2
 1547 0094 40F20003 		movw	r3, #:lower16:USBFS_DmaTd
 1548 0098 C0F20003 		movt	r3, #:upper16:USBFS_DmaTd
 1549 009c 995C     		ldrb	r1, [r3, r2]	@ zero_extendqisi2
 1550 009e 7B69     		ldr	r3, [r7, #20]
 1551 00a0 9AB2     		uxth	r2, r3
 1552 00a2 BB68     		ldr	r3, [r7, #8]
 1553 00a4 9BB2     		uxth	r3, r3
ARM GAS  C:\DOCUME~1\ADMINI~1\LOCALS~1\Temp\ccyKCgI6.s 			page 49


 1554 00a6 0846     		mov	r0, r1
 1555 00a8 1146     		mov	r1, r2
 1556 00aa 1A46     		mov	r2, r3
 1557 00ac FFF7FEFF 		bl	CyDmaTdSetAddress
1180:.\Generated_Source\PSoC5/USBFS.c **** 
1181:.\Generated_Source\PSoC5/USBFS.c ****             /* Clear Any potential pending DMA requests before starting the DMA channel to transfer
1182:.\Generated_Source\PSoC5/USBFS.c ****             CyDmaClearPendingDrq(USBFS_DmaChan[epNumber]);
 1558              		.loc 1 1182 0
 1559 00b0 FA7B     		ldrb	r2, [r7, #15]	@ zero_extendqisi2
 1560 00b2 40F20003 		movw	r3, #:lower16:USBFS_DmaChan
 1561 00b6 C0F20003 		movt	r3, #:upper16:USBFS_DmaChan
 1562 00ba 9B5C     		ldrb	r3, [r3, r2]	@ zero_extendqisi2
 1563 00bc 1846     		mov	r0, r3
 1564 00be FFF7FEFF 		bl	CyDmaClearPendingDrq
1183:.\Generated_Source\PSoC5/USBFS.c ****             /* Enable the DMA */
1184:.\Generated_Source\PSoC5/USBFS.c ****             CyDmaChSetInitialTd(USBFS_DmaChan[epNumber], USBFS_DmaTd[epNumber]);
 1565              		.loc 1 1184 0
 1566 00c2 FA7B     		ldrb	r2, [r7, #15]	@ zero_extendqisi2
 1567 00c4 40F20003 		movw	r3, #:lower16:USBFS_DmaChan
 1568 00c8 C0F20003 		movt	r3, #:upper16:USBFS_DmaChan
 1569 00cc 9A5C     		ldrb	r2, [r3, r2]	@ zero_extendqisi2
 1570 00ce F97B     		ldrb	r1, [r7, #15]	@ zero_extendqisi2
 1571 00d0 40F20003 		movw	r3, #:lower16:USBFS_DmaTd
 1572 00d4 C0F20003 		movt	r3, #:upper16:USBFS_DmaTd
 1573 00d8 5B5C     		ldrb	r3, [r3, r1]	@ zero_extendqisi2
 1574 00da 1046     		mov	r0, r2
 1575 00dc 1946     		mov	r1, r3
 1576 00de FFF7FEFF 		bl	CyDmaChSetInitialTd
1185:.\Generated_Source\PSoC5/USBFS.c ****             CyDmaChEnable(USBFS_DmaChan[epNumber], 1);
 1577              		.loc 1 1185 0
 1578 00e2 FA7B     		ldrb	r2, [r7, #15]	@ zero_extendqisi2
 1579 00e4 40F20003 		movw	r3, #:lower16:USBFS_DmaChan
 1580 00e8 C0F20003 		movt	r3, #:upper16:USBFS_DmaChan
 1581 00ec 9B5C     		ldrb	r3, [r3, r2]	@ zero_extendqisi2
 1582 00ee 1846     		mov	r0, r3
 1583 00f0 4FF00101 		mov	r1, #1
 1584 00f4 FFF7FEFF 		bl	CyDmaChEnable
 1585              		.loc 1 1127 0
 1586 00f8 02E0     		b	.L66
 1587              	.L64:
1186:.\Generated_Source\PSoC5/USBFS.c ****             /* Out EP will be (re)armed in arb ISR after transfer complete */
1187:.\Generated_Source\PSoC5/USBFS.c ****         #endif /* End USBFS_EP_MM == USBFS__EP_DMAAUTO */
1188:.\Generated_Source\PSoC5/USBFS.c **** 
1189:.\Generated_Source\PSoC5/USBFS.c ****     }
1190:.\Generated_Source\PSoC5/USBFS.c ****     else
1191:.\Generated_Source\PSoC5/USBFS.c ****     {
1192:.\Generated_Source\PSoC5/USBFS.c ****         length = 0;
 1588              		.loc 1 1192 0
 1589 00fa 4FF00003 		mov	r3, #0
 1590 00fe FB80     		strh	r3, [r7, #6]	@ movhi
 1591              	.L66:
1193:.\Generated_Source\PSoC5/USBFS.c ****     }
1194:.\Generated_Source\PSoC5/USBFS.c **** 
1195:.\Generated_Source\PSoC5/USBFS.c ****     return(length);
 1592              		.loc 1 1195 0
 1593 0100 FB88     		ldrh	r3, [r7, #6]
1196:.\Generated_Source\PSoC5/USBFS.c **** }
ARM GAS  C:\DOCUME~1\ADMINI~1\LOCALS~1\Temp\ccyKCgI6.s 			page 50


 1594              		.loc 1 1196 0
 1595 0102 1846     		mov	r0, r3
 1596 0104 07F11807 		add	r7, r7, #24
 1597 0108 BD46     		mov	sp, r7
 1598 010a 80BD     		pop	{r7, pc}
 1599              		.cfi_endproc
 1600              	.LFE14:
 1601              		.size	USBFS_ReadOutEP, .-USBFS_ReadOutEP
 1602              		.section	.text.USBFS_EnableOutEP,"ax",%progbits
 1603              		.align	2
 1604              		.global	USBFS_EnableOutEP
 1605              		.thumb
 1606              		.thumb_func
 1607              		.type	USBFS_EnableOutEP, %function
 1608              	USBFS_EnableOutEP:
 1609              	.LFB15:
1197:.\Generated_Source\PSoC5/USBFS.c **** 
1198:.\Generated_Source\PSoC5/USBFS.c **** 
1199:.\Generated_Source\PSoC5/USBFS.c **** /*******************************************************************************
1200:.\Generated_Source\PSoC5/USBFS.c **** * Function Name: USBFS_EnableOutEP
1201:.\Generated_Source\PSoC5/USBFS.c **** ********************************************************************************
1202:.\Generated_Source\PSoC5/USBFS.c **** *
1203:.\Generated_Source\PSoC5/USBFS.c **** * Summary:
1204:.\Generated_Source\PSoC5/USBFS.c **** *  This function enables an OUT endpoint.  It should not be
1205:.\Generated_Source\PSoC5/USBFS.c **** *  called for an IN endpoint.
1206:.\Generated_Source\PSoC5/USBFS.c **** *
1207:.\Generated_Source\PSoC5/USBFS.c **** * Parameters:
1208:.\Generated_Source\PSoC5/USBFS.c **** *  epNumber: Endpoint Number
1209:.\Generated_Source\PSoC5/USBFS.c **** *            Valid values are between 1 and 8.
1210:.\Generated_Source\PSoC5/USBFS.c **** *
1211:.\Generated_Source\PSoC5/USBFS.c **** * Return:
1212:.\Generated_Source\PSoC5/USBFS.c **** *   None.
1213:.\Generated_Source\PSoC5/USBFS.c **** *
1214:.\Generated_Source\PSoC5/USBFS.c **** * Global variables:
1215:.\Generated_Source\PSoC5/USBFS.c **** *  USBFS_EP[epNumber].apiEpState - set to NO_EVENT_PENDING
1216:.\Generated_Source\PSoC5/USBFS.c **** *
1217:.\Generated_Source\PSoC5/USBFS.c **** * Reentrant:
1218:.\Generated_Source\PSoC5/USBFS.c **** *  No.
1219:.\Generated_Source\PSoC5/USBFS.c **** *
1220:.\Generated_Source\PSoC5/USBFS.c **** *******************************************************************************/
1221:.\Generated_Source\PSoC5/USBFS.c **** void USBFS_EnableOutEP(uint8 epNumber) 
1222:.\Generated_Source\PSoC5/USBFS.c **** {
 1610              		.loc 1 1222 0
 1611              		.cfi_startproc
 1612              		@ args = 0, pretend = 0, frame = 16
 1613              		@ frame_needed = 1, uses_anonymous_args = 0
 1614              		@ link register save eliminated.
 1615 0000 80B4     		push	{r7}
 1616              	.LCFI43:
 1617              		.cfi_def_cfa_offset 4
 1618 0002 85B0     		sub	sp, sp, #20
 1619              	.LCFI44:
 1620              		.cfi_def_cfa_offset 24
 1621 0004 00AF     		add	r7, sp, #0
 1622              		.cfi_offset 7, -4
 1623              	.LCFI45:
 1624              		.cfi_def_cfa_register 7
ARM GAS  C:\DOCUME~1\ADMINI~1\LOCALS~1\Temp\ccyKCgI6.s 			page 51


 1625 0006 0346     		mov	r3, r0
 1626 0008 FB71     		strb	r3, [r7, #7]
1223:.\Generated_Source\PSoC5/USBFS.c ****     uint8 ri;
1224:.\Generated_Source\PSoC5/USBFS.c **** 
1225:.\Generated_Source\PSoC5/USBFS.c ****     if((epNumber > USBFS_EP0) && (epNumber < USBFS_MAX_EP))
 1627              		.loc 1 1225 0
 1628 000a FB79     		ldrb	r3, [r7, #7]	@ zero_extendqisi2
 1629 000c 002B     		cmp	r3, #0
 1630 000e 2DD0     		beq	.L70
 1631 0010 FB79     		ldrb	r3, [r7, #7]	@ zero_extendqisi2
 1632 0012 082B     		cmp	r3, #8
 1633 0014 2AD8     		bhi	.L70
1226:.\Generated_Source\PSoC5/USBFS.c ****     {
1227:.\Generated_Source\PSoC5/USBFS.c ****         ri = ((epNumber - USBFS_EP1) << USBFS_EPX_CNTX_ADDR_SHIFT);
 1634              		.loc 1 1227 0
 1635 0016 FB79     		ldrb	r3, [r7, #7]
 1636 0018 03F1FF33 		add	r3, r3, #-1
 1637 001c DBB2     		uxtb	r3, r3
 1638 001e 4FEA0313 		lsl	r3, r3, #4
 1639 0022 FB73     		strb	r3, [r7, #15]
1228:.\Generated_Source\PSoC5/USBFS.c ****         USBFS_EP[epNumber].apiEpState = USBFS_NO_EVENT_PENDING;
 1640              		.loc 1 1228 0
 1641 0024 F979     		ldrb	r1, [r7, #7]	@ zero_extendqisi2
 1642 0026 40F20002 		movw	r2, #:lower16:USBFS_EP
 1643 002a C0F20002 		movt	r2, #:upper16:USBFS_EP
 1644 002e 0B46     		mov	r3, r1
 1645 0030 4FEA4303 		lsl	r3, r3, #1
 1646 0034 0B44     		add	r3, r3, r1
 1647 0036 4FEA8303 		lsl	r3, r3, #2
 1648 003a 1344     		add	r3, r3, r2
 1649 003c 4FF00002 		mov	r2, #0
 1650 0040 5A70     		strb	r2, [r3, #1]
1229:.\Generated_Source\PSoC5/USBFS.c ****         /* Write the Mode register */
1230:.\Generated_Source\PSoC5/USBFS.c ****         CY_SET_REG8(&USBFS_SIE_EP1_CR0_PTR[ri], USBFS_EP[epNumber].epMode);
 1651              		.loc 1 1230 0
 1652 0042 FA7B     		ldrb	r2, [r7, #15]	@ zero_extendqisi2
 1653 0044 46F20E03 		movw	r3, #:lower16:1073766414
 1654 0048 C4F20003 		movt	r3, #:upper16:1073766414
 1655 004c 1344     		add	r3, r2, r3
 1656 004e F879     		ldrb	r0, [r7, #7]	@ zero_extendqisi2
 1657 0050 40F20001 		movw	r1, #:lower16:USBFS_EP
 1658 0054 C0F20001 		movt	r1, #:upper16:USBFS_EP
 1659 0058 0246     		mov	r2, r0
 1660 005a 4FEA4202 		lsl	r2, r2, #1
 1661 005e 0244     		add	r2, r2, r0
 1662 0060 4FEA8202 		lsl	r2, r2, #2
 1663 0064 0A44     		add	r2, r2, r1
 1664 0066 5279     		ldrb	r2, [r2, #5]
 1665 0068 D2B2     		uxtb	r2, r2
 1666 006a 1A70     		strb	r2, [r3, #0]
 1667              	.L70:
1231:.\Generated_Source\PSoC5/USBFS.c ****     }
1232:.\Generated_Source\PSoC5/USBFS.c **** }
 1668              		.loc 1 1232 0
 1669 006c 07F11407 		add	r7, r7, #20
 1670 0070 BD46     		mov	sp, r7
 1671 0072 80BC     		pop	{r7}
ARM GAS  C:\DOCUME~1\ADMINI~1\LOCALS~1\Temp\ccyKCgI6.s 			page 52


 1672 0074 7047     		bx	lr
 1673              		.cfi_endproc
 1674              	.LFE15:
 1675              		.size	USBFS_EnableOutEP, .-USBFS_EnableOutEP
 1676 0076 00BF     		.section	.text.USBFS_DisableOutEP,"ax",%progbits
 1677              		.align	2
 1678              		.global	USBFS_DisableOutEP
 1679              		.thumb
 1680              		.thumb_func
 1681              		.type	USBFS_DisableOutEP, %function
 1682              	USBFS_DisableOutEP:
 1683              	.LFB16:
1233:.\Generated_Source\PSoC5/USBFS.c **** 
1234:.\Generated_Source\PSoC5/USBFS.c **** 
1235:.\Generated_Source\PSoC5/USBFS.c **** /*******************************************************************************
1236:.\Generated_Source\PSoC5/USBFS.c **** * Function Name: USBFS_DisableOutEP
1237:.\Generated_Source\PSoC5/USBFS.c **** ********************************************************************************
1238:.\Generated_Source\PSoC5/USBFS.c **** *
1239:.\Generated_Source\PSoC5/USBFS.c **** * Summary:
1240:.\Generated_Source\PSoC5/USBFS.c **** *  This function disables an OUT endpoint.  It should not be
1241:.\Generated_Source\PSoC5/USBFS.c **** *  called for an IN endpoint.
1242:.\Generated_Source\PSoC5/USBFS.c **** *
1243:.\Generated_Source\PSoC5/USBFS.c **** * Parameters:
1244:.\Generated_Source\PSoC5/USBFS.c **** *  epNumber: Endpoint Number
1245:.\Generated_Source\PSoC5/USBFS.c **** *            Valid values are between 1 and 8.
1246:.\Generated_Source\PSoC5/USBFS.c **** *
1247:.\Generated_Source\PSoC5/USBFS.c **** * Return:
1248:.\Generated_Source\PSoC5/USBFS.c **** *  None.
1249:.\Generated_Source\PSoC5/USBFS.c **** *
1250:.\Generated_Source\PSoC5/USBFS.c **** *******************************************************************************/
1251:.\Generated_Source\PSoC5/USBFS.c **** void USBFS_DisableOutEP(uint8 epNumber) 
1252:.\Generated_Source\PSoC5/USBFS.c **** {
 1684              		.loc 1 1252 0
 1685              		.cfi_startproc
 1686              		@ args = 0, pretend = 0, frame = 16
 1687              		@ frame_needed = 1, uses_anonymous_args = 0
 1688              		@ link register save eliminated.
 1689 0000 80B4     		push	{r7}
 1690              	.LCFI46:
 1691              		.cfi_def_cfa_offset 4
 1692 0002 85B0     		sub	sp, sp, #20
 1693              	.LCFI47:
 1694              		.cfi_def_cfa_offset 24
 1695 0004 00AF     		add	r7, sp, #0
 1696              		.cfi_offset 7, -4
 1697              	.LCFI48:
 1698              		.cfi_def_cfa_register 7
 1699 0006 0346     		mov	r3, r0
 1700 0008 FB71     		strb	r3, [r7, #7]
1253:.\Generated_Source\PSoC5/USBFS.c ****     uint8 ri ;
1254:.\Generated_Source\PSoC5/USBFS.c **** 
1255:.\Generated_Source\PSoC5/USBFS.c ****     if((epNumber > USBFS_EP0) && (epNumber < USBFS_MAX_EP))
 1701              		.loc 1 1255 0
 1702 000a FB79     		ldrb	r3, [r7, #7]	@ zero_extendqisi2
 1703 000c 002B     		cmp	r3, #0
 1704 000e 12D0     		beq	.L73
 1705 0010 FB79     		ldrb	r3, [r7, #7]	@ zero_extendqisi2
ARM GAS  C:\DOCUME~1\ADMINI~1\LOCALS~1\Temp\ccyKCgI6.s 			page 53


 1706 0012 082B     		cmp	r3, #8
 1707 0014 0FD8     		bhi	.L73
1256:.\Generated_Source\PSoC5/USBFS.c ****     {
1257:.\Generated_Source\PSoC5/USBFS.c ****         ri = ((epNumber - USBFS_EP1) << USBFS_EPX_CNTX_ADDR_SHIFT);
 1708              		.loc 1 1257 0
 1709 0016 FB79     		ldrb	r3, [r7, #7]
 1710 0018 03F1FF33 		add	r3, r3, #-1
 1711 001c DBB2     		uxtb	r3, r3
 1712 001e 4FEA0313 		lsl	r3, r3, #4
 1713 0022 FB73     		strb	r3, [r7, #15]
1258:.\Generated_Source\PSoC5/USBFS.c ****         /* Write the Mode register */
1259:.\Generated_Source\PSoC5/USBFS.c ****         CY_SET_REG8(&USBFS_SIE_EP1_CR0_PTR[ri], USBFS_MODE_NAK_OUT);
 1714              		.loc 1 1259 0
 1715 0024 FA7B     		ldrb	r2, [r7, #15]	@ zero_extendqisi2
 1716 0026 46F20E03 		movw	r3, #:lower16:1073766414
 1717 002a C4F20003 		movt	r3, #:upper16:1073766414
 1718 002e 1344     		add	r3, r2, r3
 1719 0030 4FF00802 		mov	r2, #8
 1720 0034 1A70     		strb	r2, [r3, #0]
 1721              	.L73:
1260:.\Generated_Source\PSoC5/USBFS.c ****     }
1261:.\Generated_Source\PSoC5/USBFS.c **** }
 1722              		.loc 1 1261 0
 1723 0036 07F11407 		add	r7, r7, #20
 1724 003a BD46     		mov	sp, r7
 1725 003c 80BC     		pop	{r7}
 1726 003e 7047     		bx	lr
 1727              		.cfi_endproc
 1728              	.LFE16:
 1729              		.size	USBFS_DisableOutEP, .-USBFS_DisableOutEP
 1730              		.section	.text.USBFS_Force,"ax",%progbits
 1731              		.align	2
 1732              		.global	USBFS_Force
 1733              		.thumb
 1734              		.thumb_func
 1735              		.type	USBFS_Force, %function
 1736              	USBFS_Force:
 1737              	.LFB17:
1262:.\Generated_Source\PSoC5/USBFS.c **** 
1263:.\Generated_Source\PSoC5/USBFS.c **** 
1264:.\Generated_Source\PSoC5/USBFS.c **** /*******************************************************************************
1265:.\Generated_Source\PSoC5/USBFS.c **** * Function Name: USBFS_Force
1266:.\Generated_Source\PSoC5/USBFS.c **** ********************************************************************************
1267:.\Generated_Source\PSoC5/USBFS.c **** *
1268:.\Generated_Source\PSoC5/USBFS.c **** * Summary:
1269:.\Generated_Source\PSoC5/USBFS.c **** *  Forces the bus state
1270:.\Generated_Source\PSoC5/USBFS.c **** *
1271:.\Generated_Source\PSoC5/USBFS.c **** * Parameters:
1272:.\Generated_Source\PSoC5/USBFS.c **** *  bState
1273:.\Generated_Source\PSoC5/USBFS.c **** *    USBFS_FORCE_J
1274:.\Generated_Source\PSoC5/USBFS.c **** *    USBFS_FORCE_K
1275:.\Generated_Source\PSoC5/USBFS.c **** *    USBFS_FORCE_SE0
1276:.\Generated_Source\PSoC5/USBFS.c **** *    USBFS_FORCE_NONE
1277:.\Generated_Source\PSoC5/USBFS.c **** *
1278:.\Generated_Source\PSoC5/USBFS.c **** * Return:
1279:.\Generated_Source\PSoC5/USBFS.c **** *  None.
1280:.\Generated_Source\PSoC5/USBFS.c **** *
ARM GAS  C:\DOCUME~1\ADMINI~1\LOCALS~1\Temp\ccyKCgI6.s 			page 54


1281:.\Generated_Source\PSoC5/USBFS.c **** *******************************************************************************/
1282:.\Generated_Source\PSoC5/USBFS.c **** void USBFS_Force(uint8 bState) 
1283:.\Generated_Source\PSoC5/USBFS.c **** {
 1738              		.loc 1 1283 0
 1739              		.cfi_startproc
 1740              		@ args = 0, pretend = 0, frame = 8
 1741              		@ frame_needed = 1, uses_anonymous_args = 0
 1742              		@ link register save eliminated.
 1743 0000 80B4     		push	{r7}
 1744              	.LCFI49:
 1745              		.cfi_def_cfa_offset 4
 1746 0002 83B0     		sub	sp, sp, #12
 1747              	.LCFI50:
 1748              		.cfi_def_cfa_offset 16
 1749 0004 00AF     		add	r7, sp, #0
 1750              		.cfi_offset 7, -4
 1751              	.LCFI51:
 1752              		.cfi_def_cfa_register 7
 1753 0006 0346     		mov	r3, r0
 1754 0008 FB71     		strb	r3, [r7, #7]
1284:.\Generated_Source\PSoC5/USBFS.c ****     CY_SET_REG8(USBFS_USBIO_CR0_PTR, bState);
 1755              		.loc 1 1284 0
 1756 000a 46F21003 		movw	r3, #:lower16:1073766416
 1757 000e C4F20003 		movt	r3, #:upper16:1073766416
 1758 0012 FA79     		ldrb	r2, [r7, #7]
 1759 0014 1A70     		strb	r2, [r3, #0]
1285:.\Generated_Source\PSoC5/USBFS.c **** }
 1760              		.loc 1 1285 0
 1761 0016 07F10C07 		add	r7, r7, #12
 1762 001a BD46     		mov	sp, r7
 1763 001c 80BC     		pop	{r7}
 1764 001e 7047     		bx	lr
 1765              		.cfi_endproc
 1766              	.LFE17:
 1767              		.size	USBFS_Force, .-USBFS_Force
 1768              		.section	.text.USBFS_GetEPAckState,"ax",%progbits
 1769              		.align	2
 1770              		.global	USBFS_GetEPAckState
 1771              		.thumb
 1772              		.thumb_func
 1773              		.type	USBFS_GetEPAckState, %function
 1774              	USBFS_GetEPAckState:
 1775              	.LFB18:
1286:.\Generated_Source\PSoC5/USBFS.c **** 
1287:.\Generated_Source\PSoC5/USBFS.c **** 
1288:.\Generated_Source\PSoC5/USBFS.c **** /*******************************************************************************
1289:.\Generated_Source\PSoC5/USBFS.c **** * Function Name: USBFS_GetEPAckState
1290:.\Generated_Source\PSoC5/USBFS.c **** ********************************************************************************
1291:.\Generated_Source\PSoC5/USBFS.c **** *
1292:.\Generated_Source\PSoC5/USBFS.c **** * Summary:
1293:.\Generated_Source\PSoC5/USBFS.c **** *  Returns the ACK of the CR0 Register (ACKD)
1294:.\Generated_Source\PSoC5/USBFS.c **** *
1295:.\Generated_Source\PSoC5/USBFS.c **** * Parameters:
1296:.\Generated_Source\PSoC5/USBFS.c **** *  epNumber: Endpoint Number
1297:.\Generated_Source\PSoC5/USBFS.c **** *            Valid values are between 1 and 8.
1298:.\Generated_Source\PSoC5/USBFS.c **** *
1299:.\Generated_Source\PSoC5/USBFS.c **** * Returns
ARM GAS  C:\DOCUME~1\ADMINI~1\LOCALS~1\Temp\ccyKCgI6.s 			page 55


1300:.\Generated_Source\PSoC5/USBFS.c **** *  0 if nothing has been ACKD, non-=zero something has been ACKD
1301:.\Generated_Source\PSoC5/USBFS.c **** *
1302:.\Generated_Source\PSoC5/USBFS.c **** *******************************************************************************/
1303:.\Generated_Source\PSoC5/USBFS.c **** uint8 USBFS_GetEPAckState(uint8 epNumber) 
1304:.\Generated_Source\PSoC5/USBFS.c **** {
 1776              		.loc 1 1304 0
 1777              		.cfi_startproc
 1778              		@ args = 0, pretend = 0, frame = 16
 1779              		@ frame_needed = 1, uses_anonymous_args = 0
 1780              		@ link register save eliminated.
 1781 0000 80B4     		push	{r7}
 1782              	.LCFI52:
 1783              		.cfi_def_cfa_offset 4
 1784 0002 85B0     		sub	sp, sp, #20
 1785              	.LCFI53:
 1786              		.cfi_def_cfa_offset 24
 1787 0004 00AF     		add	r7, sp, #0
 1788              		.cfi_offset 7, -4
 1789              	.LCFI54:
 1790              		.cfi_def_cfa_register 7
 1791 0006 0346     		mov	r3, r0
 1792 0008 FB71     		strb	r3, [r7, #7]
1305:.\Generated_Source\PSoC5/USBFS.c ****     uint8 ri;
1306:.\Generated_Source\PSoC5/USBFS.c ****     uint8 cr = 0;
 1793              		.loc 1 1306 0
 1794 000a 4FF00003 		mov	r3, #0
 1795 000e FB73     		strb	r3, [r7, #15]
1307:.\Generated_Source\PSoC5/USBFS.c **** 
1308:.\Generated_Source\PSoC5/USBFS.c ****     if((epNumber > USBFS_EP0) && (epNumber < USBFS_MAX_EP))
 1796              		.loc 1 1308 0
 1797 0010 FB79     		ldrb	r3, [r7, #7]	@ zero_extendqisi2
 1798 0012 002B     		cmp	r3, #0
 1799 0014 14D0     		beq	.L77
 1800 0016 FB79     		ldrb	r3, [r7, #7]	@ zero_extendqisi2
 1801 0018 082B     		cmp	r3, #8
 1802 001a 11D8     		bhi	.L77
1309:.\Generated_Source\PSoC5/USBFS.c ****     {
1310:.\Generated_Source\PSoC5/USBFS.c ****         ri = ((epNumber - USBFS_EP1) << USBFS_EPX_CNTX_ADDR_SHIFT);
 1803              		.loc 1 1310 0
 1804 001c FB79     		ldrb	r3, [r7, #7]
 1805 001e 03F1FF33 		add	r3, r3, #-1
 1806 0022 DBB2     		uxtb	r3, r3
 1807 0024 4FEA0313 		lsl	r3, r3, #4
 1808 0028 BB73     		strb	r3, [r7, #14]
1311:.\Generated_Source\PSoC5/USBFS.c ****         cr = CY_GET_REG8(&USBFS_SIE_EP1_CR0_PTR[ri]) & USBFS_MODE_ACKD;
 1809              		.loc 1 1311 0
 1810 002a BA7B     		ldrb	r2, [r7, #14]	@ zero_extendqisi2
 1811 002c 46F20E03 		movw	r3, #:lower16:1073766414
 1812 0030 C4F20003 		movt	r3, #:upper16:1073766414
 1813 0034 1344     		add	r3, r2, r3
 1814 0036 1B78     		ldrb	r3, [r3, #0]
 1815 0038 DBB2     		uxtb	r3, r3
 1816 003a 03F01003 		and	r3, r3, #16
 1817 003e FB73     		strb	r3, [r7, #15]
 1818              	.L77:
1312:.\Generated_Source\PSoC5/USBFS.c ****     }
1313:.\Generated_Source\PSoC5/USBFS.c **** 
ARM GAS  C:\DOCUME~1\ADMINI~1\LOCALS~1\Temp\ccyKCgI6.s 			page 56


1314:.\Generated_Source\PSoC5/USBFS.c ****     return(cr);
 1819              		.loc 1 1314 0
 1820 0040 FB7B     		ldrb	r3, [r7, #15]	@ zero_extendqisi2
1315:.\Generated_Source\PSoC5/USBFS.c **** }
 1821              		.loc 1 1315 0
 1822 0042 1846     		mov	r0, r3
 1823 0044 07F11407 		add	r7, r7, #20
 1824 0048 BD46     		mov	sp, r7
 1825 004a 80BC     		pop	{r7}
 1826 004c 7047     		bx	lr
 1827              		.cfi_endproc
 1828              	.LFE18:
 1829              		.size	USBFS_GetEPAckState, .-USBFS_GetEPAckState
 1830 004e 00BF     		.section	.text.USBFS_SetPowerStatus,"ax",%progbits
 1831              		.align	2
 1832              		.global	USBFS_SetPowerStatus
 1833              		.thumb
 1834              		.thumb_func
 1835              		.type	USBFS_SetPowerStatus, %function
 1836              	USBFS_SetPowerStatus:
 1837              	.LFB19:
1316:.\Generated_Source\PSoC5/USBFS.c **** 
1317:.\Generated_Source\PSoC5/USBFS.c **** 
1318:.\Generated_Source\PSoC5/USBFS.c **** /*******************************************************************************
1319:.\Generated_Source\PSoC5/USBFS.c **** * Function Name: USBFS_SetPowerStatus
1320:.\Generated_Source\PSoC5/USBFS.c **** ********************************************************************************
1321:.\Generated_Source\PSoC5/USBFS.c **** *
1322:.\Generated_Source\PSoC5/USBFS.c **** * Summary:
1323:.\Generated_Source\PSoC5/USBFS.c **** *  Sets the device power status for reporting in the Get Device Status
1324:.\Generated_Source\PSoC5/USBFS.c **** *  request
1325:.\Generated_Source\PSoC5/USBFS.c **** *
1326:.\Generated_Source\PSoC5/USBFS.c **** * Parameters:
1327:.\Generated_Source\PSoC5/USBFS.c **** *  powerStatus: USBFS_DEVICE_STATUS_BUS_POWERED(0) - Bus Powered,
1328:.\Generated_Source\PSoC5/USBFS.c **** *               USBFS_DEVICE_STATUS_SELF_POWERED(1) - Self Powered
1329:.\Generated_Source\PSoC5/USBFS.c **** *
1330:.\Generated_Source\PSoC5/USBFS.c **** * Return:
1331:.\Generated_Source\PSoC5/USBFS.c **** *   None.
1332:.\Generated_Source\PSoC5/USBFS.c **** *
1333:.\Generated_Source\PSoC5/USBFS.c **** * Global variables:
1334:.\Generated_Source\PSoC5/USBFS.c **** *  USBFS_deviceStatus - set power status
1335:.\Generated_Source\PSoC5/USBFS.c **** *
1336:.\Generated_Source\PSoC5/USBFS.c **** * Reentrant:
1337:.\Generated_Source\PSoC5/USBFS.c **** *  No.
1338:.\Generated_Source\PSoC5/USBFS.c **** *
1339:.\Generated_Source\PSoC5/USBFS.c **** *******************************************************************************/
1340:.\Generated_Source\PSoC5/USBFS.c **** void USBFS_SetPowerStatus(uint8 powerStatus) 
1341:.\Generated_Source\PSoC5/USBFS.c **** {
 1838              		.loc 1 1341 0
 1839              		.cfi_startproc
 1840              		@ args = 0, pretend = 0, frame = 8
 1841              		@ frame_needed = 1, uses_anonymous_args = 0
 1842              		@ link register save eliminated.
 1843 0000 80B4     		push	{r7}
 1844              	.LCFI55:
 1845              		.cfi_def_cfa_offset 4
 1846 0002 83B0     		sub	sp, sp, #12
 1847              	.LCFI56:
ARM GAS  C:\DOCUME~1\ADMINI~1\LOCALS~1\Temp\ccyKCgI6.s 			page 57


 1848              		.cfi_def_cfa_offset 16
 1849 0004 00AF     		add	r7, sp, #0
 1850              		.cfi_offset 7, -4
 1851              	.LCFI57:
 1852              		.cfi_def_cfa_register 7
 1853 0006 0346     		mov	r3, r0
 1854 0008 FB71     		strb	r3, [r7, #7]
1342:.\Generated_Source\PSoC5/USBFS.c ****     if (powerStatus != USBFS_DEVICE_STATUS_BUS_POWERED)
 1855              		.loc 1 1342 0
 1856 000a FB79     		ldrb	r3, [r7, #7]	@ zero_extendqisi2
 1857 000c 002B     		cmp	r3, #0
 1858 000e 0ED0     		beq	.L80
1343:.\Generated_Source\PSoC5/USBFS.c ****     {
1344:.\Generated_Source\PSoC5/USBFS.c ****         USBFS_deviceStatus |=  USBFS_DEVICE_STATUS_SELF_POWERED;
 1859              		.loc 1 1344 0
 1860 0010 40F20003 		movw	r3, #:lower16:USBFS_deviceStatus
 1861 0014 C0F20003 		movt	r3, #:upper16:USBFS_deviceStatus
 1862 0018 1B78     		ldrb	r3, [r3, #0]
 1863 001a DBB2     		uxtb	r3, r3
 1864 001c 43F00103 		orr	r3, r3, #1
 1865 0020 DAB2     		uxtb	r2, r3
 1866 0022 40F20003 		movw	r3, #:lower16:USBFS_deviceStatus
 1867 0026 C0F20003 		movt	r3, #:upper16:USBFS_deviceStatus
 1868 002a 1A70     		strb	r2, [r3, #0]
 1869 002c 0DE0     		b	.L82
 1870              	.L80:
1345:.\Generated_Source\PSoC5/USBFS.c ****     }
1346:.\Generated_Source\PSoC5/USBFS.c ****     else
1347:.\Generated_Source\PSoC5/USBFS.c ****     {
1348:.\Generated_Source\PSoC5/USBFS.c ****         USBFS_deviceStatus &=  ~USBFS_DEVICE_STATUS_SELF_POWERED;
 1871              		.loc 1 1348 0
 1872 002e 40F20003 		movw	r3, #:lower16:USBFS_deviceStatus
 1873 0032 C0F20003 		movt	r3, #:upper16:USBFS_deviceStatus
 1874 0036 1B78     		ldrb	r3, [r3, #0]
 1875 0038 DBB2     		uxtb	r3, r3
 1876 003a 1A46     		mov	r2, r3
 1877 003c 02F0FE02 		and	r2, r2, #254
 1878 0040 40F20003 		movw	r3, #:lower16:USBFS_deviceStatus
 1879 0044 C0F20003 		movt	r3, #:upper16:USBFS_deviceStatus
 1880 0048 1A70     		strb	r2, [r3, #0]
 1881              	.L82:
1349:.\Generated_Source\PSoC5/USBFS.c ****     }
1350:.\Generated_Source\PSoC5/USBFS.c **** }
 1882              		.loc 1 1350 0
 1883 004a 07F10C07 		add	r7, r7, #12
 1884 004e BD46     		mov	sp, r7
 1885 0050 80BC     		pop	{r7}
 1886 0052 7047     		bx	lr
 1887              		.cfi_endproc
 1888              	.LFE19:
 1889              		.size	USBFS_SetPowerStatus, .-USBFS_SetPowerStatus
 1890              		.section	.text.USBFS_RWUEnabled,"ax",%progbits
 1891              		.align	2
 1892              		.global	USBFS_RWUEnabled
 1893              		.thumb
 1894              		.thumb_func
 1895              		.type	USBFS_RWUEnabled, %function
ARM GAS  C:\DOCUME~1\ADMINI~1\LOCALS~1\Temp\ccyKCgI6.s 			page 58


 1896              	USBFS_RWUEnabled:
 1897              	.LFB20:
1351:.\Generated_Source\PSoC5/USBFS.c **** 
1352:.\Generated_Source\PSoC5/USBFS.c **** 
1353:.\Generated_Source\PSoC5/USBFS.c **** #if (USBFS_MON_VBUS == 1u)
1354:.\Generated_Source\PSoC5/USBFS.c **** 
1355:.\Generated_Source\PSoC5/USBFS.c ****     /*******************************************************************************
1356:.\Generated_Source\PSoC5/USBFS.c ****     * Function Name: USBFS_VBusPresent
1357:.\Generated_Source\PSoC5/USBFS.c ****     ********************************************************************************
1358:.\Generated_Source\PSoC5/USBFS.c ****     *
1359:.\Generated_Source\PSoC5/USBFS.c ****     * Summary:
1360:.\Generated_Source\PSoC5/USBFS.c ****     *  Determines VBUS presence for Self Powered Devices.
1361:.\Generated_Source\PSoC5/USBFS.c ****     *
1362:.\Generated_Source\PSoC5/USBFS.c ****     * Parameters:
1363:.\Generated_Source\PSoC5/USBFS.c ****     *  None.
1364:.\Generated_Source\PSoC5/USBFS.c ****     *
1365:.\Generated_Source\PSoC5/USBFS.c ****     * Return:
1366:.\Generated_Source\PSoC5/USBFS.c ****     *  1 if VBUS is present, otherwise 0.
1367:.\Generated_Source\PSoC5/USBFS.c ****     *
1368:.\Generated_Source\PSoC5/USBFS.c ****     *******************************************************************************/
1369:.\Generated_Source\PSoC5/USBFS.c ****     uint8 USBFS_VBusPresent(void) 
1370:.\Generated_Source\PSoC5/USBFS.c ****     {
1371:.\Generated_Source\PSoC5/USBFS.c ****         return((CY_GET_REG8(USBFS_VBUS_PS_PTR) & USBFS_VBUS_MASK) ? 1u : 0u);
1372:.\Generated_Source\PSoC5/USBFS.c ****     }
1373:.\Generated_Source\PSoC5/USBFS.c **** 
1374:.\Generated_Source\PSoC5/USBFS.c **** #endif /* USBFS_MON_VBUS */
1375:.\Generated_Source\PSoC5/USBFS.c **** 
1376:.\Generated_Source\PSoC5/USBFS.c **** 
1377:.\Generated_Source\PSoC5/USBFS.c **** /*******************************************************************************
1378:.\Generated_Source\PSoC5/USBFS.c **** * Function Name: USBFS_RWUEnabled
1379:.\Generated_Source\PSoC5/USBFS.c **** ********************************************************************************
1380:.\Generated_Source\PSoC5/USBFS.c **** *
1381:.\Generated_Source\PSoC5/USBFS.c **** * Summary:
1382:.\Generated_Source\PSoC5/USBFS.c **** *  Returns TRUE if Remote Wake Up is enabled, otherwise FALSE
1383:.\Generated_Source\PSoC5/USBFS.c **** *
1384:.\Generated_Source\PSoC5/USBFS.c **** * Parameters:
1385:.\Generated_Source\PSoC5/USBFS.c **** *   None.
1386:.\Generated_Source\PSoC5/USBFS.c **** *
1387:.\Generated_Source\PSoC5/USBFS.c **** * Return:
1388:.\Generated_Source\PSoC5/USBFS.c **** *  TRUE -  Remote Wake Up Enabled
1389:.\Generated_Source\PSoC5/USBFS.c **** *  FALSE - Remote Wake Up Disabled
1390:.\Generated_Source\PSoC5/USBFS.c **** *
1391:.\Generated_Source\PSoC5/USBFS.c **** * Global variables:
1392:.\Generated_Source\PSoC5/USBFS.c **** *  USBFS_deviceStatus - checked to determine remote status
1393:.\Generated_Source\PSoC5/USBFS.c **** *
1394:.\Generated_Source\PSoC5/USBFS.c **** *******************************************************************************/
1395:.\Generated_Source\PSoC5/USBFS.c **** uint8 USBFS_RWUEnabled(void) 
1396:.\Generated_Source\PSoC5/USBFS.c **** {
 1898              		.loc 1 1396 0
 1899              		.cfi_startproc
 1900              		@ args = 0, pretend = 0, frame = 8
 1901              		@ frame_needed = 1, uses_anonymous_args = 0
 1902              		@ link register save eliminated.
 1903 0000 80B4     		push	{r7}
 1904              	.LCFI58:
 1905              		.cfi_def_cfa_offset 4
 1906 0002 83B0     		sub	sp, sp, #12
ARM GAS  C:\DOCUME~1\ADMINI~1\LOCALS~1\Temp\ccyKCgI6.s 			page 59


 1907              	.LCFI59:
 1908              		.cfi_def_cfa_offset 16
 1909 0004 00AF     		add	r7, sp, #0
 1910              		.cfi_offset 7, -4
 1911              	.LCFI60:
 1912              		.cfi_def_cfa_register 7
1397:.\Generated_Source\PSoC5/USBFS.c ****     uint8 result = USBFS_FALSE;
 1913              		.loc 1 1397 0
 1914 0006 4FF00003 		mov	r3, #0
 1915 000a FB71     		strb	r3, [r7, #7]
1398:.\Generated_Source\PSoC5/USBFS.c ****     if((USBFS_deviceStatus & USBFS_DEVICE_STATUS_REMOTE_WAKEUP) != 0u)
 1916              		.loc 1 1398 0
 1917 000c 40F20003 		movw	r3, #:lower16:USBFS_deviceStatus
 1918 0010 C0F20003 		movt	r3, #:upper16:USBFS_deviceStatus
 1919 0014 1B78     		ldrb	r3, [r3, #0]
 1920 0016 DBB2     		uxtb	r3, r3
 1921 0018 03F00203 		and	r3, r3, #2
 1922 001c 002B     		cmp	r3, #0
 1923 001e 02D0     		beq	.L84
1399:.\Generated_Source\PSoC5/USBFS.c ****     {
1400:.\Generated_Source\PSoC5/USBFS.c ****         result = USBFS_TRUE;
 1924              		.loc 1 1400 0
 1925 0020 4FF00103 		mov	r3, #1
 1926 0024 FB71     		strb	r3, [r7, #7]
 1927              	.L84:
1401:.\Generated_Source\PSoC5/USBFS.c ****     }
1402:.\Generated_Source\PSoC5/USBFS.c **** 
1403:.\Generated_Source\PSoC5/USBFS.c ****     return(result);
 1928              		.loc 1 1403 0
 1929 0026 FB79     		ldrb	r3, [r7, #7]	@ zero_extendqisi2
1404:.\Generated_Source\PSoC5/USBFS.c **** }
 1930              		.loc 1 1404 0
 1931 0028 1846     		mov	r0, r3
 1932 002a 07F10C07 		add	r7, r7, #12
 1933 002e BD46     		mov	sp, r7
 1934 0030 80BC     		pop	{r7}
 1935 0032 7047     		bx	lr
 1936              		.cfi_endproc
 1937              	.LFE20:
 1938              		.size	USBFS_RWUEnabled, .-USBFS_RWUEnabled
 1939              		.text
 1940              	.Letext0: