ARM GAS  C:\DOCUME~1\ADMINI~1\LOCALS~1\Temp\ccACbaxA.s 			page 1


   1              		.syntax unified
   2              		.cpu cortex-m3
   3              		.fpu softvfp
   4              		.eabi_attribute 20, 1
   5              		.eabi_attribute 21, 1
   6              		.eabi_attribute 23, 3
   7              		.eabi_attribute 24, 1
   8              		.eabi_attribute 25, 1
   9              		.eabi_attribute 26, 1
  10              		.eabi_attribute 30, 6
  11              		.eabi_attribute 18, 4
  12              		.thumb
  13              		.file	"USBFS_pm.c"
  20 0000 08010000 		.text
  20      02007900 
  20      00000201 
  20      FB0E0D00 
  20      01010101 
  21              	.Ltext0:
  22              		.cfi_sections	.debug_frame
  23              		.bss
  24              		.align	2
  25              	USBFS_backup:
  26 0000 0000     		.space	2
  27 0002 0000     		.section	.text.USBFS_DP_ISR,"ax",%progbits
  28              		.align	2
  29              		.global	USBFS_DP_ISR
  30              		.thumb
  31              		.thumb_func
  32              		.type	USBFS_DP_ISR, %function
  33              	USBFS_DP_ISR:
  34              	.LFB29:
  35              		.file 1 ".\\Generated_Source\\PSoC5\\USBFS_pm.c"
   1:.\Generated_Source\PSoC5/USBFS_pm.c **** /*******************************************************************************
   2:.\Generated_Source\PSoC5/USBFS_pm.c **** * File Name: USBFS_pm.c
   3:.\Generated_Source\PSoC5/USBFS_pm.c **** * Version 2.50
   4:.\Generated_Source\PSoC5/USBFS_pm.c **** *
   5:.\Generated_Source\PSoC5/USBFS_pm.c **** * Description:
   6:.\Generated_Source\PSoC5/USBFS_pm.c **** *  This file provides Suspend/Resume APIs functionality.
   7:.\Generated_Source\PSoC5/USBFS_pm.c **** *
   8:.\Generated_Source\PSoC5/USBFS_pm.c **** * Note:
   9:.\Generated_Source\PSoC5/USBFS_pm.c **** *
  10:.\Generated_Source\PSoC5/USBFS_pm.c **** ********************************************************************************
  11:.\Generated_Source\PSoC5/USBFS_pm.c **** * Copyright 2008-2012, Cypress Semiconductor Corporation.  All rights reserved.
  12:.\Generated_Source\PSoC5/USBFS_pm.c **** * You may use this file only in accordance with the license, terms, conditions,
  13:.\Generated_Source\PSoC5/USBFS_pm.c **** * disclaimers, and limitations in the end user license agreement accompanying
  14:.\Generated_Source\PSoC5/USBFS_pm.c **** * the software package with which this file was provided.
  15:.\Generated_Source\PSoC5/USBFS_pm.c **** *******************************************************************************/
  16:.\Generated_Source\PSoC5/USBFS_pm.c **** 
  17:.\Generated_Source\PSoC5/USBFS_pm.c **** #include <device.h>
  18:.\Generated_Source\PSoC5/USBFS_pm.c **** #include "USBFS.h"
ARM GAS  C:\DOCUME~1\ADMINI~1\LOCALS~1\Temp\ccACbaxA.s 			page 2


  19:.\Generated_Source\PSoC5/USBFS_pm.c **** 
  20:.\Generated_Source\PSoC5/USBFS_pm.c **** 
  21:.\Generated_Source\PSoC5/USBFS_pm.c **** /***************************************
  22:.\Generated_Source\PSoC5/USBFS_pm.c **** * Custom Declarations
  23:.\Generated_Source\PSoC5/USBFS_pm.c **** ***************************************/
  24:.\Generated_Source\PSoC5/USBFS_pm.c **** /* `#START PM_CUSTOM_DECLARATIONS` Place your declaration here */
  25:.\Generated_Source\PSoC5/USBFS_pm.c **** 
  26:.\Generated_Source\PSoC5/USBFS_pm.c **** /* `#END` */
  27:.\Generated_Source\PSoC5/USBFS_pm.c **** 
  28:.\Generated_Source\PSoC5/USBFS_pm.c **** 
  29:.\Generated_Source\PSoC5/USBFS_pm.c **** /***************************************
  30:.\Generated_Source\PSoC5/USBFS_pm.c **** * Local data allocation
  31:.\Generated_Source\PSoC5/USBFS_pm.c **** ***************************************/
  32:.\Generated_Source\PSoC5/USBFS_pm.c **** 
  33:.\Generated_Source\PSoC5/USBFS_pm.c **** static USBFS_BACKUP_STRUCT  USBFS_backup;
  34:.\Generated_Source\PSoC5/USBFS_pm.c **** 
  35:.\Generated_Source\PSoC5/USBFS_pm.c **** 
  36:.\Generated_Source\PSoC5/USBFS_pm.c **** /***************************************
  37:.\Generated_Source\PSoC5/USBFS_pm.c **** * External data references
  38:.\Generated_Source\PSoC5/USBFS_pm.c **** ***************************************/
  39:.\Generated_Source\PSoC5/USBFS_pm.c **** 
  40:.\Generated_Source\PSoC5/USBFS_pm.c **** extern volatile uint8 USBFS_configuration;
  41:.\Generated_Source\PSoC5/USBFS_pm.c **** 
  42:.\Generated_Source\PSoC5/USBFS_pm.c **** 
  43:.\Generated_Source\PSoC5/USBFS_pm.c **** /***************************************
  44:.\Generated_Source\PSoC5/USBFS_pm.c **** * External function references
  45:.\Generated_Source\PSoC5/USBFS_pm.c **** ***************************************/
  46:.\Generated_Source\PSoC5/USBFS_pm.c **** 
  47:.\Generated_Source\PSoC5/USBFS_pm.c **** extern void USBFS_ConfigReg(void) ;
  48:.\Generated_Source\PSoC5/USBFS_pm.c **** #if(USBFS_EP_MM != USBFS__EP_MANUAL)
  49:.\Generated_Source\PSoC5/USBFS_pm.c ****     extern void USBFS_Stop_DMA(uint8 epNumber) ;
  50:.\Generated_Source\PSoC5/USBFS_pm.c **** #endif   /* End USBFS_EP_MM != USBFS__EP_MANUAL */
  51:.\Generated_Source\PSoC5/USBFS_pm.c **** 
  52:.\Generated_Source\PSoC5/USBFS_pm.c **** #if((USBFS_DP_ISR_REMOVE == 0u) && (!CY_PSOC5A))
  53:.\Generated_Source\PSoC5/USBFS_pm.c **** 
  54:.\Generated_Source\PSoC5/USBFS_pm.c **** 
  55:.\Generated_Source\PSoC5/USBFS_pm.c ****     /*******************************************************************************
  56:.\Generated_Source\PSoC5/USBFS_pm.c ****     * Function Name: USBFS_DP_Interrupt
  57:.\Generated_Source\PSoC5/USBFS_pm.c ****     ********************************************************************************
  58:.\Generated_Source\PSoC5/USBFS_pm.c ****     *
  59:.\Generated_Source\PSoC5/USBFS_pm.c ****     * Summary:
  60:.\Generated_Source\PSoC5/USBFS_pm.c ****     *  This Interrupt Service Routine handles DP pin changes for wake-up from
  61:.\Generated_Source\PSoC5/USBFS_pm.c ****     *  the sleep mode.
  62:.\Generated_Source\PSoC5/USBFS_pm.c ****     *
  63:.\Generated_Source\PSoC5/USBFS_pm.c ****     * Parameters:
  64:.\Generated_Source\PSoC5/USBFS_pm.c ****     *  None.
  65:.\Generated_Source\PSoC5/USBFS_pm.c ****     *
  66:.\Generated_Source\PSoC5/USBFS_pm.c ****     * Return:
  67:.\Generated_Source\PSoC5/USBFS_pm.c ****     *  None.
  68:.\Generated_Source\PSoC5/USBFS_pm.c ****     *
  69:.\Generated_Source\PSoC5/USBFS_pm.c ****     *******************************************************************************/
  70:.\Generated_Source\PSoC5/USBFS_pm.c ****     CY_ISR(USBFS_DP_ISR)
  71:.\Generated_Source\PSoC5/USBFS_pm.c ****     {
  36              		.loc 1 71 0
  37              		.cfi_startproc
  38              		@ args = 0, pretend = 0, frame = 0
  39              		@ frame_needed = 1, uses_anonymous_args = 0
ARM GAS  C:\DOCUME~1\ADMINI~1\LOCALS~1\Temp\ccACbaxA.s 			page 3


  40              		@ link register save eliminated.
  41 0000 80B4     		push	{r7}
  42              	.LCFI0:
  43              		.cfi_def_cfa_offset 4
  44 0002 00AF     		add	r7, sp, #0
  45              		.cfi_offset 7, -4
  46              	.LCFI1:
  47              		.cfi_def_cfa_register 7
  72:.\Generated_Source\PSoC5/USBFS_pm.c ****         /* `#START DP_USER_CODE` Place your code here */
  73:.\Generated_Source\PSoC5/USBFS_pm.c **** 
  74:.\Generated_Source\PSoC5/USBFS_pm.c ****         /* `#END` */
  75:.\Generated_Source\PSoC5/USBFS_pm.c **** 
  76:.\Generated_Source\PSoC5/USBFS_pm.c ****         /* Clears active interrupt */
  77:.\Generated_Source\PSoC5/USBFS_pm.c ****         CY_GET_REG8(USBFS_DP_INTSTAT_PTR);
  48              		.loc 1 77 0
  49 0004 44F28F53 		movw	r3, #:lower16:1073759631
  50 0008 C4F20003 		movt	r3, #:upper16:1073759631
  51 000c 1B78     		ldrb	r3, [r3, #0]
  78:.\Generated_Source\PSoC5/USBFS_pm.c ****     }
  52              		.loc 1 78 0
  53 000e BD46     		mov	sp, r7
  54 0010 80BC     		pop	{r7}
  55 0012 7047     		bx	lr
  56              		.cfi_endproc
  57              	.LFE29:
  58              		.size	USBFS_DP_ISR, .-USBFS_DP_ISR
  59              		.section	.text.USBFS_SaveConfig,"ax",%progbits
  60              		.align	2
  61              		.global	USBFS_SaveConfig
  62              		.thumb
  63              		.thumb_func
  64              		.type	USBFS_SaveConfig, %function
  65              	USBFS_SaveConfig:
  66              	.LFB30:
  79:.\Generated_Source\PSoC5/USBFS_pm.c **** 
  80:.\Generated_Source\PSoC5/USBFS_pm.c **** #endif /* (USBFS_DP_ISR_REMOVE == 0u) && (!CY_PSOC5A) */
  81:.\Generated_Source\PSoC5/USBFS_pm.c **** 
  82:.\Generated_Source\PSoC5/USBFS_pm.c **** 
  83:.\Generated_Source\PSoC5/USBFS_pm.c **** /*******************************************************************************
  84:.\Generated_Source\PSoC5/USBFS_pm.c **** * Function Name: USBFS_SaveConfig
  85:.\Generated_Source\PSoC5/USBFS_pm.c **** ********************************************************************************
  86:.\Generated_Source\PSoC5/USBFS_pm.c **** *
  87:.\Generated_Source\PSoC5/USBFS_pm.c **** * Summary:
  88:.\Generated_Source\PSoC5/USBFS_pm.c **** *  Saves the current user configuration.
  89:.\Generated_Source\PSoC5/USBFS_pm.c **** *
  90:.\Generated_Source\PSoC5/USBFS_pm.c **** * Parameters:
  91:.\Generated_Source\PSoC5/USBFS_pm.c **** *  None.
  92:.\Generated_Source\PSoC5/USBFS_pm.c **** *
  93:.\Generated_Source\PSoC5/USBFS_pm.c **** * Return:
  94:.\Generated_Source\PSoC5/USBFS_pm.c **** *  None.
  95:.\Generated_Source\PSoC5/USBFS_pm.c **** *
  96:.\Generated_Source\PSoC5/USBFS_pm.c **** * Reentrant:
  97:.\Generated_Source\PSoC5/USBFS_pm.c **** *  No.
  98:.\Generated_Source\PSoC5/USBFS_pm.c **** *
  99:.\Generated_Source\PSoC5/USBFS_pm.c **** *******************************************************************************/
 100:.\Generated_Source\PSoC5/USBFS_pm.c **** void USBFS_SaveConfig(void) 
 101:.\Generated_Source\PSoC5/USBFS_pm.c **** {
ARM GAS  C:\DOCUME~1\ADMINI~1\LOCALS~1\Temp\ccACbaxA.s 			page 4


  67              		.loc 1 101 0
  68              		.cfi_startproc
  69              		@ args = 0, pretend = 0, frame = 0
  70              		@ frame_needed = 1, uses_anonymous_args = 0
  71              		@ link register save eliminated.
  72 0000 80B4     		push	{r7}
  73              	.LCFI2:
  74              		.cfi_def_cfa_offset 4
  75 0002 00AF     		add	r7, sp, #0
  76              		.cfi_offset 7, -4
  77              	.LCFI3:
  78              		.cfi_def_cfa_register 7
 102:.\Generated_Source\PSoC5/USBFS_pm.c **** 
 103:.\Generated_Source\PSoC5/USBFS_pm.c **** }
  79              		.loc 1 103 0
  80 0004 BD46     		mov	sp, r7
  81 0006 80BC     		pop	{r7}
  82 0008 7047     		bx	lr
  83              		.cfi_endproc
  84              	.LFE30:
  85              		.size	USBFS_SaveConfig, .-USBFS_SaveConfig
  86 000a 00BF     		.section	.text.USBFS_RestoreConfig,"ax",%progbits
  87              		.align	2
  88              		.global	USBFS_RestoreConfig
  89              		.thumb
  90              		.thumb_func
  91              		.type	USBFS_RestoreConfig, %function
  92              	USBFS_RestoreConfig:
  93              	.LFB31:
 104:.\Generated_Source\PSoC5/USBFS_pm.c **** 
 105:.\Generated_Source\PSoC5/USBFS_pm.c **** 
 106:.\Generated_Source\PSoC5/USBFS_pm.c **** /*******************************************************************************
 107:.\Generated_Source\PSoC5/USBFS_pm.c **** * Function Name: USBFS_RestoreConfig
 108:.\Generated_Source\PSoC5/USBFS_pm.c **** ********************************************************************************
 109:.\Generated_Source\PSoC5/USBFS_pm.c **** *
 110:.\Generated_Source\PSoC5/USBFS_pm.c **** * Summary:
 111:.\Generated_Source\PSoC5/USBFS_pm.c **** *  Restores the current user configuration.
 112:.\Generated_Source\PSoC5/USBFS_pm.c **** *
 113:.\Generated_Source\PSoC5/USBFS_pm.c **** * Parameters:
 114:.\Generated_Source\PSoC5/USBFS_pm.c **** *  None.
 115:.\Generated_Source\PSoC5/USBFS_pm.c **** *
 116:.\Generated_Source\PSoC5/USBFS_pm.c **** * Return:
 117:.\Generated_Source\PSoC5/USBFS_pm.c **** *  None.
 118:.\Generated_Source\PSoC5/USBFS_pm.c **** *
 119:.\Generated_Source\PSoC5/USBFS_pm.c **** * Reentrant:
 120:.\Generated_Source\PSoC5/USBFS_pm.c **** *  No.
 121:.\Generated_Source\PSoC5/USBFS_pm.c **** *
 122:.\Generated_Source\PSoC5/USBFS_pm.c **** *******************************************************************************/
 123:.\Generated_Source\PSoC5/USBFS_pm.c **** void USBFS_RestoreConfig(void) 
 124:.\Generated_Source\PSoC5/USBFS_pm.c **** {
  94              		.loc 1 124 0
  95              		.cfi_startproc
  96              		@ args = 0, pretend = 0, frame = 0
  97              		@ frame_needed = 1, uses_anonymous_args = 0
  98 0000 80B5     		push	{r7, lr}
  99              	.LCFI4:
 100              		.cfi_def_cfa_offset 8
ARM GAS  C:\DOCUME~1\ADMINI~1\LOCALS~1\Temp\ccACbaxA.s 			page 5


 101 0002 00AF     		add	r7, sp, #0
 102              		.cfi_offset 14, -4
 103              		.cfi_offset 7, -8
 104              	.LCFI5:
 105              		.cfi_def_cfa_register 7
 125:.\Generated_Source\PSoC5/USBFS_pm.c ****     if(USBFS_configuration != 0)
 106              		.loc 1 125 0
 107 0004 40F20003 		movw	r3, #:lower16:USBFS_configuration
 108 0008 C0F20003 		movt	r3, #:upper16:USBFS_configuration
 109 000c 1B78     		ldrb	r3, [r3, #0]
 110 000e DBB2     		uxtb	r3, r3
 111 0010 002B     		cmp	r3, #0
 112 0012 01D0     		beq	.L7
 126:.\Generated_Source\PSoC5/USBFS_pm.c ****     {
 127:.\Generated_Source\PSoC5/USBFS_pm.c ****         USBFS_ConfigReg();    
 113              		.loc 1 127 0
 114 0014 FFF7FEFF 		bl	USBFS_ConfigReg
 115              	.L7:
 128:.\Generated_Source\PSoC5/USBFS_pm.c ****     }
 129:.\Generated_Source\PSoC5/USBFS_pm.c **** }
 116              		.loc 1 129 0
 117 0018 80BD     		pop	{r7, pc}
 118              		.cfi_endproc
 119              	.LFE31:
 120              		.size	USBFS_RestoreConfig, .-USBFS_RestoreConfig
 121 001a 00BF     		.section	.text.USBFS_Suspend,"ax",%progbits
 122              		.align	2
 123              		.global	USBFS_Suspend
 124              		.thumb
 125              		.thumb_func
 126              		.type	USBFS_Suspend, %function
 127              	USBFS_Suspend:
 128              	.LFB32:
 130:.\Generated_Source\PSoC5/USBFS_pm.c **** 
 131:.\Generated_Source\PSoC5/USBFS_pm.c **** 
 132:.\Generated_Source\PSoC5/USBFS_pm.c **** /*******************************************************************************
 133:.\Generated_Source\PSoC5/USBFS_pm.c **** * Function Name: USBFS_Suspend
 134:.\Generated_Source\PSoC5/USBFS_pm.c **** ********************************************************************************
 135:.\Generated_Source\PSoC5/USBFS_pm.c **** *
 136:.\Generated_Source\PSoC5/USBFS_pm.c **** * Summary:
 137:.\Generated_Source\PSoC5/USBFS_pm.c **** *  This function disables the USBFS block and prepares for power donwn mode.
 138:.\Generated_Source\PSoC5/USBFS_pm.c **** *
 139:.\Generated_Source\PSoC5/USBFS_pm.c **** * Parameters:
 140:.\Generated_Source\PSoC5/USBFS_pm.c **** *  None.
 141:.\Generated_Source\PSoC5/USBFS_pm.c **** *
 142:.\Generated_Source\PSoC5/USBFS_pm.c **** * Return:
 143:.\Generated_Source\PSoC5/USBFS_pm.c **** *   None.
 144:.\Generated_Source\PSoC5/USBFS_pm.c **** *
 145:.\Generated_Source\PSoC5/USBFS_pm.c **** * Global variables:
 146:.\Generated_Source\PSoC5/USBFS_pm.c **** *  USBFS_backup.enable:  modified.
 147:.\Generated_Source\PSoC5/USBFS_pm.c **** *
 148:.\Generated_Source\PSoC5/USBFS_pm.c **** * Reentrant:
 149:.\Generated_Source\PSoC5/USBFS_pm.c **** *  No.
 150:.\Generated_Source\PSoC5/USBFS_pm.c **** *
 151:.\Generated_Source\PSoC5/USBFS_pm.c **** *******************************************************************************/
 152:.\Generated_Source\PSoC5/USBFS_pm.c **** void USBFS_Suspend(void) 
 153:.\Generated_Source\PSoC5/USBFS_pm.c **** {
ARM GAS  C:\DOCUME~1\ADMINI~1\LOCALS~1\Temp\ccACbaxA.s 			page 6


 129              		.loc 1 153 0
 130              		.cfi_startproc
 131              		@ args = 0, pretend = 0, frame = 8
 132              		@ frame_needed = 1, uses_anonymous_args = 0
 133 0000 80B5     		push	{r7, lr}
 134              	.LCFI6:
 135              		.cfi_def_cfa_offset 8
 136 0002 82B0     		sub	sp, sp, #8
 137              	.LCFI7:
 138              		.cfi_def_cfa_offset 16
 139 0004 00AF     		add	r7, sp, #0
 140              		.cfi_offset 14, -4
 141              		.cfi_offset 7, -8
 142              	.LCFI8:
 143              		.cfi_def_cfa_register 7
 154:.\Generated_Source\PSoC5/USBFS_pm.c ****     uint8 enableInterrupts;
 155:.\Generated_Source\PSoC5/USBFS_pm.c ****     enableInterrupts = CyEnterCriticalSection();
 144              		.loc 1 155 0
 145 0006 FFF7FEFF 		bl	CyEnterCriticalSection
 146 000a 0346     		mov	r3, r0
 147 000c FB71     		strb	r3, [r7, #7]
 156:.\Generated_Source\PSoC5/USBFS_pm.c **** 
 157:.\Generated_Source\PSoC5/USBFS_pm.c ****     if((CY_GET_REG8(USBFS_CR0_PTR) & USBFS_CR0_ENABLE) != 0u)
 148              		.loc 1 157 0
 149 000e 46F20803 		movw	r3, #:lower16:1073766408
 150 0012 C4F20003 		movt	r3, #:upper16:1073766408
 151 0016 1B78     		ldrb	r3, [r3, #0]
 152 0018 DBB2     		uxtb	r3, r3
 153 001a 5BB2     		sxtb	r3, r3
 154 001c 002B     		cmp	r3, #0
 155 001e 80F29380 		bge	.L9
 158:.\Generated_Source\PSoC5/USBFS_pm.c ****     {   /* USB block is enabled */
 159:.\Generated_Source\PSoC5/USBFS_pm.c ****         USBFS_backup.enableState = 1u;
 156              		.loc 1 159 0
 157 0022 40F20003 		movw	r3, #:lower16:USBFS_backup
 158 0026 C0F20003 		movt	r3, #:upper16:USBFS_backup
 159 002a 4FF00102 		mov	r2, #1
 160 002e 1A70     		strb	r2, [r3, #0]
 160:.\Generated_Source\PSoC5/USBFS_pm.c **** 
 161:.\Generated_Source\PSoC5/USBFS_pm.c ****         #if(USBFS_EP_MM != USBFS__EP_MANUAL)
 162:.\Generated_Source\PSoC5/USBFS_pm.c ****             USBFS_Stop_DMA(USBFS_MAX_EP);     /* Stop all DMAs */
 161              		.loc 1 162 0
 162 0030 4FF00900 		mov	r0, #9
 163 0034 FFF7FEFF 		bl	USBFS_Stop_DMA
 163:.\Generated_Source\PSoC5/USBFS_pm.c ****         #endif   /* End USBFS_EP_MM != USBFS__EP_MANUAL */
 164:.\Generated_Source\PSoC5/USBFS_pm.c **** 
 165:.\Generated_Source\PSoC5/USBFS_pm.c ****         #if(CY_PSOC5A)
 166:.\Generated_Source\PSoC5/USBFS_pm.c ****             /* Disable USBIO block */
 167:.\Generated_Source\PSoC5/USBFS_pm.c ****             USBFS_PM_AVAIL_CR_REG &= ~USBFS_PM_AVAIL_EN_FSUSBIO;
 168:.\Generated_Source\PSoC5/USBFS_pm.c ****         #endif /* End CY_PSOC5A */
 169:.\Generated_Source\PSoC5/USBFS_pm.c **** 
 170:.\Generated_Source\PSoC5/USBFS_pm.c ****         /* Power Down Sequencing for USBIO for TO4*/
 171:.\Generated_Source\PSoC5/USBFS_pm.c ****         #if(!CY_PSOC5A)
 172:.\Generated_Source\PSoC5/USBFS_pm.c ****             /* Ensure USB transmit enable is low (USB_USBIO_CR0.ten). - Manual Transmission - Disab
 173:.\Generated_Source\PSoC5/USBFS_pm.c ****             USBFS_USBIO_CR0_REG &= ~USBFS_USBIO_CR0_TEN;
 164              		.loc 1 173 0
 165 0038 46F21003 		movw	r3, #:lower16:1073766416
ARM GAS  C:\DOCUME~1\ADMINI~1\LOCALS~1\Temp\ccACbaxA.s 			page 7


 166 003c C4F20003 		movt	r3, #:upper16:1073766416
 167 0040 46F21002 		movw	r2, #:lower16:1073766416
 168 0044 C4F20002 		movt	r2, #:upper16:1073766416
 169 0048 1278     		ldrb	r2, [r2, #0]
 170 004a D2B2     		uxtb	r2, r2
 171 004c 02F07F02 		and	r2, r2, #127
 172 0050 1A70     		strb	r2, [r3, #0]
 174:.\Generated_Source\PSoC5/USBFS_pm.c ****             CyDelayUs(0);  /*~50ns delay */
 173              		.loc 1 174 0
 174 0052 4FF00000 		mov	r0, #0
 175 0056 FFF7FEFF 		bl	CyDelayUs
 175:.\Generated_Source\PSoC5/USBFS_pm.c **** 
 176:.\Generated_Source\PSoC5/USBFS_pm.c ****             /* Disable the USBIO by asserting PM.USB_CR0.fsusbio_pd_n(Inverted) and pd_pullup_hv(In
 177:.\Generated_Source\PSoC5/USBFS_pm.c ****             USBFS_PM_USB_CR0_REG &= \
 176              		.loc 1 177 0
 177 005a 44F29433 		movw	r3, #:lower16:1073759124
 178 005e C4F20003 		movt	r3, #:upper16:1073759124
 179 0062 44F29432 		movw	r2, #:lower16:1073759124
 180 0066 C4F20002 		movt	r2, #:upper16:1073759124
 181 006a 1278     		ldrb	r2, [r2, #0]
 182 006c D2B2     		uxtb	r2, r2
 183 006e 02F0F902 		and	r2, r2, #249
 184 0072 1A70     		strb	r2, [r3, #0]
 178:.\Generated_Source\PSoC5/USBFS_pm.c ****                                     ~(USBFS_PM_USB_CR0_PD_N | USBFS_PM_USB_CR0_PD_PULLUP_N);
 179:.\Generated_Source\PSoC5/USBFS_pm.c ****          #endif /* End !CY_PSOC5A */
 180:.\Generated_Source\PSoC5/USBFS_pm.c **** 
 181:.\Generated_Source\PSoC5/USBFS_pm.c ****         /* Disable the SIE */
 182:.\Generated_Source\PSoC5/USBFS_pm.c ****         USBFS_CR0_REG &= ~USBFS_CR0_ENABLE;
 185              		.loc 1 182 0
 186 0074 46F20803 		movw	r3, #:lower16:1073766408
 187 0078 C4F20003 		movt	r3, #:upper16:1073766408
 188 007c 46F20802 		movw	r2, #:lower16:1073766408
 189 0080 C4F20002 		movt	r2, #:upper16:1073766408
 190 0084 1278     		ldrb	r2, [r2, #0]
 191 0086 D2B2     		uxtb	r2, r2
 192 0088 02F07F02 		and	r2, r2, #127
 193 008c 1A70     		strb	r2, [r3, #0]
 183:.\Generated_Source\PSoC5/USBFS_pm.c **** 
 184:.\Generated_Source\PSoC5/USBFS_pm.c ****         #if(!CY_PSOC5A)
 185:.\Generated_Source\PSoC5/USBFS_pm.c ****             CyDelayUs(0);  /*~50ns delay */
 194              		.loc 1 185 0
 195 008e 4FF00000 		mov	r0, #0
 196 0092 FFF7FEFF 		bl	CyDelayUs
 186:.\Generated_Source\PSoC5/USBFS_pm.c ****             /* Store mode and Disable VRegulator*/
 187:.\Generated_Source\PSoC5/USBFS_pm.c ****             USBFS_backup.mode = USBFS_CR1_REG & USBFS_CR1_REG_ENABLE;
 197              		.loc 1 187 0
 198 0096 46F20903 		movw	r3, #:lower16:1073766409
 199 009a C4F20003 		movt	r3, #:upper16:1073766409
 200 009e 1B78     		ldrb	r3, [r3, #0]
 201 00a0 DBB2     		uxtb	r3, r3
 202 00a2 1A46     		mov	r2, r3
 203 00a4 02F00102 		and	r2, r2, #1
 204 00a8 40F20003 		movw	r3, #:lower16:USBFS_backup
 205 00ac C0F20003 		movt	r3, #:upper16:USBFS_backup
 206 00b0 5A70     		strb	r2, [r3, #1]
 188:.\Generated_Source\PSoC5/USBFS_pm.c ****             USBFS_CR1_REG &= ~USBFS_CR1_REG_ENABLE;
 207              		.loc 1 188 0
ARM GAS  C:\DOCUME~1\ADMINI~1\LOCALS~1\Temp\ccACbaxA.s 			page 8


 208 00b2 46F20903 		movw	r3, #:lower16:1073766409
 209 00b6 C4F20003 		movt	r3, #:upper16:1073766409
 210 00ba 46F20902 		movw	r2, #:lower16:1073766409
 211 00be C4F20002 		movt	r2, #:upper16:1073766409
 212 00c2 1278     		ldrb	r2, [r2, #0]
 213 00c4 D2B2     		uxtb	r2, r2
 214 00c6 02F0FE02 		and	r2, r2, #254
 215 00ca 1A70     		strb	r2, [r3, #0]
 189:.\Generated_Source\PSoC5/USBFS_pm.c **** 
 190:.\Generated_Source\PSoC5/USBFS_pm.c ****             CyDelayUs(1);  /* 0.5 us min delay */
 216              		.loc 1 190 0
 217 00cc 4FF00100 		mov	r0, #1
 218 00d0 FFF7FEFF 		bl	CyDelayUs
 191:.\Generated_Source\PSoC5/USBFS_pm.c ****             /* Disable the USBIO reference by setting PM.USB_CR0.fsusbio_ref_en.*/
 192:.\Generated_Source\PSoC5/USBFS_pm.c ****             USBFS_PM_USB_CR0_REG &= ~USBFS_PM_USB_CR0_REF_EN;
 219              		.loc 1 192 0
 220 00d4 44F29433 		movw	r3, #:lower16:1073759124
 221 00d8 C4F20003 		movt	r3, #:upper16:1073759124
 222 00dc 44F29432 		movw	r2, #:lower16:1073759124
 223 00e0 C4F20002 		movt	r2, #:upper16:1073759124
 224 00e4 1278     		ldrb	r2, [r2, #0]
 225 00e6 D2B2     		uxtb	r2, r2
 226 00e8 02F0FE02 		and	r2, r2, #254
 227 00ec 1A70     		strb	r2, [r3, #0]
 193:.\Generated_Source\PSoC5/USBFS_pm.c **** 
 194:.\Generated_Source\PSoC5/USBFS_pm.c ****             /* Switch DP and DM terminals to GPIO mode and disconnect 1.5k pullup*/
 195:.\Generated_Source\PSoC5/USBFS_pm.c ****             USBFS_USBIO_CR1_REG |= USBFS_USBIO_CR1_IOMODE;
 228              		.loc 1 195 0
 229 00ee 46F21203 		movw	r3, #:lower16:1073766418
 230 00f2 C4F20003 		movt	r3, #:upper16:1073766418
 231 00f6 46F21202 		movw	r2, #:lower16:1073766418
 232 00fa C4F20002 		movt	r2, #:upper16:1073766418
 233 00fe 1278     		ldrb	r2, [r2, #0]
 234 0100 D2B2     		uxtb	r2, r2
 235 0102 42F02002 		orr	r2, r2, #32
 236 0106 D2B2     		uxtb	r2, r2
 237 0108 1A70     		strb	r2, [r3, #0]
 196:.\Generated_Source\PSoC5/USBFS_pm.c **** 
 197:.\Generated_Source\PSoC5/USBFS_pm.c ****         #endif /* End !CY_PSOC5A*/
 198:.\Generated_Source\PSoC5/USBFS_pm.c **** 
 199:.\Generated_Source\PSoC5/USBFS_pm.c ****         /* Disable USB in ACT PM */
 200:.\Generated_Source\PSoC5/USBFS_pm.c ****         USBFS_PM_ACT_CFG_REG &= ~USBFS_PM_ACT_EN_FSUSB;
 238              		.loc 1 200 0
 239 010a 44F2A533 		movw	r3, #:lower16:1073759141
 240 010e C4F20003 		movt	r3, #:upper16:1073759141
 241 0112 44F2A532 		movw	r2, #:lower16:1073759141
 242 0116 C4F20002 		movt	r2, #:upper16:1073759141
 243 011a 1278     		ldrb	r2, [r2, #0]
 244 011c D2B2     		uxtb	r2, r2
 245 011e 02F0FE02 		and	r2, r2, #254
 246 0122 1A70     		strb	r2, [r3, #0]
 201:.\Generated_Source\PSoC5/USBFS_pm.c ****         /* Disable USB block for Standby Power Mode */
 202:.\Generated_Source\PSoC5/USBFS_pm.c ****         USBFS_PM_STBY_CFG_REG &= ~USBFS_PM_STBY_EN_FSUSB;
 247              		.loc 1 202 0
 248 0124 44F2B533 		movw	r3, #:lower16:1073759157
 249 0128 C4F20003 		movt	r3, #:upper16:1073759157
 250 012c 44F2B532 		movw	r2, #:lower16:1073759157
ARM GAS  C:\DOCUME~1\ADMINI~1\LOCALS~1\Temp\ccACbaxA.s 			page 9


 251 0130 C4F20002 		movt	r2, #:upper16:1073759157
 252 0134 1278     		ldrb	r2, [r2, #0]
 253 0136 D2B2     		uxtb	r2, r2
 254 0138 02F0FE02 		and	r2, r2, #254
 255 013c 1A70     		strb	r2, [r3, #0]
 203:.\Generated_Source\PSoC5/USBFS_pm.c ****         CyDelayUs(1); /* min  0.5us delay required */
 256              		.loc 1 203 0
 257 013e 4FF00100 		mov	r0, #1
 258 0142 FFF7FEFF 		bl	CyDelayUs
 259 0146 06E0     		b	.L10
 260              	.L9:
 204:.\Generated_Source\PSoC5/USBFS_pm.c **** 
 205:.\Generated_Source\PSoC5/USBFS_pm.c ****     }
 206:.\Generated_Source\PSoC5/USBFS_pm.c ****     else
 207:.\Generated_Source\PSoC5/USBFS_pm.c ****     {
 208:.\Generated_Source\PSoC5/USBFS_pm.c ****         USBFS_backup.enableState = 0u;
 261              		.loc 1 208 0
 262 0148 40F20003 		movw	r3, #:lower16:USBFS_backup
 263 014c C0F20003 		movt	r3, #:upper16:USBFS_backup
 264 0150 4FF00002 		mov	r2, #0
 265 0154 1A70     		strb	r2, [r3, #0]
 266              	.L10:
 209:.\Generated_Source\PSoC5/USBFS_pm.c ****     }
 210:.\Generated_Source\PSoC5/USBFS_pm.c ****     CyExitCriticalSection(enableInterrupts);
 267              		.loc 1 210 0
 268 0156 FB79     		ldrb	r3, [r7, #7]	@ zero_extendqisi2
 269 0158 1846     		mov	r0, r3
 270 015a FFF7FEFF 		bl	CyExitCriticalSection
 211:.\Generated_Source\PSoC5/USBFS_pm.c **** 
 212:.\Generated_Source\PSoC5/USBFS_pm.c ****     /* Set the DP Interrupt for wake-up from sleep mode. */
 213:.\Generated_Source\PSoC5/USBFS_pm.c ****     #if((USBFS_DP_ISR_REMOVE == 0u) && (!CY_PSOC5A))
 214:.\Generated_Source\PSoC5/USBFS_pm.c ****         CyIntSetVector(USBFS_DP_INTC_VECT_NUM,   USBFS_DP_ISR);
 271              		.loc 1 214 0
 272 015e 4FF00C00 		mov	r0, #12
 273 0162 40F20001 		movw	r1, #:lower16:USBFS_DP_ISR
 274 0166 C0F20001 		movt	r1, #:upper16:USBFS_DP_ISR
 275 016a FFF7FEFF 		bl	CyIntSetVector
 215:.\Generated_Source\PSoC5/USBFS_pm.c ****         CyIntSetPriority(USBFS_DP_INTC_VECT_NUM, USBFS_DP_INTC_PRIOR);
 276              		.loc 1 215 0
 277 016e 4FF00C00 		mov	r0, #12
 278 0172 4FF00701 		mov	r1, #7
 279 0176 FFF7FEFF 		bl	CyIntSetPriority
 216:.\Generated_Source\PSoC5/USBFS_pm.c ****         CyIntClearPending(USBFS_DP_INTC_VECT_NUM);
 280              		.loc 1 216 0
 281 017a 4EF28023 		movw	r3, #:lower16:-536812928
 282 017e CEF20003 		movt	r3, #:upper16:-536812928
 283 0182 4FF48052 		mov	r2, #4096
 284 0186 1A60     		str	r2, [r3, #0]
 217:.\Generated_Source\PSoC5/USBFS_pm.c ****         CyIntEnable(USBFS_DP_INTC_VECT_NUM);
 285              		.loc 1 217 0
 286 0188 4EF20013 		movw	r3, #:lower16:-536813312
 287 018c CEF20003 		movt	r3, #:upper16:-536813312
 288 0190 4FF48052 		mov	r2, #4096
 289 0194 1A60     		str	r2, [r3, #0]
 218:.\Generated_Source\PSoC5/USBFS_pm.c ****     #endif /* (USBFS_DP_ISR_REMOVE == 0u) && (!CY_PSOC5A) */
 219:.\Generated_Source\PSoC5/USBFS_pm.c **** 
 220:.\Generated_Source\PSoC5/USBFS_pm.c **** }
ARM GAS  C:\DOCUME~1\ADMINI~1\LOCALS~1\Temp\ccACbaxA.s 			page 10


 290              		.loc 1 220 0
 291 0196 07F10807 		add	r7, r7, #8
 292 019a BD46     		mov	sp, r7
 293 019c 80BD     		pop	{r7, pc}
 294              		.cfi_endproc
 295              	.LFE32:
 296              		.size	USBFS_Suspend, .-USBFS_Suspend
 297 019e 00BF     		.section	.text.USBFS_Resume,"ax",%progbits
 298              		.align	2
 299              		.global	USBFS_Resume
 300              		.thumb
 301              		.thumb_func
 302              		.type	USBFS_Resume, %function
 303              	USBFS_Resume:
 304              	.LFB33:
 221:.\Generated_Source\PSoC5/USBFS_pm.c **** 
 222:.\Generated_Source\PSoC5/USBFS_pm.c **** 
 223:.\Generated_Source\PSoC5/USBFS_pm.c **** /*******************************************************************************
 224:.\Generated_Source\PSoC5/USBFS_pm.c **** * Function Name: USBFS_Resume
 225:.\Generated_Source\PSoC5/USBFS_pm.c **** ********************************************************************************
 226:.\Generated_Source\PSoC5/USBFS_pm.c **** *
 227:.\Generated_Source\PSoC5/USBFS_pm.c **** * Summary:
 228:.\Generated_Source\PSoC5/USBFS_pm.c **** *  This function enables the USBFS block after power down mode.
 229:.\Generated_Source\PSoC5/USBFS_pm.c **** *
 230:.\Generated_Source\PSoC5/USBFS_pm.c **** * Parameters:
 231:.\Generated_Source\PSoC5/USBFS_pm.c **** *  None.
 232:.\Generated_Source\PSoC5/USBFS_pm.c **** *
 233:.\Generated_Source\PSoC5/USBFS_pm.c **** * Return:
 234:.\Generated_Source\PSoC5/USBFS_pm.c **** *  None.
 235:.\Generated_Source\PSoC5/USBFS_pm.c **** *
 236:.\Generated_Source\PSoC5/USBFS_pm.c **** * Global variables:
 237:.\Generated_Source\PSoC5/USBFS_pm.c **** *  USBFS_backup - checked.
 238:.\Generated_Source\PSoC5/USBFS_pm.c **** *
 239:.\Generated_Source\PSoC5/USBFS_pm.c **** * Reentrant:
 240:.\Generated_Source\PSoC5/USBFS_pm.c **** *  No.
 241:.\Generated_Source\PSoC5/USBFS_pm.c **** *
 242:.\Generated_Source\PSoC5/USBFS_pm.c **** *******************************************************************************/
 243:.\Generated_Source\PSoC5/USBFS_pm.c **** void USBFS_Resume(void) 
 244:.\Generated_Source\PSoC5/USBFS_pm.c **** {
 305              		.loc 1 244 0
 306              		.cfi_startproc
 307              		@ args = 0, pretend = 0, frame = 8
 308              		@ frame_needed = 1, uses_anonymous_args = 0
 309 0000 80B5     		push	{r7, lr}
 310              	.LCFI9:
 311              		.cfi_def_cfa_offset 8
 312 0002 82B0     		sub	sp, sp, #8
 313              	.LCFI10:
 314              		.cfi_def_cfa_offset 16
 315 0004 00AF     		add	r7, sp, #0
 316              		.cfi_offset 14, -4
 317              		.cfi_offset 7, -8
 318              	.LCFI11:
 319              		.cfi_def_cfa_register 7
 245:.\Generated_Source\PSoC5/USBFS_pm.c ****     uint8 enableInterrupts;
 246:.\Generated_Source\PSoC5/USBFS_pm.c ****     enableInterrupts = CyEnterCriticalSection();
 320              		.loc 1 246 0
ARM GAS  C:\DOCUME~1\ADMINI~1\LOCALS~1\Temp\ccACbaxA.s 			page 11


 321 0006 FFF7FEFF 		bl	CyEnterCriticalSection
 322 000a 0346     		mov	r3, r0
 323 000c FB71     		strb	r3, [r7, #7]
 247:.\Generated_Source\PSoC5/USBFS_pm.c **** 
 248:.\Generated_Source\PSoC5/USBFS_pm.c ****     if(USBFS_backup.enableState != 0u)
 324              		.loc 1 248 0
 325 000e 40F20003 		movw	r3, #:lower16:USBFS_backup
 326 0012 C0F20003 		movt	r3, #:upper16:USBFS_backup
 327 0016 1B78     		ldrb	r3, [r3, #0]	@ zero_extendqisi2
 328 0018 002B     		cmp	r3, #0
 329 001a 00F0AC80 		beq	.L13
 249:.\Generated_Source\PSoC5/USBFS_pm.c ****     {
 250:.\Generated_Source\PSoC5/USBFS_pm.c ****         #if((USBFS_DP_ISR_REMOVE == 0u) && (!CY_PSOC5A))
 251:.\Generated_Source\PSoC5/USBFS_pm.c ****             CyIntDisable(USBFS_DP_INTC_VECT_NUM);
 330              		.loc 1 251 0
 331 001e 4EF28013 		movw	r3, #:lower16:-536813184
 332 0022 CEF20003 		movt	r3, #:upper16:-536813184
 333 0026 4FF48052 		mov	r2, #4096
 334 002a 1A60     		str	r2, [r3, #0]
 252:.\Generated_Source\PSoC5/USBFS_pm.c ****         #endif /* End USBFS_DP_ISR_REMOVE */
 253:.\Generated_Source\PSoC5/USBFS_pm.c **** 
 254:.\Generated_Source\PSoC5/USBFS_pm.c ****         #if(CY_PSOC5A)
 255:.\Generated_Source\PSoC5/USBFS_pm.c ****             /* Enable USBIO block */
 256:.\Generated_Source\PSoC5/USBFS_pm.c ****             USBFS_PM_AVAIL_CR_REG |= USBFS_PM_AVAIL_EN_FSUSBIO;
 257:.\Generated_Source\PSoC5/USBFS_pm.c **** 
 258:.\Generated_Source\PSoC5/USBFS_pm.c ****             /* Bus Reset Length, It has correct default value in ES3 */
 259:.\Generated_Source\PSoC5/USBFS_pm.c ****             USBFS_BUS_RST_CNT_REG = USBFS_BUS_RST_COUNT;
 260:.\Generated_Source\PSoC5/USBFS_pm.c ****         #endif /* End CY_PSOC5A */
 261:.\Generated_Source\PSoC5/USBFS_pm.c **** 
 262:.\Generated_Source\PSoC5/USBFS_pm.c ****         /* Enable USB block */
 263:.\Generated_Source\PSoC5/USBFS_pm.c ****         USBFS_PM_ACT_CFG_REG |= USBFS_PM_ACT_EN_FSUSB;
 335              		.loc 1 263 0
 336 002c 44F2A533 		movw	r3, #:lower16:1073759141
 337 0030 C4F20003 		movt	r3, #:upper16:1073759141
 338 0034 44F2A532 		movw	r2, #:lower16:1073759141
 339 0038 C4F20002 		movt	r2, #:upper16:1073759141
 340 003c 1278     		ldrb	r2, [r2, #0]
 341 003e D2B2     		uxtb	r2, r2
 342 0040 42F00102 		orr	r2, r2, #1
 343 0044 D2B2     		uxtb	r2, r2
 344 0046 1A70     		strb	r2, [r3, #0]
 264:.\Generated_Source\PSoC5/USBFS_pm.c ****         /* Enable USB block for Standby Power Mode */
 265:.\Generated_Source\PSoC5/USBFS_pm.c ****         USBFS_PM_STBY_CFG_REG |= USBFS_PM_STBY_EN_FSUSB;
 345              		.loc 1 265 0
 346 0048 44F2B533 		movw	r3, #:lower16:1073759157
 347 004c C4F20003 		movt	r3, #:upper16:1073759157
 348 0050 44F2B532 		movw	r2, #:lower16:1073759157
 349 0054 C4F20002 		movt	r2, #:upper16:1073759157
 350 0058 1278     		ldrb	r2, [r2, #0]
 351 005a D2B2     		uxtb	r2, r2
 352 005c 42F00102 		orr	r2, r2, #1
 353 0060 D2B2     		uxtb	r2, r2
 354 0062 1A70     		strb	r2, [r3, #0]
 266:.\Generated_Source\PSoC5/USBFS_pm.c ****         /* Enable core clock */
 267:.\Generated_Source\PSoC5/USBFS_pm.c ****         USBFS_USB_CLK_EN_REG |= USBFS_USB_CLK_ENABLE;
 355              		.loc 1 267 0
 356 0064 46F29D03 		movw	r3, #:lower16:1073766557
ARM GAS  C:\DOCUME~1\ADMINI~1\LOCALS~1\Temp\ccACbaxA.s 			page 12


 357 0068 C4F20003 		movt	r3, #:upper16:1073766557
 358 006c 46F29D02 		movw	r2, #:lower16:1073766557
 359 0070 C4F20002 		movt	r2, #:upper16:1073766557
 360 0074 1278     		ldrb	r2, [r2, #0]
 361 0076 D2B2     		uxtb	r2, r2
 362 0078 42F00102 		orr	r2, r2, #1
 363 007c D2B2     		uxtb	r2, r2
 364 007e 1A70     		strb	r2, [r3, #0]
 268:.\Generated_Source\PSoC5/USBFS_pm.c **** 
 269:.\Generated_Source\PSoC5/USBFS_pm.c ****         /* USBIO Wakeup Sequencing for TO4 */
 270:.\Generated_Source\PSoC5/USBFS_pm.c ****         #if (!CY_PSOC5A)
 271:.\Generated_Source\PSoC5/USBFS_pm.c ****             /* Enable the USBIO reference by setting PM.USB_CR0.fsusbio_ref_en.*/
 272:.\Generated_Source\PSoC5/USBFS_pm.c ****             USBFS_PM_USB_CR0_REG |= USBFS_PM_USB_CR0_REF_EN;
 365              		.loc 1 272 0
 366 0080 44F29433 		movw	r3, #:lower16:1073759124
 367 0084 C4F20003 		movt	r3, #:upper16:1073759124
 368 0088 44F29432 		movw	r2, #:lower16:1073759124
 369 008c C4F20002 		movt	r2, #:upper16:1073759124
 370 0090 1278     		ldrb	r2, [r2, #0]
 371 0092 D2B2     		uxtb	r2, r2
 372 0094 42F00102 		orr	r2, r2, #1
 373 0098 D2B2     		uxtb	r2, r2
 374 009a 1A70     		strb	r2, [r3, #0]
 273:.\Generated_Source\PSoC5/USBFS_pm.c ****             /* The reference will be available ~40us after power restored */
 274:.\Generated_Source\PSoC5/USBFS_pm.c ****             CyDelayUs(40);
 375              		.loc 1 274 0
 376 009c 4FF02800 		mov	r0, #40
 377 00a0 FFF7FEFF 		bl	CyDelayUs
 275:.\Generated_Source\PSoC5/USBFS_pm.c ****             /* Return VRegulator*/
 276:.\Generated_Source\PSoC5/USBFS_pm.c ****             USBFS_CR1_REG |= USBFS_backup.mode;
 378              		.loc 1 276 0
 379 00a4 46F20903 		movw	r3, #:lower16:1073766409
 380 00a8 C4F20003 		movt	r3, #:upper16:1073766409
 381 00ac 46F20902 		movw	r2, #:lower16:1073766409
 382 00b0 C4F20002 		movt	r2, #:upper16:1073766409
 383 00b4 1278     		ldrb	r2, [r2, #0]
 384 00b6 D1B2     		uxtb	r1, r2
 385 00b8 40F20002 		movw	r2, #:lower16:USBFS_backup
 386 00bc C0F20002 		movt	r2, #:upper16:USBFS_backup
 387 00c0 5278     		ldrb	r2, [r2, #1]	@ zero_extendqisi2
 388 00c2 41EA0202 		orr	r2, r1, r2
 389 00c6 D2B2     		uxtb	r2, r2
 390 00c8 1A70     		strb	r2, [r3, #0]
 277:.\Generated_Source\PSoC5/USBFS_pm.c ****             CyDelayUs(0);  /*~50ns delay */
 391              		.loc 1 277 0
 392 00ca 4FF00000 		mov	r0, #0
 393 00ce FFF7FEFF 		bl	CyDelayUs
 278:.\Generated_Source\PSoC5/USBFS_pm.c ****             /* Enable USBIO */
 279:.\Generated_Source\PSoC5/USBFS_pm.c ****             USBFS_PM_USB_CR0_REG |= USBFS_PM_USB_CR0_PD_N;
 394              		.loc 1 279 0
 395 00d2 44F29433 		movw	r3, #:lower16:1073759124
 396 00d6 C4F20003 		movt	r3, #:upper16:1073759124
 397 00da 44F29432 		movw	r2, #:lower16:1073759124
 398 00de C4F20002 		movt	r2, #:upper16:1073759124
 399 00e2 1278     		ldrb	r2, [r2, #0]
 400 00e4 D2B2     		uxtb	r2, r2
 401 00e6 42F00202 		orr	r2, r2, #2
ARM GAS  C:\DOCUME~1\ADMINI~1\LOCALS~1\Temp\ccACbaxA.s 			page 13


 402 00ea D2B2     		uxtb	r2, r2
 403 00ec 1A70     		strb	r2, [r3, #0]
 280:.\Generated_Source\PSoC5/USBFS_pm.c ****             CyDelayUs(2);
 404              		.loc 1 280 0
 405 00ee 4FF00200 		mov	r0, #2
 406 00f2 FFF7FEFF 		bl	CyDelayUs
 281:.\Generated_Source\PSoC5/USBFS_pm.c ****             /* Set the USBIO pull-up enable */
 282:.\Generated_Source\PSoC5/USBFS_pm.c ****             USBFS_PM_USB_CR0_REG |= USBFS_PM_USB_CR0_PD_PULLUP_N;
 407              		.loc 1 282 0
 408 00f6 44F29433 		movw	r3, #:lower16:1073759124
 409 00fa C4F20003 		movt	r3, #:upper16:1073759124
 410 00fe 44F29432 		movw	r2, #:lower16:1073759124
 411 0102 C4F20002 		movt	r2, #:upper16:1073759124
 412 0106 1278     		ldrb	r2, [r2, #0]
 413 0108 D2B2     		uxtb	r2, r2
 414 010a 42F00402 		orr	r2, r2, #4
 415 010e D2B2     		uxtb	r2, r2
 416 0110 1A70     		strb	r2, [r3, #0]
 283:.\Generated_Source\PSoC5/USBFS_pm.c ****         #endif /* End !CY_PSOC5A */
 284:.\Generated_Source\PSoC5/USBFS_pm.c **** 
 285:.\Generated_Source\PSoC5/USBFS_pm.c ****         /* Reinit Arbiter congiguration for DMA transfers */
 286:.\Generated_Source\PSoC5/USBFS_pm.c ****         #if(USBFS_EP_MM != USBFS__EP_MANUAL)
 287:.\Generated_Source\PSoC5/USBFS_pm.c ****             /* usb arb interrupt enable */
 288:.\Generated_Source\PSoC5/USBFS_pm.c ****             USBFS_ARB_INT_EN_REG = USBFS_ARB_INT_MASK;
 417              		.loc 1 288 0
 418 0112 46F29E03 		movw	r3, #:lower16:1073766558
 419 0116 C4F20003 		movt	r3, #:upper16:1073766558
 420 011a 4FF02A02 		mov	r2, #42
 421 011e 1A70     		strb	r2, [r3, #0]
 289:.\Generated_Source\PSoC5/USBFS_pm.c ****             #if(USBFS_EP_MM == USBFS__EP_DMAMANUAL)
 290:.\Generated_Source\PSoC5/USBFS_pm.c ****                 USBFS_ARB_CFG_REG = USBFS_ARB_CFG_MANUAL_DMA;
 291:.\Generated_Source\PSoC5/USBFS_pm.c ****             #endif   /* End USBFS_EP_MM == USBFS__EP_DMAMANUAL */
 292:.\Generated_Source\PSoC5/USBFS_pm.c ****             #if(USBFS_EP_MM == USBFS__EP_DMAAUTO)
 293:.\Generated_Source\PSoC5/USBFS_pm.c ****                 /*Set cfg cmplt this rises DMA request when the full configuration is done */
 294:.\Generated_Source\PSoC5/USBFS_pm.c ****                 USBFS_ARB_CFG_REG = USBFS_ARB_CFG_AUTO_DMA | USBFS_ARB_CFG_AUTO_MEM;
 422              		.loc 1 294 0
 423 0120 46F29C03 		movw	r3, #:lower16:1073766556
 424 0124 C4F20003 		movt	r3, #:upper16:1073766556
 425 0128 4FF05002 		mov	r2, #80
 426 012c 1A70     		strb	r2, [r3, #0]
 295:.\Generated_Source\PSoC5/USBFS_pm.c ****             #endif   /* End USBFS_EP_MM == USBFS__EP_DMAAUTO */
 296:.\Generated_Source\PSoC5/USBFS_pm.c ****         #endif   /* End USBFS_EP_MM != USBFS__EP_MANUAL */
 297:.\Generated_Source\PSoC5/USBFS_pm.c **** 
 298:.\Generated_Source\PSoC5/USBFS_pm.c ****         /* STALL_IN_OUT */
 299:.\Generated_Source\PSoC5/USBFS_pm.c ****         CY_SET_REG8(USBFS_EP0_CR_PTR, USBFS_MODE_STALL_IN_OUT);
 427              		.loc 1 299 0
 428 012e 46F22803 		movw	r3, #:lower16:1073766440
 429 0132 C4F20003 		movt	r3, #:upper16:1073766440
 430 0136 4FF00302 		mov	r2, #3
 431 013a 1A70     		strb	r2, [r3, #0]
 300:.\Generated_Source\PSoC5/USBFS_pm.c ****         /* Enable the SIE with a last address */
 301:.\Generated_Source\PSoC5/USBFS_pm.c ****         USBFS_CR0_REG |= USBFS_CR0_ENABLE;
 432              		.loc 1 301 0
 433 013c 46F20803 		movw	r3, #:lower16:1073766408
 434 0140 C4F20003 		movt	r3, #:upper16:1073766408
 435 0144 46F20802 		movw	r2, #:lower16:1073766408
 436 0148 C4F20002 		movt	r2, #:upper16:1073766408
ARM GAS  C:\DOCUME~1\ADMINI~1\LOCALS~1\Temp\ccACbaxA.s 			page 14


 437 014c 1278     		ldrb	r2, [r2, #0]
 438 014e D2B2     		uxtb	r2, r2
 439 0150 6FEA4262 		mvn	r2, r2, lsl #25
 440 0154 6FEA5262 		mvn	r2, r2, lsr #25
 441 0158 D2B2     		uxtb	r2, r2
 442 015a 1A70     		strb	r2, [r3, #0]
 302:.\Generated_Source\PSoC5/USBFS_pm.c ****         CyDelayCycles(1);
 443              		.loc 1 302 0
 444 015c 4FF00100 		mov	r0, #1
 445 0160 FFF7FEFF 		bl	CyDelayCycles
 303:.\Generated_Source\PSoC5/USBFS_pm.c ****         /* Finally, Enable d+ pullup and select iomode to USB mode*/
 304:.\Generated_Source\PSoC5/USBFS_pm.c ****         CY_SET_REG8(USBFS_USBIO_CR1_PTR, USBFS_USBIO_CR1_USBPUEN);
 446              		.loc 1 304 0
 447 0164 46F21203 		movw	r3, #:lower16:1073766418
 448 0168 C4F20003 		movt	r3, #:upper16:1073766418
 449 016c 4FF00402 		mov	r2, #4
 450 0170 1A70     		strb	r2, [r3, #0]
 305:.\Generated_Source\PSoC5/USBFS_pm.c **** 
 306:.\Generated_Source\PSoC5/USBFS_pm.c ****         /* Restore USB register settings */
 307:.\Generated_Source\PSoC5/USBFS_pm.c ****         USBFS_RestoreConfig();
 451              		.loc 1 307 0
 452 0172 FFF7FEFF 		bl	USBFS_RestoreConfig
 453              	.L13:
 308:.\Generated_Source\PSoC5/USBFS_pm.c ****     
 309:.\Generated_Source\PSoC5/USBFS_pm.c ****     }
 310:.\Generated_Source\PSoC5/USBFS_pm.c ****     CyExitCriticalSection(enableInterrupts);
 454              		.loc 1 310 0
 455 0176 FB79     		ldrb	r3, [r7, #7]	@ zero_extendqisi2
 456 0178 1846     		mov	r0, r3
 457 017a FFF7FEFF 		bl	CyExitCriticalSection
 311:.\Generated_Source\PSoC5/USBFS_pm.c **** }
 458              		.loc 1 311 0
 459 017e 07F10807 		add	r7, r7, #8
 460 0182 BD46     		mov	sp, r7
 461 0184 80BD     		pop	{r7, pc}
 462              		.cfi_endproc
 463              	.LFE33:
 464              		.size	USBFS_Resume, .-USBFS_Resume
 465 0186 00BF     		.text
 466              	.Letext0: