ARM GAS  C:\DOCUME~1\ADMINI~1\LOCALS~1\Temp\ccUDmxxJ.s 			page 1


   1              		.syntax unified
   2              		.cpu cortex-m3
   3              		.fpu softvfp
   4              		.eabi_attribute 20, 1
   5              		.eabi_attribute 21, 1
   6              		.eabi_attribute 23, 3
   7              		.eabi_attribute 24, 1
   8              		.eabi_attribute 25, 1
   9              		.eabi_attribute 26, 1
  10              		.eabi_attribute 30, 6
  11              		.eabi_attribute 18, 4
  12              		.thumb
  13              		.file	"USBFS_audio.c"
  20 0000 33010000 		.text
  20      02009600 
  20      00000201 
  20      FB0E0D00 
  20      01010101 
  21              	.Ltext0:
  22              		.cfi_sections	.debug_frame
  23              		.comm	USBFS_currentSampleFrequency,27,4
  24              		.comm	USBFS_frequencyChanged,1,1
  25              		.comm	USBFS_currentMute,1,1
  26              		.comm	USBFS_currentVolume,2,4
  27              		.global	USBFS_minimumVolume
  28              		.data
  29              		.align	2
  30              		.type	USBFS_minimumVolume, %object
  31              		.size	USBFS_minimumVolume, 2
  32              	USBFS_minimumVolume:
  33 0000 01       		.byte	1
  34 0001 80       		.byte	-128
  35              		.global	USBFS_maximumVolume
  36 0002 0000     		.align	2
  37              		.type	USBFS_maximumVolume, %object
  38              		.size	USBFS_maximumVolume, 2
  39              	USBFS_maximumVolume:
  40 0004 FF       		.byte	-1
  41 0005 7F       		.byte	127
  42              		.global	USBFS_resolutionVolume
  43 0006 0000     		.align	2
  44              		.type	USBFS_resolutionVolume, %object
  45              		.size	USBFS_resolutionVolume, 2
  46              	USBFS_resolutionVolume:
  47 0008 01       		.byte	1
  48 0009 00       		.byte	0
  49              		.comm	USBFS_currentCH1InputVolume,2,4
  50              		.comm	USBFS_currentCH2InputVolume,2,4
  51              		.comm	USBFS_currentTmpCH1InputVolume,2,4
  52              		.comm	USBFS_currentTmpCH2InputVolume,2,4
  53              		.comm	USB_inputMute,1,1
ARM GAS  C:\DOCUME~1\ADMINI~1\LOCALS~1\Temp\ccUDmxxJ.s 			page 2


  54              		.comm	USB_inputVolume,2,4
  55 000a 0000     		.section	.text.USBFS_DispatchAUDIOClassRqst,"ax",%progbits
  56              		.align	2
  57              		.global	USBFS_DispatchAUDIOClassRqst
  58              		.thumb
  59              		.thumb_func
  60              		.type	USBFS_DispatchAUDIOClassRqst, %function
  61              	USBFS_DispatchAUDIOClassRqst:
  62              	.LFB29:
  63              		.file 1 ".\\Generated_Source\\PSoC5\\USBFS_audio.c"
   1:.\Generated_Source\PSoC5/USBFS_audio.c **** /*******************************************************************************
   2:.\Generated_Source\PSoC5/USBFS_audio.c **** * File Name: USBFS_audio.c
   3:.\Generated_Source\PSoC5/USBFS_audio.c **** * Version 2.50
   4:.\Generated_Source\PSoC5/USBFS_audio.c **** *
   5:.\Generated_Source\PSoC5/USBFS_audio.c **** * Description:
   6:.\Generated_Source\PSoC5/USBFS_audio.c **** *  USB AUDIO Class request handler.
   7:.\Generated_Source\PSoC5/USBFS_audio.c **** *
   8:.\Generated_Source\PSoC5/USBFS_audio.c **** * Note:
   9:.\Generated_Source\PSoC5/USBFS_audio.c **** *
  10:.\Generated_Source\PSoC5/USBFS_audio.c **** ********************************************************************************
  11:.\Generated_Source\PSoC5/USBFS_audio.c **** * Copyright 2008-2012, Cypress Semiconductor Corporation.  All rights reserved.
  12:.\Generated_Source\PSoC5/USBFS_audio.c **** * You may use this file only in accordance with the license, terms, conditions,
  13:.\Generated_Source\PSoC5/USBFS_audio.c **** * disclaimers, and limitations in the end user license agreement accompanying
  14:.\Generated_Source\PSoC5/USBFS_audio.c **** * the software package with which this file was provided.
  15:.\Generated_Source\PSoC5/USBFS_audio.c **** *******************************************************************************/
  16:.\Generated_Source\PSoC5/USBFS_audio.c **** 
  17:.\Generated_Source\PSoC5/USBFS_audio.c **** #include "USBFS.h"
  18:.\Generated_Source\PSoC5/USBFS_audio.c **** 
  19:.\Generated_Source\PSoC5/USBFS_audio.c **** #if defined(USBFS_ENABLE_AUDIO_CLASS)
  20:.\Generated_Source\PSoC5/USBFS_audio.c **** 
  21:.\Generated_Source\PSoC5/USBFS_audio.c **** #include "USBFS_audio.h"
  22:.\Generated_Source\PSoC5/USBFS_audio.c **** #include "USBFS_midi.h"
  23:.\Generated_Source\PSoC5/USBFS_audio.c **** 
  24:.\Generated_Source\PSoC5/USBFS_audio.c **** 
  25:.\Generated_Source\PSoC5/USBFS_audio.c **** /***************************************
  26:.\Generated_Source\PSoC5/USBFS_audio.c **** *    AUDIO Variables
  27:.\Generated_Source\PSoC5/USBFS_audio.c **** ***************************************/
  28:.\Generated_Source\PSoC5/USBFS_audio.c **** 
  29:.\Generated_Source\PSoC5/USBFS_audio.c **** #if defined(USBFS_ENABLE_AUDIO_STREAMING)
  30:.\Generated_Source\PSoC5/USBFS_audio.c ****     volatile uint8 USBFS_currentSampleFrequency[USBFS_MAX_EP][USBFS_SAMPLE_FREQ_LEN];
  31:.\Generated_Source\PSoC5/USBFS_audio.c ****     volatile uint8 USBFS_frequencyChanged;
  32:.\Generated_Source\PSoC5/USBFS_audio.c ****     volatile uint8 USBFS_currentMute;
  33:.\Generated_Source\PSoC5/USBFS_audio.c ****     volatile uint8 USBFS_currentVolume[USBFS_VOLUME_LEN];
  34:.\Generated_Source\PSoC5/USBFS_audio.c ****     volatile uint8 USBFS_minimumVolume[] = {0x01, 0x80};
  35:.\Generated_Source\PSoC5/USBFS_audio.c ****     volatile uint8 USBFS_maximumVolume[] = {0xFF, 0x7F};
  36:.\Generated_Source\PSoC5/USBFS_audio.c ****     volatile uint8 USBFS_resolutionVolume[] = {0x01, 0x00};
  37:.\Generated_Source\PSoC5/USBFS_audio.c **** #endif /* End USBFS_ENABLE_AUDIO_STREAMING */
  38:.\Generated_Source\PSoC5/USBFS_audio.c **** 
  39:.\Generated_Source\PSoC5/USBFS_audio.c **** 
  40:.\Generated_Source\PSoC5/USBFS_audio.c **** /***************************************
  41:.\Generated_Source\PSoC5/USBFS_audio.c **** * Custom Declarations
  42:.\Generated_Source\PSoC5/USBFS_audio.c **** ***************************************/
  43:.\Generated_Source\PSoC5/USBFS_audio.c **** 
  44:.\Generated_Source\PSoC5/USBFS_audio.c **** /* `#START CUSTOM_DECLARATIONS` Place your declaration here */
  45:.\Generated_Source\PSoC5/USBFS_audio.c **** #include "Application.h"
  46:.\Generated_Source\PSoC5/USBFS_audio.c **** extern uint8 volumeUpdateReceived;
  47:.\Generated_Source\PSoC5/USBFS_audio.c **** #define OUTPUT_VOLUME_FEATURE_UNIT   0x02
ARM GAS  C:\DOCUME~1\ADMINI~1\LOCALS~1\Temp\ccUDmxxJ.s 			page 3


  48:.\Generated_Source\PSoC5/USBFS_audio.c **** #define INPUT_VOLUME_FEATURE_UNIT    0x06
  49:.\Generated_Source\PSoC5/USBFS_audio.c **** 
  50:.\Generated_Source\PSoC5/USBFS_audio.c **** volatile uint8 USBFS_currentCH1InputVolume[USBFS_VOLUME_LEN];
  51:.\Generated_Source\PSoC5/USBFS_audio.c **** volatile uint8 USBFS_currentCH2InputVolume[USBFS_VOLUME_LEN];
  52:.\Generated_Source\PSoC5/USBFS_audio.c **** volatile uint8 USBFS_currentTmpCH1InputVolume[USBFS_VOLUME_LEN];
  53:.\Generated_Source\PSoC5/USBFS_audio.c **** volatile uint8 USBFS_currentTmpCH2InputVolume[USBFS_VOLUME_LEN];
  54:.\Generated_Source\PSoC5/USBFS_audio.c **** 
  55:.\Generated_Source\PSoC5/USBFS_audio.c **** #ifndef ENABLE_DIGITAL_AUDIO_OUT_ONLY
  56:.\Generated_Source\PSoC5/USBFS_audio.c **** volatile uint8 USB_inputMute;
  57:.\Generated_Source\PSoC5/USBFS_audio.c **** volatile uint8 USB_inputVolume[USBFS_VOLUME_LEN];
  58:.\Generated_Source\PSoC5/USBFS_audio.c **** #endif 
  59:.\Generated_Source\PSoC5/USBFS_audio.c **** /* `#END` */
  60:.\Generated_Source\PSoC5/USBFS_audio.c **** 
  61:.\Generated_Source\PSoC5/USBFS_audio.c **** 
  62:.\Generated_Source\PSoC5/USBFS_audio.c **** /***************************************
  63:.\Generated_Source\PSoC5/USBFS_audio.c **** *    External references
  64:.\Generated_Source\PSoC5/USBFS_audio.c **** ***************************************/
  65:.\Generated_Source\PSoC5/USBFS_audio.c **** 
  66:.\Generated_Source\PSoC5/USBFS_audio.c **** uint8 USBFS_InitControlRead(void) ;
  67:.\Generated_Source\PSoC5/USBFS_audio.c **** uint8 USBFS_InitControlWrite(void) ;
  68:.\Generated_Source\PSoC5/USBFS_audio.c **** uint8 USBFS_InitNoDataControlTransfer(void) ;
  69:.\Generated_Source\PSoC5/USBFS_audio.c **** uint8 USBFS_InitZeroLengthControlTransfer(void)
  70:.\Generated_Source\PSoC5/USBFS_audio.c ****                                                 ;
  71:.\Generated_Source\PSoC5/USBFS_audio.c **** 
  72:.\Generated_Source\PSoC5/USBFS_audio.c **** extern volatile T_USBFS_EP_CTL_BLOCK USBFS_EP[];
  73:.\Generated_Source\PSoC5/USBFS_audio.c **** extern volatile T_USBFS_TD USBFS_currentTD;
  74:.\Generated_Source\PSoC5/USBFS_audio.c **** 
  75:.\Generated_Source\PSoC5/USBFS_audio.c **** 
  76:.\Generated_Source\PSoC5/USBFS_audio.c **** /***************************************
  77:.\Generated_Source\PSoC5/USBFS_audio.c **** *    Private function prototypes
  78:.\Generated_Source\PSoC5/USBFS_audio.c **** ***************************************/
  79:.\Generated_Source\PSoC5/USBFS_audio.c **** 
  80:.\Generated_Source\PSoC5/USBFS_audio.c **** 
  81:.\Generated_Source\PSoC5/USBFS_audio.c **** /*******************************************************************************
  82:.\Generated_Source\PSoC5/USBFS_audio.c **** * Function Name: USBFS_DispatchAUDIOClassRqst
  83:.\Generated_Source\PSoC5/USBFS_audio.c **** ********************************************************************************
  84:.\Generated_Source\PSoC5/USBFS_audio.c **** *
  85:.\Generated_Source\PSoC5/USBFS_audio.c **** * Summary:
  86:.\Generated_Source\PSoC5/USBFS_audio.c **** *  This routine dispatches class requests
  87:.\Generated_Source\PSoC5/USBFS_audio.c **** *
  88:.\Generated_Source\PSoC5/USBFS_audio.c **** * Parameters:
  89:.\Generated_Source\PSoC5/USBFS_audio.c **** *  None.
  90:.\Generated_Source\PSoC5/USBFS_audio.c **** *
  91:.\Generated_Source\PSoC5/USBFS_audio.c **** * Return:
  92:.\Generated_Source\PSoC5/USBFS_audio.c **** *  requestHandled
  93:.\Generated_Source\PSoC5/USBFS_audio.c **** *
  94:.\Generated_Source\PSoC5/USBFS_audio.c **** * Global variables:
  95:.\Generated_Source\PSoC5/USBFS_audio.c **** *   USBFS_currentSampleFrequency: Contains the current audio Sample
  96:.\Generated_Source\PSoC5/USBFS_audio.c **** *       Frequency. It is set by the Host using SET_CUR request to the endpoint.
  97:.\Generated_Source\PSoC5/USBFS_audio.c **** *   USBFS_frequencyChanged: This variable is used as a flag for the
  98:.\Generated_Source\PSoC5/USBFS_audio.c **** *       user code, to be aware that Host has been sent request for changing
  99:.\Generated_Source\PSoC5/USBFS_audio.c **** *       Sample Frequency. Sample frequency will be sent on the next OUT
 100:.\Generated_Source\PSoC5/USBFS_audio.c **** *       transaction. It is contains endpoint address when set. The following
 101:.\Generated_Source\PSoC5/USBFS_audio.c **** *       code is recommended for detecting new Sample Frequency in main code:
 102:.\Generated_Source\PSoC5/USBFS_audio.c **** *       if((USBFS_frequencyChanged != 0) &&
 103:.\Generated_Source\PSoC5/USBFS_audio.c **** *       (USBFS_transferState == USBFS_TRANS_STATE_IDLE))
 104:.\Generated_Source\PSoC5/USBFS_audio.c **** *       {
ARM GAS  C:\DOCUME~1\ADMINI~1\LOCALS~1\Temp\ccUDmxxJ.s 			page 4


 105:.\Generated_Source\PSoC5/USBFS_audio.c **** *          USBFS_frequencyChanged = 0;
 106:.\Generated_Source\PSoC5/USBFS_audio.c **** *       }
 107:.\Generated_Source\PSoC5/USBFS_audio.c **** *       USBFS_transferState variable is checked to be sure that
 108:.\Generated_Source\PSoC5/USBFS_audio.c **** *             transfer completes.
 109:.\Generated_Source\PSoC5/USBFS_audio.c **** *   USBFS_currentMute: Contains mute configuration set by Host.
 110:.\Generated_Source\PSoC5/USBFS_audio.c **** *   USBFS_currentVolume: Contains volume level set by Host.
 111:.\Generated_Source\PSoC5/USBFS_audio.c **** *
 112:.\Generated_Source\PSoC5/USBFS_audio.c **** * Reentrant:
 113:.\Generated_Source\PSoC5/USBFS_audio.c **** *  No.
 114:.\Generated_Source\PSoC5/USBFS_audio.c **** *
 115:.\Generated_Source\PSoC5/USBFS_audio.c **** *******************************************************************************/
 116:.\Generated_Source\PSoC5/USBFS_audio.c **** uint8 USBFS_DispatchAUDIOClassRqst() 
 117:.\Generated_Source\PSoC5/USBFS_audio.c **** {
  64              		.loc 1 117 0
  65              		.cfi_startproc
  66              		@ args = 0, pretend = 0, frame = 8
  67              		@ frame_needed = 1, uses_anonymous_args = 0
  68 0000 80B5     		push	{r7, lr}
  69              	.LCFI0:
  70              		.cfi_def_cfa_offset 8
  71 0002 82B0     		sub	sp, sp, #8
  72              	.LCFI1:
  73              		.cfi_def_cfa_offset 16
  74 0004 00AF     		add	r7, sp, #0
  75              		.cfi_offset 14, -4
  76              		.cfi_offset 7, -8
  77              	.LCFI2:
  78              		.cfi_def_cfa_register 7
 118:.\Generated_Source\PSoC5/USBFS_audio.c ****     uint8 requestHandled = USBFS_FALSE;
  79              		.loc 1 118 0
  80 0006 4FF00003 		mov	r3, #0
  81 000a BB71     		strb	r3, [r7, #6]
 119:.\Generated_Source\PSoC5/USBFS_audio.c ****     
 120:.\Generated_Source\PSoC5/USBFS_audio.c ****     #if defined(USBFS_ENABLE_AUDIO_STREAMING)
 121:.\Generated_Source\PSoC5/USBFS_audio.c ****         uint8 epNumber;
 122:.\Generated_Source\PSoC5/USBFS_audio.c ****         epNumber = CY_GET_REG8(USBFS_wIndexLo) & USBFS_DIR_UNUSED;
  82              		.loc 1 122 0
  83 000c 46F20403 		movw	r3, #:lower16:1073766404
  84 0010 C4F20003 		movt	r3, #:upper16:1073766404
  85 0014 1B78     		ldrb	r3, [r3, #0]
  86 0016 DBB2     		uxtb	r3, r3
  87 0018 03F07F03 		and	r3, r3, #127
  88 001c FB71     		strb	r3, [r7, #7]
 123:.\Generated_Source\PSoC5/USBFS_audio.c ****     #endif /* End USBFS_ENABLE_AUDIO_STREAMING */
 124:.\Generated_Source\PSoC5/USBFS_audio.c **** 
 125:.\Generated_Source\PSoC5/USBFS_audio.c ****     if ((CY_GET_REG8(USBFS_bmRequestType) & USBFS_RQST_DIR_MASK) == USBFS_RQST_DIR_D2H)
  89              		.loc 1 125 0
  90 001e 46F20003 		movw	r3, #:lower16:1073766400
  91 0022 C4F20003 		movt	r3, #:upper16:1073766400
  92 0026 1B78     		ldrb	r3, [r3, #0]
  93 0028 DBB2     		uxtb	r3, r3
  94 002a 5BB2     		sxtb	r3, r3
  95 002c 002B     		cmp	r3, #0
  96 002e 80F23381 		bge	.L2
 126:.\Generated_Source\PSoC5/USBFS_audio.c ****     {
 127:.\Generated_Source\PSoC5/USBFS_audio.c ****         /* Control Read */
 128:.\Generated_Source\PSoC5/USBFS_audio.c ****         if((CY_GET_REG8(USBFS_bmRequestType) & USBFS_RQST_RCPT_MASK) == \
ARM GAS  C:\DOCUME~1\ADMINI~1\LOCALS~1\Temp\ccUDmxxJ.s 			page 5


  97              		.loc 1 128 0
  98 0032 46F20003 		movw	r3, #:lower16:1073766400
  99 0036 C4F20003 		movt	r3, #:upper16:1073766400
 100 003a 1B78     		ldrb	r3, [r3, #0]
 101 003c DBB2     		uxtb	r3, r3
 102 003e 03F00303 		and	r3, r3, #3
 103 0042 022B     		cmp	r3, #2
 104 0044 2CD1     		bne	.L3
 129:.\Generated_Source\PSoC5/USBFS_audio.c ****                                                                                     USBFS_RQST_RCPT
 130:.\Generated_Source\PSoC5/USBFS_audio.c ****         {
 131:.\Generated_Source\PSoC5/USBFS_audio.c ****             /* Endpoint */
 132:.\Generated_Source\PSoC5/USBFS_audio.c ****             switch (CY_GET_REG8(USBFS_bRequest))
 105              		.loc 1 132 0
 106 0046 46F20103 		movw	r3, #:lower16:1073766401
 107 004a C4F20003 		movt	r3, #:upper16:1073766401
 108 004e 1B78     		ldrb	r3, [r3, #0]
 109 0050 DBB2     		uxtb	r3, r3
 110 0052 812B     		cmp	r3, #129
 111 0054 40F00282 		bne	.L37
 112              	.L5:
 133:.\Generated_Source\PSoC5/USBFS_audio.c ****             {
 134:.\Generated_Source\PSoC5/USBFS_audio.c ****                 case USBFS_GET_CUR:
 135:.\Generated_Source\PSoC5/USBFS_audio.c ****                 #if defined(USBFS_ENABLE_AUDIO_STREAMING)
 136:.\Generated_Source\PSoC5/USBFS_audio.c ****                     if(CY_GET_REG8(USBFS_wValueHi) == USBFS_SAMPLING_FREQ_CONTROL)
 113              		.loc 1 136 0
 114 0058 46F20303 		movw	r3, #:lower16:1073766403
 115 005c C4F20003 		movt	r3, #:upper16:1073766403
 116 0060 1B78     		ldrb	r3, [r3, #0]
 117 0062 DBB2     		uxtb	r3, r3
 118 0064 012B     		cmp	r3, #1
 119 0066 40F0FB81 		bne	.L38
 137:.\Generated_Source\PSoC5/USBFS_audio.c ****                     {
 138:.\Generated_Source\PSoC5/USBFS_audio.c ****                          /* Endpoint Control Selector is Sampling Frequency */
 139:.\Generated_Source\PSoC5/USBFS_audio.c ****                         USBFS_currentTD.wCount = USBFS_SAMPLE_FREQ_LEN;
 120              		.loc 1 139 0
 121 006a 40F20003 		movw	r3, #:lower16:USBFS_currentTD
 122 006e C0F20003 		movt	r3, #:upper16:USBFS_currentTD
 123 0072 4FF00302 		mov	r2, #3
 124 0076 1A80     		strh	r2, [r3, #0]	@ movhi
 140:.\Generated_Source\PSoC5/USBFS_audio.c ****                         USBFS_currentTD.pData  = USBFS_currentSampleFrequency[epNumber];
 125              		.loc 1 140 0
 126 0078 40F20003 		movw	r3, #:lower16:USBFS_currentSampleFrequency
 127 007c C0F20003 		movt	r3, #:upper16:USBFS_currentSampleFrequency
 128 0080 F979     		ldrb	r1, [r7, #7]	@ zero_extendqisi2
 129 0082 0A46     		mov	r2, r1
 130 0084 4FEA4202 		lsl	r2, r2, #1
 131 0088 0A44     		add	r2, r2, r1
 132 008a 1A44     		add	r2, r3, r2
 133 008c 40F20003 		movw	r3, #:lower16:USBFS_currentTD
 134 0090 C0F20003 		movt	r3, #:upper16:USBFS_currentTD
 135 0094 5A60     		str	r2, [r3, #4]
 141:.\Generated_Source\PSoC5/USBFS_audio.c ****                         requestHandled   = USBFS_InitControlRead();
 136              		.loc 1 141 0
 137 0096 FFF7FEFF 		bl	USBFS_InitControlRead
 138 009a 0346     		mov	r3, r0
 139 009c BB71     		strb	r3, [r7, #6]
 142:.\Generated_Source\PSoC5/USBFS_audio.c ****                     }
ARM GAS  C:\DOCUME~1\ADMINI~1\LOCALS~1\Temp\ccUDmxxJ.s 			page 6


 143:.\Generated_Source\PSoC5/USBFS_audio.c ****                 #endif /* End USBFS_ENABLE_AUDIO_STREAMING */
 144:.\Generated_Source\PSoC5/USBFS_audio.c **** 
 145:.\Generated_Source\PSoC5/USBFS_audio.c ****                 /* `#START AUDIO_READ_REQUESTS` Place other request handler here */
 146:.\Generated_Source\PSoC5/USBFS_audio.c **** 
 147:.\Generated_Source\PSoC5/USBFS_audio.c ****                 /* `#END` */
 148:.\Generated_Source\PSoC5/USBFS_audio.c ****                     break;
 149:.\Generated_Source\PSoC5/USBFS_audio.c ****                 default:
 150:.\Generated_Source\PSoC5/USBFS_audio.c ****                     break;
 151:.\Generated_Source\PSoC5/USBFS_audio.c ****             }
 152:.\Generated_Source\PSoC5/USBFS_audio.c ****         }
 153:.\Generated_Source\PSoC5/USBFS_audio.c ****         else if((CY_GET_REG8(USBFS_bmRequestType) & USBFS_RQST_RCPT_MASK) == \
 154:.\Generated_Source\PSoC5/USBFS_audio.c ****                                                                                     USBFS_RQST_RCPT
 155:.\Generated_Source\PSoC5/USBFS_audio.c ****         {
 156:.\Generated_Source\PSoC5/USBFS_audio.c ****             /* Interface or Entity ID */
 157:.\Generated_Source\PSoC5/USBFS_audio.c ****             switch (CY_GET_REG8(USBFS_bRequest))
 158:.\Generated_Source\PSoC5/USBFS_audio.c ****             {
 159:.\Generated_Source\PSoC5/USBFS_audio.c ****                 case USBFS_GET_CUR:
 160:.\Generated_Source\PSoC5/USBFS_audio.c ****                 #if defined(USBFS_ENABLE_AUDIO_STREAMING)
 161:.\Generated_Source\PSoC5/USBFS_audio.c ****                     if(CY_GET_REG8(USBFS_wValueHi) == USBFS_MUTE_CONTROL)
 162:.\Generated_Source\PSoC5/USBFS_audio.c ****                     {
 163:.\Generated_Source\PSoC5/USBFS_audio.c ****                          /* Entity ID Control Selector is MUTE */
 164:.\Generated_Source\PSoC5/USBFS_audio.c ****                         USBFS_currentTD.wCount = 1;
 165:.\Generated_Source\PSoC5/USBFS_audio.c ****                         USBFS_currentTD.pData  = &USBFS_currentMute;
 166:.\Generated_Source\PSoC5/USBFS_audio.c ****                         requestHandled   = USBFS_InitControlRead();
 167:.\Generated_Source\PSoC5/USBFS_audio.c ****                     }
 168:.\Generated_Source\PSoC5/USBFS_audio.c ****                     else if(CY_GET_REG8(USBFS_wValueHi) == USBFS_VOLUME_CONTROL)
 169:.\Generated_Source\PSoC5/USBFS_audio.c ****                     {
 170:.\Generated_Source\PSoC5/USBFS_audio.c ****                         /* `#START VOLUME_CONTROL_GET_REQUEST` Place multi-channel handler here */
 171:.\Generated_Source\PSoC5/USBFS_audio.c ****                         #ifndef ENABLE_DIGITAL_AUDIO_OUT_ONLY
 172:.\Generated_Source\PSoC5/USBFS_audio.c ****                             USBFS_currentTD.wCount = USBFS_VOLUME_LEN;
 173:.\Generated_Source\PSoC5/USBFS_audio.c ****     						switch(CY_GET_REG8(USBFS_wIndexHi))
 174:.\Generated_Source\PSoC5/USBFS_audio.c ****     	                    {
 175:.\Generated_Source\PSoC5/USBFS_audio.c ****                                 case INPUT_VOLUME_FEATURE_UNIT:
 176:.\Generated_Source\PSoC5/USBFS_audio.c **** 	                            USBFS_currentTD.pData  = USB_inputVolume;
 177:.\Generated_Source\PSoC5/USBFS_audio.c ****                                 if(CY_GET_REG8(USBFS_wValueLo) == 1)	/* channel 1 input volume upda
 178:.\Generated_Source\PSoC5/USBFS_audio.c ****     							{
 179:.\Generated_Source\PSoC5/USBFS_audio.c ****                             		USBFS_currentTD.pData  = &USBFS_currentCH1InputVolume[0];							
 180:.\Generated_Source\PSoC5/USBFS_audio.c ****     							}
 181:.\Generated_Source\PSoC5/USBFS_audio.c ****     							else if(CY_GET_REG8(USBFS_wValueLo) == 2)	/* channel 2 input volume update to host */
 182:.\Generated_Source\PSoC5/USBFS_audio.c ****     							{
 183:.\Generated_Source\PSoC5/USBFS_audio.c ****                             		USBFS_currentTD.pData  = &USBFS_currentCH2InputVolume[0];							
 184:.\Generated_Source\PSoC5/USBFS_audio.c ****     							}
 185:.\Generated_Source\PSoC5/USBFS_audio.c ****                                 break;
 186:.\Generated_Source\PSoC5/USBFS_audio.c ****                                 
 187:.\Generated_Source\PSoC5/USBFS_audio.c ****     							case OUTPUT_VOLUME_FEATURE_UNIT:
 188:.\Generated_Source\PSoC5/USBFS_audio.c ****                                 USBFS_currentTD.pData  = USBFS_currentVolume;
 189:.\Generated_Source\PSoC5/USBFS_audio.c ****                                 break;
 190:.\Generated_Source\PSoC5/USBFS_audio.c ****                             }
 191:.\Generated_Source\PSoC5/USBFS_audio.c ****                             requestHandled   = USBFS_InitControlRead();
 192:.\Generated_Source\PSoC5/USBFS_audio.c ****                             break;
 193:.\Generated_Source\PSoC5/USBFS_audio.c ****                         #endif
 194:.\Generated_Source\PSoC5/USBFS_audio.c ****                         /* `#END` */
 195:.\Generated_Source\PSoC5/USBFS_audio.c **** 
 196:.\Generated_Source\PSoC5/USBFS_audio.c ****                          /* Entity ID Control Selector is VOLUME, */
 197:.\Generated_Source\PSoC5/USBFS_audio.c ****                         USBFS_currentTD.wCount = USBFS_VOLUME_LEN;
 198:.\Generated_Source\PSoC5/USBFS_audio.c ****                         USBFS_currentTD.pData  = USBFS_currentVolume;
 199:.\Generated_Source\PSoC5/USBFS_audio.c ****                         requestHandled   = USBFS_InitControlRead();
ARM GAS  C:\DOCUME~1\ADMINI~1\LOCALS~1\Temp\ccUDmxxJ.s 			page 7


 200:.\Generated_Source\PSoC5/USBFS_audio.c ****                     }
 201:.\Generated_Source\PSoC5/USBFS_audio.c ****                     else
 202:.\Generated_Source\PSoC5/USBFS_audio.c ****                     {
 203:.\Generated_Source\PSoC5/USBFS_audio.c ****                     }
 204:.\Generated_Source\PSoC5/USBFS_audio.c ****                     break;
 205:.\Generated_Source\PSoC5/USBFS_audio.c ****                 case USBFS_GET_MIN:    /* GET_MIN */
 206:.\Generated_Source\PSoC5/USBFS_audio.c ****                     if(CY_GET_REG8(USBFS_wValueHi) == USBFS_VOLUME_CONTROL)
 207:.\Generated_Source\PSoC5/USBFS_audio.c ****                     {
 208:.\Generated_Source\PSoC5/USBFS_audio.c ****                          /* Entity ID Control Selector is VOLUME, */
 209:.\Generated_Source\PSoC5/USBFS_audio.c ****                         USBFS_currentTD.wCount = USBFS_VOLUME_LEN;
 210:.\Generated_Source\PSoC5/USBFS_audio.c ****                         USBFS_currentTD.pData  = &USBFS_minimumVolume[0];
 211:.\Generated_Source\PSoC5/USBFS_audio.c ****                         requestHandled   = USBFS_InitControlRead();
 212:.\Generated_Source\PSoC5/USBFS_audio.c ****                     }
 213:.\Generated_Source\PSoC5/USBFS_audio.c ****                     break;
 214:.\Generated_Source\PSoC5/USBFS_audio.c ****                 case USBFS_GET_MAX:    /* GET_MAX */
 215:.\Generated_Source\PSoC5/USBFS_audio.c ****                     if(CY_GET_REG8(USBFS_wValueHi) == USBFS_VOLUME_CONTROL)
 216:.\Generated_Source\PSoC5/USBFS_audio.c ****                     {
 217:.\Generated_Source\PSoC5/USBFS_audio.c ****                              /* Entity ID Control Selector is VOLUME, */
 218:.\Generated_Source\PSoC5/USBFS_audio.c ****                         USBFS_currentTD.wCount = USBFS_VOLUME_LEN;
 219:.\Generated_Source\PSoC5/USBFS_audio.c ****                         USBFS_currentTD.pData  = &USBFS_maximumVolume[0];
 220:.\Generated_Source\PSoC5/USBFS_audio.c ****                         requestHandled   = USBFS_InitControlRead();
 221:.\Generated_Source\PSoC5/USBFS_audio.c ****                     }
 222:.\Generated_Source\PSoC5/USBFS_audio.c ****                     break;
 223:.\Generated_Source\PSoC5/USBFS_audio.c ****                 case USBFS_GET_RES:    /* GET_RES */
 224:.\Generated_Source\PSoC5/USBFS_audio.c ****                     if(CY_GET_REG8(USBFS_wValueHi) == USBFS_VOLUME_CONTROL)
 225:.\Generated_Source\PSoC5/USBFS_audio.c ****                     {
 226:.\Generated_Source\PSoC5/USBFS_audio.c ****                          /* Entity ID Control Selector is VOLUME, */
 227:.\Generated_Source\PSoC5/USBFS_audio.c ****                         USBFS_currentTD.wCount = USBFS_VOLUME_LEN;
 228:.\Generated_Source\PSoC5/USBFS_audio.c ****                         USBFS_currentTD.pData  = &USBFS_resolutionVolume[0];
 229:.\Generated_Source\PSoC5/USBFS_audio.c ****                         requestHandled   = USBFS_InitControlRead();
 230:.\Generated_Source\PSoC5/USBFS_audio.c ****                     }
 231:.\Generated_Source\PSoC5/USBFS_audio.c ****                     break;
 232:.\Generated_Source\PSoC5/USBFS_audio.c ****                 /* The contents of the status message is reserved for future use.
 233:.\Generated_Source\PSoC5/USBFS_audio.c ****                 *  For the time being, a null packet should be returned in the data stage of the 
 234:.\Generated_Source\PSoC5/USBFS_audio.c ****                 *  control transfer, and the received null packet should be ACKed.
 235:.\Generated_Source\PSoC5/USBFS_audio.c ****                 */
 236:.\Generated_Source\PSoC5/USBFS_audio.c ****                 case USBFS_GET_STAT:
 237:.\Generated_Source\PSoC5/USBFS_audio.c ****                         USBFS_currentTD.wCount = 0;
 238:.\Generated_Source\PSoC5/USBFS_audio.c ****                         requestHandled   = USBFS_InitControlWrite();
 140              		.loc 1 238 0
 141 009e EEE1     		b	.L23
 142              	.L3:
 143              		.loc 1 153 0
 144 00a0 46F20003 		movw	r3, #:lower16:1073766400
 145 00a4 C4F20003 		movt	r3, #:upper16:1073766400
 146 00a8 1B78     		ldrb	r3, [r3, #0]
 147 00aa DBB2     		uxtb	r3, r3
 148 00ac 03F00303 		and	r3, r3, #3
 149 00b0 012B     		cmp	r3, #1
 150 00b2 40F0D781 		bne	.L39
 151              		.loc 1 157 0
 152 00b6 46F20103 		movw	r3, #:lower16:1073766401
 153 00ba C4F20003 		movt	r3, #:upper16:1073766401
 154 00be 1B78     		ldrb	r3, [r3, #0]
 155 00c0 DBB2     		uxtb	r3, r3
 156 00c2 832B     		cmp	r3, #131
 157 00c4 00F0A080 		beq	.L9
ARM GAS  C:\DOCUME~1\ADMINI~1\LOCALS~1\Temp\ccUDmxxJ.s 			page 8


 158 00c8 832B     		cmp	r3, #131
 159 00ca 04DC     		bgt	.L12
 160 00cc 812B     		cmp	r3, #129
 161 00ce 09D0     		beq	.L7
 162 00d0 822B     		cmp	r3, #130
 163 00d2 7BD0     		beq	.L8
 164              		.loc 1 238 0
 165 00d4 D3E1     		b	.L23
 166              	.L12:
 167              		.loc 1 157 0
 168 00d6 842B     		cmp	r3, #132
 169 00d8 00F0B480 		beq	.L10
 170 00dc FF2B     		cmp	r3, #255
 171 00de 00F0CF80 		beq	.L11
 172              		.loc 1 238 0
 173 00e2 CCE1     		b	.L23
 174              	.L7:
 175              		.loc 1 161 0
 176 00e4 46F20303 		movw	r3, #:lower16:1073766403
 177 00e8 C4F20003 		movt	r3, #:upper16:1073766403
 178 00ec 1B78     		ldrb	r3, [r3, #0]
 179 00ee DBB2     		uxtb	r3, r3
 180 00f0 012B     		cmp	r3, #1
 181 00f2 14D1     		bne	.L13
 182              		.loc 1 164 0
 183 00f4 40F20003 		movw	r3, #:lower16:USBFS_currentTD
 184 00f8 C0F20003 		movt	r3, #:upper16:USBFS_currentTD
 185 00fc 4FF00102 		mov	r2, #1
 186 0100 1A80     		strh	r2, [r3, #0]	@ movhi
 187              		.loc 1 165 0
 188 0102 40F20003 		movw	r3, #:lower16:USBFS_currentTD
 189 0106 C0F20003 		movt	r3, #:upper16:USBFS_currentTD
 190 010a 40F20002 		movw	r2, #:lower16:USBFS_currentMute
 191 010e C0F20002 		movt	r2, #:upper16:USBFS_currentMute
 192 0112 5A60     		str	r2, [r3, #4]
 193              		.loc 1 166 0
 194 0114 FFF7FEFF 		bl	USBFS_InitControlRead
 195 0118 0346     		mov	r3, r0
 196 011a BB71     		strb	r3, [r7, #6]
 197              		.loc 1 204 0
 198 011c AFE1     		b	.L23
 199              	.L13:
 200              		.loc 1 168 0
 201 011e 46F20303 		movw	r3, #:lower16:1073766403
 202 0122 C4F20003 		movt	r3, #:upper16:1073766403
 203 0126 1B78     		ldrb	r3, [r3, #0]
 204 0128 DBB2     		uxtb	r3, r3
 205 012a 022B     		cmp	r3, #2
 206 012c 40F09C81 		bne	.L40
 207              		.loc 1 172 0
 208 0130 40F20003 		movw	r3, #:lower16:USBFS_currentTD
 209 0134 C0F20003 		movt	r3, #:upper16:USBFS_currentTD
 210 0138 4FF00202 		mov	r2, #2
 211 013c 1A80     		strh	r2, [r3, #0]	@ movhi
 212              		.loc 1 173 0
 213 013e 46F20503 		movw	r3, #:lower16:1073766405
 214 0142 C4F20003 		movt	r3, #:upper16:1073766405
ARM GAS  C:\DOCUME~1\ADMINI~1\LOCALS~1\Temp\ccUDmxxJ.s 			page 9


 215 0146 1B78     		ldrb	r3, [r3, #0]
 216 0148 DBB2     		uxtb	r3, r3
 217 014a 022B     		cmp	r3, #2
 218 014c 2ED0     		beq	.L16
 219 014e 062B     		cmp	r3, #6
 220 0150 37D1     		bne	.L15
 221              	.L17:
 222              		.loc 1 176 0
 223 0152 40F20003 		movw	r3, #:lower16:USBFS_currentTD
 224 0156 C0F20003 		movt	r3, #:upper16:USBFS_currentTD
 225 015a 40F20002 		movw	r2, #:lower16:USB_inputVolume
 226 015e C0F20002 		movt	r2, #:upper16:USB_inputVolume
 227 0162 5A60     		str	r2, [r3, #4]
 228              		.loc 1 177 0
 229 0164 46F20203 		movw	r3, #:lower16:1073766402
 230 0168 C4F20003 		movt	r3, #:upper16:1073766402
 231 016c 1B78     		ldrb	r3, [r3, #0]
 232 016e DBB2     		uxtb	r3, r3
 233 0170 012B     		cmp	r3, #1
 234 0172 09D1     		bne	.L18
 235              		.loc 1 179 0
 236 0174 40F20003 		movw	r3, #:lower16:USBFS_currentTD
 237 0178 C0F20003 		movt	r3, #:upper16:USBFS_currentTD
 238 017c 40F20002 		movw	r2, #:lower16:USBFS_currentCH1InputVolume
 239 0180 C0F20002 		movt	r2, #:upper16:USBFS_currentCH1InputVolume
 240 0184 5A60     		str	r2, [r3, #4]
 241              		.loc 1 185 0
 242 0186 1CE0     		b	.L15
 243              	.L18:
 244              		.loc 1 181 0
 245 0188 46F20203 		movw	r3, #:lower16:1073766402
 246 018c C4F20003 		movt	r3, #:upper16:1073766402
 247 0190 1B78     		ldrb	r3, [r3, #0]
 248 0192 DBB2     		uxtb	r3, r3
 249 0194 022B     		cmp	r3, #2
 250 0196 13D1     		bne	.L41
 251              		.loc 1 183 0
 252 0198 40F20003 		movw	r3, #:lower16:USBFS_currentTD
 253 019c C0F20003 		movt	r3, #:upper16:USBFS_currentTD
 254 01a0 40F20002 		movw	r2, #:lower16:USBFS_currentCH2InputVolume
 255 01a4 C0F20002 		movt	r2, #:upper16:USBFS_currentCH2InputVolume
 256 01a8 5A60     		str	r2, [r3, #4]
 257              		.loc 1 185 0
 258 01aa 0AE0     		b	.L15
 259              	.L16:
 260              		.loc 1 188 0
 261 01ac 40F20003 		movw	r3, #:lower16:USBFS_currentTD
 262 01b0 C0F20003 		movt	r3, #:upper16:USBFS_currentTD
 263 01b4 40F20002 		movw	r2, #:lower16:USBFS_currentVolume
 264 01b8 C0F20002 		movt	r2, #:upper16:USBFS_currentVolume
 265 01bc 5A60     		str	r2, [r3, #4]
 266 01be 00E0     		b	.L15
 267              	.L41:
 268              		.loc 1 185 0
 269 01c0 00BF     		nop
 270              	.L15:
 271              		.loc 1 191 0
ARM GAS  C:\DOCUME~1\ADMINI~1\LOCALS~1\Temp\ccUDmxxJ.s 			page 10


 272 01c2 FFF7FEFF 		bl	USBFS_InitControlRead
 273 01c6 0346     		mov	r3, r0
 274 01c8 BB71     		strb	r3, [r7, #6]
 275              		.loc 1 192 0
 276 01ca 58E1     		b	.L23
 277              	.L8:
 278              		.loc 1 206 0
 279 01cc 46F20303 		movw	r3, #:lower16:1073766403
 280 01d0 C4F20003 		movt	r3, #:upper16:1073766403
 281 01d4 1B78     		ldrb	r3, [r3, #0]
 282 01d6 DBB2     		uxtb	r3, r3
 283 01d8 022B     		cmp	r3, #2
 284 01da 40F04781 		bne	.L42
 285              		.loc 1 209 0
 286 01de 40F20003 		movw	r3, #:lower16:USBFS_currentTD
 287 01e2 C0F20003 		movt	r3, #:upper16:USBFS_currentTD
 288 01e6 4FF00202 		mov	r2, #2
 289 01ea 1A80     		strh	r2, [r3, #0]	@ movhi
 290              		.loc 1 210 0
 291 01ec 40F20003 		movw	r3, #:lower16:USBFS_currentTD
 292 01f0 C0F20003 		movt	r3, #:upper16:USBFS_currentTD
 293 01f4 40F20002 		movw	r2, #:lower16:USBFS_minimumVolume
 294 01f8 C0F20002 		movt	r2, #:upper16:USBFS_minimumVolume
 295 01fc 5A60     		str	r2, [r3, #4]
 296              		.loc 1 211 0
 297 01fe FFF7FEFF 		bl	USBFS_InitControlRead
 298 0202 0346     		mov	r3, r0
 299 0204 BB71     		strb	r3, [r7, #6]
 300              		.loc 1 213 0
 301 0206 3AE1     		b	.L23
 302              	.L9:
 303              		.loc 1 215 0
 304 0208 46F20303 		movw	r3, #:lower16:1073766403
 305 020c C4F20003 		movt	r3, #:upper16:1073766403
 306 0210 1B78     		ldrb	r3, [r3, #0]
 307 0212 DBB2     		uxtb	r3, r3
 308 0214 022B     		cmp	r3, #2
 309 0216 40F02B81 		bne	.L43
 310              		.loc 1 218 0
 311 021a 40F20003 		movw	r3, #:lower16:USBFS_currentTD
 312 021e C0F20003 		movt	r3, #:upper16:USBFS_currentTD
 313 0222 4FF00202 		mov	r2, #2
 314 0226 1A80     		strh	r2, [r3, #0]	@ movhi
 315              		.loc 1 219 0
 316 0228 40F20003 		movw	r3, #:lower16:USBFS_currentTD
 317 022c C0F20003 		movt	r3, #:upper16:USBFS_currentTD
 318 0230 40F20002 		movw	r2, #:lower16:USBFS_maximumVolume
 319 0234 C0F20002 		movt	r2, #:upper16:USBFS_maximumVolume
 320 0238 5A60     		str	r2, [r3, #4]
 321              		.loc 1 220 0
 322 023a FFF7FEFF 		bl	USBFS_InitControlRead
 323 023e 0346     		mov	r3, r0
 324 0240 BB71     		strb	r3, [r7, #6]
 325              		.loc 1 222 0
 326 0242 1CE1     		b	.L23
 327              	.L10:
 328              		.loc 1 224 0
ARM GAS  C:\DOCUME~1\ADMINI~1\LOCALS~1\Temp\ccUDmxxJ.s 			page 11


 329 0244 46F20303 		movw	r3, #:lower16:1073766403
 330 0248 C4F20003 		movt	r3, #:upper16:1073766403
 331 024c 1B78     		ldrb	r3, [r3, #0]
 332 024e DBB2     		uxtb	r3, r3
 333 0250 022B     		cmp	r3, #2
 334 0252 40F00F81 		bne	.L44
 335              		.loc 1 227 0
 336 0256 40F20003 		movw	r3, #:lower16:USBFS_currentTD
 337 025a C0F20003 		movt	r3, #:upper16:USBFS_currentTD
 338 025e 4FF00202 		mov	r2, #2
 339 0262 1A80     		strh	r2, [r3, #0]	@ movhi
 340              		.loc 1 228 0
 341 0264 40F20003 		movw	r3, #:lower16:USBFS_currentTD
 342 0268 C0F20003 		movt	r3, #:upper16:USBFS_currentTD
 343 026c 40F20002 		movw	r2, #:lower16:USBFS_resolutionVolume
 344 0270 C0F20002 		movt	r2, #:upper16:USBFS_resolutionVolume
 345 0274 5A60     		str	r2, [r3, #4]
 346              		.loc 1 229 0
 347 0276 FFF7FEFF 		bl	USBFS_InitControlRead
 348 027a 0346     		mov	r3, r0
 349 027c BB71     		strb	r3, [r7, #6]
 350              		.loc 1 231 0
 351 027e FEE0     		b	.L23
 352              	.L11:
 353              		.loc 1 237 0
 354 0280 40F20003 		movw	r3, #:lower16:USBFS_currentTD
 355 0284 C0F20003 		movt	r3, #:upper16:USBFS_currentTD
 356 0288 4FF00002 		mov	r2, #0
 357 028c 1A80     		strh	r2, [r3, #0]	@ movhi
 358              		.loc 1 238 0
 359 028e FFF7FEFF 		bl	USBFS_InitControlWrite
 360 0292 0346     		mov	r3, r0
 361 0294 BB71     		strb	r3, [r7, #6]
 362 0296 F2E0     		b	.L23
 363              	.L2:
 239:.\Generated_Source\PSoC5/USBFS_audio.c **** 
 240:.\Generated_Source\PSoC5/USBFS_audio.c ****                 #endif /* End USBFS_ENABLE_AUDIO_STREAMING */
 241:.\Generated_Source\PSoC5/USBFS_audio.c **** 
 242:.\Generated_Source\PSoC5/USBFS_audio.c ****                 /* `#START AUDIO_WRITE_REQUESTS` Place other request handler here */
 243:.\Generated_Source\PSoC5/USBFS_audio.c **** 
 244:.\Generated_Source\PSoC5/USBFS_audio.c ****                 /* `#END` */
 245:.\Generated_Source\PSoC5/USBFS_audio.c ****                     break;
 246:.\Generated_Source\PSoC5/USBFS_audio.c ****                 default:
 247:.\Generated_Source\PSoC5/USBFS_audio.c ****                     break;
 248:.\Generated_Source\PSoC5/USBFS_audio.c ****             }
 249:.\Generated_Source\PSoC5/USBFS_audio.c ****         }
 250:.\Generated_Source\PSoC5/USBFS_audio.c ****         else
 251:.\Generated_Source\PSoC5/USBFS_audio.c ****         {   /* USBFS_RQST_RCPT_OTHER */
 252:.\Generated_Source\PSoC5/USBFS_audio.c ****         }
 253:.\Generated_Source\PSoC5/USBFS_audio.c ****     }
 254:.\Generated_Source\PSoC5/USBFS_audio.c ****     else if ((CY_GET_REG8(USBFS_bmRequestType) & USBFS_RQST_DIR_MASK) == \
 364              		.loc 1 254 0
 365 0298 46F20003 		movw	r3, #:lower16:1073766400
 366 029c C4F20003 		movt	r3, #:upper16:1073766400
 367 02a0 1B78     		ldrb	r3, [r3, #0]
 368 02a2 DBB2     		uxtb	r3, r3
 369 02a4 5BB2     		sxtb	r3, r3
ARM GAS  C:\DOCUME~1\ADMINI~1\LOCALS~1\Temp\ccUDmxxJ.s 			page 12


 370 02a6 002B     		cmp	r3, #0
 371 02a8 C0F2E980 		blt	.L23
 255:.\Generated_Source\PSoC5/USBFS_audio.c ****                                                                                     USBFS_RQST_DIR_
 256:.\Generated_Source\PSoC5/USBFS_audio.c ****     {
 257:.\Generated_Source\PSoC5/USBFS_audio.c ****         /* Control Write */
 258:.\Generated_Source\PSoC5/USBFS_audio.c ****         if((CY_GET_REG8(USBFS_bmRequestType) & USBFS_RQST_RCPT_MASK) == \
 372              		.loc 1 258 0
 373 02ac 46F20003 		movw	r3, #:lower16:1073766400
 374 02b0 C4F20003 		movt	r3, #:upper16:1073766400
 375 02b4 1B78     		ldrb	r3, [r3, #0]
 376 02b6 DBB2     		uxtb	r3, r3
 377 02b8 03F00303 		and	r3, r3, #3
 378 02bc 022B     		cmp	r3, #2
 379 02be 32D1     		bne	.L24
 259:.\Generated_Source\PSoC5/USBFS_audio.c ****                                                                                     USBFS_RQST_RCPT
 260:.\Generated_Source\PSoC5/USBFS_audio.c ****         {
 261:.\Generated_Source\PSoC5/USBFS_audio.c ****             /* Endpoint */
 262:.\Generated_Source\PSoC5/USBFS_audio.c ****             switch (CY_GET_REG8(USBFS_bRequest))
 380              		.loc 1 262 0
 381 02c0 46F20103 		movw	r3, #:lower16:1073766401
 382 02c4 C4F20003 		movt	r3, #:upper16:1073766401
 383 02c8 1B78     		ldrb	r3, [r3, #0]
 384 02ca DBB2     		uxtb	r3, r3
 385 02cc 012B     		cmp	r3, #1
 386 02ce 40F0D380 		bne	.L45
 387              	.L26:
 263:.\Generated_Source\PSoC5/USBFS_audio.c ****             {
 264:.\Generated_Source\PSoC5/USBFS_audio.c ****                 case USBFS_SET_CUR:
 265:.\Generated_Source\PSoC5/USBFS_audio.c ****                 #if defined(USBFS_ENABLE_AUDIO_STREAMING)
 266:.\Generated_Source\PSoC5/USBFS_audio.c ****                     if(CY_GET_REG8(USBFS_wValueHi) == USBFS_SAMPLING_FREQ_CONTROL)
 388              		.loc 1 266 0
 389 02d2 46F20303 		movw	r3, #:lower16:1073766403
 390 02d6 C4F20003 		movt	r3, #:upper16:1073766403
 391 02da 1B78     		ldrb	r3, [r3, #0]
 392 02dc DBB2     		uxtb	r3, r3
 393 02de 012B     		cmp	r3, #1
 394 02e0 40F0CC80 		bne	.L46
 267:.\Generated_Source\PSoC5/USBFS_audio.c ****                     {
 268:.\Generated_Source\PSoC5/USBFS_audio.c ****                          /* Endpoint Control Selector is Sampling Frequency */
 269:.\Generated_Source\PSoC5/USBFS_audio.c ****                         USBFS_currentTD.wCount = USBFS_SAMPLE_FREQ_LEN;
 395              		.loc 1 269 0
 396 02e4 40F20003 		movw	r3, #:lower16:USBFS_currentTD
 397 02e8 C0F20003 		movt	r3, #:upper16:USBFS_currentTD
 398 02ec 4FF00302 		mov	r2, #3
 399 02f0 1A80     		strh	r2, [r3, #0]	@ movhi
 270:.\Generated_Source\PSoC5/USBFS_audio.c ****                         USBFS_currentTD.pData  = USBFS_currentSampleFrequency[epNumber];
 400              		.loc 1 270 0
 401 02f2 40F20003 		movw	r3, #:lower16:USBFS_currentSampleFrequency
 402 02f6 C0F20003 		movt	r3, #:upper16:USBFS_currentSampleFrequency
 403 02fa F979     		ldrb	r1, [r7, #7]	@ zero_extendqisi2
 404 02fc 0A46     		mov	r2, r1
 405 02fe 4FEA4202 		lsl	r2, r2, #1
 406 0302 0A44     		add	r2, r2, r1
 407 0304 1A44     		add	r2, r3, r2
 408 0306 40F20003 		movw	r3, #:lower16:USBFS_currentTD
 409 030a C0F20003 		movt	r3, #:upper16:USBFS_currentTD
 410 030e 5A60     		str	r2, [r3, #4]
ARM GAS  C:\DOCUME~1\ADMINI~1\LOCALS~1\Temp\ccUDmxxJ.s 			page 13


 271:.\Generated_Source\PSoC5/USBFS_audio.c ****                         requestHandled   = USBFS_InitControlWrite();
 411              		.loc 1 271 0
 412 0310 FFF7FEFF 		bl	USBFS_InitControlWrite
 413 0314 0346     		mov	r3, r0
 414 0316 BB71     		strb	r3, [r7, #6]
 272:.\Generated_Source\PSoC5/USBFS_audio.c ****                         USBFS_frequencyChanged = epNumber;
 415              		.loc 1 272 0
 416 0318 40F20003 		movw	r3, #:lower16:USBFS_frequencyChanged
 417 031c C0F20003 		movt	r3, #:upper16:USBFS_frequencyChanged
 418 0320 FA79     		ldrb	r2, [r7, #7]
 419 0322 1A70     		strb	r2, [r3, #0]
 420 0324 ABE0     		b	.L23
 421              	.L24:
 273:.\Generated_Source\PSoC5/USBFS_audio.c ****                     }
 274:.\Generated_Source\PSoC5/USBFS_audio.c ****                 #endif /* End USBFS_ENABLE_AUDIO_STREAMING */
 275:.\Generated_Source\PSoC5/USBFS_audio.c **** 
 276:.\Generated_Source\PSoC5/USBFS_audio.c ****                 /* `#START AUDIO_SAMPLING_FREQ_REQUESTS` Place other request handler here */
 277:.\Generated_Source\PSoC5/USBFS_audio.c **** 
 278:.\Generated_Source\PSoC5/USBFS_audio.c ****                 /* `#END` */
 279:.\Generated_Source\PSoC5/USBFS_audio.c ****                     break;
 280:.\Generated_Source\PSoC5/USBFS_audio.c ****                 default:
 281:.\Generated_Source\PSoC5/USBFS_audio.c ****                     break;
 282:.\Generated_Source\PSoC5/USBFS_audio.c ****             }
 283:.\Generated_Source\PSoC5/USBFS_audio.c ****         }
 284:.\Generated_Source\PSoC5/USBFS_audio.c ****         else if((CY_GET_REG8(USBFS_bmRequestType) & USBFS_RQST_RCPT_MASK) == \
 422              		.loc 1 284 0
 423 0326 46F20003 		movw	r3, #:lower16:1073766400
 424 032a C4F20003 		movt	r3, #:upper16:1073766400
 425 032e 1B78     		ldrb	r3, [r3, #0]
 426 0330 DBB2     		uxtb	r3, r3
 427 0332 03F00303 		and	r3, r3, #3
 428 0336 012B     		cmp	r3, #1
 429 0338 40F0A180 		bne	.L23
 285:.\Generated_Source\PSoC5/USBFS_audio.c ****                                                                                     USBFS_RQST_RCPT
 286:.\Generated_Source\PSoC5/USBFS_audio.c ****         {
 287:.\Generated_Source\PSoC5/USBFS_audio.c ****             /* Interface or Entity ID */
 288:.\Generated_Source\PSoC5/USBFS_audio.c ****             switch (CY_GET_REG8(USBFS_bRequest))
 430              		.loc 1 288 0
 431 033c 46F20103 		movw	r3, #:lower16:1073766401
 432 0340 C4F20003 		movt	r3, #:upper16:1073766401
 433 0344 1B78     		ldrb	r3, [r3, #0]
 434 0346 DBB2     		uxtb	r3, r3
 435 0348 012B     		cmp	r3, #1
 436 034a 40F09880 		bne	.L23
 437              	.L27:
 289:.\Generated_Source\PSoC5/USBFS_audio.c ****             {
 290:.\Generated_Source\PSoC5/USBFS_audio.c ****                 case USBFS_SET_CUR:
 291:.\Generated_Source\PSoC5/USBFS_audio.c ****                 #if defined(USBFS_ENABLE_AUDIO_STREAMING)
 292:.\Generated_Source\PSoC5/USBFS_audio.c ****                     if(CY_GET_REG8(USBFS_wValueHi) == USBFS_MUTE_CONTROL)
 438              		.loc 1 292 0
 439 034e 46F20303 		movw	r3, #:lower16:1073766403
 440 0352 C4F20003 		movt	r3, #:upper16:1073766403
 441 0356 1B78     		ldrb	r3, [r3, #0]
 442 0358 DBB2     		uxtb	r3, r3
 443 035a 012B     		cmp	r3, #1
 444 035c 29D1     		bne	.L28
 293:.\Generated_Source\PSoC5/USBFS_audio.c ****                     {
ARM GAS  C:\DOCUME~1\ADMINI~1\LOCALS~1\Temp\ccUDmxxJ.s 			page 14


 294:.\Generated_Source\PSoC5/USBFS_audio.c ****                         /* `#START MUTE_SET_REQUEST` Place multi-channel handler here */
 295:.\Generated_Source\PSoC5/USBFS_audio.c ****                         #ifndef ENABLE_DIGITAL_AUDIO_OUT_ONLY
 296:.\Generated_Source\PSoC5/USBFS_audio.c ****                         USBFS_currentTD.wCount = 1;
 445              		.loc 1 296 0
 446 035e 40F20003 		movw	r3, #:lower16:USBFS_currentTD
 447 0362 C0F20003 		movt	r3, #:upper16:USBFS_currentTD
 448 0366 4FF00102 		mov	r2, #1
 449 036a 1A80     		strh	r2, [r3, #0]	@ movhi
 297:.\Generated_Source\PSoC5/USBFS_audio.c ****                         switch(CY_GET_REG8(USBFS_wIndexHi))
 450              		.loc 1 297 0
 451 036c 46F20503 		movw	r3, #:lower16:1073766405
 452 0370 C4F20003 		movt	r3, #:upper16:1073766405
 453 0374 1B78     		ldrb	r3, [r3, #0]
 454 0376 DBB2     		uxtb	r3, r3
 455 0378 022B     		cmp	r3, #2
 456 037a 02D0     		beq	.L30
 457 037c 062B     		cmp	r3, #6
 458 037e 0AD0     		beq	.L31
 459 0380 12E0     		b	.L29
 460              	.L30:
 298:.\Generated_Source\PSoC5/USBFS_audio.c ****                         {
 299:.\Generated_Source\PSoC5/USBFS_audio.c ****     						case OUTPUT_VOLUME_FEATURE_UNIT:
 300:.\Generated_Source\PSoC5/USBFS_audio.c ****                                  /* Entity ID Control Selector is MUTE */
 301:.\Generated_Source\PSoC5/USBFS_audio.c ****                                 USBFS_currentTD.pData  = &USBFS_currentMute;
 461              		.loc 1 301 0
 462 0382 40F20003 		movw	r3, #:lower16:USBFS_currentTD
 463 0386 C0F20003 		movt	r3, #:upper16:USBFS_currentTD
 464 038a 40F20002 		movw	r2, #:lower16:USBFS_currentMute
 465 038e C0F20002 		movt	r2, #:upper16:USBFS_currentMute
 466 0392 5A60     		str	r2, [r3, #4]
 302:.\Generated_Source\PSoC5/USBFS_audio.c ****                             break;  
 467              		.loc 1 302 0
 468 0394 08E0     		b	.L29
 469              	.L31:
 303:.\Generated_Source\PSoC5/USBFS_audio.c ****                             
 304:.\Generated_Source\PSoC5/USBFS_audio.c ****                             case INPUT_VOLUME_FEATURE_UNIT:
 305:.\Generated_Source\PSoC5/USBFS_audio.c ****                                  /* Entity ID Control Selector is MUTE */
 306:.\Generated_Source\PSoC5/USBFS_audio.c ****                                 USBFS_currentTD.pData  = &USB_inputMute;
 470              		.loc 1 306 0
 471 0396 40F20003 		movw	r3, #:lower16:USBFS_currentTD
 472 039a C0F20003 		movt	r3, #:upper16:USBFS_currentTD
 473 039e 40F20002 		movw	r2, #:lower16:USB_inputMute
 474 03a2 C0F20002 		movt	r2, #:upper16:USB_inputMute
 475 03a6 5A60     		str	r2, [r3, #4]
 476              	.L29:
 307:.\Generated_Source\PSoC5/USBFS_audio.c ****                             break;    
 308:.\Generated_Source\PSoC5/USBFS_audio.c ****                         }
 309:.\Generated_Source\PSoC5/USBFS_audio.c ****                         requestHandled   = USBFS_InitControlWrite();
 477              		.loc 1 309 0
 478 03a8 FFF7FEFF 		bl	USBFS_InitControlWrite
 479 03ac 0346     		mov	r3, r0
 480 03ae BB71     		strb	r3, [r7, #6]
 310:.\Generated_Source\PSoC5/USBFS_audio.c ****                         break;
 481              		.loc 1 310 0
 482 03b0 65E0     		b	.L23
 483              	.L28:
 311:.\Generated_Source\PSoC5/USBFS_audio.c ****                         #endif
ARM GAS  C:\DOCUME~1\ADMINI~1\LOCALS~1\Temp\ccUDmxxJ.s 			page 15


 312:.\Generated_Source\PSoC5/USBFS_audio.c ****                         /* `#END` */
 313:.\Generated_Source\PSoC5/USBFS_audio.c ****                     
 314:.\Generated_Source\PSoC5/USBFS_audio.c ****                         /* Entity ID Control Selector is MUTE */
 315:.\Generated_Source\PSoC5/USBFS_audio.c ****                         USBFS_currentTD.wCount = 1;
 316:.\Generated_Source\PSoC5/USBFS_audio.c ****                         USBFS_currentTD.pData  = &USBFS_currentMute;
 317:.\Generated_Source\PSoC5/USBFS_audio.c ****                         requestHandled   = USBFS_InitControlWrite();
 318:.\Generated_Source\PSoC5/USBFS_audio.c ****                     }
 319:.\Generated_Source\PSoC5/USBFS_audio.c ****                     else if(CY_GET_REG8(USBFS_wValueHi) == USBFS_VOLUME_CONTROL)
 484              		.loc 1 319 0
 485 03b2 46F20303 		movw	r3, #:lower16:1073766403
 486 03b6 C4F20003 		movt	r3, #:upper16:1073766403
 487 03ba 1B78     		ldrb	r3, [r3, #0]
 488 03bc DBB2     		uxtb	r3, r3
 489 03be 022B     		cmp	r3, #2
 490 03c0 5DD1     		bne	.L23
 320:.\Generated_Source\PSoC5/USBFS_audio.c ****                     {
 321:.\Generated_Source\PSoC5/USBFS_audio.c ****                         /* `#START VOLUME_CONTROL_SET_REQUEST` Place multi-channel handler here */
 322:.\Generated_Source\PSoC5/USBFS_audio.c ****                         #ifndef ENABLE_DIGITAL_AUDIO_OUT_ONLY
 323:.\Generated_Source\PSoC5/USBFS_audio.c ****                         USBFS_currentTD.wCount = USBFS_VOLUME_LEN;
 491              		.loc 1 323 0
 492 03c2 40F20003 		movw	r3, #:lower16:USBFS_currentTD
 493 03c6 C0F20003 		movt	r3, #:upper16:USBFS_currentTD
 494 03ca 4FF00202 		mov	r2, #2
 495 03ce 1A80     		strh	r2, [r3, #0]	@ movhi
 324:.\Generated_Source\PSoC5/USBFS_audio.c ****                         switch(CY_GET_REG8(USBFS_wIndexHi))
 496              		.loc 1 324 0
 497 03d0 46F20503 		movw	r3, #:lower16:1073766405
 498 03d4 C4F20003 		movt	r3, #:upper16:1073766405
 499 03d8 1B78     		ldrb	r3, [r3, #0]
 500 03da DBB2     		uxtb	r3, r3
 501 03dc 022B     		cmp	r3, #2
 502 03de 02D0     		beq	.L33
 503 03e0 062B     		cmp	r3, #6
 504 03e2 0AD0     		beq	.L34
 505 03e4 35E0     		b	.L32
 506              	.L33:
 325:.\Generated_Source\PSoC5/USBFS_audio.c ****                         {
 326:.\Generated_Source\PSoC5/USBFS_audio.c ****     						case OUTPUT_VOLUME_FEATURE_UNIT:
 327:.\Generated_Source\PSoC5/USBFS_audio.c ****                                 USBFS_currentTD.pData  = USBFS_currentVolume;
 507              		.loc 1 327 0
 508 03e6 40F20003 		movw	r3, #:lower16:USBFS_currentTD
 509 03ea C0F20003 		movt	r3, #:upper16:USBFS_currentTD
 510 03ee 40F20002 		movw	r2, #:lower16:USBFS_currentVolume
 511 03f2 C0F20002 		movt	r2, #:upper16:USBFS_currentVolume
 512 03f6 5A60     		str	r2, [r3, #4]
 328:.\Generated_Source\PSoC5/USBFS_audio.c ****                             break;  
 513              		.loc 1 328 0
 514 03f8 2BE0     		b	.L32
 515              	.L34:
 329:.\Generated_Source\PSoC5/USBFS_audio.c ****                             
 330:.\Generated_Source\PSoC5/USBFS_audio.c ****                             case INPUT_VOLUME_FEATURE_UNIT:
 331:.\Generated_Source\PSoC5/USBFS_audio.c ****                                 USBFS_currentTD.pData  = USB_inputVolume;
 516              		.loc 1 331 0
 517 03fa 40F20003 		movw	r3, #:lower16:USBFS_currentTD
 518 03fe C0F20003 		movt	r3, #:upper16:USBFS_currentTD
 519 0402 40F20002 		movw	r2, #:lower16:USB_inputVolume
 520 0406 C0F20002 		movt	r2, #:upper16:USB_inputVolume
ARM GAS  C:\DOCUME~1\ADMINI~1\LOCALS~1\Temp\ccUDmxxJ.s 			page 16


 521 040a 5A60     		str	r2, [r3, #4]
 332:.\Generated_Source\PSoC5/USBFS_audio.c ****                                 if(CY_GET_REG8(USBFS_wValueLo) == 1)	/* channel 1 input volume upda
 522              		.loc 1 332 0
 523 040c 46F20203 		movw	r3, #:lower16:1073766402
 524 0410 C4F20003 		movt	r3, #:upper16:1073766402
 525 0414 1B78     		ldrb	r3, [r3, #0]
 526 0416 DBB2     		uxtb	r3, r3
 527 0418 012B     		cmp	r3, #1
 528 041a 09D1     		bne	.L35
 333:.\Generated_Source\PSoC5/USBFS_audio.c ****     							{
 334:.\Generated_Source\PSoC5/USBFS_audio.c ****     		                        USBFS_currentTD.pData  = &USBFS_currentCH1InputVolume[0];							
 529              		.loc 1 334 0
 530 041c 40F20003 		movw	r3, #:lower16:USBFS_currentTD
 531 0420 C0F20003 		movt	r3, #:upper16:USBFS_currentTD
 532 0424 40F20002 		movw	r2, #:lower16:USBFS_currentCH1InputVolume
 533 0428 C0F20002 		movt	r2, #:upper16:USBFS_currentCH1InputVolume
 534 042c 5A60     		str	r2, [r3, #4]
 535 042e 10E0     		b	.L32
 536              	.L35:
 335:.\Generated_Source\PSoC5/USBFS_audio.c ****     							}
 336:.\Generated_Source\PSoC5/USBFS_audio.c ****     							else if(CY_GET_REG8(USBFS_wValueLo) == 2) /* channel 2 input volume update from host */
 537              		.loc 1 336 0
 538 0430 46F20203 		movw	r3, #:lower16:1073766402
 539 0434 C4F20003 		movt	r3, #:upper16:1073766402
 540 0438 1B78     		ldrb	r3, [r3, #0]
 541 043a DBB2     		uxtb	r3, r3
 542 043c 022B     		cmp	r3, #2
 543 043e 08D1     		bne	.L32
 337:.\Generated_Source\PSoC5/USBFS_audio.c ****     							{
 338:.\Generated_Source\PSoC5/USBFS_audio.c ****     		                        USBFS_currentTD.pData  = &USBFS_currentCH2InputVolume[0];								
 544              		.loc 1 338 0
 545 0440 40F20003 		movw	r3, #:lower16:USBFS_currentTD
 546 0444 C0F20003 		movt	r3, #:upper16:USBFS_currentTD
 547 0448 40F20002 		movw	r2, #:lower16:USBFS_currentCH2InputVolume
 548 044c C0F20002 		movt	r2, #:upper16:USBFS_currentCH2InputVolume
 549 0450 5A60     		str	r2, [r3, #4]
 550              	.L32:
 339:.\Generated_Source\PSoC5/USBFS_audio.c ****     							}
 340:.\Generated_Source\PSoC5/USBFS_audio.c ****                             break;    
 341:.\Generated_Source\PSoC5/USBFS_audio.c ****                         }
 342:.\Generated_Source\PSoC5/USBFS_audio.c ****                         requestHandled   = USBFS_InitControlWrite();
 551              		.loc 1 342 0
 552 0452 FFF7FEFF 		bl	USBFS_InitControlWrite
 553 0456 0346     		mov	r3, r0
 554 0458 BB71     		strb	r3, [r7, #6]
 343:.\Generated_Source\PSoC5/USBFS_audio.c ****                         break;
 555              		.loc 1 343 0
 556 045a 10E0     		b	.L23
 557              	.L37:
 558              		.loc 1 238 0
 559 045c 00BF     		nop
 560 045e 0EE0     		b	.L23
 561              	.L38:
 562 0460 00BF     		nop
 563 0462 0CE0     		b	.L23
 564              	.L39:
 565 0464 00BF     		nop
ARM GAS  C:\DOCUME~1\ADMINI~1\LOCALS~1\Temp\ccUDmxxJ.s 			page 17


 566 0466 0AE0     		b	.L23
 567              	.L40:
 568              		.loc 1 204 0
 569 0468 00BF     		nop
 570 046a 08E0     		b	.L23
 571              	.L42:
 572              		.loc 1 213 0
 573 046c 00BF     		nop
 574 046e 06E0     		b	.L23
 575              	.L43:
 576              		.loc 1 222 0
 577 0470 00BF     		nop
 578 0472 04E0     		b	.L23
 579              	.L44:
 580              		.loc 1 231 0
 581 0474 00BF     		nop
 582 0476 02E0     		b	.L23
 583              	.L45:
 584              		.loc 1 272 0
 585 0478 00BF     		nop
 586 047a 00E0     		b	.L23
 587              	.L46:
 588 047c 00BF     		nop
 589              	.L23:
 344:.\Generated_Source\PSoC5/USBFS_audio.c ****                         #endif
 345:.\Generated_Source\PSoC5/USBFS_audio.c ****                         /* `#END` */
 346:.\Generated_Source\PSoC5/USBFS_audio.c ****                     
 347:.\Generated_Source\PSoC5/USBFS_audio.c ****                         /* Entity ID Control Selector is VOLUME */
 348:.\Generated_Source\PSoC5/USBFS_audio.c ****                         USBFS_currentTD.wCount = USBFS_VOLUME_LEN;
 349:.\Generated_Source\PSoC5/USBFS_audio.c ****                         USBFS_currentTD.pData  = USBFS_currentVolume;
 350:.\Generated_Source\PSoC5/USBFS_audio.c ****                         requestHandled   = USBFS_InitControlWrite();
 351:.\Generated_Source\PSoC5/USBFS_audio.c ****                     }
 352:.\Generated_Source\PSoC5/USBFS_audio.c ****                 #endif /* End USBFS_ENABLE_AUDIO_STREAMING */
 353:.\Generated_Source\PSoC5/USBFS_audio.c **** 
 354:.\Generated_Source\PSoC5/USBFS_audio.c ****                 /* `#START AUDIO_CONTROL_SEL_REQUESTS` Place other request handler here */
 355:.\Generated_Source\PSoC5/USBFS_audio.c **** 
 356:.\Generated_Source\PSoC5/USBFS_audio.c ****                 /* `#END` */
 357:.\Generated_Source\PSoC5/USBFS_audio.c ****                     break;
 358:.\Generated_Source\PSoC5/USBFS_audio.c ****                 default:
 359:.\Generated_Source\PSoC5/USBFS_audio.c ****                     break;
 360:.\Generated_Source\PSoC5/USBFS_audio.c ****             }
 361:.\Generated_Source\PSoC5/USBFS_audio.c ****         }
 362:.\Generated_Source\PSoC5/USBFS_audio.c ****         else
 363:.\Generated_Source\PSoC5/USBFS_audio.c ****         {   /* USBFS_RQST_RCPT_OTHER */
 364:.\Generated_Source\PSoC5/USBFS_audio.c ****         }
 365:.\Generated_Source\PSoC5/USBFS_audio.c ****     }
 366:.\Generated_Source\PSoC5/USBFS_audio.c ****     else
 367:.\Generated_Source\PSoC5/USBFS_audio.c ****     {   /* requestHandled is initialezed as FALSE by default */
 368:.\Generated_Source\PSoC5/USBFS_audio.c ****     }
 369:.\Generated_Source\PSoC5/USBFS_audio.c **** 
 370:.\Generated_Source\PSoC5/USBFS_audio.c ****     return(requestHandled);
 590              		.loc 1 370 0
 591 047e BB79     		ldrb	r3, [r7, #6]	@ zero_extendqisi2
 371:.\Generated_Source\PSoC5/USBFS_audio.c **** }
 592              		.loc 1 371 0
 593 0480 1846     		mov	r0, r3
 594 0482 07F10807 		add	r7, r7, #8
ARM GAS  C:\DOCUME~1\ADMINI~1\LOCALS~1\Temp\ccUDmxxJ.s 			page 18


 595 0486 BD46     		mov	sp, r7
 596 0488 80BD     		pop	{r7, pc}
 597              		.cfi_endproc
 598              	.LFE29:
 599              		.size	USBFS_DispatchAUDIOClassRqst, .-USBFS_DispatchAUDIOClassRqst
 600 048a 00BF     		.text
 601              	.Letext0: