ARM GAS  C:\DOCUME~1\ADMINI~1\LOCALS~1\Temp\ccJzPdwj.s 			page 1


   1              		.syntax unified
   2              		.cpu cortex-m3
   3              		.fpu softvfp
   4              		.eabi_attribute 20, 1
   5              		.eabi_attribute 21, 1
   6              		.eabi_attribute 23, 3
   7              		.eabi_attribute 24, 1
   8              		.eabi_attribute 25, 1
   9              		.eabi_attribute 26, 1
  10              		.eabi_attribute 30, 4
  11              		.eabi_attribute 18, 4
  12              		.thumb
  13              		.file	"Bootloader.c"
  20 0000 1A020000 		.text
  20      02007B00 
  20      00000201 
  20      FB0E0D00 
  20      01010101 
  21              	.Ltext0:
  22              		.cfi_sections	.debug_frame
  23              		.section	.text.Bootloader_CalcPacketChecksum,"ax",%progbits
  24              		.align	1
  25              		.global	Bootloader_CalcPacketChecksum
  26              		.thumb
  27              		.thumb_func
  28              		.type	Bootloader_CalcPacketChecksum, %function
  29              	Bootloader_CalcPacketChecksum:
  30              	.LFB29:
  31              		.file 1 ".\\Generated_Source\\PSoC5\\Bootloader.c"
   1:.\Generated_Source\PSoC5/Bootloader.c **** /*******************************************************************************
   2:.\Generated_Source\PSoC5/Bootloader.c **** * File Name: Bootloader.c
   3:.\Generated_Source\PSoC5/Bootloader.c **** * Version 1.10
   4:.\Generated_Source\PSoC5/Bootloader.c **** *
   5:.\Generated_Source\PSoC5/Bootloader.c **** *  Description:
   6:.\Generated_Source\PSoC5/Bootloader.c **** *   Provides an API for the Bootloader component. The API includes functions
   7:.\Generated_Source\PSoC5/Bootloader.c **** *   for starting boot loading operations, validating the application and
   8:.\Generated_Source\PSoC5/Bootloader.c **** *   jumping to the application.
   9:.\Generated_Source\PSoC5/Bootloader.c **** *
  10:.\Generated_Source\PSoC5/Bootloader.c **** ********************************************************************************
  11:.\Generated_Source\PSoC5/Bootloader.c **** * Copyright 2008-2013, Cypress Semiconductor Corporation.  All rights reserved.
  12:.\Generated_Source\PSoC5/Bootloader.c **** * You may use this file only in accordance with the license, terms, conditions,
  13:.\Generated_Source\PSoC5/Bootloader.c **** * disclaimers, and limitations in the end user license agreement accompanying
  14:.\Generated_Source\PSoC5/Bootloader.c **** * the software package with which this file was provided.
  15:.\Generated_Source\PSoC5/Bootloader.c **** *******************************************************************************/
  16:.\Generated_Source\PSoC5/Bootloader.c **** 
  17:.\Generated_Source\PSoC5/Bootloader.c **** #include "Bootloader.h"
  18:.\Generated_Source\PSoC5/Bootloader.c **** #include "device.h"
  19:.\Generated_Source\PSoC5/Bootloader.c **** #include <string.h>
  20:.\Generated_Source\PSoC5/Bootloader.c **** 
  21:.\Generated_Source\PSoC5/Bootloader.c **** 
  22:.\Generated_Source\PSoC5/Bootloader.c **** /*******************************************************************************
ARM GAS  C:\DOCUME~1\ADMINI~1\LOCALS~1\Temp\ccJzPdwj.s 			page 2


  23:.\Generated_Source\PSoC5/Bootloader.c **** * Defines
  24:.\Generated_Source\PSoC5/Bootloader.c **** *******************************************************************************/
  25:.\Generated_Source\PSoC5/Bootloader.c **** 
  26:.\Generated_Source\PSoC5/Bootloader.c **** #define Bootloader_VERSION        {10, 1, 0x01u}
  27:.\Generated_Source\PSoC5/Bootloader.c **** 
  28:.\Generated_Source\PSoC5/Bootloader.c **** /* Packet framing constants. */
  29:.\Generated_Source\PSoC5/Bootloader.c **** #define Bootloader_SOP            (0x01u)    /* Start of Packet */
  30:.\Generated_Source\PSoC5/Bootloader.c **** #define Bootloader_EOP            (0x17u)    /* End of Packet */
  31:.\Generated_Source\PSoC5/Bootloader.c **** 
  32:.\Generated_Source\PSoC5/Bootloader.c **** 
  33:.\Generated_Source\PSoC5/Bootloader.c **** /* Bootloader command responces */
  34:.\Generated_Source\PSoC5/Bootloader.c **** #define Bootloader_ERR_KEY       (0x01u)  /* The provided key does not match the expected value    
  35:.\Generated_Source\PSoC5/Bootloader.c **** #define Bootloader_ERR_VERIFY    (0x02u)  /* The verification of flash failed                      
  36:.\Generated_Source\PSoC5/Bootloader.c **** #define Bootloader_ERR_LENGTH    (0x03u)  /* The amount of data available is outside the expected r
  37:.\Generated_Source\PSoC5/Bootloader.c **** #define Bootloader_ERR_DATA      (0x04u)  /* The data is not of the proper form                    
  38:.\Generated_Source\PSoC5/Bootloader.c **** #define Bootloader_ERR_CMD       (0x05u)  /* The command is not recognized                         
  39:.\Generated_Source\PSoC5/Bootloader.c **** #define Bootloader_ERR_DEVICE    (0x06u)  /* The expected device does not match the detected device
  40:.\Generated_Source\PSoC5/Bootloader.c **** #define Bootloader_ERR_VERSION   (0x07u)  /* The bootloader version detected is not supported      
  41:.\Generated_Source\PSoC5/Bootloader.c **** #define Bootloader_ERR_CHECKSUM  (0x08u)  /* The checksum does not match the expected value        
  42:.\Generated_Source\PSoC5/Bootloader.c **** #define Bootloader_ERR_ARRAY     (0x09u)  /* The flash array is not valid                          
  43:.\Generated_Source\PSoC5/Bootloader.c **** #define Bootloader_ERR_ROW       (0x0Au)  /* The flash row is not valid                            
  44:.\Generated_Source\PSoC5/Bootloader.c **** #define Bootloader_ERR_PROTECT   (0x0Bu)  /* The flash row is protected and can not be programmed  
  45:.\Generated_Source\PSoC5/Bootloader.c **** #define Bootloader_ERR_APP       (0x0Cu)  /* The application is not valid and cannot be set as acti
  46:.\Generated_Source\PSoC5/Bootloader.c **** #define Bootloader_ERR_ACTIVE    (0x0Du)  /* The application is currently marked as active         
  47:.\Generated_Source\PSoC5/Bootloader.c **** #define Bootloader_ERR_UNK       (0x0Fu)  /* An unknown error occurred                             
  48:.\Generated_Source\PSoC5/Bootloader.c **** 
  49:.\Generated_Source\PSoC5/Bootloader.c **** 
  50:.\Generated_Source\PSoC5/Bootloader.c **** /* Bootloader command definitions. */
  51:.\Generated_Source\PSoC5/Bootloader.c **** #define Bootloader_COMMAND_CHECKSUM     (0x31u)    /* Verify the checksum for the bootloadable proj
  52:.\Generated_Source\PSoC5/Bootloader.c **** #define Bootloader_COMMAND_REPORT_SIZE  (0x32u)    /* Report the programmable portions of flash    
  53:.\Generated_Source\PSoC5/Bootloader.c **** #define Bootloader_COMMAND_APP_STATUS   (0x33u)    /* Gets status info about the provided app statu
  54:.\Generated_Source\PSoC5/Bootloader.c **** #define Bootloader_COMMAND_ERASE        (0x34u)    /* Erase the specified flash row                
  55:.\Generated_Source\PSoC5/Bootloader.c **** #define Bootloader_COMMAND_SYNC         (0x35u)    /* Sync the bootloader and host application     
  56:.\Generated_Source\PSoC5/Bootloader.c **** #define Bootloader_COMMAND_APP_ACTIVE   (0x36u)    /* Sets the active application                  
  57:.\Generated_Source\PSoC5/Bootloader.c **** #define Bootloader_COMMAND_DATA         (0x37u)    /* Queue up a block of data for programming     
  58:.\Generated_Source\PSoC5/Bootloader.c **** #define Bootloader_COMMAND_ENTER        (0x38u)    /* Enter the bootloader                         
  59:.\Generated_Source\PSoC5/Bootloader.c **** #define Bootloader_COMMAND_PROGRAM      (0x39u)    /* Program the specified row                    
  60:.\Generated_Source\PSoC5/Bootloader.c **** #define Bootloader_COMMAND_VERIFY       (0x3Au)    /* Compute flash row checksum for verification  
  61:.\Generated_Source\PSoC5/Bootloader.c **** #define Bootloader_COMMAND_EXIT         (0x3Bu)    /* Exits the bootloader & resets the chip       
  62:.\Generated_Source\PSoC5/Bootloader.c **** 
  63:.\Generated_Source\PSoC5/Bootloader.c **** 
  64:.\Generated_Source\PSoC5/Bootloader.c **** /*******************************************************************************
  65:.\Generated_Source\PSoC5/Bootloader.c **** * Bootloader packet byte addresses:
  66:.\Generated_Source\PSoC5/Bootloader.c **** * [1-byte] [1-byte ] [2-byte] [n-byte] [ 2-byte ] [1-byte]
  67:.\Generated_Source\PSoC5/Bootloader.c **** * [ SOP  ] [Command] [ Size ] [ Data ] [Checksum] [ EOP  ]
  68:.\Generated_Source\PSoC5/Bootloader.c **** *******************************************************************************/
  69:.\Generated_Source\PSoC5/Bootloader.c **** #define Bootloader_SOP_ADDR             (0x00u)         /* Start of packet offset from beginning   
  70:.\Generated_Source\PSoC5/Bootloader.c **** #define Bootloader_CMD_ADDR             (0x01u)         /* Command offset from beginning           
  71:.\Generated_Source\PSoC5/Bootloader.c **** #define Bootloader_SIZE_ADDR            (0x02u)         /* Packet size offset from beginning       
  72:.\Generated_Source\PSoC5/Bootloader.c **** #define Bootloader_DATA_ADDR            (0x04u)         /* Packet data offset from beginning       
  73:.\Generated_Source\PSoC5/Bootloader.c **** #define Bootloader_CHK_ADDR(x)          (0x04u + (x)) /* Packet checksum offset from end           
  74:.\Generated_Source\PSoC5/Bootloader.c **** #define Bootloader_EOP_ADDR(x)          (0x06u + (x)) /* End of packet offset from end             
  75:.\Generated_Source\PSoC5/Bootloader.c **** #define Bootloader_MIN_PKT_SIZE         (7u)            /* The minimum number of bytes in a packet 
  76:.\Generated_Source\PSoC5/Bootloader.c **** 
  77:.\Generated_Source\PSoC5/Bootloader.c **** 
  78:.\Generated_Source\PSoC5/Bootloader.c **** #if(1u == Bootloader_DUAL_APP_BOOTLOADER)
  79:.\Generated_Source\PSoC5/Bootloader.c **** 
ARM GAS  C:\DOCUME~1\ADMINI~1\LOCALS~1\Temp\ccJzPdwj.s 			page 3


  80:.\Generated_Source\PSoC5/Bootloader.c ****     /* None is active by default */
  81:.\Generated_Source\PSoC5/Bootloader.c ****     uint8 Bootloader_activeApp = 2u;
  82:.\Generated_Source\PSoC5/Bootloader.c **** 
  83:.\Generated_Source\PSoC5/Bootloader.c **** #endif  /* (1u == Bootloader_DUAL_APP_BOOTLOADER) */
  84:.\Generated_Source\PSoC5/Bootloader.c **** 
  85:.\Generated_Source\PSoC5/Bootloader.c **** 
  86:.\Generated_Source\PSoC5/Bootloader.c **** /* Our definition of a row size. */
  87:.\Generated_Source\PSoC5/Bootloader.c **** #if((!CY_PSOC4) && (CYDEV_ECC_ENABLE == 0))
  88:.\Generated_Source\PSoC5/Bootloader.c **** 
  89:.\Generated_Source\PSoC5/Bootloader.c ****     #define Bootloader_FROW_SIZE          ((CYDEV_FLS_ROW_SIZE) + (CYDEV_ECC_ROW_SIZE))
  90:.\Generated_Source\PSoC5/Bootloader.c **** 
  91:.\Generated_Source\PSoC5/Bootloader.c **** #else
  92:.\Generated_Source\PSoC5/Bootloader.c **** 
  93:.\Generated_Source\PSoC5/Bootloader.c ****     #define Bootloader_FROW_SIZE          CYDEV_FLS_ROW_SIZE
  94:.\Generated_Source\PSoC5/Bootloader.c **** 
  95:.\Generated_Source\PSoC5/Bootloader.c **** #endif  /* ((!CY_PSOC4) && (CYDEV_ECC_ENABLE == 0)) */
  96:.\Generated_Source\PSoC5/Bootloader.c **** 
  97:.\Generated_Source\PSoC5/Bootloader.c **** 
  98:.\Generated_Source\PSoC5/Bootloader.c **** #if(CY_PSOC4)
  99:.\Generated_Source\PSoC5/Bootloader.c **** 
 100:.\Generated_Source\PSoC5/Bootloader.c ****     #define Bootloader_BL_LAST_ROW            (Bootloader_GET_REG16(Bootloader_MD_LAST_BLDR_ROW_ADD
 101:.\Generated_Source\PSoC5/Bootloader.c ****     #define Bootloader_BL_APP_RUN_ADDR        (CY_GET_XTND_REG8 (Bootloader_MD_APP_RUN_ADDR        
 102:.\Generated_Source\PSoC5/Bootloader.c ****     #define Bootloader_BL_APP_ENTRY_ADDR      (Bootloader_GET_REG32(Bootloader_MD_APP_ENTRY_POINT_A
 103:.\Generated_Source\PSoC5/Bootloader.c ****     #define Bootloader_BL_APP_BYTE_LEN        (Bootloader_GET_REG32(Bootloader_MD_APP_BYTE_LEN     
 104:.\Generated_Source\PSoC5/Bootloader.c ****     #define Bootloader_BL_APP_VERIFIED        (CY_GET_XTND_REG8 (Bootloader_MD_APP_VERIFIED_ADDR   
 105:.\Generated_Source\PSoC5/Bootloader.c ****     #define Bootloader_BL_APP_CHECKSUM        (CY_GET_XTND_REG8 (Bootloader_MD_CHECKSUM_ADDR       
 106:.\Generated_Source\PSoC5/Bootloader.c **** 
 107:.\Generated_Source\PSoC5/Bootloader.c ****     #define Bootloader_INIT_FLASH_WRITE       (1)
 108:.\Generated_Source\PSoC5/Bootloader.c ****     #define Bootloader_FLASH_NUMBER_SECTORS   (1)
 109:.\Generated_Source\PSoC5/Bootloader.c ****     #define Bootloader_CHECKSUM_START         (0xC0u) /* Exclude the vector table as these get rema
 110:.\Generated_Source\PSoC5/Bootloader.c **** 
 111:.\Generated_Source\PSoC5/Bootloader.c **** #else
 112:.\Generated_Source\PSoC5/Bootloader.c **** 
 113:.\Generated_Source\PSoC5/Bootloader.c ****     #define Bootloader_BL_LAST_ROW            (*Bootloader_MD_PTR_LAST_BLDR_ROW    )
 114:.\Generated_Source\PSoC5/Bootloader.c ****     #define Bootloader_BL_APP_RUN_ADDR        (*Bootloader_MD_PTR_APP_RUN_ADDR     )
 115:.\Generated_Source\PSoC5/Bootloader.c ****     #define Bootloader_BL_APP_ENTRY_ADDR      (*Bootloader_MD_PTR_APP_ENTRY_POINT  )
 116:.\Generated_Source\PSoC5/Bootloader.c ****     #define Bootloader_BL_APP_BYTE_LEN        (*Bootloader_MD_PTR_APP_BYTE_LEN     )
 117:.\Generated_Source\PSoC5/Bootloader.c ****     #define Bootloader_BL_APP_VERIFIED        (*Bootloader_MD_PTR_APP_VERIFIED     )
 118:.\Generated_Source\PSoC5/Bootloader.c ****     #define Bootloader_BL_APP_CHECKSUM        (*Bootloader_MD_PTR_CHECKSUM         )
 119:.\Generated_Source\PSoC5/Bootloader.c **** 
 120:.\Generated_Source\PSoC5/Bootloader.c ****     #define Bootloader_INIT_FLASH_WRITE       ((CYRET_SUCCESS == CySetTemp()) && \
 121:.\Generated_Source\PSoC5/Bootloader.c ****                                                      (CYRET_SUCCESS == CySetFlashEEBuffer(flashBuff
 122:.\Generated_Source\PSoC5/Bootloader.c **** 
 123:.\Generated_Source\PSoC5/Bootloader.c ****     #define Bootloader_FLASH_NUMBER_SECTORS   (CY_FLASH_NUMBER_ARRAYS)
 124:.\Generated_Source\PSoC5/Bootloader.c **** 
 125:.\Generated_Source\PSoC5/Bootloader.c ****     #define Bootloader_CHECKSUM_START         0    /* The bootloader always starts at 0 in flash */
 126:.\Generated_Source\PSoC5/Bootloader.c **** 
 127:.\Generated_Source\PSoC5/Bootloader.c ****     uint8 flashBuffer[Bootloader_FROW_SIZE];
 128:.\Generated_Source\PSoC5/Bootloader.c **** 
 129:.\Generated_Source\PSoC5/Bootloader.c **** #endif  /* (CY_PSOC4) */
 130:.\Generated_Source\PSoC5/Bootloader.c **** 
 131:.\Generated_Source\PSoC5/Bootloader.c **** 
 132:.\Generated_Source\PSoC5/Bootloader.c **** #define Bootloader_FIRST_APP_BYTE             (CYDEV_FLS_ROW_SIZE * (Bootloader_BL_LAST_ROW + 1))
 133:.\Generated_Source\PSoC5/Bootloader.c **** #define Bootloader_SIZEOF_COMMAND_BUFFER      (300u) /* Maximum number of bytes accepted in a packe
 134:.\Generated_Source\PSoC5/Bootloader.c **** 
 135:.\Generated_Source\PSoC5/Bootloader.c **** 
 136:.\Generated_Source\PSoC5/Bootloader.c **** typedef struct _Bootloader_ENTER
ARM GAS  C:\DOCUME~1\ADMINI~1\LOCALS~1\Temp\ccJzPdwj.s 			page 4


 137:.\Generated_Source\PSoC5/Bootloader.c **** {
 138:.\Generated_Source\PSoC5/Bootloader.c ****     uint32 SiliconId;
 139:.\Generated_Source\PSoC5/Bootloader.c ****     uint8  Revision;
 140:.\Generated_Source\PSoC5/Bootloader.c ****     uint8  BootLoaderVersion[3u];
 141:.\Generated_Source\PSoC5/Bootloader.c **** 
 142:.\Generated_Source\PSoC5/Bootloader.c **** } Bootloader_ENTER;
 143:.\Generated_Source\PSoC5/Bootloader.c **** 
 144:.\Generated_Source\PSoC5/Bootloader.c **** 
 145:.\Generated_Source\PSoC5/Bootloader.c **** /*******************************************************************************
 146:.\Generated_Source\PSoC5/Bootloader.c **** * The Checksum and SizeBytes are forcefully set in code. We then post process
 147:.\Generated_Source\PSoC5/Bootloader.c **** * the hex file from the linker and inject their values then. When the hex file
 148:.\Generated_Source\PSoC5/Bootloader.c **** * is loaded onto the device these two variables should have valid values.
 149:.\Generated_Source\PSoC5/Bootloader.c **** * Because the compiler can do optimizations remove the constant
 150:.\Generated_Source\PSoC5/Bootloader.c **** * accesses, these should not be accessed directly. Instead, the variables
 151:.\Generated_Source\PSoC5/Bootloader.c **** * CyBtldr_ChecksumAccess & CyBtldr_SizeBytesAccess should be used to get the
 152:.\Generated_Source\PSoC5/Bootloader.c **** * proper values at runtime.
 153:.\Generated_Source\PSoC5/Bootloader.c **** *******************************************************************************/
 154:.\Generated_Source\PSoC5/Bootloader.c **** #if (defined(__C51__))
 155:.\Generated_Source\PSoC5/Bootloader.c ****     const uint8  CYCODE Bootloader_Checksum = 0;
 156:.\Generated_Source\PSoC5/Bootloader.c ****     const uint32 CYCODE Bootloader_SizeBytes = 0xFFFFFFFF;
 157:.\Generated_Source\PSoC5/Bootloader.c **** #else
 158:.\Generated_Source\PSoC5/Bootloader.c ****     const uint8  CYCODE __attribute__((section (".bootloader"))) Bootloader_Checksum = 0;
 159:.\Generated_Source\PSoC5/Bootloader.c ****     const uint32 CYCODE __attribute__((section (".bootloader"))) Bootloader_SizeBytes = 0xFFFFFFFF;
 160:.\Generated_Source\PSoC5/Bootloader.c **** #endif  /* (defined(__C51__)) */
 161:.\Generated_Source\PSoC5/Bootloader.c **** 
 162:.\Generated_Source\PSoC5/Bootloader.c **** uint8  *Bootloader_ChecksumAccess =  (uint8* )(&Bootloader_Checksum);
 163:.\Generated_Source\PSoC5/Bootloader.c **** uint32 *Bootloader_SizeBytesAccess = (uint32*)(&Bootloader_SizeBytes);
 164:.\Generated_Source\PSoC5/Bootloader.c **** 
 165:.\Generated_Source\PSoC5/Bootloader.c **** 
 166:.\Generated_Source\PSoC5/Bootloader.c **** /***************************************
 167:.\Generated_Source\PSoC5/Bootloader.c **** *     Function Prototypes
 168:.\Generated_Source\PSoC5/Bootloader.c **** ***************************************/
 169:.\Generated_Source\PSoC5/Bootloader.c **** cystatus Bootloader_WritePacket(uint8 command, uint8 CYXDATA* buffer, uint16 size) CYSMALL ;
 170:.\Generated_Source\PSoC5/Bootloader.c **** uint16 Bootloader_CalcPacketChecksum(uint8* buffer, uint16 size) CYSMALL ;
 171:.\Generated_Source\PSoC5/Bootloader.c **** uint8   Bootloader_Calc8BitFlashSum(uint32 start, uint32 size) CYSMALL ;
 172:.\Generated_Source\PSoC5/Bootloader.c **** 
 173:.\Generated_Source\PSoC5/Bootloader.c **** 
 174:.\Generated_Source\PSoC5/Bootloader.c **** /*******************************************************************************
 175:.\Generated_Source\PSoC5/Bootloader.c **** * Function Name: Bootloader_CalcPacketChecksum
 176:.\Generated_Source\PSoC5/Bootloader.c **** ********************************************************************************
 177:.\Generated_Source\PSoC5/Bootloader.c **** *
 178:.\Generated_Source\PSoC5/Bootloader.c **** * Summary:
 179:.\Generated_Source\PSoC5/Bootloader.c **** *  This computes the 16 bit checksum for the provided number of bytes contained
 180:.\Generated_Source\PSoC5/Bootloader.c **** *  in the provided buffer
 181:.\Generated_Source\PSoC5/Bootloader.c **** *
 182:.\Generated_Source\PSoC5/Bootloader.c **** * Parameters:
 183:.\Generated_Source\PSoC5/Bootloader.c **** *  buffer:
 184:.\Generated_Source\PSoC5/Bootloader.c **** *     The buffer containing the data to compute the checksum for
 185:.\Generated_Source\PSoC5/Bootloader.c **** *  size:
 186:.\Generated_Source\PSoC5/Bootloader.c **** *     The number of bytes in buffer to compute the checksum for
 187:.\Generated_Source\PSoC5/Bootloader.c **** *
 188:.\Generated_Source\PSoC5/Bootloader.c **** * Returns:
 189:.\Generated_Source\PSoC5/Bootloader.c **** *  16 bit checksum for the provided data
 190:.\Generated_Source\PSoC5/Bootloader.c **** *
 191:.\Generated_Source\PSoC5/Bootloader.c **** *******************************************************************************/
 192:.\Generated_Source\PSoC5/Bootloader.c **** uint16 Bootloader_CalcPacketChecksum(uint8* buffer, uint16 size) CYSMALL 
 193:.\Generated_Source\PSoC5/Bootloader.c **** {
ARM GAS  C:\DOCUME~1\ADMINI~1\LOCALS~1\Temp\ccJzPdwj.s 			page 5


  32              		.loc 1 193 0
  33              		.cfi_startproc
  34              		@ args = 0, pretend = 0, frame = 0
  35              		@ frame_needed = 0, uses_anonymous_args = 0
  36              		@ link register save eliminated.
  37              	.LVL0:
  38              		.loc 1 193 0
  39 0000 0023     		movs	r3, #0
  40 0002 1A46     		mov	r2, r3
  41              	.LVL1:
 194:.\Generated_Source\PSoC5/Bootloader.c ****     #if(Bootloader_PACKET_CHECKSUM_CRC == 1u)
 195:.\Generated_Source\PSoC5/Bootloader.c **** 
 196:.\Generated_Source\PSoC5/Bootloader.c ****         uint16 CYDATA crc = 0xffff;
 197:.\Generated_Source\PSoC5/Bootloader.c ****         uint16 CYDATA tmp;
 198:.\Generated_Source\PSoC5/Bootloader.c ****         uint8  CYDATA i;
 199:.\Generated_Source\PSoC5/Bootloader.c **** 
 200:.\Generated_Source\PSoC5/Bootloader.c ****         if(size == 0)
 201:.\Generated_Source\PSoC5/Bootloader.c ****         {
 202:.\Generated_Source\PSoC5/Bootloader.c ****             return(~crc);
 203:.\Generated_Source\PSoC5/Bootloader.c ****         }
 204:.\Generated_Source\PSoC5/Bootloader.c **** 
 205:.\Generated_Source\PSoC5/Bootloader.c ****         do
 206:.\Generated_Source\PSoC5/Bootloader.c ****         {
 207:.\Generated_Source\PSoC5/Bootloader.c ****             for (i = 0, tmp = 0x00ff & *buffer++; i < 8; i++, tmp >>= 1)
 208:.\Generated_Source\PSoC5/Bootloader.c ****             {
 209:.\Generated_Source\PSoC5/Bootloader.c ****                 if ((crc & 0x0001) ^ (tmp & 0x0001))
 210:.\Generated_Source\PSoC5/Bootloader.c ****                 {
 211:.\Generated_Source\PSoC5/Bootloader.c ****                     crc = (crc >> 1) ^ 0x8408;
 212:.\Generated_Source\PSoC5/Bootloader.c ****                 }
 213:.\Generated_Source\PSoC5/Bootloader.c ****                 else
 214:.\Generated_Source\PSoC5/Bootloader.c ****                 {
 215:.\Generated_Source\PSoC5/Bootloader.c ****                     crc >>= 1;
 216:.\Generated_Source\PSoC5/Bootloader.c ****                 }
 217:.\Generated_Source\PSoC5/Bootloader.c ****             }
 218:.\Generated_Source\PSoC5/Bootloader.c ****         }
 219:.\Generated_Source\PSoC5/Bootloader.c ****         while(--size);
 220:.\Generated_Source\PSoC5/Bootloader.c **** 
 221:.\Generated_Source\PSoC5/Bootloader.c ****         crc = ~crc;
 222:.\Generated_Source\PSoC5/Bootloader.c ****         tmp = crc;
 223:.\Generated_Source\PSoC5/Bootloader.c ****         crc = (crc << 8) | (tmp >> 8 & 0xFF);
 224:.\Generated_Source\PSoC5/Bootloader.c **** 
 225:.\Generated_Source\PSoC5/Bootloader.c ****         return(crc);
 226:.\Generated_Source\PSoC5/Bootloader.c **** 
 227:.\Generated_Source\PSoC5/Bootloader.c ****     #else
 228:.\Generated_Source\PSoC5/Bootloader.c **** 
 229:.\Generated_Source\PSoC5/Bootloader.c ****         uint16 CYDATA sum = 0;
 230:.\Generated_Source\PSoC5/Bootloader.c ****         while (size-- > 0)
  42              		.loc 1 230 0
  43 0004 06E0     		b	.L2
  44              	.L3:
 231:.\Generated_Source\PSoC5/Bootloader.c ****         {
 232:.\Generated_Source\PSoC5/Bootloader.c ****             sum += *buffer++;
  45              		.loc 1 232 0
  46 0006 10F803C0 		ldrb	ip, [r0, r3]	@ zero_extendqisi2
  47 000a 0139     		subs	r1, r1, #1
  48              	.LVL2:
  49 000c 6244     		add	r2, r2, ip
ARM GAS  C:\DOCUME~1\ADMINI~1\LOCALS~1\Temp\ccJzPdwj.s 			page 6


  50              	.LVL3:
  51 000e 92B2     		uxth	r2, r2
  52              	.LVL4:
  53 0010 0133     		adds	r3, r3, #1
  54 0012 89B2     		uxth	r1, r1
  55              	.LVL5:
  56              	.L2:
  57              		.loc 1 230 0
  58 0014 0029     		cmp	r1, #0
  59 0016 F6D1     		bne	.L3
  60 0018 5242     		negs	r2, r2
  61              	.LVL6:
 233:.\Generated_Source\PSoC5/Bootloader.c ****         }
 234:.\Generated_Source\PSoC5/Bootloader.c **** 
 235:.\Generated_Source\PSoC5/Bootloader.c ****         return(1 + ~sum);
 236:.\Generated_Source\PSoC5/Bootloader.c **** 
 237:.\Generated_Source\PSoC5/Bootloader.c ****     #endif /* (Bootloader_PACKET_CHECKSUM_CRC == 1u) */
 238:.\Generated_Source\PSoC5/Bootloader.c **** }
  62              		.loc 1 238 0
  63 001a 90B2     		uxth	r0, r2
  64              	.LVL7:
  65 001c 7047     		bx	lr
  66              		.cfi_endproc
  67              	.LFE29:
  68              		.size	Bootloader_CalcPacketChecksum, .-Bootloader_CalcPacketChecksum
  69              		.section	.text.Bootloader_Calc8BitFlashSum,"ax",%progbits
  70              		.align	1
  71              		.global	Bootloader_Calc8BitFlashSum
  72              		.thumb
  73              		.thumb_func
  74              		.type	Bootloader_Calc8BitFlashSum, %function
  75              	Bootloader_Calc8BitFlashSum:
  76              	.LFB30:
 239:.\Generated_Source\PSoC5/Bootloader.c **** 
 240:.\Generated_Source\PSoC5/Bootloader.c **** 
 241:.\Generated_Source\PSoC5/Bootloader.c **** /*******************************************************************************
 242:.\Generated_Source\PSoC5/Bootloader.c **** * Function Name: Bootloader_Calc8BitFlashSum
 243:.\Generated_Source\PSoC5/Bootloader.c **** ********************************************************************************
 244:.\Generated_Source\PSoC5/Bootloader.c **** *
 245:.\Generated_Source\PSoC5/Bootloader.c **** * Summary:
 246:.\Generated_Source\PSoC5/Bootloader.c **** *  This computes the 8 bit sum for the provided number of bytes contained in
 247:.\Generated_Source\PSoC5/Bootloader.c **** *  flash.
 248:.\Generated_Source\PSoC5/Bootloader.c **** *
 249:.\Generated_Source\PSoC5/Bootloader.c **** * Parameters:
 250:.\Generated_Source\PSoC5/Bootloader.c **** *  start:
 251:.\Generated_Source\PSoC5/Bootloader.c **** *     The starting address to start summing data for
 252:.\Generated_Source\PSoC5/Bootloader.c **** *  size:
 253:.\Generated_Source\PSoC5/Bootloader.c **** *     The number of bytes to read and compute the sum for
 254:.\Generated_Source\PSoC5/Bootloader.c **** *
 255:.\Generated_Source\PSoC5/Bootloader.c **** * Returns:
 256:.\Generated_Source\PSoC5/Bootloader.c **** *   8 bit sum for the provided data
 257:.\Generated_Source\PSoC5/Bootloader.c **** *
 258:.\Generated_Source\PSoC5/Bootloader.c **** *******************************************************************************/
 259:.\Generated_Source\PSoC5/Bootloader.c **** uint8 Bootloader_Calc8BitFlashSum(uint32 start, uint32 size) CYSMALL 
 260:.\Generated_Source\PSoC5/Bootloader.c **** {
  77              		.loc 1 260 0
  78              		.cfi_startproc
ARM GAS  C:\DOCUME~1\ADMINI~1\LOCALS~1\Temp\ccJzPdwj.s 			page 7


  79              		@ args = 0, pretend = 0, frame = 0
  80              		@ frame_needed = 0, uses_anonymous_args = 0
  81              		@ link register save eliminated.
  82              	.LVL8:
  83              		.loc 1 260 0
  84 0000 0B18     		adds	r3, r1, r0
  85 0002 0020     		movs	r0, #0
  86              	.LVL9:
 261:.\Generated_Source\PSoC5/Bootloader.c ****     uint8 CYDATA sum = 0;
 262:.\Generated_Source\PSoC5/Bootloader.c **** 
 263:.\Generated_Source\PSoC5/Bootloader.c ****     while (size-- > 0)
  87              		.loc 1 263 0
  88 0004 04E0     		b	.L7
  89              	.L8:
 264:.\Generated_Source\PSoC5/Bootloader.c ****     {
 265:.\Generated_Source\PSoC5/Bootloader.c ****         sum += Bootloader_GET_CODE_DATA(start + size);
  90              		.loc 1 265 0
  91 0006 13F8012D 		ldrb	r2, [r3, #-1]!	@ zero_extendqisi2
  92              		.loc 1 263 0
  93 000a 0139     		subs	r1, r1, #1
  94              	.LVL10:
  95              		.loc 1 265 0
  96 000c 8018     		adds	r0, r0, r2
  97              	.LVL11:
  98 000e C0B2     		uxtb	r0, r0
  99              	.LVL12:
 100              	.L7:
 101              		.loc 1 263 0
 102 0010 0029     		cmp	r1, #0
 103 0012 F8D1     		bne	.L8
 266:.\Generated_Source\PSoC5/Bootloader.c ****     }
 267:.\Generated_Source\PSoC5/Bootloader.c **** 
 268:.\Generated_Source\PSoC5/Bootloader.c ****     return(sum);
 269:.\Generated_Source\PSoC5/Bootloader.c **** }
 104              		.loc 1 269 0
 105 0014 7047     		bx	lr
 106              		.cfi_endproc
 107              	.LFE30:
 108              		.size	Bootloader_Calc8BitFlashSum, .-Bootloader_Calc8BitFlashSum
 109              		.section	.text.Bootloader_LaunchApplication,"ax",%progbits
 110              		.align	1
 111              		.global	Bootloader_LaunchApplication
 112              		.thumb
 113              		.thumb_func
 114              		.type	Bootloader_LaunchApplication, %function
 115              	Bootloader_LaunchApplication:
 116              	.LFB32:
 270:.\Generated_Source\PSoC5/Bootloader.c **** 
 271:.\Generated_Source\PSoC5/Bootloader.c **** 
 272:.\Generated_Source\PSoC5/Bootloader.c **** /*******************************************************************************
 273:.\Generated_Source\PSoC5/Bootloader.c **** * Function Name: Bootloader_Start
 274:.\Generated_Source\PSoC5/Bootloader.c **** ********************************************************************************
 275:.\Generated_Source\PSoC5/Bootloader.c **** * Summary:
 276:.\Generated_Source\PSoC5/Bootloader.c **** *  Runs the bootloading algorithm, determining if a bootload is necessary and
 277:.\Generated_Source\PSoC5/Bootloader.c **** *  launching the application if it is not.
 278:.\Generated_Source\PSoC5/Bootloader.c **** *
 279:.\Generated_Source\PSoC5/Bootloader.c **** * Parameters:
ARM GAS  C:\DOCUME~1\ADMINI~1\LOCALS~1\Temp\ccJzPdwj.s 			page 8


 280:.\Generated_Source\PSoC5/Bootloader.c **** *  None
 281:.\Generated_Source\PSoC5/Bootloader.c **** *
 282:.\Generated_Source\PSoC5/Bootloader.c **** * Return:
 283:.\Generated_Source\PSoC5/Bootloader.c **** *  This method will never return. It will either load a new application and
 284:.\Generated_Source\PSoC5/Bootloader.c **** *  reset the device or it will jump directly to the existing application.
 285:.\Generated_Source\PSoC5/Bootloader.c **** *
 286:.\Generated_Source\PSoC5/Bootloader.c **** * Remark:
 287:.\Generated_Source\PSoC5/Bootloader.c **** *  If this method determines that the bootloader appliation itself is corrupt,
 288:.\Generated_Source\PSoC5/Bootloader.c **** *  this method will not return, instead it will simply hang the application.
 289:.\Generated_Source\PSoC5/Bootloader.c **** *
 290:.\Generated_Source\PSoC5/Bootloader.c **** *******************************************************************************/
 291:.\Generated_Source\PSoC5/Bootloader.c **** void Bootloader_Start(void) CYSMALL 
 292:.\Generated_Source\PSoC5/Bootloader.c **** {
 293:.\Generated_Source\PSoC5/Bootloader.c ****     /* Bootloader Application Validation */
 294:.\Generated_Source\PSoC5/Bootloader.c ****     #if(0u != Bootloader_BOOTLOADER_APP_VALIDATION)
 295:.\Generated_Source\PSoC5/Bootloader.c ****         uint8 CYDATA calcedChecksum;
 296:.\Generated_Source\PSoC5/Bootloader.c ****     #endif  /* (0u != Bootloader_BOOTLOADER_APP_VALIDATION) */
 297:.\Generated_Source\PSoC5/Bootloader.c **** 
 298:.\Generated_Source\PSoC5/Bootloader.c ****     /* Identify active bootloadable application */
 299:.\Generated_Source\PSoC5/Bootloader.c ****     #if(0u != Bootloader_DUAL_APP_BOOTLOADER)
 300:.\Generated_Source\PSoC5/Bootloader.c **** 
 301:.\Generated_Source\PSoC5/Bootloader.c ****         uint8 i;
 302:.\Generated_Source\PSoC5/Bootloader.c ****         for (i = 0; i < CYDEV_BOOTLOADER_APPLICATIONS; i++)
 303:.\Generated_Source\PSoC5/Bootloader.c ****         {
 304:.\Generated_Source\PSoC5/Bootloader.c ****             if (*Bootloader_P_APP_ACTIVE(i) == 1u)
 305:.\Generated_Source\PSoC5/Bootloader.c ****             {
 306:.\Generated_Source\PSoC5/Bootloader.c ****                 Bootloader_activeApp = i;
 307:.\Generated_Source\PSoC5/Bootloader.c ****                 break;
 308:.\Generated_Source\PSoC5/Bootloader.c ****             }
 309:.\Generated_Source\PSoC5/Bootloader.c ****         }
 310:.\Generated_Source\PSoC5/Bootloader.c **** 
 311:.\Generated_Source\PSoC5/Bootloader.c ****     #endif  /* (0u != Bootloader_DUAL_APP_BOOTLOADER) */
 312:.\Generated_Source\PSoC5/Bootloader.c **** 
 313:.\Generated_Source\PSoC5/Bootloader.c **** 
 314:.\Generated_Source\PSoC5/Bootloader.c ****     /* Bootloader Application Validation */
 315:.\Generated_Source\PSoC5/Bootloader.c ****     #if(0u != Bootloader_BOOTLOADER_APP_VALIDATION)
 316:.\Generated_Source\PSoC5/Bootloader.c **** 
 317:.\Generated_Source\PSoC5/Bootloader.c ****         calcedChecksum = Bootloader_Calc8BitFlashSum(Bootloader_CHECKSUM_START,
 318:.\Generated_Source\PSoC5/Bootloader.c ****                 *Bootloader_SizeBytesAccess - Bootloader_CHECKSUM_START);
 319:.\Generated_Source\PSoC5/Bootloader.c **** 
 320:.\Generated_Source\PSoC5/Bootloader.c ****         /* we actually included the checksum, so remove it */
 321:.\Generated_Source\PSoC5/Bootloader.c ****         calcedChecksum -= *Bootloader_ChecksumAccess;
 322:.\Generated_Source\PSoC5/Bootloader.c ****         calcedChecksum = 1 + ~calcedChecksum;
 323:.\Generated_Source\PSoC5/Bootloader.c **** 
 324:.\Generated_Source\PSoC5/Bootloader.c ****         /* Halt device if bootloader application is invalid */
 325:.\Generated_Source\PSoC5/Bootloader.c ****         if((calcedChecksum != *Bootloader_ChecksumAccess) ||
 326:.\Generated_Source\PSoC5/Bootloader.c ****             !(*Bootloader_SizeBytesAccess) || !(Bootloader_INIT_FLASH_WRITE))
 327:.\Generated_Source\PSoC5/Bootloader.c ****         {
 328:.\Generated_Source\PSoC5/Bootloader.c ****             CyHalt(0x00u);
 329:.\Generated_Source\PSoC5/Bootloader.c ****         }
 330:.\Generated_Source\PSoC5/Bootloader.c **** 
 331:.\Generated_Source\PSoC5/Bootloader.c ****     #endif  /* (0u != Bootloader_BOOTLOADER_APP_VALIDATION) */
 332:.\Generated_Source\PSoC5/Bootloader.c **** 
 333:.\Generated_Source\PSoC5/Bootloader.c **** 
 334:.\Generated_Source\PSoC5/Bootloader.c ****     /* Active Bootloadable Application Validation */
 335:.\Generated_Source\PSoC5/Bootloader.c ****     if (Bootloader_ValidateApp(Bootloader_activeApp) ||
 336:.\Generated_Source\PSoC5/Bootloader.c ****         (Bootloader_GET_RUN_TYPE == Bootloader_START_BTLDR))
ARM GAS  C:\DOCUME~1\ADMINI~1\LOCALS~1\Temp\ccJzPdwj.s 			page 9


 337:.\Generated_Source\PSoC5/Bootloader.c ****     {
 338:.\Generated_Source\PSoC5/Bootloader.c ****         Bootloader_SET_RUN_TYPE(0);
 339:.\Generated_Source\PSoC5/Bootloader.c **** 
 340:.\Generated_Source\PSoC5/Bootloader.c ****         Bootloader_HostLink(0);
 341:.\Generated_Source\PSoC5/Bootloader.c ****     }
 342:.\Generated_Source\PSoC5/Bootloader.c **** 
 343:.\Generated_Source\PSoC5/Bootloader.c **** 
 344:.\Generated_Source\PSoC5/Bootloader.c ****     #if(1u == Bootloader_WAIT_FOR_COMMAND)
 345:.\Generated_Source\PSoC5/Bootloader.c **** 
 346:.\Generated_Source\PSoC5/Bootloader.c ****         /* Timeout is in 10s of miliseconds */
 347:.\Generated_Source\PSoC5/Bootloader.c ****         Bootloader_HostLink(Bootloader_WAIT_FOR_COMMAND_TIME);
 348:.\Generated_Source\PSoC5/Bootloader.c **** 
 349:.\Generated_Source\PSoC5/Bootloader.c ****     #endif  /* (1u == Bootloader_WAIT_FOR_COMMAND) */
 350:.\Generated_Source\PSoC5/Bootloader.c **** 
 351:.\Generated_Source\PSoC5/Bootloader.c **** 
 352:.\Generated_Source\PSoC5/Bootloader.c ****     /* Schedule bootloadable and reset device */
 353:.\Generated_Source\PSoC5/Bootloader.c ****     Bootloader_LaunchApplication();
 354:.\Generated_Source\PSoC5/Bootloader.c **** }
 355:.\Generated_Source\PSoC5/Bootloader.c **** 
 356:.\Generated_Source\PSoC5/Bootloader.c **** 
 357:.\Generated_Source\PSoC5/Bootloader.c **** /*******************************************************************************
 358:.\Generated_Source\PSoC5/Bootloader.c **** * Function Name: Bootloader_LaunchApplication
 359:.\Generated_Source\PSoC5/Bootloader.c **** ********************************************************************************
 360:.\Generated_Source\PSoC5/Bootloader.c **** *
 361:.\Generated_Source\PSoC5/Bootloader.c **** * Summary:
 362:.\Generated_Source\PSoC5/Bootloader.c **** *  Jumps the PC to the start address of the user application in flash.
 363:.\Generated_Source\PSoC5/Bootloader.c **** *
 364:.\Generated_Source\PSoC5/Bootloader.c **** * Parameters:
 365:.\Generated_Source\PSoC5/Bootloader.c **** *  None
 366:.\Generated_Source\PSoC5/Bootloader.c **** *
 367:.\Generated_Source\PSoC5/Bootloader.c **** * Returns:
 368:.\Generated_Source\PSoC5/Bootloader.c **** *  This method will never return if it succesfully goes to the user application.
 369:.\Generated_Source\PSoC5/Bootloader.c **** *
 370:.\Generated_Source\PSoC5/Bootloader.c **** *******************************************************************************/
 371:.\Generated_Source\PSoC5/Bootloader.c **** void Bootloader_LaunchApplication(void) CYSMALL 
 372:.\Generated_Source\PSoC5/Bootloader.c **** {
 117              		.loc 1 372 0
 118              		.cfi_startproc
 119              		@ args = 0, pretend = 0, frame = 0
 120              		@ frame_needed = 0, uses_anonymous_args = 0
 121              		@ link register save eliminated.
 373:.\Generated_Source\PSoC5/Bootloader.c ****     /* Schedule Bootloadable to start after reset */
 374:.\Generated_Source\PSoC5/Bootloader.c ****     Bootloader_SET_RUN_TYPE(Bootloader_START_APP);
 122              		.loc 1 374 0
 123 0000 034B     		ldr	r3, .L12
 124 0002 6FF07F02 		mvn	r2, #127
 125 0006 1A70     		strb	r2, [r3, #0]
 375:.\Generated_Source\PSoC5/Bootloader.c **** 
 376:.\Generated_Source\PSoC5/Bootloader.c ****     /* Reset device */
 377:.\Generated_Source\PSoC5/Bootloader.c ****     Bootloader_SOFTWARE_RESET;
 126              		.loc 1 377 0
 127 0008 8132     		adds	r2, r2, #129
 128 000a 043B     		subs	r3, r3, #4
 129 000c 1A70     		strb	r2, [r3, #0]
 378:.\Generated_Source\PSoC5/Bootloader.c **** }
 130              		.loc 1 378 0
 131 000e 7047     		bx	lr
ARM GAS  C:\DOCUME~1\ADMINI~1\LOCALS~1\Temp\ccJzPdwj.s 			page 10


 132              	.L13:
 133              		.align	2
 134              	.L12:
 135 0010 FA460040 		.word	1073759994
 136              		.cfi_endproc
 137              	.LFE32:
 138              		.size	Bootloader_LaunchApplication, .-Bootloader_LaunchApplication
 139              		.section	.text.LaunchApp,"ax",%progbits
 140              		.align	1
 141              		.global	LaunchApp
 142              		.thumb
 143              		.thumb_func
 144              		.type	LaunchApp, %function
 145              	LaunchApp:
 146              	.LFB34:
 379:.\Generated_Source\PSoC5/Bootloader.c **** 
 380:.\Generated_Source\PSoC5/Bootloader.c **** 
 381:.\Generated_Source\PSoC5/Bootloader.c **** /*******************************************************************************
 382:.\Generated_Source\PSoC5/Bootloader.c **** * Function Name: CyBtldr_CheckLaunch
 383:.\Generated_Source\PSoC5/Bootloader.c **** ********************************************************************************
 384:.\Generated_Source\PSoC5/Bootloader.c **** *
 385:.\Generated_Source\PSoC5/Bootloader.c **** * Summary:
 386:.\Generated_Source\PSoC5/Bootloader.c **** *  This routine checks to see if the bootloader or the bootloadable application
 387:.\Generated_Source\PSoC5/Bootloader.c **** *  should be run.  If the application is to be run, it will start executing.
 388:.\Generated_Source\PSoC5/Bootloader.c **** *  If the bootloader is to be run, it will return so the bootloader can
 389:.\Generated_Source\PSoC5/Bootloader.c **** *  continue starting up.
 390:.\Generated_Source\PSoC5/Bootloader.c **** *
 391:.\Generated_Source\PSoC5/Bootloader.c **** * Parameters:
 392:.\Generated_Source\PSoC5/Bootloader.c **** *  None
 393:.\Generated_Source\PSoC5/Bootloader.c **** *
 394:.\Generated_Source\PSoC5/Bootloader.c **** * Returns:
 395:.\Generated_Source\PSoC5/Bootloader.c **** *  None
 396:.\Generated_Source\PSoC5/Bootloader.c **** *
 397:.\Generated_Source\PSoC5/Bootloader.c **** *******************************************************************************/
 398:.\Generated_Source\PSoC5/Bootloader.c **** void CyBtldr_CheckLaunch(void) CYSMALL 
 399:.\Generated_Source\PSoC5/Bootloader.c **** {
 400:.\Generated_Source\PSoC5/Bootloader.c **** 
 401:.\Generated_Source\PSoC5/Bootloader.c ****     if (Bootloader_GET_RUN_TYPE == Bootloader_START_APP)
 402:.\Generated_Source\PSoC5/Bootloader.c ****     {
 403:.\Generated_Source\PSoC5/Bootloader.c ****         Bootloader_SET_RUN_TYPE(0);
 404:.\Generated_Source\PSoC5/Bootloader.c **** 
 405:.\Generated_Source\PSoC5/Bootloader.c ****         /*******************************************************************************
 406:.\Generated_Source\PSoC5/Bootloader.c ****         * Indicates that we have told ourselves to jump to the application since we have
 407:.\Generated_Source\PSoC5/Bootloader.c ****         * already told ourselves to jump, we do not do any expensive verification of the
 408:.\Generated_Source\PSoC5/Bootloader.c ****         * application. We just check to make sure that the value at CY_APP_ADDR_ADDRESS
 409:.\Generated_Source\PSoC5/Bootloader.c ****         * is something other than 0.
 410:.\Generated_Source\PSoC5/Bootloader.c ****         *******************************************************************************/
 411:.\Generated_Source\PSoC5/Bootloader.c ****         if(Bootloader_BL_APP_ENTRY_ADDR)
 412:.\Generated_Source\PSoC5/Bootloader.c ****         {
 413:.\Generated_Source\PSoC5/Bootloader.c ****             /* Never return from this method */
 414:.\Generated_Source\PSoC5/Bootloader.c ****             LaunchApp(Bootloader_BL_APP_ENTRY_ADDR);
 415:.\Generated_Source\PSoC5/Bootloader.c ****         }
 416:.\Generated_Source\PSoC5/Bootloader.c ****     }
 417:.\Generated_Source\PSoC5/Bootloader.c **** }
 418:.\Generated_Source\PSoC5/Bootloader.c **** 
 419:.\Generated_Source\PSoC5/Bootloader.c **** 
 420:.\Generated_Source\PSoC5/Bootloader.c **** /* Moves the arguement appAddr (RO) into PC, moving execution to the appAddr */
ARM GAS  C:\DOCUME~1\ADMINI~1\LOCALS~1\Temp\ccJzPdwj.s 			page 11


 421:.\Generated_Source\PSoC5/Bootloader.c **** #if defined (__ARMCC_VERSION)
 422:.\Generated_Source\PSoC5/Bootloader.c **** __asm void LaunchApp(uint32 appAddr)
 423:.\Generated_Source\PSoC5/Bootloader.c **** {
 424:.\Generated_Source\PSoC5/Bootloader.c **** #if(CY_PSOC5)
 425:.\Generated_Source\PSoC5/Bootloader.c ****     EXTERN CyResetStatus
 426:.\Generated_Source\PSoC5/Bootloader.c ****     LDR R2, =CyResetStatus
 427:.\Generated_Source\PSoC5/Bootloader.c ****     LDR R2, [R2]
 428:.\Generated_Source\PSoC5/Bootloader.c ****     NOP
 429:.\Generated_Source\PSoC5/Bootloader.c **** #endif  /* (CY_PSOC5) */
 430:.\Generated_Source\PSoC5/Bootloader.c ****     BX  R0
 431:.\Generated_Source\PSoC5/Bootloader.c **** 
 432:.\Generated_Source\PSoC5/Bootloader.c ****     ALIGN
 433:.\Generated_Source\PSoC5/Bootloader.c **** }
 434:.\Generated_Source\PSoC5/Bootloader.c **** #elif defined(__GNUC__)
 435:.\Generated_Source\PSoC5/Bootloader.c **** __attribute__((noinline)) /* Workaround for GCC toolchain bug with inlining */
 436:.\Generated_Source\PSoC5/Bootloader.c **** __attribute__((naked))
 437:.\Generated_Source\PSoC5/Bootloader.c **** void LaunchApp(uint32 appAddr)
 438:.\Generated_Source\PSoC5/Bootloader.c **** {
 147              		.loc 1 438 0
 148              		.cfi_startproc
 149              		@ Naked Function: prologue and epilogue provided by programmer.
 150              		@ args = 0, pretend = 0, frame = 0
 151              		@ frame_needed = 0, uses_anonymous_args = 0
 152              	.LVL13:
 439:.\Generated_Source\PSoC5/Bootloader.c **** #if(CY_PSOC5)
 440:.\Generated_Source\PSoC5/Bootloader.c ****     __asm volatile(
 153              		.loc 1 440 0
 154 0000 024B     		ldr	r3, .L16
 155              		.loc 1 438 0
 156 0002 0146     		mov	r1, r0
 157              		.loc 1 440 0
 158 0004 1B78     		ldrb	r3, [r3, #0]	@ zero_extendqisi2
 159              	@ 440 ".\Generated_Source\PSoC5\Bootloader.c" 1
 160 0006 1A46     		    MOV R2, r3
 161 0008 1268     	    LDR  R2, [R2]
 162 000a 0847     	    BX  r1
 163              	
 164              	@ 0 "" 2
 165              	.LVL14:
 441:.\Generated_Source\PSoC5/Bootloader.c ****         "    MOV R2, %0\n"
 442:.\Generated_Source\PSoC5/Bootloader.c ****         "    LDR  R2, [R2]\n"
 443:.\Generated_Source\PSoC5/Bootloader.c ****         "    BX  %1\n"
 444:.\Generated_Source\PSoC5/Bootloader.c ****         : : "r" (CyResetStatus), "r" (appAddr)
 445:.\Generated_Source\PSoC5/Bootloader.c ****         : "r0", "r2");
 446:.\Generated_Source\PSoC5/Bootloader.c **** #else
 447:.\Generated_Source\PSoC5/Bootloader.c ****     __asm volatile("    BX  R0\n");
 448:.\Generated_Source\PSoC5/Bootloader.c **** #endif  /* (CY_PSOC5) */
 449:.\Generated_Source\PSoC5/Bootloader.c **** }
 166              		.loc 1 449 0
 167              		.thumb
 168              	.L17:
 169              		.align	2
 170              	.L16:
 171 000c 00000000 		.word	CyResetStatus
 172              		.cfi_endproc
 173              	.LFE34:
 174              		.size	LaunchApp, .-LaunchApp
ARM GAS  C:\DOCUME~1\ADMINI~1\LOCALS~1\Temp\ccJzPdwj.s 			page 12


 175              		.section	.text.CyBtldr_CheckLaunch,"ax",%progbits
 176              		.align	1
 177              		.global	CyBtldr_CheckLaunch
 178              		.thumb
 179              		.thumb_func
 180              		.type	CyBtldr_CheckLaunch, %function
 181              	CyBtldr_CheckLaunch:
 182              	.LFB33:
 183              		.loc 1 399 0
 184              		.cfi_startproc
 185              		@ args = 0, pretend = 0, frame = 0
 186              		@ frame_needed = 0, uses_anonymous_args = 0
 187              		@ link register save eliminated.
 188              		.loc 1 401 0
 189 0000 074B     		ldr	r3, .L21
 190 0002 1A78     		ldrb	r2, [r3, #0]	@ zero_extendqisi2
 191 0004 02F0C002 		and	r2, r2, #192
 192 0008 802A     		cmp	r2, #128
 193 000a 07D1     		bne	.L20
 194              		.loc 1 403 0
 195 000c 803A     		subs	r2, r2, #128
 196 000e 1A70     		strb	r2, [r3, #0]
 197              		.loc 1 411 0
 198 0010 4FF6C173 		movw	r3, #65473
 199 0014 1868     		ldr	r0, [r3, #0]
 200 0016 08B1     		cbz	r0, .L20
 201              		.loc 1 417 0
 202              		.loc 1 414 0
 203 0018 FFF7FEBF 		b	LaunchApp
 204              	.L20:
 205 001c 7047     		bx	lr
 206              	.L22:
 207 001e 00BF     		.align	2
 208              	.L21:
 209 0020 FA460040 		.word	1073759994
 210              		.cfi_endproc
 211              	.LFE33:
 212              		.size	CyBtldr_CheckLaunch, .-CyBtldr_CheckLaunch
 213              		.section	.text.Bootloader_ValidateApplication,"ax",%progbits
 214              		.align	1
 215              		.global	Bootloader_ValidateApplication
 216              		.thumb
 217              		.thumb_func
 218              		.type	Bootloader_ValidateApplication, %function
 219              	Bootloader_ValidateApplication:
 220              	.LFB35:
 450:.\Generated_Source\PSoC5/Bootloader.c **** #endif  /* (__ARMCC_VERSION) */
 451:.\Generated_Source\PSoC5/Bootloader.c **** 
 452:.\Generated_Source\PSoC5/Bootloader.c **** 
 453:.\Generated_Source\PSoC5/Bootloader.c **** /*******************************************************************************
 454:.\Generated_Source\PSoC5/Bootloader.c **** * Function Name: Bootloader_ValidateApplication
 455:.\Generated_Source\PSoC5/Bootloader.c **** ********************************************************************************
 456:.\Generated_Source\PSoC5/Bootloader.c **** * Summary:
 457:.\Generated_Source\PSoC5/Bootloader.c **** *  This routine computes the checksum, zero check, 0xFF check of the
 458:.\Generated_Source\PSoC5/Bootloader.c **** *  application area to determine whether a valid application is loaded.
 459:.\Generated_Source\PSoC5/Bootloader.c **** *
 460:.\Generated_Source\PSoC5/Bootloader.c **** * Parameters:
ARM GAS  C:\DOCUME~1\ADMINI~1\LOCALS~1\Temp\ccJzPdwj.s 			page 13


 461:.\Generated_Source\PSoC5/Bootloader.c **** *  appId:
 462:.\Generated_Source\PSoC5/Bootloader.c **** *      The application number to verify
 463:.\Generated_Source\PSoC5/Bootloader.c **** *
 464:.\Generated_Source\PSoC5/Bootloader.c **** * Returns:
 465:.\Generated_Source\PSoC5/Bootloader.c **** *  CYRET_SUCCESS  - if successful
 466:.\Generated_Source\PSoC5/Bootloader.c **** *  CYRET_BAD_DATA - if the bootloadable is corrupt
 467:.\Generated_Source\PSoC5/Bootloader.c **** *
 468:.\Generated_Source\PSoC5/Bootloader.c **** *******************************************************************************/
 469:.\Generated_Source\PSoC5/Bootloader.c **** #if(0u != Bootloader_DUAL_APP_BOOTLOADER)
 470:.\Generated_Source\PSoC5/Bootloader.c ****     cystatus Bootloader_ValidateApp(uint8 appId) CYSMALL 
 471:.\Generated_Source\PSoC5/Bootloader.c ****     {
 472:.\Generated_Source\PSoC5/Bootloader.c **** #else
 473:.\Generated_Source\PSoC5/Bootloader.c ****     cystatus Bootloader_ValidateApplication() CYSMALL 
 474:.\Generated_Source\PSoC5/Bootloader.c ****     {
 221              		.loc 1 474 0
 222              		.cfi_startproc
 223              		@ args = 0, pretend = 0, frame = 0
 224              		@ frame_needed = 0, uses_anonymous_args = 0
 475:.\Generated_Source\PSoC5/Bootloader.c **** #endif  /* (0u != Bootloader_DUAL_APP_BOOTLOADER) */
 476:.\Generated_Source\PSoC5/Bootloader.c ****         uint32 CYDATA idx;
 477:.\Generated_Source\PSoC5/Bootloader.c ****         uint32 CYDATA end = Bootloader_FIRST_APP_BYTE + Bootloader_BL_APP_BYTE_LEN;
 225              		.loc 1 477 0
 226 0000 4FF6C573 		movw	r3, #65477
 227 0004 1A88     		ldrh	r2, [r3, #0]
 228 0006 0433     		adds	r3, r3, #4
 229 0008 1868     		ldr	r0, [r3, #0]
 230 000a 0132     		adds	r2, r2, #1
 231 000c 1202     		lsls	r2, r2, #8
 478:.\Generated_Source\PSoC5/Bootloader.c ****         CYBIT         valid = 0; /* Assume bad flash image */
 479:.\Generated_Source\PSoC5/Bootloader.c ****         uint8  CYDATA calcedChecksum = 0;
 480:.\Generated_Source\PSoC5/Bootloader.c **** 
 481:.\Generated_Source\PSoC5/Bootloader.c **** 
 482:.\Generated_Source\PSoC5/Bootloader.c ****         #if(0u != Bootloader_DUAL_APP_BOOTLOADER)
 483:.\Generated_Source\PSoC5/Bootloader.c **** 
 484:.\Generated_Source\PSoC5/Bootloader.c ****             if(appId > 1u)
 485:.\Generated_Source\PSoC5/Bootloader.c ****             {
 486:.\Generated_Source\PSoC5/Bootloader.c ****                 return(CYRET_BAD_DATA);
 487:.\Generated_Source\PSoC5/Bootloader.c ****             }
 488:.\Generated_Source\PSoC5/Bootloader.c **** 
 489:.\Generated_Source\PSoC5/Bootloader.c ****         #endif  /* (0u != Bootloader_DUAL_APP_BOOTLOADER) */
 490:.\Generated_Source\PSoC5/Bootloader.c **** 
 491:.\Generated_Source\PSoC5/Bootloader.c **** 
 492:.\Generated_Source\PSoC5/Bootloader.c ****         #if(1u == Bootloader_FAST_APP_VALIDATION)
 493:.\Generated_Source\PSoC5/Bootloader.c **** 
 494:.\Generated_Source\PSoC5/Bootloader.c ****             if(Bootloader_BL_APP_VERIFIED)
 495:.\Generated_Source\PSoC5/Bootloader.c ****             {
 496:.\Generated_Source\PSoC5/Bootloader.c ****                 return(CYRET_SUCCESS);
 497:.\Generated_Source\PSoC5/Bootloader.c ****             }
 498:.\Generated_Source\PSoC5/Bootloader.c **** 
 499:.\Generated_Source\PSoC5/Bootloader.c ****         #endif  /* (1u == Bootloader_FAST_APP_VALIDATION) */
 500:.\Generated_Source\PSoC5/Bootloader.c **** 
 501:.\Generated_Source\PSoC5/Bootloader.c **** 
 502:.\Generated_Source\PSoC5/Bootloader.c ****         /* Calculate checksum of bootloadable image */
 503:.\Generated_Source\PSoC5/Bootloader.c ****         for(idx = Bootloader_FIRST_APP_BYTE; idx < end; ++idx)
 232              		.loc 1 503 0
 233 000e 0023     		movs	r3, #0
 234              	.LVL15:
ARM GAS  C:\DOCUME~1\ADMINI~1\LOCALS~1\Temp\ccJzPdwj.s 			page 14


 235              		.loc 1 474 0
 236 0010 10B5     		push	{r4, lr}
 237              	.LCFI0:
 238              		.cfi_def_cfa_offset 8
 239              		.loc 1 477 0
 240 0012 1018     		adds	r0, r2, r0
 241              	.LVL16:
 242              		.loc 1 503 0
 243 0014 1946     		mov	r1, r3
 244              	.LVL17:
 245 0016 09E0     		b	.L24
 246              		.cfi_offset 14, -4
 247              		.cfi_offset 4, -8
 248              	.LVL18:
 249              	.L26:
 250              	.LBB2:
 504:.\Generated_Source\PSoC5/Bootloader.c ****         {
 505:.\Generated_Source\PSoC5/Bootloader.c ****             uint8 CYDATA curByte = Bootloader_GET_CODE_DATA(idx);
 251              		.loc 1 505 0
 252 0018 12F801CB 		ldrb	ip, [r2], #1	@ zero_extendqisi2
 506:.\Generated_Source\PSoC5/Bootloader.c **** 
 507:.\Generated_Source\PSoC5/Bootloader.c ****             if((curByte != 0) && (curByte != 0xFF))
 253              		.loc 1 507 0
 254 001c 0CF1FF34 		add	r4, ip, #-1
 255 0020 E4B2     		uxtb	r4, r4
 508:.\Generated_Source\PSoC5/Bootloader.c ****             {
 509:.\Generated_Source\PSoC5/Bootloader.c ****                 valid = 1;
 510:.\Generated_Source\PSoC5/Bootloader.c ****             }
 511:.\Generated_Source\PSoC5/Bootloader.c **** 
 512:.\Generated_Source\PSoC5/Bootloader.c ****             calcedChecksum += curByte;
 256              		.loc 1 512 0
 257 0022 6344     		add	r3, r3, ip
 258              	.LVL19:
 259              		.loc 1 507 0
 260 0024 FD2C     		cmp	r4, #253
 261 0026 98BF     		it	ls
 262 0028 0121     		movls	r1, #1
 263              		.loc 1 512 0
 264 002a DBB2     		uxtb	r3, r3
 265              	.LVL20:
 266              	.L24:
 267              	.LBE2:
 268              		.loc 1 503 0
 269 002c 8242     		cmp	r2, r0
 270 002e F3D3     		bcc	.L26
 513:.\Generated_Source\PSoC5/Bootloader.c ****         }
 514:.\Generated_Source\PSoC5/Bootloader.c **** 
 515:.\Generated_Source\PSoC5/Bootloader.c **** 
 516:.\Generated_Source\PSoC5/Bootloader.c ****         /***************************************************************************
 517:.\Generated_Source\PSoC5/Bootloader.c ****         * We do not compute checksum over the meta data section, so no need to
 518:.\Generated_Source\PSoC5/Bootloader.c ****         * subtract off App Verified or App Active information here like we do when
 519:.\Generated_Source\PSoC5/Bootloader.c ****         * verifying a row.
 520:.\Generated_Source\PSoC5/Bootloader.c ****         ***************************************************************************/
 521:.\Generated_Source\PSoC5/Bootloader.c **** 
 522:.\Generated_Source\PSoC5/Bootloader.c **** 
 523:.\Generated_Source\PSoC5/Bootloader.c ****         #if((!CY_PSOC4) && (CYDEV_ECC_ENABLE == 0))
 524:.\Generated_Source\PSoC5/Bootloader.c **** 
ARM GAS  C:\DOCUME~1\ADMINI~1\LOCALS~1\Temp\ccJzPdwj.s 			page 15


 525:.\Generated_Source\PSoC5/Bootloader.c ****             /* Add ECC data to checksum */
 526:.\Generated_Source\PSoC5/Bootloader.c ****             idx = ((Bootloader_FIRST_APP_BYTE) >> 3);
 271              		.loc 1 526 0
 272 0030 4FF6C572 		movw	r2, #65477
 273              	.LVL21:
 527:.\Generated_Source\PSoC5/Bootloader.c **** 
 528:.\Generated_Source\PSoC5/Bootloader.c ****             /* Flash may run into meta data, ECC does not so use full row */
 529:.\Generated_Source\PSoC5/Bootloader.c ****             end = (end == (FLASH_SIZE - Bootloader_META_DATA_SIZE))
 274              		.loc 1 529 0
 275 0034 4FF6C07C 		movw	ip, #65472
 276              	.LVL22:
 277 0038 6045     		cmp	r0, ip
 278              		.loc 1 526 0
 279 003a 1288     		ldrh	r2, [r2, #0]
 280              		.loc 1 529 0
 281 003c 0CBF     		ite	eq
 282 003e 4FF40050 		moveq	r0, #8192
 283              	.LVL23:
 284 0042 C008     		lsrne	r0, r0, #3
 285              		.loc 1 526 0
 286 0044 0132     		adds	r2, r2, #1
 287 0046 5201     		lsls	r2, r2, #5
 288              	.LVL24:
 530:.\Generated_Source\PSoC5/Bootloader.c ****                 ? FLASH_SIZE >> 3
 531:.\Generated_Source\PSoC5/Bootloader.c ****                 : end >> 3;
 532:.\Generated_Source\PSoC5/Bootloader.c **** 
 533:.\Generated_Source\PSoC5/Bootloader.c ****             for (; idx < end; ++idx)
 289              		.loc 1 533 0
 290 0048 06E0     		b	.L29
 291              	.L30:
 292 004a 02F19044 		add	r4, r2, #1207959552
 534:.\Generated_Source\PSoC5/Bootloader.c ****             {
 535:.\Generated_Source\PSoC5/Bootloader.c ****                 calcedChecksum += CY_GET_XTND_REG8((void CYFAR *)(CYDEV_ECC_BASE + idx));
 293              		.loc 1 535 0
 294 004e 94F800C0 		ldrb	ip, [r4, #0]	@ zero_extendqisi2
 295              		.loc 1 533 0
 296 0052 0132     		adds	r2, r2, #1
 297              		.loc 1 535 0
 298 0054 6344     		add	r3, ip, r3
 299              	.LVL25:
 300 0056 DBB2     		uxtb	r3, r3
 301              	.LVL26:
 302              	.L29:
 303              		.loc 1 533 0
 304 0058 8242     		cmp	r2, r0
 305 005a F6D3     		bcc	.L30
 536:.\Generated_Source\PSoC5/Bootloader.c ****             }
 537:.\Generated_Source\PSoC5/Bootloader.c **** 
 538:.\Generated_Source\PSoC5/Bootloader.c ****         #endif  /* ((!CY_PSOC4) && (CYDEV_ECC_ENABLE == 0)) */
 539:.\Generated_Source\PSoC5/Bootloader.c **** 
 540:.\Generated_Source\PSoC5/Bootloader.c **** 
 541:.\Generated_Source\PSoC5/Bootloader.c ****         calcedChecksum = 1 + ~calcedChecksum;
 542:.\Generated_Source\PSoC5/Bootloader.c ****         if((calcedChecksum != Bootloader_BL_APP_CHECKSUM) || !valid)
 306              		.loc 1 542 0
 307 005c 4FF6C072 		movw	r2, #65472
 308              	.LVL27:
 309              		.loc 1 541 0
ARM GAS  C:\DOCUME~1\ADMINI~1\LOCALS~1\Temp\ccJzPdwj.s 			page 16


 310 0060 5B42     		negs	r3, r3
 311              	.LVL28:
 312              		.loc 1 542 0
 313 0062 1278     		ldrb	r2, [r2, #0]	@ zero_extendqisi2
 314 0064 DBB2     		uxtb	r3, r3
 315 0066 9342     		cmp	r3, r2
 316 0068 02D1     		bne	.L31
 317 006a 09B1     		cbz	r1, .L31
 318 006c 0020     		movs	r0, #0
 319              	.LVL29:
 320 006e 10BD     		pop	{r4, pc}
 321              	.LVL30:
 322              	.L31:
 323 0070 0620     		movs	r0, #6
 324              	.LVL31:
 543:.\Generated_Source\PSoC5/Bootloader.c ****         {
 544:.\Generated_Source\PSoC5/Bootloader.c ****             return(CYRET_BAD_DATA);
 545:.\Generated_Source\PSoC5/Bootloader.c ****         }
 546:.\Generated_Source\PSoC5/Bootloader.c **** 
 547:.\Generated_Source\PSoC5/Bootloader.c **** 
 548:.\Generated_Source\PSoC5/Bootloader.c ****         #if(1u == Bootloader_FAST_APP_VALIDATION)
 549:.\Generated_Source\PSoC5/Bootloader.c ****             Bootloader_SetFlashByte(Bootloader_MD_APP_VERIFIED_ADDR, 1);
 550:.\Generated_Source\PSoC5/Bootloader.c ****         #endif  /* (1u == Bootloader_FAST_APP_VALIDATION) */
 551:.\Generated_Source\PSoC5/Bootloader.c **** 
 552:.\Generated_Source\PSoC5/Bootloader.c **** 
 553:.\Generated_Source\PSoC5/Bootloader.c ****         return(CYRET_SUCCESS);
 554:.\Generated_Source\PSoC5/Bootloader.c **** }
 325              		.loc 1 554 0
 326 0072 10BD     		pop	{r4, pc}
 327              		.cfi_endproc
 328              	.LFE35:
 329              		.size	Bootloader_ValidateApplication, .-Bootloader_ValidateApplication
 330              		.section	.text.Bootloader_SetFlashByte,"ax",%progbits
 331              		.align	1
 332              		.global	Bootloader_SetFlashByte
 333              		.thumb
 334              		.thumb_func
 335              		.type	Bootloader_SetFlashByte, %function
 336              	Bootloader_SetFlashByte:
 337              	.LFB38:
 555:.\Generated_Source\PSoC5/Bootloader.c **** 
 556:.\Generated_Source\PSoC5/Bootloader.c **** 
 557:.\Generated_Source\PSoC5/Bootloader.c **** /*******************************************************************************
 558:.\Generated_Source\PSoC5/Bootloader.c **** * Function Name: Bootloader_HostLink
 559:.\Generated_Source\PSoC5/Bootloader.c **** ********************************************************************************
 560:.\Generated_Source\PSoC5/Bootloader.c **** *
 561:.\Generated_Source\PSoC5/Bootloader.c **** * Summary:
 562:.\Generated_Source\PSoC5/Bootloader.c **** *  Causes the bootloader to attempt to read data being transmitted by the
 563:.\Generated_Source\PSoC5/Bootloader.c **** *  host application.  If data is sent from the host, this establishes the
 564:.\Generated_Source\PSoC5/Bootloader.c **** *  communication interface to process all requests.
 565:.\Generated_Source\PSoC5/Bootloader.c **** *
 566:.\Generated_Source\PSoC5/Bootloader.c **** * Parameters:
 567:.\Generated_Source\PSoC5/Bootloader.c **** *  timeOut:
 568:.\Generated_Source\PSoC5/Bootloader.c **** *   The amount of time to listen for data before giving up. Timeout is
 569:.\Generated_Source\PSoC5/Bootloader.c **** *   measured in 10s of ms.  Use 0 for infinite wait.
 570:.\Generated_Source\PSoC5/Bootloader.c **** *
 571:.\Generated_Source\PSoC5/Bootloader.c **** * Return:
ARM GAS  C:\DOCUME~1\ADMINI~1\LOCALS~1\Temp\ccJzPdwj.s 			page 17


 572:.\Generated_Source\PSoC5/Bootloader.c **** *   None
 573:.\Generated_Source\PSoC5/Bootloader.c **** *
 574:.\Generated_Source\PSoC5/Bootloader.c **** *******************************************************************************/
 575:.\Generated_Source\PSoC5/Bootloader.c **** void Bootloader_HostLink(uint8 timeOut) 
 576:.\Generated_Source\PSoC5/Bootloader.c **** {
 577:.\Generated_Source\PSoC5/Bootloader.c ****     uint16    CYDATA numberRead;
 578:.\Generated_Source\PSoC5/Bootloader.c ****     uint16    CYDATA rspSize;
 579:.\Generated_Source\PSoC5/Bootloader.c ****     uint8     CYDATA ackCode;
 580:.\Generated_Source\PSoC5/Bootloader.c ****     uint16    CYDATA pktChecksum;
 581:.\Generated_Source\PSoC5/Bootloader.c ****     cystatus  CYDATA readStat;
 582:.\Generated_Source\PSoC5/Bootloader.c ****     uint16    CYDATA pktSize = 0;
 583:.\Generated_Source\PSoC5/Bootloader.c ****     uint16 CYDATA dataOffset = 0;
 584:.\Generated_Source\PSoC5/Bootloader.c **** 
 585:.\Generated_Source\PSoC5/Bootloader.c ****     #if(0u == Bootloader_DUAL_APP_BOOTLOADER)
 586:.\Generated_Source\PSoC5/Bootloader.c ****         uint8 CYDATA clearedMetaData = 0;
 587:.\Generated_Source\PSoC5/Bootloader.c ****     #endif  /* (0u == Bootloader_DUAL_APP_BOOTLOADER) */
 588:.\Generated_Source\PSoC5/Bootloader.c **** 
 589:.\Generated_Source\PSoC5/Bootloader.c ****     CYBIT     communicationActive = (timeOut == 0);
 590:.\Generated_Source\PSoC5/Bootloader.c ****     uint8     packetBuffer[Bootloader_SIZEOF_COMMAND_BUFFER];
 591:.\Generated_Source\PSoC5/Bootloader.c ****     uint8     dataBuffer  [Bootloader_SIZEOF_COMMAND_BUFFER];
 592:.\Generated_Source\PSoC5/Bootloader.c **** 
 593:.\Generated_Source\PSoC5/Bootloader.c **** 
 594:.\Generated_Source\PSoC5/Bootloader.c ****     if(timeOut == 0u)
 595:.\Generated_Source\PSoC5/Bootloader.c ****     {
 596:.\Generated_Source\PSoC5/Bootloader.c ****         timeOut = 0xFF;
 597:.\Generated_Source\PSoC5/Bootloader.c ****     }
 598:.\Generated_Source\PSoC5/Bootloader.c **** 
 599:.\Generated_Source\PSoC5/Bootloader.c ****     /* Initialize communications channel. */
 600:.\Generated_Source\PSoC5/Bootloader.c ****     CyBtldrCommStart();
 601:.\Generated_Source\PSoC5/Bootloader.c **** 
 602:.\Generated_Source\PSoC5/Bootloader.c ****     /* Enable global interrupts */
 603:.\Generated_Source\PSoC5/Bootloader.c ****     CyGlobalIntEnable;
 604:.\Generated_Source\PSoC5/Bootloader.c **** 
 605:.\Generated_Source\PSoC5/Bootloader.c ****     do
 606:.\Generated_Source\PSoC5/Bootloader.c ****     {
 607:.\Generated_Source\PSoC5/Bootloader.c ****         ackCode = CYRET_SUCCESS;
 608:.\Generated_Source\PSoC5/Bootloader.c ****         readStat = CyBtldrCommRead(packetBuffer, Bootloader_SIZEOF_COMMAND_BUFFER, &numberRead, tim
 609:.\Generated_Source\PSoC5/Bootloader.c **** 
 610:.\Generated_Source\PSoC5/Bootloader.c ****         if(readStat == CYRET_TIMEOUT || readStat == CYRET_EMPTY)
 611:.\Generated_Source\PSoC5/Bootloader.c ****         {
 612:.\Generated_Source\PSoC5/Bootloader.c ****             continue;
 613:.\Generated_Source\PSoC5/Bootloader.c ****         }
 614:.\Generated_Source\PSoC5/Bootloader.c **** 
 615:.\Generated_Source\PSoC5/Bootloader.c ****         if((numberRead < Bootloader_MIN_PKT_SIZE) ||
 616:.\Generated_Source\PSoC5/Bootloader.c ****            (packetBuffer[Bootloader_SOP_ADDR] != Bootloader_SOP))
 617:.\Generated_Source\PSoC5/Bootloader.c ****         {
 618:.\Generated_Source\PSoC5/Bootloader.c ****             ackCode = Bootloader_ERR_DATA;
 619:.\Generated_Source\PSoC5/Bootloader.c ****         }
 620:.\Generated_Source\PSoC5/Bootloader.c ****         else
 621:.\Generated_Source\PSoC5/Bootloader.c ****         {
 622:.\Generated_Source\PSoC5/Bootloader.c ****             #if(!CY_PSOC4)
 623:.\Generated_Source\PSoC5/Bootloader.c ****                 pktSize     = CY_GET_REG16(&packetBuffer[Bootloader_SIZE_ADDR]);
 624:.\Generated_Source\PSoC5/Bootloader.c ****                 pktChecksum = CY_GET_REG16(&packetBuffer[Bootloader_CHK_ADDR(pktSize)]);
 625:.\Generated_Source\PSoC5/Bootloader.c ****             #else
 626:.\Generated_Source\PSoC5/Bootloader.c ****                 pktSize     = Bootloader_GET_REG16(&packetBuffer[Bootloader_SIZE_ADDR]);
 627:.\Generated_Source\PSoC5/Bootloader.c ****                 pktChecksum = Bootloader_GET_REG16(&packetBuffer[Bootloader_CHK_ADDR(pktSize)]);
 628:.\Generated_Source\PSoC5/Bootloader.c ****             #endif  /* (!CY_PSOC4) */
ARM GAS  C:\DOCUME~1\ADMINI~1\LOCALS~1\Temp\ccJzPdwj.s 			page 18


 629:.\Generated_Source\PSoC5/Bootloader.c **** 
 630:.\Generated_Source\PSoC5/Bootloader.c ****             if((pktSize + Bootloader_MIN_PKT_SIZE) > numberRead)
 631:.\Generated_Source\PSoC5/Bootloader.c ****             {
 632:.\Generated_Source\PSoC5/Bootloader.c ****                 ackCode = Bootloader_ERR_LENGTH;
 633:.\Generated_Source\PSoC5/Bootloader.c ****             }
 634:.\Generated_Source\PSoC5/Bootloader.c ****             else if(packetBuffer[Bootloader_EOP_ADDR(pktSize)] != Bootloader_EOP)
 635:.\Generated_Source\PSoC5/Bootloader.c ****             {
 636:.\Generated_Source\PSoC5/Bootloader.c ****                 ackCode = Bootloader_ERR_DATA;
 637:.\Generated_Source\PSoC5/Bootloader.c ****             }
 638:.\Generated_Source\PSoC5/Bootloader.c ****             else if(pktChecksum != Bootloader_CalcPacketChecksum(packetBuffer, pktSize + Bootloader
 639:.\Generated_Source\PSoC5/Bootloader.c ****             {
 640:.\Generated_Source\PSoC5/Bootloader.c ****                 ackCode = Bootloader_ERR_CHECKSUM;
 641:.\Generated_Source\PSoC5/Bootloader.c ****             }
 642:.\Generated_Source\PSoC5/Bootloader.c ****             else
 643:.\Generated_Source\PSoC5/Bootloader.c ****             {
 644:.\Generated_Source\PSoC5/Bootloader.c ****                 /* Empty section */
 645:.\Generated_Source\PSoC5/Bootloader.c ****             }
 646:.\Generated_Source\PSoC5/Bootloader.c ****         }
 647:.\Generated_Source\PSoC5/Bootloader.c **** 
 648:.\Generated_Source\PSoC5/Bootloader.c ****         rspSize = 0;
 649:.\Generated_Source\PSoC5/Bootloader.c ****         if(ackCode == CYRET_SUCCESS)
 650:.\Generated_Source\PSoC5/Bootloader.c ****         {
 651:.\Generated_Source\PSoC5/Bootloader.c ****             uint8 CYDATA btldrData = packetBuffer[Bootloader_DATA_ADDR];
 652:.\Generated_Source\PSoC5/Bootloader.c **** 
 653:.\Generated_Source\PSoC5/Bootloader.c ****             ackCode = Bootloader_ERR_DATA;
 654:.\Generated_Source\PSoC5/Bootloader.c ****             switch(packetBuffer[Bootloader_CMD_ADDR])
 655:.\Generated_Source\PSoC5/Bootloader.c ****             {
 656:.\Generated_Source\PSoC5/Bootloader.c **** 
 657:.\Generated_Source\PSoC5/Bootloader.c **** 
 658:.\Generated_Source\PSoC5/Bootloader.c ****             /***************************************************************************
 659:.\Generated_Source\PSoC5/Bootloader.c ****             *   Verify Checksum
 660:.\Generated_Source\PSoC5/Bootloader.c ****             ***************************************************************************/
 661:.\Generated_Source\PSoC5/Bootloader.c ****             case Bootloader_COMMAND_CHECKSUM:
 662:.\Generated_Source\PSoC5/Bootloader.c **** 
 663:.\Generated_Source\PSoC5/Bootloader.c ****                 if(communicationActive && (pktSize == 0u))
 664:.\Generated_Source\PSoC5/Bootloader.c ****                 {
 665:.\Generated_Source\PSoC5/Bootloader.c ****                     rspSize = 1;
 666:.\Generated_Source\PSoC5/Bootloader.c ****                     packetBuffer[Bootloader_DATA_ADDR] =
 667:.\Generated_Source\PSoC5/Bootloader.c ****                                 (Bootloader_ValidateApp(Bootloader_activeApp) == CYRET_SUCCESS);
 668:.\Generated_Source\PSoC5/Bootloader.c ****                     ackCode = CYRET_SUCCESS;
 669:.\Generated_Source\PSoC5/Bootloader.c ****                 }
 670:.\Generated_Source\PSoC5/Bootloader.c ****                 break;
 671:.\Generated_Source\PSoC5/Bootloader.c **** 
 672:.\Generated_Source\PSoC5/Bootloader.c **** 
 673:.\Generated_Source\PSoC5/Bootloader.c ****             /***************************************************************************
 674:.\Generated_Source\PSoC5/Bootloader.c ****             *   Get Flash Size
 675:.\Generated_Source\PSoC5/Bootloader.c ****             ***************************************************************************/
 676:.\Generated_Source\PSoC5/Bootloader.c ****             #if(Bootloader_CMD_GET_FLASH_SIZE_AVAIL == 1u)
 677:.\Generated_Source\PSoC5/Bootloader.c **** 
 678:.\Generated_Source\PSoC5/Bootloader.c ****                 case Bootloader_COMMAND_REPORT_SIZE:
 679:.\Generated_Source\PSoC5/Bootloader.c **** 
 680:.\Generated_Source\PSoC5/Bootloader.c ****                     if(communicationActive && (pktSize == 1u))
 681:.\Generated_Source\PSoC5/Bootloader.c ****                     {
 682:.\Generated_Source\PSoC5/Bootloader.c ****                         if(btldrData < Bootloader_FLASH_NUMBER_SECTORS)
 683:.\Generated_Source\PSoC5/Bootloader.c ****                         {
 684:.\Generated_Source\PSoC5/Bootloader.c ****                             uint16 CYDATA startRow = (btldrData == 0)
 685:.\Generated_Source\PSoC5/Bootloader.c ****                                 ? (*Bootloader_SizeBytesAccess / CYDEV_FLS_ROW_SIZE)
ARM GAS  C:\DOCUME~1\ADMINI~1\LOCALS~1\Temp\ccJzPdwj.s 			page 19


 686:.\Generated_Source\PSoC5/Bootloader.c ****                                 : 0;
 687:.\Generated_Source\PSoC5/Bootloader.c **** 
 688:.\Generated_Source\PSoC5/Bootloader.c ****                             packetBuffer[Bootloader_DATA_ADDR]     = LO8(startRow);
 689:.\Generated_Source\PSoC5/Bootloader.c ****                             packetBuffer[Bootloader_DATA_ADDR + 1] = HI8(startRow);
 690:.\Generated_Source\PSoC5/Bootloader.c ****                             packetBuffer[Bootloader_DATA_ADDR + 2] = LO8(CY_FLASH_NUMBER_ROWS - 1);
 691:.\Generated_Source\PSoC5/Bootloader.c ****                             packetBuffer[Bootloader_DATA_ADDR + 3] = HI8(CY_FLASH_NUMBER_ROWS - 1);
 692:.\Generated_Source\PSoC5/Bootloader.c ****                         }
 693:.\Generated_Source\PSoC5/Bootloader.c **** 
 694:.\Generated_Source\PSoC5/Bootloader.c ****                         rspSize = 4;
 695:.\Generated_Source\PSoC5/Bootloader.c ****                         ackCode = CYRET_SUCCESS;
 696:.\Generated_Source\PSoC5/Bootloader.c ****                     }
 697:.\Generated_Source\PSoC5/Bootloader.c ****                     break;
 698:.\Generated_Source\PSoC5/Bootloader.c **** 
 699:.\Generated_Source\PSoC5/Bootloader.c ****             #endif  /* (Bootloader_CMD_GET_FLASH_SIZE_AVAIL == 1u) */
 700:.\Generated_Source\PSoC5/Bootloader.c **** 
 701:.\Generated_Source\PSoC5/Bootloader.c **** 
 702:.\Generated_Source\PSoC5/Bootloader.c ****             /***************************************************************************
 703:.\Generated_Source\PSoC5/Bootloader.c ****             *   Get Application Status
 704:.\Generated_Source\PSoC5/Bootloader.c ****             ***************************************************************************/
 705:.\Generated_Source\PSoC5/Bootloader.c ****             #if(1u == Bootloader_DUAL_APP_BOOTLOADER)
 706:.\Generated_Source\PSoC5/Bootloader.c **** 
 707:.\Generated_Source\PSoC5/Bootloader.c ****                 #if(1u == Bootloader_CMD_GET_APP_STATUS_AVAIL)
 708:.\Generated_Source\PSoC5/Bootloader.c **** 
 709:.\Generated_Source\PSoC5/Bootloader.c ****                     case Bootloader_COMMAND_APP_STATUS:
 710:.\Generated_Source\PSoC5/Bootloader.c **** 
 711:.\Generated_Source\PSoC5/Bootloader.c ****                         if(communicationActive && (pktSize == 1u))
 712:.\Generated_Source\PSoC5/Bootloader.c ****                         {
 713:.\Generated_Source\PSoC5/Bootloader.c ****                             rspSize = 2u;
 714:.\Generated_Source\PSoC5/Bootloader.c ****                             packetBuffer[Bootloader_DATA_ADDR] = Bootloader_ValidateApp(btldrData);
 715:.\Generated_Source\PSoC5/Bootloader.c **** 
 716:.\Generated_Source\PSoC5/Bootloader.c ****                             packetBuffer[Bootloader_DATA_ADDR + 1] =
 717:.\Generated_Source\PSoC5/Bootloader.c ****                                         (uint8)(*Bootloader_P_APP_ACTIVE(btldrData));
 718:.\Generated_Source\PSoC5/Bootloader.c **** 
 719:.\Generated_Source\PSoC5/Bootloader.c ****                             ackCode = CYRET_SUCCESS;
 720:.\Generated_Source\PSoC5/Bootloader.c ****                         }
 721:.\Generated_Source\PSoC5/Bootloader.c ****                         break;
 722:.\Generated_Source\PSoC5/Bootloader.c **** 
 723:.\Generated_Source\PSoC5/Bootloader.c ****                 #endif  /* (1u == Bootloader_CMD_GET_APP_STATUS_AVAIL) */
 724:.\Generated_Source\PSoC5/Bootloader.c **** 
 725:.\Generated_Source\PSoC5/Bootloader.c ****             #endif  /* (1u == Bootloader_DUAL_APP_BOOTLOADER) */
 726:.\Generated_Source\PSoC5/Bootloader.c **** 
 727:.\Generated_Source\PSoC5/Bootloader.c **** 
 728:.\Generated_Source\PSoC5/Bootloader.c ****             /***************************************************************************
 729:.\Generated_Source\PSoC5/Bootloader.c ****             *   Erase Row
 730:.\Generated_Source\PSoC5/Bootloader.c ****             ***************************************************************************/
 731:.\Generated_Source\PSoC5/Bootloader.c ****             #if(Bootloader_CMD_ERASE_ROW_AVAIL == 1u)
 732:.\Generated_Source\PSoC5/Bootloader.c **** 
 733:.\Generated_Source\PSoC5/Bootloader.c ****                 case Bootloader_COMMAND_ERASE:
 734:.\Generated_Source\PSoC5/Bootloader.c **** 
 735:.\Generated_Source\PSoC5/Bootloader.c ****                     if(communicationActive && (pktSize != 3u))
 736:.\Generated_Source\PSoC5/Bootloader.c ****                     {
 737:.\Generated_Source\PSoC5/Bootloader.c ****                         break;
 738:.\Generated_Source\PSoC5/Bootloader.c ****                     }
 739:.\Generated_Source\PSoC5/Bootloader.c **** 
 740:.\Generated_Source\PSoC5/Bootloader.c ****                     dataOffset = Bootloader_FROW_SIZE;
 741:.\Generated_Source\PSoC5/Bootloader.c ****                     memset(dataBuffer, 0u, Bootloader_FROW_SIZE);
 742:.\Generated_Source\PSoC5/Bootloader.c **** 
ARM GAS  C:\DOCUME~1\ADMINI~1\LOCALS~1\Temp\ccJzPdwj.s 			page 20


 743:.\Generated_Source\PSoC5/Bootloader.c ****                     /* Intentional fall through to write the row */
 744:.\Generated_Source\PSoC5/Bootloader.c **** 
 745:.\Generated_Source\PSoC5/Bootloader.c ****             #endif  /* (Bootloader_CMD_ERASE_ROW_AVAIL == 1u) */
 746:.\Generated_Source\PSoC5/Bootloader.c **** 
 747:.\Generated_Source\PSoC5/Bootloader.c **** 
 748:.\Generated_Source\PSoC5/Bootloader.c ****             /***************************************************************************
 749:.\Generated_Source\PSoC5/Bootloader.c ****             *   Program Row
 750:.\Generated_Source\PSoC5/Bootloader.c ****             ***************************************************************************/
 751:.\Generated_Source\PSoC5/Bootloader.c ****             case Bootloader_COMMAND_PROGRAM:
 752:.\Generated_Source\PSoC5/Bootloader.c **** 
 753:.\Generated_Source\PSoC5/Bootloader.c ****                 if(communicationActive && (pktSize >= 3u))
 754:.\Generated_Source\PSoC5/Bootloader.c ****                 {
 755:.\Generated_Source\PSoC5/Bootloader.c ****                     memcpy(&dataBuffer[dataOffset], &packetBuffer[Bootloader_DATA_ADDR + 3], pktSiz
 756:.\Generated_Source\PSoC5/Bootloader.c ****                     dataOffset += (pktSize - 3);
 757:.\Generated_Source\PSoC5/Bootloader.c **** 
 758:.\Generated_Source\PSoC5/Bootloader.c ****                     pktSize = Bootloader_FROW_SIZE;
 759:.\Generated_Source\PSoC5/Bootloader.c **** 
 760:.\Generated_Source\PSoC5/Bootloader.c ****                     if(dataOffset == pktSize)
 761:.\Generated_Source\PSoC5/Bootloader.c ****                     {
 762:.\Generated_Source\PSoC5/Bootloader.c ****                         #if(!CY_PSOC4)
 763:.\Generated_Source\PSoC5/Bootloader.c ****                             dataOffset = CY_GET_REG16(&(packetBuffer[Bootloader_DATA_ADDR + 1u]));
 764:.\Generated_Source\PSoC5/Bootloader.c ****                         #else
 765:.\Generated_Source\PSoC5/Bootloader.c ****                             dataOffset = Bootloader_GET_REG16(&(packetBuffer[Bootloader_DATA_ADDR +
 766:.\Generated_Source\PSoC5/Bootloader.c ****                         #endif  /* (!CY_PSOC4) */
 767:.\Generated_Source\PSoC5/Bootloader.c **** 
 768:.\Generated_Source\PSoC5/Bootloader.c ****                         #if(0u == Bootloader_DUAL_APP_BOOTLOADER)
 769:.\Generated_Source\PSoC5/Bootloader.c **** 
 770:.\Generated_Source\PSoC5/Bootloader.c ****                             if(!clearedMetaData)
 771:.\Generated_Source\PSoC5/Bootloader.c ****                             {
 772:.\Generated_Source\PSoC5/Bootloader.c ****                                 uint8 erase[Bootloader_FROW_SIZE];
 773:.\Generated_Source\PSoC5/Bootloader.c **** 
 774:.\Generated_Source\PSoC5/Bootloader.c ****                                 memset(erase, 0, Bootloader_FROW_SIZE);
 775:.\Generated_Source\PSoC5/Bootloader.c **** 
 776:.\Generated_Source\PSoC5/Bootloader.c ****                                 #if(CY_PSOC4)
 777:.\Generated_Source\PSoC5/Bootloader.c ****                                     CySysFlashWriteRow(Bootloader_MD_ROW, erase);
 778:.\Generated_Source\PSoC5/Bootloader.c ****                                 #else
 779:.\Generated_Source\PSoC5/Bootloader.c ****                                     CyWriteRowFull(Bootloader_META_ARRAY, Bootloader_MD_ROW, erase,
 780:.\Generated_Source\PSoC5/Bootloader.c ****                                 #endif  /* (CY_PSOC4) */
 781:.\Generated_Source\PSoC5/Bootloader.c **** 
 782:.\Generated_Source\PSoC5/Bootloader.c ****                                 clearedMetaData = 1;
 783:.\Generated_Source\PSoC5/Bootloader.c ****                             }
 784:.\Generated_Source\PSoC5/Bootloader.c **** 
 785:.\Generated_Source\PSoC5/Bootloader.c ****                         #else
 786:.\Generated_Source\PSoC5/Bootloader.c **** 
 787:.\Generated_Source\PSoC5/Bootloader.c ****                             if(Bootloader_activeApp < 2u)
 788:.\Generated_Source\PSoC5/Bootloader.c ****                             {
 789:.\Generated_Source\PSoC5/Bootloader.c ****                                 #if(CY_PSOC4)
 790:.\Generated_Source\PSoC5/Bootloader.c **** 
 791:.\Generated_Source\PSoC5/Bootloader.c ****                                     uint16 row = dataOffset;
 792:.\Generated_Source\PSoC5/Bootloader.c ****                                     uint16 firstRow = Bootloader_GET_REG32(\
 793:.\Generated_Source\PSoC5/Bootloader.c ****                                         Bootloader_META_LAST_BLDR_ROW_ADDR(Bootloader_activeApp)) +
 794:.\Generated_Source\PSoC5/Bootloader.c **** 
 795:.\Generated_Source\PSoC5/Bootloader.c ****                                 #else
 796:.\Generated_Source\PSoC5/Bootloader.c **** 
 797:.\Generated_Source\PSoC5/Bootloader.c ****                                     uint16 row = (btldrData * (CYDEV_FLS_SECTOR_SIZE / CYDEV_FLS_RO
 798:.\Generated_Source\PSoC5/Bootloader.c ****                                                   dataOffset;
 799:.\Generated_Source\PSoC5/Bootloader.c **** 
ARM GAS  C:\DOCUME~1\ADMINI~1\LOCALS~1\Temp\ccJzPdwj.s 			page 21


 800:.\Generated_Source\PSoC5/Bootloader.c ****                                     uint16 firstRow = (*((uint16 CYCODE *)\
 801:.\Generated_Source\PSoC5/Bootloader.c ****                                         (Bootloader_META_LAST_BLDR_ROW_ADDR(Bootloader_activeApp)))
 802:.\Generated_Source\PSoC5/Bootloader.c ****                                         1;
 803:.\Generated_Source\PSoC5/Bootloader.c **** 
 804:.\Generated_Source\PSoC5/Bootloader.c ****                                 #endif  /* (CY_PSOC4) */
 805:.\Generated_Source\PSoC5/Bootloader.c **** 
 806:.\Generated_Source\PSoC5/Bootloader.c ****                                 /******************************************************************
 807:.\Generated_Source\PSoC5/Bootloader.c ****                                 * Last row is equal to the first row plus the number of rows availa
 808:.\Generated_Source\PSoC5/Bootloader.c ****                                 * To compute this, we first subtract the number of appliaction imag
 809:.\Generated_Source\PSoC5/Bootloader.c ****                                 * flash rows: (CY_FLASH_NUMBER_ROWS - 2u).
 810:.\Generated_Source\PSoC5/Bootloader.c ****                                 *
 811:.\Generated_Source\PSoC5/Bootloader.c ****                                 * Then subtract off the first row:
 812:.\Generated_Source\PSoC5/Bootloader.c ****                                 * App Rows = (CY_FLASH_NUMBER_ROWS - 2u - firstRow)
 813:.\Generated_Source\PSoC5/Bootloader.c ****                                 * Then divide that number by the number of application that must fi
 814:.\Generated_Source\PSoC5/Bootloader.c ****                                 * space, if we are app1 then that number is 2, if app2 then 1.  Our
 815:.\Generated_Source\PSoC5/Bootloader.c ****                                 * (2u - Bootloader_activeApp).
 816:.\Generated_Source\PSoC5/Bootloader.c ****                                 *
 817:.\Generated_Source\PSoC5/Bootloader.c ****                                 * Adding this number to firstRow gives the address right beyond our
 818:.\Generated_Source\PSoC5/Bootloader.c ****                                 * we subtract 1.
 819:.\Generated_Source\PSoC5/Bootloader.c ****                                 *******************************************************************
 820:.\Generated_Source\PSoC5/Bootloader.c ****                                 uint16 lastRow = (firstRow - 1) +
 821:.\Generated_Source\PSoC5/Bootloader.c ****                                                  (((CYDEV_FLASH_SIZE / CYDEV_FLS_ROW_SIZE) - 2u - f
 822:.\Generated_Source\PSoC5/Bootloader.c ****                                                   (2u - Bootloader_activeApp));
 823:.\Generated_Source\PSoC5/Bootloader.c **** 
 824:.\Generated_Source\PSoC5/Bootloader.c **** 
 825:.\Generated_Source\PSoC5/Bootloader.c ****                                 /******************************************************************
 826:.\Generated_Source\PSoC5/Bootloader.c ****                                 * Check to see if the row to program is within the range of the act
 827:.\Generated_Source\PSoC5/Bootloader.c ****                                 * or if it maches the active application's meta data row.  If so, r
 828:.\Generated_Source\PSoC5/Bootloader.c ****                                 * as it would corrupt the active app.
 829:.\Generated_Source\PSoC5/Bootloader.c ****                                 *******************************************************************
 830:.\Generated_Source\PSoC5/Bootloader.c ****                                 if((row >= firstRow && row <= lastRow) ||
 831:.\Generated_Source\PSoC5/Bootloader.c ****                                    (btldrData == Bootloader_META_ARRAY &&
 832:.\Generated_Source\PSoC5/Bootloader.c ****                                    dataOffset == Bootloader_MD_ROW(Bootloader_activeApp)))
 833:.\Generated_Source\PSoC5/Bootloader.c ****                                 {
 834:.\Generated_Source\PSoC5/Bootloader.c ****                                     ackCode = Bootloader_ERR_ACTIVE;
 835:.\Generated_Source\PSoC5/Bootloader.c ****                                     dataOffset = 0;
 836:.\Generated_Source\PSoC5/Bootloader.c ****                                     break;
 837:.\Generated_Source\PSoC5/Bootloader.c ****                                 }
 838:.\Generated_Source\PSoC5/Bootloader.c ****                             }
 839:.\Generated_Source\PSoC5/Bootloader.c **** 
 840:.\Generated_Source\PSoC5/Bootloader.c ****                         #endif  /* (0u == Bootloader_DUAL_APP_BOOTLOADER) */
 841:.\Generated_Source\PSoC5/Bootloader.c **** 
 842:.\Generated_Source\PSoC5/Bootloader.c **** 
 843:.\Generated_Source\PSoC5/Bootloader.c ****                         #if(CY_PSOC4)
 844:.\Generated_Source\PSoC5/Bootloader.c **** 
 845:.\Generated_Source\PSoC5/Bootloader.c ****                             ackCode = CySysFlashWriteRow(dataOffset, dataBuffer) \
 846:.\Generated_Source\PSoC5/Bootloader.c ****                                 ? Bootloader_ERR_ROW \
 847:.\Generated_Source\PSoC5/Bootloader.c ****                                 : CYRET_SUCCESS;
 848:.\Generated_Source\PSoC5/Bootloader.c **** 
 849:.\Generated_Source\PSoC5/Bootloader.c ****                         #else
 850:.\Generated_Source\PSoC5/Bootloader.c **** 
 851:.\Generated_Source\PSoC5/Bootloader.c ****                             ackCode = CyWriteRowFull(btldrData, dataOffset, dataBuffer, pktSize) \
 852:.\Generated_Source\PSoC5/Bootloader.c ****                                 ? Bootloader_ERR_ROW \
 853:.\Generated_Source\PSoC5/Bootloader.c ****                                 : CYRET_SUCCESS;
 854:.\Generated_Source\PSoC5/Bootloader.c **** 
 855:.\Generated_Source\PSoC5/Bootloader.c ****                         #endif  /* (CY_PSOC4) */
 856:.\Generated_Source\PSoC5/Bootloader.c **** 
ARM GAS  C:\DOCUME~1\ADMINI~1\LOCALS~1\Temp\ccJzPdwj.s 			page 22


 857:.\Generated_Source\PSoC5/Bootloader.c ****                     }
 858:.\Generated_Source\PSoC5/Bootloader.c ****                     else
 859:.\Generated_Source\PSoC5/Bootloader.c ****                     {
 860:.\Generated_Source\PSoC5/Bootloader.c ****                         ackCode = Bootloader_ERR_LENGTH;
 861:.\Generated_Source\PSoC5/Bootloader.c ****                     }
 862:.\Generated_Source\PSoC5/Bootloader.c **** 
 863:.\Generated_Source\PSoC5/Bootloader.c ****                     dataOffset = 0;
 864:.\Generated_Source\PSoC5/Bootloader.c ****                 }
 865:.\Generated_Source\PSoC5/Bootloader.c ****                 break;
 866:.\Generated_Source\PSoC5/Bootloader.c **** 
 867:.\Generated_Source\PSoC5/Bootloader.c **** 
 868:.\Generated_Source\PSoC5/Bootloader.c ****             /***************************************************************************
 869:.\Generated_Source\PSoC5/Bootloader.c ****             *   Sync Bootloader
 870:.\Generated_Source\PSoC5/Bootloader.c ****             ***************************************************************************/
 871:.\Generated_Source\PSoC5/Bootloader.c ****             #if(1u == Bootloader_CMD_SYNC_BOOTLOADER_AVAIL)
 872:.\Generated_Source\PSoC5/Bootloader.c **** 
 873:.\Generated_Source\PSoC5/Bootloader.c ****             case Bootloader_COMMAND_SYNC:
 874:.\Generated_Source\PSoC5/Bootloader.c **** 
 875:.\Generated_Source\PSoC5/Bootloader.c ****                 /* If something failed the host would send this command to reset the bootloader. */
 876:.\Generated_Source\PSoC5/Bootloader.c ****                 dataOffset = 0;
 877:.\Generated_Source\PSoC5/Bootloader.c ****                 continue; /* Don't ack the packet, just get ready to accept the next one */
 878:.\Generated_Source\PSoC5/Bootloader.c **** 
 879:.\Generated_Source\PSoC5/Bootloader.c ****             #endif  /* (1u == Bootloader_CMD_SYNC_BOOTLOADER_AVAIL) */
 880:.\Generated_Source\PSoC5/Bootloader.c **** 
 881:.\Generated_Source\PSoC5/Bootloader.c **** 
 882:.\Generated_Source\PSoC5/Bootloader.c ****             /***************************************************************************
 883:.\Generated_Source\PSoC5/Bootloader.c ****             *   Set Active Application
 884:.\Generated_Source\PSoC5/Bootloader.c ****             ***************************************************************************/
 885:.\Generated_Source\PSoC5/Bootloader.c ****             #if(1u == Bootloader_DUAL_APP_BOOTLOADER)
 886:.\Generated_Source\PSoC5/Bootloader.c **** 
 887:.\Generated_Source\PSoC5/Bootloader.c ****                 case Bootloader_COMMAND_APP_ACTIVE:
 888:.\Generated_Source\PSoC5/Bootloader.c **** 
 889:.\Generated_Source\PSoC5/Bootloader.c ****                     if(communicationActive && (pktSize == 1))
 890:.\Generated_Source\PSoC5/Bootloader.c ****                     {
 891:.\Generated_Source\PSoC5/Bootloader.c ****                         if(!Bootloader_ValidateApp(btldrData))
 892:.\Generated_Source\PSoC5/Bootloader.c ****                         {
 893:.\Generated_Source\PSoC5/Bootloader.c ****                             uint8 CYDATA idx;
 894:.\Generated_Source\PSoC5/Bootloader.c **** 
 895:.\Generated_Source\PSoC5/Bootloader.c ****                             for(idx = 0; idx < 2u; idx++)
 896:.\Generated_Source\PSoC5/Bootloader.c ****                             {
 897:.\Generated_Source\PSoC5/Bootloader.c ****                                 Bootloader_SetFlashByte(Bootloader_META_APP_ACTIVE_ADDR(idx), idx =
 898:.\Generated_Source\PSoC5/Bootloader.c ****                             }
 899:.\Generated_Source\PSoC5/Bootloader.c ****                             Bootloader_activeApp = btldrData;
 900:.\Generated_Source\PSoC5/Bootloader.c ****                             ackCode = CYRET_SUCCESS;
 901:.\Generated_Source\PSoC5/Bootloader.c ****                         }
 902:.\Generated_Source\PSoC5/Bootloader.c ****                         else
 903:.\Generated_Source\PSoC5/Bootloader.c ****                         {
 904:.\Generated_Source\PSoC5/Bootloader.c ****                             ackCode = Bootloader_ERR_APP;
 905:.\Generated_Source\PSoC5/Bootloader.c ****                         }
 906:.\Generated_Source\PSoC5/Bootloader.c ****                     }
 907:.\Generated_Source\PSoC5/Bootloader.c ****                     break;
 908:.\Generated_Source\PSoC5/Bootloader.c **** 
 909:.\Generated_Source\PSoC5/Bootloader.c ****             #endif  /* (1u == Bootloader_DUAL_APP_BOOTLOADER) */
 910:.\Generated_Source\PSoC5/Bootloader.c **** 
 911:.\Generated_Source\PSoC5/Bootloader.c **** 
 912:.\Generated_Source\PSoC5/Bootloader.c ****             /***************************************************************************
 913:.\Generated_Source\PSoC5/Bootloader.c ****             *   Send Data
ARM GAS  C:\DOCUME~1\ADMINI~1\LOCALS~1\Temp\ccJzPdwj.s 			page 23


 914:.\Generated_Source\PSoC5/Bootloader.c ****             ***************************************************************************/
 915:.\Generated_Source\PSoC5/Bootloader.c ****             #if(Bootloader_CMD_SEND_DATA_AVAIL == 1u)
 916:.\Generated_Source\PSoC5/Bootloader.c **** 
 917:.\Generated_Source\PSoC5/Bootloader.c ****                 case Bootloader_COMMAND_DATA:
 918:.\Generated_Source\PSoC5/Bootloader.c **** 
 919:.\Generated_Source\PSoC5/Bootloader.c ****                     /*  Make sure that dataOffset is valid before copying the data */
 920:.\Generated_Source\PSoC5/Bootloader.c ****                     if((dataOffset + pktSize) <= Bootloader_SIZEOF_COMMAND_BUFFER)
 921:.\Generated_Source\PSoC5/Bootloader.c ****                     {
 922:.\Generated_Source\PSoC5/Bootloader.c ****                         ackCode = CYRET_SUCCESS;
 923:.\Generated_Source\PSoC5/Bootloader.c ****                         memcpy(&dataBuffer[dataOffset], &packetBuffer[Bootloader_DATA_ADDR], pktSiz
 924:.\Generated_Source\PSoC5/Bootloader.c ****                         dataOffset += pktSize;
 925:.\Generated_Source\PSoC5/Bootloader.c ****                     }
 926:.\Generated_Source\PSoC5/Bootloader.c ****                     else
 927:.\Generated_Source\PSoC5/Bootloader.c ****                     {
 928:.\Generated_Source\PSoC5/Bootloader.c ****                         ackCode = Bootloader_ERR_LENGTH;
 929:.\Generated_Source\PSoC5/Bootloader.c ****                     }
 930:.\Generated_Source\PSoC5/Bootloader.c **** 
 931:.\Generated_Source\PSoC5/Bootloader.c ****                     break;
 932:.\Generated_Source\PSoC5/Bootloader.c **** 
 933:.\Generated_Source\PSoC5/Bootloader.c ****             #endif  /* (Bootloader_CMD_SEND_DATA_AVAIL == 1u) */
 934:.\Generated_Source\PSoC5/Bootloader.c **** 
 935:.\Generated_Source\PSoC5/Bootloader.c **** 
 936:.\Generated_Source\PSoC5/Bootloader.c ****             /***************************************************************************
 937:.\Generated_Source\PSoC5/Bootloader.c ****             *   Enter Bootloader
 938:.\Generated_Source\PSoC5/Bootloader.c ****             ***************************************************************************/
 939:.\Generated_Source\PSoC5/Bootloader.c ****             case Bootloader_COMMAND_ENTER:
 940:.\Generated_Source\PSoC5/Bootloader.c **** 
 941:.\Generated_Source\PSoC5/Bootloader.c ****                 if(pktSize == 0)
 942:.\Generated_Source\PSoC5/Bootloader.c ****                 {
 943:.\Generated_Source\PSoC5/Bootloader.c ****                     #if(CY_PSOC3)
 944:.\Generated_Source\PSoC5/Bootloader.c **** 
 945:.\Generated_Source\PSoC5/Bootloader.c ****                         Bootloader_ENTER CYDATA BtldrVersion =
 946:.\Generated_Source\PSoC5/Bootloader.c ****                             {CYSWAP_ENDIAN32(CYDEV_CHIP_JTAG_ID), CYDEV_CHIP_REV_EXPECT, Bootloader
 947:.\Generated_Source\PSoC5/Bootloader.c **** 
 948:.\Generated_Source\PSoC5/Bootloader.c ****                     #else
 949:.\Generated_Source\PSoC5/Bootloader.c **** 
 950:.\Generated_Source\PSoC5/Bootloader.c ****                         Bootloader_ENTER CYDATA BtldrVersion =
 951:.\Generated_Source\PSoC5/Bootloader.c ****                             {CYDEV_CHIP_JTAG_ID, CYDEV_CHIP_REV_EXPECT, Bootloader_VERSION};
 952:.\Generated_Source\PSoC5/Bootloader.c **** 
 953:.\Generated_Source\PSoC5/Bootloader.c ****                     #endif  /* (CY_PSOC3) */
 954:.\Generated_Source\PSoC5/Bootloader.c **** 
 955:.\Generated_Source\PSoC5/Bootloader.c ****                     communicationActive = 1;
 956:.\Generated_Source\PSoC5/Bootloader.c ****                     rspSize = sizeof(Bootloader_ENTER);
 957:.\Generated_Source\PSoC5/Bootloader.c ****                     memcpy(&packetBuffer[Bootloader_DATA_ADDR], &BtldrVersion, rspSize);
 958:.\Generated_Source\PSoC5/Bootloader.c ****                     ackCode = CYRET_SUCCESS;
 959:.\Generated_Source\PSoC5/Bootloader.c ****                 }
 960:.\Generated_Source\PSoC5/Bootloader.c ****                 break;
 961:.\Generated_Source\PSoC5/Bootloader.c **** 
 962:.\Generated_Source\PSoC5/Bootloader.c **** 
 963:.\Generated_Source\PSoC5/Bootloader.c ****             /***************************************************************************
 964:.\Generated_Source\PSoC5/Bootloader.c ****             *   Verify Row
 965:.\Generated_Source\PSoC5/Bootloader.c ****             ***************************************************************************/
 966:.\Generated_Source\PSoC5/Bootloader.c ****             case Bootloader_COMMAND_VERIFY:
 967:.\Generated_Source\PSoC5/Bootloader.c **** 
 968:.\Generated_Source\PSoC5/Bootloader.c ****                 if(communicationActive && (pktSize == 3u))
 969:.\Generated_Source\PSoC5/Bootloader.c ****                 {
 970:.\Generated_Source\PSoC5/Bootloader.c ****                     /* Read the existing flash data. */
ARM GAS  C:\DOCUME~1\ADMINI~1\LOCALS~1\Temp\ccJzPdwj.s 			page 24


 971:.\Generated_Source\PSoC5/Bootloader.c ****                     #if(!CY_PSOC4)
 972:.\Generated_Source\PSoC5/Bootloader.c ****                         uint16 CYDATA rowNum = CY_GET_REG16(&(packetBuffer[Bootloader_DATA_ADDR + 1
 973:.\Generated_Source\PSoC5/Bootloader.c ****                     #else
 974:.\Generated_Source\PSoC5/Bootloader.c ****                         uint16 CYDATA rowNum =
 975:.\Generated_Source\PSoC5/Bootloader.c ****                                         Bootloader_GET_REG16(&(packetBuffer[Bootloader_DATA_ADDR + 
 976:.\Generated_Source\PSoC5/Bootloader.c ****                     #endif  /* (!CY_PSOC4) */
 977:.\Generated_Source\PSoC5/Bootloader.c **** 
 978:.\Generated_Source\PSoC5/Bootloader.c ****                     uint32 CYDATA rowAddr = ((uint32)btldrData * CYDEV_FLS_SECTOR_SIZE)
 979:.\Generated_Source\PSoC5/Bootloader.c ****                                             + ((uint32)rowNum * CYDEV_FLS_ROW_SIZE);
 980:.\Generated_Source\PSoC5/Bootloader.c **** 
 981:.\Generated_Source\PSoC5/Bootloader.c ****                     uint8 CYDATA checksum = Bootloader_Calc8BitFlashSum(rowAddr, CYDEV_FLS_ROW_SIZE
 982:.\Generated_Source\PSoC5/Bootloader.c **** 
 983:.\Generated_Source\PSoC5/Bootloader.c **** 
 984:.\Generated_Source\PSoC5/Bootloader.c ****                     #if(!CY_PSOC4) && (CYDEV_ECC_ENABLE == 0)
 985:.\Generated_Source\PSoC5/Bootloader.c **** 
 986:.\Generated_Source\PSoC5/Bootloader.c ****                         /* Save the ECC area. */
 987:.\Generated_Source\PSoC5/Bootloader.c ****                         uint16 CYDATA index;
 988:.\Generated_Source\PSoC5/Bootloader.c **** 
 989:.\Generated_Source\PSoC5/Bootloader.c ****                         rowAddr = CYDEV_ECC_BASE + ((uint32)btldrData * CYDEV_FLS_SECTOR_SIZE / 8)
 990:.\Generated_Source\PSoC5/Bootloader.c ****                                     + ((uint32)rowNum * CYDEV_ECC_ROW_SIZE);
 991:.\Generated_Source\PSoC5/Bootloader.c **** 
 992:.\Generated_Source\PSoC5/Bootloader.c ****                         for(index = 0; index < CYDEV_ECC_ROW_SIZE; index++)
 993:.\Generated_Source\PSoC5/Bootloader.c ****                         {
 994:.\Generated_Source\PSoC5/Bootloader.c ****                             checksum += CY_GET_XTND_REG8((uint8 CYFAR *)(rowAddr + index));
 995:.\Generated_Source\PSoC5/Bootloader.c ****                         }
 996:.\Generated_Source\PSoC5/Bootloader.c **** 
 997:.\Generated_Source\PSoC5/Bootloader.c ****                     #endif  /* (!CY_PSOC4) && (CYDEV_ECC_ENABLE == 0) */
 998:.\Generated_Source\PSoC5/Bootloader.c **** 
 999:.\Generated_Source\PSoC5/Bootloader.c **** 
1000:.\Generated_Source\PSoC5/Bootloader.c ****                     /******************************************************************************
1001:.\Generated_Source\PSoC5/Bootloader.c ****                     * App Verified & App Active are information that is updated in flash at runtime
1002:.\Generated_Source\PSoC5/Bootloader.c ****                     * remove these items from the checksum to allow the host to verify everything i
1003:.\Generated_Source\PSoC5/Bootloader.c ****                     * correct.
1004:.\Generated_Source\PSoC5/Bootloader.c ****                      ******************************************************************************
1005:.\Generated_Source\PSoC5/Bootloader.c ****                     #if(1u == Bootloader_DUAL_APP_BOOTLOADER)
1006:.\Generated_Source\PSoC5/Bootloader.c ****                         if(Bootloader_META_ARRAY == btldrData && \
1007:.\Generated_Source\PSoC5/Bootloader.c ****                             (Bootloader_MD_ROW(0) == rowNum || Bootloader_MD_ROW(1) == rowNum))
1008:.\Generated_Source\PSoC5/Bootloader.c ****                     #else
1009:.\Generated_Source\PSoC5/Bootloader.c ****                         if(Bootloader_META_ARRAY == btldrData && Bootloader_MD_ROW == rowNum)
1010:.\Generated_Source\PSoC5/Bootloader.c ****                     #endif  /* (1u == $INSTANCE_NAME`_DUAL_APP_BOOTLOADER) */
1011:.\Generated_Source\PSoC5/Bootloader.c ****                         {
1012:.\Generated_Source\PSoC5/Bootloader.c ****                             uint8 appId = ((rowNum & 1) == 1) ? 0 : 1;
1013:.\Generated_Source\PSoC5/Bootloader.c **** 
1014:.\Generated_Source\PSoC5/Bootloader.c ****                             checksum -= *Bootloader_P_APP_ACTIVE(appId);
1015:.\Generated_Source\PSoC5/Bootloader.c ****                             checksum -= *Bootloader_MD_PTR_APP_VERIFIED;
1016:.\Generated_Source\PSoC5/Bootloader.c ****                         }
1017:.\Generated_Source\PSoC5/Bootloader.c **** 
1018:.\Generated_Source\PSoC5/Bootloader.c ****                     packetBuffer[Bootloader_DATA_ADDR] = 1 + ~checksum;
1019:.\Generated_Source\PSoC5/Bootloader.c ****                     ackCode = CYRET_SUCCESS;
1020:.\Generated_Source\PSoC5/Bootloader.c ****                     rspSize = 1u;
1021:.\Generated_Source\PSoC5/Bootloader.c ****                 }
1022:.\Generated_Source\PSoC5/Bootloader.c ****                 break;
1023:.\Generated_Source\PSoC5/Bootloader.c **** 
1024:.\Generated_Source\PSoC5/Bootloader.c **** 
1025:.\Generated_Source\PSoC5/Bootloader.c ****             /***************************************************************************
1026:.\Generated_Source\PSoC5/Bootloader.c ****             *   Exit Bootloader
1027:.\Generated_Source\PSoC5/Bootloader.c ****             ***************************************************************************/
ARM GAS  C:\DOCUME~1\ADMINI~1\LOCALS~1\Temp\ccJzPdwj.s 			page 25


1028:.\Generated_Source\PSoC5/Bootloader.c ****             case Bootloader_COMMAND_EXIT:
1029:.\Generated_Source\PSoC5/Bootloader.c **** 
1030:.\Generated_Source\PSoC5/Bootloader.c ****                 if(!Bootloader_ValidateApp(Bootloader_activeApp))
1031:.\Generated_Source\PSoC5/Bootloader.c ****                 {
1032:.\Generated_Source\PSoC5/Bootloader.c ****                     Bootloader_SET_RUN_TYPE(Bootloader_START_APP);
1033:.\Generated_Source\PSoC5/Bootloader.c ****                 }
1034:.\Generated_Source\PSoC5/Bootloader.c **** 
1035:.\Generated_Source\PSoC5/Bootloader.c ****                 Bootloader_SOFTWARE_RESET;
1036:.\Generated_Source\PSoC5/Bootloader.c **** 
1037:.\Generated_Source\PSoC5/Bootloader.c ****                 /* Will never get here */
1038:.\Generated_Source\PSoC5/Bootloader.c ****                 continue;
1039:.\Generated_Source\PSoC5/Bootloader.c **** 
1040:.\Generated_Source\PSoC5/Bootloader.c ****                 /* Will never get here. Break is intentionally removed. */
1041:.\Generated_Source\PSoC5/Bootloader.c **** 
1042:.\Generated_Source\PSoC5/Bootloader.c **** 
1043:.\Generated_Source\PSoC5/Bootloader.c ****             /***************************************************************************
1044:.\Generated_Source\PSoC5/Bootloader.c ****             *   Unsupported Command
1045:.\Generated_Source\PSoC5/Bootloader.c ****             ***************************************************************************/
1046:.\Generated_Source\PSoC5/Bootloader.c ****             default:
1047:.\Generated_Source\PSoC5/Bootloader.c ****                 ackCode = Bootloader_ERR_CMD;
1048:.\Generated_Source\PSoC5/Bootloader.c ****                 break;
1049:.\Generated_Source\PSoC5/Bootloader.c ****             }
1050:.\Generated_Source\PSoC5/Bootloader.c ****         }
1051:.\Generated_Source\PSoC5/Bootloader.c **** 
1052:.\Generated_Source\PSoC5/Bootloader.c ****         /* ?CK the packet and function. */
1053:.\Generated_Source\PSoC5/Bootloader.c ****         (void) Bootloader_WritePacket(ackCode, packetBuffer, rspSize);
1054:.\Generated_Source\PSoC5/Bootloader.c **** 
1055:.\Generated_Source\PSoC5/Bootloader.c ****     } while (communicationActive);
1056:.\Generated_Source\PSoC5/Bootloader.c **** }
1057:.\Generated_Source\PSoC5/Bootloader.c **** 
1058:.\Generated_Source\PSoC5/Bootloader.c **** 
1059:.\Generated_Source\PSoC5/Bootloader.c **** /*******************************************************************************
1060:.\Generated_Source\PSoC5/Bootloader.c **** * Function Name: Bootloader_WritePacket
1061:.\Generated_Source\PSoC5/Bootloader.c **** ********************************************************************************
1062:.\Generated_Source\PSoC5/Bootloader.c **** *
1063:.\Generated_Source\PSoC5/Bootloader.c **** * Summary:
1064:.\Generated_Source\PSoC5/Bootloader.c **** *  Creates a bootloader responce packet and transmits it back to the bootloader
1065:.\Generated_Source\PSoC5/Bootloader.c **** *  host application over the already established communications protocol.
1066:.\Generated_Source\PSoC5/Bootloader.c **** *
1067:.\Generated_Source\PSoC5/Bootloader.c **** * Parameters:
1068:.\Generated_Source\PSoC5/Bootloader.c **** *  status:
1069:.\Generated_Source\PSoC5/Bootloader.c **** *      The status code to pass back as the second byte of the packet
1070:.\Generated_Source\PSoC5/Bootloader.c **** *  buffer:
1071:.\Generated_Source\PSoC5/Bootloader.c **** *      The buffer containing the data portion of the packet
1072:.\Generated_Source\PSoC5/Bootloader.c **** *  size:
1073:.\Generated_Source\PSoC5/Bootloader.c **** *      The number of bytes contained within the buffer to pass back
1074:.\Generated_Source\PSoC5/Bootloader.c **** *
1075:.\Generated_Source\PSoC5/Bootloader.c **** * Return:
1076:.\Generated_Source\PSoC5/Bootloader.c **** *   CYRET_SUCCESS if successful.
1077:.\Generated_Source\PSoC5/Bootloader.c **** *   CYRET_UNKNOWN if there was an error tranmitting the packet.
1078:.\Generated_Source\PSoC5/Bootloader.c **** *
1079:.\Generated_Source\PSoC5/Bootloader.c **** *******************************************************************************/
1080:.\Generated_Source\PSoC5/Bootloader.c **** cystatus Bootloader_WritePacket(uint8 status, uint8 CYXDATA* buffer, uint16 size) CYSMALL 
1081:.\Generated_Source\PSoC5/Bootloader.c **** {
1082:.\Generated_Source\PSoC5/Bootloader.c ****     uint16 CYDATA checksum;
1083:.\Generated_Source\PSoC5/Bootloader.c **** 
1084:.\Generated_Source\PSoC5/Bootloader.c ****     /* Start of the packet. */
ARM GAS  C:\DOCUME~1\ADMINI~1\LOCALS~1\Temp\ccJzPdwj.s 			page 26


1085:.\Generated_Source\PSoC5/Bootloader.c ****     buffer[Bootloader_SOP_ADDR]      = Bootloader_SOP;
1086:.\Generated_Source\PSoC5/Bootloader.c ****     buffer[Bootloader_CMD_ADDR]      = status;
1087:.\Generated_Source\PSoC5/Bootloader.c ****     buffer[Bootloader_SIZE_ADDR]     = LO8(size);
1088:.\Generated_Source\PSoC5/Bootloader.c ****     buffer[Bootloader_SIZE_ADDR + 1] = HI8(size);
1089:.\Generated_Source\PSoC5/Bootloader.c **** 
1090:.\Generated_Source\PSoC5/Bootloader.c ****     /* Compute the checksum. */
1091:.\Generated_Source\PSoC5/Bootloader.c ****     checksum = Bootloader_CalcPacketChecksum(buffer, size + Bootloader_DATA_ADDR);
1092:.\Generated_Source\PSoC5/Bootloader.c **** 
1093:.\Generated_Source\PSoC5/Bootloader.c ****     buffer[Bootloader_CHK_ADDR(size)]     = LO8(checksum);
1094:.\Generated_Source\PSoC5/Bootloader.c ****     buffer[Bootloader_CHK_ADDR(1 + size)] = HI8(checksum);
1095:.\Generated_Source\PSoC5/Bootloader.c ****     buffer[Bootloader_EOP_ADDR(size)]     = Bootloader_EOP;
1096:.\Generated_Source\PSoC5/Bootloader.c **** 
1097:.\Generated_Source\PSoC5/Bootloader.c ****     /* Start the packet transmit. */
1098:.\Generated_Source\PSoC5/Bootloader.c ****     return(CyBtldrCommWrite(buffer, size + Bootloader_MIN_PKT_SIZE, &size, 150u));
1099:.\Generated_Source\PSoC5/Bootloader.c **** }
1100:.\Generated_Source\PSoC5/Bootloader.c **** 
1101:.\Generated_Source\PSoC5/Bootloader.c **** 
1102:.\Generated_Source\PSoC5/Bootloader.c **** /*******************************************************************************
1103:.\Generated_Source\PSoC5/Bootloader.c **** * Function Name: Bootloader_SetFlashByte
1104:.\Generated_Source\PSoC5/Bootloader.c **** ********************************************************************************
1105:.\Generated_Source\PSoC5/Bootloader.c **** *
1106:.\Generated_Source\PSoC5/Bootloader.c **** * Summary:
1107:.\Generated_Source\PSoC5/Bootloader.c **** *  Writes byte a flash memory location
1108:.\Generated_Source\PSoC5/Bootloader.c **** *
1109:.\Generated_Source\PSoC5/Bootloader.c **** * Parameters:
1110:.\Generated_Source\PSoC5/Bootloader.c **** *  address:
1111:.\Generated_Source\PSoC5/Bootloader.c **** *      Address in Flash memory where data will be written
1112:.\Generated_Source\PSoC5/Bootloader.c **** *
1113:.\Generated_Source\PSoC5/Bootloader.c **** *  runType:
1114:.\Generated_Source\PSoC5/Bootloader.c **** *      Byte to be written
1115:.\Generated_Source\PSoC5/Bootloader.c **** *
1116:.\Generated_Source\PSoC5/Bootloader.c **** * Return:
1117:.\Generated_Source\PSoC5/Bootloader.c **** *  None
1118:.\Generated_Source\PSoC5/Bootloader.c **** *
1119:.\Generated_Source\PSoC5/Bootloader.c **** *******************************************************************************/
1120:.\Generated_Source\PSoC5/Bootloader.c **** void Bootloader_SetFlashByte(uint32 address, uint8 runType) 
1121:.\Generated_Source\PSoC5/Bootloader.c **** {
 338              		.loc 1 1121 0
 339              		.cfi_startproc
 340              		@ args = 0, pretend = 0, frame = 256
 341              		@ frame_needed = 0, uses_anonymous_args = 0
 342              	.LVL32:
 343 0000 00B5     		push	{lr}
 344              	.LCFI1:
 345              		.cfi_def_cfa_offset 4
1122:.\Generated_Source\PSoC5/Bootloader.c ****     uint32 flsAddr = address - CYDEV_FLASH_BASE;
1123:.\Generated_Source\PSoC5/Bootloader.c ****     uint8  rowData[CYDEV_FLS_ROW_SIZE];
1124:.\Generated_Source\PSoC5/Bootloader.c **** 
1125:.\Generated_Source\PSoC5/Bootloader.c ****     #if !(CY_PSOC4)
1126:.\Generated_Source\PSoC5/Bootloader.c ****         uint8 arrayId = (flsAddr / CYDEV_FLS_SECTOR_SIZE);
1127:.\Generated_Source\PSoC5/Bootloader.c ****     #endif  /* !(CY_PSOC4) */
1128:.\Generated_Source\PSoC5/Bootloader.c **** 
1129:.\Generated_Source\PSoC5/Bootloader.c ****     uint16 rowNum = ((flsAddr % CYDEV_FLS_SECTOR_SIZE) / CYDEV_FLS_ROW_SIZE);
1130:.\Generated_Source\PSoC5/Bootloader.c ****     uint32 baseAddr = address - (address % CYDEV_FLS_ROW_SIZE);
 346              		.loc 1 1130 0
 347 0002 20F0FF0C 		bic	ip, r0, #255
 348              	.LVL33:
ARM GAS  C:\DOCUME~1\ADMINI~1\LOCALS~1\Temp\ccJzPdwj.s 			page 27


 349              		.loc 1 1121 0
 350 0006 C1B0     		sub	sp, sp, #260
 351              	.LCFI2:
 352              		.cfi_def_cfa_offset 264
 353              		.loc 1 1130 0
 354 0008 0023     		movs	r3, #0
 355              	.L35:
1131:.\Generated_Source\PSoC5/Bootloader.c ****     uint16 idx;
1132:.\Generated_Source\PSoC5/Bootloader.c **** 
1133:.\Generated_Source\PSoC5/Bootloader.c ****     for(idx = 0; idx < CYDEV_FLS_ROW_SIZE; idx++)
1134:.\Generated_Source\PSoC5/Bootloader.c ****     {
1135:.\Generated_Source\PSoC5/Bootloader.c ****         rowData[idx] = Bootloader_GET_CODE_DATA(baseAddr + idx);
 356              		.loc 1 1135 0
 357 000a 13F80CE0 		ldrb	lr, [r3, ip]	@ zero_extendqisi2
 358              		.cfi_offset 14, -4
 359 000e 6A46     		mov	r2, sp
 360 0010 0DF803E0 		strb	lr, [sp, r3]
 361 0014 0133     		adds	r3, r3, #1
 362              		.loc 1 1133 0
 363 0016 B3F5807F 		cmp	r3, #256
 364 001a F6D1     		bne	.L35
1136:.\Generated_Source\PSoC5/Bootloader.c ****     }
1137:.\Generated_Source\PSoC5/Bootloader.c **** 
1138:.\Generated_Source\PSoC5/Bootloader.c ****     rowData[address % CYDEV_FLS_ROW_SIZE] = runType;
 365              		.loc 1 1138 0
 366 001c 00F0FF03 		and	r3, r0, #255
 367 0020 0DF80310 		strb	r1, [sp, r3]
1139:.\Generated_Source\PSoC5/Bootloader.c **** 
1140:.\Generated_Source\PSoC5/Bootloader.c ****     #if(CY_PSOC4)
1141:.\Generated_Source\PSoC5/Bootloader.c ****         CySysFlashWriteRow(rowNum, rowData);
1142:.\Generated_Source\PSoC5/Bootloader.c ****     #else
1143:.\Generated_Source\PSoC5/Bootloader.c ****         CyWriteRowData(arrayId, rowNum, rowData);
 368              		.loc 1 1143 0
 369 0024 0104     		lsls	r1, r0, #16
 370              	.LVL34:
 371 0026 030C     		lsrs	r3, r0, #16
 372 0028 D8B2     		uxtb	r0, r3
 373              	.LVL35:
 374 002a 090E     		lsrs	r1, r1, #24
 375 002c FFF7FEFF 		bl	CyWriteRowData
 376              	.LVL36:
1144:.\Generated_Source\PSoC5/Bootloader.c ****     #endif  /* (CY_PSOC4) */
1145:.\Generated_Source\PSoC5/Bootloader.c **** }
 377              		.loc 1 1145 0
 378 0030 41B0     		add	sp, sp, #260
 379 0032 00BD     		pop	{pc}
 380              		.cfi_endproc
 381              	.LFE38:
 382              		.size	Bootloader_SetFlashByte, .-Bootloader_SetFlashByte
 383              		.section	.text.Bootloader_WritePacket,"ax",%progbits
 384              		.align	1
 385              		.global	Bootloader_WritePacket
 386              		.thumb
 387              		.thumb_func
 388              		.type	Bootloader_WritePacket, %function
 389              	Bootloader_WritePacket:
 390              	.LFB37:
ARM GAS  C:\DOCUME~1\ADMINI~1\LOCALS~1\Temp\ccJzPdwj.s 			page 28


 391              		.loc 1 1081 0
 392              		.cfi_startproc
 393              		@ args = 0, pretend = 0, frame = 8
 394              		@ frame_needed = 0, uses_anonymous_args = 0
 395              	.LVL37:
 396 0000 13B5     		push	{r0, r1, r4, lr}
 397              	.LCFI3:
 398              		.cfi_def_cfa_offset 16
 399              	.LVL38:
 400              		.loc 1 1085 0
 401 0002 0123     		movs	r3, #1
 402              		.loc 1 1081 0
 403 0004 0C46     		mov	r4, r1
 404              		.cfi_offset 14, -4
 405              		.cfi_offset 4, -8
 406              		.cfi_offset 1, -12
 407              		.cfi_offset 0, -16
 408              	.LVL39:
 409 0006 ADF80620 		strh	r2, [sp, #6]	@ movhi
 410              		.loc 1 1085 0
 411 000a 0B70     		strb	r3, [r1, #0]
 412              		.loc 1 1086 0
 413 000c 4870     		strb	r0, [r1, #1]
 414              	.LVL40:
 415              		.loc 1 1087 0
 416 000e 8A70     		strb	r2, [r1, #2]
 417              		.loc 1 1088 0
 418 0010 91B2     		uxth	r1, r2
 419              	.LVL41:
 420 0012 0B0A     		lsrs	r3, r1, #8
 421              		.loc 1 1091 0
 422 0014 0431     		adds	r1, r1, #4
 423              	.LVL42:
 424              		.loc 1 1088 0
 425 0016 E370     		strb	r3, [r4, #3]
 426              		.loc 1 1091 0
 427 0018 2046     		mov	r0, r4
 428              	.LVL43:
 429 001a 89B2     		uxth	r1, r1
 430 001c FFF7FEFF 		bl	Bootloader_CalcPacketChecksum
 431              		.loc 1 1093 0
 432 0020 02AA     		add	r2, sp, #8
 433 0022 32F8021D 		ldrh	r1, [r2, #-2]!
 434              	.LVL44:
 435 0026 6318     		adds	r3, r4, r1
 436 0028 1871     		strb	r0, [r3, #4]
 437              		.loc 1 1094 0
 438 002a 000A     		lsrs	r0, r0, #8
 439 002c 5871     		strb	r0, [r3, #5]
 440              		.loc 1 1098 0
 441 002e 0731     		adds	r1, r1, #7
 442              	.LVL45:
 443              		.loc 1 1095 0
 444 0030 1720     		movs	r0, #23
 445 0032 9871     		strb	r0, [r3, #6]
 446              		.loc 1 1098 0
 447 0034 89B2     		uxth	r1, r1
ARM GAS  C:\DOCUME~1\ADMINI~1\LOCALS~1\Temp\ccJzPdwj.s 			page 29


 448 0036 2046     		mov	r0, r4
 449 0038 9623     		movs	r3, #150
 450 003a FFF7FEFF 		bl	USBFS_CyBtldrCommWrite
 451              		.loc 1 1099 0
 452 003e 1CBD     		pop	{r2, r3, r4, pc}
 453              		.cfi_endproc
 454              	.LFE37:
 455              		.size	Bootloader_WritePacket, .-Bootloader_WritePacket
 456              		.section	.text.Bootloader_HostLink,"ax",%progbits
 457              		.align	1
 458              		.global	Bootloader_HostLink
 459              		.thumb
 460              		.thumb_func
 461              		.type	Bootloader_HostLink, %function
 462              	Bootloader_HostLink:
 463              	.LFB36:
 464              		.loc 1 576 0
 465              		.cfi_startproc
 466              		@ args = 0, pretend = 0, frame = 896
 467              		@ frame_needed = 0, uses_anonymous_args = 0
 468              	.LVL46:
 469 0000 2DE9F047 		push	{r4, r5, r6, r7, r8, r9, sl, lr}
 470              	.LCFI4:
 471              		.cfi_def_cfa_offset 32
 472              		.loc 1 594 0
 473 0004 0028     		cmp	r0, #0
 474              		.loc 1 576 0
 475 0006 ADF5607D 		sub	sp, sp, #896
 476              	.LCFI5:
 477              		.cfi_def_cfa_offset 928
 478              		.loc 1 594 0
 479 000a 14BF     		ite	ne
 480 000c 8146     		movne	r9, r0
 481 000e 4FF0FF09 		moveq	r9, #255
 482              		.cfi_offset 14, -4
 483              		.cfi_offset 10, -8
 484              		.cfi_offset 9, -12
 485              		.cfi_offset 8, -16
 486              		.cfi_offset 7, -20
 487              		.cfi_offset 6, -24
 488              		.cfi_offset 5, -28
 489              		.cfi_offset 4, -32
 490              	.LVL47:
 491              		.loc 1 589 0
 492 0012 14BF     		ite	ne
 493 0014 0024     		movne	r4, #0
 494 0016 0124     		moveq	r4, #1
 495              	.LVL48:
 496              		.loc 1 600 0
 497 0018 FFF7FEFF 		bl	USBFS_CyBtldrCommStart
 498              		.loc 1 603 0
 499              	@ 603 ".\Generated_Source\PSoC5\Bootloader.c" 1
 500 001c 62B6     		CPSIE   i
 501              	@ 0 "" 2
 502              		.thumb
 503 001e 4FF00008 		mov	r8, #0
 504              	.LVL49:
ARM GAS  C:\DOCUME~1\ADMINI~1\LOCALS~1\Temp\ccJzPdwj.s 			page 30


 505 0022 4546     		mov	r5, r8
 506              	.LVL50:
 507              	.L67:
 508              		.loc 1 608 0
 509 0024 4CAE     		add	r6, sp, #304
 510 0026 DEAA     		add	r2, sp, #888
 511 0028 0632     		adds	r2, r2, #6
 512 002a 3046     		mov	r0, r6
 513              	.LVL51:
 514 002c 4FF49671 		mov	r1, #300
 515 0030 4B46     		mov	r3, r9
 516 0032 FFF7FEFF 		bl	USBFS_CyBtldrCommRead
 517              		.loc 1 610 0
 518 0036 1028     		cmp	r0, #16
 519              	.LVL52:
 520 0038 00F00581 		beq	.L42
 521 003c 0528     		cmp	r0, #5
 522 003e 00F00281 		beq	.L42
 523              		.loc 1 615 0
 524 0042 BDF87E33 		ldrh	r3, [sp, #894]
 525 0046 062B     		cmp	r3, #6
 526 0048 40F2F880 		bls	.L49
 527              		.loc 1 616 0
 528 004c 3278     		ldrb	r2, [r6, #0]	@ zero_extendqisi2
 529 004e 012A     		cmp	r2, #1
 530 0050 40F0F480 		bne	.L49
 531              		.loc 1 623 0
 532 0054 B6F802A0 		ldrh	sl, [r6, #2]
 533              	.LVL53:
 534 0058 1FFA8AFA 		uxth	sl, sl
 535              	.LVL54:
 536              		.loc 1 624 0
 537 005c 0AF10401 		add	r1, sl, #4
 538 0060 775A     		ldrh	r7, [r6, r1]
 539              	.LVL55:
 540              		.loc 1 630 0
 541 0062 0AF10702 		add	r2, sl, #7
 542 0066 9A42     		cmp	r2, r3
 543              		.loc 1 624 0
 544 0068 BFB2     		uxth	r7, r7
 545              	.LVL56:
 546              		.loc 1 630 0
 547 006a 00F28E80 		bhi	.L77
 548              		.loc 1 634 0
 549 006e 0AEB0603 		add	r3, sl, r6
 550 0072 9B79     		ldrb	r3, [r3, #6]	@ zero_extendqisi2
 551 0074 172B     		cmp	r3, #23
 552 0076 40F0E180 		bne	.L49
 553              		.loc 1 638 0
 554 007a 3046     		mov	r0, r6
 555              	.LVL57:
 556 007c 89B2     		uxth	r1, r1
 557 007e FFF7FEFF 		bl	Bootloader_CalcPacketChecksum
 558 0082 8742     		cmp	r7, r0
 559 0084 00F0E380 		beq	.L46
 560 0088 0820     		movs	r0, #8
 561              	.LVL58:
ARM GAS  C:\DOCUME~1\ADMINI~1\LOCALS~1\Temp\ccJzPdwj.s 			page 31


 562 008a D8E0     		b	.L73
 563              	.LVL59:
 564              	.L48:
 565              	.LBB3:
 566              		.loc 1 663 0
 567 008c 002C     		cmp	r4, #0
 568 008e 00F0D580 		beq	.L49
 569 0092 BAF1000F 		cmp	sl, #0
 570 0096 40F0D080 		bne	.L50
 571              		.loc 1 667 0
 572 009a FFF7FEFF 		bl	Bootloader_ValidateApplication
 573              		.loc 1 666 0
 574 009e 4CAB     		add	r3, sp, #304
 575 00a0 D0F10100 		rsbs	r0, r0, #1
 576 00a4 38BF     		it	cc
 577 00a6 0020     		movcc	r0, #0
 578 00a8 1871     		strb	r0, [r3, #4]
 579 00aa 0124     		movs	r4, #1
 580              	.LVL60:
 581 00ac 5046     		mov	r0, sl
 582              	.LVL61:
 583 00ae B7E0     		b	.L74
 584              	.LVL62:
 585              	.L51:
 586              		.loc 1 680 0
 587 00b0 002C     		cmp	r4, #0
 588 00b2 00F0C380 		beq	.L49
 589 00b6 BAF1010F 		cmp	sl, #1
 590 00ba 40F0BE80 		bne	.L50
 591              		.loc 1 682 0
 592 00be 17B1     		cbz	r7, .L52
 593 00c0 5446     		mov	r4, sl
 594              	.LVL63:
 595 00c2 0020     		movs	r0, #0
 596              	.LVL64:
 597 00c4 0EE0     		b	.L76
 598              	.LVL65:
 599              	.L52:
 600              	.LBB8:
 601              		.loc 1 686 0
 602 00c6 754B     		ldr	r3, .L80
 603              		.loc 1 691 0
 604 00c8 5446     		mov	r4, sl
 605              	.LVL66:
 606              		.loc 1 686 0
 607 00ca 1B68     		ldr	r3, [r3, #0]
 608              		.loc 1 691 0
 609 00cc 3846     		mov	r0, r7
 610              	.LVL67:
 611              		.loc 1 686 0
 612 00ce 1A68     		ldr	r2, [r3, #0]
 613              		.loc 1 688 0
 614 00d0 4CAB     		add	r3, sp, #304
 615              		.loc 1 686 0
 616 00d2 120A     		lsrs	r2, r2, #8
 617 00d4 92B2     		uxth	r2, r2
 618              	.LVL68:
ARM GAS  C:\DOCUME~1\ADMINI~1\LOCALS~1\Temp\ccJzPdwj.s 			page 32


 619              		.loc 1 688 0
 620 00d6 1A71     		strb	r2, [r3, #4]
 621              		.loc 1 689 0
 622 00d8 120A     		lsrs	r2, r2, #8
 623              	.LVL69:
 624 00da 5A71     		strb	r2, [r3, #5]
 625              		.loc 1 690 0
 626 00dc 4FF0FF32 		mov	r2, #-1
 627 00e0 9A71     		strb	r2, [r3, #6]
 628              		.loc 1 691 0
 629 00e2 DF71     		strb	r7, [r3, #7]
 630              	.LVL70:
 631              	.L76:
 632 00e4 0422     		movs	r2, #4
 633              	.LVL71:
 634 00e6 ABE0     		b	.L47
 635              	.LVL72:
 636              	.L53:
 637              	.LBE8:
 638              		.loc 1 735 0
 639 00e8 1CB1     		cbz	r4, .L54
 640 00ea BAF1030F 		cmp	sl, #3
 641 00ee 40F0A480 		bne	.L50
 642              	.L54:
 643              		.loc 1 741 0
 644 00f2 01A8     		add	r0, sp, #4
 645 00f4 0021     		movs	r1, #0
 646 00f6 4FF49072 		mov	r2, #288
 647 00fa FFF7FEFF 		bl	memset
 648 00fe 4FF49075 		mov	r5, #288
 649              	.LVL73:
 650              	.L55:
 651              		.loc 1 753 0
 652 0102 002C     		cmp	r4, #0
 653 0104 00F09A80 		beq	.L49
 654 0108 BAF1020F 		cmp	sl, #2
 655 010c 40F29580 		bls	.L50
 656              		.loc 1 755 0
 657 0110 4CAC     		add	r4, sp, #304
 658              	.LVL74:
 659 0112 01A8     		add	r0, sp, #4
 660 0114 4019     		adds	r0, r0, r5
 661 0116 E11D     		adds	r1, r4, #7
 662 0118 AAF10302 		sub	r2, sl, #3
 663              		.loc 1 760 0
 664 011c 5544     		add	r5, r5, sl
 665              	.LVL75:
 666              		.loc 1 755 0
 667 011e FFF7FEFF 		bl	memcpy
 668              		.loc 1 760 0
 669 0122 ADB2     		uxth	r5, r5
 670 0124 40F22313 		movw	r3, #291
 671 0128 9D42     		cmp	r5, r3
 672 012a 03D0     		beq	.L56
 673 012c 0124     		movs	r4, #1
 674              	.LVL76:
 675 012e 0025     		movs	r5, #0
ARM GAS  C:\DOCUME~1\ADMINI~1\LOCALS~1\Temp\ccJzPdwj.s 			page 33


 676              	.LVL77:
 677 0130 0320     		movs	r0, #3
 678              	.LVL78:
 679 0132 23E0     		b	.L75
 680              	.LVL79:
 681              	.L56:
 682              		.loc 1 763 0
 683 0134 B4F80540 		ldrh	r4, [r4, #5]
 684 0138 A4B2     		uxth	r4, r4
 685              	.LVL80:
 686              		.loc 1 770 0
 687 013a B8F1000F 		cmp	r8, #0
 688 013e 0FD1     		bne	.L57
 689              	.LBB7:
 690              		.loc 1 774 0
 691 0140 97AD     		add	r5, sp, #604
 692 0142 4146     		mov	r1, r8
 693 0144 4FF49072 		mov	r2, #288
 694 0148 2846     		mov	r0, r5
 695 014a FFF7FEFF 		bl	memset
 696              		.loc 1 779 0
 697 014e 4046     		mov	r0, r8
 698 0150 FF21     		movs	r1, #255
 699 0152 2A46     		mov	r2, r5
 700 0154 4FF49073 		mov	r3, #288
 701 0158 FFF7FEFF 		bl	CyWriteRowFull
 702 015c 08F10108 		add	r8, r8, #1
 703              	.LVL81:
 704              	.L57:
 705              	.LBE7:
 706              		.loc 1 851 0
 707 0160 3846     		mov	r0, r7
 708 0162 2146     		mov	r1, r4
 709 0164 01AA     		add	r2, sp, #4
 710 0166 4FF49073 		mov	r3, #288
 711 016a FFF7FEFF 		bl	CyWriteRowFull
 712 016e 0546     		mov	r5, r0
 713 0170 08B9     		cbnz	r0, .L58
 714 0172 0124     		movs	r4, #1
 715              	.LVL82:
 716 0174 02E0     		b	.L75
 717              	.LVL83:
 718              	.L58:
 719 0176 0124     		movs	r4, #1
 720              	.LVL84:
 721 0178 0025     		movs	r5, #0
 722              	.LVL85:
 723 017a 0A20     		movs	r0, #10
 724              	.LVL86:
 725              	.L75:
 726 017c 2A46     		mov	r2, r5
 727              	.LVL87:
 728 017e 5FE0     		b	.L47
 729              	.LVL88:
 730              	.L59:
 731              		.loc 1 920 0
 732 0180 05EB0A06 		add	r6, r5, sl
ARM GAS  C:\DOCUME~1\ADMINI~1\LOCALS~1\Temp\ccJzPdwj.s 			page 34


 733 0184 B6F5967F 		cmp	r6, #300
 734 0188 01D9     		bls	.L60
 735              	.LVL89:
 736              	.L77:
 737 018a 0320     		movs	r0, #3
 738              	.LVL90:
 739 018c 57E0     		b	.L73
 740              	.LVL91:
 741              	.L60:
 742              		.loc 1 923 0
 743 018e 01A8     		add	r0, sp, #4
 744 0190 4019     		adds	r0, r0, r5
 745 0192 5246     		mov	r2, sl
 746 0194 4DA9     		add	r1, sp, #308
 747 0196 FFF7FEFF 		bl	memcpy
 748              		.loc 1 924 0
 749 019a 0020     		movs	r0, #0
 750              	.LVL92:
 751 019c B5B2     		uxth	r5, r6
 752              	.LVL93:
 753 019e 0246     		mov	r2, r0
 754              	.LVL94:
 755 01a0 4EE0     		b	.L47
 756              	.LVL95:
 757              	.L61:
 758              		.loc 1 941 0
 759 01a2 BAF1000F 		cmp	sl, #0
 760 01a6 49D1     		bne	.L49
 761              	.LBB6:
 762              		.loc 1 951 0
 763 01a8 3D4A     		ldr	r2, .L80+4
 764 01aa 97AB     		add	r3, sp, #604
 765 01ac 92E80300 		ldmia	r2, {r0, r1}
 766              		.loc 1 957 0
 767 01b0 4DAA     		add	r2, sp, #308
 768              		.loc 1 951 0
 769 01b2 83E80300 		stmia	r3, {r0, r1}
 770              		.loc 1 957 0
 771 01b6 0124     		movs	r4, #1
 772              	.LVL96:
 773 01b8 82E80300 		stmia	r2, {r0, r1}
 774 01bc 5046     		mov	r0, sl
 775              	.LVL97:
 776 01be 0822     		movs	r2, #8
 777              	.LVL98:
 778 01c0 3EE0     		b	.L47
 779              	.LVL99:
 780              	.L62:
 781              	.LBE6:
 782              		.loc 1 968 0
 783 01c2 002C     		cmp	r4, #0
 784 01c4 3AD0     		beq	.L49
 785 01c6 BAF1030F 		cmp	sl, #3
 786 01ca 36D1     		bne	.L50
 787              	.LBB4:
 788              		.loc 1 972 0
 789 01cc 4CAB     		add	r3, sp, #304
ARM GAS  C:\DOCUME~1\ADMINI~1\LOCALS~1\Temp\ccJzPdwj.s 			page 35


 790 01ce B3F80540 		ldrh	r4, [r3, #5]
 791              	.LVL100:
 792              		.loc 1 981 0
 793 01d2 4FF48071 		mov	r1, #256
 794              		.loc 1 972 0
 795 01d6 A4B2     		uxth	r4, r4
 796              	.LVL101:
 797              		.loc 1 981 0
 798 01d8 04EB0720 		add	r0, r4, r7, lsl #8
 799 01dc 0002     		lsls	r0, r0, #8
 800 01de FFF7FEFF 		bl	Bootloader_Calc8BitFlashSum
 801              		.loc 1 989 0
 802 01e2 7B03     		lsls	r3, r7, #13
 803 01e4 03EB4413 		add	r3, r3, r4, lsl #5
 804 01e8 03F19043 		add	r3, r3, #1207959552
 805              		.loc 1 575 0
 806 01ec 03F12002 		add	r2, r3, #32
 807              	.L63:
 808              		.loc 1 994 0
 809 01f0 13F8011B 		ldrb	r1, [r3], #1	@ zero_extendqisi2
 810 01f4 0818     		adds	r0, r1, r0
 811              	.LVL102:
 812              		.loc 1 992 0
 813 01f6 9342     		cmp	r3, r2
 814              		.loc 1 994 0
 815 01f8 C0B2     		uxtb	r0, r0
 816              	.LVL103:
 817              		.loc 1 992 0
 818 01fa F9D1     		bne	.L63
 819              		.loc 1 1009 0
 820 01fc 5FB9     		cbnz	r7, .L64
 821 01fe FF2C     		cmp	r4, #255
 822 0200 09D1     		bne	.L64
 823              	.LBB5:
 824              		.loc 1 1014 0
 825 0202 4FF6D073 		movw	r3, #65488
 826 0206 1B78     		ldrb	r3, [r3, #0]	@ zero_extendqisi2
 827 0208 C01A     		subs	r0, r0, r3
 828              	.LVL104:
 829              		.loc 1 1015 0
 830 020a 4FF6D173 		movw	r3, #65489
 831 020e 1B78     		ldrb	r3, [r3, #0]	@ zero_extendqisi2
 832 0210 C01A     		subs	r0, r0, r3
 833 0212 00F0FF00 		and	r0, r0, #255
 834              	.LVL105:
 835              	.L64:
 836              	.LBE5:
 837              		.loc 1 1018 0
 838 0216 4042     		negs	r0, r0
 839              	.LVL106:
 840 0218 4CAB     		add	r3, sp, #304
 841 021a 1871     		strb	r0, [r3, #4]
 842 021c 0124     		movs	r4, #1
 843              	.LVL107:
 844 021e 0020     		movs	r0, #0
 845              	.LVL108:
 846              	.L74:
ARM GAS  C:\DOCUME~1\ADMINI~1\LOCALS~1\Temp\ccJzPdwj.s 			page 36


 847 0220 2246     		mov	r2, r4
 848              	.LVL109:
 849 0222 0DE0     		b	.L47
 850              	.LVL110:
 851              	.L65:
 852              	.LBE4:
 853              		.loc 1 1030 0
 854 0224 FFF7FEFF 		bl	Bootloader_ValidateApplication
 855 0228 18B9     		cbnz	r0, .L66
 856              		.loc 1 1032 0
 857 022a 1E4B     		ldr	r3, .L80+8
 858 022c 6FF07F02 		mvn	r2, #127
 859 0230 1A70     		strb	r2, [r3, #0]
 860              	.L66:
 861              		.loc 1 1035 0
 862 0232 1D4B     		ldr	r3, .L80+12
 863 0234 0122     		movs	r2, #1
 864 0236 1A70     		strb	r2, [r3, #0]
 865              		.loc 1 1038 0
 866 0238 05E0     		b	.L42
 867              	.L50:
 868 023a 0124     		movs	r4, #1
 869              	.LVL111:
 870              	.L49:
 871 023c 0420     		movs	r0, #4
 872              	.LVL112:
 873              	.L73:
 874 023e 0022     		movs	r2, #0
 875              	.LVL113:
 876              	.L47:
 877              	.LBE3:
 878              		.loc 1 1053 0
 879 0240 4CA9     		add	r1, sp, #304
 880 0242 FFF7FEFF 		bl	Bootloader_WritePacket
 881              	.LVL114:
 882              	.L42:
 883              		.loc 1 1055 0
 884 0246 002C     		cmp	r4, #0
 885 0248 7FF4ECAE 		bne	.L67
 886 024c 22E0     		b	.L79
 887              	.LVL115:
 888              	.L46:
 889              	.LBB9:
 890              		.loc 1 654 0
 891 024e 7378     		ldrb	r3, [r6, #1]	@ zero_extendqisi2
 892              		.loc 1 651 0
 893 0250 3779     		ldrb	r7, [r6, #4]	@ zero_extendqisi2
 894              	.LVL116:
 895              		.loc 1 654 0
 896 0252 313B     		subs	r3, r3, #49
 897 0254 0A2B     		cmp	r3, #10
 898 0256 1BD8     		bhi	.L68
 899 0258 01A2     		adr	r2, .L70
 900 025a 52F823F0 		ldr	pc, [r2, r3, lsl #2]
 901 025e 00BF     		.align	2
 902              	.L70:
 903 0260 8D000000 		.word	.L48+1
ARM GAS  C:\DOCUME~1\ADMINI~1\LOCALS~1\Temp\ccJzPdwj.s 			page 37


 904 0264 B1000000 		.word	.L51+1
 905 0268 91020000 		.word	.L68+1
 906 026c E9000000 		.word	.L53+1
 907 0270 8D020000 		.word	.L69+1
 908 0274 91020000 		.word	.L68+1
 909 0278 81010000 		.word	.L59+1
 910 027c A3010000 		.word	.L61+1
 911 0280 03010000 		.word	.L55+1
 912 0284 C3010000 		.word	.L62+1
 913 0288 25020000 		.word	.L65+1
 914              	.L69:
 915 028c 0025     		movs	r5, #0
 916              	.LVL117:
 917 028e DAE7     		b	.L42
 918              	.L68:
 919 0290 0520     		movs	r0, #5
 920              	.LVL118:
 921 0292 D4E7     		b	.L73
 922              	.LVL119:
 923              	.L79:
 924              	.LBE9:
 925              		.loc 1 1056 0
 926 0294 0DF5607D 		add	sp, sp, #896
 927 0298 BDE8F087 		pop	{r4, r5, r6, r7, r8, r9, sl, pc}
 928              	.L81:
 929              		.align	2
 930              	.L80:
 931 029c 00000000 		.word	.LANCHOR0
 932 02a0 00000000 		.word	.LANCHOR1
 933 02a4 FA460040 		.word	1073759994
 934 02a8 F6460040 		.word	1073759990
 935              		.cfi_endproc
 936              	.LFE36:
 937              		.size	Bootloader_HostLink, .-Bootloader_HostLink
 938              		.section	.text.Bootloader_Start,"ax",%progbits
 939              		.align	1
 940              		.global	Bootloader_Start
 941              		.thumb
 942              		.thumb_func
 943              		.type	Bootloader_Start, %function
 944              	Bootloader_Start:
 945              	.LFB31:
 946              		.loc 1 292 0
 947              		.cfi_startproc
 948              		@ args = 0, pretend = 0, frame = 0
 949              		@ frame_needed = 0, uses_anonymous_args = 0
 950 0000 10B5     		push	{r4, lr}
 951              	.LCFI6:
 952              		.cfi_def_cfa_offset 8
 953              		.loc 1 317 0
 954 0002 154C     		ldr	r4, .L88
 955              		.cfi_offset 14, -4
 956              		.cfi_offset 4, -8
 957 0004 0020     		movs	r0, #0
 958 0006 2368     		ldr	r3, [r4, #0]
 959 0008 1968     		ldr	r1, [r3, #0]
 960 000a FFF7FEFF 		bl	Bootloader_Calc8BitFlashSum
ARM GAS  C:\DOCUME~1\ADMINI~1\LOCALS~1\Temp\ccJzPdwj.s 			page 38


 961              		.loc 1 321 0
 962 000e 6368     		ldr	r3, [r4, #4]
 963 0010 1B78     		ldrb	r3, [r3, #0]	@ zero_extendqisi2
 964              		.loc 1 322 0
 965 0012 181A     		subs	r0, r3, r0
 966              		.loc 1 325 0
 967 0014 C0B2     		uxtb	r0, r0
 968 0016 9842     		cmp	r0, r3
 969 0018 09D1     		bne	.L83
 970              		.loc 1 326 0
 971 001a 2368     		ldr	r3, [r4, #0]
 972 001c 1B68     		ldr	r3, [r3, #0]
 973 001e 33B1     		cbz	r3, .L83
 974              		.loc 1 325 0
 975 0020 FFF7FEFF 		bl	CySetTemp
 976 0024 18B9     		cbnz	r0, .L83
 977 0026 0D48     		ldr	r0, .L88+4
 978 0028 FFF7FEFF 		bl	CySetFlashEEBuffer
 979 002c 10B1     		cbz	r0, .L84
 980              	.L83:
 981              		.loc 1 328 0
 982 002e 0020     		movs	r0, #0
 983 0030 FFF7FEFF 		bl	CyHalt
 984              	.L84:
 985              		.loc 1 335 0
 986 0034 FFF7FEFF 		bl	Bootloader_ValidateApplication
 987 0038 28B9     		cbnz	r0, .L85
 988              		.loc 1 336 0
 989 003a 094B     		ldr	r3, .L88+8
 990 003c 1B78     		ldrb	r3, [r3, #0]	@ zero_extendqisi2
 991              		.loc 1 335 0
 992 003e 03F0C003 		and	r3, r3, #192
 993 0042 402B     		cmp	r3, #64
 994 0044 04D1     		bne	.L86
 995              	.L85:
 996              		.loc 1 338 0
 997 0046 064B     		ldr	r3, .L88+8
 998 0048 0020     		movs	r0, #0
 999 004a 1870     		strb	r0, [r3, #0]
 1000              		.loc 1 340 0
 1001 004c FFF7FEFF 		bl	Bootloader_HostLink
 1002              	.L86:
 1003              		.loc 1 354 0
 1004 0050 BDE81040 		pop	{r4, lr}
 1005              		.loc 1 353 0
 1006 0054 FFF7FEBF 		b	Bootloader_LaunchApplication
 1007              	.L89:
 1008              		.align	2
 1009              	.L88:
 1010 0058 00000000 		.word	.LANCHOR0
 1011 005c 00000000 		.word	flashBuffer
 1012 0060 FA460040 		.word	1073759994
 1013              		.cfi_endproc
 1014              	.LFE31:
 1015              		.size	Bootloader_Start, .-Bootloader_Start
 1016              		.global	Bootloader_Checksum
 1017              		.global	Bootloader_SizeBytes
ARM GAS  C:\DOCUME~1\ADMINI~1\LOCALS~1\Temp\ccJzPdwj.s 			page 39


 1018              		.global	Bootloader_ChecksumAccess
 1019              		.global	Bootloader_SizeBytesAccess
 1020              		.comm	flashBuffer,288,4
 1021              		.section	.rodata
 1022              		.align	2
 1023              		.set	.LANCHOR1,. + 0
 1024              		.type	C.30.2986, %object
 1025              		.size	C.30.2986, 8
 1026              	C.30.2986:
 1027 0000 6950102E 		.word	772821097
 1028 0004 00       		.byte	0
 1029 0005 0A       		.byte	10
 1030 0006 01       		.byte	1
 1031 0007 01       		.byte	1
 1032              		.section	.bootloader,"a",%progbits
 1033              		.align	2
 1034              		.type	Bootloader_Checksum, %object
 1035              		.size	Bootloader_Checksum, 1
 1036              	Bootloader_Checksum:
 1037 0000 00       		.space	1
 1038 0001 000000   		.space	3
 1039              		.type	Bootloader_SizeBytes, %object
 1040              		.size	Bootloader_SizeBytes, 4
 1041              	Bootloader_SizeBytes:
 1042 0004 FFFFFFFF 		.word	-1
 1043              		.data
 1044              		.align	2
 1045              		.set	.LANCHOR0,. + 0
 1046              		.type	Bootloader_SizeBytesAccess, %object
 1047              		.size	Bootloader_SizeBytesAccess, 4
 1048              	Bootloader_SizeBytesAccess:
 1049 0000 00000000 		.word	Bootloader_SizeBytes
 1050              		.type	Bootloader_ChecksumAccess, %object
 1051              		.size	Bootloader_ChecksumAccess, 4
 1052              	Bootloader_ChecksumAccess:
 1053 0004 00000000 		.word	Bootloader_Checksum
 1054              		.text
 1055              	.Letext0: