ARM GAS  C:\DOCUME~1\ADMINI~1\LOCALS~1\Temp\ccjZigVL.s 			page 1


   1              		.syntax unified
   2              		.cpu cortex-m3
   3              		.fpu softvfp
   4              		.eabi_attribute 20, 1
   5              		.eabi_attribute 21, 1
   6              		.eabi_attribute 23, 3
   7              		.eabi_attribute 24, 1
   8              		.eabi_attribute 25, 1
   9              		.eabi_attribute 26, 1
  10              		.eabi_attribute 30, 4
  11              		.eabi_attribute 18, 4
  12              		.thumb
  13              		.file	"core_cm3.c"
  20 0000 74020000 		.text
  20      0200DA00 
  20      00000201 
  20      FB0E0D00 
  20      01010101 
  21              	.Ltext0:
  22              		.cfi_sections	.debug_frame
  23              		.section	.text.__get_PSP,"ax",%progbits
  24              		.align	1
  25              		.global	__get_PSP
  26              		.thumb
  27              		.thumb_func
  28              		.type	__get_PSP, %function
  29              	__get_PSP:
  30              	.LFB0:
  31              		.file 1 ".\\Generated_Source\\PSoC5\\core_cm3.c"
   1:.\Generated_Source\PSoC5/core_cm3.c **** /**************************************************************************//**
   2:.\Generated_Source\PSoC5/core_cm3.c ****  * @file     core_cm3.c
   3:.\Generated_Source\PSoC5/core_cm3.c ****  * @brief    CMSIS Cortex-M3 Core Peripheral Access Layer Source File
   4:.\Generated_Source\PSoC5/core_cm3.c ****  * @version  V1.30
   5:.\Generated_Source\PSoC5/core_cm3.c ****  * @date     30. October 2009
   6:.\Generated_Source\PSoC5/core_cm3.c ****  *
   7:.\Generated_Source\PSoC5/core_cm3.c ****  * @note
   8:.\Generated_Source\PSoC5/core_cm3.c ****  * Copyright (C) 2009 ARM Limited. All rights reserved.
   9:.\Generated_Source\PSoC5/core_cm3.c ****  *
  10:.\Generated_Source\PSoC5/core_cm3.c ****  * @par
  11:.\Generated_Source\PSoC5/core_cm3.c ****  * ARM Limited (ARM) is supplying this software for use with Cortex-M 
  12:.\Generated_Source\PSoC5/core_cm3.c ****  * processor based microcontrollers.  This file can be freely distributed 
  13:.\Generated_Source\PSoC5/core_cm3.c ****  * within development tools that are supporting such ARM based processors. 
  14:.\Generated_Source\PSoC5/core_cm3.c ****  *
  15:.\Generated_Source\PSoC5/core_cm3.c ****  * @par
  16:.\Generated_Source\PSoC5/core_cm3.c ****  * THIS SOFTWARE IS PROVIDED "AS IS".  NO WARRANTIES, WHETHER EXPRESS, IMPLIED
  17:.\Generated_Source\PSoC5/core_cm3.c ****  * OR STATUTORY, INCLUDING, BUT NOT LIMITED TO, IMPLIED WARRANTIES OF
  18:.\Generated_Source\PSoC5/core_cm3.c ****  * MERCHANTABILITY AND FITNESS FOR A PARTICULAR PURPOSE APPLY TO THIS SOFTWARE.
  19:.\Generated_Source\PSoC5/core_cm3.c ****  * ARM SHALL NOT, IN ANY CIRCUMSTANCES, BE LIABLE FOR SPECIAL, INCIDENTAL, OR
  20:.\Generated_Source\PSoC5/core_cm3.c ****  * CONSEQUENTIAL DAMAGES, FOR ANY REASON WHATSOEVER.
  21:.\Generated_Source\PSoC5/core_cm3.c ****  *
  22:.\Generated_Source\PSoC5/core_cm3.c ****  ******************************************************************************/
ARM GAS  C:\DOCUME~1\ADMINI~1\LOCALS~1\Temp\ccjZigVL.s 			page 2


  23:.\Generated_Source\PSoC5/core_cm3.c **** 
  24:.\Generated_Source\PSoC5/core_cm3.c **** #include <stdint.h>
  25:.\Generated_Source\PSoC5/core_cm3.c **** 
  26:.\Generated_Source\PSoC5/core_cm3.c **** /* define compiler specific symbols */
  27:.\Generated_Source\PSoC5/core_cm3.c **** #if defined ( __CC_ARM   )
  28:.\Generated_Source\PSoC5/core_cm3.c ****   #define __ASM            __asm                                      /*!< asm keyword for ARM Comp
  29:.\Generated_Source\PSoC5/core_cm3.c ****   #define __INLINE         __inline                                   /*!< inline keyword for ARM C
  30:.\Generated_Source\PSoC5/core_cm3.c **** 
  31:.\Generated_Source\PSoC5/core_cm3.c **** #elif defined ( __ICCARM__ )
  32:.\Generated_Source\PSoC5/core_cm3.c ****   #define __ASM           __asm                                       /*!< asm keyword for IAR Comp
  33:.\Generated_Source\PSoC5/core_cm3.c ****   #define __INLINE        inline                                      /*!< inline keyword for IAR C
  34:.\Generated_Source\PSoC5/core_cm3.c **** 
  35:.\Generated_Source\PSoC5/core_cm3.c **** #elif defined   (  __GNUC__  )
  36:.\Generated_Source\PSoC5/core_cm3.c ****   #define __ASM            __asm                                      /*!< asm keyword for GNU Comp
  37:.\Generated_Source\PSoC5/core_cm3.c ****   #define __INLINE         inline                                     /*!< inline keyword for GNU C
  38:.\Generated_Source\PSoC5/core_cm3.c **** 
  39:.\Generated_Source\PSoC5/core_cm3.c **** #elif defined   (  __TASKING__  )
  40:.\Generated_Source\PSoC5/core_cm3.c ****   #define __ASM            __asm                                      /*!< asm keyword for TASKING 
  41:.\Generated_Source\PSoC5/core_cm3.c ****   #define __INLINE         inline                                     /*!< inline keyword for TASKI
  42:.\Generated_Source\PSoC5/core_cm3.c **** 
  43:.\Generated_Source\PSoC5/core_cm3.c **** #endif
  44:.\Generated_Source\PSoC5/core_cm3.c **** 
  45:.\Generated_Source\PSoC5/core_cm3.c **** 
  46:.\Generated_Source\PSoC5/core_cm3.c **** /* ###################  Compiler specific Intrinsics  ########################### */
  47:.\Generated_Source\PSoC5/core_cm3.c **** 
  48:.\Generated_Source\PSoC5/core_cm3.c **** #if defined ( __CC_ARM   ) /*------------------RealView Compiler -----------------*/
  49:.\Generated_Source\PSoC5/core_cm3.c **** /* ARM armcc specific functions */
  50:.\Generated_Source\PSoC5/core_cm3.c **** 
  51:.\Generated_Source\PSoC5/core_cm3.c **** /**
  52:.\Generated_Source\PSoC5/core_cm3.c ****  * @brief  Return the Process Stack Pointer
  53:.\Generated_Source\PSoC5/core_cm3.c ****  *
  54:.\Generated_Source\PSoC5/core_cm3.c ****  * @return ProcessStackPointer
  55:.\Generated_Source\PSoC5/core_cm3.c ****  *
  56:.\Generated_Source\PSoC5/core_cm3.c ****  * Return the actual process stack pointer
  57:.\Generated_Source\PSoC5/core_cm3.c ****  */
  58:.\Generated_Source\PSoC5/core_cm3.c **** __ASM uint32_t __get_PSP(void)
  59:.\Generated_Source\PSoC5/core_cm3.c **** {
  60:.\Generated_Source\PSoC5/core_cm3.c ****   mrs r0, psp
  61:.\Generated_Source\PSoC5/core_cm3.c ****   bx lr
  62:.\Generated_Source\PSoC5/core_cm3.c **** }
  63:.\Generated_Source\PSoC5/core_cm3.c **** 
  64:.\Generated_Source\PSoC5/core_cm3.c **** /**
  65:.\Generated_Source\PSoC5/core_cm3.c ****  * @brief  Set the Process Stack Pointer
  66:.\Generated_Source\PSoC5/core_cm3.c ****  *
  67:.\Generated_Source\PSoC5/core_cm3.c ****  * @param  topOfProcStack  Process Stack Pointer
  68:.\Generated_Source\PSoC5/core_cm3.c ****  *
  69:.\Generated_Source\PSoC5/core_cm3.c ****  * Assign the value ProcessStackPointer to the MSP 
  70:.\Generated_Source\PSoC5/core_cm3.c ****  * (process stack pointer) Cortex processor register
  71:.\Generated_Source\PSoC5/core_cm3.c ****  */
  72:.\Generated_Source\PSoC5/core_cm3.c **** __ASM void __set_PSP(uint32_t topOfProcStack)
  73:.\Generated_Source\PSoC5/core_cm3.c **** {
  74:.\Generated_Source\PSoC5/core_cm3.c ****   msr psp, r0
  75:.\Generated_Source\PSoC5/core_cm3.c ****   bx lr
  76:.\Generated_Source\PSoC5/core_cm3.c **** }
  77:.\Generated_Source\PSoC5/core_cm3.c **** 
  78:.\Generated_Source\PSoC5/core_cm3.c **** /**
  79:.\Generated_Source\PSoC5/core_cm3.c ****  * @brief  Return the Main Stack Pointer
ARM GAS  C:\DOCUME~1\ADMINI~1\LOCALS~1\Temp\ccjZigVL.s 			page 3


  80:.\Generated_Source\PSoC5/core_cm3.c ****  *
  81:.\Generated_Source\PSoC5/core_cm3.c ****  * @return Main Stack Pointer
  82:.\Generated_Source\PSoC5/core_cm3.c ****  *
  83:.\Generated_Source\PSoC5/core_cm3.c ****  * Return the current value of the MSP (main stack pointer)
  84:.\Generated_Source\PSoC5/core_cm3.c ****  * Cortex processor register
  85:.\Generated_Source\PSoC5/core_cm3.c ****  */
  86:.\Generated_Source\PSoC5/core_cm3.c **** __ASM uint32_t __get_MSP(void)
  87:.\Generated_Source\PSoC5/core_cm3.c **** {
  88:.\Generated_Source\PSoC5/core_cm3.c ****   mrs r0, msp
  89:.\Generated_Source\PSoC5/core_cm3.c ****   bx lr
  90:.\Generated_Source\PSoC5/core_cm3.c **** }
  91:.\Generated_Source\PSoC5/core_cm3.c **** 
  92:.\Generated_Source\PSoC5/core_cm3.c **** /**
  93:.\Generated_Source\PSoC5/core_cm3.c ****  * @brief  Set the Main Stack Pointer
  94:.\Generated_Source\PSoC5/core_cm3.c ****  *
  95:.\Generated_Source\PSoC5/core_cm3.c ****  * @param  topOfMainStack  Main Stack Pointer
  96:.\Generated_Source\PSoC5/core_cm3.c ****  *
  97:.\Generated_Source\PSoC5/core_cm3.c ****  * Assign the value mainStackPointer to the MSP 
  98:.\Generated_Source\PSoC5/core_cm3.c ****  * (main stack pointer) Cortex processor register
  99:.\Generated_Source\PSoC5/core_cm3.c ****  */
 100:.\Generated_Source\PSoC5/core_cm3.c **** __ASM void __set_MSP(uint32_t mainStackPointer)
 101:.\Generated_Source\PSoC5/core_cm3.c **** {
 102:.\Generated_Source\PSoC5/core_cm3.c ****   msr msp, r0
 103:.\Generated_Source\PSoC5/core_cm3.c ****   bx lr
 104:.\Generated_Source\PSoC5/core_cm3.c **** }
 105:.\Generated_Source\PSoC5/core_cm3.c **** 
 106:.\Generated_Source\PSoC5/core_cm3.c **** /**
 107:.\Generated_Source\PSoC5/core_cm3.c ****  * @brief  Reverse byte order in unsigned short value
 108:.\Generated_Source\PSoC5/core_cm3.c ****  *
 109:.\Generated_Source\PSoC5/core_cm3.c ****  * @param   value  value to reverse
 110:.\Generated_Source\PSoC5/core_cm3.c ****  * @return         reversed value
 111:.\Generated_Source\PSoC5/core_cm3.c ****  *
 112:.\Generated_Source\PSoC5/core_cm3.c ****  * Reverse byte order in unsigned short value
 113:.\Generated_Source\PSoC5/core_cm3.c ****  */
 114:.\Generated_Source\PSoC5/core_cm3.c **** __ASM uint32_t __REV16(uint16_t value)
 115:.\Generated_Source\PSoC5/core_cm3.c **** {
 116:.\Generated_Source\PSoC5/core_cm3.c ****   rev16 r0, r0
 117:.\Generated_Source\PSoC5/core_cm3.c ****   bx lr
 118:.\Generated_Source\PSoC5/core_cm3.c **** }
 119:.\Generated_Source\PSoC5/core_cm3.c **** 
 120:.\Generated_Source\PSoC5/core_cm3.c **** /**
 121:.\Generated_Source\PSoC5/core_cm3.c ****  * @brief  Reverse byte order in signed short value with sign extension to integer
 122:.\Generated_Source\PSoC5/core_cm3.c ****  *
 123:.\Generated_Source\PSoC5/core_cm3.c ****  * @param   value  value to reverse
 124:.\Generated_Source\PSoC5/core_cm3.c ****  * @return         reversed value
 125:.\Generated_Source\PSoC5/core_cm3.c ****  *
 126:.\Generated_Source\PSoC5/core_cm3.c ****  * Reverse byte order in signed short value with sign extension to integer
 127:.\Generated_Source\PSoC5/core_cm3.c ****  */
 128:.\Generated_Source\PSoC5/core_cm3.c **** __ASM int32_t __REVSH(int16_t value)
 129:.\Generated_Source\PSoC5/core_cm3.c **** {
 130:.\Generated_Source\PSoC5/core_cm3.c ****   revsh r0, r0
 131:.\Generated_Source\PSoC5/core_cm3.c ****   bx lr
 132:.\Generated_Source\PSoC5/core_cm3.c **** }
 133:.\Generated_Source\PSoC5/core_cm3.c **** 
 134:.\Generated_Source\PSoC5/core_cm3.c **** 
 135:.\Generated_Source\PSoC5/core_cm3.c **** #if (__ARMCC_VERSION < 400000)
 136:.\Generated_Source\PSoC5/core_cm3.c **** 
ARM GAS  C:\DOCUME~1\ADMINI~1\LOCALS~1\Temp\ccjZigVL.s 			page 4


 137:.\Generated_Source\PSoC5/core_cm3.c **** /**
 138:.\Generated_Source\PSoC5/core_cm3.c ****  * @brief  Remove the exclusive lock created by ldrex
 139:.\Generated_Source\PSoC5/core_cm3.c ****  *
 140:.\Generated_Source\PSoC5/core_cm3.c ****  * Removes the exclusive lock which is created by ldrex.
 141:.\Generated_Source\PSoC5/core_cm3.c ****  */
 142:.\Generated_Source\PSoC5/core_cm3.c **** __ASM void __CLREX(void)
 143:.\Generated_Source\PSoC5/core_cm3.c **** {
 144:.\Generated_Source\PSoC5/core_cm3.c ****   clrex
 145:.\Generated_Source\PSoC5/core_cm3.c **** }
 146:.\Generated_Source\PSoC5/core_cm3.c **** 
 147:.\Generated_Source\PSoC5/core_cm3.c **** /**
 148:.\Generated_Source\PSoC5/core_cm3.c ****  * @brief  Return the Base Priority value
 149:.\Generated_Source\PSoC5/core_cm3.c ****  *
 150:.\Generated_Source\PSoC5/core_cm3.c ****  * @return BasePriority
 151:.\Generated_Source\PSoC5/core_cm3.c ****  *
 152:.\Generated_Source\PSoC5/core_cm3.c ****  * Return the content of the base priority register
 153:.\Generated_Source\PSoC5/core_cm3.c ****  */
 154:.\Generated_Source\PSoC5/core_cm3.c **** __ASM uint32_t  __get_BASEPRI(void)
 155:.\Generated_Source\PSoC5/core_cm3.c **** {
 156:.\Generated_Source\PSoC5/core_cm3.c ****   mrs r0, basepri
 157:.\Generated_Source\PSoC5/core_cm3.c ****   bx lr
 158:.\Generated_Source\PSoC5/core_cm3.c **** }
 159:.\Generated_Source\PSoC5/core_cm3.c **** 
 160:.\Generated_Source\PSoC5/core_cm3.c **** /**
 161:.\Generated_Source\PSoC5/core_cm3.c ****  * @brief  Set the Base Priority value
 162:.\Generated_Source\PSoC5/core_cm3.c ****  *
 163:.\Generated_Source\PSoC5/core_cm3.c ****  * @param  basePri  BasePriority
 164:.\Generated_Source\PSoC5/core_cm3.c ****  *
 165:.\Generated_Source\PSoC5/core_cm3.c ****  * Set the base priority register
 166:.\Generated_Source\PSoC5/core_cm3.c ****  */
 167:.\Generated_Source\PSoC5/core_cm3.c **** __ASM void __set_BASEPRI(uint32_t basePri)
 168:.\Generated_Source\PSoC5/core_cm3.c **** {
 169:.\Generated_Source\PSoC5/core_cm3.c ****   msr basepri, r0
 170:.\Generated_Source\PSoC5/core_cm3.c ****   bx lr
 171:.\Generated_Source\PSoC5/core_cm3.c **** }
 172:.\Generated_Source\PSoC5/core_cm3.c **** 
 173:.\Generated_Source\PSoC5/core_cm3.c **** /**
 174:.\Generated_Source\PSoC5/core_cm3.c ****  * @brief  Return the Priority Mask value
 175:.\Generated_Source\PSoC5/core_cm3.c ****  *
 176:.\Generated_Source\PSoC5/core_cm3.c ****  * @return PriMask
 177:.\Generated_Source\PSoC5/core_cm3.c ****  *
 178:.\Generated_Source\PSoC5/core_cm3.c ****  * Return state of the priority mask bit from the priority mask register
 179:.\Generated_Source\PSoC5/core_cm3.c ****  */
 180:.\Generated_Source\PSoC5/core_cm3.c **** __ASM uint32_t __get_PRIMASK(void)
 181:.\Generated_Source\PSoC5/core_cm3.c **** {
 182:.\Generated_Source\PSoC5/core_cm3.c ****   mrs r0, primask
 183:.\Generated_Source\PSoC5/core_cm3.c ****   bx lr
 184:.\Generated_Source\PSoC5/core_cm3.c **** }
 185:.\Generated_Source\PSoC5/core_cm3.c **** 
 186:.\Generated_Source\PSoC5/core_cm3.c **** /**
 187:.\Generated_Source\PSoC5/core_cm3.c ****  * @brief  Set the Priority Mask value
 188:.\Generated_Source\PSoC5/core_cm3.c ****  *
 189:.\Generated_Source\PSoC5/core_cm3.c ****  * @param  priMask  PriMask
 190:.\Generated_Source\PSoC5/core_cm3.c ****  *
 191:.\Generated_Source\PSoC5/core_cm3.c ****  * Set the priority mask bit in the priority mask register
 192:.\Generated_Source\PSoC5/core_cm3.c ****  */
 193:.\Generated_Source\PSoC5/core_cm3.c **** __ASM void __set_PRIMASK(uint32_t priMask)
ARM GAS  C:\DOCUME~1\ADMINI~1\LOCALS~1\Temp\ccjZigVL.s 			page 5


 194:.\Generated_Source\PSoC5/core_cm3.c **** {
 195:.\Generated_Source\PSoC5/core_cm3.c ****   msr primask, r0
 196:.\Generated_Source\PSoC5/core_cm3.c ****   bx lr
 197:.\Generated_Source\PSoC5/core_cm3.c **** }
 198:.\Generated_Source\PSoC5/core_cm3.c **** 
 199:.\Generated_Source\PSoC5/core_cm3.c **** /**
 200:.\Generated_Source\PSoC5/core_cm3.c ****  * @brief  Return the Fault Mask value
 201:.\Generated_Source\PSoC5/core_cm3.c ****  *
 202:.\Generated_Source\PSoC5/core_cm3.c ****  * @return FaultMask
 203:.\Generated_Source\PSoC5/core_cm3.c ****  *
 204:.\Generated_Source\PSoC5/core_cm3.c ****  * Return the content of the fault mask register
 205:.\Generated_Source\PSoC5/core_cm3.c ****  */
 206:.\Generated_Source\PSoC5/core_cm3.c **** __ASM uint32_t  __get_FAULTMASK(void)
 207:.\Generated_Source\PSoC5/core_cm3.c **** {
 208:.\Generated_Source\PSoC5/core_cm3.c ****   mrs r0, faultmask
 209:.\Generated_Source\PSoC5/core_cm3.c ****   bx lr
 210:.\Generated_Source\PSoC5/core_cm3.c **** }
 211:.\Generated_Source\PSoC5/core_cm3.c **** 
 212:.\Generated_Source\PSoC5/core_cm3.c **** /**
 213:.\Generated_Source\PSoC5/core_cm3.c ****  * @brief  Set the Fault Mask value
 214:.\Generated_Source\PSoC5/core_cm3.c ****  *
 215:.\Generated_Source\PSoC5/core_cm3.c ****  * @param  faultMask  faultMask value
 216:.\Generated_Source\PSoC5/core_cm3.c ****  *
 217:.\Generated_Source\PSoC5/core_cm3.c ****  * Set the fault mask register
 218:.\Generated_Source\PSoC5/core_cm3.c ****  */
 219:.\Generated_Source\PSoC5/core_cm3.c **** __ASM void __set_FAULTMASK(uint32_t faultMask)
 220:.\Generated_Source\PSoC5/core_cm3.c **** {
 221:.\Generated_Source\PSoC5/core_cm3.c ****   msr faultmask, r0
 222:.\Generated_Source\PSoC5/core_cm3.c ****   bx lr
 223:.\Generated_Source\PSoC5/core_cm3.c **** }
 224:.\Generated_Source\PSoC5/core_cm3.c **** 
 225:.\Generated_Source\PSoC5/core_cm3.c **** /**
 226:.\Generated_Source\PSoC5/core_cm3.c ****  * @brief  Return the Control Register value
 227:.\Generated_Source\PSoC5/core_cm3.c ****  * 
 228:.\Generated_Source\PSoC5/core_cm3.c ****  * @return Control value
 229:.\Generated_Source\PSoC5/core_cm3.c ****  *
 230:.\Generated_Source\PSoC5/core_cm3.c ****  * Return the content of the control register
 231:.\Generated_Source\PSoC5/core_cm3.c ****  */
 232:.\Generated_Source\PSoC5/core_cm3.c **** __ASM uint32_t __get_CONTROL(void)
 233:.\Generated_Source\PSoC5/core_cm3.c **** {
 234:.\Generated_Source\PSoC5/core_cm3.c ****   mrs r0, control
 235:.\Generated_Source\PSoC5/core_cm3.c ****   bx lr
 236:.\Generated_Source\PSoC5/core_cm3.c **** }
 237:.\Generated_Source\PSoC5/core_cm3.c **** 
 238:.\Generated_Source\PSoC5/core_cm3.c **** /**
 239:.\Generated_Source\PSoC5/core_cm3.c ****  * @brief  Set the Control Register value
 240:.\Generated_Source\PSoC5/core_cm3.c ****  *
 241:.\Generated_Source\PSoC5/core_cm3.c ****  * @param  control  Control value
 242:.\Generated_Source\PSoC5/core_cm3.c ****  *
 243:.\Generated_Source\PSoC5/core_cm3.c ****  * Set the control register
 244:.\Generated_Source\PSoC5/core_cm3.c ****  */
 245:.\Generated_Source\PSoC5/core_cm3.c **** __ASM void __set_CONTROL(uint32_t control)
 246:.\Generated_Source\PSoC5/core_cm3.c **** {
 247:.\Generated_Source\PSoC5/core_cm3.c ****   msr control, r0
 248:.\Generated_Source\PSoC5/core_cm3.c ****   bx lr
 249:.\Generated_Source\PSoC5/core_cm3.c **** }
 250:.\Generated_Source\PSoC5/core_cm3.c **** 
ARM GAS  C:\DOCUME~1\ADMINI~1\LOCALS~1\Temp\ccjZigVL.s 			page 6


 251:.\Generated_Source\PSoC5/core_cm3.c **** #endif /* __ARMCC_VERSION  */ 
 252:.\Generated_Source\PSoC5/core_cm3.c **** 
 253:.\Generated_Source\PSoC5/core_cm3.c **** 
 254:.\Generated_Source\PSoC5/core_cm3.c **** 
 255:.\Generated_Source\PSoC5/core_cm3.c **** #elif (defined (__ICCARM__)) /*------------------ ICC Compiler -------------------*/
 256:.\Generated_Source\PSoC5/core_cm3.c **** /* IAR iccarm specific functions */
 257:.\Generated_Source\PSoC5/core_cm3.c **** #pragma diag_suppress=Pe940
 258:.\Generated_Source\PSoC5/core_cm3.c **** 
 259:.\Generated_Source\PSoC5/core_cm3.c **** /**
 260:.\Generated_Source\PSoC5/core_cm3.c ****  * @brief  Return the Process Stack Pointer
 261:.\Generated_Source\PSoC5/core_cm3.c ****  *
 262:.\Generated_Source\PSoC5/core_cm3.c ****  * @return ProcessStackPointer
 263:.\Generated_Source\PSoC5/core_cm3.c ****  *
 264:.\Generated_Source\PSoC5/core_cm3.c ****  * Return the actual process stack pointer
 265:.\Generated_Source\PSoC5/core_cm3.c ****  */
 266:.\Generated_Source\PSoC5/core_cm3.c **** uint32_t __get_PSP(void)
 267:.\Generated_Source\PSoC5/core_cm3.c **** {
 268:.\Generated_Source\PSoC5/core_cm3.c ****   __ASM("mrs r0, psp");
 269:.\Generated_Source\PSoC5/core_cm3.c ****   __ASM("bx lr");
 270:.\Generated_Source\PSoC5/core_cm3.c **** }
 271:.\Generated_Source\PSoC5/core_cm3.c **** 
 272:.\Generated_Source\PSoC5/core_cm3.c **** /**
 273:.\Generated_Source\PSoC5/core_cm3.c ****  * @brief  Set the Process Stack Pointer
 274:.\Generated_Source\PSoC5/core_cm3.c ****  *
 275:.\Generated_Source\PSoC5/core_cm3.c ****  * @param  topOfProcStack  Process Stack Pointer
 276:.\Generated_Source\PSoC5/core_cm3.c ****  *
 277:.\Generated_Source\PSoC5/core_cm3.c ****  * Assign the value ProcessStackPointer to the MSP 
 278:.\Generated_Source\PSoC5/core_cm3.c ****  * (process stack pointer) Cortex processor register
 279:.\Generated_Source\PSoC5/core_cm3.c ****  */
 280:.\Generated_Source\PSoC5/core_cm3.c **** void __set_PSP(uint32_t topOfProcStack)
 281:.\Generated_Source\PSoC5/core_cm3.c **** {
 282:.\Generated_Source\PSoC5/core_cm3.c ****   __ASM("msr psp, r0");
 283:.\Generated_Source\PSoC5/core_cm3.c ****   __ASM("bx lr");
 284:.\Generated_Source\PSoC5/core_cm3.c **** }
 285:.\Generated_Source\PSoC5/core_cm3.c **** 
 286:.\Generated_Source\PSoC5/core_cm3.c **** /**
 287:.\Generated_Source\PSoC5/core_cm3.c ****  * @brief  Return the Main Stack Pointer
 288:.\Generated_Source\PSoC5/core_cm3.c ****  *
 289:.\Generated_Source\PSoC5/core_cm3.c ****  * @return Main Stack Pointer
 290:.\Generated_Source\PSoC5/core_cm3.c ****  *
 291:.\Generated_Source\PSoC5/core_cm3.c ****  * Return the current value of the MSP (main stack pointer)
 292:.\Generated_Source\PSoC5/core_cm3.c ****  * Cortex processor register
 293:.\Generated_Source\PSoC5/core_cm3.c ****  */
 294:.\Generated_Source\PSoC5/core_cm3.c **** uint32_t __get_MSP(void)
 295:.\Generated_Source\PSoC5/core_cm3.c **** {
 296:.\Generated_Source\PSoC5/core_cm3.c ****   __ASM("mrs r0, msp");
 297:.\Generated_Source\PSoC5/core_cm3.c ****   __ASM("bx lr");
 298:.\Generated_Source\PSoC5/core_cm3.c **** }
 299:.\Generated_Source\PSoC5/core_cm3.c **** 
 300:.\Generated_Source\PSoC5/core_cm3.c **** /**
 301:.\Generated_Source\PSoC5/core_cm3.c ****  * @brief  Set the Main Stack Pointer
 302:.\Generated_Source\PSoC5/core_cm3.c ****  *
 303:.\Generated_Source\PSoC5/core_cm3.c ****  * @param  topOfMainStack  Main Stack Pointer
 304:.\Generated_Source\PSoC5/core_cm3.c ****  *
 305:.\Generated_Source\PSoC5/core_cm3.c ****  * Assign the value mainStackPointer to the MSP 
 306:.\Generated_Source\PSoC5/core_cm3.c ****  * (main stack pointer) Cortex processor register
 307:.\Generated_Source\PSoC5/core_cm3.c ****  */
ARM GAS  C:\DOCUME~1\ADMINI~1\LOCALS~1\Temp\ccjZigVL.s 			page 7


 308:.\Generated_Source\PSoC5/core_cm3.c **** void __set_MSP(uint32_t topOfMainStack)
 309:.\Generated_Source\PSoC5/core_cm3.c **** {
 310:.\Generated_Source\PSoC5/core_cm3.c ****   __ASM("msr msp, r0");
 311:.\Generated_Source\PSoC5/core_cm3.c ****   __ASM("bx lr");
 312:.\Generated_Source\PSoC5/core_cm3.c **** }
 313:.\Generated_Source\PSoC5/core_cm3.c **** 
 314:.\Generated_Source\PSoC5/core_cm3.c **** /**
 315:.\Generated_Source\PSoC5/core_cm3.c ****  * @brief  Reverse byte order in unsigned short value
 316:.\Generated_Source\PSoC5/core_cm3.c ****  *
 317:.\Generated_Source\PSoC5/core_cm3.c ****  * @param  value  value to reverse
 318:.\Generated_Source\PSoC5/core_cm3.c ****  * @return        reversed value
 319:.\Generated_Source\PSoC5/core_cm3.c ****  *
 320:.\Generated_Source\PSoC5/core_cm3.c ****  * Reverse byte order in unsigned short value
 321:.\Generated_Source\PSoC5/core_cm3.c ****  */
 322:.\Generated_Source\PSoC5/core_cm3.c **** uint32_t __REV16(uint16_t value)
 323:.\Generated_Source\PSoC5/core_cm3.c **** {
 324:.\Generated_Source\PSoC5/core_cm3.c ****   __ASM("rev16 r0, r0");
 325:.\Generated_Source\PSoC5/core_cm3.c ****   __ASM("bx lr");
 326:.\Generated_Source\PSoC5/core_cm3.c **** }
 327:.\Generated_Source\PSoC5/core_cm3.c **** 
 328:.\Generated_Source\PSoC5/core_cm3.c **** /**
 329:.\Generated_Source\PSoC5/core_cm3.c ****  * @brief  Reverse bit order of value
 330:.\Generated_Source\PSoC5/core_cm3.c ****  *
 331:.\Generated_Source\PSoC5/core_cm3.c ****  * @param  value  value to reverse
 332:.\Generated_Source\PSoC5/core_cm3.c ****  * @return        reversed value
 333:.\Generated_Source\PSoC5/core_cm3.c ****  *
 334:.\Generated_Source\PSoC5/core_cm3.c ****  * Reverse bit order of value
 335:.\Generated_Source\PSoC5/core_cm3.c ****  */
 336:.\Generated_Source\PSoC5/core_cm3.c **** uint32_t __RBIT(uint32_t value)
 337:.\Generated_Source\PSoC5/core_cm3.c **** {
 338:.\Generated_Source\PSoC5/core_cm3.c ****   __ASM("rbit r0, r0");
 339:.\Generated_Source\PSoC5/core_cm3.c ****   __ASM("bx lr");
 340:.\Generated_Source\PSoC5/core_cm3.c **** }
 341:.\Generated_Source\PSoC5/core_cm3.c **** 
 342:.\Generated_Source\PSoC5/core_cm3.c **** /**
 343:.\Generated_Source\PSoC5/core_cm3.c ****  * @brief  LDR Exclusive (8 bit)
 344:.\Generated_Source\PSoC5/core_cm3.c ****  *
 345:.\Generated_Source\PSoC5/core_cm3.c ****  * @param  *addr  address pointer
 346:.\Generated_Source\PSoC5/core_cm3.c ****  * @return        value of (*address)
 347:.\Generated_Source\PSoC5/core_cm3.c ****  *
 348:.\Generated_Source\PSoC5/core_cm3.c ****  * Exclusive LDR command for 8 bit values)
 349:.\Generated_Source\PSoC5/core_cm3.c ****  */
 350:.\Generated_Source\PSoC5/core_cm3.c **** uint8_t __LDREXB(uint8_t *addr)
 351:.\Generated_Source\PSoC5/core_cm3.c **** {
 352:.\Generated_Source\PSoC5/core_cm3.c ****   __ASM("ldrexb r0, [r0]");
 353:.\Generated_Source\PSoC5/core_cm3.c ****   __ASM("bx lr"); 
 354:.\Generated_Source\PSoC5/core_cm3.c **** }
 355:.\Generated_Source\PSoC5/core_cm3.c **** 
 356:.\Generated_Source\PSoC5/core_cm3.c **** /**
 357:.\Generated_Source\PSoC5/core_cm3.c ****  * @brief  LDR Exclusive (16 bit)
 358:.\Generated_Source\PSoC5/core_cm3.c ****  *
 359:.\Generated_Source\PSoC5/core_cm3.c ****  * @param  *addr  address pointer
 360:.\Generated_Source\PSoC5/core_cm3.c ****  * @return        value of (*address)
 361:.\Generated_Source\PSoC5/core_cm3.c ****  *
 362:.\Generated_Source\PSoC5/core_cm3.c ****  * Exclusive LDR command for 16 bit values
 363:.\Generated_Source\PSoC5/core_cm3.c ****  */
 364:.\Generated_Source\PSoC5/core_cm3.c **** uint16_t __LDREXH(uint16_t *addr)
ARM GAS  C:\DOCUME~1\ADMINI~1\LOCALS~1\Temp\ccjZigVL.s 			page 8


 365:.\Generated_Source\PSoC5/core_cm3.c **** {
 366:.\Generated_Source\PSoC5/core_cm3.c ****   __ASM("ldrexh r0, [r0]");
 367:.\Generated_Source\PSoC5/core_cm3.c ****   __ASM("bx lr");
 368:.\Generated_Source\PSoC5/core_cm3.c **** }
 369:.\Generated_Source\PSoC5/core_cm3.c **** 
 370:.\Generated_Source\PSoC5/core_cm3.c **** /**
 371:.\Generated_Source\PSoC5/core_cm3.c ****  * @brief  LDR Exclusive (32 bit)
 372:.\Generated_Source\PSoC5/core_cm3.c ****  *
 373:.\Generated_Source\PSoC5/core_cm3.c ****  * @param  *addr  address pointer
 374:.\Generated_Source\PSoC5/core_cm3.c ****  * @return        value of (*address)
 375:.\Generated_Source\PSoC5/core_cm3.c ****  *
 376:.\Generated_Source\PSoC5/core_cm3.c ****  * Exclusive LDR command for 32 bit values
 377:.\Generated_Source\PSoC5/core_cm3.c ****  */
 378:.\Generated_Source\PSoC5/core_cm3.c **** uint32_t __LDREXW(uint32_t *addr)
 379:.\Generated_Source\PSoC5/core_cm3.c **** {
 380:.\Generated_Source\PSoC5/core_cm3.c ****   __ASM("ldrex r0, [r0]");
 381:.\Generated_Source\PSoC5/core_cm3.c ****   __ASM("bx lr");
 382:.\Generated_Source\PSoC5/core_cm3.c **** }
 383:.\Generated_Source\PSoC5/core_cm3.c **** 
 384:.\Generated_Source\PSoC5/core_cm3.c **** /**
 385:.\Generated_Source\PSoC5/core_cm3.c ****  * @brief  STR Exclusive (8 bit)
 386:.\Generated_Source\PSoC5/core_cm3.c ****  *
 387:.\Generated_Source\PSoC5/core_cm3.c ****  * @param  value  value to store
 388:.\Generated_Source\PSoC5/core_cm3.c ****  * @param  *addr  address pointer
 389:.\Generated_Source\PSoC5/core_cm3.c ****  * @return        successful / failed
 390:.\Generated_Source\PSoC5/core_cm3.c ****  *
 391:.\Generated_Source\PSoC5/core_cm3.c ****  * Exclusive STR command for 8 bit values
 392:.\Generated_Source\PSoC5/core_cm3.c ****  */
 393:.\Generated_Source\PSoC5/core_cm3.c **** uint32_t __STREXB(uint8_t value, uint8_t *addr)
 394:.\Generated_Source\PSoC5/core_cm3.c **** {
 395:.\Generated_Source\PSoC5/core_cm3.c ****   __ASM("strexb r0, r0, [r1]");
 396:.\Generated_Source\PSoC5/core_cm3.c ****   __ASM("bx lr");
 397:.\Generated_Source\PSoC5/core_cm3.c **** }
 398:.\Generated_Source\PSoC5/core_cm3.c **** 
 399:.\Generated_Source\PSoC5/core_cm3.c **** /**
 400:.\Generated_Source\PSoC5/core_cm3.c ****  * @brief  STR Exclusive (16 bit)
 401:.\Generated_Source\PSoC5/core_cm3.c ****  *
 402:.\Generated_Source\PSoC5/core_cm3.c ****  * @param  value  value to store
 403:.\Generated_Source\PSoC5/core_cm3.c ****  * @param  *addr  address pointer
 404:.\Generated_Source\PSoC5/core_cm3.c ****  * @return        successful / failed
 405:.\Generated_Source\PSoC5/core_cm3.c ****  *
 406:.\Generated_Source\PSoC5/core_cm3.c ****  * Exclusive STR command for 16 bit values
 407:.\Generated_Source\PSoC5/core_cm3.c ****  */
 408:.\Generated_Source\PSoC5/core_cm3.c **** uint32_t __STREXH(uint16_t value, uint16_t *addr)
 409:.\Generated_Source\PSoC5/core_cm3.c **** {
 410:.\Generated_Source\PSoC5/core_cm3.c ****   __ASM("strexh r0, r0, [r1]");
 411:.\Generated_Source\PSoC5/core_cm3.c ****   __ASM("bx lr");
 412:.\Generated_Source\PSoC5/core_cm3.c **** }
 413:.\Generated_Source\PSoC5/core_cm3.c **** 
 414:.\Generated_Source\PSoC5/core_cm3.c **** /**
 415:.\Generated_Source\PSoC5/core_cm3.c ****  * @brief  STR Exclusive (32 bit)
 416:.\Generated_Source\PSoC5/core_cm3.c ****  *
 417:.\Generated_Source\PSoC5/core_cm3.c ****  * @param  value  value to store
 418:.\Generated_Source\PSoC5/core_cm3.c ****  * @param  *addr  address pointer
 419:.\Generated_Source\PSoC5/core_cm3.c ****  * @return        successful / failed
 420:.\Generated_Source\PSoC5/core_cm3.c ****  *
 421:.\Generated_Source\PSoC5/core_cm3.c ****  * Exclusive STR command for 32 bit values
ARM GAS  C:\DOCUME~1\ADMINI~1\LOCALS~1\Temp\ccjZigVL.s 			page 9


 422:.\Generated_Source\PSoC5/core_cm3.c ****  */
 423:.\Generated_Source\PSoC5/core_cm3.c **** uint32_t __STREXW(uint32_t value, uint32_t *addr)
 424:.\Generated_Source\PSoC5/core_cm3.c **** {
 425:.\Generated_Source\PSoC5/core_cm3.c ****   __ASM("strex r0, r0, [r1]");
 426:.\Generated_Source\PSoC5/core_cm3.c ****   __ASM("bx lr");
 427:.\Generated_Source\PSoC5/core_cm3.c **** }
 428:.\Generated_Source\PSoC5/core_cm3.c **** 
 429:.\Generated_Source\PSoC5/core_cm3.c **** #pragma diag_default=Pe940
 430:.\Generated_Source\PSoC5/core_cm3.c **** 
 431:.\Generated_Source\PSoC5/core_cm3.c **** 
 432:.\Generated_Source\PSoC5/core_cm3.c **** #elif (defined (__GNUC__)) /*------------------ GNU Compiler ---------------------*/
 433:.\Generated_Source\PSoC5/core_cm3.c **** /* GNU gcc specific functions */
 434:.\Generated_Source\PSoC5/core_cm3.c **** 
 435:.\Generated_Source\PSoC5/core_cm3.c **** /**
 436:.\Generated_Source\PSoC5/core_cm3.c ****  * @brief  Return the Process Stack Pointer
 437:.\Generated_Source\PSoC5/core_cm3.c ****  *
 438:.\Generated_Source\PSoC5/core_cm3.c ****  * @return ProcessStackPointer
 439:.\Generated_Source\PSoC5/core_cm3.c ****  *
 440:.\Generated_Source\PSoC5/core_cm3.c ****  * Return the actual process stack pointer
 441:.\Generated_Source\PSoC5/core_cm3.c ****  */
 442:.\Generated_Source\PSoC5/core_cm3.c **** uint32_t __get_PSP(void) __attribute__( ( naked ) );
 443:.\Generated_Source\PSoC5/core_cm3.c **** uint32_t __get_PSP(void)
 444:.\Generated_Source\PSoC5/core_cm3.c **** {
  32              		.loc 1 444 0
  33              		.cfi_startproc
  34              		@ Naked Function: prologue and epilogue provided by programmer.
  35              		@ args = 0, pretend = 0, frame = 0
  36              		@ frame_needed = 0, uses_anonymous_args = 0
 445:.\Generated_Source\PSoC5/core_cm3.c ****   uint32_t result=0;
 446:.\Generated_Source\PSoC5/core_cm3.c **** 
 447:.\Generated_Source\PSoC5/core_cm3.c ****   __ASM volatile ("MRS %0, psp\n\t" 
  37              		.loc 1 447 0
  38              	@ 447 ".\Generated_Source\PSoC5\core_cm3.c" 1
  39 0000 EFF30980 		MRS r0, psp
  40 0004 0046     		MOV r0, r0 
  41 0006 7047     		BX  lr     
  42              		
  43              	@ 0 "" 2
  44              	.LVL0:
  45              	.LVL1:
 448:.\Generated_Source\PSoC5/core_cm3.c ****                   "MOV r0, %0 \n\t"
 449:.\Generated_Source\PSoC5/core_cm3.c ****                   "BX  lr     \n\t"  : "=r" (result) );
 450:.\Generated_Source\PSoC5/core_cm3.c ****   return(result);
 451:.\Generated_Source\PSoC5/core_cm3.c **** }
  46              		.loc 1 451 0
  47              		.thumb
  48              		.cfi_endproc
  49              	.LFE0:
  50              		.size	__get_PSP, .-__get_PSP
  51              		.section	.text.__set_PSP,"ax",%progbits
  52              		.align	1
  53              		.global	__set_PSP
  54              		.thumb
  55              		.thumb_func
  56              		.type	__set_PSP, %function
  57              	__set_PSP:
  58              	.LFB1:
ARM GAS  C:\DOCUME~1\ADMINI~1\LOCALS~1\Temp\ccjZigVL.s 			page 10


 452:.\Generated_Source\PSoC5/core_cm3.c **** 
 453:.\Generated_Source\PSoC5/core_cm3.c **** /**
 454:.\Generated_Source\PSoC5/core_cm3.c ****  * @brief  Set the Process Stack Pointer
 455:.\Generated_Source\PSoC5/core_cm3.c ****  *
 456:.\Generated_Source\PSoC5/core_cm3.c ****  * @param  topOfProcStack  Process Stack Pointer
 457:.\Generated_Source\PSoC5/core_cm3.c ****  *
 458:.\Generated_Source\PSoC5/core_cm3.c ****  * Assign the value ProcessStackPointer to the MSP 
 459:.\Generated_Source\PSoC5/core_cm3.c ****  * (process stack pointer) Cortex processor register
 460:.\Generated_Source\PSoC5/core_cm3.c ****  */
 461:.\Generated_Source\PSoC5/core_cm3.c **** void __set_PSP(uint32_t topOfProcStack) __attribute__( ( naked ) );
 462:.\Generated_Source\PSoC5/core_cm3.c **** void __set_PSP(uint32_t topOfProcStack)
 463:.\Generated_Source\PSoC5/core_cm3.c **** {
  59              		.loc 1 463 0
  60              		.cfi_startproc
  61              		@ Naked Function: prologue and epilogue provided by programmer.
  62              		@ args = 0, pretend = 0, frame = 0
  63              		@ frame_needed = 0, uses_anonymous_args = 0
  64              	.LVL2:
 464:.\Generated_Source\PSoC5/core_cm3.c ****   __ASM volatile ("MSR psp, %0\n\t"
  65              		.loc 1 464 0
  66              	@ 464 ".\Generated_Source\PSoC5\core_cm3.c" 1
  67 0000 80F30988 		MSR psp, r0
  68 0004 7047     		BX  lr     
  69              		
  70              	@ 0 "" 2
 465:.\Generated_Source\PSoC5/core_cm3.c ****                   "BX  lr     \n\t" : : "r" (topOfProcStack) );
 466:.\Generated_Source\PSoC5/core_cm3.c **** }
  71              		.loc 1 466 0
  72              		.thumb
  73              		.cfi_endproc
  74              	.LFE1:
  75              		.size	__set_PSP, .-__set_PSP
  76              		.section	.text.__get_MSP,"ax",%progbits
  77              		.align	1
  78              		.global	__get_MSP
  79              		.thumb
  80              		.thumb_func
  81              		.type	__get_MSP, %function
  82              	__get_MSP:
  83              	.LFB2:
 467:.\Generated_Source\PSoC5/core_cm3.c **** 
 468:.\Generated_Source\PSoC5/core_cm3.c **** /**
 469:.\Generated_Source\PSoC5/core_cm3.c ****  * @brief  Return the Main Stack Pointer
 470:.\Generated_Source\PSoC5/core_cm3.c ****  *
 471:.\Generated_Source\PSoC5/core_cm3.c ****  * @return Main Stack Pointer
 472:.\Generated_Source\PSoC5/core_cm3.c ****  *
 473:.\Generated_Source\PSoC5/core_cm3.c ****  * Return the current value of the MSP (main stack pointer)
 474:.\Generated_Source\PSoC5/core_cm3.c ****  * Cortex processor register
 475:.\Generated_Source\PSoC5/core_cm3.c ****  */
 476:.\Generated_Source\PSoC5/core_cm3.c **** uint32_t __get_MSP(void) __attribute__( ( naked ) );
 477:.\Generated_Source\PSoC5/core_cm3.c **** uint32_t __get_MSP(void)
 478:.\Generated_Source\PSoC5/core_cm3.c **** {
  84              		.loc 1 478 0
  85              		.cfi_startproc
  86              		@ Naked Function: prologue and epilogue provided by programmer.
  87              		@ args = 0, pretend = 0, frame = 0
  88              		@ frame_needed = 0, uses_anonymous_args = 0
ARM GAS  C:\DOCUME~1\ADMINI~1\LOCALS~1\Temp\ccjZigVL.s 			page 11


 479:.\Generated_Source\PSoC5/core_cm3.c ****   uint32_t result=0;
 480:.\Generated_Source\PSoC5/core_cm3.c **** 
 481:.\Generated_Source\PSoC5/core_cm3.c ****   __ASM volatile ("MRS %0, msp\n\t" 
  89              		.loc 1 481 0
  90              	@ 481 ".\Generated_Source\PSoC5\core_cm3.c" 1
  91 0000 EFF30880 		MRS r0, msp
  92 0004 0046     		MOV r0, r0 
  93 0006 7047     		BX  lr     
  94              		
  95              	@ 0 "" 2
  96              	.LVL3:
  97              	.LVL4:
 482:.\Generated_Source\PSoC5/core_cm3.c ****                   "MOV r0, %0 \n\t"
 483:.\Generated_Source\PSoC5/core_cm3.c ****                   "BX  lr     \n\t"  : "=r" (result) );
 484:.\Generated_Source\PSoC5/core_cm3.c ****   return(result);
 485:.\Generated_Source\PSoC5/core_cm3.c **** }
  98              		.loc 1 485 0
  99              		.thumb
 100              		.cfi_endproc
 101              	.LFE2:
 102              		.size	__get_MSP, .-__get_MSP
 103              		.section	.text.__set_MSP,"ax",%progbits
 104              		.align	1
 105              		.global	__set_MSP
 106              		.thumb
 107              		.thumb_func
 108              		.type	__set_MSP, %function
 109              	__set_MSP:
 110              	.LFB3:
 486:.\Generated_Source\PSoC5/core_cm3.c **** 
 487:.\Generated_Source\PSoC5/core_cm3.c **** /**
 488:.\Generated_Source\PSoC5/core_cm3.c ****  * @brief  Set the Main Stack Pointer
 489:.\Generated_Source\PSoC5/core_cm3.c ****  *
 490:.\Generated_Source\PSoC5/core_cm3.c ****  * @param  topOfMainStack  Main Stack Pointer
 491:.\Generated_Source\PSoC5/core_cm3.c ****  *
 492:.\Generated_Source\PSoC5/core_cm3.c ****  * Assign the value mainStackPointer to the MSP 
 493:.\Generated_Source\PSoC5/core_cm3.c ****  * (main stack pointer) Cortex processor register
 494:.\Generated_Source\PSoC5/core_cm3.c ****  */
 495:.\Generated_Source\PSoC5/core_cm3.c **** void __set_MSP(uint32_t topOfMainStack) __attribute__( ( naked ) );
 496:.\Generated_Source\PSoC5/core_cm3.c **** void __set_MSP(uint32_t topOfMainStack)
 497:.\Generated_Source\PSoC5/core_cm3.c **** {
 111              		.loc 1 497 0
 112              		.cfi_startproc
 113              		@ Naked Function: prologue and epilogue provided by programmer.
 114              		@ args = 0, pretend = 0, frame = 0
 115              		@ frame_needed = 0, uses_anonymous_args = 0
 116              	.LVL5:
 498:.\Generated_Source\PSoC5/core_cm3.c ****   __ASM volatile ("MSR msp, %0\n\t"
 117              		.loc 1 498 0
 118              	@ 498 ".\Generated_Source\PSoC5\core_cm3.c" 1
 119 0000 80F30888 		MSR msp, r0
 120 0004 7047     		BX  lr     
 121              		
 122              	@ 0 "" 2
 499:.\Generated_Source\PSoC5/core_cm3.c ****                   "BX  lr     \n\t" : : "r" (topOfMainStack) );
 500:.\Generated_Source\PSoC5/core_cm3.c **** }
 123              		.loc 1 500 0
ARM GAS  C:\DOCUME~1\ADMINI~1\LOCALS~1\Temp\ccjZigVL.s 			page 12


 124              		.thumb
 125              		.cfi_endproc
 126              	.LFE3:
 127              		.size	__set_MSP, .-__set_MSP
 128              		.section	.text.__get_BASEPRI,"ax",%progbits
 129              		.align	1
 130              		.global	__get_BASEPRI
 131              		.thumb
 132              		.thumb_func
 133              		.type	__get_BASEPRI, %function
 134              	__get_BASEPRI:
 135              	.LFB4:
 501:.\Generated_Source\PSoC5/core_cm3.c **** 
 502:.\Generated_Source\PSoC5/core_cm3.c **** /**
 503:.\Generated_Source\PSoC5/core_cm3.c ****  * @brief  Return the Base Priority value
 504:.\Generated_Source\PSoC5/core_cm3.c ****  *
 505:.\Generated_Source\PSoC5/core_cm3.c ****  * @return BasePriority
 506:.\Generated_Source\PSoC5/core_cm3.c ****  *
 507:.\Generated_Source\PSoC5/core_cm3.c ****  * Return the content of the base priority register
 508:.\Generated_Source\PSoC5/core_cm3.c ****  */
 509:.\Generated_Source\PSoC5/core_cm3.c **** uint32_t __get_BASEPRI(void)
 510:.\Generated_Source\PSoC5/core_cm3.c **** {
 136              		.loc 1 510 0
 137              		.cfi_startproc
 138              		@ args = 0, pretend = 0, frame = 0
 139              		@ frame_needed = 0, uses_anonymous_args = 0
 140              		@ link register save eliminated.
 511:.\Generated_Source\PSoC5/core_cm3.c ****   uint32_t result=0;
 512:.\Generated_Source\PSoC5/core_cm3.c ****   
 513:.\Generated_Source\PSoC5/core_cm3.c ****   __ASM volatile ("MRS %0, basepri_max" : "=r" (result) );
 141              		.loc 1 513 0
 142              	@ 513 ".\Generated_Source\PSoC5\core_cm3.c" 1
 143 0000 EFF31280 		MRS r0, basepri_max
 144              	@ 0 "" 2
 145              	.LVL6:
 146              	.LVL7:
 514:.\Generated_Source\PSoC5/core_cm3.c ****   return(result);
 515:.\Generated_Source\PSoC5/core_cm3.c **** }
 147              		.loc 1 515 0
 148              		.thumb
 149 0004 7047     		bx	lr
 150              		.cfi_endproc
 151              	.LFE4:
 152              		.size	__get_BASEPRI, .-__get_BASEPRI
 153              		.section	.text.__set_BASEPRI,"ax",%progbits
 154              		.align	1
 155              		.global	__set_BASEPRI
 156              		.thumb
 157              		.thumb_func
 158              		.type	__set_BASEPRI, %function
 159              	__set_BASEPRI:
 160              	.LFB5:
 516:.\Generated_Source\PSoC5/core_cm3.c **** 
 517:.\Generated_Source\PSoC5/core_cm3.c **** /**
 518:.\Generated_Source\PSoC5/core_cm3.c ****  * @brief  Set the Base Priority value
 519:.\Generated_Source\PSoC5/core_cm3.c ****  *
 520:.\Generated_Source\PSoC5/core_cm3.c ****  * @param  basePri  BasePriority
ARM GAS  C:\DOCUME~1\ADMINI~1\LOCALS~1\Temp\ccjZigVL.s 			page 13


 521:.\Generated_Source\PSoC5/core_cm3.c ****  *
 522:.\Generated_Source\PSoC5/core_cm3.c ****  * Set the base priority register
 523:.\Generated_Source\PSoC5/core_cm3.c ****  */
 524:.\Generated_Source\PSoC5/core_cm3.c **** void __set_BASEPRI(uint32_t value)
 525:.\Generated_Source\PSoC5/core_cm3.c **** {
 161              		.loc 1 525 0
 162              		.cfi_startproc
 163              		@ args = 0, pretend = 0, frame = 0
 164              		@ frame_needed = 0, uses_anonymous_args = 0
 165              		@ link register save eliminated.
 166              	.LVL8:
 526:.\Generated_Source\PSoC5/core_cm3.c ****   __ASM volatile ("MSR basepri, %0" : : "r" (value) );
 167              		.loc 1 526 0
 168              	@ 526 ".\Generated_Source\PSoC5\core_cm3.c" 1
 169 0000 80F31188 		MSR basepri, r0
 170              	@ 0 "" 2
 527:.\Generated_Source\PSoC5/core_cm3.c **** }
 171              		.loc 1 527 0
 172              		.thumb
 173 0004 7047     		bx	lr
 174              		.cfi_endproc
 175              	.LFE5:
 176              		.size	__set_BASEPRI, .-__set_BASEPRI
 177              		.section	.text.__get_PRIMASK,"ax",%progbits
 178              		.align	1
 179              		.global	__get_PRIMASK
 180              		.thumb
 181              		.thumb_func
 182              		.type	__get_PRIMASK, %function
 183              	__get_PRIMASK:
 184              	.LFB6:
 528:.\Generated_Source\PSoC5/core_cm3.c **** 
 529:.\Generated_Source\PSoC5/core_cm3.c **** /**
 530:.\Generated_Source\PSoC5/core_cm3.c ****  * @brief  Return the Priority Mask value
 531:.\Generated_Source\PSoC5/core_cm3.c ****  *
 532:.\Generated_Source\PSoC5/core_cm3.c ****  * @return PriMask
 533:.\Generated_Source\PSoC5/core_cm3.c ****  *
 534:.\Generated_Source\PSoC5/core_cm3.c ****  * Return state of the priority mask bit from the priority mask register
 535:.\Generated_Source\PSoC5/core_cm3.c ****  */
 536:.\Generated_Source\PSoC5/core_cm3.c **** uint32_t __get_PRIMASK(void)
 537:.\Generated_Source\PSoC5/core_cm3.c **** {
 185              		.loc 1 537 0
 186              		.cfi_startproc
 187              		@ args = 0, pretend = 0, frame = 0
 188              		@ frame_needed = 0, uses_anonymous_args = 0
 189              		@ link register save eliminated.
 538:.\Generated_Source\PSoC5/core_cm3.c ****   uint32_t result=0;
 539:.\Generated_Source\PSoC5/core_cm3.c **** 
 540:.\Generated_Source\PSoC5/core_cm3.c ****   __ASM volatile ("MRS %0, primask" : "=r" (result) );
 190              		.loc 1 540 0
 191              	@ 540 ".\Generated_Source\PSoC5\core_cm3.c" 1
 192 0000 EFF31080 		MRS r0, primask
 193              	@ 0 "" 2
 194              	.LVL9:
 195              	.LVL10:
 541:.\Generated_Source\PSoC5/core_cm3.c ****   return(result);
 542:.\Generated_Source\PSoC5/core_cm3.c **** }
ARM GAS  C:\DOCUME~1\ADMINI~1\LOCALS~1\Temp\ccjZigVL.s 			page 14


 196              		.loc 1 542 0
 197              		.thumb
 198 0004 7047     		bx	lr
 199              		.cfi_endproc
 200              	.LFE6:
 201              		.size	__get_PRIMASK, .-__get_PRIMASK
 202              		.section	.text.__set_PRIMASK,"ax",%progbits
 203              		.align	1
 204              		.global	__set_PRIMASK
 205              		.thumb
 206              		.thumb_func
 207              		.type	__set_PRIMASK, %function
 208              	__set_PRIMASK:
 209              	.LFB7:
 543:.\Generated_Source\PSoC5/core_cm3.c **** 
 544:.\Generated_Source\PSoC5/core_cm3.c **** /**
 545:.\Generated_Source\PSoC5/core_cm3.c ****  * @brief  Set the Priority Mask value
 546:.\Generated_Source\PSoC5/core_cm3.c ****  *
 547:.\Generated_Source\PSoC5/core_cm3.c ****  * @param  priMask  PriMask
 548:.\Generated_Source\PSoC5/core_cm3.c ****  *
 549:.\Generated_Source\PSoC5/core_cm3.c ****  * Set the priority mask bit in the priority mask register
 550:.\Generated_Source\PSoC5/core_cm3.c ****  */
 551:.\Generated_Source\PSoC5/core_cm3.c **** void __set_PRIMASK(uint32_t priMask)
 552:.\Generated_Source\PSoC5/core_cm3.c **** {
 210              		.loc 1 552 0
 211              		.cfi_startproc
 212              		@ args = 0, pretend = 0, frame = 0
 213              		@ frame_needed = 0, uses_anonymous_args = 0
 214              		@ link register save eliminated.
 215              	.LVL11:
 553:.\Generated_Source\PSoC5/core_cm3.c ****   __ASM volatile ("MSR primask, %0" : : "r" (priMask) );
 216              		.loc 1 553 0
 217              	@ 553 ".\Generated_Source\PSoC5\core_cm3.c" 1
 218 0000 80F31088 		MSR primask, r0
 219              	@ 0 "" 2
 554:.\Generated_Source\PSoC5/core_cm3.c **** }
 220              		.loc 1 554 0
 221              		.thumb
 222 0004 7047     		bx	lr
 223              		.cfi_endproc
 224              	.LFE7:
 225              		.size	__set_PRIMASK, .-__set_PRIMASK
 226              		.section	.text.__get_FAULTMASK,"ax",%progbits
 227              		.align	1
 228              		.global	__get_FAULTMASK
 229              		.thumb
 230              		.thumb_func
 231              		.type	__get_FAULTMASK, %function
 232              	__get_FAULTMASK:
 233              	.LFB8:
 555:.\Generated_Source\PSoC5/core_cm3.c **** 
 556:.\Generated_Source\PSoC5/core_cm3.c **** /**
 557:.\Generated_Source\PSoC5/core_cm3.c ****  * @brief  Return the Fault Mask value
 558:.\Generated_Source\PSoC5/core_cm3.c ****  *
 559:.\Generated_Source\PSoC5/core_cm3.c ****  * @return FaultMask
 560:.\Generated_Source\PSoC5/core_cm3.c ****  *
 561:.\Generated_Source\PSoC5/core_cm3.c ****  * Return the content of the fault mask register
ARM GAS  C:\DOCUME~1\ADMINI~1\LOCALS~1\Temp\ccjZigVL.s 			page 15


 562:.\Generated_Source\PSoC5/core_cm3.c ****  */
 563:.\Generated_Source\PSoC5/core_cm3.c **** uint32_t __get_FAULTMASK(void)
 564:.\Generated_Source\PSoC5/core_cm3.c **** {
 234              		.loc 1 564 0
 235              		.cfi_startproc
 236              		@ args = 0, pretend = 0, frame = 0
 237              		@ frame_needed = 0, uses_anonymous_args = 0
 238              		@ link register save eliminated.
 565:.\Generated_Source\PSoC5/core_cm3.c ****   uint32_t result=0;
 566:.\Generated_Source\PSoC5/core_cm3.c ****   
 567:.\Generated_Source\PSoC5/core_cm3.c ****   __ASM volatile ("MRS %0, faultmask" : "=r" (result) );
 239              		.loc 1 567 0
 240              	@ 567 ".\Generated_Source\PSoC5\core_cm3.c" 1
 241 0000 EFF31380 		MRS r0, faultmask
 242              	@ 0 "" 2
 243              	.LVL12:
 244              	.LVL13:
 568:.\Generated_Source\PSoC5/core_cm3.c ****   return(result);
 569:.\Generated_Source\PSoC5/core_cm3.c **** }
 245              		.loc 1 569 0
 246              		.thumb
 247 0004 7047     		bx	lr
 248              		.cfi_endproc
 249              	.LFE8:
 250              		.size	__get_FAULTMASK, .-__get_FAULTMASK
 251              		.section	.text.__set_FAULTMASK,"ax",%progbits
 252              		.align	1
 253              		.global	__set_FAULTMASK
 254              		.thumb
 255              		.thumb_func
 256              		.type	__set_FAULTMASK, %function
 257              	__set_FAULTMASK:
 258              	.LFB9:
 570:.\Generated_Source\PSoC5/core_cm3.c **** 
 571:.\Generated_Source\PSoC5/core_cm3.c **** /**
 572:.\Generated_Source\PSoC5/core_cm3.c ****  * @brief  Set the Fault Mask value
 573:.\Generated_Source\PSoC5/core_cm3.c ****  *
 574:.\Generated_Source\PSoC5/core_cm3.c ****  * @param  faultMask  faultMask value
 575:.\Generated_Source\PSoC5/core_cm3.c ****  *
 576:.\Generated_Source\PSoC5/core_cm3.c ****  * Set the fault mask register
 577:.\Generated_Source\PSoC5/core_cm3.c ****  */
 578:.\Generated_Source\PSoC5/core_cm3.c **** void __set_FAULTMASK(uint32_t faultMask)
 579:.\Generated_Source\PSoC5/core_cm3.c **** {
 259              		.loc 1 579 0
 260              		.cfi_startproc
 261              		@ args = 0, pretend = 0, frame = 0
 262              		@ frame_needed = 0, uses_anonymous_args = 0
 263              		@ link register save eliminated.
 264              	.LVL14:
 580:.\Generated_Source\PSoC5/core_cm3.c ****   __ASM volatile ("MSR faultmask, %0" : : "r" (faultMask) );
 265              		.loc 1 580 0
 266              	@ 580 ".\Generated_Source\PSoC5\core_cm3.c" 1
 267 0000 80F31388 		MSR faultmask, r0
 268              	@ 0 "" 2
 581:.\Generated_Source\PSoC5/core_cm3.c **** }
 269              		.loc 1 581 0
 270              		.thumb
ARM GAS  C:\DOCUME~1\ADMINI~1\LOCALS~1\Temp\ccjZigVL.s 			page 16


 271 0004 7047     		bx	lr
 272              		.cfi_endproc
 273              	.LFE9:
 274              		.size	__set_FAULTMASK, .-__set_FAULTMASK
 275              		.section	.text.__get_CONTROL,"ax",%progbits
 276              		.align	1
 277              		.global	__get_CONTROL
 278              		.thumb
 279              		.thumb_func
 280              		.type	__get_CONTROL, %function
 281              	__get_CONTROL:
 282              	.LFB10:
 582:.\Generated_Source\PSoC5/core_cm3.c **** 
 583:.\Generated_Source\PSoC5/core_cm3.c **** /**
 584:.\Generated_Source\PSoC5/core_cm3.c ****  * @brief  Return the Control Register value
 585:.\Generated_Source\PSoC5/core_cm3.c **** * 
 586:.\Generated_Source\PSoC5/core_cm3.c **** *  @return Control value
 587:.\Generated_Source\PSoC5/core_cm3.c ****  *
 588:.\Generated_Source\PSoC5/core_cm3.c ****  * Return the content of the control register
 589:.\Generated_Source\PSoC5/core_cm3.c ****  */
 590:.\Generated_Source\PSoC5/core_cm3.c **** uint32_t __get_CONTROL(void)
 591:.\Generated_Source\PSoC5/core_cm3.c **** {
 283              		.loc 1 591 0
 284              		.cfi_startproc
 285              		@ args = 0, pretend = 0, frame = 0
 286              		@ frame_needed = 0, uses_anonymous_args = 0
 287              		@ link register save eliminated.
 592:.\Generated_Source\PSoC5/core_cm3.c ****   uint32_t result=0;
 593:.\Generated_Source\PSoC5/core_cm3.c **** 
 594:.\Generated_Source\PSoC5/core_cm3.c ****   __ASM volatile ("MRS %0, control" : "=r" (result) );
 288              		.loc 1 594 0
 289              	@ 594 ".\Generated_Source\PSoC5\core_cm3.c" 1
 290 0000 EFF31480 		MRS r0, control
 291              	@ 0 "" 2
 292              	.LVL15:
 293              	.LVL16:
 595:.\Generated_Source\PSoC5/core_cm3.c ****   return(result);
 596:.\Generated_Source\PSoC5/core_cm3.c **** }
 294              		.loc 1 596 0
 295              		.thumb
 296 0004 7047     		bx	lr
 297              		.cfi_endproc
 298              	.LFE10:
 299              		.size	__get_CONTROL, .-__get_CONTROL
 300              		.section	.text.__set_CONTROL,"ax",%progbits
 301              		.align	1
 302              		.global	__set_CONTROL
 303              		.thumb
 304              		.thumb_func
 305              		.type	__set_CONTROL, %function
 306              	__set_CONTROL:
 307              	.LFB11:
 597:.\Generated_Source\PSoC5/core_cm3.c **** 
 598:.\Generated_Source\PSoC5/core_cm3.c **** /**
 599:.\Generated_Source\PSoC5/core_cm3.c ****  * @brief  Set the Control Register value
 600:.\Generated_Source\PSoC5/core_cm3.c ****  *
 601:.\Generated_Source\PSoC5/core_cm3.c ****  * @param  control  Control value
ARM GAS  C:\DOCUME~1\ADMINI~1\LOCALS~1\Temp\ccjZigVL.s 			page 17


 602:.\Generated_Source\PSoC5/core_cm3.c ****  *
 603:.\Generated_Source\PSoC5/core_cm3.c ****  * Set the control register
 604:.\Generated_Source\PSoC5/core_cm3.c ****  */
 605:.\Generated_Source\PSoC5/core_cm3.c **** void __set_CONTROL(uint32_t control)
 606:.\Generated_Source\PSoC5/core_cm3.c **** {
 308              		.loc 1 606 0
 309              		.cfi_startproc
 310              		@ args = 0, pretend = 0, frame = 0
 311              		@ frame_needed = 0, uses_anonymous_args = 0
 312              		@ link register save eliminated.
 313              	.LVL17:
 607:.\Generated_Source\PSoC5/core_cm3.c ****   __ASM volatile ("MSR control, %0" : : "r" (control) );
 314              		.loc 1 607 0
 315              	@ 607 ".\Generated_Source\PSoC5\core_cm3.c" 1
 316 0000 80F31488 		MSR control, r0
 317              	@ 0 "" 2
 608:.\Generated_Source\PSoC5/core_cm3.c **** }
 318              		.loc 1 608 0
 319              		.thumb
 320 0004 7047     		bx	lr
 321              		.cfi_endproc
 322              	.LFE11:
 323              		.size	__set_CONTROL, .-__set_CONTROL
 324              		.section	.text.__REV,"ax",%progbits
 325              		.align	1
 326              		.global	__REV
 327              		.thumb
 328              		.thumb_func
 329              		.type	__REV, %function
 330              	__REV:
 331              	.LFB12:
 609:.\Generated_Source\PSoC5/core_cm3.c **** 
 610:.\Generated_Source\PSoC5/core_cm3.c **** 
 611:.\Generated_Source\PSoC5/core_cm3.c **** /**
 612:.\Generated_Source\PSoC5/core_cm3.c ****  * @brief  Reverse byte order in integer value
 613:.\Generated_Source\PSoC5/core_cm3.c ****  *
 614:.\Generated_Source\PSoC5/core_cm3.c ****  * @param  value  value to reverse
 615:.\Generated_Source\PSoC5/core_cm3.c ****  * @return        reversed value
 616:.\Generated_Source\PSoC5/core_cm3.c ****  *
 617:.\Generated_Source\PSoC5/core_cm3.c ****  * Reverse byte order in integer value
 618:.\Generated_Source\PSoC5/core_cm3.c ****  */
 619:.\Generated_Source\PSoC5/core_cm3.c **** uint32_t __REV(uint32_t value)
 620:.\Generated_Source\PSoC5/core_cm3.c **** {
 332              		.loc 1 620 0
 333              		.cfi_startproc
 334              		@ args = 0, pretend = 0, frame = 0
 335              		@ frame_needed = 0, uses_anonymous_args = 0
 336              		@ link register save eliminated.
 337              	.LVL18:
 621:.\Generated_Source\PSoC5/core_cm3.c ****   uint32_t result=0;
 622:.\Generated_Source\PSoC5/core_cm3.c ****   
 623:.\Generated_Source\PSoC5/core_cm3.c ****   __ASM volatile ("rev %0, %1" : "=r" (result) : "r" (value) );
 338              		.loc 1 623 0
 339              	@ 623 ".\Generated_Source\PSoC5\core_cm3.c" 1
 340 0000 00BA     		rev r0, r0
 341              	@ 0 "" 2
 342              	.LVL19:
ARM GAS  C:\DOCUME~1\ADMINI~1\LOCALS~1\Temp\ccjZigVL.s 			page 18


 343              	.LVL20:
 624:.\Generated_Source\PSoC5/core_cm3.c ****   return(result);
 625:.\Generated_Source\PSoC5/core_cm3.c **** }
 344              		.loc 1 625 0
 345              		.thumb
 346 0002 7047     		bx	lr
 347              		.cfi_endproc
 348              	.LFE12:
 349              		.size	__REV, .-__REV
 350              		.section	.text.__REV16,"ax",%progbits
 351              		.align	1
 352              		.global	__REV16
 353              		.thumb
 354              		.thumb_func
 355              		.type	__REV16, %function
 356              	__REV16:
 357              	.LFB13:
 626:.\Generated_Source\PSoC5/core_cm3.c **** 
 627:.\Generated_Source\PSoC5/core_cm3.c **** /**
 628:.\Generated_Source\PSoC5/core_cm3.c ****  * @brief  Reverse byte order in unsigned short value
 629:.\Generated_Source\PSoC5/core_cm3.c ****  *
 630:.\Generated_Source\PSoC5/core_cm3.c ****  * @param  value  value to reverse
 631:.\Generated_Source\PSoC5/core_cm3.c ****  * @return        reversed value
 632:.\Generated_Source\PSoC5/core_cm3.c ****  *
 633:.\Generated_Source\PSoC5/core_cm3.c ****  * Reverse byte order in unsigned short value
 634:.\Generated_Source\PSoC5/core_cm3.c ****  */
 635:.\Generated_Source\PSoC5/core_cm3.c **** uint32_t __REV16(uint16_t value)
 636:.\Generated_Source\PSoC5/core_cm3.c **** {
 358              		.loc 1 636 0
 359              		.cfi_startproc
 360              		@ args = 0, pretend = 0, frame = 0
 361              		@ frame_needed = 0, uses_anonymous_args = 0
 362              		@ link register save eliminated.
 363              	.LVL21:
 637:.\Generated_Source\PSoC5/core_cm3.c ****   uint32_t result=0;
 638:.\Generated_Source\PSoC5/core_cm3.c ****   
 639:.\Generated_Source\PSoC5/core_cm3.c ****   __ASM volatile ("rev16 %0, %1" : "=r" (result) : "r" (value) );
 364              		.loc 1 639 0
 365              	@ 639 ".\Generated_Source\PSoC5\core_cm3.c" 1
 366 0000 40BA     		rev16 r0, r0
 367              	@ 0 "" 2
 368              	.LVL22:
 369              	.LVL23:
 640:.\Generated_Source\PSoC5/core_cm3.c ****   return(result);
 641:.\Generated_Source\PSoC5/core_cm3.c **** }
 370              		.loc 1 641 0
 371              		.thumb
 372 0002 7047     		bx	lr
 373              		.cfi_endproc
 374              	.LFE13:
 375              		.size	__REV16, .-__REV16
 376              		.section	.text.__REVSH,"ax",%progbits
 377              		.align	1
 378              		.global	__REVSH
 379              		.thumb
 380              		.thumb_func
 381              		.type	__REVSH, %function
ARM GAS  C:\DOCUME~1\ADMINI~1\LOCALS~1\Temp\ccjZigVL.s 			page 19


 382              	__REVSH:
 383              	.LFB14:
 642:.\Generated_Source\PSoC5/core_cm3.c **** 
 643:.\Generated_Source\PSoC5/core_cm3.c **** /**
 644:.\Generated_Source\PSoC5/core_cm3.c ****  * @brief  Reverse byte order in signed short value with sign extension to integer
 645:.\Generated_Source\PSoC5/core_cm3.c ****  *
 646:.\Generated_Source\PSoC5/core_cm3.c ****  * @param  value  value to reverse
 647:.\Generated_Source\PSoC5/core_cm3.c ****  * @return        reversed value
 648:.\Generated_Source\PSoC5/core_cm3.c ****  *
 649:.\Generated_Source\PSoC5/core_cm3.c ****  * Reverse byte order in signed short value with sign extension to integer
 650:.\Generated_Source\PSoC5/core_cm3.c ****  */
 651:.\Generated_Source\PSoC5/core_cm3.c **** int32_t __REVSH(int16_t value)
 652:.\Generated_Source\PSoC5/core_cm3.c **** {
 384              		.loc 1 652 0
 385              		.cfi_startproc
 386              		@ args = 0, pretend = 0, frame = 0
 387              		@ frame_needed = 0, uses_anonymous_args = 0
 388              		@ link register save eliminated.
 389              	.LVL24:
 653:.\Generated_Source\PSoC5/core_cm3.c ****   uint32_t result=0;
 654:.\Generated_Source\PSoC5/core_cm3.c ****   
 655:.\Generated_Source\PSoC5/core_cm3.c ****   __ASM volatile ("revsh %0, %1" : "=r" (result) : "r" (value) );
 390              		.loc 1 655 0
 391              	@ 655 ".\Generated_Source\PSoC5\core_cm3.c" 1
 392 0000 C0BA     		revsh r0, r0
 393              	@ 0 "" 2
 394              	.LVL25:
 395              	.LVL26:
 656:.\Generated_Source\PSoC5/core_cm3.c ****   return(result);
 657:.\Generated_Source\PSoC5/core_cm3.c **** }
 396              		.loc 1 657 0
 397              		.thumb
 398 0002 7047     		bx	lr
 399              		.cfi_endproc
 400              	.LFE14:
 401              		.size	__REVSH, .-__REVSH
 402              		.section	.text.__RBIT,"ax",%progbits
 403              		.align	1
 404              		.global	__RBIT
 405              		.thumb
 406              		.thumb_func
 407              		.type	__RBIT, %function
 408              	__RBIT:
 409              	.LFB15:
 658:.\Generated_Source\PSoC5/core_cm3.c **** 
 659:.\Generated_Source\PSoC5/core_cm3.c **** /**
 660:.\Generated_Source\PSoC5/core_cm3.c ****  * @brief  Reverse bit order of value
 661:.\Generated_Source\PSoC5/core_cm3.c ****  *
 662:.\Generated_Source\PSoC5/core_cm3.c ****  * @param  value  value to reverse
 663:.\Generated_Source\PSoC5/core_cm3.c ****  * @return        reversed value
 664:.\Generated_Source\PSoC5/core_cm3.c ****  *
 665:.\Generated_Source\PSoC5/core_cm3.c ****  * Reverse bit order of value
 666:.\Generated_Source\PSoC5/core_cm3.c ****  */
 667:.\Generated_Source\PSoC5/core_cm3.c **** uint32_t __RBIT(uint32_t value)
 668:.\Generated_Source\PSoC5/core_cm3.c **** {
 410              		.loc 1 668 0
 411              		.cfi_startproc
ARM GAS  C:\DOCUME~1\ADMINI~1\LOCALS~1\Temp\ccjZigVL.s 			page 20


 412              		@ args = 0, pretend = 0, frame = 0
 413              		@ frame_needed = 0, uses_anonymous_args = 0
 414              		@ link register save eliminated.
 415              	.LVL27:
 669:.\Generated_Source\PSoC5/core_cm3.c ****   uint32_t result=0;
 670:.\Generated_Source\PSoC5/core_cm3.c ****   
 671:.\Generated_Source\PSoC5/core_cm3.c ****    __ASM volatile ("rbit %0, %1" : "=r" (result) : "r" (value) );
 416              		.loc 1 671 0
 417              	@ 671 ".\Generated_Source\PSoC5\core_cm3.c" 1
 418 0000 90FAA0F0 		rbit r0, r0
 419              	@ 0 "" 2
 420              	.LVL28:
 421              	.LVL29:
 672:.\Generated_Source\PSoC5/core_cm3.c ****    return(result);
 673:.\Generated_Source\PSoC5/core_cm3.c **** }
 422              		.loc 1 673 0
 423              		.thumb
 424 0004 7047     		bx	lr
 425              		.cfi_endproc
 426              	.LFE15:
 427              		.size	__RBIT, .-__RBIT
 428              		.section	.text.__LDREXB,"ax",%progbits
 429              		.align	1
 430              		.global	__LDREXB
 431              		.thumb
 432              		.thumb_func
 433              		.type	__LDREXB, %function
 434              	__LDREXB:
 435              	.LFB16:
 674:.\Generated_Source\PSoC5/core_cm3.c **** 
 675:.\Generated_Source\PSoC5/core_cm3.c **** /**
 676:.\Generated_Source\PSoC5/core_cm3.c ****  * @brief  LDR Exclusive (8 bit)
 677:.\Generated_Source\PSoC5/core_cm3.c ****  *
 678:.\Generated_Source\PSoC5/core_cm3.c ****  * @param  *addr  address pointer
 679:.\Generated_Source\PSoC5/core_cm3.c ****  * @return        value of (*address)
 680:.\Generated_Source\PSoC5/core_cm3.c ****  *
 681:.\Generated_Source\PSoC5/core_cm3.c ****  * Exclusive LDR command for 8 bit value
 682:.\Generated_Source\PSoC5/core_cm3.c ****  */
 683:.\Generated_Source\PSoC5/core_cm3.c **** uint8_t __LDREXB(uint8_t *addr)
 684:.\Generated_Source\PSoC5/core_cm3.c **** {
 436              		.loc 1 684 0
 437              		.cfi_startproc
 438              		@ args = 0, pretend = 0, frame = 0
 439              		@ frame_needed = 0, uses_anonymous_args = 0
 440              		@ link register save eliminated.
 441              	.LVL30:
 685:.\Generated_Source\PSoC5/core_cm3.c ****     uint8_t result=0;
 686:.\Generated_Source\PSoC5/core_cm3.c ****   
 687:.\Generated_Source\PSoC5/core_cm3.c ****    __ASM volatile ("ldrexb %0, [%1]" : "=r" (result) : "r" (addr) );
 442              		.loc 1 687 0
 443              	@ 687 ".\Generated_Source\PSoC5\core_cm3.c" 1
 444 0000 D0E84F0F 		ldrexb r0, [r0]
 445              	@ 0 "" 2
 446              	.LVL31:
 688:.\Generated_Source\PSoC5/core_cm3.c ****    return(result);
 689:.\Generated_Source\PSoC5/core_cm3.c **** }
 447              		.loc 1 689 0
ARM GAS  C:\DOCUME~1\ADMINI~1\LOCALS~1\Temp\ccjZigVL.s 			page 21


 448              		.thumb
 449 0004 C0B2     		uxtb	r0, r0
 450 0006 7047     		bx	lr
 451              		.cfi_endproc
 452              	.LFE16:
 453              		.size	__LDREXB, .-__LDREXB
 454              		.section	.text.__LDREXH,"ax",%progbits
 455              		.align	1
 456              		.global	__LDREXH
 457              		.thumb
 458              		.thumb_func
 459              		.type	__LDREXH, %function
 460              	__LDREXH:
 461              	.LFB17:
 690:.\Generated_Source\PSoC5/core_cm3.c **** 
 691:.\Generated_Source\PSoC5/core_cm3.c **** /**
 692:.\Generated_Source\PSoC5/core_cm3.c ****  * @brief  LDR Exclusive (16 bit)
 693:.\Generated_Source\PSoC5/core_cm3.c ****  *
 694:.\Generated_Source\PSoC5/core_cm3.c ****  * @param  *addr  address pointer
 695:.\Generated_Source\PSoC5/core_cm3.c ****  * @return        value of (*address)
 696:.\Generated_Source\PSoC5/core_cm3.c ****  *
 697:.\Generated_Source\PSoC5/core_cm3.c ****  * Exclusive LDR command for 16 bit values
 698:.\Generated_Source\PSoC5/core_cm3.c ****  */
 699:.\Generated_Source\PSoC5/core_cm3.c **** uint16_t __LDREXH(uint16_t *addr)
 700:.\Generated_Source\PSoC5/core_cm3.c **** {
 462              		.loc 1 700 0
 463              		.cfi_startproc
 464              		@ args = 0, pretend = 0, frame = 0
 465              		@ frame_needed = 0, uses_anonymous_args = 0
 466              		@ link register save eliminated.
 467              	.LVL32:
 701:.\Generated_Source\PSoC5/core_cm3.c ****     uint16_t result=0;
 702:.\Generated_Source\PSoC5/core_cm3.c ****   
 703:.\Generated_Source\PSoC5/core_cm3.c ****    __ASM volatile ("ldrexh %0, [%1]" : "=r" (result) : "r" (addr) );
 468              		.loc 1 703 0
 469              	@ 703 ".\Generated_Source\PSoC5\core_cm3.c" 1
 470 0000 D0E85F0F 		ldrexh r0, [r0]
 471              	@ 0 "" 2
 472              	.LVL33:
 704:.\Generated_Source\PSoC5/core_cm3.c ****    return(result);
 705:.\Generated_Source\PSoC5/core_cm3.c **** }
 473              		.loc 1 705 0
 474              		.thumb
 475 0004 80B2     		uxth	r0, r0
 476 0006 7047     		bx	lr
 477              		.cfi_endproc
 478              	.LFE17:
 479              		.size	__LDREXH, .-__LDREXH
 480              		.section	.text.__LDREXW,"ax",%progbits
 481              		.align	1
 482              		.global	__LDREXW
 483              		.thumb
 484              		.thumb_func
 485              		.type	__LDREXW, %function
 486              	__LDREXW:
 487              	.LFB18:
 706:.\Generated_Source\PSoC5/core_cm3.c **** 
ARM GAS  C:\DOCUME~1\ADMINI~1\LOCALS~1\Temp\ccjZigVL.s 			page 22


 707:.\Generated_Source\PSoC5/core_cm3.c **** /**
 708:.\Generated_Source\PSoC5/core_cm3.c ****  * @brief  LDR Exclusive (32 bit)
 709:.\Generated_Source\PSoC5/core_cm3.c ****  *
 710:.\Generated_Source\PSoC5/core_cm3.c ****  * @param  *addr  address pointer
 711:.\Generated_Source\PSoC5/core_cm3.c ****  * @return        value of (*address)
 712:.\Generated_Source\PSoC5/core_cm3.c ****  *
 713:.\Generated_Source\PSoC5/core_cm3.c ****  * Exclusive LDR command for 32 bit values
 714:.\Generated_Source\PSoC5/core_cm3.c ****  */
 715:.\Generated_Source\PSoC5/core_cm3.c **** uint32_t __LDREXW(uint32_t *addr)
 716:.\Generated_Source\PSoC5/core_cm3.c **** {
 488              		.loc 1 716 0
 489              		.cfi_startproc
 490              		@ args = 0, pretend = 0, frame = 0
 491              		@ frame_needed = 0, uses_anonymous_args = 0
 492              		@ link register save eliminated.
 493              	.LVL34:
 717:.\Generated_Source\PSoC5/core_cm3.c ****     uint32_t result=0;
 718:.\Generated_Source\PSoC5/core_cm3.c ****   
 719:.\Generated_Source\PSoC5/core_cm3.c ****    __ASM volatile ("ldrex %0, [%1]" : "=r" (result) : "r" (addr) );
 494              		.loc 1 719 0
 495              	@ 719 ".\Generated_Source\PSoC5\core_cm3.c" 1
 496 0000 50E8000F 		ldrex r0, [r0]
 497              	@ 0 "" 2
 498              	.LVL35:
 499              	.LVL36:
 720:.\Generated_Source\PSoC5/core_cm3.c ****    return(result);
 721:.\Generated_Source\PSoC5/core_cm3.c **** }
 500              		.loc 1 721 0
 501              		.thumb
 502 0004 7047     		bx	lr
 503              		.cfi_endproc
 504              	.LFE18:
 505              		.size	__LDREXW, .-__LDREXW
 506              		.section	.text.__STREXB,"ax",%progbits
 507              		.align	1
 508              		.global	__STREXB
 509              		.thumb
 510              		.thumb_func
 511              		.type	__STREXB, %function
 512              	__STREXB:
 513              	.LFB19:
 722:.\Generated_Source\PSoC5/core_cm3.c **** 
 723:.\Generated_Source\PSoC5/core_cm3.c **** /**
 724:.\Generated_Source\PSoC5/core_cm3.c ****  * @brief  STR Exclusive (8 bit)
 725:.\Generated_Source\PSoC5/core_cm3.c ****  *
 726:.\Generated_Source\PSoC5/core_cm3.c ****  * @param  value  value to store
 727:.\Generated_Source\PSoC5/core_cm3.c ****  * @param  *addr  address pointer
 728:.\Generated_Source\PSoC5/core_cm3.c ****  * @return        successful / failed
 729:.\Generated_Source\PSoC5/core_cm3.c ****  *
 730:.\Generated_Source\PSoC5/core_cm3.c ****  * Exclusive STR command for 8 bit values
 731:.\Generated_Source\PSoC5/core_cm3.c ****  */
 732:.\Generated_Source\PSoC5/core_cm3.c **** uint32_t __STREXB(uint8_t value, uint8_t *addr)
 733:.\Generated_Source\PSoC5/core_cm3.c **** {
 514              		.loc 1 733 0
 515              		.cfi_startproc
 516              		@ args = 0, pretend = 0, frame = 0
 517              		@ frame_needed = 0, uses_anonymous_args = 0
ARM GAS  C:\DOCUME~1\ADMINI~1\LOCALS~1\Temp\ccjZigVL.s 			page 23


 518              		@ link register save eliminated.
 519              	.LVL37:
 734:.\Generated_Source\PSoC5/core_cm3.c ****    uint32_t result=0;
 735:.\Generated_Source\PSoC5/core_cm3.c ****   
 736:.\Generated_Source\PSoC5/core_cm3.c ****    __ASM volatile ("strexb %0, %2, [%1]" : "=r" (result) : "r" (addr), "r" (value) );
 520              		.loc 1 736 0
 521              	@ 736 ".\Generated_Source\PSoC5\core_cm3.c" 1
 522 0000 C1E8400F 		strexb r0, r0, [r1]
 523              	@ 0 "" 2
 524              	.LVL38:
 525              	.LVL39:
 737:.\Generated_Source\PSoC5/core_cm3.c ****    return(result);
 738:.\Generated_Source\PSoC5/core_cm3.c **** }
 526              		.loc 1 738 0
 527              		.thumb
 528 0004 7047     		bx	lr
 529              		.cfi_endproc
 530              	.LFE19:
 531              		.size	__STREXB, .-__STREXB
 532              		.section	.text.__STREXH,"ax",%progbits
 533              		.align	1
 534              		.global	__STREXH
 535              		.thumb
 536              		.thumb_func
 537              		.type	__STREXH, %function
 538              	__STREXH:
 539              	.LFB20:
 739:.\Generated_Source\PSoC5/core_cm3.c **** 
 740:.\Generated_Source\PSoC5/core_cm3.c **** /**
 741:.\Generated_Source\PSoC5/core_cm3.c ****  * @brief  STR Exclusive (16 bit)
 742:.\Generated_Source\PSoC5/core_cm3.c ****  *
 743:.\Generated_Source\PSoC5/core_cm3.c ****  * @param  value  value to store
 744:.\Generated_Source\PSoC5/core_cm3.c ****  * @param  *addr  address pointer
 745:.\Generated_Source\PSoC5/core_cm3.c ****  * @return        successful / failed
 746:.\Generated_Source\PSoC5/core_cm3.c ****  *
 747:.\Generated_Source\PSoC5/core_cm3.c ****  * Exclusive STR command for 16 bit values
 748:.\Generated_Source\PSoC5/core_cm3.c ****  */
 749:.\Generated_Source\PSoC5/core_cm3.c **** uint32_t __STREXH(uint16_t value, uint16_t *addr)
 750:.\Generated_Source\PSoC5/core_cm3.c **** {
 540              		.loc 1 750 0
 541              		.cfi_startproc
 542              		@ args = 0, pretend = 0, frame = 0
 543              		@ frame_needed = 0, uses_anonymous_args = 0
 544              		@ link register save eliminated.
 545              	.LVL40:
 751:.\Generated_Source\PSoC5/core_cm3.c ****    uint32_t result=0;
 752:.\Generated_Source\PSoC5/core_cm3.c ****   
 753:.\Generated_Source\PSoC5/core_cm3.c ****    __ASM volatile ("strexh %0, %2, [%1]" : "=r" (result) : "r" (addr), "r" (value) );
 546              		.loc 1 753 0
 547              	@ 753 ".\Generated_Source\PSoC5\core_cm3.c" 1
 548 0000 C1E8500F 		strexh r0, r0, [r1]
 549              	@ 0 "" 2
 550              	.LVL41:
 551              	.LVL42:
 754:.\Generated_Source\PSoC5/core_cm3.c ****    return(result);
 755:.\Generated_Source\PSoC5/core_cm3.c **** }
 552              		.loc 1 755 0
ARM GAS  C:\DOCUME~1\ADMINI~1\LOCALS~1\Temp\ccjZigVL.s 			page 24


 553              		.thumb
 554 0004 7047     		bx	lr
 555              		.cfi_endproc
 556              	.LFE20:
 557              		.size	__STREXH, .-__STREXH
 558              		.section	.text.__STREXW,"ax",%progbits
 559              		.align	1
 560              		.global	__STREXW
 561              		.thumb
 562              		.thumb_func
 563              		.type	__STREXW, %function
 564              	__STREXW:
 565              	.LFB21:
 756:.\Generated_Source\PSoC5/core_cm3.c **** 
 757:.\Generated_Source\PSoC5/core_cm3.c **** /**
 758:.\Generated_Source\PSoC5/core_cm3.c ****  * @brief  STR Exclusive (32 bit)
 759:.\Generated_Source\PSoC5/core_cm3.c ****  *
 760:.\Generated_Source\PSoC5/core_cm3.c ****  * @param  value  value to store
 761:.\Generated_Source\PSoC5/core_cm3.c ****  * @param  *addr  address pointer
 762:.\Generated_Source\PSoC5/core_cm3.c ****  * @return        successful / failed
 763:.\Generated_Source\PSoC5/core_cm3.c ****  *
 764:.\Generated_Source\PSoC5/core_cm3.c ****  * Exclusive STR command for 32 bit values
 765:.\Generated_Source\PSoC5/core_cm3.c ****  */
 766:.\Generated_Source\PSoC5/core_cm3.c **** uint32_t __STREXW(uint32_t value, uint32_t *addr)
 767:.\Generated_Source\PSoC5/core_cm3.c **** {
 566              		.loc 1 767 0
 567              		.cfi_startproc
 568              		@ args = 0, pretend = 0, frame = 0
 569              		@ frame_needed = 0, uses_anonymous_args = 0
 570              		@ link register save eliminated.
 571              	.LVL43:
 768:.\Generated_Source\PSoC5/core_cm3.c ****    uint32_t result=0;
 769:.\Generated_Source\PSoC5/core_cm3.c ****   
 770:.\Generated_Source\PSoC5/core_cm3.c ****    __ASM volatile ("strex %0, %2, [%1]" : "=r" (result) : "r" (addr), "r" (value) );
 572              		.loc 1 770 0
 573              	@ 770 ".\Generated_Source\PSoC5\core_cm3.c" 1
 574 0000 41E80000 		strex r0, r0, [r1]
 575              	@ 0 "" 2
 576              	.LVL44:
 577              	.LVL45:
 771:.\Generated_Source\PSoC5/core_cm3.c ****    return(result);
 772:.\Generated_Source\PSoC5/core_cm3.c **** }
 578              		.loc 1 772 0
 579              		.thumb
 580 0004 7047     		bx	lr
 581              		.cfi_endproc
 582              	.LFE21:
 583              		.size	__STREXW, .-__STREXW
 584              		.text
 585              	.Letext0: