ARM GAS  C:\DOCUME~1\ADMINI~1\LOCALS~1\Temp\ccqEQrHg.s 			page 1


   1              		.syntax unified
   2              		.cpu cortex-m3
   3              		.fpu softvfp
   4              		.eabi_attribute 20, 1
   5              		.eabi_attribute 21, 1
   6              		.eabi_attribute 23, 3
   7              		.eabi_attribute 24, 1
   8              		.eabi_attribute 25, 1
   9              		.eabi_attribute 26, 1
  10              		.eabi_attribute 30, 4
  11              		.eabi_attribute 18, 4
  12              		.thumb
  13              		.file	"cyfitter_cfg.c"
  20 0000 A2010000 		.text
  20      0200EA00 
  20      00000201 
  20      FB0E0D00 
  20      01010101 
  21              	.Ltext0:
  22              		.cfi_sections	.debug_frame
  23              		.section	.text.SetAnalogRoutingPumps,"ax",%progbits
  24              		.align	1
  25              		.global	SetAnalogRoutingPumps
  26              		.thumb
  27              		.thumb_func
  28              		.type	SetAnalogRoutingPumps, %function
  29              	SetAnalogRoutingPumps:
  30              	.LFB6:
  31              		.file 1 ".\\Generated_Source\\PSoC5\\cyfitter_cfg.c"
   1:.\Generated_Source\PSoC5/cyfitter_cfg.c **** /*******************************************************************************
   2:.\Generated_Source\PSoC5/cyfitter_cfg.c **** * FILENAME: cyfitter_cfg.c
   3:.\Generated_Source\PSoC5/cyfitter_cfg.c **** * PSoC Creator 2.2 Component Pack 6
   4:.\Generated_Source\PSoC5/cyfitter_cfg.c **** *
   5:.\Generated_Source\PSoC5/cyfitter_cfg.c **** * Description:
   6:.\Generated_Source\PSoC5/cyfitter_cfg.c **** * This file is automatically generated by PSoC Creator with device 
   7:.\Generated_Source\PSoC5/cyfitter_cfg.c **** * initialization code.  Except for the user defined sections in
   8:.\Generated_Source\PSoC5/cyfitter_cfg.c **** * CyClockStartupError(), this file should not be modified.
   9:.\Generated_Source\PSoC5/cyfitter_cfg.c **** *
  10:.\Generated_Source\PSoC5/cyfitter_cfg.c **** ********************************************************************************
  11:.\Generated_Source\PSoC5/cyfitter_cfg.c **** * Copyright 2013, Cypress Semiconductor Corporation.  All rights reserved.
  12:.\Generated_Source\PSoC5/cyfitter_cfg.c **** * You may use this file only in accordance with the license, terms, conditions, 
  13:.\Generated_Source\PSoC5/cyfitter_cfg.c **** * disclaimers, and limitations in the end user license agreement accompanying 
  14:.\Generated_Source\PSoC5/cyfitter_cfg.c **** * the software package with which this file was provided.
  15:.\Generated_Source\PSoC5/cyfitter_cfg.c **** ********************************************************************************/
  16:.\Generated_Source\PSoC5/cyfitter_cfg.c **** 
  17:.\Generated_Source\PSoC5/cyfitter_cfg.c **** #include <string.h>
  18:.\Generated_Source\PSoC5/cyfitter_cfg.c **** #include <cytypes.h>
  19:.\Generated_Source\PSoC5/cyfitter_cfg.c **** #include <cydevice_trm.h>
  20:.\Generated_Source\PSoC5/cyfitter_cfg.c **** #include <cyfitter.h>
  21:.\Generated_Source\PSoC5/cyfitter_cfg.c **** #include <CyLib.h>
  22:.\Generated_Source\PSoC5/cyfitter_cfg.c **** #include <cyfitter_cfg.h>
ARM GAS  C:\DOCUME~1\ADMINI~1\LOCALS~1\Temp\ccqEQrHg.s 			page 2


  23:.\Generated_Source\PSoC5/cyfitter_cfg.c **** 
  24:.\Generated_Source\PSoC5/cyfitter_cfg.c **** /* Clock startup error codes                                                   */
  25:.\Generated_Source\PSoC5/cyfitter_cfg.c **** #define CYCLOCKSTART_NO_ERROR    0u
  26:.\Generated_Source\PSoC5/cyfitter_cfg.c **** #define CYCLOCKSTART_XTAL_ERROR  1u
  27:.\Generated_Source\PSoC5/cyfitter_cfg.c **** #define CYCLOCKSTART_32KHZ_ERROR 2u
  28:.\Generated_Source\PSoC5/cyfitter_cfg.c **** #define CYCLOCKSTART_PLL_ERROR   3u
  29:.\Generated_Source\PSoC5/cyfitter_cfg.c **** 
  30:.\Generated_Source\PSoC5/cyfitter_cfg.c **** #ifdef CY_NEED_CYCLOCKSTARTUPERROR
  31:.\Generated_Source\PSoC5/cyfitter_cfg.c **** /*******************************************************************************
  32:.\Generated_Source\PSoC5/cyfitter_cfg.c **** * Function Name: CyClockStartupError
  33:.\Generated_Source\PSoC5/cyfitter_cfg.c **** ********************************************************************************
  34:.\Generated_Source\PSoC5/cyfitter_cfg.c **** * Summary:
  35:.\Generated_Source\PSoC5/cyfitter_cfg.c **** *  If an error is encountered during clock configuration (crystal startup error,
  36:.\Generated_Source\PSoC5/cyfitter_cfg.c **** *  PLL lock error, etc.), the system will end up here.  Unless reimplemented by
  37:.\Generated_Source\PSoC5/cyfitter_cfg.c **** *  the customer, this function will stop in an infinite loop.
  38:.\Generated_Source\PSoC5/cyfitter_cfg.c **** *
  39:.\Generated_Source\PSoC5/cyfitter_cfg.c **** * Parameters:
  40:.\Generated_Source\PSoC5/cyfitter_cfg.c **** *   void
  41:.\Generated_Source\PSoC5/cyfitter_cfg.c **** *
  42:.\Generated_Source\PSoC5/cyfitter_cfg.c **** * Return:
  43:.\Generated_Source\PSoC5/cyfitter_cfg.c **** *   void
  44:.\Generated_Source\PSoC5/cyfitter_cfg.c **** *
  45:.\Generated_Source\PSoC5/cyfitter_cfg.c **** *******************************************************************************/
  46:.\Generated_Source\PSoC5/cyfitter_cfg.c **** #if defined(__GNUC__) || defined(__ARMCC_VERSION)
  47:.\Generated_Source\PSoC5/cyfitter_cfg.c **** __attribute__ ((unused))
  48:.\Generated_Source\PSoC5/cyfitter_cfg.c **** #endif
  49:.\Generated_Source\PSoC5/cyfitter_cfg.c **** static void CyClockStartupError(uint8 errorCode);
  50:.\Generated_Source\PSoC5/cyfitter_cfg.c **** #if defined(__GNUC__) || defined(__ARMCC_VERSION)
  51:.\Generated_Source\PSoC5/cyfitter_cfg.c **** __attribute__ ((unused))
  52:.\Generated_Source\PSoC5/cyfitter_cfg.c **** #endif
  53:.\Generated_Source\PSoC5/cyfitter_cfg.c **** static void CyClockStartupError(uint8 errorCode)
  54:.\Generated_Source\PSoC5/cyfitter_cfg.c **** {
  55:.\Generated_Source\PSoC5/cyfitter_cfg.c ****     /* To remove the compiler warning if errorCode not used.                */
  56:.\Generated_Source\PSoC5/cyfitter_cfg.c ****     errorCode = errorCode;
  57:.\Generated_Source\PSoC5/cyfitter_cfg.c **** 
  58:.\Generated_Source\PSoC5/cyfitter_cfg.c ****     /* `#START CyClockStartupError` */
  59:.\Generated_Source\PSoC5/cyfitter_cfg.c **** 
  60:.\Generated_Source\PSoC5/cyfitter_cfg.c ****     /* If we have a clock startup error (bad MHz crystal, PLL lock, etc.),  */
  61:.\Generated_Source\PSoC5/cyfitter_cfg.c ****     /* we will end up here to allow the customer to implement something to  */
  62:.\Generated_Source\PSoC5/cyfitter_cfg.c ****     /* deal with the clock condition.                                       */
  63:.\Generated_Source\PSoC5/cyfitter_cfg.c **** 
  64:.\Generated_Source\PSoC5/cyfitter_cfg.c ****     /* `#END` */
  65:.\Generated_Source\PSoC5/cyfitter_cfg.c **** 
  66:.\Generated_Source\PSoC5/cyfitter_cfg.c ****     /* If nothing else, stop here since the clocks have not started         */
  67:.\Generated_Source\PSoC5/cyfitter_cfg.c ****     /* correctly.                                                           */
  68:.\Generated_Source\PSoC5/cyfitter_cfg.c ****     while(1) {}
  69:.\Generated_Source\PSoC5/cyfitter_cfg.c **** }
  70:.\Generated_Source\PSoC5/cyfitter_cfg.c **** #endif
  71:.\Generated_Source\PSoC5/cyfitter_cfg.c **** 
  72:.\Generated_Source\PSoC5/cyfitter_cfg.c **** 
  73:.\Generated_Source\PSoC5/cyfitter_cfg.c **** #if defined(__GNUC__) || defined(__ARMCC_VERSION)
  74:.\Generated_Source\PSoC5/cyfitter_cfg.c **** 	#define CYPACKED __attribute__ ((packed))
  75:.\Generated_Source\PSoC5/cyfitter_cfg.c **** 	#define CYALIGNED __attribute__ ((aligned))
  76:.\Generated_Source\PSoC5/cyfitter_cfg.c **** 	
  77:.\Generated_Source\PSoC5/cyfitter_cfg.c **** 	#if defined(__ARMCC_VERSION)
  78:.\Generated_Source\PSoC5/cyfitter_cfg.c **** 		#define CY_CFG_MEMORY_BARRIER() __memory_changed()
  79:.\Generated_Source\PSoC5/cyfitter_cfg.c **** 	#else
ARM GAS  C:\DOCUME~1\ADMINI~1\LOCALS~1\Temp\ccqEQrHg.s 			page 3


  80:.\Generated_Source\PSoC5/cyfitter_cfg.c **** 		#define CY_CFG_MEMORY_BARRIER() __sync_synchronize()
  81:.\Generated_Source\PSoC5/cyfitter_cfg.c **** 	#endif
  82:.\Generated_Source\PSoC5/cyfitter_cfg.c **** 	
  83:.\Generated_Source\PSoC5/cyfitter_cfg.c **** 
  84:.\Generated_Source\PSoC5/cyfitter_cfg.c **** 	__attribute__ ((unused))
  85:.\Generated_Source\PSoC5/cyfitter_cfg.c **** 	static void CYMEMZERO(void *s, size_t n);
  86:.\Generated_Source\PSoC5/cyfitter_cfg.c **** 	__attribute__ ((unused))
  87:.\Generated_Source\PSoC5/cyfitter_cfg.c **** 	static void CYMEMZERO(void *s, size_t n)
  88:.\Generated_Source\PSoC5/cyfitter_cfg.c **** 	{
  89:.\Generated_Source\PSoC5/cyfitter_cfg.c **** 		(void)memset(s, 0, n);
  90:.\Generated_Source\PSoC5/cyfitter_cfg.c **** 	}
  91:.\Generated_Source\PSoC5/cyfitter_cfg.c **** 	__attribute__ ((unused))
  92:.\Generated_Source\PSoC5/cyfitter_cfg.c **** 	static void CYCONFIGCPY(void *dest, const void *src, size_t n);
  93:.\Generated_Source\PSoC5/cyfitter_cfg.c **** 	__attribute__ ((unused))
  94:.\Generated_Source\PSoC5/cyfitter_cfg.c **** 	static void CYCONFIGCPY(void *dest, const void *src, size_t n)
  95:.\Generated_Source\PSoC5/cyfitter_cfg.c **** 	{
  96:.\Generated_Source\PSoC5/cyfitter_cfg.c **** 		(void)memcpy(dest, src, n);
  97:.\Generated_Source\PSoC5/cyfitter_cfg.c **** 	}
  98:.\Generated_Source\PSoC5/cyfitter_cfg.c **** 	__attribute__ ((unused))
  99:.\Generated_Source\PSoC5/cyfitter_cfg.c **** 	static void CYCONFIGCPYCODE(void *dest, const void *src, size_t n);
 100:.\Generated_Source\PSoC5/cyfitter_cfg.c **** 	__attribute__ ((unused))
 101:.\Generated_Source\PSoC5/cyfitter_cfg.c **** 	static void CYCONFIGCPYCODE(void *dest, const void *src, size_t n)
 102:.\Generated_Source\PSoC5/cyfitter_cfg.c **** 	{
 103:.\Generated_Source\PSoC5/cyfitter_cfg.c **** 		(void)memcpy(dest, src, n);
 104:.\Generated_Source\PSoC5/cyfitter_cfg.c **** 	}
 105:.\Generated_Source\PSoC5/cyfitter_cfg.c **** #else
 106:.\Generated_Source\PSoC5/cyfitter_cfg.c **** 	#error Unsupported toolchain
 107:.\Generated_Source\PSoC5/cyfitter_cfg.c **** #endif
 108:.\Generated_Source\PSoC5/cyfitter_cfg.c **** 
 109:.\Generated_Source\PSoC5/cyfitter_cfg.c **** #define CY_CFG_BASE_ADDR_COUNT 17u
 110:.\Generated_Source\PSoC5/cyfitter_cfg.c **** typedef struct
 111:.\Generated_Source\PSoC5/cyfitter_cfg.c **** {
 112:.\Generated_Source\PSoC5/cyfitter_cfg.c **** 	uint8 offset;
 113:.\Generated_Source\PSoC5/cyfitter_cfg.c **** 	uint8 value;
 114:.\Generated_Source\PSoC5/cyfitter_cfg.c **** } CYPACKED cy_cfg_addrvalue_t;
 115:.\Generated_Source\PSoC5/cyfitter_cfg.c **** 
 116:.\Generated_Source\PSoC5/cyfitter_cfg.c **** 
 117:.\Generated_Source\PSoC5/cyfitter_cfg.c **** 
 118:.\Generated_Source\PSoC5/cyfitter_cfg.c **** /*******************************************************************************
 119:.\Generated_Source\PSoC5/cyfitter_cfg.c **** * Function Name: cfg_write_bytes32
 120:.\Generated_Source\PSoC5/cyfitter_cfg.c **** ********************************************************************************
 121:.\Generated_Source\PSoC5/cyfitter_cfg.c **** * Summary:
 122:.\Generated_Source\PSoC5/cyfitter_cfg.c **** *  This function is used for setting up the chip configuration areas that
 123:.\Generated_Source\PSoC5/cyfitter_cfg.c **** *  contain relatively sparse data.
 124:.\Generated_Source\PSoC5/cyfitter_cfg.c **** *
 125:.\Generated_Source\PSoC5/cyfitter_cfg.c **** * Parameters:
 126:.\Generated_Source\PSoC5/cyfitter_cfg.c **** *   void
 127:.\Generated_Source\PSoC5/cyfitter_cfg.c **** *
 128:.\Generated_Source\PSoC5/cyfitter_cfg.c **** * Return:
 129:.\Generated_Source\PSoC5/cyfitter_cfg.c **** *   void
 130:.\Generated_Source\PSoC5/cyfitter_cfg.c **** *
 131:.\Generated_Source\PSoC5/cyfitter_cfg.c **** *******************************************************************************/
 132:.\Generated_Source\PSoC5/cyfitter_cfg.c **** static void cfg_write_bytes32(const uint32 addr_table[], const cy_cfg_addrvalue_t data_table[]);
 133:.\Generated_Source\PSoC5/cyfitter_cfg.c **** static void cfg_write_bytes32(const uint32 addr_table[], const cy_cfg_addrvalue_t data_table[])
 134:.\Generated_Source\PSoC5/cyfitter_cfg.c **** {
 135:.\Generated_Source\PSoC5/cyfitter_cfg.c **** 	/* For 32-bit little-endian architectures */
 136:.\Generated_Source\PSoC5/cyfitter_cfg.c **** 	uint32 i, j = 0u;
ARM GAS  C:\DOCUME~1\ADMINI~1\LOCALS~1\Temp\ccqEQrHg.s 			page 4


 137:.\Generated_Source\PSoC5/cyfitter_cfg.c **** 	for (i = 0u; i < CY_CFG_BASE_ADDR_COUNT; i++)
 138:.\Generated_Source\PSoC5/cyfitter_cfg.c **** 	{
 139:.\Generated_Source\PSoC5/cyfitter_cfg.c **** 		uint32 baseAddr = addr_table[i];
 140:.\Generated_Source\PSoC5/cyfitter_cfg.c **** 		uint8 count = (uint8)baseAddr;
 141:.\Generated_Source\PSoC5/cyfitter_cfg.c **** 		baseAddr &= 0xFFFFFF00u;
 142:.\Generated_Source\PSoC5/cyfitter_cfg.c **** 		while (count != 0u)
 143:.\Generated_Source\PSoC5/cyfitter_cfg.c **** 		{
 144:.\Generated_Source\PSoC5/cyfitter_cfg.c **** 			CY_SET_XTND_REG8((void CYFAR *)(baseAddr + data_table[j].offset), data_table[j].value);
 145:.\Generated_Source\PSoC5/cyfitter_cfg.c **** 			j++;
 146:.\Generated_Source\PSoC5/cyfitter_cfg.c **** 			count--;
 147:.\Generated_Source\PSoC5/cyfitter_cfg.c **** 		}
 148:.\Generated_Source\PSoC5/cyfitter_cfg.c **** 	}
 149:.\Generated_Source\PSoC5/cyfitter_cfg.c **** }
 150:.\Generated_Source\PSoC5/cyfitter_cfg.c **** 
 151:.\Generated_Source\PSoC5/cyfitter_cfg.c **** /*******************************************************************************
 152:.\Generated_Source\PSoC5/cyfitter_cfg.c **** * Function Name: ClockSetup
 153:.\Generated_Source\PSoC5/cyfitter_cfg.c **** ********************************************************************************
 154:.\Generated_Source\PSoC5/cyfitter_cfg.c **** *
 155:.\Generated_Source\PSoC5/cyfitter_cfg.c **** * Summary:
 156:.\Generated_Source\PSoC5/cyfitter_cfg.c **** *  Performs the initialization of all of the clocks in the device based on the
 157:.\Generated_Source\PSoC5/cyfitter_cfg.c **** *  settings in the Clock tab of the DWR.  This includes enabling the requested
 158:.\Generated_Source\PSoC5/cyfitter_cfg.c **** *  clocks and setting the necessary dividers to produce the desired frequency. 
 159:.\Generated_Source\PSoC5/cyfitter_cfg.c **** *
 160:.\Generated_Source\PSoC5/cyfitter_cfg.c **** * Parameters:
 161:.\Generated_Source\PSoC5/cyfitter_cfg.c **** *  void
 162:.\Generated_Source\PSoC5/cyfitter_cfg.c **** *
 163:.\Generated_Source\PSoC5/cyfitter_cfg.c **** * Return:
 164:.\Generated_Source\PSoC5/cyfitter_cfg.c **** *  void
 165:.\Generated_Source\PSoC5/cyfitter_cfg.c **** *
 166:.\Generated_Source\PSoC5/cyfitter_cfg.c **** *******************************************************************************/
 167:.\Generated_Source\PSoC5/cyfitter_cfg.c **** static void ClockSetup(void);
 168:.\Generated_Source\PSoC5/cyfitter_cfg.c **** static void ClockSetup(void)
 169:.\Generated_Source\PSoC5/cyfitter_cfg.c **** {
 170:.\Generated_Source\PSoC5/cyfitter_cfg.c **** 
 171:.\Generated_Source\PSoC5/cyfitter_cfg.c **** 
 172:.\Generated_Source\PSoC5/cyfitter_cfg.c **** 	/* Configure Digital Clocks based on settings from Clock DWR */
 173:.\Generated_Source\PSoC5/cyfitter_cfg.c **** 	CY_SET_XTND_REG16((void CYFAR *)(CYREG_CLKDIST_DCFG0_CFG0), 0x0003u);
 174:.\Generated_Source\PSoC5/cyfitter_cfg.c **** 	CY_SET_XTND_REG8((void CYFAR *)(CYREG_CLKDIST_DCFG0_CFG0 + 0x2u), 0x1Bu);
 175:.\Generated_Source\PSoC5/cyfitter_cfg.c **** 
 176:.\Generated_Source\PSoC5/cyfitter_cfg.c **** 	/* Configure ILO based on settings from Clock DWR */
 177:.\Generated_Source\PSoC5/cyfitter_cfg.c **** 	CY_SET_XTND_REG8((void CYFAR *)(CYREG_SLOWCLK_ILO_CR0), 0x06u);
 178:.\Generated_Source\PSoC5/cyfitter_cfg.c **** 
 179:.\Generated_Source\PSoC5/cyfitter_cfg.c **** 	/* Configure IMO based on settings from Clock DWR */
 180:.\Generated_Source\PSoC5/cyfitter_cfg.c **** 	CY_SET_XTND_REG8((void CYFAR *)(CYREG_FASTCLK_IMO_CR), 0x52u);
 181:.\Generated_Source\PSoC5/cyfitter_cfg.c **** 	CY_SET_XTND_REG8((void CYFAR *)(CYREG_IMO_TR1), (CY_GET_XTND_REG8((void CYFAR *)CYREG_FLSHID_CUST_
 182:.\Generated_Source\PSoC5/cyfitter_cfg.c **** 
 183:.\Generated_Source\PSoC5/cyfitter_cfg.c **** 	/* Configure Bus/Master Clock based on settings from Clock DWR */
 184:.\Generated_Source\PSoC5/cyfitter_cfg.c **** 	CY_SET_XTND_REG16((void CYFAR *)(CYREG_CLKDIST_MSTR0), 0x0000u);
 185:.\Generated_Source\PSoC5/cyfitter_cfg.c **** 	CY_SET_XTND_REG8((void CYFAR *)(CYREG_CLKDIST_MSTR0), 0x07u);
 186:.\Generated_Source\PSoC5/cyfitter_cfg.c **** 	CY_SET_XTND_REG8((void CYFAR *)(CYREG_CLKDIST_BCFG0), 0x00u);
 187:.\Generated_Source\PSoC5/cyfitter_cfg.c **** 	CY_SET_XTND_REG8((void CYFAR *)(CYREG_CLKDIST_BCFG2), 0x48u);
 188:.\Generated_Source\PSoC5/cyfitter_cfg.c **** 	CY_SET_XTND_REG8((void CYFAR *)(CYREG_CLKDIST_MSTR0), 0x00u);
 189:.\Generated_Source\PSoC5/cyfitter_cfg.c **** 
 190:.\Generated_Source\PSoC5/cyfitter_cfg.c **** 	/* Configure USB Clock based on settings from Clock DWR */
 191:.\Generated_Source\PSoC5/cyfitter_cfg.c **** 	CY_SET_XTND_REG8((void CYFAR *)(CYREG_CLKDIST_UCFG), 0x00u);
 192:.\Generated_Source\PSoC5/cyfitter_cfg.c **** 	CY_SET_XTND_REG8((void CYFAR *)(CYREG_CLKDIST_LD), 0x02u);
 193:.\Generated_Source\PSoC5/cyfitter_cfg.c **** 
ARM GAS  C:\DOCUME~1\ADMINI~1\LOCALS~1\Temp\ccqEQrHg.s 			page 5


 194:.\Generated_Source\PSoC5/cyfitter_cfg.c **** 	CY_SET_XTND_REG8((void CYFAR *)(CYREG_PM_ACT_CFG2), ((CY_GET_XTND_REG8((void CYFAR *)CYREG_PM_ACT_
 195:.\Generated_Source\PSoC5/cyfitter_cfg.c **** }
 196:.\Generated_Source\PSoC5/cyfitter_cfg.c **** 
 197:.\Generated_Source\PSoC5/cyfitter_cfg.c **** 
 198:.\Generated_Source\PSoC5/cyfitter_cfg.c **** /* Analog API Functions */
 199:.\Generated_Source\PSoC5/cyfitter_cfg.c **** 
 200:.\Generated_Source\PSoC5/cyfitter_cfg.c **** 
 201:.\Generated_Source\PSoC5/cyfitter_cfg.c **** /*******************************************************************************
 202:.\Generated_Source\PSoC5/cyfitter_cfg.c **** * Function Name: AnalogSetDefault
 203:.\Generated_Source\PSoC5/cyfitter_cfg.c **** ********************************************************************************
 204:.\Generated_Source\PSoC5/cyfitter_cfg.c **** *
 205:.\Generated_Source\PSoC5/cyfitter_cfg.c **** * Summary:
 206:.\Generated_Source\PSoC5/cyfitter_cfg.c **** *  Sets up the analog portions of the chip to default values based on chip
 207:.\Generated_Source\PSoC5/cyfitter_cfg.c **** *  configuration options from the project.
 208:.\Generated_Source\PSoC5/cyfitter_cfg.c **** *
 209:.\Generated_Source\PSoC5/cyfitter_cfg.c **** * Parameters:
 210:.\Generated_Source\PSoC5/cyfitter_cfg.c **** *  void
 211:.\Generated_Source\PSoC5/cyfitter_cfg.c **** *
 212:.\Generated_Source\PSoC5/cyfitter_cfg.c **** * Return:
 213:.\Generated_Source\PSoC5/cyfitter_cfg.c **** *  void
 214:.\Generated_Source\PSoC5/cyfitter_cfg.c **** *
 215:.\Generated_Source\PSoC5/cyfitter_cfg.c **** *******************************************************************************/
 216:.\Generated_Source\PSoC5/cyfitter_cfg.c **** static void AnalogSetDefault(void);
 217:.\Generated_Source\PSoC5/cyfitter_cfg.c **** static void AnalogSetDefault(void)
 218:.\Generated_Source\PSoC5/cyfitter_cfg.c **** {
 219:.\Generated_Source\PSoC5/cyfitter_cfg.c **** 	uint8 bg_xover_inl_trim = CY_GET_XTND_REG8((void CYFAR *)(CYREG_FLSHID_MFG_CFG_BG_XOVER_INL_TRIM +
 220:.\Generated_Source\PSoC5/cyfitter_cfg.c **** 	CY_SET_XTND_REG8((void CYFAR *)CYREG_BG_DFT0, bg_xover_inl_trim & 0x07u);
 221:.\Generated_Source\PSoC5/cyfitter_cfg.c **** 	CY_SET_XTND_REG8((void CYFAR *)CYREG_BG_DFT1, ((uint8)((uint8)bg_xover_inl_trim >> 4)) & 0x0Fu);
 222:.\Generated_Source\PSoC5/cyfitter_cfg.c **** 	CY_SET_XTND_REG8((void CYFAR *)CYREG_PUMP_CR0, 0x44u);
 223:.\Generated_Source\PSoC5/cyfitter_cfg.c **** }
 224:.\Generated_Source\PSoC5/cyfitter_cfg.c **** 
 225:.\Generated_Source\PSoC5/cyfitter_cfg.c **** 
 226:.\Generated_Source\PSoC5/cyfitter_cfg.c **** /*******************************************************************************
 227:.\Generated_Source\PSoC5/cyfitter_cfg.c **** * Function Name: SetAnalogRoutingPumps
 228:.\Generated_Source\PSoC5/cyfitter_cfg.c **** ********************************************************************************
 229:.\Generated_Source\PSoC5/cyfitter_cfg.c **** *
 230:.\Generated_Source\PSoC5/cyfitter_cfg.c **** * Summary:
 231:.\Generated_Source\PSoC5/cyfitter_cfg.c **** * Enables or disables the analog pumps feeding analog routing switches.
 232:.\Generated_Source\PSoC5/cyfitter_cfg.c **** * Intended to be called at startup, based on the Vdda system configuration;
 233:.\Generated_Source\PSoC5/cyfitter_cfg.c **** * may be called during operation when the user informs us that the Vdda voltage
 234:.\Generated_Source\PSoC5/cyfitter_cfg.c **** * crossed the pump threshold.
 235:.\Generated_Source\PSoC5/cyfitter_cfg.c **** *
 236:.\Generated_Source\PSoC5/cyfitter_cfg.c **** * Parameters:
 237:.\Generated_Source\PSoC5/cyfitter_cfg.c **** *  enabled - 1 to enable the pumps, 0 to disable the pumps
 238:.\Generated_Source\PSoC5/cyfitter_cfg.c **** *
 239:.\Generated_Source\PSoC5/cyfitter_cfg.c **** * Return:
 240:.\Generated_Source\PSoC5/cyfitter_cfg.c **** *  void
 241:.\Generated_Source\PSoC5/cyfitter_cfg.c **** *
 242:.\Generated_Source\PSoC5/cyfitter_cfg.c **** *******************************************************************************/
 243:.\Generated_Source\PSoC5/cyfitter_cfg.c **** void SetAnalogRoutingPumps(uint8 enabled)
 244:.\Generated_Source\PSoC5/cyfitter_cfg.c **** {
  32              		.loc 1 244 0
  33              		.cfi_startproc
  34              		@ args = 0, pretend = 0, frame = 0
  35              		@ frame_needed = 0, uses_anonymous_args = 0
  36              		@ link register save eliminated.
  37              	.LVL0:
ARM GAS  C:\DOCUME~1\ADMINI~1\LOCALS~1\Temp\ccqEQrHg.s 			page 6


 245:.\Generated_Source\PSoC5/cyfitter_cfg.c **** 	uint8 regValue = CY_GET_XTND_REG8((void CYFAR *)CYREG_PUMP_CR0);
  38              		.loc 1 245 0
  39 0000 014B     		ldr	r3, .L3
  40 0002 1A78     		ldrb	r2, [r3, #0]	@ zero_extendqisi2
 246:.\Generated_Source\PSoC5/cyfitter_cfg.c **** 	if (enabled != 0u)
 247:.\Generated_Source\PSoC5/cyfitter_cfg.c **** 	{
 248:.\Generated_Source\PSoC5/cyfitter_cfg.c **** 		regValue |= 0x00u;
 249:.\Generated_Source\PSoC5/cyfitter_cfg.c **** 	}
 250:.\Generated_Source\PSoC5/cyfitter_cfg.c **** 	else
 251:.\Generated_Source\PSoC5/cyfitter_cfg.c **** 	{
 252:.\Generated_Source\PSoC5/cyfitter_cfg.c **** 		regValue &= (uint8)~0x00u;
 253:.\Generated_Source\PSoC5/cyfitter_cfg.c **** 	}
 254:.\Generated_Source\PSoC5/cyfitter_cfg.c **** 	CY_SET_XTND_REG8((void CYFAR *)CYREG_PUMP_CR0, regValue);
  41              		.loc 1 254 0
  42 0004 1A70     		strb	r2, [r3, #0]
  43              	.LVL1:
 255:.\Generated_Source\PSoC5/cyfitter_cfg.c **** }
  44              		.loc 1 255 0
  45 0006 7047     		bx	lr
  46              	.L4:
  47              		.align	2
  48              	.L3:
  49 0008 76580040 		.word	1073764470
  50              		.cfi_endproc
  51              	.LFE6:
  52              		.size	SetAnalogRoutingPumps, .-SetAnalogRoutingPumps
  53              		.section	.text.CYCONFIGCPYCODE,"ax",%progbits
  54              		.align	1
  55              		.thumb
  56              		.thumb_func
  57              		.type	CYCONFIGCPYCODE, %function
  58              	CYCONFIGCPYCODE:
  59              	.LFB2:
  60              		.loc 1 102 0
  61              		.cfi_startproc
  62              		@ args = 0, pretend = 0, frame = 0
  63              		@ frame_needed = 0, uses_anonymous_args = 0
  64              		@ link register save eliminated.
  65              	.LVL2:
  66              		.loc 1 104 0
  67              		.loc 1 103 0
  68 0000 FFF7FEBF 		b	memcpy
  69              	.LVL3:
  70              		.cfi_endproc
  71              	.LFE2:
  72              		.size	CYCONFIGCPYCODE, .-CYCONFIGCPYCODE
  73              		.section	.text.cyfitter_cfg,"ax",%progbits
  74              		.align	1
  75              		.global	cyfitter_cfg
  76              		.thumb
  77              		.thumb_func
  78              		.type	cyfitter_cfg, %function
  79              	cyfitter_cfg:
  80              	.LFB7:
 256:.\Generated_Source\PSoC5/cyfitter_cfg.c **** 
 257:.\Generated_Source\PSoC5/cyfitter_cfg.c **** #define CY_AMUX_UNUSED CYREG_BOOST_SR
 258:.\Generated_Source\PSoC5/cyfitter_cfg.c **** 
ARM GAS  C:\DOCUME~1\ADMINI~1\LOCALS~1\Temp\ccqEQrHg.s 			page 7


 259:.\Generated_Source\PSoC5/cyfitter_cfg.c **** 
 260:.\Generated_Source\PSoC5/cyfitter_cfg.c **** /*******************************************************************************
 261:.\Generated_Source\PSoC5/cyfitter_cfg.c **** * Function Name: cyfitter_cfg
 262:.\Generated_Source\PSoC5/cyfitter_cfg.c **** ********************************************************************************
 263:.\Generated_Source\PSoC5/cyfitter_cfg.c **** * Summary:
 264:.\Generated_Source\PSoC5/cyfitter_cfg.c **** *  This function is called by the start-up code for the selected device. It
 265:.\Generated_Source\PSoC5/cyfitter_cfg.c **** *  performs all of the necessary device configuration based on the design
 266:.\Generated_Source\PSoC5/cyfitter_cfg.c **** *  settings.  This includes settings from the Design Wide Resources (DWR) such
 267:.\Generated_Source\PSoC5/cyfitter_cfg.c **** *  as Clocks and Pins as well as any component configuration that is necessary.
 268:.\Generated_Source\PSoC5/cyfitter_cfg.c **** *
 269:.\Generated_Source\PSoC5/cyfitter_cfg.c **** * Parameters:  
 270:.\Generated_Source\PSoC5/cyfitter_cfg.c **** *   void
 271:.\Generated_Source\PSoC5/cyfitter_cfg.c **** *
 272:.\Generated_Source\PSoC5/cyfitter_cfg.c **** * Return:
 273:.\Generated_Source\PSoC5/cyfitter_cfg.c **** *   void
 274:.\Generated_Source\PSoC5/cyfitter_cfg.c **** *
 275:.\Generated_Source\PSoC5/cyfitter_cfg.c **** *******************************************************************************/
 276:.\Generated_Source\PSoC5/cyfitter_cfg.c **** 
 277:.\Generated_Source\PSoC5/cyfitter_cfg.c **** void cyfitter_cfg(void)
 278:.\Generated_Source\PSoC5/cyfitter_cfg.c **** {
  81              		.loc 1 278 0
  82              		.cfi_startproc
  83              		@ args = 0, pretend = 0, frame = 0
  84              		@ frame_needed = 0, uses_anonymous_args = 0
  85 0000 70B5     		push	{r4, r5, r6, lr}
  86              	.LCFI0:
  87              		.cfi_def_cfa_offset 16
 279:.\Generated_Source\PSoC5/cyfitter_cfg.c **** 	/* IOPINS0_8 Address: CYREG_PRT15_DR Size (bytes): 10 */
 280:.\Generated_Source\PSoC5/cyfitter_cfg.c **** 	static const uint8 CYCODE BS_IOPINS0_8_VAL[] = {
 281:.\Generated_Source\PSoC5/cyfitter_cfg.c **** 		0x00u, 0x00u, 0x00u, 0x00u, 0x00u, 0x00u, 0x00u, 0x00u, 0xC0u, 0x00u};
 282:.\Generated_Source\PSoC5/cyfitter_cfg.c **** 
 283:.\Generated_Source\PSoC5/cyfitter_cfg.c **** 	/* IOPINS0_2 Address: CYREG_PRT2_DR Size (bytes): 10 */
 284:.\Generated_Source\PSoC5/cyfitter_cfg.c **** 	static const uint8 CYCODE BS_IOPINS0_2_VAL[] = {
 285:.\Generated_Source\PSoC5/cyfitter_cfg.c **** 		0x10u, 0x00u, 0x10u, 0x00u, 0x00u, 0x00u, 0x00u, 0x00u, 0x00u, 0x00u};
 286:.\Generated_Source\PSoC5/cyfitter_cfg.c **** 
 287:.\Generated_Source\PSoC5/cyfitter_cfg.c **** 	/* IOPINS0_3 Address: CYREG_PRT3_DM0 Size (bytes): 8 */
 288:.\Generated_Source\PSoC5/cyfitter_cfg.c **** 	static const uint8 CYCODE BS_IOPINS0_3_VAL[] = {
 289:.\Generated_Source\PSoC5/cyfitter_cfg.c **** 		0x00u, 0x02u, 0x02u, 0x00u, 0x02u, 0x00u, 0x00u, 0x00u};
 290:.\Generated_Source\PSoC5/cyfitter_cfg.c **** 
 291:.\Generated_Source\PSoC5/cyfitter_cfg.c **** #ifdef CYGlobalIntDisable
 292:.\Generated_Source\PSoC5/cyfitter_cfg.c **** 	/* Disable interrupts by default. Let user enable if/when they want. */
 293:.\Generated_Source\PSoC5/cyfitter_cfg.c **** 	CYGlobalIntDisable
  88              		.loc 1 293 0
  89              	@ 293 ".\Generated_Source\PSoC5\cyfitter_cfg.c" 1
  90 0002 72B6     		CPSID   i
  91              	@ 0 "" 2
  92              		.thumb
  93 0004 4B4C     		ldr	r4, .L14
  94              		.cfi_offset 14, -4
  95              		.cfi_offset 6, -8
  96              		.cfi_offset 5, -12
  97              		.cfi_offset 4, -16
  98              		.loc 1 277 0
  99 0006 04F13005 		add	r5, r4, #48
 100              	.L8:
 101              	.LBB17:
 102              	.LBB18:
ARM GAS  C:\DOCUME~1\ADMINI~1\LOCALS~1\Temp\ccqEQrHg.s 			page 8


 103              	.LBB19:
 104              	.LBB20:
 105              		.loc 1 89 0
 106 000a 6078     		ldrb	r0, [r4, #1]	@ zero_extendqisi2
 107 000c 2178     		ldrb	r1, [r4, #0]	@ zero_extendqisi2
 108 000e 2379     		ldrb	r3, [r4, #4]	@ zero_extendqisi2
 109 0010 41EA0021 		orr	r1, r1, r0, lsl #8
 110 0014 A078     		ldrb	r0, [r4, #2]	@ zero_extendqisi2
 111 0016 6279     		ldrb	r2, [r4, #5]	@ zero_extendqisi2
 112 0018 41EA0041 		orr	r1, r1, r0, lsl #16
 113 001c E078     		ldrb	r0, [r4, #3]	@ zero_extendqisi2
 114 001e 43EA0222 		orr	r2, r3, r2, lsl #8
 115 0022 41EA0060 		orr	r0, r1, r0, lsl #24
 116 0026 0634     		adds	r4, r4, #6
 117 0028 0021     		movs	r1, #0
 118 002a FFF7FEFF 		bl	memset
 119              	.LBE20:
 120              	.LBE19:
 121              	.LBE18:
 294:.\Generated_Source\PSoC5/cyfitter_cfg.c **** #endif
 295:.\Generated_Source\PSoC5/cyfitter_cfg.c **** 
 296:.\Generated_Source\PSoC5/cyfitter_cfg.c **** 	{
 297:.\Generated_Source\PSoC5/cyfitter_cfg.c **** 		static const uint32 CYCODE cy_cfg_addr_table[] = {
 298:.\Generated_Source\PSoC5/cyfitter_cfg.c **** 			0x40004501u, /* Base address: 0x40004500 Count: 1 */
 299:.\Generated_Source\PSoC5/cyfitter_cfg.c **** 			0x40005203u, /* Base address: 0x40005200 Count: 3 */
 300:.\Generated_Source\PSoC5/cyfitter_cfg.c **** 			0x40006501u, /* Base address: 0x40006500 Count: 1 */
 301:.\Generated_Source\PSoC5/cyfitter_cfg.c **** 			0x40011501u, /* Base address: 0x40011500 Count: 1 */
 302:.\Generated_Source\PSoC5/cyfitter_cfg.c **** 			0x4001163Du, /* Base address: 0x40011600 Count: 61 */
 303:.\Generated_Source\PSoC5/cyfitter_cfg.c **** 			0x4001171Fu, /* Base address: 0x40011700 Count: 31 */
 304:.\Generated_Source\PSoC5/cyfitter_cfg.c **** 			0x40011901u, /* Base address: 0x40011900 Count: 1 */
 305:.\Generated_Source\PSoC5/cyfitter_cfg.c **** 			0x40014003u, /* Base address: 0x40014000 Count: 3 */
 306:.\Generated_Source\PSoC5/cyfitter_cfg.c **** 			0x40014102u, /* Base address: 0x40014100 Count: 2 */
 307:.\Generated_Source\PSoC5/cyfitter_cfg.c **** 			0x40014202u, /* Base address: 0x40014200 Count: 2 */
 308:.\Generated_Source\PSoC5/cyfitter_cfg.c **** 			0x40014302u, /* Base address: 0x40014300 Count: 2 */
 309:.\Generated_Source\PSoC5/cyfitter_cfg.c **** 			0x40014703u, /* Base address: 0x40014700 Count: 3 */
 310:.\Generated_Source\PSoC5/cyfitter_cfg.c **** 			0x40014803u, /* Base address: 0x40014800 Count: 3 */
 311:.\Generated_Source\PSoC5/cyfitter_cfg.c **** 			0x40014905u, /* Base address: 0x40014900 Count: 5 */
 312:.\Generated_Source\PSoC5/cyfitter_cfg.c **** 			0x40014C02u, /* Base address: 0x40014C00 Count: 2 */
 313:.\Generated_Source\PSoC5/cyfitter_cfg.c **** 			0x40015002u, /* Base address: 0x40015000 Count: 2 */
 314:.\Generated_Source\PSoC5/cyfitter_cfg.c **** 			0x40015101u, /* Base address: 0x40015100 Count: 1 */
 315:.\Generated_Source\PSoC5/cyfitter_cfg.c **** 		};
 316:.\Generated_Source\PSoC5/cyfitter_cfg.c **** 
 317:.\Generated_Source\PSoC5/cyfitter_cfg.c **** 		static const cy_cfg_addrvalue_t CYCODE cy_cfg_data_table[] = {
 318:.\Generated_Source\PSoC5/cyfitter_cfg.c **** 			{0x7Eu, 0x02u},
 319:.\Generated_Source\PSoC5/cyfitter_cfg.c **** 			{0x14u, 0x10u},
 320:.\Generated_Source\PSoC5/cyfitter_cfg.c **** 			{0x19u, 0x02u},
 321:.\Generated_Source\PSoC5/cyfitter_cfg.c **** 			{0x7Cu, 0x40u},
 322:.\Generated_Source\PSoC5/cyfitter_cfg.c **** 			{0x87u, 0x2Du},
 323:.\Generated_Source\PSoC5/cyfitter_cfg.c **** 			{0xAAu, 0x40u},
 324:.\Generated_Source\PSoC5/cyfitter_cfg.c **** 			{0x10u, 0x01u},
 325:.\Generated_Source\PSoC5/cyfitter_cfg.c **** 			{0x34u, 0x01u},
 326:.\Generated_Source\PSoC5/cyfitter_cfg.c **** 			{0x38u, 0x02u},
 327:.\Generated_Source\PSoC5/cyfitter_cfg.c **** 			{0x3Eu, 0x10u},
 328:.\Generated_Source\PSoC5/cyfitter_cfg.c **** 			{0x40u, 0x10u},
 329:.\Generated_Source\PSoC5/cyfitter_cfg.c **** 			{0x41u, 0x05u},
 330:.\Generated_Source\PSoC5/cyfitter_cfg.c **** 			{0x49u, 0xFFu},
 331:.\Generated_Source\PSoC5/cyfitter_cfg.c **** 			{0x4Au, 0xFFu},
ARM GAS  C:\DOCUME~1\ADMINI~1\LOCALS~1\Temp\ccqEQrHg.s 			page 9


 332:.\Generated_Source\PSoC5/cyfitter_cfg.c **** 			{0x4Bu, 0xFFu},
 333:.\Generated_Source\PSoC5/cyfitter_cfg.c **** 			{0x4Du, 0xA0u},
 334:.\Generated_Source\PSoC5/cyfitter_cfg.c **** 			{0x4Fu, 0x04u},
 335:.\Generated_Source\PSoC5/cyfitter_cfg.c **** 			{0x50u, 0x18u},
 336:.\Generated_Source\PSoC5/cyfitter_cfg.c **** 			{0x58u, 0x04u},
 337:.\Generated_Source\PSoC5/cyfitter_cfg.c **** 			{0x5Au, 0x04u},
 338:.\Generated_Source\PSoC5/cyfitter_cfg.c **** 			{0x5Fu, 0x01u},
 339:.\Generated_Source\PSoC5/cyfitter_cfg.c **** 			{0x60u, 0x40u},
 340:.\Generated_Source\PSoC5/cyfitter_cfg.c **** 			{0x62u, 0xC0u},
 341:.\Generated_Source\PSoC5/cyfitter_cfg.c **** 			{0x64u, 0x40u},
 342:.\Generated_Source\PSoC5/cyfitter_cfg.c **** 			{0x65u, 0x40u},
 343:.\Generated_Source\PSoC5/cyfitter_cfg.c **** 			{0x66u, 0xC0u},
 344:.\Generated_Source\PSoC5/cyfitter_cfg.c **** 			{0x68u, 0xC0u},
 345:.\Generated_Source\PSoC5/cyfitter_cfg.c **** 			{0x6Au, 0xC0u},
 346:.\Generated_Source\PSoC5/cyfitter_cfg.c **** 			{0x6Cu, 0xC0u},
 347:.\Generated_Source\PSoC5/cyfitter_cfg.c **** 			{0x6Eu, 0xC0u},
 348:.\Generated_Source\PSoC5/cyfitter_cfg.c **** 			{0x88u, 0x04u},
 349:.\Generated_Source\PSoC5/cyfitter_cfg.c **** 			{0x92u, 0x01u},
 350:.\Generated_Source\PSoC5/cyfitter_cfg.c **** 			{0x93u, 0x01u},
 351:.\Generated_Source\PSoC5/cyfitter_cfg.c **** 			{0xA4u, 0x07u},
 352:.\Generated_Source\PSoC5/cyfitter_cfg.c **** 			{0xA8u, 0x07u},
 353:.\Generated_Source\PSoC5/cyfitter_cfg.c **** 			{0xB0u, 0x01u},
 354:.\Generated_Source\PSoC5/cyfitter_cfg.c **** 			{0xB2u, 0x02u},
 355:.\Generated_Source\PSoC5/cyfitter_cfg.c **** 			{0xB6u, 0x04u},
 356:.\Generated_Source\PSoC5/cyfitter_cfg.c **** 			{0xB7u, 0x01u},
 357:.\Generated_Source\PSoC5/cyfitter_cfg.c **** 			{0xC0u, 0x10u},
 358:.\Generated_Source\PSoC5/cyfitter_cfg.c **** 			{0xC1u, 0x05u},
 359:.\Generated_Source\PSoC5/cyfitter_cfg.c **** 			{0xC5u, 0xD2u},
 360:.\Generated_Source\PSoC5/cyfitter_cfg.c **** 			{0xC7u, 0x21u},
 361:.\Generated_Source\PSoC5/cyfitter_cfg.c **** 			{0xC8u, 0x3Bu},
 362:.\Generated_Source\PSoC5/cyfitter_cfg.c **** 			{0xC9u, 0xFFu},
 363:.\Generated_Source\PSoC5/cyfitter_cfg.c **** 			{0xCAu, 0xFFu},
 364:.\Generated_Source\PSoC5/cyfitter_cfg.c **** 			{0xCBu, 0xFFu},
 365:.\Generated_Source\PSoC5/cyfitter_cfg.c **** 			{0xCDu, 0xAFu},
 366:.\Generated_Source\PSoC5/cyfitter_cfg.c **** 			{0xCEu, 0x0Fu},
 367:.\Generated_Source\PSoC5/cyfitter_cfg.c **** 			{0xCFu, 0x04u},
 368:.\Generated_Source\PSoC5/cyfitter_cfg.c **** 			{0xD0u, 0x18u},
 369:.\Generated_Source\PSoC5/cyfitter_cfg.c **** 			{0xD2u, 0x80u},
 370:.\Generated_Source\PSoC5/cyfitter_cfg.c **** 			{0xD4u, 0x25u},
 371:.\Generated_Source\PSoC5/cyfitter_cfg.c **** 			{0xD8u, 0x04u},
 372:.\Generated_Source\PSoC5/cyfitter_cfg.c **** 			{0xD9u, 0x04u},
 373:.\Generated_Source\PSoC5/cyfitter_cfg.c **** 			{0xDAu, 0x04u},
 374:.\Generated_Source\PSoC5/cyfitter_cfg.c **** 			{0xDBu, 0x04u},
 375:.\Generated_Source\PSoC5/cyfitter_cfg.c **** 			{0xDFu, 0x01u},
 376:.\Generated_Source\PSoC5/cyfitter_cfg.c **** 			{0xE0u, 0x40u},
 377:.\Generated_Source\PSoC5/cyfitter_cfg.c **** 			{0xE2u, 0xC0u},
 378:.\Generated_Source\PSoC5/cyfitter_cfg.c **** 			{0xE4u, 0x40u},
 379:.\Generated_Source\PSoC5/cyfitter_cfg.c **** 			{0xE5u, 0x40u},
 380:.\Generated_Source\PSoC5/cyfitter_cfg.c **** 			{0xE6u, 0xC0u},
 381:.\Generated_Source\PSoC5/cyfitter_cfg.c **** 			{0xE8u, 0xC0u},
 382:.\Generated_Source\PSoC5/cyfitter_cfg.c **** 			{0xEAu, 0xC0u},
 383:.\Generated_Source\PSoC5/cyfitter_cfg.c **** 			{0xECu, 0xC0u},
 384:.\Generated_Source\PSoC5/cyfitter_cfg.c **** 			{0xEEu, 0xC0u},
 385:.\Generated_Source\PSoC5/cyfitter_cfg.c **** 			{0x00u, 0x10u},
 386:.\Generated_Source\PSoC5/cyfitter_cfg.c **** 			{0x09u, 0x02u},
 387:.\Generated_Source\PSoC5/cyfitter_cfg.c **** 			{0x0Eu, 0x80u},
 388:.\Generated_Source\PSoC5/cyfitter_cfg.c **** 			{0x10u, 0x28u},
ARM GAS  C:\DOCUME~1\ADMINI~1\LOCALS~1\Temp\ccqEQrHg.s 			page 10


 389:.\Generated_Source\PSoC5/cyfitter_cfg.c **** 			{0x18u, 0x10u},
 390:.\Generated_Source\PSoC5/cyfitter_cfg.c **** 			{0x19u, 0x40u},
 391:.\Generated_Source\PSoC5/cyfitter_cfg.c **** 			{0x1Au, 0x80u},
 392:.\Generated_Source\PSoC5/cyfitter_cfg.c **** 			{0x1Cu, 0x04u},
 393:.\Generated_Source\PSoC5/cyfitter_cfg.c **** 			{0x1Eu, 0x80u},
 394:.\Generated_Source\PSoC5/cyfitter_cfg.c **** 			{0x20u, 0x01u},
 395:.\Generated_Source\PSoC5/cyfitter_cfg.c **** 			{0x21u, 0x80u},
 396:.\Generated_Source\PSoC5/cyfitter_cfg.c **** 			{0x31u, 0x02u},
 397:.\Generated_Source\PSoC5/cyfitter_cfg.c **** 			{0x40u, 0x01u},
 398:.\Generated_Source\PSoC5/cyfitter_cfg.c **** 			{0x45u, 0x80u},
 399:.\Generated_Source\PSoC5/cyfitter_cfg.c **** 			{0x49u, 0x05u},
 400:.\Generated_Source\PSoC5/cyfitter_cfg.c **** 			{0x4Au, 0x02u},
 401:.\Generated_Source\PSoC5/cyfitter_cfg.c **** 			{0x4Eu, 0x02u},
 402:.\Generated_Source\PSoC5/cyfitter_cfg.c **** 			{0x50u, 0x28u},
 403:.\Generated_Source\PSoC5/cyfitter_cfg.c **** 			{0x52u, 0x02u},
 404:.\Generated_Source\PSoC5/cyfitter_cfg.c **** 			{0x59u, 0x45u},
 405:.\Generated_Source\PSoC5/cyfitter_cfg.c **** 			{0x60u, 0x04u},
 406:.\Generated_Source\PSoC5/cyfitter_cfg.c **** 			{0x71u, 0x02u},
 407:.\Generated_Source\PSoC5/cyfitter_cfg.c **** 			{0xC0u, 0x02u},
 408:.\Generated_Source\PSoC5/cyfitter_cfg.c **** 			{0xC2u, 0x18u},
 409:.\Generated_Source\PSoC5/cyfitter_cfg.c **** 			{0xC4u, 0x06u},
 410:.\Generated_Source\PSoC5/cyfitter_cfg.c **** 			{0xCCu, 0x01u},
 411:.\Generated_Source\PSoC5/cyfitter_cfg.c **** 			{0xD0u, 0x18u},
 412:.\Generated_Source\PSoC5/cyfitter_cfg.c **** 			{0xD2u, 0x18u},
 413:.\Generated_Source\PSoC5/cyfitter_cfg.c **** 			{0xD6u, 0x0Bu},
 414:.\Generated_Source\PSoC5/cyfitter_cfg.c **** 			{0xD8u, 0x04u},
 415:.\Generated_Source\PSoC5/cyfitter_cfg.c **** 			{0xEEu, 0x0Au},
 416:.\Generated_Source\PSoC5/cyfitter_cfg.c **** 			{0xEEu, 0x0Au},
 417:.\Generated_Source\PSoC5/cyfitter_cfg.c **** 			{0x33u, 0x80u},
 418:.\Generated_Source\PSoC5/cyfitter_cfg.c **** 			{0x36u, 0x40u},
 419:.\Generated_Source\PSoC5/cyfitter_cfg.c **** 			{0xCCu, 0x30u},
 420:.\Generated_Source\PSoC5/cyfitter_cfg.c **** 			{0xA6u, 0x40u},
 421:.\Generated_Source\PSoC5/cyfitter_cfg.c **** 			{0xA7u, 0x80u},
 422:.\Generated_Source\PSoC5/cyfitter_cfg.c **** 			{0xA6u, 0x40u},
 423:.\Generated_Source\PSoC5/cyfitter_cfg.c **** 			{0xA7u, 0x80u},
 424:.\Generated_Source\PSoC5/cyfitter_cfg.c **** 			{0xA6u, 0x40u},
 425:.\Generated_Source\PSoC5/cyfitter_cfg.c **** 			{0xA7u, 0x80u},
 426:.\Generated_Source\PSoC5/cyfitter_cfg.c **** 			{0x08u, 0x08u},
 427:.\Generated_Source\PSoC5/cyfitter_cfg.c **** 			{0x0Fu, 0x40u},
 428:.\Generated_Source\PSoC5/cyfitter_cfg.c **** 			{0xC2u, 0x0Cu},
 429:.\Generated_Source\PSoC5/cyfitter_cfg.c **** 			{0xAEu, 0x40u},
 430:.\Generated_Source\PSoC5/cyfitter_cfg.c **** 			{0xAFu, 0x80u},
 431:.\Generated_Source\PSoC5/cyfitter_cfg.c **** 			{0xEEu, 0x50u},
 432:.\Generated_Source\PSoC5/cyfitter_cfg.c **** 			{0x5Bu, 0x40u},
 433:.\Generated_Source\PSoC5/cyfitter_cfg.c **** 			{0x9Bu, 0x40u},
 434:.\Generated_Source\PSoC5/cyfitter_cfg.c **** 			{0xABu, 0x40u},
 435:.\Generated_Source\PSoC5/cyfitter_cfg.c **** 			{0xD4u, 0x80u},
 436:.\Generated_Source\PSoC5/cyfitter_cfg.c **** 			{0xEEu, 0x80u},
 437:.\Generated_Source\PSoC5/cyfitter_cfg.c **** 			{0xACu, 0x08u},
 438:.\Generated_Source\PSoC5/cyfitter_cfg.c **** 			{0xAFu, 0x40u},
 439:.\Generated_Source\PSoC5/cyfitter_cfg.c **** 			{0x10u, 0x01u},
 440:.\Generated_Source\PSoC5/cyfitter_cfg.c **** 			{0x1Au, 0x01u},
 441:.\Generated_Source\PSoC5/cyfitter_cfg.c **** 			{0x00u, 0x0Au},
 442:.\Generated_Source\PSoC5/cyfitter_cfg.c **** 		};
 443:.\Generated_Source\PSoC5/cyfitter_cfg.c **** 
 444:.\Generated_Source\PSoC5/cyfitter_cfg.c **** 
 445:.\Generated_Source\PSoC5/cyfitter_cfg.c **** 
ARM GAS  C:\DOCUME~1\ADMINI~1\LOCALS~1\Temp\ccqEQrHg.s 			page 11


 446:.\Generated_Source\PSoC5/cyfitter_cfg.c **** 		typedef struct {
 447:.\Generated_Source\PSoC5/cyfitter_cfg.c **** 			void CYFAR *address;
 448:.\Generated_Source\PSoC5/cyfitter_cfg.c **** 			uint16 size;
 449:.\Generated_Source\PSoC5/cyfitter_cfg.c **** 		} CYPACKED cfg_memset_t;
 450:.\Generated_Source\PSoC5/cyfitter_cfg.c **** 
 451:.\Generated_Source\PSoC5/cyfitter_cfg.c **** 		static const cfg_memset_t CYCODE cfg_memset_list [] = {
 452:.\Generated_Source\PSoC5/cyfitter_cfg.c **** 			/* address, size */
 453:.\Generated_Source\PSoC5/cyfitter_cfg.c **** 			{(void CYFAR *)(CYREG_PRT0_DR), 32u},
 454:.\Generated_Source\PSoC5/cyfitter_cfg.c **** 			{(void CYFAR *)(CYREG_PRT4_DR), 48u},
 455:.\Generated_Source\PSoC5/cyfitter_cfg.c **** 			{(void CYFAR *)(CYREG_PRT12_DR), 16u},
 456:.\Generated_Source\PSoC5/cyfitter_cfg.c **** 			{(void CYFAR *)(CYDEV_UCFG_B0_P0_U0_BASE), 4096u},
 457:.\Generated_Source\PSoC5/cyfitter_cfg.c **** 			{(void CYFAR *)(CYDEV_UCFG_B1_P2_U0_BASE), 2048u},
 458:.\Generated_Source\PSoC5/cyfitter_cfg.c **** 			{(void CYFAR *)(CYDEV_UCFG_DSI0_BASE), 2560u},
 459:.\Generated_Source\PSoC5/cyfitter_cfg.c **** 			{(void CYFAR *)(CYDEV_UCFG_DSI12_BASE), 512u},
 460:.\Generated_Source\PSoC5/cyfitter_cfg.c **** 			{(void CYFAR *)(CYREG_BCTL0_MDCLK_EN), 32u},
 461:.\Generated_Source\PSoC5/cyfitter_cfg.c **** 		};
 462:.\Generated_Source\PSoC5/cyfitter_cfg.c **** 
 463:.\Generated_Source\PSoC5/cyfitter_cfg.c **** 		uint8 CYDATA i;
 464:.\Generated_Source\PSoC5/cyfitter_cfg.c **** 
 465:.\Generated_Source\PSoC5/cyfitter_cfg.c **** 		/* Zero out critical memory blocks before beginning configuration */
 466:.\Generated_Source\PSoC5/cyfitter_cfg.c **** 		for (i = 0u; i < (sizeof(cfg_memset_list)/sizeof(cfg_memset_list[0])); i++)
 122              		.loc 1 466 0
 123 002e AC42     		cmp	r4, r5
 124 0030 EBD1     		bne	.L8
 125 0032 0025     		movs	r5, #0
 126 0034 2A46     		mov	r2, r5
 127              	.LVL4:
 128              	.L11:
 129              	.LBB21:
 130              	.LBB22:
 131              	.LBB23:
 132              		.loc 1 139 0
 133 0036 404B     		ldr	r3, .L14+4
 134 0038 5859     		ldr	r0, [r3, r5]
 135              	.LVL5:
 136              		.loc 1 141 0
 137 003a 4433     		adds	r3, r3, #68
 138              		.loc 1 140 0
 139 003c C1B2     		uxtb	r1, r0
 140              	.LVL6:
 141              		.loc 1 141 0
 142 003e 03EB4203 		add	r3, r3, r2, lsl #1
 143 0042 20F0FF00 		bic	r0, r0, #255
 144              	.LVL7:
 145 0046 0C46     		mov	r4, r1
 146 0048 07E0     		b	.L9
 147              	.LVL8:
 148              	.L10:
 149              		.loc 1 144 0
 150 004a 13F802CC 		ldrb	ip, [r3, #-2]	@ zero_extendqisi2
 151 004e 13F801EC 		ldrb	lr, [r3, #-1]	@ zero_extendqisi2
 152              		.loc 1 146 0
 153 0052 013C     		subs	r4, r4, #1
 154              	.LVL9:
 155              		.loc 1 144 0
 156 0054 0CF800E0 		strb	lr, [ip, r0]
 157              		.loc 1 146 0
ARM GAS  C:\DOCUME~1\ADMINI~1\LOCALS~1\Temp\ccqEQrHg.s 			page 12


 158 0058 E4B2     		uxtb	r4, r4
 159              	.LVL10:
 160              	.L9:
 161 005a 0233     		adds	r3, r3, #2
 162              		.loc 1 142 0
 163 005c 002C     		cmp	r4, #0
 164 005e F4D1     		bne	.L10
 165 0060 0435     		adds	r5, r5, #4
 166 0062 5218     		adds	r2, r2, r1
 167              	.LBE23:
 168              		.loc 1 137 0
 169 0064 442D     		cmp	r5, #68
 170 0066 E6D1     		bne	.L11
 171              	.LVL11:
 172              	.LBE22:
 173              	.LBE21:
 467:.\Generated_Source\PSoC5/cyfitter_cfg.c **** 		{
 468:.\Generated_Source\PSoC5/cyfitter_cfg.c **** 			const cfg_memset_t CYCODE * CYDATA ms = &cfg_memset_list[i];
 469:.\Generated_Source\PSoC5/cyfitter_cfg.c **** 			CYMEMZERO(ms->address, (uint32)(ms->size));
 470:.\Generated_Source\PSoC5/cyfitter_cfg.c **** 		}
 471:.\Generated_Source\PSoC5/cyfitter_cfg.c **** 
 472:.\Generated_Source\PSoC5/cyfitter_cfg.c **** 		cfg_write_bytes32(cy_cfg_addr_table, cy_cfg_data_table);
 473:.\Generated_Source\PSoC5/cyfitter_cfg.c **** 
 474:.\Generated_Source\PSoC5/cyfitter_cfg.c **** 		/* Enable digital routing */
 475:.\Generated_Source\PSoC5/cyfitter_cfg.c **** 		CY_SET_XTND_REG8((void CYFAR *)CYREG_BCTL0_BANK_CTL, CY_GET_XTND_REG8((void CYFAR *)CYREG_BCTL0_B
 174              		.loc 1 475 0
 175 0068 344B     		ldr	r3, .L14+8
 476:.\Generated_Source\PSoC5/cyfitter_cfg.c **** 		CY_SET_XTND_REG8((void CYFAR *)CYREG_BCTL1_BANK_CTL, CY_GET_XTND_REG8((void CYFAR *)CYREG_BCTL1_B
 477:.\Generated_Source\PSoC5/cyfitter_cfg.c **** 
 478:.\Generated_Source\PSoC5/cyfitter_cfg.c **** 		/* Enable UDB array */
 479:.\Generated_Source\PSoC5/cyfitter_cfg.c **** 		CY_SET_XTND_REG8((void CYFAR *)CYREG_PM_ACT_CFG0, CY_GET_XTND_REG8((void CYFAR *)CYREG_PM_ACT_CFG
 176              		.loc 1 479 0
 177 006a 354E     		ldr	r6, .L14+12
 178              		.loc 1 475 0
 179 006c 1A78     		ldrb	r2, [r3, #0]	@ zero_extendqisi2
 180              	.LVL12:
 181              	.LBE17:
 480:.\Generated_Source\PSoC5/cyfitter_cfg.c **** 		CY_SET_XTND_REG8((void CYFAR *)CYREG_PM_AVAIL_CR2, CY_GET_XTND_REG8((void CYFAR *)CYREG_PM_AVAIL_
 481:.\Generated_Source\PSoC5/cyfitter_cfg.c **** 	}
 482:.\Generated_Source\PSoC5/cyfitter_cfg.c **** 
 483:.\Generated_Source\PSoC5/cyfitter_cfg.c **** 	/* Perform second pass device configuration. These items must be configured in specific order afte
 484:.\Generated_Source\PSoC5/cyfitter_cfg.c **** 	CYCONFIGCPYCODE((void CYFAR *)(CYREG_PRT15_DR), (const void CYCODE *)(BS_IOPINS0_8_VAL), 10u);
 182              		.loc 1 484 0
 183 006e 3548     		ldr	r0, .L14+16
 184              	.LVL13:
 185              	.LBB24:
 186              		.loc 1 475 0
 187 0070 42F00202 		orr	r2, r2, #2
 188 0074 1A70     		strb	r2, [r3, #0]
 189              		.loc 1 476 0
 190 0076 1033     		adds	r3, r3, #16
 191 0078 1A78     		ldrb	r2, [r3, #0]	@ zero_extendqisi2
 192              	.LBE24:
 193              		.loc 1 484 0
 194 007a 3349     		ldr	r1, .L14+20
 195              	.LVL14:
 196              	.LBB25:
ARM GAS  C:\DOCUME~1\ADMINI~1\LOCALS~1\Temp\ccqEQrHg.s 			page 13


 197              		.loc 1 476 0
 198 007c 42F00202 		orr	r2, r2, #2
 199 0080 1A70     		strb	r2, [r3, #0]
 200              		.loc 1 479 0
 201 0082 3378     		ldrb	r3, [r6, #0]	@ zero_extendqisi2
 202 0084 43F04003 		orr	r3, r3, #64
 203 0088 3370     		strb	r3, [r6, #0]
 204              		.loc 1 480 0
 205 008a 304B     		ldr	r3, .L14+24
 206 008c 1A78     		ldrb	r2, [r3, #0]	@ zero_extendqisi2
 207 008e 42F01002 		orr	r2, r2, #16
 208 0092 1A70     		strb	r2, [r3, #0]
 209              	.LBE25:
 210              		.loc 1 484 0
 211 0094 0A22     		movs	r2, #10
 212 0096 FFF7FEFF 		bl	CYCONFIGCPYCODE
 485:.\Generated_Source\PSoC5/cyfitter_cfg.c **** 	CYCONFIGCPYCODE((void CYFAR *)(CYREG_PRT2_DR), (const void CYCODE *)(BS_IOPINS0_2_VAL), 10u);
 213              		.loc 1 485 0
 214 009a 0A22     		movs	r2, #10
 215 009c 2C48     		ldr	r0, .L14+28
 216 009e 2D49     		ldr	r1, .L14+32
 217 00a0 FFF7FEFF 		bl	CYCONFIGCPYCODE
 486:.\Generated_Source\PSoC5/cyfitter_cfg.c **** 	CYCONFIGCPYCODE((void CYFAR *)(CYREG_PRT3_DM0), (const void CYCODE *)(BS_IOPINS0_3_VAL), 8u);
 218              		.loc 1 486 0
 219 00a4 0822     		movs	r2, #8
 220 00a6 2C48     		ldr	r0, .L14+36
 221 00a8 2C49     		ldr	r1, .L14+40
 222 00aa FFF7FEFF 		bl	CYCONFIGCPYCODE
 487:.\Generated_Source\PSoC5/cyfitter_cfg.c **** 
 488:.\Generated_Source\PSoC5/cyfitter_cfg.c **** 	/* Switch Boost to the precision bandgap reference from its internal reference */
 489:.\Generated_Source\PSoC5/cyfitter_cfg.c **** 	CY_SET_REG8((void CYXDATA *)CYDEV_BOOST_CR2, (CY_GET_REG8((void CYXDATA *)CYDEV_BOOST_CR2) | 0x08u
 223              		.loc 1 489 0
 224 00ae 2C4B     		ldr	r3, .L14+44
 225              	.LBB26:
 226              	.LBB28:
 227              		.loc 1 173 0
 228 00b0 4FF00301 		mov	r1, #3	@ movhi
 229              	.LBE28:
 230              	.LBE26:
 231              		.loc 1 489 0
 232 00b4 1A78     		ldrb	r2, [r3, #0]	@ zero_extendqisi2
 233              	.LBB31:
 234              	.LBB29:
 235              		.loc 1 187 0
 236 00b6 4820     		movs	r0, #72
 237              	.LBE29:
 238              	.LBE31:
 239              		.loc 1 489 0
 240 00b8 42F00802 		orr	r2, r2, #8
 241 00bc 1A70     		strb	r2, [r3, #0]
 490:.\Generated_Source\PSoC5/cyfitter_cfg.c **** 
 491:.\Generated_Source\PSoC5/cyfitter_cfg.c **** 	/* Set Flash Cycles based on max possible frequency in case a glitch occurs during ClockSetup(). *
 492:.\Generated_Source\PSoC5/cyfitter_cfg.c **** 	CY_SET_XTND_REG8((void CYFAR *)(CYREG_CACHE_CC_CTL), (((CYDEV_INSTRUCT_CACHE_ENABLED) != 0) ? 0x01
 242              		.loc 1 492 0
 243 00be 294A     		ldr	r2, .L14+48
 244 00c0 0123     		movs	r3, #1
 245 00c2 1370     		strb	r3, [r2, #0]
ARM GAS  C:\DOCUME~1\ADMINI~1\LOCALS~1\Temp\ccqEQrHg.s 			page 14


 246              	.LBB32:
 247              	.LBB27:
 248              		.loc 1 173 0
 249 00c4 284B     		ldr	r3, .L14+52
 250 00c6 1980     		strh	r1, [r3, #0]	@ movhi
 251              		.loc 1 174 0
 252 00c8 1B21     		movs	r1, #27
 253 00ca 0233     		adds	r3, r3, #2
 254 00cc 1970     		strb	r1, [r3, #0]
 255              		.loc 1 177 0
 256 00ce 274B     		ldr	r3, .L14+56
 257 00d0 1539     		subs	r1, r1, #21
 258 00d2 1970     		strb	r1, [r3, #0]
 259              		.loc 1 180 0
 260 00d4 264B     		ldr	r3, .L14+60
 261 00d6 4C31     		adds	r1, r1, #76
 262 00d8 1970     		strb	r1, [r3, #0]
 263              		.loc 1 181 0
 264 00da 264B     		ldr	r3, .L14+64
 265 00dc 1978     		ldrb	r1, [r3, #0]	@ zero_extendqisi2
 266 00de 264B     		ldr	r3, .L14+68
 267 00e0 1970     		strb	r1, [r3, #0]
 268              		.loc 1 184 0
 269 00e2 264B     		ldr	r3, .L14+72
 270              		.loc 1 185 0
 271 00e4 0721     		movs	r1, #7
 272              		.loc 1 184 0
 273 00e6 1C80     		strh	r4, [r3, #0]	@ movhi
 274              		.loc 1 185 0
 275 00e8 1970     		strb	r1, [r3, #0]
 276              		.loc 1 186 0
 277 00ea 2549     		ldr	r1, .L14+76
 278 00ec 0C70     		strb	r4, [r1, #0]
 279              	.LVL15:
 280              		.loc 1 187 0
 281 00ee 0231     		adds	r1, r1, #2
 282 00f0 0870     		strb	r0, [r1, #0]
 283              		.loc 1 188 0
 284 00f2 1C70     		strb	r4, [r3, #0]
 285              	.LVL16:
 286              		.loc 1 191 0
 287 00f4 0533     		adds	r3, r3, #5
 288 00f6 1C70     		strb	r4, [r3, #0]
 289              		.loc 1 192 0
 290 00f8 0221     		movs	r1, #2
 291 00fa 083B     		subs	r3, r3, #8
 292 00fc 1970     		strb	r1, [r3, #0]
 293              		.loc 1 194 0
 294 00fe 214B     		ldr	r3, .L14+80
 295              	.LBE27:
 296              	.LBE32:
 297              	.LBB33:
 298              	.LBB35:
 299              		.loc 1 96 0
 300 0100 2148     		ldr	r0, .L14+84
 301              	.LBE35:
 302              	.LBE33:
ARM GAS  C:\DOCUME~1\ADMINI~1\LOCALS~1\Temp\ccqEQrHg.s 			page 15


 303              	.LBB37:
 304              	.LBB30:
 305              		.loc 1 194 0
 306 0102 1978     		ldrb	r1, [r3, #0]	@ zero_extendqisi2
 307 0104 41F00101 		orr	r1, r1, #1
 308 0108 1970     		strb	r1, [r3, #0]
 309              	.LBE30:
 310              	.LBE37:
 493:.\Generated_Source\PSoC5/cyfitter_cfg.c **** 	/* Setup clocks based on selections from Clock DWR */
 494:.\Generated_Source\PSoC5/cyfitter_cfg.c **** 	ClockSetup();
 495:.\Generated_Source\PSoC5/cyfitter_cfg.c **** 	/* Set Flash Cycles based on newly configured 24.00MHz Bus Clock. */
 496:.\Generated_Source\PSoC5/cyfitter_cfg.c **** 	CY_SET_XTND_REG8((void CYFAR *)(CYREG_CACHE_CC_CTL), (((CYDEV_INSTRUCT_CACHE_ENABLED) != 0) ? 0x81
 311              		.loc 1 496 0
 312 010a 6FF07E03 		mvn	r3, #126
 313 010e 1370     		strb	r3, [r2, #0]
 314              	.LBB38:
 315              	.LBB39:
 316              		.loc 1 219 0
 317 0110 1E4B     		ldr	r3, .L14+88
 318              		.loc 1 220 0
 319 0112 1F4A     		ldr	r2, .L14+92
 320              		.loc 1 219 0
 321 0114 1B78     		ldrb	r3, [r3, #0]	@ zero_extendqisi2
 322              		.loc 1 220 0
 323 0116 03F00701 		and	r1, r3, #7
 324              	.LVL17:
 325 011a 1170     		strb	r1, [r2, #0]
 326              		.loc 1 221 0
 327 011c 1B09     		lsrs	r3, r3, #4
 328              	.LVL18:
 329 011e 0132     		adds	r2, r2, #1
 330 0120 1370     		strb	r3, [r2, #0]
 331              		.loc 1 222 0
 332 0122 1C4B     		ldr	r3, .L14+96
 333              	.LBE39:
 334              	.LBE38:
 335              	.LBB41:
 336              	.LBB34:
 337              		.loc 1 96 0
 338 0124 3146     		mov	r1, r6
 339 0126 0E22     		movs	r2, #14
 340              	.LBE34:
 341              	.LBE41:
 342              	.LBB42:
 343              	.LBB40:
 344              		.loc 1 222 0
 345 0128 1D70     		strb	r5, [r3, #0]
 346              	.LBE40:
 347              	.LBE42:
 497:.\Generated_Source\PSoC5/cyfitter_cfg.c **** 
 498:.\Generated_Source\PSoC5/cyfitter_cfg.c **** 	/* Perform basic analog initialization to defaults */
 499:.\Generated_Source\PSoC5/cyfitter_cfg.c **** 	AnalogSetDefault();
 500:.\Generated_Source\PSoC5/cyfitter_cfg.c **** 
 501:.\Generated_Source\PSoC5/cyfitter_cfg.c **** 	/* Configure alternate active mode */
 502:.\Generated_Source\PSoC5/cyfitter_cfg.c **** 	CYCONFIGCPY((void CYFAR *)CYDEV_PM_STBY_BASE, (const void CYFAR *)CYDEV_PM_ACT_BASE, 14u);
 503:.\Generated_Source\PSoC5/cyfitter_cfg.c **** }
 348              		.loc 1 503 0
ARM GAS  C:\DOCUME~1\ADMINI~1\LOCALS~1\Temp\ccqEQrHg.s 			page 16


 349 012a BDE87040 		pop	{r4, r5, r6, lr}
 350              	.LBB43:
 351              	.LBB36:
 352              		.loc 1 96 0
 353 012e FFF7FEBF 		b	memcpy
 354              	.L15:
 355 0132 00BF     		.align	2
 356              	.L14:
 357 0134 00000000 		.word	.LANCHOR0
 358 0138 30000000 		.word	.LANCHOR0+48
 359 013c 03500140 		.word	1073827843
 360 0140 A0430040 		.word	1073759136
 361 0144 F0510040 		.word	1073762800
 362 0148 6C010000 		.word	.LANCHOR0+364
 363 014c C2430040 		.word	1073759170
 364 0150 20510040 		.word	1073762592
 365 0154 78010000 		.word	.LANCHOR0+376
 366 0158 32510040 		.word	1073762610
 367 015c 84010000 		.word	.LANCHOR0+388
 368 0160 22430040 		.word	1073759010
 369 0164 00480040 		.word	1073760256
 370 0168 80400040 		.word	1073758336
 371 016c 00430040 		.word	1073758976
 372 0170 00420040 		.word	1073758720
 373 0174 0F010049 		.word	1224737039
 374 0178 A1460040 		.word	1073759905
 375 017c 04400040 		.word	1073758212
 376 0180 06400040 		.word	1073758214
 377 0184 A2430040 		.word	1073759138
 378 0188 B0430040 		.word	1073759152
 379 018c CF010049 		.word	1224737231
 380 0190 6E580040 		.word	1073764462
 381 0194 76580040 		.word	1073764470
 382              	.LBE36:
 383              	.LBE43:
 384              		.cfi_endproc
 385              	.LFE7:
 386              		.size	cyfitter_cfg, .-cyfitter_cfg
 387              		.section	.rodata
 388              		.align	2
 389              		.set	.LANCHOR0,. + 0
 390              		.type	cfg_memset_list.2057, %object
 391              		.size	cfg_memset_list.2057, 48
 392              	cfg_memset_list.2057:
 393 0000 00510040 		.word	1073762560
 394 0004 2000     		.short	32
 395 0006 40510040 		.4byte	1073762624
 396 000a 3000     		.short	48
 397 000c C0510040 		.word	1073762752
 398 0010 1000     		.short	16
 399 0012 00000140 		.4byte	1073807360
 400 0016 0010     		.short	4096
 401 0018 00140140 		.word	1073812480
 402 001c 0008     		.short	2048
 403 001e 00400140 		.4byte	1073823744
 404 0022 000A     		.short	2560
 405 0024 004C0140 		.word	1073826816
ARM GAS  C:\DOCUME~1\ADMINI~1\LOCALS~1\Temp\ccqEQrHg.s 			page 17


 406 0028 0002     		.short	512
 407 002a 00500140 		.4byte	1073827840
 408 002e 2000     		.short	32
 409              		.type	cy_cfg_addr_table.2051, %object
 410              		.size	cy_cfg_addr_table.2051, 68
 411              	cy_cfg_addr_table.2051:
 412 0030 01450040 		.word	1073759489
 413 0034 03520040 		.word	1073762819
 414 0038 01650040 		.word	1073767681
 415 003c 01150140 		.word	1073812737
 416 0040 3D160140 		.word	1073813053
 417 0044 1F170140 		.word	1073813279
 418 0048 01190140 		.word	1073813761
 419 004c 03400140 		.word	1073823747
 420 0050 02410140 		.word	1073824002
 421 0054 02420140 		.word	1073824258
 422 0058 02430140 		.word	1073824514
 423 005c 03470140 		.word	1073825539
 424 0060 03480140 		.word	1073825795
 425 0064 05490140 		.word	1073826053
 426 0068 024C0140 		.word	1073826818
 427 006c 02500140 		.word	1073827842
 428 0070 01510140 		.word	1073828097
 429              		.type	cy_cfg_data_table.2052, %object
 430              		.size	cy_cfg_data_table.2052, 248
 431              	cy_cfg_data_table.2052:
 432 0074 7E       		.byte	126
 433 0075 02       		.byte	2
 434 0076 14       		.byte	20
 435 0077 10       		.byte	16
 436 0078 19       		.byte	25
 437 0079 02       		.byte	2
 438 007a 7C       		.byte	124
 439 007b 40       		.byte	64
 440 007c 87       		.byte	-121
 441 007d 2D       		.byte	45
 442 007e AA       		.byte	-86
 443 007f 40       		.byte	64
 444 0080 10       		.byte	16
 445 0081 01       		.byte	1
 446 0082 34       		.byte	52
 447 0083 01       		.byte	1
 448 0084 38       		.byte	56
 449 0085 02       		.byte	2
 450 0086 3E       		.byte	62
 451 0087 10       		.byte	16
 452 0088 40       		.byte	64
 453 0089 10       		.byte	16
 454 008a 41       		.byte	65
 455 008b 05       		.byte	5
 456 008c 49       		.byte	73
 457 008d FF       		.byte	-1
 458 008e 4A       		.byte	74
 459 008f FF       		.byte	-1
 460 0090 4B       		.byte	75
 461 0091 FF       		.byte	-1
 462 0092 4D       		.byte	77
ARM GAS  C:\DOCUME~1\ADMINI~1\LOCALS~1\Temp\ccqEQrHg.s 			page 18


 463 0093 A0       		.byte	-96
 464 0094 4F       		.byte	79
 465 0095 04       		.byte	4
 466 0096 50       		.byte	80
 467 0097 18       		.byte	24
 468 0098 58       		.byte	88
 469 0099 04       		.byte	4
 470 009a 5A       		.byte	90
 471 009b 04       		.byte	4
 472 009c 5F       		.byte	95
 473 009d 01       		.byte	1
 474 009e 60       		.byte	96
 475 009f 40       		.byte	64
 476 00a0 62       		.byte	98
 477 00a1 C0       		.byte	-64
 478 00a2 64       		.byte	100
 479 00a3 40       		.byte	64
 480 00a4 65       		.byte	101
 481 00a5 40       		.byte	64
 482 00a6 66       		.byte	102
 483 00a7 C0       		.byte	-64
 484 00a8 68       		.byte	104
 485 00a9 C0       		.byte	-64
 486 00aa 6A       		.byte	106
 487 00ab C0       		.byte	-64
 488 00ac 6C       		.byte	108
 489 00ad C0       		.byte	-64
 490 00ae 6E       		.byte	110
 491 00af C0       		.byte	-64
 492 00b0 88       		.byte	-120
 493 00b1 04       		.byte	4
 494 00b2 92       		.byte	-110
 495 00b3 01       		.byte	1
 496 00b4 93       		.byte	-109
 497 00b5 01       		.byte	1
 498 00b6 A4       		.byte	-92
 499 00b7 07       		.byte	7
 500 00b8 A8       		.byte	-88
 501 00b9 07       		.byte	7
 502 00ba B0       		.byte	-80
 503 00bb 01       		.byte	1
 504 00bc B2       		.byte	-78
 505 00bd 02       		.byte	2
 506 00be B6       		.byte	-74
 507 00bf 04       		.byte	4
 508 00c0 B7       		.byte	-73
 509 00c1 01       		.byte	1
 510 00c2 C0       		.byte	-64
 511 00c3 10       		.byte	16
 512 00c4 C1       		.byte	-63
 513 00c5 05       		.byte	5
 514 00c6 C5       		.byte	-59
 515 00c7 D2       		.byte	-46
 516 00c8 C7       		.byte	-57
 517 00c9 21       		.byte	33
 518 00ca C8       		.byte	-56
 519 00cb 3B       		.byte	59
ARM GAS  C:\DOCUME~1\ADMINI~1\LOCALS~1\Temp\ccqEQrHg.s 			page 19


 520 00cc C9       		.byte	-55
 521 00cd FF       		.byte	-1
 522 00ce CA       		.byte	-54
 523 00cf FF       		.byte	-1
 524 00d0 CB       		.byte	-53
 525 00d1 FF       		.byte	-1
 526 00d2 CD       		.byte	-51
 527 00d3 AF       		.byte	-81
 528 00d4 CE       		.byte	-50
 529 00d5 0F       		.byte	15
 530 00d6 CF       		.byte	-49
 531 00d7 04       		.byte	4
 532 00d8 D0       		.byte	-48
 533 00d9 18       		.byte	24
 534 00da D2       		.byte	-46
 535 00db 80       		.byte	-128
 536 00dc D4       		.byte	-44
 537 00dd 25       		.byte	37
 538 00de D8       		.byte	-40
 539 00df 04       		.byte	4
 540 00e0 D9       		.byte	-39
 541 00e1 04       		.byte	4
 542 00e2 DA       		.byte	-38
 543 00e3 04       		.byte	4
 544 00e4 DB       		.byte	-37
 545 00e5 04       		.byte	4
 546 00e6 DF       		.byte	-33
 547 00e7 01       		.byte	1
 548 00e8 E0       		.byte	-32
 549 00e9 40       		.byte	64
 550 00ea E2       		.byte	-30
 551 00eb C0       		.byte	-64
 552 00ec E4       		.byte	-28
 553 00ed 40       		.byte	64
 554 00ee E5       		.byte	-27
 555 00ef 40       		.byte	64
 556 00f0 E6       		.byte	-26
 557 00f1 C0       		.byte	-64
 558 00f2 E8       		.byte	-24
 559 00f3 C0       		.byte	-64
 560 00f4 EA       		.byte	-22
 561 00f5 C0       		.byte	-64
 562 00f6 EC       		.byte	-20
 563 00f7 C0       		.byte	-64
 564 00f8 EE       		.byte	-18
 565 00f9 C0       		.byte	-64
 566 00fa 00       		.byte	0
 567 00fb 10       		.byte	16
 568 00fc 09       		.byte	9
 569 00fd 02       		.byte	2
 570 00fe 0E       		.byte	14
 571 00ff 80       		.byte	-128
 572 0100 10       		.byte	16
 573 0101 28       		.byte	40
 574 0102 18       		.byte	24
 575 0103 10       		.byte	16
 576 0104 19       		.byte	25
ARM GAS  C:\DOCUME~1\ADMINI~1\LOCALS~1\Temp\ccqEQrHg.s 			page 20


 577 0105 40       		.byte	64
 578 0106 1A       		.byte	26
 579 0107 80       		.byte	-128
 580 0108 1C       		.byte	28
 581 0109 04       		.byte	4
 582 010a 1E       		.byte	30
 583 010b 80       		.byte	-128
 584 010c 20       		.byte	32
 585 010d 01       		.byte	1
 586 010e 21       		.byte	33
 587 010f 80       		.byte	-128
 588 0110 31       		.byte	49
 589 0111 02       		.byte	2
 590 0112 40       		.byte	64
 591 0113 01       		.byte	1
 592 0114 45       		.byte	69
 593 0115 80       		.byte	-128
 594 0116 49       		.byte	73
 595 0117 05       		.byte	5
 596 0118 4A       		.byte	74
 597 0119 02       		.byte	2
 598 011a 4E       		.byte	78
 599 011b 02       		.byte	2
 600 011c 50       		.byte	80
 601 011d 28       		.byte	40
 602 011e 52       		.byte	82
 603 011f 02       		.byte	2
 604 0120 59       		.byte	89
 605 0121 45       		.byte	69
 606 0122 60       		.byte	96
 607 0123 04       		.byte	4
 608 0124 71       		.byte	113
 609 0125 02       		.byte	2
 610 0126 C0       		.byte	-64
 611 0127 02       		.byte	2
 612 0128 C2       		.byte	-62
 613 0129 18       		.byte	24
 614 012a C4       		.byte	-60
 615 012b 06       		.byte	6
 616 012c CC       		.byte	-52
 617 012d 01       		.byte	1
 618 012e D0       		.byte	-48
 619 012f 18       		.byte	24
 620 0130 D2       		.byte	-46
 621 0131 18       		.byte	24
 622 0132 D6       		.byte	-42
 623 0133 0B       		.byte	11
 624 0134 D8       		.byte	-40
 625 0135 04       		.byte	4
 626 0136 EE       		.byte	-18
 627 0137 0A       		.byte	10
 628 0138 EE       		.byte	-18
 629 0139 0A       		.byte	10
 630 013a 33       		.byte	51
 631 013b 80       		.byte	-128
 632 013c 36       		.byte	54
 633 013d 40       		.byte	64
ARM GAS  C:\DOCUME~1\ADMINI~1\LOCALS~1\Temp\ccqEQrHg.s 			page 21


 634 013e CC       		.byte	-52
 635 013f 30       		.byte	48
 636 0140 A6       		.byte	-90
 637 0141 40       		.byte	64
 638 0142 A7       		.byte	-89
 639 0143 80       		.byte	-128
 640 0144 A6       		.byte	-90
 641 0145 40       		.byte	64
 642 0146 A7       		.byte	-89
 643 0147 80       		.byte	-128
 644 0148 A6       		.byte	-90
 645 0149 40       		.byte	64
 646 014a A7       		.byte	-89
 647 014b 80       		.byte	-128
 648 014c 08       		.byte	8
 649 014d 08       		.byte	8
 650 014e 0F       		.byte	15
 651 014f 40       		.byte	64
 652 0150 C2       		.byte	-62
 653 0151 0C       		.byte	12
 654 0152 AE       		.byte	-82
 655 0153 40       		.byte	64
 656 0154 AF       		.byte	-81
 657 0155 80       		.byte	-128
 658 0156 EE       		.byte	-18
 659 0157 50       		.byte	80
 660 0158 5B       		.byte	91
 661 0159 40       		.byte	64
 662 015a 9B       		.byte	-101
 663 015b 40       		.byte	64
 664 015c AB       		.byte	-85
 665 015d 40       		.byte	64
 666 015e D4       		.byte	-44
 667 015f 80       		.byte	-128
 668 0160 EE       		.byte	-18
 669 0161 80       		.byte	-128
 670 0162 AC       		.byte	-84
 671 0163 08       		.byte	8
 672 0164 AF       		.byte	-81
 673 0165 40       		.byte	64
 674 0166 10       		.byte	16
 675 0167 01       		.byte	1
 676 0168 1A       		.byte	26
 677 0169 01       		.byte	1
 678 016a 00       		.byte	0
 679 016b 0A       		.byte	10
 680              		.type	BS_IOPINS0_8_VAL.2048, %object
 681              		.size	BS_IOPINS0_8_VAL.2048, 10
 682              	BS_IOPINS0_8_VAL.2048:
 683 016c 00       		.byte	0
 684 016d 00       		.byte	0
 685 016e 00       		.byte	0
 686 016f 00       		.byte	0
 687 0170 00       		.byte	0
 688 0171 00       		.byte	0
 689 0172 00       		.byte	0
 690 0173 00       		.byte	0
ARM GAS  C:\DOCUME~1\ADMINI~1\LOCALS~1\Temp\ccqEQrHg.s 			page 22


 691 0174 C0       		.byte	-64
 692 0175 00       		.byte	0
 693 0176 0000     		.space	2
 694              		.type	BS_IOPINS0_2_VAL.2049, %object
 695              		.size	BS_IOPINS0_2_VAL.2049, 10
 696              	BS_IOPINS0_2_VAL.2049:
 697 0178 10       		.byte	16
 698 0179 00       		.byte	0
 699 017a 10       		.byte	16
 700 017b 00       		.byte	0
 701 017c 00       		.byte	0
 702 017d 00       		.byte	0
 703 017e 00       		.byte	0
 704 017f 00       		.byte	0
 705 0180 00       		.byte	0
 706 0181 00       		.byte	0
 707 0182 0000     		.space	2
 708              		.type	BS_IOPINS0_3_VAL.2050, %object
 709              		.size	BS_IOPINS0_3_VAL.2050, 8
 710              	BS_IOPINS0_3_VAL.2050:
 711 0184 00       		.byte	0
 712 0185 02       		.byte	2
 713 0186 02       		.byte	2
 714 0187 00       		.byte	0
 715 0188 02       		.byte	2
 716 0189 00       		.byte	0
 717 018a 00       		.byte	0
 718 018b 00       		.byte	0
 719              		.text
 720              	.Letext0: