ARM GAS  C:\DOCUME~1\ADMINI~1\LOCALS~1\Temp\ccrHJVzv.s 			page 1


   1              		.syntax unified
   2              		.cpu cortex-m3
   3              		.fpu softvfp
   4              		.eabi_attribute 20, 1
   5              		.eabi_attribute 21, 1
   6              		.eabi_attribute 23, 3
   7              		.eabi_attribute 24, 1
   8              		.eabi_attribute 25, 1
   9              		.eabi_attribute 26, 1
  10              		.eabi_attribute 30, 4
  11              		.eabi_attribute 18, 4
  12              		.thumb
  13              		.file	"main.c"
  20 0000 94000000 		.text
  20      02005300 
  20      00000201 
  20      FB0E0D00 
  20      01010101 
  21              	.Ltext0:
  22              		.cfi_sections	.debug_frame
  23              		.section	.text.ValidateBootloader,"ax",%progbits
  24              		.align	1
  25              		.global	ValidateBootloader
  26              		.thumb
  27              		.thumb_func
  28              		.type	ValidateBootloader, %function
  29              	ValidateBootloader:
  30              	.LFB30:
  31              		.file 1 ".\\main.c"
   1:.\main.c      **** /*****************************************************************************
   2:.\main.c      **** * File Name: main.c
   3:.\main.c      **** * Version 2.02
   4:.\main.c      **** *
   5:.\main.c      **** * Description:
   6:.\main.c      **** *  This file provides the source code to handle bootloader for PSoC 5LP.
   7:.\main.c      **** *
   8:.\main.c      **** * Owner:
   9:.\main.c      **** *	Anu MD, Applications Engineer Senior (anmd@cypress.com)
  10:.\main.c      **** *
  11:.\main.c      **** * Related Document:
  12:.\main.c      **** * 	001-85925 - CY8CKIT-042 PSoC 4 Pioneer Kit IROS
  13:.\main.c      **** *
  14:.\main.c      **** * Hardware Dependency:
  15:.\main.c      **** * 	CY8CKIT-042 (KitProg) 
  16:.\main.c      **** *
  17:.\main.c      **** * Code Tested With:
  18:.\main.c      **** * 	Creator 2.2
  19:.\main.c      **** *	GCC1 4.4.1
  20:.\main.c      **** *	CY8CKIT-042 Rev 1
  21:.\main.c      **** *
  22:.\main.c      **** ******************************************************************************
ARM GAS  C:\DOCUME~1\ADMINI~1\LOCALS~1\Temp\ccrHJVzv.s 			page 2


  23:.\main.c      **** * Copyright (2013), Cypress Semiconductor Corporation.
  24:.\main.c      **** ******************************************************************************
  25:.\main.c      **** * This software is owned by Cypress Semiconductor Corporation (Cypress) and is
  26:.\main.c      **** * protected by and subject to worldwide patent protection (United States and
  27:.\main.c      **** * foreign), United States copyright laws and international treaty provisions.
  28:.\main.c      **** * Cypress hereby grants to licensee a personal, non-exclusive, non-transferable
  29:.\main.c      **** * license to copy, use, modify, create derivative works of, and compile the
  30:.\main.c      **** * Cypress Source Code and derivative works for the sole purpose of creating
  31:.\main.c      **** * custom software in support of licensee product to be used only in conjunction
  32:.\main.c      **** * with a Cypress integrated circuit as specified in the applicable agreement.
  33:.\main.c      **** * Any reproduction, modification, translation, compilation, or representation of
  34:.\main.c      **** * this software except as specified above is prohibited without the express
  35:.\main.c      **** * written permission of Cypress.
  36:.\main.c      **** *
  37:.\main.c      **** * Disclaimer: CYPRESS MAKES NO WARRANTY OF ANY KIND, EXPRESS OR IMPLIED, WITH
  38:.\main.c      **** * REGARD TO THIS MATERIAL, INCLUDING, BUT NOT LIMITED TO, THE IMPLIED
  39:.\main.c      **** * WARRANTIES OF MERCHANTABILITY AND FITNESS FOR A PARTICULAR PURPOSE.
  40:.\main.c      **** * Cypress reserves the right to make changes without further notice to the
  41:.\main.c      **** * materials described herein. Cypress does not assume any liability arising out
  42:.\main.c      **** * of the application or use of any product or circuit described herein. Cypress
  43:.\main.c      **** * does not authorize its products for use as critical components in life-support
  44:.\main.c      **** * systems where a malfunction or failure may reasonably be expected to result in
  45:.\main.c      **** * significant injury to the user. The inclusion of Cypress' product in a life-
  46:.\main.c      **** * support systems application implies that the manufacturer assumes all risk of
  47:.\main.c      **** * such use and in doing so indemnifies Cypress against all charges. Use may be
  48:.\main.c      **** * limited by and subject to the applicable Cypress software license agreement.
  49:.\main.c      **** *****************************************************************************/
  50:.\main.c      **** #include <device.h>
  51:.\main.c      **** #include "Bootloader.h"
  52:.\main.c      **** 
  53:.\main.c      **** /* Defines for Bootloader checksum validation */
  54:.\main.c      **** #define Bootloader_BL_LAST_ROW            (*Bootloader_MD_PTR_LAST_BLDR_ROW    )
  55:.\main.c      **** #define Bootloader_FLASH_NUMBER_SECTORS   (CY_FLASH_NUMBER_ARRAYS)
  56:.\main.c      **** #define Bootloader_CHECKSUM_START         0    /* The bootloader always starts at 0 in flash */
  57:.\main.c      **** #define Bootloader_FROW_SIZE          ((CYDEV_FLS_ROW_SIZE) + (CYDEV_ECC_ROW_SIZE))
  58:.\main.c      **** 
  59:.\main.c      **** /* Function Delaration */
  60:.\main.c      **** void ValidateBootloader(void);
  61:.\main.c      **** uint8   Bootloader_Calc8BitFlashSum(uint32 start, uint32 size) CYSMALL ;
  62:.\main.c      **** 
  63:.\main.c      **** void main()
  64:.\main.c      **** {
  65:.\main.c      **** 	uint16 counter = 0;
  66:.\main.c      **** 
  67:.\main.c      **** 	/* Check the validity of bootloader by verifying the Bootloader checksum */
  68:.\main.c      **** 	ValidateBootloader();
  69:.\main.c      **** 	
  70:.\main.c      **** 	/* Initialize PWM component for LED status control*/
  71:.\main.c      ****     PWM_Init();
  72:.\main.c      **** 
  73:.\main.c      **** 	/* If the there is a valid application, check if PSoC 4 reset switch is pressed for more than 100m
  74:.\main.c      **** 	 * If yes, blink the LED slowly(ON Time = 1.5s, OFF Time = 1.5s) to indicate that the device is in
  75:.\main.c      **** 	if(Bootloader_ValidateApplication() == CYRET_SUCCESS)
  76:.\main.c      **** 	{
  77:.\main.c      **** 		/* If PSoC 4A XRES pin is pulled low during reset */
  78:.\main.c      **** 		if(Pin_PSoC4A_XRES_Read() == 0)
  79:.\main.c      **** 		{
ARM GAS  C:\DOCUME~1\ADMINI~1\LOCALS~1\Temp\ccrHJVzv.s 			page 3


  80:.\main.c      **** 			for(counter = 0; counter <= 100; counter++)
  81:.\main.c      **** 			{
  82:.\main.c      **** 				CyDelay(1);
  83:.\main.c      **** 				
  84:.\main.c      **** 				/* If the swicth is released before specified time, do not enter bootloader */
  85:.\main.c      **** 				if(Pin_PSoC4A_XRES_Read() != 0)
  86:.\main.c      **** 					break;
  87:.\main.c      **** 			}
  88:.\main.c      **** 						 
  89:.\main.c      **** 			/* If the reset switch was pressed for more than 100 millisecond counter value will be 100 
  90:.\main.c      **** 			 * If so, set the flash run type as bootloader to wait for a bootload operation */
  91:.\main.c      **** 			if(counter >= 100)
  92:.\main.c      **** 			{
  93:.\main.c      **** 				/* Set the reset SR0 switch to indicate the */
  94:.\main.c      **** 				Bootloader_SET_RUN_TYPE (Bootloader_START_BTLDR);
  95:.\main.c      **** 				
  96:.\main.c      **** 				/*Indicate that you have entered the bootloader mode.*/
  97:.\main.c      **** 				PWM_WritePeriod(30000);
  98:.\main.c      **** 				PWM_WriteCompare(15000);
  99:.\main.c      **** 			}
 100:.\main.c      **** 		}
 101:.\main.c      **** 	}
 102:.\main.c      **** 	else
 103:.\main.c      **** 	{
 104:.\main.c      **** 		/* If the application is not valid 
 105:.\main.c      **** 		 * Blink the LED very fast (ON Time = 0.25s, OFF Time = 0.25s)*/
 106:.\main.c      **** 		PWM_WritePeriod(5000);
 107:.\main.c      **** 		PWM_WriteCompare(2500);
 108:.\main.c      **** 	}
 109:.\main.c      **** 	/* Enable the PWM */
 110:.\main.c      **** 	PWM_Enable();
 111:.\main.c      **** 
 112:.\main.c      **** 	/* Start Bootloader */
 113:.\main.c      **** 	Bootloader_Start();
 114:.\main.c      ****     for(;;)
 115:.\main.c      ****     {
 116:.\main.c      ****         
 117:.\main.c      ****     }
 118:.\main.c      **** }
 119:.\main.c      **** 
 120:.\main.c      **** /*******************************************************************************
 121:.\main.c      **** * Function Name: ValidateBootloader
 122:.\main.c      **** ********************************************************************************
 123:.\main.c      **** *
 124:.\main.c      **** * Summary:
 125:.\main.c      **** *  Function to validate the bootloader bye verifying the bootloader checksum. 
 126:.\main.c      **** *  The CPU execution is halted if Bootloader is not valid.
 127:.\main.c      **** *
 128:.\main.c      **** * Parameters:
 129:.\main.c      **** *  None
 130:.\main.c      **** *
 131:.\main.c      **** * Return:
 132:.\main.c      **** *  None
 133:.\main.c      **** *
 134:.\main.c      **** *******************************************************************************/
 135:.\main.c      **** void ValidateBootloader(void)
 136:.\main.c      **** {
ARM GAS  C:\DOCUME~1\ADMINI~1\LOCALS~1\Temp\ccrHJVzv.s 			page 4


  32              		.loc 1 136 0
  33              		.cfi_startproc
  34              		@ args = 0, pretend = 0, frame = 0
  35              		@ frame_needed = 0, uses_anonymous_args = 0
 137:.\main.c      ****     extern uint8  *Bootloader_ChecksumAccess;
 138:.\main.c      **** 	extern uint32 *Bootloader_SizeBytesAccess;
 139:.\main.c      **** 	uint8 CYDATA calcedChecksum;
 140:.\main.c      **** 	calcedChecksum = Bootloader_Calc8BitFlashSum(Bootloader_CHECKSUM_START,
  36              		.loc 1 140 0
  37 0000 094B     		ldr	r3, .L5
  38 0002 0020     		movs	r0, #0
  39 0004 1B68     		ldr	r3, [r3, #0]
  40              		.loc 1 136 0
  41 0006 10B5     		push	{r4, lr}
  42              	.LCFI0:
  43              		.cfi_def_cfa_offset 8
  44              		.loc 1 140 0
  45 0008 1968     		ldr	r1, [r3, #0]
  46              		.cfi_offset 14, -4
  47              		.cfi_offset 4, -8
  48 000a FFF7FEFF 		bl	Bootloader_Calc8BitFlashSum
 141:.\main.c      ****                 	*Bootloader_SizeBytesAccess - Bootloader_CHECKSUM_START);
 142:.\main.c      **** 
 143:.\main.c      **** 	/* we actually included the checksum, so remove it */
 144:.\main.c      **** 	calcedChecksum -= *Bootloader_ChecksumAccess;
  49              		.loc 1 144 0
  50 000e 074B     		ldr	r3, .L5+4
  51 0010 1B68     		ldr	r3, [r3, #0]
  52 0012 1B78     		ldrb	r3, [r3, #0]	@ zero_extendqisi2
 145:.\main.c      **** 	calcedChecksum = 1 + ~calcedChecksum;
  53              		.loc 1 145 0
  54 0014 181A     		subs	r0, r3, r0
 146:.\main.c      **** 
 147:.\main.c      **** 	/* Halt device if bootloader application is invalid */
 148:.\main.c      **** 	if((calcedChecksum != *Bootloader_ChecksumAccess))
  55              		.loc 1 148 0
  56 0016 C0B2     		uxtb	r0, r0
  57 0018 9842     		cmp	r0, r3
  58 001a 04D0     		beq	.L3
 149:.\main.c      **** 	{
 150:.\main.c      **** 	    CyHalt(0x00u);
  59              		.loc 1 150 0
  60 001c 0020     		movs	r0, #0
 151:.\main.c      **** 	}
 152:.\main.c      **** }
  61              		.loc 1 152 0
  62 001e BDE81040 		pop	{r4, lr}
  63              		.loc 1 150 0
  64 0022 FFF7FEBF 		b	CyHalt
  65              	.L3:
  66 0026 10BD     		pop	{r4, pc}
  67              	.L6:
  68              		.align	2
  69              	.L5:
  70 0028 00000000 		.word	Bootloader_SizeBytesAccess
  71 002c 00000000 		.word	Bootloader_ChecksumAccess
  72              		.cfi_endproc
ARM GAS  C:\DOCUME~1\ADMINI~1\LOCALS~1\Temp\ccrHJVzv.s 			page 5


  73              	.LFE30:
  74              		.size	ValidateBootloader, .-ValidateBootloader
  75              		.section	.text.main,"ax",%progbits
  76              		.align	1
  77              		.global	main
  78              		.thumb
  79              		.thumb_func
  80              		.type	main, %function
  81              	main:
  82              	.LFB29:
  83              		.loc 1 64 0
  84              		.cfi_startproc
  85              		@ args = 0, pretend = 0, frame = 0
  86              		@ frame_needed = 0, uses_anonymous_args = 0
  87 0000 10B5     		push	{r4, lr}
  88              	.LCFI1:
  89              		.cfi_def_cfa_offset 8
  90              		.loc 1 68 0
  91              		.cfi_offset 14, -4
  92              		.cfi_offset 4, -8
  93 0002 FFF7FEFF 		bl	ValidateBootloader
  94              		.loc 1 71 0
  95 0006 FFF7FEFF 		bl	PWM_Init
  96              		.loc 1 75 0
  97 000a FFF7FEFF 		bl	Bootloader_ValidateApplication
  98 000e D0B9     		cbnz	r0, .L8
  99              		.loc 1 78 0
 100 0010 FFF7FEFF 		bl	Pin_PSoC4A_XRES_Read
 101 0014 0446     		mov	r4, r0
 102 0016 F0B9     		cbnz	r0, .L9
 103              	.LVL0:
 104              	.L11:
 105              		.loc 1 82 0
 106 0018 0120     		movs	r0, #1
 107 001a FFF7FEFF 		bl	CyDelay
 108              		.loc 1 85 0
 109 001e FFF7FEFF 		bl	Pin_PSoC4A_XRES_Read
 110 0022 20B9     		cbnz	r0, .L10
 111              		.loc 1 80 0
 112 0024 0134     		adds	r4, r4, #1
 113              	.LVL1:
 114 0026 A4B2     		uxth	r4, r4
 115              	.LVL2:
 116 0028 652C     		cmp	r4, #101
 117 002a F5D1     		bne	.L11
 118 002c 01E0     		b	.L12
 119              	.L10:
 120              		.loc 1 91 0
 121 002e 632C     		cmp	r4, #99
 122 0030 11D9     		bls	.L9
 123              	.L12:
 124              		.loc 1 94 0
 125 0032 0B4B     		ldr	r3, .L16
 126 0034 4022     		movs	r2, #64
 127              		.loc 1 97 0
 128 0036 47F23050 		movw	r0, #30000
 129              		.loc 1 94 0
ARM GAS  C:\DOCUME~1\ADMINI~1\LOCALS~1\Temp\ccrHJVzv.s 			page 6


 130 003a 1A70     		strb	r2, [r3, #0]
 131              		.loc 1 97 0
 132 003c FFF7FEFF 		bl	PWM_WritePeriod
 133              		.loc 1 98 0
 134 0040 43F69820 		movw	r0, #15000
 135 0044 05E0     		b	.L15
 136              	.LVL3:
 137              	.L8:
 138              		.loc 1 106 0
 139 0046 41F28830 		movw	r0, #5000
 140 004a FFF7FEFF 		bl	PWM_WritePeriod
 141              		.loc 1 107 0
 142 004e 40F6C410 		movw	r0, #2500
 143              	.LVL4:
 144              	.L15:
 145 0052 FFF7FEFF 		bl	PWM_WriteCompare
 146              	.L9:
 147              		.loc 1 110 0
 148 0056 FFF7FEFF 		bl	PWM_Enable
 149              		.loc 1 113 0
 150 005a FFF7FEFF 		bl	Bootloader_Start
 151              	.L13:
 152 005e FEE7     		b	.L13
 153              	.L17:
 154              		.align	2
 155              	.L16:
 156 0060 FA460040 		.word	1073759994
 157              		.cfi_endproc
 158              	.LFE29:
 159              		.size	main, .-main
 160              		.text
 161              	.Letext0: