ARM GAS  C:\DOCUME~1\ADMINI~1\LOCALS~1\Temp\cc5aLqRr.s 			page 1


   1              		.syntax unified
   2              		.cpu cortex-m3
   3              		.fpu softvfp
   4              		.eabi_attribute 20, 1
   5              		.eabi_attribute 21, 1
   6              		.eabi_attribute 23, 3
   7              		.eabi_attribute 24, 1
   8              		.eabi_attribute 25, 1
   9              		.eabi_attribute 26, 1
  10              		.eabi_attribute 30, 4
  11              		.eabi_attribute 18, 4
  12              		.thumb
  13              		.file	"PWM_PM.c"
  20 0000 CC000000 		.text
  20      02006800 
  20      00000201 
  20      FB0E0D00 
  20      01010101 
  21              	.Ltext0:
  22              		.cfi_sections	.debug_frame
  23              		.section	.text.PWM_RestoreConfig,"ax",%progbits
  24              		.align	1
  25              		.global	PWM_RestoreConfig
  26              		.thumb
  27              		.thumb_func
  28              		.type	PWM_RestoreConfig, %function
  29              	PWM_RestoreConfig:
  30              	.LFB1:
  31              		.file 1 ".\\Generated_Source\\PSoC5\\PWM_PM.c"
   1:.\Generated_Source\PSoC5/PWM_PM.c **** /*******************************************************************************
   2:.\Generated_Source\PSoC5/PWM_PM.c **** * File Name: PWM_PM.c
   3:.\Generated_Source\PSoC5/PWM_PM.c **** * Version 2.40
   4:.\Generated_Source\PSoC5/PWM_PM.c **** *
   5:.\Generated_Source\PSoC5/PWM_PM.c **** * Description:
   6:.\Generated_Source\PSoC5/PWM_PM.c **** *  This file provides the power management source code to API for the
   7:.\Generated_Source\PSoC5/PWM_PM.c **** *  PWM.
   8:.\Generated_Source\PSoC5/PWM_PM.c **** *
   9:.\Generated_Source\PSoC5/PWM_PM.c **** * Note:
  10:.\Generated_Source\PSoC5/PWM_PM.c **** *
  11:.\Generated_Source\PSoC5/PWM_PM.c **** ********************************************************************************
  12:.\Generated_Source\PSoC5/PWM_PM.c **** * Copyright 2008-2012, Cypress Semiconductor Corporation.  All rights reserved.
  13:.\Generated_Source\PSoC5/PWM_PM.c **** * You may use this file only in accordance with the license, terms, conditions,
  14:.\Generated_Source\PSoC5/PWM_PM.c **** * disclaimers, and limitations in the end user license agreement accompanying
  15:.\Generated_Source\PSoC5/PWM_PM.c **** * the software package with which this file was provided.
  16:.\Generated_Source\PSoC5/PWM_PM.c **** *******************************************************************************/
  17:.\Generated_Source\PSoC5/PWM_PM.c **** #include "cytypes.h"
  18:.\Generated_Source\PSoC5/PWM_PM.c **** #include "PWM.h"
  19:.\Generated_Source\PSoC5/PWM_PM.c **** 
  20:.\Generated_Source\PSoC5/PWM_PM.c **** static PWM_backupStruct PWM_backup;
  21:.\Generated_Source\PSoC5/PWM_PM.c **** 
  22:.\Generated_Source\PSoC5/PWM_PM.c **** 
ARM GAS  C:\DOCUME~1\ADMINI~1\LOCALS~1\Temp\cc5aLqRr.s 			page 2


  23:.\Generated_Source\PSoC5/PWM_PM.c **** /*******************************************************************************
  24:.\Generated_Source\PSoC5/PWM_PM.c **** * Function Name: PWM_SaveConfig
  25:.\Generated_Source\PSoC5/PWM_PM.c **** ********************************************************************************
  26:.\Generated_Source\PSoC5/PWM_PM.c **** *
  27:.\Generated_Source\PSoC5/PWM_PM.c **** * Summary:
  28:.\Generated_Source\PSoC5/PWM_PM.c **** *  Saves the current user configuration of the component.
  29:.\Generated_Source\PSoC5/PWM_PM.c **** *  
  30:.\Generated_Source\PSoC5/PWM_PM.c **** * Parameters:  
  31:.\Generated_Source\PSoC5/PWM_PM.c **** *  None
  32:.\Generated_Source\PSoC5/PWM_PM.c **** *
  33:.\Generated_Source\PSoC5/PWM_PM.c **** * Return: 
  34:.\Generated_Source\PSoC5/PWM_PM.c **** *  None
  35:.\Generated_Source\PSoC5/PWM_PM.c **** *
  36:.\Generated_Source\PSoC5/PWM_PM.c **** * Global variables:
  37:.\Generated_Source\PSoC5/PWM_PM.c **** *  PWM_backup:  Variables of this global structure are modified to 
  38:.\Generated_Source\PSoC5/PWM_PM.c **** *  store the values of non retention configuration registers when Sleep() API is 
  39:.\Generated_Source\PSoC5/PWM_PM.c **** *  called.
  40:.\Generated_Source\PSoC5/PWM_PM.c **** *
  41:.\Generated_Source\PSoC5/PWM_PM.c **** *******************************************************************************/
  42:.\Generated_Source\PSoC5/PWM_PM.c **** void PWM_SaveConfig(void) 
  43:.\Generated_Source\PSoC5/PWM_PM.c **** {
  44:.\Generated_Source\PSoC5/PWM_PM.c ****     
  45:.\Generated_Source\PSoC5/PWM_PM.c ****     #if(!PWM_UsingFixedFunction)
  46:.\Generated_Source\PSoC5/PWM_PM.c ****         #if (CY_UDB_V0)
  47:.\Generated_Source\PSoC5/PWM_PM.c ****             PWM_backup.PWMUdb = PWM_ReadCounter();
  48:.\Generated_Source\PSoC5/PWM_PM.c ****             PWM_backup.PWMPeriod = PWM_ReadPeriod();
  49:.\Generated_Source\PSoC5/PWM_PM.c ****             #if (PWM_UseStatus)
  50:.\Generated_Source\PSoC5/PWM_PM.c ****                 PWM_backup.InterruptMaskValue = PWM_STATUS_MASK;
  51:.\Generated_Source\PSoC5/PWM_PM.c ****             #endif /* (PWM_UseStatus) */
  52:.\Generated_Source\PSoC5/PWM_PM.c ****             
  53:.\Generated_Source\PSoC5/PWM_PM.c ****             #if(PWM_UseOneCompareMode)
  54:.\Generated_Source\PSoC5/PWM_PM.c ****                 PWM_backup.PWMCompareValue = PWM_ReadCompare();
  55:.\Generated_Source\PSoC5/PWM_PM.c ****             #else
  56:.\Generated_Source\PSoC5/PWM_PM.c ****                 PWM_backup.PWMCompareValue1 = PWM_ReadCompare1();
  57:.\Generated_Source\PSoC5/PWM_PM.c ****                 PWM_backup.PWMCompareValue2 = PWM_ReadCompare2();
  58:.\Generated_Source\PSoC5/PWM_PM.c ****             #endif /* (PWM_UseOneCompareMode) */
  59:.\Generated_Source\PSoC5/PWM_PM.c ****             
  60:.\Generated_Source\PSoC5/PWM_PM.c ****            #if(PWM_DeadBandUsed)
  61:.\Generated_Source\PSoC5/PWM_PM.c ****                 PWM_backup.PWMdeadBandValue = PWM_ReadDeadTime();
  62:.\Generated_Source\PSoC5/PWM_PM.c ****             #endif /* (PWM_DeadBandUsed) */
  63:.\Generated_Source\PSoC5/PWM_PM.c ****           
  64:.\Generated_Source\PSoC5/PWM_PM.c ****             #if ( PWM_KillModeMinTime)
  65:.\Generated_Source\PSoC5/PWM_PM.c ****                 PWM_backup.PWMKillCounterPeriod = PWM_ReadKillTime();
  66:.\Generated_Source\PSoC5/PWM_PM.c ****             #endif /* ( PWM_KillModeMinTime) */
  67:.\Generated_Source\PSoC5/PWM_PM.c ****         #endif /* (CY_UDB_V0) */
  68:.\Generated_Source\PSoC5/PWM_PM.c ****         
  69:.\Generated_Source\PSoC5/PWM_PM.c ****         #if (CY_UDB_V1)
  70:.\Generated_Source\PSoC5/PWM_PM.c ****             #if(!PWM_PWMModeIsCenterAligned)
  71:.\Generated_Source\PSoC5/PWM_PM.c ****                 PWM_backup.PWMPeriod = PWM_ReadPeriod();
  72:.\Generated_Source\PSoC5/PWM_PM.c ****             #endif /* (!PWM_PWMModeIsCenterAligned) */
  73:.\Generated_Source\PSoC5/PWM_PM.c ****             PWM_backup.PWMUdb = PWM_ReadCounter();
  74:.\Generated_Source\PSoC5/PWM_PM.c ****             #if (PWM_UseStatus)
  75:.\Generated_Source\PSoC5/PWM_PM.c ****                 PWM_backup.InterruptMaskValue = PWM_STATUS_MASK;
  76:.\Generated_Source\PSoC5/PWM_PM.c ****             #endif /* (PWM_UseStatus) */
  77:.\Generated_Source\PSoC5/PWM_PM.c ****             
  78:.\Generated_Source\PSoC5/PWM_PM.c ****             #if(PWM_DeadBandMode == PWM__B_PWM__DBM_256_CLOCKS || \
  79:.\Generated_Source\PSoC5/PWM_PM.c ****                 PWM_DeadBandMode == PWM__B_PWM__DBM_2_4_CLOCKS)
ARM GAS  C:\DOCUME~1\ADMINI~1\LOCALS~1\Temp\cc5aLqRr.s 			page 3


  80:.\Generated_Source\PSoC5/PWM_PM.c ****                 PWM_backup.PWMdeadBandValue = PWM_ReadDeadTime();
  81:.\Generated_Source\PSoC5/PWM_PM.c ****             #endif /*  deadband count is either 2-4 clocks or 256 clocks */
  82:.\Generated_Source\PSoC5/PWM_PM.c ****             
  83:.\Generated_Source\PSoC5/PWM_PM.c ****             #if(PWM_KillModeMinTime)
  84:.\Generated_Source\PSoC5/PWM_PM.c ****                  PWM_backup.PWMKillCounterPeriod = PWM_ReadKillTime();
  85:.\Generated_Source\PSoC5/PWM_PM.c ****             #endif /* (PWM_KillModeMinTime) */
  86:.\Generated_Source\PSoC5/PWM_PM.c ****         #endif /* (CY_UDB_V1) */
  87:.\Generated_Source\PSoC5/PWM_PM.c ****         
  88:.\Generated_Source\PSoC5/PWM_PM.c ****         #if(PWM_UseControl)
  89:.\Generated_Source\PSoC5/PWM_PM.c ****             PWM_backup.PWMControlRegister = PWM_ReadControlRegister();
  90:.\Generated_Source\PSoC5/PWM_PM.c ****         #endif /* (PWM_UseControl) */
  91:.\Generated_Source\PSoC5/PWM_PM.c ****     #endif  /* (!PWM_UsingFixedFunction) */
  92:.\Generated_Source\PSoC5/PWM_PM.c **** }
  93:.\Generated_Source\PSoC5/PWM_PM.c **** 
  94:.\Generated_Source\PSoC5/PWM_PM.c **** 
  95:.\Generated_Source\PSoC5/PWM_PM.c **** /*******************************************************************************
  96:.\Generated_Source\PSoC5/PWM_PM.c **** * Function Name: PWM_RestoreConfig
  97:.\Generated_Source\PSoC5/PWM_PM.c **** ********************************************************************************
  98:.\Generated_Source\PSoC5/PWM_PM.c **** * 
  99:.\Generated_Source\PSoC5/PWM_PM.c **** * Summary:
 100:.\Generated_Source\PSoC5/PWM_PM.c **** *  Restores the current user configuration of the component.
 101:.\Generated_Source\PSoC5/PWM_PM.c **** *
 102:.\Generated_Source\PSoC5/PWM_PM.c **** * Parameters:  
 103:.\Generated_Source\PSoC5/PWM_PM.c **** *  None
 104:.\Generated_Source\PSoC5/PWM_PM.c **** *
 105:.\Generated_Source\PSoC5/PWM_PM.c **** * Return: 
 106:.\Generated_Source\PSoC5/PWM_PM.c **** *  None
 107:.\Generated_Source\PSoC5/PWM_PM.c **** *
 108:.\Generated_Source\PSoC5/PWM_PM.c **** * Global variables:
 109:.\Generated_Source\PSoC5/PWM_PM.c **** *  PWM_backup:  Variables of this global structure are used to  
 110:.\Generated_Source\PSoC5/PWM_PM.c **** *  restore the values of non retention registers on wakeup from sleep mode.
 111:.\Generated_Source\PSoC5/PWM_PM.c **** *
 112:.\Generated_Source\PSoC5/PWM_PM.c **** *******************************************************************************/
 113:.\Generated_Source\PSoC5/PWM_PM.c **** void PWM_RestoreConfig(void) 
 114:.\Generated_Source\PSoC5/PWM_PM.c **** {
  32              		.loc 1 114 0
  33              		.cfi_startproc
  34              		@ args = 0, pretend = 0, frame = 0
  35              		@ frame_needed = 0, uses_anonymous_args = 0
  36 0000 10B5     		push	{r4, lr}
  37              	.LCFI0:
  38              		.cfi_def_cfa_offset 8
 115:.\Generated_Source\PSoC5/PWM_PM.c ****         #if(!PWM_UsingFixedFunction)
 116:.\Generated_Source\PSoC5/PWM_PM.c ****             #if (CY_UDB_V0)
 117:.\Generated_Source\PSoC5/PWM_PM.c ****                 /* Interrupt State Backup for Critical Region*/
 118:.\Generated_Source\PSoC5/PWM_PM.c ****                 uint8 PWM_interruptState;
 119:.\Generated_Source\PSoC5/PWM_PM.c ****                 /* Enter Critical Region*/
 120:.\Generated_Source\PSoC5/PWM_PM.c ****                 PWM_interruptState = CyEnterCriticalSection();
 121:.\Generated_Source\PSoC5/PWM_PM.c ****                 #if (PWM_UseStatus)
 122:.\Generated_Source\PSoC5/PWM_PM.c ****                     /* Use the interrupt output of the status register for IRQ output */
 123:.\Generated_Source\PSoC5/PWM_PM.c ****                     PWM_STATUS_AUX_CTRL |= PWM_STATUS_ACTL_INT_EN_MASK;
 124:.\Generated_Source\PSoC5/PWM_PM.c ****                     
 125:.\Generated_Source\PSoC5/PWM_PM.c ****                     PWM_STATUS_MASK = PWM_backup.InterruptMaskValue;
 126:.\Generated_Source\PSoC5/PWM_PM.c ****                 #endif /* (PWM_UseStatus) */
 127:.\Generated_Source\PSoC5/PWM_PM.c ****                 
 128:.\Generated_Source\PSoC5/PWM_PM.c ****                 #if (PWM_Resolution == 8)
 129:.\Generated_Source\PSoC5/PWM_PM.c ****                     /* Set FIFO 0 to 1 byte register for period*/
ARM GAS  C:\DOCUME~1\ADMINI~1\LOCALS~1\Temp\cc5aLqRr.s 			page 4


 130:.\Generated_Source\PSoC5/PWM_PM.c ****                     PWM_AUX_CONTROLDP0 |= (PWM_AUX_CTRL_FIFO0_CLR);
 131:.\Generated_Source\PSoC5/PWM_PM.c ****                 #else /* (PWM_Resolution == 16)*/
 132:.\Generated_Source\PSoC5/PWM_PM.c ****                     /* Set FIFO 0 to 1 byte register for period */
 133:.\Generated_Source\PSoC5/PWM_PM.c ****                     PWM_AUX_CONTROLDP0 |= (PWM_AUX_CTRL_FIFO0_CLR);
 134:.\Generated_Source\PSoC5/PWM_PM.c ****                     PWM_AUX_CONTROLDP1 |= (PWM_AUX_CTRL_FIFO0_CLR);
 135:.\Generated_Source\PSoC5/PWM_PM.c ****                 #endif /* (PWM_Resolution == 8) */
 136:.\Generated_Source\PSoC5/PWM_PM.c ****                 /* Exit Critical Region*/
 137:.\Generated_Source\PSoC5/PWM_PM.c ****                 CyExitCriticalSection(PWM_interruptState);
 138:.\Generated_Source\PSoC5/PWM_PM.c ****                 
 139:.\Generated_Source\PSoC5/PWM_PM.c ****                 PWM_WriteCounter(PWM_backup.PWMUdb);
 140:.\Generated_Source\PSoC5/PWM_PM.c ****                 PWM_WritePeriod(PWM_backup.PWMPeriod);
 141:.\Generated_Source\PSoC5/PWM_PM.c ****                 
 142:.\Generated_Source\PSoC5/PWM_PM.c ****                 #if(PWM_UseOneCompareMode)
 143:.\Generated_Source\PSoC5/PWM_PM.c ****                     PWM_WriteCompare(PWM_backup.PWMCompareValue);
 144:.\Generated_Source\PSoC5/PWM_PM.c ****                 #else
 145:.\Generated_Source\PSoC5/PWM_PM.c ****                     PWM_WriteCompare1(PWM_backup.PWMCompareValue1);
 146:.\Generated_Source\PSoC5/PWM_PM.c ****                     PWM_WriteCompare2(PWM_backup.PWMCompareValue2);
 147:.\Generated_Source\PSoC5/PWM_PM.c ****                 #endif /* (PWM_UseOneCompareMode) */
 148:.\Generated_Source\PSoC5/PWM_PM.c ****                 
 149:.\Generated_Source\PSoC5/PWM_PM.c ****                #if(PWM_DeadBandMode == PWM__B_PWM__DBM_256_CLOCKS || \
 150:.\Generated_Source\PSoC5/PWM_PM.c ****                    PWM_DeadBandMode == PWM__B_PWM__DBM_2_4_CLOCKS)
 151:.\Generated_Source\PSoC5/PWM_PM.c ****                     PWM_WriteDeadTime(PWM_backup.PWMdeadBandValue);
 152:.\Generated_Source\PSoC5/PWM_PM.c ****                 #endif /* deadband count is either 2-4 clocks or 256 clocks */
 153:.\Generated_Source\PSoC5/PWM_PM.c ****             
 154:.\Generated_Source\PSoC5/PWM_PM.c ****                 #if ( PWM_KillModeMinTime)
 155:.\Generated_Source\PSoC5/PWM_PM.c ****                     PWM_WriteKillTime(PWM_backup.PWMKillCounterPeriod);
 156:.\Generated_Source\PSoC5/PWM_PM.c ****                 #endif /* ( PWM_KillModeMinTime) */
 157:.\Generated_Source\PSoC5/PWM_PM.c ****             #endif /* (CY_UDB_V0) */
 158:.\Generated_Source\PSoC5/PWM_PM.c ****             
 159:.\Generated_Source\PSoC5/PWM_PM.c ****             #if (CY_UDB_V1)
 160:.\Generated_Source\PSoC5/PWM_PM.c ****                 #if(!PWM_PWMModeIsCenterAligned)
 161:.\Generated_Source\PSoC5/PWM_PM.c ****                     PWM_WritePeriod(PWM_backup.PWMPeriod);
  39              		.loc 1 161 0
  40 0002 074C     		ldr	r4, .L3
  41              		.cfi_offset 14, -4
  42              		.cfi_offset 4, -8
  43 0004 A088     		ldrh	r0, [r4, #4]
  44 0006 FFF7FEFF 		bl	PWM_WritePeriod
 162:.\Generated_Source\PSoC5/PWM_PM.c ****                 #endif /* (!PWM_PWMModeIsCenterAligned) */
 163:.\Generated_Source\PSoC5/PWM_PM.c ****                 PWM_WriteCounter(PWM_backup.PWMUdb);
  45              		.loc 1 163 0
  46 000a 6088     		ldrh	r0, [r4, #2]
  47 000c FFF7FEFF 		bl	PWM_WriteCounter
 164:.\Generated_Source\PSoC5/PWM_PM.c ****                 #if (PWM_UseStatus)
 165:.\Generated_Source\PSoC5/PWM_PM.c ****                     PWM_STATUS_MASK = PWM_backup.InterruptMaskValue;
  48              		.loc 1 165 0
  49 0010 A279     		ldrb	r2, [r4, #6]	@ zero_extendqisi2
  50 0012 044B     		ldr	r3, .L3+4
  51 0014 1A70     		strb	r2, [r3, #0]
 166:.\Generated_Source\PSoC5/PWM_PM.c ****                 #endif /* (PWM_UseStatus) */
 167:.\Generated_Source\PSoC5/PWM_PM.c ****                 
 168:.\Generated_Source\PSoC5/PWM_PM.c ****                 #if(PWM_DeadBandMode == PWM__B_PWM__DBM_256_CLOCKS || \
 169:.\Generated_Source\PSoC5/PWM_PM.c ****                     PWM_DeadBandMode == PWM__B_PWM__DBM_2_4_CLOCKS)
 170:.\Generated_Source\PSoC5/PWM_PM.c ****                     PWM_WriteDeadTime(PWM_backup.PWMdeadBandValue);
 171:.\Generated_Source\PSoC5/PWM_PM.c ****                 #endif /* deadband count is either 2-4 clocks or 256 clocks */
 172:.\Generated_Source\PSoC5/PWM_PM.c ****                 
 173:.\Generated_Source\PSoC5/PWM_PM.c ****                 #if(PWM_KillModeMinTime)
ARM GAS  C:\DOCUME~1\ADMINI~1\LOCALS~1\Temp\cc5aLqRr.s 			page 5


 174:.\Generated_Source\PSoC5/PWM_PM.c ****                     PWM_WriteKillTime(PWM_backup.PWMKillCounterPeriod);
 175:.\Generated_Source\PSoC5/PWM_PM.c ****                 #endif /* (PWM_KillModeMinTime) */
 176:.\Generated_Source\PSoC5/PWM_PM.c ****             #endif /* (CY_UDB_V1) */
 177:.\Generated_Source\PSoC5/PWM_PM.c ****             
 178:.\Generated_Source\PSoC5/PWM_PM.c ****             #if(PWM_UseControl)
 179:.\Generated_Source\PSoC5/PWM_PM.c ****                 PWM_WriteControlRegister(PWM_backup.PWMControlRegister); 
  52              		.loc 1 179 0
  53 0016 E079     		ldrb	r0, [r4, #7]	@ zero_extendqisi2
 180:.\Generated_Source\PSoC5/PWM_PM.c ****             #endif /* (PWM_UseControl) */
 181:.\Generated_Source\PSoC5/PWM_PM.c ****         #endif  /* (!PWM_UsingFixedFunction) */
 182:.\Generated_Source\PSoC5/PWM_PM.c ****     }
  54              		.loc 1 182 0
  55 0018 BDE81040 		pop	{r4, lr}
  56              		.loc 1 179 0
  57 001c FFF7FEBF 		b	PWM_WriteControlRegister
  58              	.L4:
  59              		.align	2
  60              	.L3:
  61 0020 00000000 		.word	.LANCHOR0
  62 0024 84650040 		.word	1073767812
  63              		.cfi_endproc
  64              	.LFE1:
  65              		.size	PWM_RestoreConfig, .-PWM_RestoreConfig
  66              		.section	.text.PWM_Wakeup,"ax",%progbits
  67              		.align	1
  68              		.global	PWM_Wakeup
  69              		.thumb
  70              		.thumb_func
  71              		.type	PWM_Wakeup, %function
  72              	PWM_Wakeup:
  73              	.LFB3:
 183:.\Generated_Source\PSoC5/PWM_PM.c **** 
 184:.\Generated_Source\PSoC5/PWM_PM.c **** 
 185:.\Generated_Source\PSoC5/PWM_PM.c **** /*******************************************************************************
 186:.\Generated_Source\PSoC5/PWM_PM.c **** * Function Name: PWM_Sleep
 187:.\Generated_Source\PSoC5/PWM_PM.c **** ********************************************************************************
 188:.\Generated_Source\PSoC5/PWM_PM.c **** * 
 189:.\Generated_Source\PSoC5/PWM_PM.c **** * Summary:
 190:.\Generated_Source\PSoC5/PWM_PM.c **** *  Disables block's operation and saves the user configuration. Should be called 
 191:.\Generated_Source\PSoC5/PWM_PM.c **** *  just prior to entering sleep.
 192:.\Generated_Source\PSoC5/PWM_PM.c **** *  
 193:.\Generated_Source\PSoC5/PWM_PM.c **** * Parameters:  
 194:.\Generated_Source\PSoC5/PWM_PM.c **** *  None
 195:.\Generated_Source\PSoC5/PWM_PM.c **** *
 196:.\Generated_Source\PSoC5/PWM_PM.c **** * Return: 
 197:.\Generated_Source\PSoC5/PWM_PM.c **** *  None
 198:.\Generated_Source\PSoC5/PWM_PM.c **** *
 199:.\Generated_Source\PSoC5/PWM_PM.c **** * Global variables:
 200:.\Generated_Source\PSoC5/PWM_PM.c **** *  PWM_backup.PWMEnableState:  Is modified depending on the enable 
 201:.\Generated_Source\PSoC5/PWM_PM.c **** *  state of the block before entering sleep mode.
 202:.\Generated_Source\PSoC5/PWM_PM.c **** *
 203:.\Generated_Source\PSoC5/PWM_PM.c **** *******************************************************************************/
 204:.\Generated_Source\PSoC5/PWM_PM.c **** void PWM_Sleep(void) 
 205:.\Generated_Source\PSoC5/PWM_PM.c **** {
 206:.\Generated_Source\PSoC5/PWM_PM.c ****     #if(PWM_UseControl)
 207:.\Generated_Source\PSoC5/PWM_PM.c ****         if(PWM_CTRL_ENABLE == (PWM_CONTROL & PWM_CTRL_ENABLE))
 208:.\Generated_Source\PSoC5/PWM_PM.c ****         {
ARM GAS  C:\DOCUME~1\ADMINI~1\LOCALS~1\Temp\cc5aLqRr.s 			page 6


 209:.\Generated_Source\PSoC5/PWM_PM.c ****             /*Component is enabled */
 210:.\Generated_Source\PSoC5/PWM_PM.c ****             PWM_backup.PWMEnableState = 1u;
 211:.\Generated_Source\PSoC5/PWM_PM.c ****         }
 212:.\Generated_Source\PSoC5/PWM_PM.c ****         else
 213:.\Generated_Source\PSoC5/PWM_PM.c ****         {
 214:.\Generated_Source\PSoC5/PWM_PM.c ****             /* Component is disabled */
 215:.\Generated_Source\PSoC5/PWM_PM.c ****             PWM_backup.PWMEnableState = 0u;
 216:.\Generated_Source\PSoC5/PWM_PM.c ****         }
 217:.\Generated_Source\PSoC5/PWM_PM.c ****     #endif /* (PWM_UseControl) */
 218:.\Generated_Source\PSoC5/PWM_PM.c **** 
 219:.\Generated_Source\PSoC5/PWM_PM.c ****     /* Stop component */
 220:.\Generated_Source\PSoC5/PWM_PM.c ****     PWM_Stop();
 221:.\Generated_Source\PSoC5/PWM_PM.c ****     
 222:.\Generated_Source\PSoC5/PWM_PM.c ****     /* Save registers configuration */
 223:.\Generated_Source\PSoC5/PWM_PM.c ****     PWM_SaveConfig();
 224:.\Generated_Source\PSoC5/PWM_PM.c **** }
 225:.\Generated_Source\PSoC5/PWM_PM.c **** 
 226:.\Generated_Source\PSoC5/PWM_PM.c **** 
 227:.\Generated_Source\PSoC5/PWM_PM.c **** /*******************************************************************************
 228:.\Generated_Source\PSoC5/PWM_PM.c **** * Function Name: PWM_Wakeup
 229:.\Generated_Source\PSoC5/PWM_PM.c **** ********************************************************************************
 230:.\Generated_Source\PSoC5/PWM_PM.c **** * 
 231:.\Generated_Source\PSoC5/PWM_PM.c **** * Summary:
 232:.\Generated_Source\PSoC5/PWM_PM.c **** *  Restores and enables the user configuration. Should be called just after 
 233:.\Generated_Source\PSoC5/PWM_PM.c **** *  awaking from sleep.
 234:.\Generated_Source\PSoC5/PWM_PM.c **** *  
 235:.\Generated_Source\PSoC5/PWM_PM.c **** * Parameters:  
 236:.\Generated_Source\PSoC5/PWM_PM.c **** *  None
 237:.\Generated_Source\PSoC5/PWM_PM.c **** *
 238:.\Generated_Source\PSoC5/PWM_PM.c **** * Return: 
 239:.\Generated_Source\PSoC5/PWM_PM.c **** *  None
 240:.\Generated_Source\PSoC5/PWM_PM.c **** *
 241:.\Generated_Source\PSoC5/PWM_PM.c **** * Global variables:
 242:.\Generated_Source\PSoC5/PWM_PM.c **** *  PWM_backup.pwmEnable:  Is used to restore the enable state of 
 243:.\Generated_Source\PSoC5/PWM_PM.c **** *  block on wakeup from sleep mode.
 244:.\Generated_Source\PSoC5/PWM_PM.c **** *
 245:.\Generated_Source\PSoC5/PWM_PM.c **** *******************************************************************************/
 246:.\Generated_Source\PSoC5/PWM_PM.c **** void PWM_Wakeup(void) 
 247:.\Generated_Source\PSoC5/PWM_PM.c **** {
  74              		.loc 1 247 0
  75              		.cfi_startproc
  76              		@ args = 0, pretend = 0, frame = 0
  77              		@ frame_needed = 0, uses_anonymous_args = 0
  78 0000 10B5     		push	{r4, lr}
  79              	.LCFI1:
  80              		.cfi_def_cfa_offset 8
 248:.\Generated_Source\PSoC5/PWM_PM.c ****      /* Restore registers values */
 249:.\Generated_Source\PSoC5/PWM_PM.c ****     PWM_RestoreConfig();
  81              		.loc 1 249 0
  82              		.cfi_offset 14, -4
  83              		.cfi_offset 4, -8
  84 0002 FFF7FEFF 		bl	PWM_RestoreConfig
 250:.\Generated_Source\PSoC5/PWM_PM.c ****     
 251:.\Generated_Source\PSoC5/PWM_PM.c ****     if(PWM_backup.PWMEnableState != 0u)
  85              		.loc 1 251 0
  86 0006 044B     		ldr	r3, .L9
  87 0008 1B78     		ldrb	r3, [r3, #0]	@ zero_extendqisi2
ARM GAS  C:\DOCUME~1\ADMINI~1\LOCALS~1\Temp\cc5aLqRr.s 			page 7


  88 000a 1BB1     		cbz	r3, .L7
 252:.\Generated_Source\PSoC5/PWM_PM.c ****     {
 253:.\Generated_Source\PSoC5/PWM_PM.c ****         /* Enable component's operation */
 254:.\Generated_Source\PSoC5/PWM_PM.c ****         PWM_Enable();
 255:.\Generated_Source\PSoC5/PWM_PM.c ****     } /* Do nothing if component's block was disabled before */
 256:.\Generated_Source\PSoC5/PWM_PM.c ****     
 257:.\Generated_Source\PSoC5/PWM_PM.c **** }
  89              		.loc 1 257 0
  90 000c BDE81040 		pop	{r4, lr}
  91              		.loc 1 254 0
  92 0010 FFF7FEBF 		b	PWM_Enable
  93              	.L7:
  94 0014 10BD     		pop	{r4, pc}
  95              	.L10:
  96 0016 00BF     		.align	2
  97              	.L9:
  98 0018 00000000 		.word	.LANCHOR0
  99              		.cfi_endproc
 100              	.LFE3:
 101              		.size	PWM_Wakeup, .-PWM_Wakeup
 102              		.section	.text.PWM_SaveConfig,"ax",%progbits
 103              		.align	1
 104              		.global	PWM_SaveConfig
 105              		.thumb
 106              		.thumb_func
 107              		.type	PWM_SaveConfig, %function
 108              	PWM_SaveConfig:
 109              	.LFB0:
 110              		.loc 1 43 0
 111              		.cfi_startproc
 112              		@ args = 0, pretend = 0, frame = 0
 113              		@ frame_needed = 0, uses_anonymous_args = 0
 114 0000 10B5     		push	{r4, lr}
 115              	.LCFI2:
 116              		.cfi_def_cfa_offset 8
 117              		.loc 1 71 0
 118              		.cfi_offset 14, -4
 119              		.cfi_offset 4, -8
 120 0002 FFF7FEFF 		bl	PWM_ReadPeriod
 121 0006 064C     		ldr	r4, .L13
 122 0008 A080     		strh	r0, [r4, #4]	@ movhi
 123              		.loc 1 73 0
 124 000a FFF7FEFF 		bl	PWM_ReadCounter
 125              		.loc 1 75 0
 126 000e 054B     		ldr	r3, .L13+4
 127              		.loc 1 73 0
 128 0010 6080     		strh	r0, [r4, #2]	@ movhi
 129              		.loc 1 75 0
 130 0012 1B78     		ldrb	r3, [r3, #0]	@ zero_extendqisi2
 131 0014 A371     		strb	r3, [r4, #6]
 132              		.loc 1 89 0
 133 0016 FFF7FEFF 		bl	PWM_ReadControlRegister
 134 001a E071     		strb	r0, [r4, #7]
 135              		.loc 1 92 0
 136 001c 10BD     		pop	{r4, pc}
 137              	.L14:
 138 001e 00BF     		.align	2
ARM GAS  C:\DOCUME~1\ADMINI~1\LOCALS~1\Temp\cc5aLqRr.s 			page 8


 139              	.L13:
 140 0020 00000000 		.word	.LANCHOR0
 141 0024 84650040 		.word	1073767812
 142              		.cfi_endproc
 143              	.LFE0:
 144              		.size	PWM_SaveConfig, .-PWM_SaveConfig
 145              		.section	.text.PWM_Sleep,"ax",%progbits
 146              		.align	1
 147              		.global	PWM_Sleep
 148              		.thumb
 149              		.thumb_func
 150              		.type	PWM_Sleep, %function
 151              	PWM_Sleep:
 152              	.LFB2:
 153              		.loc 1 205 0
 154              		.cfi_startproc
 155              		@ args = 0, pretend = 0, frame = 0
 156              		@ frame_needed = 0, uses_anonymous_args = 0
 157 0000 10B5     		push	{r4, lr}
 158              	.LCFI3:
 159              		.cfi_def_cfa_offset 8
 160              		.loc 1 207 0
 161 0002 084B     		ldr	r3, .L20
 162 0004 1B78     		ldrb	r3, [r3, #0]	@ zero_extendqisi2
 163 0006 13F0800F 		tst	r3, #128
 164 000a 074B     		ldr	r3, .L20+4
 165 000c 01D0     		beq	.L16
 166              		.cfi_offset 14, -4
 167              		.cfi_offset 4, -8
 168              		.loc 1 210 0
 169 000e 0122     		movs	r2, #1
 170 0010 00E0     		b	.L19
 171              	.L16:
 172              		.loc 1 215 0
 173 0012 0022     		movs	r2, #0
 174              	.L19:
 175 0014 1A70     		strb	r2, [r3, #0]
 176              		.loc 1 220 0
 177 0016 FFF7FEFF 		bl	PWM_Stop
 178              		.loc 1 224 0
 179 001a BDE81040 		pop	{r4, lr}
 180              		.loc 1 223 0
 181 001e FFF7FEBF 		b	PWM_SaveConfig
 182              	.L21:
 183 0022 00BF     		.align	2
 184              	.L20:
 185 0024 75650040 		.word	1073767797
 186 0028 00000000 		.word	.LANCHOR0
 187              		.cfi_endproc
 188              	.LFE2:
 189              		.size	PWM_Sleep, .-PWM_Sleep
 190              		.bss
 191              		.align	2
 192              		.set	.LANCHOR0,. + 0
 193              		.type	PWM_backup, %object
 194              		.size	PWM_backup, 8
 195              	PWM_backup:
ARM GAS  C:\DOCUME~1\ADMINI~1\LOCALS~1\Temp\cc5aLqRr.s 			page 9


 196 0000 00000000 		.space	8
 196      00000000 
 197              		.text
 198              	.Letext0: