ARM GAS  C:\DOCUME~1\ADMINI~1\LOCALS~1\Temp\ccQcc9CW.s 			page 1


   1              		.syntax unified
   2              		.cpu cortex-m3
   3              		.fpu softvfp
   4              		.eabi_attribute 20, 1
   5              		.eabi_attribute 21, 1
   6              		.eabi_attribute 23, 3
   7              		.eabi_attribute 24, 1
   8              		.eabi_attribute 25, 1
   9              		.eabi_attribute 26, 1
  10              		.eabi_attribute 30, 4
  11              		.eabi_attribute 18, 4
  12              		.thumb
  13              		.file	"USBFS_hid.c"
  20 0000 51010000 		.text
  20      02006D00 
  20      00000201 
  20      FB0E0D00 
  20      01010101 
  21              	.Ltext0:
  22              		.cfi_sections	.debug_frame
  23              		.section	.text.USBFS_UpdateHIDTimer,"ax",%progbits
  24              		.align	1
  25              		.global	USBFS_UpdateHIDTimer
  26              		.thumb
  27              		.thumb_func
  28              		.type	USBFS_UpdateHIDTimer, %function
  29              	USBFS_UpdateHIDTimer:
  30              	.LFB0:
  31              		.file 1 ".\\Generated_Source\\PSoC5\\USBFS_hid.c"
   1:.\Generated_Source\PSoC5/USBFS_hid.c **** /*******************************************************************************
   2:.\Generated_Source\PSoC5/USBFS_hid.c **** * File Name: USBFS_hid.c
   3:.\Generated_Source\PSoC5/USBFS_hid.c **** * Version 2.51
   4:.\Generated_Source\PSoC5/USBFS_hid.c **** *
   5:.\Generated_Source\PSoC5/USBFS_hid.c **** * Description:
   6:.\Generated_Source\PSoC5/USBFS_hid.c **** *  USB HID Class request handler.
   7:.\Generated_Source\PSoC5/USBFS_hid.c **** *
   8:.\Generated_Source\PSoC5/USBFS_hid.c **** * Note:
   9:.\Generated_Source\PSoC5/USBFS_hid.c **** *
  10:.\Generated_Source\PSoC5/USBFS_hid.c **** ********************************************************************************
  11:.\Generated_Source\PSoC5/USBFS_hid.c **** * Copyright 2008-2012, Cypress Semiconductor Corporation.  All rights reserved.
  12:.\Generated_Source\PSoC5/USBFS_hid.c **** * You may use this file only in accordance with the license, terms, conditions,
  13:.\Generated_Source\PSoC5/USBFS_hid.c **** * disclaimers, and limitations in the end user license agreement accompanying
  14:.\Generated_Source\PSoC5/USBFS_hid.c **** * the software package with which this file was provided.
  15:.\Generated_Source\PSoC5/USBFS_hid.c **** *******************************************************************************/
  16:.\Generated_Source\PSoC5/USBFS_hid.c **** 
  17:.\Generated_Source\PSoC5/USBFS_hid.c **** #include "USBFS.h"
  18:.\Generated_Source\PSoC5/USBFS_hid.c **** 
  19:.\Generated_Source\PSoC5/USBFS_hid.c **** #if defined(USBFS_ENABLE_HID_CLASS)
  20:.\Generated_Source\PSoC5/USBFS_hid.c **** 
  21:.\Generated_Source\PSoC5/USBFS_hid.c **** #include "USBFS_hid.h"
  22:.\Generated_Source\PSoC5/USBFS_hid.c **** 
ARM GAS  C:\DOCUME~1\ADMINI~1\LOCALS~1\Temp\ccQcc9CW.s 			page 2


  23:.\Generated_Source\PSoC5/USBFS_hid.c **** 
  24:.\Generated_Source\PSoC5/USBFS_hid.c **** /***************************************
  25:.\Generated_Source\PSoC5/USBFS_hid.c **** *    HID Variables
  26:.\Generated_Source\PSoC5/USBFS_hid.c **** ***************************************/
  27:.\Generated_Source\PSoC5/USBFS_hid.c **** 
  28:.\Generated_Source\PSoC5/USBFS_hid.c **** volatile uint8 USBFS_hidProtocol[USBFS_MAX_INTERFACES_NUMBER];  /* HID device protocol status */
  29:.\Generated_Source\PSoC5/USBFS_hid.c **** volatile uint8 USBFS_hidIdleRate[USBFS_MAX_INTERFACES_NUMBER];  /* HID device idle reload value */
  30:.\Generated_Source\PSoC5/USBFS_hid.c **** volatile uint8 USBFS_hidIdleTimer[USBFS_MAX_INTERFACES_NUMBER]; /* HID device idle rate value */
  31:.\Generated_Source\PSoC5/USBFS_hid.c **** 
  32:.\Generated_Source\PSoC5/USBFS_hid.c **** 
  33:.\Generated_Source\PSoC5/USBFS_hid.c **** /***************************************
  34:.\Generated_Source\PSoC5/USBFS_hid.c **** * Custom Declarations
  35:.\Generated_Source\PSoC5/USBFS_hid.c **** ***************************************/
  36:.\Generated_Source\PSoC5/USBFS_hid.c **** 
  37:.\Generated_Source\PSoC5/USBFS_hid.c **** /* `#START HID_CUSTOM_DECLARATIONS` Place your declaration here */
  38:.\Generated_Source\PSoC5/USBFS_hid.c **** 
  39:.\Generated_Source\PSoC5/USBFS_hid.c **** /* `#END` */
  40:.\Generated_Source\PSoC5/USBFS_hid.c **** 
  41:.\Generated_Source\PSoC5/USBFS_hid.c **** 
  42:.\Generated_Source\PSoC5/USBFS_hid.c **** /***************************************
  43:.\Generated_Source\PSoC5/USBFS_hid.c **** *    External references
  44:.\Generated_Source\PSoC5/USBFS_hid.c **** ***************************************/
  45:.\Generated_Source\PSoC5/USBFS_hid.c **** 
  46:.\Generated_Source\PSoC5/USBFS_hid.c **** uint8 USBFS_InitControlRead(void) ;
  47:.\Generated_Source\PSoC5/USBFS_hid.c **** uint8 USBFS_InitControlWrite(void) ;
  48:.\Generated_Source\PSoC5/USBFS_hid.c **** uint8 USBFS_InitNoDataControlTransfer(void) ;
  49:.\Generated_Source\PSoC5/USBFS_hid.c **** T_USBFS_LUT *USBFS_GetConfigTablePtr(uint8 c)
  50:.\Generated_Source\PSoC5/USBFS_hid.c ****                                                             ;
  51:.\Generated_Source\PSoC5/USBFS_hid.c **** T_USBFS_LUT *USBFS_GetDeviceTablePtr(void)
  52:.\Generated_Source\PSoC5/USBFS_hid.c ****                                                             ;
  53:.\Generated_Source\PSoC5/USBFS_hid.c **** 
  54:.\Generated_Source\PSoC5/USBFS_hid.c **** extern volatile T_USBFS_TD USBFS_currentTD;
  55:.\Generated_Source\PSoC5/USBFS_hid.c **** extern uint8 CYCODE USBFS_HIDREPORT_DESCRIPTORS[];
  56:.\Generated_Source\PSoC5/USBFS_hid.c **** extern volatile uint8 USBFS_configuration;
  57:.\Generated_Source\PSoC5/USBFS_hid.c **** extern volatile uint8 USBFS_interfaceSetting[];
  58:.\Generated_Source\PSoC5/USBFS_hid.c **** 
  59:.\Generated_Source\PSoC5/USBFS_hid.c **** 
  60:.\Generated_Source\PSoC5/USBFS_hid.c **** /***************************************
  61:.\Generated_Source\PSoC5/USBFS_hid.c **** *    Internal references
  62:.\Generated_Source\PSoC5/USBFS_hid.c **** ***************************************/
  63:.\Generated_Source\PSoC5/USBFS_hid.c **** 
  64:.\Generated_Source\PSoC5/USBFS_hid.c **** void USBFS_FindReport(void) ;
  65:.\Generated_Source\PSoC5/USBFS_hid.c **** void USBFS_FindReportDescriptor(void) ;
  66:.\Generated_Source\PSoC5/USBFS_hid.c **** void USBFS_FindHidClassDecriptor(void) ;
  67:.\Generated_Source\PSoC5/USBFS_hid.c **** 
  68:.\Generated_Source\PSoC5/USBFS_hid.c **** 
  69:.\Generated_Source\PSoC5/USBFS_hid.c **** /*******************************************************************************
  70:.\Generated_Source\PSoC5/USBFS_hid.c **** * Function Name: USBFS_UpdateHIDTimer
  71:.\Generated_Source\PSoC5/USBFS_hid.c **** ********************************************************************************
  72:.\Generated_Source\PSoC5/USBFS_hid.c **** *
  73:.\Generated_Source\PSoC5/USBFS_hid.c **** * Summary:
  74:.\Generated_Source\PSoC5/USBFS_hid.c **** *  Updates the HID report timer and reloads it if expired
  75:.\Generated_Source\PSoC5/USBFS_hid.c **** *
  76:.\Generated_Source\PSoC5/USBFS_hid.c **** * Parameters:
  77:.\Generated_Source\PSoC5/USBFS_hid.c **** *  interface:  Interface Number.
  78:.\Generated_Source\PSoC5/USBFS_hid.c **** *
  79:.\Generated_Source\PSoC5/USBFS_hid.c **** * Return:
ARM GAS  C:\DOCUME~1\ADMINI~1\LOCALS~1\Temp\ccQcc9CW.s 			page 3


  80:.\Generated_Source\PSoC5/USBFS_hid.c **** *  status.
  81:.\Generated_Source\PSoC5/USBFS_hid.c **** *
  82:.\Generated_Source\PSoC5/USBFS_hid.c **** * Reentrant:
  83:.\Generated_Source\PSoC5/USBFS_hid.c **** *  No.
  84:.\Generated_Source\PSoC5/USBFS_hid.c **** *
  85:.\Generated_Source\PSoC5/USBFS_hid.c **** *******************************************************************************/
  86:.\Generated_Source\PSoC5/USBFS_hid.c **** uint8 USBFS_UpdateHIDTimer(uint8 interface) 
  87:.\Generated_Source\PSoC5/USBFS_hid.c **** {
  32              		.loc 1 87 0
  33              		.cfi_startproc
  34              		@ args = 0, pretend = 0, frame = 0
  35              		@ frame_needed = 0, uses_anonymous_args = 0
  36              		@ link register save eliminated.
  37              	.LVL0:
  88:.\Generated_Source\PSoC5/USBFS_hid.c ****     uint8 status = USBFS_IDLE_TIMER_INDEFINITE;
  89:.\Generated_Source\PSoC5/USBFS_hid.c **** 
  90:.\Generated_Source\PSoC5/USBFS_hid.c ****     if(USBFS_hidIdleRate[interface] != 0u)
  38              		.loc 1 90 0
  39 0000 084A     		ldr	r2, .L7
  40 0002 135C     		ldrb	r3, [r2, r0]	@ zero_extendqisi2
  41 0004 0BB9     		cbnz	r3, .L2
  42 0006 1846     		mov	r0, r3
  43              	.LVL1:
  44 0008 7047     		bx	lr
  45              	.LVL2:
  46              	.L2:
  91:.\Generated_Source\PSoC5/USBFS_hid.c ****     {
  92:.\Generated_Source\PSoC5/USBFS_hid.c ****         if(USBFS_hidIdleTimer[interface] > 0u)
  47              		.loc 1 92 0
  48 000a 074B     		ldr	r3, .L7+4
  49 000c 195C     		ldrb	r1, [r3, r0]	@ zero_extendqisi2
  50 000e 29B1     		cbz	r1, .L4
  93:.\Generated_Source\PSoC5/USBFS_hid.c ****         {
  94:.\Generated_Source\PSoC5/USBFS_hid.c ****             USBFS_hidIdleTimer[interface]--;
  51              		.loc 1 94 0
  52 0010 1A5C     		ldrb	r2, [r3, r0]	@ zero_extendqisi2
  53 0012 013A     		subs	r2, r2, #1
  54 0014 D2B2     		uxtb	r2, r2
  55 0016 1A54     		strb	r2, [r3, r0]
  56 0018 0220     		movs	r0, #2
  57              	.LVL3:
  58 001a 7047     		bx	lr
  59              	.LVL4:
  60              	.L4:
  95:.\Generated_Source\PSoC5/USBFS_hid.c ****             status = USBFS_IDLE_TIMER_RUNNING;
  96:.\Generated_Source\PSoC5/USBFS_hid.c ****         }
  97:.\Generated_Source\PSoC5/USBFS_hid.c ****         else
  98:.\Generated_Source\PSoC5/USBFS_hid.c ****         {
  99:.\Generated_Source\PSoC5/USBFS_hid.c ****             USBFS_hidIdleTimer[interface] = USBFS_hidIdleRate[interface];
  61              		.loc 1 99 0
  62 001c 125C     		ldrb	r2, [r2, r0]	@ zero_extendqisi2
  63 001e 1A54     		strb	r2, [r3, r0]
  64 0020 0120     		movs	r0, #1
  65              	.LVL5:
  66              	.LVL6:
 100:.\Generated_Source\PSoC5/USBFS_hid.c ****             status = USBFS_IDLE_TIMER_EXPIRED;
 101:.\Generated_Source\PSoC5/USBFS_hid.c ****         }
ARM GAS  C:\DOCUME~1\ADMINI~1\LOCALS~1\Temp\ccQcc9CW.s 			page 4


 102:.\Generated_Source\PSoC5/USBFS_hid.c ****     }
 103:.\Generated_Source\PSoC5/USBFS_hid.c **** 
 104:.\Generated_Source\PSoC5/USBFS_hid.c ****     return(status);
 105:.\Generated_Source\PSoC5/USBFS_hid.c **** }
  67              		.loc 1 105 0
  68 0022 7047     		bx	lr
  69              	.L8:
  70              		.align	2
  71              	.L7:
  72 0024 00000000 		.word	USBFS_hidIdleRate
  73 0028 00000000 		.word	USBFS_hidIdleTimer
  74              		.cfi_endproc
  75              	.LFE0:
  76              		.size	USBFS_UpdateHIDTimer, .-USBFS_UpdateHIDTimer
  77              		.section	.text.USBFS_GetProtocol,"ax",%progbits
  78              		.align	1
  79              		.global	USBFS_GetProtocol
  80              		.thumb
  81              		.thumb_func
  82              		.type	USBFS_GetProtocol, %function
  83              	USBFS_GetProtocol:
  84              	.LFB1:
 106:.\Generated_Source\PSoC5/USBFS_hid.c **** 
 107:.\Generated_Source\PSoC5/USBFS_hid.c **** 
 108:.\Generated_Source\PSoC5/USBFS_hid.c **** /*******************************************************************************
 109:.\Generated_Source\PSoC5/USBFS_hid.c **** * Function Name: USBFS_GetProtocol
 110:.\Generated_Source\PSoC5/USBFS_hid.c **** ********************************************************************************
 111:.\Generated_Source\PSoC5/USBFS_hid.c **** *
 112:.\Generated_Source\PSoC5/USBFS_hid.c **** * Summary:
 113:.\Generated_Source\PSoC5/USBFS_hid.c **** *  Returns the selected protocol value to the application
 114:.\Generated_Source\PSoC5/USBFS_hid.c **** *
 115:.\Generated_Source\PSoC5/USBFS_hid.c **** * Parameters:
 116:.\Generated_Source\PSoC5/USBFS_hid.c **** *  interface:  Interface Number.
 117:.\Generated_Source\PSoC5/USBFS_hid.c **** *
 118:.\Generated_Source\PSoC5/USBFS_hid.c **** * Return:
 119:.\Generated_Source\PSoC5/USBFS_hid.c **** *  Interface protocol.
 120:.\Generated_Source\PSoC5/USBFS_hid.c **** *
 121:.\Generated_Source\PSoC5/USBFS_hid.c **** *******************************************************************************/
 122:.\Generated_Source\PSoC5/USBFS_hid.c **** uint8 USBFS_GetProtocol(uint8 interface) 
 123:.\Generated_Source\PSoC5/USBFS_hid.c **** {
  85              		.loc 1 123 0
  86              		.cfi_startproc
  87              		@ args = 0, pretend = 0, frame = 0
  88              		@ frame_needed = 0, uses_anonymous_args = 0
  89              		@ link register save eliminated.
  90              	.LVL7:
 124:.\Generated_Source\PSoC5/USBFS_hid.c ****     return(USBFS_hidProtocol[interface]);
  91              		.loc 1 124 0
  92 0000 014B     		ldr	r3, .L11
  93 0002 185C     		ldrb	r0, [r3, r0]	@ zero_extendqisi2
  94              	.LVL8:
 125:.\Generated_Source\PSoC5/USBFS_hid.c **** }
  95              		.loc 1 125 0
  96 0004 7047     		bx	lr
  97              	.L12:
  98 0006 00BF     		.align	2
  99              	.L11:
ARM GAS  C:\DOCUME~1\ADMINI~1\LOCALS~1\Temp\ccQcc9CW.s 			page 5


 100 0008 00000000 		.word	USBFS_hidProtocol
 101              		.cfi_endproc
 102              	.LFE1:
 103              		.size	USBFS_GetProtocol, .-USBFS_GetProtocol
 104              		.section	.text.USBFS_FindReport,"ax",%progbits
 105              		.align	1
 106              		.global	USBFS_FindReport
 107              		.thumb
 108              		.thumb_func
 109              		.type	USBFS_FindReport, %function
 110              	USBFS_FindReport:
 111              	.LFB5:
 126:.\Generated_Source\PSoC5/USBFS_hid.c **** 
 127:.\Generated_Source\PSoC5/USBFS_hid.c **** 
 128:.\Generated_Source\PSoC5/USBFS_hid.c **** /*******************************************************************************
 129:.\Generated_Source\PSoC5/USBFS_hid.c **** * Function Name: USBFS_DispatchHIDClassRqst
 130:.\Generated_Source\PSoC5/USBFS_hid.c **** ********************************************************************************
 131:.\Generated_Source\PSoC5/USBFS_hid.c **** *
 132:.\Generated_Source\PSoC5/USBFS_hid.c **** * Summary:
 133:.\Generated_Source\PSoC5/USBFS_hid.c **** *  This routine dispatches class requests
 134:.\Generated_Source\PSoC5/USBFS_hid.c **** *
 135:.\Generated_Source\PSoC5/USBFS_hid.c **** * Parameters:
 136:.\Generated_Source\PSoC5/USBFS_hid.c **** *  None.
 137:.\Generated_Source\PSoC5/USBFS_hid.c **** *
 138:.\Generated_Source\PSoC5/USBFS_hid.c **** * Return:
 139:.\Generated_Source\PSoC5/USBFS_hid.c **** *  requestHandled
 140:.\Generated_Source\PSoC5/USBFS_hid.c **** *
 141:.\Generated_Source\PSoC5/USBFS_hid.c **** * Reentrant:
 142:.\Generated_Source\PSoC5/USBFS_hid.c **** *  No.
 143:.\Generated_Source\PSoC5/USBFS_hid.c **** *
 144:.\Generated_Source\PSoC5/USBFS_hid.c **** *******************************************************************************/
 145:.\Generated_Source\PSoC5/USBFS_hid.c **** uint8 USBFS_DispatchHIDClassRqst() 
 146:.\Generated_Source\PSoC5/USBFS_hid.c **** {
 147:.\Generated_Source\PSoC5/USBFS_hid.c ****     uint8 requestHandled = USBFS_FALSE;
 148:.\Generated_Source\PSoC5/USBFS_hid.c ****     uint8 interfaceNumber;
 149:.\Generated_Source\PSoC5/USBFS_hid.c **** 
 150:.\Generated_Source\PSoC5/USBFS_hid.c ****     interfaceNumber = CY_GET_REG8(USBFS_wIndexLo);
 151:.\Generated_Source\PSoC5/USBFS_hid.c ****     if ((CY_GET_REG8(USBFS_bmRequestType) & USBFS_RQST_DIR_MASK) == USBFS_RQST_DIR_D2H)
 152:.\Generated_Source\PSoC5/USBFS_hid.c ****     {   /* Control Read */
 153:.\Generated_Source\PSoC5/USBFS_hid.c ****         switch (CY_GET_REG8(USBFS_bRequest))
 154:.\Generated_Source\PSoC5/USBFS_hid.c ****         {
 155:.\Generated_Source\PSoC5/USBFS_hid.c ****             case USBFS_GET_DESCRIPTOR:
 156:.\Generated_Source\PSoC5/USBFS_hid.c ****                 if (CY_GET_REG8(USBFS_wValueHi) == USBFS_DESCR_HID_CLASS)
 157:.\Generated_Source\PSoC5/USBFS_hid.c ****                 {
 158:.\Generated_Source\PSoC5/USBFS_hid.c ****                     USBFS_FindHidClassDecriptor();
 159:.\Generated_Source\PSoC5/USBFS_hid.c ****                     if (USBFS_currentTD.count != 0u)
 160:.\Generated_Source\PSoC5/USBFS_hid.c ****                     {
 161:.\Generated_Source\PSoC5/USBFS_hid.c ****                         requestHandled = USBFS_InitControlRead();
 162:.\Generated_Source\PSoC5/USBFS_hid.c ****                     }
 163:.\Generated_Source\PSoC5/USBFS_hid.c ****                 }
 164:.\Generated_Source\PSoC5/USBFS_hid.c ****                 else if (CY_GET_REG8(USBFS_wValueHi) == USBFS_DESCR_HID_REPORT)
 165:.\Generated_Source\PSoC5/USBFS_hid.c ****                 {
 166:.\Generated_Source\PSoC5/USBFS_hid.c ****                     USBFS_FindReportDescriptor();
 167:.\Generated_Source\PSoC5/USBFS_hid.c ****                     if (USBFS_currentTD.count != 0u)
 168:.\Generated_Source\PSoC5/USBFS_hid.c ****                     {
 169:.\Generated_Source\PSoC5/USBFS_hid.c ****                         requestHandled = USBFS_InitControlRead();
 170:.\Generated_Source\PSoC5/USBFS_hid.c ****                     }
ARM GAS  C:\DOCUME~1\ADMINI~1\LOCALS~1\Temp\ccQcc9CW.s 			page 6


 171:.\Generated_Source\PSoC5/USBFS_hid.c ****                 }
 172:.\Generated_Source\PSoC5/USBFS_hid.c ****                 else
 173:.\Generated_Source\PSoC5/USBFS_hid.c ****                 {   /* requestHandled is initialezed as FALSE by default */
 174:.\Generated_Source\PSoC5/USBFS_hid.c ****                 }
 175:.\Generated_Source\PSoC5/USBFS_hid.c ****                 break;
 176:.\Generated_Source\PSoC5/USBFS_hid.c ****             case USBFS_HID_GET_REPORT:
 177:.\Generated_Source\PSoC5/USBFS_hid.c ****                 USBFS_FindReport();
 178:.\Generated_Source\PSoC5/USBFS_hid.c ****                 if (USBFS_currentTD.count != 0u)
 179:.\Generated_Source\PSoC5/USBFS_hid.c ****                 {
 180:.\Generated_Source\PSoC5/USBFS_hid.c ****                     requestHandled = USBFS_InitControlRead();
 181:.\Generated_Source\PSoC5/USBFS_hid.c ****                 }
 182:.\Generated_Source\PSoC5/USBFS_hid.c ****                 break;
 183:.\Generated_Source\PSoC5/USBFS_hid.c **** 
 184:.\Generated_Source\PSoC5/USBFS_hid.c ****             case USBFS_HID_GET_IDLE:
 185:.\Generated_Source\PSoC5/USBFS_hid.c ****                 /* This function does not support multiple reports per interface*/
 186:.\Generated_Source\PSoC5/USBFS_hid.c ****                 /* Validate interfaceNumber and Report ID (should be 0) */
 187:.\Generated_Source\PSoC5/USBFS_hid.c ****                 if( (interfaceNumber < USBFS_MAX_INTERFACES_NUMBER) &&
 188:.\Generated_Source\PSoC5/USBFS_hid.c ****                     (CY_GET_REG8(USBFS_wValueLo) == 0u ) ) /* do not support Idle per Report ID */
 189:.\Generated_Source\PSoC5/USBFS_hid.c ****                 {
 190:.\Generated_Source\PSoC5/USBFS_hid.c ****                     USBFS_currentTD.count = 1u;
 191:.\Generated_Source\PSoC5/USBFS_hid.c ****                     USBFS_currentTD.pData = &USBFS_hidIdleRate[interfaceNumber];
 192:.\Generated_Source\PSoC5/USBFS_hid.c ****                     requestHandled  = USBFS_InitControlRead();
 193:.\Generated_Source\PSoC5/USBFS_hid.c ****                 }
 194:.\Generated_Source\PSoC5/USBFS_hid.c ****                 break;
 195:.\Generated_Source\PSoC5/USBFS_hid.c ****             case USBFS_HID_GET_PROTOCOL:
 196:.\Generated_Source\PSoC5/USBFS_hid.c ****                 /* Validate interfaceNumber */
 197:.\Generated_Source\PSoC5/USBFS_hid.c ****                 if( interfaceNumber < USBFS_MAX_INTERFACES_NUMBER)
 198:.\Generated_Source\PSoC5/USBFS_hid.c ****                 {
 199:.\Generated_Source\PSoC5/USBFS_hid.c ****                     USBFS_currentTD.count = 1u;
 200:.\Generated_Source\PSoC5/USBFS_hid.c ****                     USBFS_currentTD.pData = &USBFS_hidProtocol[interfaceNumber];
 201:.\Generated_Source\PSoC5/USBFS_hid.c ****                     requestHandled  = USBFS_InitControlRead();
 202:.\Generated_Source\PSoC5/USBFS_hid.c ****                 }
 203:.\Generated_Source\PSoC5/USBFS_hid.c ****                 break;
 204:.\Generated_Source\PSoC5/USBFS_hid.c ****             default:    /* requestHandled is initialezed as FALSE by default */
 205:.\Generated_Source\PSoC5/USBFS_hid.c ****                 break;
 206:.\Generated_Source\PSoC5/USBFS_hid.c ****         }
 207:.\Generated_Source\PSoC5/USBFS_hid.c ****     }
 208:.\Generated_Source\PSoC5/USBFS_hid.c ****     else if ((CY_GET_REG8(USBFS_bmRequestType) & USBFS_RQST_DIR_MASK) ==
 209:.\Generated_Source\PSoC5/USBFS_hid.c ****                                                                             USBFS_RQST_DIR_H2D)
 210:.\Generated_Source\PSoC5/USBFS_hid.c ****     {   /* Control Write */
 211:.\Generated_Source\PSoC5/USBFS_hid.c ****         switch (CY_GET_REG8(USBFS_bRequest))
 212:.\Generated_Source\PSoC5/USBFS_hid.c ****         {
 213:.\Generated_Source\PSoC5/USBFS_hid.c ****             case USBFS_HID_SET_REPORT:
 214:.\Generated_Source\PSoC5/USBFS_hid.c ****                 USBFS_FindReport();
 215:.\Generated_Source\PSoC5/USBFS_hid.c ****                 if (USBFS_currentTD.count != 0u)
 216:.\Generated_Source\PSoC5/USBFS_hid.c ****                 {
 217:.\Generated_Source\PSoC5/USBFS_hid.c ****                     requestHandled = USBFS_InitControlWrite();
 218:.\Generated_Source\PSoC5/USBFS_hid.c ****                 }
 219:.\Generated_Source\PSoC5/USBFS_hid.c ****                 break;
 220:.\Generated_Source\PSoC5/USBFS_hid.c ****             case USBFS_HID_SET_IDLE:
 221:.\Generated_Source\PSoC5/USBFS_hid.c ****                 /* This function does not support multiple reports per interface */
 222:.\Generated_Source\PSoC5/USBFS_hid.c ****                 /* Validate interfaceNumber and Report ID (should be 0) */
 223:.\Generated_Source\PSoC5/USBFS_hid.c ****                 if( (interfaceNumber < USBFS_MAX_INTERFACES_NUMBER) &&
 224:.\Generated_Source\PSoC5/USBFS_hid.c ****                     (CY_GET_REG8(USBFS_wValueLo) == 0u ) ) /* do not support Idle per Report ID */
 225:.\Generated_Source\PSoC5/USBFS_hid.c ****                 {
 226:.\Generated_Source\PSoC5/USBFS_hid.c ****                     USBFS_hidIdleRate[interfaceNumber] = CY_GET_REG8(USBFS_wValueHi);
 227:.\Generated_Source\PSoC5/USBFS_hid.c ****                     /* With regards to HID spec: "7.2.4 Set_Idle Request"
ARM GAS  C:\DOCUME~1\ADMINI~1\LOCALS~1\Temp\ccQcc9CW.s 			page 7


 228:.\Generated_Source\PSoC5/USBFS_hid.c ****                     *  Latency. If the current period has gone past the
 229:.\Generated_Source\PSoC5/USBFS_hid.c ****                     *  newly proscribed time duration, then a report
 230:.\Generated_Source\PSoC5/USBFS_hid.c ****                     *  will be generated immediately.
 231:.\Generated_Source\PSoC5/USBFS_hid.c ****                     */
 232:.\Generated_Source\PSoC5/USBFS_hid.c ****                     if(USBFS_hidIdleRate[interfaceNumber] <
 233:.\Generated_Source\PSoC5/USBFS_hid.c ****                        USBFS_hidIdleTimer[interfaceNumber])
 234:.\Generated_Source\PSoC5/USBFS_hid.c ****                     {
 235:.\Generated_Source\PSoC5/USBFS_hid.c ****                         /* Set the timer to zero and let the UpdateHIDTimer() API return IDLE_TIMER
 236:.\Generated_Source\PSoC5/USBFS_hid.c ****                         USBFS_hidIdleTimer[interfaceNumber] = 0u;
 237:.\Generated_Source\PSoC5/USBFS_hid.c ****                     }
 238:.\Generated_Source\PSoC5/USBFS_hid.c ****                     /* If the new request is received within 4 milliseconds
 239:.\Generated_Source\PSoC5/USBFS_hid.c ****                     *  (1 count) of the end of the current period, then the
 240:.\Generated_Source\PSoC5/USBFS_hid.c ****                     *  new request will have no effect until after the report.
 241:.\Generated_Source\PSoC5/USBFS_hid.c ****                     */
 242:.\Generated_Source\PSoC5/USBFS_hid.c ****                     else if(USBFS_hidIdleTimer[interfaceNumber] <= 1u)
 243:.\Generated_Source\PSoC5/USBFS_hid.c ****                     {
 244:.\Generated_Source\PSoC5/USBFS_hid.c ****                         /* Do nothing.
 245:.\Generated_Source\PSoC5/USBFS_hid.c ****                         * Let the UpdateHIDTimer() API continue to work and
 246:.\Generated_Source\PSoC5/USBFS_hid.c ****                         * return IDLE_TIMER_EXPIRED status
 247:.\Generated_Source\PSoC5/USBFS_hid.c ****                         */
 248:.\Generated_Source\PSoC5/USBFS_hid.c ****                     }
 249:.\Generated_Source\PSoC5/USBFS_hid.c ****                     else
 250:.\Generated_Source\PSoC5/USBFS_hid.c ****                     {   /* Reload the timer*/
 251:.\Generated_Source\PSoC5/USBFS_hid.c ****                         USBFS_hidIdleTimer[interfaceNumber] =
 252:.\Generated_Source\PSoC5/USBFS_hid.c ****                         USBFS_hidIdleRate[interfaceNumber];
 253:.\Generated_Source\PSoC5/USBFS_hid.c ****                     }
 254:.\Generated_Source\PSoC5/USBFS_hid.c ****                     requestHandled = USBFS_InitNoDataControlTransfer();
 255:.\Generated_Source\PSoC5/USBFS_hid.c ****                 }
 256:.\Generated_Source\PSoC5/USBFS_hid.c ****                 break;
 257:.\Generated_Source\PSoC5/USBFS_hid.c **** 
 258:.\Generated_Source\PSoC5/USBFS_hid.c ****             case USBFS_HID_SET_PROTOCOL:
 259:.\Generated_Source\PSoC5/USBFS_hid.c ****                 /* Validate interfaceNumber and protocol (must be 0 or 1) */
 260:.\Generated_Source\PSoC5/USBFS_hid.c ****                 if( (interfaceNumber < USBFS_MAX_INTERFACES_NUMBER) &&
 261:.\Generated_Source\PSoC5/USBFS_hid.c ****                     (CY_GET_REG8(USBFS_wValueLo) <= 1u) )
 262:.\Generated_Source\PSoC5/USBFS_hid.c ****                 {
 263:.\Generated_Source\PSoC5/USBFS_hid.c ****                     USBFS_hidProtocol[interfaceNumber] = CY_GET_REG8(USBFS_wValueLo);
 264:.\Generated_Source\PSoC5/USBFS_hid.c ****                     requestHandled = USBFS_InitNoDataControlTransfer();
 265:.\Generated_Source\PSoC5/USBFS_hid.c ****                 }
 266:.\Generated_Source\PSoC5/USBFS_hid.c ****                 break;
 267:.\Generated_Source\PSoC5/USBFS_hid.c ****             default:    /* requestHandled is initialezed as FALSE by default */
 268:.\Generated_Source\PSoC5/USBFS_hid.c ****                 break;
 269:.\Generated_Source\PSoC5/USBFS_hid.c ****         }
 270:.\Generated_Source\PSoC5/USBFS_hid.c ****     }
 271:.\Generated_Source\PSoC5/USBFS_hid.c ****     else
 272:.\Generated_Source\PSoC5/USBFS_hid.c ****     {   /* requestHandled is initialezed as FALSE by default */
 273:.\Generated_Source\PSoC5/USBFS_hid.c ****     }
 274:.\Generated_Source\PSoC5/USBFS_hid.c **** 
 275:.\Generated_Source\PSoC5/USBFS_hid.c ****     return(requestHandled);
 276:.\Generated_Source\PSoC5/USBFS_hid.c **** }
 277:.\Generated_Source\PSoC5/USBFS_hid.c **** 
 278:.\Generated_Source\PSoC5/USBFS_hid.c **** 
 279:.\Generated_Source\PSoC5/USBFS_hid.c **** /*******************************************************************************
 280:.\Generated_Source\PSoC5/USBFS_hid.c **** * Function Name: USB_FindHidClassDescriptor
 281:.\Generated_Source\PSoC5/USBFS_hid.c **** ********************************************************************************
 282:.\Generated_Source\PSoC5/USBFS_hid.c **** *
 283:.\Generated_Source\PSoC5/USBFS_hid.c **** * Summary:
 284:.\Generated_Source\PSoC5/USBFS_hid.c **** *  This routine find Hid Class Descriptor pointer based on the Interface number
ARM GAS  C:\DOCUME~1\ADMINI~1\LOCALS~1\Temp\ccQcc9CW.s 			page 8


 285:.\Generated_Source\PSoC5/USBFS_hid.c **** *  and Alternate setting then loads the currentTD structure with the address of
 286:.\Generated_Source\PSoC5/USBFS_hid.c **** *  the buffer and the size.
 287:.\Generated_Source\PSoC5/USBFS_hid.c **** *  The HID Class Descriptor resides inside the config descriptor.
 288:.\Generated_Source\PSoC5/USBFS_hid.c **** *
 289:.\Generated_Source\PSoC5/USBFS_hid.c **** * Parameters:
 290:.\Generated_Source\PSoC5/USBFS_hid.c **** *  None.
 291:.\Generated_Source\PSoC5/USBFS_hid.c **** *
 292:.\Generated_Source\PSoC5/USBFS_hid.c **** * Return:
 293:.\Generated_Source\PSoC5/USBFS_hid.c **** *  currentTD
 294:.\Generated_Source\PSoC5/USBFS_hid.c **** *
 295:.\Generated_Source\PSoC5/USBFS_hid.c **** * Reentrant:
 296:.\Generated_Source\PSoC5/USBFS_hid.c **** *  No.
 297:.\Generated_Source\PSoC5/USBFS_hid.c **** *
 298:.\Generated_Source\PSoC5/USBFS_hid.c **** *******************************************************************************/
 299:.\Generated_Source\PSoC5/USBFS_hid.c **** void USBFS_FindHidClassDecriptor() 
 300:.\Generated_Source\PSoC5/USBFS_hid.c **** {
 301:.\Generated_Source\PSoC5/USBFS_hid.c ****     T_USBFS_LUT *pTmp;
 302:.\Generated_Source\PSoC5/USBFS_hid.c ****     volatile uint8 *pDescr;
 303:.\Generated_Source\PSoC5/USBFS_hid.c ****     uint8 interfaceN;
 304:.\Generated_Source\PSoC5/USBFS_hid.c **** 
 305:.\Generated_Source\PSoC5/USBFS_hid.c ****     pTmp = USBFS_GetConfigTablePtr(USBFS_configuration - 1u);
 306:.\Generated_Source\PSoC5/USBFS_hid.c ****     interfaceN = CY_GET_REG8(USBFS_wIndexLo);
 307:.\Generated_Source\PSoC5/USBFS_hid.c ****     /* Third entry in the LUT starts the Interface Table pointers */
 308:.\Generated_Source\PSoC5/USBFS_hid.c ****     pTmp += 2;
 309:.\Generated_Source\PSoC5/USBFS_hid.c ****     /* Now use the request interface number*/
 310:.\Generated_Source\PSoC5/USBFS_hid.c ****     pTmp = &pTmp[interfaceN];
 311:.\Generated_Source\PSoC5/USBFS_hid.c ****     /*USB_DEVICEx_CONFIGURATIONy_INTERFACEz_TABLE*/
 312:.\Generated_Source\PSoC5/USBFS_hid.c ****     pTmp = (T_USBFS_LUT *) pTmp->p_list;
 313:.\Generated_Source\PSoC5/USBFS_hid.c ****     /* Now use Alternate setting number */
 314:.\Generated_Source\PSoC5/USBFS_hid.c ****     pTmp = &pTmp[USBFS_interfaceSetting[interfaceN]];
 315:.\Generated_Source\PSoC5/USBFS_hid.c ****     /*USB_DEVICEx_CONFIGURATIONy_INTERFACEz_ALTERNATEi_HID_TABLE*/
 316:.\Generated_Source\PSoC5/USBFS_hid.c ****     pTmp = (T_USBFS_LUT *) pTmp->p_list;
 317:.\Generated_Source\PSoC5/USBFS_hid.c ****     /* Fifth entry in the LUT points to Hid Class Descriptor in Configuration Descriptor*/
 318:.\Generated_Source\PSoC5/USBFS_hid.c ****     pTmp += 4;
 319:.\Generated_Source\PSoC5/USBFS_hid.c ****     pDescr = (volatile uint8 *)pTmp->p_list;
 320:.\Generated_Source\PSoC5/USBFS_hid.c ****     USBFS_currentTD.count = pDescr[0u];
 321:.\Generated_Source\PSoC5/USBFS_hid.c ****     USBFS_currentTD.pData = pDescr;
 322:.\Generated_Source\PSoC5/USBFS_hid.c **** }
 323:.\Generated_Source\PSoC5/USBFS_hid.c **** 
 324:.\Generated_Source\PSoC5/USBFS_hid.c **** 
 325:.\Generated_Source\PSoC5/USBFS_hid.c **** /*******************************************************************************
 326:.\Generated_Source\PSoC5/USBFS_hid.c **** * Function Name: USB_FindReportDescriptor
 327:.\Generated_Source\PSoC5/USBFS_hid.c **** ********************************************************************************
 328:.\Generated_Source\PSoC5/USBFS_hid.c **** *
 329:.\Generated_Source\PSoC5/USBFS_hid.c **** * Summary:
 330:.\Generated_Source\PSoC5/USBFS_hid.c **** *  This routine find Hid Report Descriptor pointer based on the Interface
 331:.\Generated_Source\PSoC5/USBFS_hid.c **** *  number, then loads the currentTD structure with the address of the buffer
 332:.\Generated_Source\PSoC5/USBFS_hid.c **** *  and the size.
 333:.\Generated_Source\PSoC5/USBFS_hid.c **** *  Hid Report Descriptor is located after IN/OUT/FEATURE reports.
 334:.\Generated_Source\PSoC5/USBFS_hid.c **** *
 335:.\Generated_Source\PSoC5/USBFS_hid.c **** * Parameters:
 336:.\Generated_Source\PSoC5/USBFS_hid.c **** *   void
 337:.\Generated_Source\PSoC5/USBFS_hid.c **** *
 338:.\Generated_Source\PSoC5/USBFS_hid.c **** * Return:
 339:.\Generated_Source\PSoC5/USBFS_hid.c **** *  currentTD
 340:.\Generated_Source\PSoC5/USBFS_hid.c **** *
 341:.\Generated_Source\PSoC5/USBFS_hid.c **** * Reentrant:
ARM GAS  C:\DOCUME~1\ADMINI~1\LOCALS~1\Temp\ccQcc9CW.s 			page 9


 342:.\Generated_Source\PSoC5/USBFS_hid.c **** *  No.
 343:.\Generated_Source\PSoC5/USBFS_hid.c **** *
 344:.\Generated_Source\PSoC5/USBFS_hid.c **** *******************************************************************************/
 345:.\Generated_Source\PSoC5/USBFS_hid.c **** void USBFS_FindReportDescriptor() 
 346:.\Generated_Source\PSoC5/USBFS_hid.c **** {
 347:.\Generated_Source\PSoC5/USBFS_hid.c ****     T_USBFS_LUT *pTmp;
 348:.\Generated_Source\PSoC5/USBFS_hid.c ****     volatile uint8 *pDescr;
 349:.\Generated_Source\PSoC5/USBFS_hid.c ****     uint8 interfaceN;
 350:.\Generated_Source\PSoC5/USBFS_hid.c **** 
 351:.\Generated_Source\PSoC5/USBFS_hid.c ****     pTmp = USBFS_GetConfigTablePtr(USBFS_configuration - 1u);
 352:.\Generated_Source\PSoC5/USBFS_hid.c ****     interfaceN = CY_GET_REG8(USBFS_wIndexLo);
 353:.\Generated_Source\PSoC5/USBFS_hid.c ****     /* Third entry in the LUT starts the Interface Table pointers */
 354:.\Generated_Source\PSoC5/USBFS_hid.c ****     pTmp += 2u;
 355:.\Generated_Source\PSoC5/USBFS_hid.c ****     /* Now use the request interface number*/
 356:.\Generated_Source\PSoC5/USBFS_hid.c ****     pTmp = &pTmp[interfaceN];
 357:.\Generated_Source\PSoC5/USBFS_hid.c ****     /*USB_DEVICEx_CONFIGURATIONy_INTERFACEz_TABLE*/
 358:.\Generated_Source\PSoC5/USBFS_hid.c ****     pTmp = (T_USBFS_LUT *) pTmp->p_list;
 359:.\Generated_Source\PSoC5/USBFS_hid.c ****     /* Now use Alternate setting number */
 360:.\Generated_Source\PSoC5/USBFS_hid.c ****     pTmp = &pTmp[USBFS_interfaceSetting[interfaceN]];
 361:.\Generated_Source\PSoC5/USBFS_hid.c ****     /*USB_DEVICEx_CONFIGURATIONy_INTERFACEz_ALTERNATEi_HID_TABLE*/
 362:.\Generated_Source\PSoC5/USBFS_hid.c ****     pTmp = (T_USBFS_LUT *) pTmp->p_list;
 363:.\Generated_Source\PSoC5/USBFS_hid.c ****     /* Fourth entry in the LUT starts the Hid Report Descriptor */
 364:.\Generated_Source\PSoC5/USBFS_hid.c ****     pTmp += 3;
 365:.\Generated_Source\PSoC5/USBFS_hid.c ****     pDescr = (volatile uint8 *)pTmp->p_list;
 366:.\Generated_Source\PSoC5/USBFS_hid.c ****     USBFS_currentTD.count =  (((uint16)pDescr[1] << 8u) | pDescr[0u]);
 367:.\Generated_Source\PSoC5/USBFS_hid.c ****     USBFS_currentTD.pData = &pDescr[2u];
 368:.\Generated_Source\PSoC5/USBFS_hid.c **** }
 369:.\Generated_Source\PSoC5/USBFS_hid.c **** 
 370:.\Generated_Source\PSoC5/USBFS_hid.c **** 
 371:.\Generated_Source\PSoC5/USBFS_hid.c **** /*******************************************************************************
 372:.\Generated_Source\PSoC5/USBFS_hid.c **** * Function Name: USBFS_FindReport
 373:.\Generated_Source\PSoC5/USBFS_hid.c **** ********************************************************************************
 374:.\Generated_Source\PSoC5/USBFS_hid.c **** *
 375:.\Generated_Source\PSoC5/USBFS_hid.c **** * Summary:
 376:.\Generated_Source\PSoC5/USBFS_hid.c **** *  This routine sets up a transfer based on the Interface number, Report Type
 377:.\Generated_Source\PSoC5/USBFS_hid.c **** *  and Report ID, then loads the currentTD structure with the address of the
 378:.\Generated_Source\PSoC5/USBFS_hid.c **** *  buffer and the size.  The caller has to decide if it is a control read or
 379:.\Generated_Source\PSoC5/USBFS_hid.c **** *  control write.
 380:.\Generated_Source\PSoC5/USBFS_hid.c **** *
 381:.\Generated_Source\PSoC5/USBFS_hid.c **** * Parameters:
 382:.\Generated_Source\PSoC5/USBFS_hid.c **** *  None.
 383:.\Generated_Source\PSoC5/USBFS_hid.c **** *
 384:.\Generated_Source\PSoC5/USBFS_hid.c **** * Return:
 385:.\Generated_Source\PSoC5/USBFS_hid.c **** *  currentTD
 386:.\Generated_Source\PSoC5/USBFS_hid.c **** *
 387:.\Generated_Source\PSoC5/USBFS_hid.c **** * Reentrant:
 388:.\Generated_Source\PSoC5/USBFS_hid.c **** *  No.
 389:.\Generated_Source\PSoC5/USBFS_hid.c **** *
 390:.\Generated_Source\PSoC5/USBFS_hid.c **** *******************************************************************************/
 391:.\Generated_Source\PSoC5/USBFS_hid.c **** void USBFS_FindReport() 
 392:.\Generated_Source\PSoC5/USBFS_hid.c **** {
 112              		.loc 1 392 0
 113              		.cfi_startproc
 114              		@ args = 0, pretend = 0, frame = 0
 115              		@ frame_needed = 0, uses_anonymous_args = 0
 116 0000 10B5     		push	{r4, lr}
 117              	.LCFI0:
ARM GAS  C:\DOCUME~1\ADMINI~1\LOCALS~1\Temp\ccQcc9CW.s 			page 10


 118              		.cfi_def_cfa_offset 8
 393:.\Generated_Source\PSoC5/USBFS_hid.c ****     T_USBFS_LUT *pTmp;
 394:.\Generated_Source\PSoC5/USBFS_hid.c ****     T_USBFS_TD *pTD;
 395:.\Generated_Source\PSoC5/USBFS_hid.c ****     uint8 interfaceN;
 396:.\Generated_Source\PSoC5/USBFS_hid.c ****     uint8 reportType;
 397:.\Generated_Source\PSoC5/USBFS_hid.c **** 
 398:.\Generated_Source\PSoC5/USBFS_hid.c ****     /* `#START HID_FINDREPORT` Place custom handling here */
 399:.\Generated_Source\PSoC5/USBFS_hid.c **** 
 400:.\Generated_Source\PSoC5/USBFS_hid.c ****     /* `#END` */
 401:.\Generated_Source\PSoC5/USBFS_hid.c ****     USBFS_currentTD.count = 0u;   /* Init not supported condition */
 119              		.loc 1 401 0
 120 0002 174C     		ldr	r4, .L16
 121              		.cfi_offset 14, -4
 122              		.cfi_offset 4, -8
 123 0004 4FF00003 		mov	r3, #0	@ movhi
 124 0008 2380     		strh	r3, [r4, #0]	@ movhi
 402:.\Generated_Source\PSoC5/USBFS_hid.c ****     pTmp = USBFS_GetConfigTablePtr(USBFS_configuration - 1u);
 125              		.loc 1 402 0
 126 000a 164B     		ldr	r3, .L16+4
 127 000c 1878     		ldrb	r0, [r3, #0]	@ zero_extendqisi2
 128 000e 0138     		subs	r0, r0, #1
 129 0010 C0B2     		uxtb	r0, r0
 130 0012 FFF7FEFF 		bl	USBFS_GetConfigTablePtr
 403:.\Generated_Source\PSoC5/USBFS_hid.c ****     reportType = CY_GET_REG8(USBFS_wValueHi);
 131              		.loc 1 403 0
 132 0016 144B     		ldr	r3, .L16+8
 133 0018 1A78     		ldrb	r2, [r3, #0]	@ zero_extendqisi2
 404:.\Generated_Source\PSoC5/USBFS_hid.c ****     interfaceN = CY_GET_REG8(USBFS_wIndexLo);
 134              		.loc 1 404 0
 135 001a 0133     		adds	r3, r3, #1
 136 001c 1B78     		ldrb	r3, [r3, #0]	@ zero_extendqisi2
 405:.\Generated_Source\PSoC5/USBFS_hid.c ****     /* Third entry in the LUT COnfiguration Table starts the Interface Table pointers */
 406:.\Generated_Source\PSoC5/USBFS_hid.c ****     pTmp += 2;
 407:.\Generated_Source\PSoC5/USBFS_hid.c ****     /* Now use the request interface number */
 408:.\Generated_Source\PSoC5/USBFS_hid.c ****     pTmp = &pTmp[interfaceN];
 409:.\Generated_Source\PSoC5/USBFS_hid.c ****     /*USB_DEVICEx_CONFIGURATIONy_INTERFACEz_TABLE*/
 410:.\Generated_Source\PSoC5/USBFS_hid.c ****     pTmp = (T_USBFS_LUT *) pTmp->p_list;
 137              		.loc 1 410 0
 138 001e 00EBC300 		add	r0, r0, r3, lsl #3
 139              	.LVL9:
 140 0022 4169     		ldr	r1, [r0, #20]
 411:.\Generated_Source\PSoC5/USBFS_hid.c ****     if(interfaceN < USBFS_MAX_INTERFACES_NUMBER)
 141              		.loc 1 411 0
 142 0024 D3B9     		cbnz	r3, .L15
 412:.\Generated_Source\PSoC5/USBFS_hid.c ****     {
 413:.\Generated_Source\PSoC5/USBFS_hid.c ****         /* Now use Alternate setting number */
 414:.\Generated_Source\PSoC5/USBFS_hid.c ****         pTmp = &pTmp[USBFS_interfaceSetting[interfaceN]];
 143              		.loc 1 414 0
 144 0026 114B     		ldr	r3, .L16+12
 145              	.LVL10:
 415:.\Generated_Source\PSoC5/USBFS_hid.c ****         /*USB_DEVICEx_CONFIGURATIONy_INTERFACEz_ALTERNATEi_HID_TABLE*/
 416:.\Generated_Source\PSoC5/USBFS_hid.c ****         pTmp = (T_USBFS_LUT *) pTmp->p_list;
 417:.\Generated_Source\PSoC5/USBFS_hid.c ****         /* Validate reportType to comply with "7.2.1 Get_Report Request" */
 418:.\Generated_Source\PSoC5/USBFS_hid.c ****         if((reportType >= USBFS_HID_GET_REPORT_INPUT) &&
 146              		.loc 1 418 0
 147 0028 013A     		subs	r2, r2, #1
 148              	.LVL11:
ARM GAS  C:\DOCUME~1\ADMINI~1\LOCALS~1\Temp\ccQcc9CW.s 			page 11


 149              		.loc 1 414 0
 150 002a 1B78     		ldrb	r3, [r3, #0]	@ zero_extendqisi2
 151              		.loc 1 416 0
 152 002c 01EBC303 		add	r3, r1, r3, lsl #3
 153 0030 5968     		ldr	r1, [r3, #4]
 154              		.loc 1 418 0
 155 0032 D3B2     		uxtb	r3, r2
 156 0034 022B     		cmp	r3, #2
 157 0036 11D8     		bhi	.L15
 419:.\Generated_Source\PSoC5/USBFS_hid.c ****            (reportType <= USBFS_HID_GET_REPORT_FEATURE))
 420:.\Generated_Source\PSoC5/USBFS_hid.c ****         {
 421:.\Generated_Source\PSoC5/USBFS_hid.c ****             /* Get the entry proper TD (IN, OUT or Feature Report Table)*/
 422:.\Generated_Source\PSoC5/USBFS_hid.c ****             pTmp = &pTmp[reportType - 1u];
 423:.\Generated_Source\PSoC5/USBFS_hid.c ****             reportType = CY_GET_REG8(USBFS_wValueLo);    /* Get reportID */
 158              		.loc 1 423 0
 159 0038 0D4B     		ldr	r3, .L16+16
 160              		.loc 1 422 0
 161 003a 01EBC200 		add	r0, r1, r2, lsl #3
 162              	.LVL12:
 163              		.loc 1 423 0
 164 003e 1B78     		ldrb	r3, [r3, #0]	@ zero_extendqisi2
 424:.\Generated_Source\PSoC5/USBFS_hid.c ****             /* Validate table support by the HID descriptor, compare table count with reportID */
 425:.\Generated_Source\PSoC5/USBFS_hid.c ****             if(pTmp->c >= reportType)
 165              		.loc 1 425 0
 166 0040 11F83220 		ldrb	r2, [r1, r2, lsl #3]	@ zero_extendqisi2
 167 0044 9A42     		cmp	r2, r3
 168              	.LVL13:
 169 0046 09D3     		bcc	.L15
 426:.\Generated_Source\PSoC5/USBFS_hid.c ****             {
 427:.\Generated_Source\PSoC5/USBFS_hid.c ****                 pTD = (T_USBFS_TD *) pTmp->p_list;
 428:.\Generated_Source\PSoC5/USBFS_hid.c ****                 pTD = &pTD[reportType];                          /* select entry depend on report I
 170              		.loc 1 428 0
 171 0048 0C22     		movs	r2, #12
 172 004a 5A43     		muls	r2, r3, r2
 173              		.loc 1 427 0
 174 004c 4168     		ldr	r1, [r0, #4]
 175              	.LVL14:
 176              		.loc 1 428 0
 177 004e 8B18     		adds	r3, r1, r2
 178              	.LVL15:
 429:.\Generated_Source\PSoC5/USBFS_hid.c ****                 USBFS_currentTD.pData = pTD->pData;   /* Bufer pointer */
 179              		.loc 1 429 0
 180 0050 5868     		ldr	r0, [r3, #4]
 181              	.LVL16:
 430:.\Generated_Source\PSoC5/USBFS_hid.c ****                 USBFS_currentTD.count = pTD->count;   /* Bufer Size */
 182              		.loc 1 430 0
 183 0052 8A5A     		ldrh	r2, [r1, r2]
 431:.\Generated_Source\PSoC5/USBFS_hid.c ****                 USBFS_currentTD.pStatusBlock = pTD->pStatusBlock;
 184              		.loc 1 431 0
 185 0054 9B68     		ldr	r3, [r3, #8]
 186              	.LVL17:
 187              		.loc 1 429 0
 188 0056 6060     		str	r0, [r4, #4]
 189              		.loc 1 430 0
 190 0058 2280     		strh	r2, [r4, #0]	@ movhi
 191              		.loc 1 431 0
 192 005a A360     		str	r3, [r4, #8]
ARM GAS  C:\DOCUME~1\ADMINI~1\LOCALS~1\Temp\ccQcc9CW.s 			page 12


 193              	.LVL18:
 194              	.L15:
 195 005c 10BD     		pop	{r4, pc}
 196              	.L17:
 197 005e 00BF     		.align	2
 198              	.L16:
 199 0060 00000000 		.word	USBFS_currentTD
 200 0064 00000000 		.word	USBFS_configuration
 201 0068 03600040 		.word	1073766403
 202 006c 00000000 		.word	USBFS_interfaceSetting
 203 0070 02600040 		.word	1073766402
 204              		.cfi_endproc
 205              	.LFE5:
 206              		.size	USBFS_FindReport, .-USBFS_FindReport
 207              		.section	.text.USBFS_FindReportDescriptor,"ax",%progbits
 208              		.align	1
 209              		.global	USBFS_FindReportDescriptor
 210              		.thumb
 211              		.thumb_func
 212              		.type	USBFS_FindReportDescriptor, %function
 213              	USBFS_FindReportDescriptor:
 214              	.LFB4:
 215              		.loc 1 346 0
 216              		.cfi_startproc
 217              		@ args = 0, pretend = 0, frame = 0
 218              		@ frame_needed = 0, uses_anonymous_args = 0
 219 0000 08B5     		push	{r3, lr}
 220              	.LCFI1:
 221              		.cfi_def_cfa_offset 8
 222              		.loc 1 351 0
 223 0002 0D4B     		ldr	r3, .L20
 224              		.cfi_offset 14, -4
 225              		.cfi_offset 3, -8
 226 0004 1878     		ldrb	r0, [r3, #0]	@ zero_extendqisi2
 227 0006 0138     		subs	r0, r0, #1
 228 0008 C0B2     		uxtb	r0, r0
 229 000a FFF7FEFF 		bl	USBFS_GetConfigTablePtr
 230              		.loc 1 352 0
 231 000e 0B4B     		ldr	r3, .L20+4
 232              		.loc 1 360 0
 233 0010 0B49     		ldr	r1, .L20+8
 234              		.loc 1 352 0
 235 0012 1B78     		ldrb	r3, [r3, #0]	@ zero_extendqisi2
 236              		.loc 1 358 0
 237 0014 00EBC300 		add	r0, r0, r3, lsl #3
 238              	.LVL19:
 239 0018 4269     		ldr	r2, [r0, #20]
 240              		.loc 1 360 0
 241 001a CB5C     		ldrb	r3, [r1, r3]	@ zero_extendqisi2
 242              	.LVL20:
 243              		.loc 1 362 0
 244 001c 02EBC303 		add	r3, r2, r3, lsl #3
 245 0020 5B68     		ldr	r3, [r3, #4]
 246              		.loc 1 365 0
 247 0022 DB69     		ldr	r3, [r3, #28]
 248              	.LVL21:
 249              		.loc 1 366 0
ARM GAS  C:\DOCUME~1\ADMINI~1\LOCALS~1\Temp\ccQcc9CW.s 			page 13


 250 0024 5978     		ldrb	r1, [r3, #1]	@ zero_extendqisi2
 251 0026 13F8022B 		ldrb	r2, [r3], #2	@ zero_extendqisi2
 252              	.LVL22:
 253 002a 42EA0121 		orr	r1, r2, r1, lsl #8
 254 002e 054A     		ldr	r2, .L20+12
 255 0030 1180     		strh	r1, [r2, #0]	@ movhi
 256              		.loc 1 367 0
 257 0032 5360     		str	r3, [r2, #4]
 258              		.loc 1 368 0
 259 0034 08BD     		pop	{r3, pc}
 260              	.L21:
 261 0036 00BF     		.align	2
 262              	.L20:
 263 0038 00000000 		.word	USBFS_configuration
 264 003c 04600040 		.word	1073766404
 265 0040 00000000 		.word	USBFS_interfaceSetting
 266 0044 00000000 		.word	USBFS_currentTD
 267              		.cfi_endproc
 268              	.LFE4:
 269              		.size	USBFS_FindReportDescriptor, .-USBFS_FindReportDescriptor
 270              		.section	.text.USBFS_FindHidClassDecriptor,"ax",%progbits
 271              		.align	1
 272              		.global	USBFS_FindHidClassDecriptor
 273              		.thumb
 274              		.thumb_func
 275              		.type	USBFS_FindHidClassDecriptor, %function
 276              	USBFS_FindHidClassDecriptor:
 277              	.LFB3:
 278              		.loc 1 300 0
 279              		.cfi_startproc
 280              		@ args = 0, pretend = 0, frame = 0
 281              		@ frame_needed = 0, uses_anonymous_args = 0
 282 0000 08B5     		push	{r3, lr}
 283              	.LCFI2:
 284              		.cfi_def_cfa_offset 8
 285              		.loc 1 305 0
 286 0002 0B4B     		ldr	r3, .L24
 287              		.cfi_offset 14, -4
 288              		.cfi_offset 3, -8
 289 0004 1878     		ldrb	r0, [r3, #0]	@ zero_extendqisi2
 290 0006 0138     		subs	r0, r0, #1
 291 0008 C0B2     		uxtb	r0, r0
 292 000a FFF7FEFF 		bl	USBFS_GetConfigTablePtr
 293              		.loc 1 306 0
 294 000e 094B     		ldr	r3, .L24+4
 295              		.loc 1 314 0
 296 0010 0949     		ldr	r1, .L24+8
 297              		.loc 1 306 0
 298 0012 1B78     		ldrb	r3, [r3, #0]	@ zero_extendqisi2
 299              		.loc 1 312 0
 300 0014 00EBC300 		add	r0, r0, r3, lsl #3
 301              	.LVL23:
 302 0018 4269     		ldr	r2, [r0, #20]
 303              		.loc 1 314 0
 304 001a CB5C     		ldrb	r3, [r1, r3]	@ zero_extendqisi2
 305              	.LVL24:
 306              		.loc 1 316 0
ARM GAS  C:\DOCUME~1\ADMINI~1\LOCALS~1\Temp\ccQcc9CW.s 			page 14


 307 001c 02EBC303 		add	r3, r2, r3, lsl #3
 308 0020 5B68     		ldr	r3, [r3, #4]
 309              		.loc 1 319 0
 310 0022 5A6A     		ldr	r2, [r3, #36]
 311              	.LVL25:
 312              		.loc 1 320 0
 313 0024 054B     		ldr	r3, .L24+12
 314 0026 1178     		ldrb	r1, [r2, #0]	@ zero_extendqisi2
 315 0028 1980     		strh	r1, [r3, #0]	@ movhi
 316              		.loc 1 321 0
 317 002a 5A60     		str	r2, [r3, #4]
 318              		.loc 1 322 0
 319 002c 08BD     		pop	{r3, pc}
 320              	.L25:
 321 002e 00BF     		.align	2
 322              	.L24:
 323 0030 00000000 		.word	USBFS_configuration
 324 0034 04600040 		.word	1073766404
 325 0038 00000000 		.word	USBFS_interfaceSetting
 326 003c 00000000 		.word	USBFS_currentTD
 327              		.cfi_endproc
 328              	.LFE3:
 329              		.size	USBFS_FindHidClassDecriptor, .-USBFS_FindHidClassDecriptor
 330              		.section	.text.USBFS_DispatchHIDClassRqst,"ax",%progbits
 331              		.align	1
 332              		.global	USBFS_DispatchHIDClassRqst
 333              		.thumb
 334              		.thumb_func
 335              		.type	USBFS_DispatchHIDClassRqst, %function
 336              	USBFS_DispatchHIDClassRqst:
 337              	.LFB2:
 338              		.loc 1 146 0
 339              		.cfi_startproc
 340              		@ args = 0, pretend = 0, frame = 0
 341              		@ frame_needed = 0, uses_anonymous_args = 0
 342 0000 10B5     		push	{r4, lr}
 343              	.LCFI3:
 344              		.cfi_def_cfa_offset 8
 345              		.loc 1 150 0
 346 0002 3D4B     		ldr	r3, .L52
 347              		.loc 1 151 0
 348 0004 3D4A     		ldr	r2, .L52+4
 349              		.loc 1 150 0
 350 0006 1B78     		ldrb	r3, [r3, #0]	@ zero_extendqisi2
 351              		.loc 1 151 0
 352 0008 1178     		ldrb	r1, [r2, #0]	@ zero_extendqisi2
 353 000a 11F0800F 		tst	r1, #128
 354 000e 35D0     		beq	.L27
 355              		.cfi_offset 14, -4
 356              		.cfi_offset 4, -8
 357              		.loc 1 153 0
 358 0010 0132     		adds	r2, r2, #1
 359 0012 1278     		ldrb	r2, [r2, #0]	@ zero_extendqisi2
 360 0014 013A     		subs	r2, r2, #1
 361 0016 052A     		cmp	r2, #5
 362 0018 6CD8     		bhi	.L28
 363 001a DFE802F0 		tbb	[pc, r2]
ARM GAS  C:\DOCUME~1\ADMINI~1\LOCALS~1\Temp\ccQcc9CW.s 			page 15


 364              	.L33:
 365 001e 10       		.byte	(.L29-.L33)/2
 366 001f 17       		.byte	(.L30-.L33)/2
 367 0020 27       		.byte	(.L31-.L33)/2
 368 0021 6B       		.byte	(.L28-.L33)/2
 369 0022 6B       		.byte	(.L28-.L33)/2
 370 0023 03       		.byte	(.L32-.L33)/2
 371              		.align	1
 372              	.L32:
 373              		.loc 1 156 0
 374 0024 364B     		ldr	r3, .L52+8
 375 0026 1A78     		ldrb	r2, [r3, #0]	@ zero_extendqisi2
 376 0028 212A     		cmp	r2, #33
 377 002a 02D1     		bne	.L34
 378              		.loc 1 158 0
 379 002c FFF7FEFF 		bl	USBFS_FindHidClassDecriptor
 380 0030 07E0     		b	.L47
 381              	.L34:
 382              		.loc 1 164 0
 383 0032 1B78     		ldrb	r3, [r3, #0]	@ zero_extendqisi2
 384 0034 222B     		cmp	r3, #34
 385 0036 5DD1     		bne	.L28
 386              		.loc 1 166 0
 387 0038 FFF7FEFF 		bl	USBFS_FindReportDescriptor
 388 003c 01E0     		b	.L47
 389              	.L29:
 390              		.loc 1 177 0
 391 003e FFF7FEFF 		bl	USBFS_FindReport
 392              	.L47:
 393              		.loc 1 178 0
 394 0042 304B     		ldr	r3, .L52+12
 395 0044 1B88     		ldrh	r3, [r3, #0]
 396 0046 002B     		cmp	r3, #0
 397 0048 54D0     		beq	.L28
 398 004a 0BE0     		b	.L44
 399              	.L30:
 400              		.loc 1 187 0
 401 004c 002B     		cmp	r3, #0
 402 004e 51D1     		bne	.L28
 403              	.LVL26:
 404              		.loc 1 188 0
 405 0050 2D4B     		ldr	r3, .L52+16
 406              	.LVL27:
 407 0052 1B78     		ldrb	r3, [r3, #0]	@ zero_extendqisi2
 408              		.loc 1 187 0
 409 0054 002B     		cmp	r3, #0
 410 0056 4DD1     		bne	.L28
 411              		.loc 1 190 0
 412 0058 2A4B     		ldr	r3, .L52+12
 413 005a 4FF00102 		mov	r2, #1	@ movhi
 414 005e 1A80     		strh	r2, [r3, #0]	@ movhi
 415              		.loc 1 191 0
 416 0060 2A4A     		ldr	r2, .L52+20
 417              	.L45:
 418 0062 5A60     		str	r2, [r3, #4]
 419              	.L44:
 420              		.loc 1 276 0
ARM GAS  C:\DOCUME~1\ADMINI~1\LOCALS~1\Temp\ccQcc9CW.s 			page 16


 421 0064 BDE81040 		pop	{r4, lr}
 422              		.loc 1 192 0
 423 0068 FFF7FEBF 		b	USBFS_InitControlRead
 424              	.L31:
 425              		.loc 1 197 0
 426 006c 002B     		cmp	r3, #0
 427 006e 41D1     		bne	.L28
 428              	.LVL28:
 429              		.loc 1 199 0
 430 0070 244B     		ldr	r3, .L52+12
 431              	.LVL29:
 432 0072 4FF00101 		mov	r1, #1	@ movhi
 433 0076 1980     		strh	r1, [r3, #0]	@ movhi
 434              		.loc 1 200 0
 435 0078 254A     		ldr	r2, .L52+24
 436 007a F2E7     		b	.L45
 437              	.L27:
 438              		.loc 1 208 0
 439 007c 1278     		ldrb	r2, [r2, #0]	@ zero_extendqisi2
 440 007e 12F0800F 		tst	r2, #128
 441 0082 37D1     		bne	.L28
 442              		.loc 1 211 0
 443 0084 234A     		ldr	r2, .L52+28
 444 0086 1278     		ldrb	r2, [r2, #0]	@ zero_extendqisi2
 445 0088 092A     		cmp	r2, #9
 446 008a 05D0     		beq	.L35
 447 008c 32D3     		bcc	.L28
 448 008e 0A2A     		cmp	r2, #10
 449 0090 0CD0     		beq	.L36
 450 0092 0B2A     		cmp	r2, #11
 451 0094 2ED1     		bne	.L28
 452 0096 21E0     		b	.L51
 453              	.L35:
 454              		.loc 1 214 0
 455 0098 FFF7FEFF 		bl	USBFS_FindReport
 456              		.loc 1 215 0
 457 009c 194B     		ldr	r3, .L52+12
 458 009e 1B88     		ldrh	r3, [r3, #0]
 459 00a0 002B     		cmp	r3, #0
 460 00a2 27D0     		beq	.L28
 461              		.loc 1 276 0
 462 00a4 BDE81040 		pop	{r4, lr}
 463              		.loc 1 217 0
 464 00a8 FFF7FEBF 		b	USBFS_InitControlWrite
 465              	.L36:
 466              		.loc 1 223 0
 467 00ac 002B     		cmp	r3, #0
 468 00ae 21D1     		bne	.L28
 469              	.LVL30:
 470              		.loc 1 224 0
 471 00b0 154B     		ldr	r3, .L52+16
 472              	.LVL31:
 473 00b2 1B78     		ldrb	r3, [r3, #0]	@ zero_extendqisi2
 474              		.loc 1 223 0
 475 00b4 1946     		mov	r1, r3
 476 00b6 002B     		cmp	r3, #0
 477 00b8 1CD1     		bne	.L28
ARM GAS  C:\DOCUME~1\ADMINI~1\LOCALS~1\Temp\ccQcc9CW.s 			page 17


 478              		.loc 1 226 0
 479 00ba 114B     		ldr	r3, .L52+8
 480 00bc 134A     		ldr	r2, .L52+20
 481 00be 1B78     		ldrb	r3, [r3, #0]	@ zero_extendqisi2
 482 00c0 1370     		strb	r3, [r2, #0]
 483              		.loc 1 233 0
 484 00c2 154B     		ldr	r3, .L52+32
 485              		.loc 1 232 0
 486 00c4 92F800C0 		ldrb	ip, [r2, #0]	@ zero_extendqisi2
 487              		.loc 1 233 0
 488 00c8 1878     		ldrb	r0, [r3, #0]	@ zero_extendqisi2
 489              		.loc 1 232 0
 490 00ca 8445     		cmp	ip, r0
 491 00cc 01D2     		bcs	.L38
 492              		.loc 1 236 0
 493 00ce 1970     		strb	r1, [r3, #0]
 494 00d0 0CE0     		b	.L43
 495              	.L38:
 496              		.loc 1 242 0
 497 00d2 1978     		ldrb	r1, [r3, #0]	@ zero_extendqisi2
 498 00d4 0129     		cmp	r1, #1
 499 00d6 09D9     		bls	.L43
 500              		.loc 1 252 0
 501 00d8 1278     		ldrb	r2, [r2, #0]	@ zero_extendqisi2
 502 00da 06E0     		b	.L49
 503              	.L51:
 504              		.loc 1 260 0
 505 00dc 53B9     		cbnz	r3, .L28
 506              	.LVL32:
 507              		.loc 1 261 0
 508 00de 0A4B     		ldr	r3, .L52+16
 509              	.LVL33:
 510 00e0 1A78     		ldrb	r2, [r3, #0]	@ zero_extendqisi2
 511              		.loc 1 260 0
 512 00e2 012A     		cmp	r2, #1
 513 00e4 06D8     		bhi	.L28
 514              		.loc 1 263 0
 515 00e6 1A78     		ldrb	r2, [r3, #0]	@ zero_extendqisi2
 516 00e8 094B     		ldr	r3, .L52+24
 517              	.L49:
 518 00ea 1A70     		strb	r2, [r3, #0]
 519              	.L43:
 520              		.loc 1 276 0
 521 00ec BDE81040 		pop	{r4, lr}
 522              		.loc 1 264 0
 523 00f0 FFF7FEBF 		b	USBFS_InitNoDataControlTransfer
 524              	.LVL34:
 525              	.L28:
 526              		.loc 1 276 0
 527 00f4 0020     		movs	r0, #0
 528 00f6 10BD     		pop	{r4, pc}
 529              	.L53:
 530              		.align	2
 531              	.L52:
 532 00f8 04600040 		.word	1073766404
 533 00fc 00600040 		.word	1073766400
 534 0100 03600040 		.word	1073766403
ARM GAS  C:\DOCUME~1\ADMINI~1\LOCALS~1\Temp\ccQcc9CW.s 			page 18


 535 0104 00000000 		.word	USBFS_currentTD
 536 0108 02600040 		.word	1073766402
 537 010c 00000000 		.word	USBFS_hidIdleRate
 538 0110 00000000 		.word	USBFS_hidProtocol
 539 0114 01600040 		.word	1073766401
 540 0118 00000000 		.word	USBFS_hidIdleTimer
 541              		.cfi_endproc
 542              	.LFE2:
 543              		.size	USBFS_DispatchHIDClassRqst, .-USBFS_DispatchHIDClassRqst
 544              		.comm	USBFS_hidProtocol,1,4
 545              		.comm	USBFS_hidIdleRate,1,4
 546              		.comm	USBFS_hidIdleTimer,1,4
 547              		.text
 548              	.Letext0: