ARM GAS  C:\DOCUME~1\ADMINI~1\LOCALS~1\Temp\ccu4IdVL.s 			page 1


   1              		.syntax unified
   2              		.cpu cortex-m3
   3              		.fpu softvfp
   4              		.eabi_attribute 20, 1
   5              		.eabi_attribute 21, 1
   6              		.eabi_attribute 23, 3
   7              		.eabi_attribute 24, 1
   8              		.eabi_attribute 25, 1
   9              		.eabi_attribute 26, 1
  10              		.eabi_attribute 30, 4
  11              		.eabi_attribute 18, 4
  12              		.thumb
  13              		.file	"USBFS_boot.c"
  20 0000 F4000000 		.text
  20      02006300 
  20      00000201 
  20      FB0E0D00 
  20      01010101 
  21              	.Ltext0:
  22              		.cfi_sections	.debug_frame
  23              		.section	.text.USBFS_CyBtldrCommWrite,"ax",%progbits
  24              		.align	1
  25              		.global	USBFS_CyBtldrCommWrite
  26              		.thumb
  27              		.thumb_func
  28              		.type	USBFS_CyBtldrCommWrite, %function
  29              	USBFS_CyBtldrCommWrite:
  30              	.LFB3:
  31              		.file 1 ".\\Generated_Source\\PSoC5\\USBFS_boot.c"
   1:.\Generated_Source\PSoC5/USBFS_boot.c **** /*******************************************************************************
   2:.\Generated_Source\PSoC5/USBFS_boot.c **** * File Name: USBFS_boot.c
   3:.\Generated_Source\PSoC5/USBFS_boot.c **** * Version 2.51
   4:.\Generated_Source\PSoC5/USBFS_boot.c **** *
   5:.\Generated_Source\PSoC5/USBFS_boot.c **** * Description:
   6:.\Generated_Source\PSoC5/USBFS_boot.c **** *  Boot loader API for USBFS Component.
   7:.\Generated_Source\PSoC5/USBFS_boot.c **** *
   8:.\Generated_Source\PSoC5/USBFS_boot.c **** *  Note:
   9:.\Generated_Source\PSoC5/USBFS_boot.c **** *
  10:.\Generated_Source\PSoC5/USBFS_boot.c **** ********************************************************************************
  11:.\Generated_Source\PSoC5/USBFS_boot.c **** * Copyright 2008-2012, Cypress Semiconductor Corporation.  All rights reserved.
  12:.\Generated_Source\PSoC5/USBFS_boot.c **** * You may use this file only in accordance with the license, terms, conditions,
  13:.\Generated_Source\PSoC5/USBFS_boot.c **** * disclaimers, and limitations in the end user license agreement accompanying
  14:.\Generated_Source\PSoC5/USBFS_boot.c **** * the software package with which this file was provided.
  15:.\Generated_Source\PSoC5/USBFS_boot.c **** *******************************************************************************/
  16:.\Generated_Source\PSoC5/USBFS_boot.c **** 
  17:.\Generated_Source\PSoC5/USBFS_boot.c **** #include "USBFS.h"
  18:.\Generated_Source\PSoC5/USBFS_boot.c **** 
  19:.\Generated_Source\PSoC5/USBFS_boot.c **** #if defined(CYDEV_BOOTLOADER_IO_COMP) && ((CYDEV_BOOTLOADER_IO_COMP == CyBtldr_USBFS) || \
  20:.\Generated_Source\PSoC5/USBFS_boot.c ****                                           (CYDEV_BOOTLOADER_IO_COMP == CyBtldr_Custom_Interface))
  21:.\Generated_Source\PSoC5/USBFS_boot.c **** 
  22:.\Generated_Source\PSoC5/USBFS_boot.c **** 
ARM GAS  C:\DOCUME~1\ADMINI~1\LOCALS~1\Temp\ccu4IdVL.s 			page 2


  23:.\Generated_Source\PSoC5/USBFS_boot.c **** /***************************************
  24:.\Generated_Source\PSoC5/USBFS_boot.c **** *    Bootloader defines
  25:.\Generated_Source\PSoC5/USBFS_boot.c **** ***************************************/
  26:.\Generated_Source\PSoC5/USBFS_boot.c **** 
  27:.\Generated_Source\PSoC5/USBFS_boot.c **** #define USBFS_CyBtLdrStarttimer(X, T)         {USBFS_universalTime = T * 10; X = 0u;}
  28:.\Generated_Source\PSoC5/USBFS_boot.c **** #define USBFS_CyBtLdrChecktimer(X)            ((X++ < USBFS_universalTime) ? 1u : 0u)
  29:.\Generated_Source\PSoC5/USBFS_boot.c **** 
  30:.\Generated_Source\PSoC5/USBFS_boot.c **** #define USBFS_BTLDR_OUT_EP      (0x01u)
  31:.\Generated_Source\PSoC5/USBFS_boot.c **** #define USBFS_BTLDR_IN_EP       (0x02u)
  32:.\Generated_Source\PSoC5/USBFS_boot.c **** 
  33:.\Generated_Source\PSoC5/USBFS_boot.c **** 
  34:.\Generated_Source\PSoC5/USBFS_boot.c **** /***************************************
  35:.\Generated_Source\PSoC5/USBFS_boot.c **** *    Bootloader Variables
  36:.\Generated_Source\PSoC5/USBFS_boot.c **** ***************************************/
  37:.\Generated_Source\PSoC5/USBFS_boot.c **** 
  38:.\Generated_Source\PSoC5/USBFS_boot.c **** uint16 USBFS_universalTime = 0u;
  39:.\Generated_Source\PSoC5/USBFS_boot.c **** uint8 USBFS_started = 0u;
  40:.\Generated_Source\PSoC5/USBFS_boot.c **** 
  41:.\Generated_Source\PSoC5/USBFS_boot.c **** 
  42:.\Generated_Source\PSoC5/USBFS_boot.c **** /*******************************************************************************
  43:.\Generated_Source\PSoC5/USBFS_boot.c **** * Function Name: USBFS_CyBtldrCommStart
  44:.\Generated_Source\PSoC5/USBFS_boot.c **** ********************************************************************************
  45:.\Generated_Source\PSoC5/USBFS_boot.c **** *
  46:.\Generated_Source\PSoC5/USBFS_boot.c **** * Summary:
  47:.\Generated_Source\PSoC5/USBFS_boot.c **** *  Starts the component and enables the interupt.
  48:.\Generated_Source\PSoC5/USBFS_boot.c **** *
  49:.\Generated_Source\PSoC5/USBFS_boot.c **** * Parameters:
  50:.\Generated_Source\PSoC5/USBFS_boot.c **** *  None.
  51:.\Generated_Source\PSoC5/USBFS_boot.c **** *
  52:.\Generated_Source\PSoC5/USBFS_boot.c **** * Return:
  53:.\Generated_Source\PSoC5/USBFS_boot.c **** *  None.
  54:.\Generated_Source\PSoC5/USBFS_boot.c **** *
  55:.\Generated_Source\PSoC5/USBFS_boot.c **** * Side Effects:
  56:.\Generated_Source\PSoC5/USBFS_boot.c **** *  This function starts the USB with 3V or 5V operation.
  57:.\Generated_Source\PSoC5/USBFS_boot.c **** *
  58:.\Generated_Source\PSoC5/USBFS_boot.c **** * Reentrant:
  59:.\Generated_Source\PSoC5/USBFS_boot.c **** *  No.
  60:.\Generated_Source\PSoC5/USBFS_boot.c **** *
  61:.\Generated_Source\PSoC5/USBFS_boot.c **** *******************************************************************************/
  62:.\Generated_Source\PSoC5/USBFS_boot.c **** void USBFS_CyBtldrCommStart(void) 
  63:.\Generated_Source\PSoC5/USBFS_boot.c **** {
  64:.\Generated_Source\PSoC5/USBFS_boot.c ****     CyGlobalIntEnable;      /* Enable Global Interrupts */
  65:.\Generated_Source\PSoC5/USBFS_boot.c **** 
  66:.\Generated_Source\PSoC5/USBFS_boot.c ****     /*Start USBFS Operation/device 0 and with 5V or 3V operation depend on Voltage Congiguration in
  67:.\Generated_Source\PSoC5/USBFS_boot.c ****     USBFS_Start(0u, USBFS_DWR_VDDD_OPERATION);
  68:.\Generated_Source\PSoC5/USBFS_boot.c **** 
  69:.\Generated_Source\PSoC5/USBFS_boot.c ****     /* USB componet started, the correct enumeration will be checked in first Read operation */
  70:.\Generated_Source\PSoC5/USBFS_boot.c ****     USBFS_started = 1u;
  71:.\Generated_Source\PSoC5/USBFS_boot.c **** 
  72:.\Generated_Source\PSoC5/USBFS_boot.c **** }
  73:.\Generated_Source\PSoC5/USBFS_boot.c **** 
  74:.\Generated_Source\PSoC5/USBFS_boot.c **** 
  75:.\Generated_Source\PSoC5/USBFS_boot.c **** /*******************************************************************************
  76:.\Generated_Source\PSoC5/USBFS_boot.c **** * Function Name: USBFS_CyBtldrCommStop.
  77:.\Generated_Source\PSoC5/USBFS_boot.c **** ********************************************************************************
  78:.\Generated_Source\PSoC5/USBFS_boot.c **** *
  79:.\Generated_Source\PSoC5/USBFS_boot.c **** * Summary:
ARM GAS  C:\DOCUME~1\ADMINI~1\LOCALS~1\Temp\ccu4IdVL.s 			page 3


  80:.\Generated_Source\PSoC5/USBFS_boot.c **** *  Disable the component and disable the interrupt.
  81:.\Generated_Source\PSoC5/USBFS_boot.c **** *
  82:.\Generated_Source\PSoC5/USBFS_boot.c **** * Parameters:
  83:.\Generated_Source\PSoC5/USBFS_boot.c **** *  None.
  84:.\Generated_Source\PSoC5/USBFS_boot.c **** *
  85:.\Generated_Source\PSoC5/USBFS_boot.c **** * Return:
  86:.\Generated_Source\PSoC5/USBFS_boot.c **** *  None.
  87:.\Generated_Source\PSoC5/USBFS_boot.c **** *
  88:.\Generated_Source\PSoC5/USBFS_boot.c **** *******************************************************************************/
  89:.\Generated_Source\PSoC5/USBFS_boot.c **** void USBFS_CyBtldrCommStop(void) 
  90:.\Generated_Source\PSoC5/USBFS_boot.c **** {
  91:.\Generated_Source\PSoC5/USBFS_boot.c ****     USBFS_Stop();
  92:.\Generated_Source\PSoC5/USBFS_boot.c **** }
  93:.\Generated_Source\PSoC5/USBFS_boot.c **** 
  94:.\Generated_Source\PSoC5/USBFS_boot.c **** 
  95:.\Generated_Source\PSoC5/USBFS_boot.c **** /*******************************************************************************
  96:.\Generated_Source\PSoC5/USBFS_boot.c **** * Function Name: USBFS_CyBtldrCommReset.
  97:.\Generated_Source\PSoC5/USBFS_boot.c **** ********************************************************************************
  98:.\Generated_Source\PSoC5/USBFS_boot.c **** *
  99:.\Generated_Source\PSoC5/USBFS_boot.c **** * Summary:
 100:.\Generated_Source\PSoC5/USBFS_boot.c **** *  Resets the receive and transmit communication Buffers.
 101:.\Generated_Source\PSoC5/USBFS_boot.c **** *
 102:.\Generated_Source\PSoC5/USBFS_boot.c **** * Parameters:
 103:.\Generated_Source\PSoC5/USBFS_boot.c **** *  None.
 104:.\Generated_Source\PSoC5/USBFS_boot.c **** *
 105:.\Generated_Source\PSoC5/USBFS_boot.c **** * Return:
 106:.\Generated_Source\PSoC5/USBFS_boot.c **** *  None.
 107:.\Generated_Source\PSoC5/USBFS_boot.c **** *
 108:.\Generated_Source\PSoC5/USBFS_boot.c **** * Reentrant:
 109:.\Generated_Source\PSoC5/USBFS_boot.c **** *  No.
 110:.\Generated_Source\PSoC5/USBFS_boot.c **** *
 111:.\Generated_Source\PSoC5/USBFS_boot.c **** *******************************************************************************/
 112:.\Generated_Source\PSoC5/USBFS_boot.c **** void USBFS_CyBtldrCommReset(void) 
 113:.\Generated_Source\PSoC5/USBFS_boot.c **** {
 114:.\Generated_Source\PSoC5/USBFS_boot.c ****     USBFS_EnableOutEP(USBFS_BTLDR_OUT_EP);  /* Enable the OUT endpoint */
 115:.\Generated_Source\PSoC5/USBFS_boot.c **** }
 116:.\Generated_Source\PSoC5/USBFS_boot.c **** 
 117:.\Generated_Source\PSoC5/USBFS_boot.c **** 
 118:.\Generated_Source\PSoC5/USBFS_boot.c **** /*******************************************************************************
 119:.\Generated_Source\PSoC5/USBFS_boot.c **** * Function Name: USBFS_CyBtldrCommWrite.
 120:.\Generated_Source\PSoC5/USBFS_boot.c **** ********************************************************************************
 121:.\Generated_Source\PSoC5/USBFS_boot.c **** *
 122:.\Generated_Source\PSoC5/USBFS_boot.c **** * Summary:
 123:.\Generated_Source\PSoC5/USBFS_boot.c **** *  Allows the caller to write data to the boot loader host. The function will
 124:.\Generated_Source\PSoC5/USBFS_boot.c **** *  handle polling to allow a block of data to be completely sent to the host
 125:.\Generated_Source\PSoC5/USBFS_boot.c **** *  device.
 126:.\Generated_Source\PSoC5/USBFS_boot.c **** *
 127:.\Generated_Source\PSoC5/USBFS_boot.c **** * Parameters:
 128:.\Generated_Source\PSoC5/USBFS_boot.c **** *  pData:    A pointer to the block of data to send to the device
 129:.\Generated_Source\PSoC5/USBFS_boot.c **** *  size:     The number of bytes to write.
 130:.\Generated_Source\PSoC5/USBFS_boot.c **** *  count:    Pointer to an unsigned short variable to write the number of
 131:.\Generated_Source\PSoC5/USBFS_boot.c **** *             bytes actually written.
 132:.\Generated_Source\PSoC5/USBFS_boot.c **** *  timeOut:  Number of units to wait before returning because of a timeout.
 133:.\Generated_Source\PSoC5/USBFS_boot.c **** *
 134:.\Generated_Source\PSoC5/USBFS_boot.c **** * Return:
 135:.\Generated_Source\PSoC5/USBFS_boot.c **** *  Returns the value that best describes the problem.
 136:.\Generated_Source\PSoC5/USBFS_boot.c **** *
ARM GAS  C:\DOCUME~1\ADMINI~1\LOCALS~1\Temp\ccu4IdVL.s 			page 4


 137:.\Generated_Source\PSoC5/USBFS_boot.c **** * Reentrant:
 138:.\Generated_Source\PSoC5/USBFS_boot.c **** *  No.
 139:.\Generated_Source\PSoC5/USBFS_boot.c **** *
 140:.\Generated_Source\PSoC5/USBFS_boot.c **** *******************************************************************************/
 141:.\Generated_Source\PSoC5/USBFS_boot.c **** cystatus USBFS_CyBtldrCommWrite(uint8 *pData, uint16 size, uint16 *count, uint8 timeOut) CYSMALL
 142:.\Generated_Source\PSoC5/USBFS_boot.c ****                                                             
 143:.\Generated_Source\PSoC5/USBFS_boot.c **** {
  32              		.loc 1 143 0
  33              		.cfi_startproc
  34              		@ args = 0, pretend = 0, frame = 0
  35              		@ frame_needed = 0, uses_anonymous_args = 0
  36              	.LVL0:
  37 0000 8446     		mov	ip, r0
  38 0002 70B5     		push	{r4, r5, r6, lr}
  39              	.LCFI0:
  40              		.cfi_def_cfa_offset 16
 144:.\Generated_Source\PSoC5/USBFS_boot.c ****     uint16 time;
 145:.\Generated_Source\PSoC5/USBFS_boot.c ****     cystatus status;
 146:.\Generated_Source\PSoC5/USBFS_boot.c **** 
 147:.\Generated_Source\PSoC5/USBFS_boot.c ****     /* Enable IN transfer */
 148:.\Generated_Source\PSoC5/USBFS_boot.c ****     USBFS_LoadInEP(USBFS_BTLDR_IN_EP, pData, USBFS_BTLDR_SIZEOF_READ_BUFFER);
  41              		.loc 1 148 0
  42 0004 0220     		movs	r0, #2
  43              	.LVL1:
  44              		.loc 1 143 0
  45 0006 0D46     		mov	r5, r1
  46              		.cfi_offset 14, -4
  47              		.cfi_offset 6, -8
  48              		.cfi_offset 5, -12
  49              		.cfi_offset 4, -16
  50 0008 1446     		mov	r4, r2
  51              		.loc 1 148 0
  52 000a 6146     		mov	r1, ip
  53              	.LVL2:
  54 000c 4022     		movs	r2, #64
  55              	.LVL3:
  56              		.loc 1 143 0
  57 000e 1E46     		mov	r6, r3
  58              		.loc 1 148 0
  59 0010 FFF7FEFF 		bl	USBFS_LoadInEP
  60              	.LVL4:
 149:.\Generated_Source\PSoC5/USBFS_boot.c **** 
 150:.\Generated_Source\PSoC5/USBFS_boot.c ****     /* Start a timer to wait on. */
 151:.\Generated_Source\PSoC5/USBFS_boot.c ****     USBFS_CyBtLdrStarttimer(time, timeOut);
  61              		.loc 1 151 0
  62 0014 0A23     		movs	r3, #10
  63 0016 5E43     		muls	r6, r3, r6
  64              	.LVL5:
  65 0018 0C4B     		ldr	r3, .L9
  66 001a 1E80     		strh	r6, [r3, #0]	@ movhi
  67 001c 0026     		movs	r6, #0
  68              	.LVL6:
 152:.\Generated_Source\PSoC5/USBFS_boot.c **** 
 153:.\Generated_Source\PSoC5/USBFS_boot.c ****     /* Wait for the master to read it. */
 154:.\Generated_Source\PSoC5/USBFS_boot.c ****     while((USBFS_GetEPState(USBFS_BTLDR_IN_EP) == USBFS_IN_BUFFER_FULL) && \
  69              		.loc 1 154 0
  70 001e 04E0     		b	.L2
ARM GAS  C:\DOCUME~1\ADMINI~1\LOCALS~1\Temp\ccu4IdVL.s 			page 5


  71              	.L4:
 155:.\Generated_Source\PSoC5/USBFS_boot.c ****            USBFS_CyBtLdrChecktimer(time))
  72              		.loc 1 155 0
  73 0020 0136     		adds	r6, r6, #1
  74              	.LVL7:
 156:.\Generated_Source\PSoC5/USBFS_boot.c ****     {
 157:.\Generated_Source\PSoC5/USBFS_boot.c ****         CyDelay(1); /* 1ms delay */
  75              		.loc 1 157 0
  76 0022 0120     		movs	r0, #1
  77              		.loc 1 155 0
  78 0024 B6B2     		uxth	r6, r6
  79              	.LVL8:
  80              		.loc 1 157 0
  81 0026 FFF7FEFF 		bl	CyDelay
  82              	.L2:
  83              		.loc 1 154 0
  84 002a 0220     		movs	r0, #2
  85 002c FFF7FEFF 		bl	USBFS_GetEPState
  86 0030 18B9     		cbnz	r0, .L3
  87 0032 064B     		ldr	r3, .L9
  88 0034 1B88     		ldrh	r3, [r3, #0]
  89 0036 B342     		cmp	r3, r6
  90 0038 F2D8     		bhi	.L4
  91              	.L3:
 158:.\Generated_Source\PSoC5/USBFS_boot.c ****     }
 159:.\Generated_Source\PSoC5/USBFS_boot.c **** 
 160:.\Generated_Source\PSoC5/USBFS_boot.c ****     if (USBFS_GetEPState(USBFS_BTLDR_IN_EP) == USBFS_IN_BUFFER_FULL)
  92              		.loc 1 160 0
  93 003a 0220     		movs	r0, #2
  94 003c FFF7FEFF 		bl	USBFS_GetEPState
  95 0040 08B9     		cbnz	r0, .L5
  96 0042 1030     		adds	r0, r0, #16
  97              	.LVL9:
  98 0044 70BD     		pop	{r4, r5, r6, pc}
  99              	.LVL10:
 100              	.L5:
 161:.\Generated_Source\PSoC5/USBFS_boot.c ****     {
 162:.\Generated_Source\PSoC5/USBFS_boot.c ****         status = CYRET_TIMEOUT;
 163:.\Generated_Source\PSoC5/USBFS_boot.c ****     }
 164:.\Generated_Source\PSoC5/USBFS_boot.c ****     else
 165:.\Generated_Source\PSoC5/USBFS_boot.c ****     {
 166:.\Generated_Source\PSoC5/USBFS_boot.c ****         *count = size;
 101              		.loc 1 166 0
 102 0046 2580     		strh	r5, [r4, #0]	@ movhi
 103 0048 0020     		movs	r0, #0
 104              	.LVL11:
 105              	.LVL12:
 167:.\Generated_Source\PSoC5/USBFS_boot.c ****         status = CYRET_SUCCESS;
 168:.\Generated_Source\PSoC5/USBFS_boot.c ****     }
 169:.\Generated_Source\PSoC5/USBFS_boot.c **** 
 170:.\Generated_Source\PSoC5/USBFS_boot.c ****     return(status);
 171:.\Generated_Source\PSoC5/USBFS_boot.c **** }
 106              		.loc 1 171 0
 107 004a 70BD     		pop	{r4, r5, r6, pc}
 108              	.L10:
 109              		.align	2
 110              	.L9:
ARM GAS  C:\DOCUME~1\ADMINI~1\LOCALS~1\Temp\ccu4IdVL.s 			page 6


 111 004c 00000000 		.word	.LANCHOR0
 112              		.cfi_endproc
 113              	.LFE3:
 114              		.size	USBFS_CyBtldrCommWrite, .-USBFS_CyBtldrCommWrite
 115              		.section	.text.USBFS_CyBtldrCommReset,"ax",%progbits
 116              		.align	1
 117              		.global	USBFS_CyBtldrCommReset
 118              		.thumb
 119              		.thumb_func
 120              		.type	USBFS_CyBtldrCommReset, %function
 121              	USBFS_CyBtldrCommReset:
 122              	.LFB2:
 123              		.loc 1 113 0
 124              		.cfi_startproc
 125              		@ args = 0, pretend = 0, frame = 0
 126              		@ frame_needed = 0, uses_anonymous_args = 0
 127              		@ link register save eliminated.
 128              		.loc 1 114 0
 129 0000 0120     		movs	r0, #1
 130              		.loc 1 115 0
 131              		.loc 1 114 0
 132 0002 FFF7FEBF 		b	USBFS_EnableOutEP
 133              		.cfi_endproc
 134              	.LFE2:
 135              		.size	USBFS_CyBtldrCommReset, .-USBFS_CyBtldrCommReset
 136              		.section	.text.USBFS_CyBtldrCommRead,"ax",%progbits
 137              		.align	1
 138              		.global	USBFS_CyBtldrCommRead
 139              		.thumb
 140              		.thumb_func
 141              		.type	USBFS_CyBtldrCommRead, %function
 142              	USBFS_CyBtldrCommRead:
 143              	.LFB4:
 172:.\Generated_Source\PSoC5/USBFS_boot.c **** 
 173:.\Generated_Source\PSoC5/USBFS_boot.c **** 
 174:.\Generated_Source\PSoC5/USBFS_boot.c **** /*******************************************************************************
 175:.\Generated_Source\PSoC5/USBFS_boot.c **** * Function Name: USBFS_CyBtldrCommRead.
 176:.\Generated_Source\PSoC5/USBFS_boot.c **** ********************************************************************************
 177:.\Generated_Source\PSoC5/USBFS_boot.c **** *
 178:.\Generated_Source\PSoC5/USBFS_boot.c **** * Summary:
 179:.\Generated_Source\PSoC5/USBFS_boot.c **** *  Allows the caller to read data from the boot loader host. The function will
 180:.\Generated_Source\PSoC5/USBFS_boot.c **** *  handle polling to allow a block of data to be completely received from the
 181:.\Generated_Source\PSoC5/USBFS_boot.c **** *  host device.
 182:.\Generated_Source\PSoC5/USBFS_boot.c **** *
 183:.\Generated_Source\PSoC5/USBFS_boot.c **** * Parameters:
 184:.\Generated_Source\PSoC5/USBFS_boot.c **** *  pData:    A pointer to the area to store the block of data received
 185:.\Generated_Source\PSoC5/USBFS_boot.c **** *             from the device.
 186:.\Generated_Source\PSoC5/USBFS_boot.c **** *  size:     The number of bytes to read.
 187:.\Generated_Source\PSoC5/USBFS_boot.c **** *  count:    Pointer to an unsigned short variable to write the number
 188:.\Generated_Source\PSoC5/USBFS_boot.c **** *             of bytes actually read.
 189:.\Generated_Source\PSoC5/USBFS_boot.c **** *  timeOut:  Number of units to wait before returning because of a timeOut.
 190:.\Generated_Source\PSoC5/USBFS_boot.c **** *            Timeout is measured in 10s of ms.
 191:.\Generated_Source\PSoC5/USBFS_boot.c **** *
 192:.\Generated_Source\PSoC5/USBFS_boot.c **** * Return:
 193:.\Generated_Source\PSoC5/USBFS_boot.c **** *  Returns the value that best describes the problem.
 194:.\Generated_Source\PSoC5/USBFS_boot.c **** *
 195:.\Generated_Source\PSoC5/USBFS_boot.c **** * Reentrant:
ARM GAS  C:\DOCUME~1\ADMINI~1\LOCALS~1\Temp\ccu4IdVL.s 			page 7


 196:.\Generated_Source\PSoC5/USBFS_boot.c **** *  No.
 197:.\Generated_Source\PSoC5/USBFS_boot.c **** *
 198:.\Generated_Source\PSoC5/USBFS_boot.c **** *******************************************************************************/
 199:.\Generated_Source\PSoC5/USBFS_boot.c **** cystatus USBFS_CyBtldrCommRead(uint8 *pData, uint16 size, uint16 *count, uint8 timeOut) CYSMALL
 200:.\Generated_Source\PSoC5/USBFS_boot.c ****                                                             
 201:.\Generated_Source\PSoC5/USBFS_boot.c **** {
 144              		.loc 1 201 0
 145              		.cfi_startproc
 146              		@ args = 0, pretend = 0, frame = 0
 147              		@ frame_needed = 0, uses_anonymous_args = 0
 148              	.LVL13:
 149 0000 2DE9F041 		push	{r4, r5, r6, r7, r8, lr}
 150              	.LCFI1:
 151              		.cfi_def_cfa_offset 24
 152              		.loc 1 201 0
 153 0004 0D46     		mov	r5, r1
 154              		.cfi_offset 14, -4
 155              		.cfi_offset 8, -8
 156              		.cfi_offset 7, -12
 157              		.cfi_offset 6, -16
 158              		.cfi_offset 5, -20
 159              		.cfi_offset 4, -24
 202:.\Generated_Source\PSoC5/USBFS_boot.c ****     cystatus status;
 203:.\Generated_Source\PSoC5/USBFS_boot.c ****     uint16 time;
 204:.\Generated_Source\PSoC5/USBFS_boot.c **** 
 205:.\Generated_Source\PSoC5/USBFS_boot.c ****     if(size > USBFS_BTLDR_SIZEOF_WRITE_BUFFER)
 206:.\Generated_Source\PSoC5/USBFS_boot.c ****     {
 207:.\Generated_Source\PSoC5/USBFS_boot.c ****         size = USBFS_BTLDR_SIZEOF_WRITE_BUFFER;
 208:.\Generated_Source\PSoC5/USBFS_boot.c ****     }
 209:.\Generated_Source\PSoC5/USBFS_boot.c ****     /* Start a timer to wait on. */
 210:.\Generated_Source\PSoC5/USBFS_boot.c ****     USBFS_CyBtLdrStarttimer(time, timeOut);
 160              		.loc 1 210 0
 161 0006 0A21     		movs	r1, #10
 162              	.LVL14:
 163              		.loc 1 201 0
 164 0008 1446     		mov	r4, r2
 165              		.loc 1 210 0
 166 000a 4B43     		muls	r3, r1, r3
 167              	.LVL15:
 168 000c 294A     		ldr	r2, .L25
 169              	.LVL16:
 170              		.loc 1 201 0
 171 000e 0646     		mov	r6, r0
 211:.\Generated_Source\PSoC5/USBFS_boot.c **** 
 212:.\Generated_Source\PSoC5/USBFS_boot.c ****     /* Wait on enumeration in first time */
 213:.\Generated_Source\PSoC5/USBFS_boot.c ****     if(USBFS_started)
 172              		.loc 1 213 0
 173 0010 9778     		ldrb	r7, [r2, #2]	@ zero_extendqisi2
 174              		.loc 1 210 0
 175 0012 1380     		strh	r3, [r2, #0]	@ movhi
 176              		.loc 1 213 0
 177 0014 F7B1     		cbz	r7, .L14
 178              	.LVL17:
 179 0016 0027     		movs	r7, #0
 180              	.LVL18:
 181 0018 03E0     		b	.L15
 182              	.LVL19:
ARM GAS  C:\DOCUME~1\ADMINI~1\LOCALS~1\Temp\ccu4IdVL.s 			page 8


 183              	.L17:
 214:.\Generated_Source\PSoC5/USBFS_boot.c ****     {
 215:.\Generated_Source\PSoC5/USBFS_boot.c ****         /* Wait for Device to enumerate */
 216:.\Generated_Source\PSoC5/USBFS_boot.c ****         while(!USBFS_GetConfiguration() && USBFS_CyBtLdrChecktimer(time))
 217:.\Generated_Source\PSoC5/USBFS_boot.c ****         {
 218:.\Generated_Source\PSoC5/USBFS_boot.c ****             CyDelay(1); /* 1ms delay */
 184              		.loc 1 218 0
 185 001a 0120     		movs	r0, #1
 186 001c FFF7FEFF 		bl	CyDelay
 187 0020 4746     		mov	r7, r8
 188              	.LVL20:
 189              	.L15:
 190              		.loc 1 216 0
 191 0022 FFF7FEFF 		bl	USBFS_GetConfiguration
 192 0026 40B9     		cbnz	r0, .L16
 193 0028 224B     		ldr	r3, .L25
 194 002a 07F10108 		add	r8, r7, #1
 195 002e 1B88     		ldrh	r3, [r3, #0]
 196 0030 1FFA88F8 		uxth	r8, r8
 197              	.LVL21:
 198 0034 BB42     		cmp	r3, r7
 199 0036 F0D8     		bhi	.L17
 200              	.LVL22:
 201 0038 4746     		mov	r7, r8
 202              	.L16:
 219:.\Generated_Source\PSoC5/USBFS_boot.c ****         }
 220:.\Generated_Source\PSoC5/USBFS_boot.c ****         /* Enable first OUT, if enumeration complete */
 221:.\Generated_Source\PSoC5/USBFS_boot.c ****         if(USBFS_GetConfiguration())
 203              		.loc 1 221 0
 204 003a FFF7FEFF 		bl	USBFS_GetConfiguration
 205 003e C8B1     		cbz	r0, .L18
 222:.\Generated_Source\PSoC5/USBFS_boot.c ****         {
 223:.\Generated_Source\PSoC5/USBFS_boot.c ****             USBFS_IsConfigurationChanged();  /* Crear configuration changes state status */
 206              		.loc 1 223 0
 207 0040 FFF7FEFF 		bl	USBFS_IsConfigurationChanged
 224:.\Generated_Source\PSoC5/USBFS_boot.c ****             USBFS_CyBtldrCommReset();
 208              		.loc 1 224 0
 209 0044 FFF7FEFF 		bl	USBFS_CyBtldrCommReset
 225:.\Generated_Source\PSoC5/USBFS_boot.c ****             USBFS_started = 0u;
 210              		.loc 1 225 0
 211 0048 1A4B     		ldr	r3, .L25
 212 004a 0022     		movs	r2, #0
 213 004c 9A70     		strb	r2, [r3, #2]
 214 004e 11E0     		b	.L18
 215              	.LVL23:
 216              	.L19:
 217 0050 0027     		movs	r7, #0
 218              	.LVL24:
 219 0052 0FE0     		b	.L18
 220              	.LVL25:
 221              	.L14:
 226:.\Generated_Source\PSoC5/USBFS_boot.c ****         }
 227:.\Generated_Source\PSoC5/USBFS_boot.c ****     }
 228:.\Generated_Source\PSoC5/USBFS_boot.c ****     else /* Check for configuration changes has been done by Host */
 229:.\Generated_Source\PSoC5/USBFS_boot.c ****     {
 230:.\Generated_Source\PSoC5/USBFS_boot.c ****         if(USBFS_IsConfigurationChanged() != 0) /* Host could send double SET_INTERFACE request or 
 222              		.loc 1 230 0
ARM GAS  C:\DOCUME~1\ADMINI~1\LOCALS~1\Temp\ccu4IdVL.s 			page 9


 223 0054 FFF7FEFF 		bl	USBFS_IsConfigurationChanged
 224 0058 0028     		cmp	r0, #0
 225 005a F9D0     		beq	.L19
 231:.\Generated_Source\PSoC5/USBFS_boot.c ****         {
 232:.\Generated_Source\PSoC5/USBFS_boot.c ****             if(USBFS_GetConfiguration() != 0)    /* Init IN endpoints when device configured */
 226              		.loc 1 232 0
 227 005c FFF7FEFF 		bl	USBFS_GetConfiguration
 228 0060 0028     		cmp	r0, #0
 229 0062 F5D0     		beq	.L19
 233:.\Generated_Source\PSoC5/USBFS_boot.c ****             {
 234:.\Generated_Source\PSoC5/USBFS_boot.c ****                 USBFS_CyBtldrCommReset();
 230              		.loc 1 234 0
 231 0064 FFF7FEFF 		bl	USBFS_CyBtldrCommReset
 232 0068 04E0     		b	.L18
 233              	.LVL26:
 234              	.L21:
 235:.\Generated_Source\PSoC5/USBFS_boot.c ****             }
 236:.\Generated_Source\PSoC5/USBFS_boot.c ****         }    
 237:.\Generated_Source\PSoC5/USBFS_boot.c ****     }
 238:.\Generated_Source\PSoC5/USBFS_boot.c **** 
 239:.\Generated_Source\PSoC5/USBFS_boot.c ****     /* Wait on next packet */
 240:.\Generated_Source\PSoC5/USBFS_boot.c ****     while((USBFS_GetEPState(USBFS_BTLDR_OUT_EP) != USBFS_OUT_BUFFER_FULL) && \
 241:.\Generated_Source\PSoC5/USBFS_boot.c ****            USBFS_CyBtLdrChecktimer(time))
 235              		.loc 1 241 0
 236 006a 0137     		adds	r7, r7, #1
 237              	.LVL27:
 242:.\Generated_Source\PSoC5/USBFS_boot.c ****     {
 243:.\Generated_Source\PSoC5/USBFS_boot.c ****         CyDelay(1); /* 1ms delay */
 238              		.loc 1 243 0
 239 006c 0120     		movs	r0, #1
 240              		.loc 1 241 0
 241 006e BFB2     		uxth	r7, r7
 242              	.LVL28:
 243              		.loc 1 243 0
 244 0070 FFF7FEFF 		bl	CyDelay
 245              	.LVL29:
 246              	.L18:
 247              		.loc 1 240 0
 248 0074 0120     		movs	r0, #1
 249 0076 FFF7FEFF 		bl	USBFS_GetEPState
 250 007a 0128     		cmp	r0, #1
 251 007c 03D0     		beq	.L20
 252 007e 0D4B     		ldr	r3, .L25
 253 0080 1B88     		ldrh	r3, [r3, #0]
 254 0082 BB42     		cmp	r3, r7
 255 0084 F1D8     		bhi	.L21
 256              	.L20:
 244:.\Generated_Source\PSoC5/USBFS_boot.c ****     }
 245:.\Generated_Source\PSoC5/USBFS_boot.c **** 
 246:.\Generated_Source\PSoC5/USBFS_boot.c ****     /* OUT EP has completed */
 247:.\Generated_Source\PSoC5/USBFS_boot.c ****     if (USBFS_GetEPState(USBFS_BTLDR_OUT_EP) == USBFS_OUT_BUFFER_FULL)
 257              		.loc 1 247 0
 258 0086 0120     		movs	r0, #1
 259 0088 FFF7FEFF 		bl	USBFS_GetEPState
 260 008c 0128     		cmp	r0, #1
 261 008e 0AD1     		bne	.L22
 248:.\Generated_Source\PSoC5/USBFS_boot.c ****     {
ARM GAS  C:\DOCUME~1\ADMINI~1\LOCALS~1\Temp\ccu4IdVL.s 			page 10


 249:.\Generated_Source\PSoC5/USBFS_boot.c ****         *count = USBFS_ReadOutEP(USBFS_BTLDR_OUT_EP, pData, size);
 262              		.loc 1 249 0
 263 0090 3146     		mov	r1, r6
 264 0092 402D     		cmp	r5, #64
 265 0094 34BF     		ite	cc
 266 0096 2A46     		movcc	r2, r5
 267 0098 4022     		movcs	r2, #64
 268 009a FFF7FEFF 		bl	USBFS_ReadOutEP
 269 009e 2080     		strh	r0, [r4, #0]	@ movhi
 270 00a0 0020     		movs	r0, #0
 271              	.LVL30:
 272 00a2 BDE8F081 		pop	{r4, r5, r6, r7, r8, pc}
 273              	.LVL31:
 274              	.L22:
 250:.\Generated_Source\PSoC5/USBFS_boot.c ****         status = CYRET_SUCCESS;
 251:.\Generated_Source\PSoC5/USBFS_boot.c ****     }
 252:.\Generated_Source\PSoC5/USBFS_boot.c ****     else
 253:.\Generated_Source\PSoC5/USBFS_boot.c ****     {
 254:.\Generated_Source\PSoC5/USBFS_boot.c ****         *count = 0u;
 275              		.loc 1 254 0
 276 00a6 4FF00003 		mov	r3, #0	@ movhi
 277 00aa 2380     		strh	r3, [r4, #0]	@ movhi
 278 00ac 1020     		movs	r0, #16
 279              	.LVL32:
 280              	.LVL33:
 255:.\Generated_Source\PSoC5/USBFS_boot.c ****         status = CYRET_TIMEOUT;
 256:.\Generated_Source\PSoC5/USBFS_boot.c ****     }
 257:.\Generated_Source\PSoC5/USBFS_boot.c ****     return(status);
 258:.\Generated_Source\PSoC5/USBFS_boot.c **** }
 281              		.loc 1 258 0
 282 00ae BDE8F081 		pop	{r4, r5, r6, r7, r8, pc}
 283              	.L26:
 284 00b2 00BF     		.align	2
 285              	.L25:
 286 00b4 00000000 		.word	.LANCHOR0
 287              		.cfi_endproc
 288              	.LFE4:
 289              		.size	USBFS_CyBtldrCommRead, .-USBFS_CyBtldrCommRead
 290              		.section	.text.USBFS_CyBtldrCommStop,"ax",%progbits
 291              		.align	1
 292              		.global	USBFS_CyBtldrCommStop
 293              		.thumb
 294              		.thumb_func
 295              		.type	USBFS_CyBtldrCommStop, %function
 296              	USBFS_CyBtldrCommStop:
 297              	.LFB1:
 298              		.loc 1 90 0
 299              		.cfi_startproc
 300              		@ args = 0, pretend = 0, frame = 0
 301              		@ frame_needed = 0, uses_anonymous_args = 0
 302              		@ link register save eliminated.
 303              		.loc 1 92 0
 304              		.loc 1 91 0
 305 0000 FFF7FEBF 		b	USBFS_Stop
 306              		.cfi_endproc
 307              	.LFE1:
 308              		.size	USBFS_CyBtldrCommStop, .-USBFS_CyBtldrCommStop
ARM GAS  C:\DOCUME~1\ADMINI~1\LOCALS~1\Temp\ccu4IdVL.s 			page 11


 309              		.section	.text.USBFS_CyBtldrCommStart,"ax",%progbits
 310              		.align	1
 311              		.global	USBFS_CyBtldrCommStart
 312              		.thumb
 313              		.thumb_func
 314              		.type	USBFS_CyBtldrCommStart, %function
 315              	USBFS_CyBtldrCommStart:
 316              	.LFB0:
 317              		.loc 1 63 0
 318              		.cfi_startproc
 319              		@ args = 0, pretend = 0, frame = 0
 320              		@ frame_needed = 0, uses_anonymous_args = 0
 321 0000 08B5     		push	{r3, lr}
 322              	.LCFI2:
 323              		.cfi_def_cfa_offset 8
 324              		.loc 1 64 0
 325              	@ 64 ".\Generated_Source\PSoC5\USBFS_boot.c" 1
 326 0002 62B6     		CPSIE   i
 327              	@ 0 "" 2
 328              		.loc 1 67 0
 329              		.thumb
 330 0004 0020     		movs	r0, #0
 331 0006 0221     		movs	r1, #2
 332              		.cfi_offset 14, -4
 333              		.cfi_offset 3, -8
 334 0008 FFF7FEFF 		bl	USBFS_Start
 335              		.loc 1 70 0
 336 000c 014B     		ldr	r3, .L31
 337 000e 0122     		movs	r2, #1
 338 0010 9A70     		strb	r2, [r3, #2]
 339              		.loc 1 72 0
 340 0012 08BD     		pop	{r3, pc}
 341              	.L32:
 342              		.align	2
 343              	.L31:
 344 0014 00000000 		.word	.LANCHOR0
 345              		.cfi_endproc
 346              	.LFE0:
 347              		.size	USBFS_CyBtldrCommStart, .-USBFS_CyBtldrCommStart
 348              		.global	USBFS_universalTime
 349              		.global	USBFS_started
 350              		.bss
 351              		.align	1
 352              		.set	.LANCHOR0,. + 0
 353              		.type	USBFS_universalTime, %object
 354              		.size	USBFS_universalTime, 2
 355              	USBFS_universalTime:
 356 0000 0000     		.space	2
 357              		.type	USBFS_started, %object
 358              		.size	USBFS_started, 1
 359              	USBFS_started:
 360 0002 00       		.space	1
 361 0003 00       		.text
 362              	.Letext0: