ARM GAS  C:\DOCUME~1\ADMINI~1\LOCALS~1\Temp\ccuGndcP.s 			page 1


   1              		.syntax unified
   2              		.cpu cortex-m3
   3              		.fpu softvfp
   4              		.eabi_attribute 20, 1
   5              		.eabi_attribute 21, 1
   6              		.eabi_attribute 23, 3
   7              		.eabi_attribute 24, 1
   8              		.eabi_attribute 25, 1
   9              		.eabi_attribute 26, 1
  10              		.eabi_attribute 30, 4
  11              		.eabi_attribute 18, 4
  12              		.thumb
  13              		.file	"USBFS_drv.c"
  20 0000 15020000 		.text
  20      02006D00 
  20      00000201 
  20      FB0E0D00 
  20      01010101 
  21              	.Ltext0:
  22              		.cfi_sections	.debug_frame
  23              		.section	.text.USBFS_LoadEP0,"ax",%progbits
  24              		.align	1
  25              		.global	USBFS_LoadEP0
  26              		.thumb
  27              		.thumb_func
  28              		.type	USBFS_LoadEP0, %function
  29              	USBFS_LoadEP0:
  30              	.LFB4:
  31              		.file 1 ".\\Generated_Source\\PSoC5\\USBFS_drv.c"
   1:.\Generated_Source\PSoC5/USBFS_drv.c **** /*******************************************************************************
   2:.\Generated_Source\PSoC5/USBFS_drv.c **** * File Name: USBFS_drv.c
   3:.\Generated_Source\PSoC5/USBFS_drv.c **** * Version 2.51
   4:.\Generated_Source\PSoC5/USBFS_drv.c **** *
   5:.\Generated_Source\PSoC5/USBFS_drv.c **** * Description:
   6:.\Generated_Source\PSoC5/USBFS_drv.c **** *  Endpoint 0 Driver for the USBFS Component.
   7:.\Generated_Source\PSoC5/USBFS_drv.c **** *
   8:.\Generated_Source\PSoC5/USBFS_drv.c **** * Note:
   9:.\Generated_Source\PSoC5/USBFS_drv.c **** *
  10:.\Generated_Source\PSoC5/USBFS_drv.c **** ********************************************************************************
  11:.\Generated_Source\PSoC5/USBFS_drv.c **** * Copyright 2008-2012, Cypress Semiconductor Corporation.  All rights reserved.
  12:.\Generated_Source\PSoC5/USBFS_drv.c **** * You may use this file only in accordance with the license, terms, conditions,
  13:.\Generated_Source\PSoC5/USBFS_drv.c **** * disclaimers, and limitations in the end user license agreement accompanying
  14:.\Generated_Source\PSoC5/USBFS_drv.c **** * the software package with which this file was provided.
  15:.\Generated_Source\PSoC5/USBFS_drv.c **** *******************************************************************************/
  16:.\Generated_Source\PSoC5/USBFS_drv.c **** 
  17:.\Generated_Source\PSoC5/USBFS_drv.c **** #include "USBFS.h"
  18:.\Generated_Source\PSoC5/USBFS_drv.c **** 
  19:.\Generated_Source\PSoC5/USBFS_drv.c **** 
  20:.\Generated_Source\PSoC5/USBFS_drv.c **** /***************************************
  21:.\Generated_Source\PSoC5/USBFS_drv.c **** * Forward references for the EP0 ISR
  22:.\Generated_Source\PSoC5/USBFS_drv.c **** ***************************************/
ARM GAS  C:\DOCUME~1\ADMINI~1\LOCALS~1\Temp\ccuGndcP.s 			page 2


  23:.\Generated_Source\PSoC5/USBFS_drv.c **** 
  24:.\Generated_Source\PSoC5/USBFS_drv.c **** void  USBFS_HandleSetup(void) ;
  25:.\Generated_Source\PSoC5/USBFS_drv.c **** void  USBFS_HandleIN(void) ;
  26:.\Generated_Source\PSoC5/USBFS_drv.c **** void  USBFS_HandleOUT(void) ;
  27:.\Generated_Source\PSoC5/USBFS_drv.c **** uint8 USBFS_InitControlRead(void) ;
  28:.\Generated_Source\PSoC5/USBFS_drv.c **** void  USBFS_ControlReadDataStage(void) ;
  29:.\Generated_Source\PSoC5/USBFS_drv.c **** void  USBFS_ControlReadStatusStage(void) ;
  30:.\Generated_Source\PSoC5/USBFS_drv.c **** void  USBFS_ControlReadPrematureStatus(void)
  31:.\Generated_Source\PSoC5/USBFS_drv.c ****                                                 ;
  32:.\Generated_Source\PSoC5/USBFS_drv.c **** uint8 USBFS_InitControlWrite(void) ;
  33:.\Generated_Source\PSoC5/USBFS_drv.c **** uint8 USBFS_InitZeroLengthControlTransfer(void)
  34:.\Generated_Source\PSoC5/USBFS_drv.c ****                                                 ;
  35:.\Generated_Source\PSoC5/USBFS_drv.c **** void  USBFS_ControlWriteDataStage(void) ;
  36:.\Generated_Source\PSoC5/USBFS_drv.c **** void  USBFS_ControlWriteStatusStage(void) ;
  37:.\Generated_Source\PSoC5/USBFS_drv.c **** void  USBFS_ControlWritePrematureStatus(void)
  38:.\Generated_Source\PSoC5/USBFS_drv.c ****                                                 ;
  39:.\Generated_Source\PSoC5/USBFS_drv.c **** uint8 USBFS_InitNoDataControlTransfer(void) ;
  40:.\Generated_Source\PSoC5/USBFS_drv.c **** void  USBFS_NoDataControlStatusStage(void) ;
  41:.\Generated_Source\PSoC5/USBFS_drv.c **** void  USBFS_InitializeStatusBlock(void) ;
  42:.\Generated_Source\PSoC5/USBFS_drv.c **** void  USBFS_UpdateStatusBlock(uint8 completionCode) ;
  43:.\Generated_Source\PSoC5/USBFS_drv.c **** 
  44:.\Generated_Source\PSoC5/USBFS_drv.c **** 
  45:.\Generated_Source\PSoC5/USBFS_drv.c **** /***************************************
  46:.\Generated_Source\PSoC5/USBFS_drv.c **** * Request Handlers
  47:.\Generated_Source\PSoC5/USBFS_drv.c **** ***************************************/
  48:.\Generated_Source\PSoC5/USBFS_drv.c **** 
  49:.\Generated_Source\PSoC5/USBFS_drv.c **** uint8 USBFS_HandleStandardRqst(void) ;
  50:.\Generated_Source\PSoC5/USBFS_drv.c **** uint8 USBFS_DispatchClassRqst(void) ;
  51:.\Generated_Source\PSoC5/USBFS_drv.c **** uint8 USBFS_HandleVendorRqst(void) ;
  52:.\Generated_Source\PSoC5/USBFS_drv.c **** 
  53:.\Generated_Source\PSoC5/USBFS_drv.c **** 
  54:.\Generated_Source\PSoC5/USBFS_drv.c **** /***************************************
  55:.\Generated_Source\PSoC5/USBFS_drv.c **** * External data references
  56:.\Generated_Source\PSoC5/USBFS_drv.c **** ***************************************/
  57:.\Generated_Source\PSoC5/USBFS_drv.c **** 
  58:.\Generated_Source\PSoC5/USBFS_drv.c **** 
  59:.\Generated_Source\PSoC5/USBFS_drv.c **** /***************************************
  60:.\Generated_Source\PSoC5/USBFS_drv.c **** * Global data allocation
  61:.\Generated_Source\PSoC5/USBFS_drv.c **** ***************************************/
  62:.\Generated_Source\PSoC5/USBFS_drv.c **** 
  63:.\Generated_Source\PSoC5/USBFS_drv.c **** volatile T_USBFS_EP_CTL_BLOCK USBFS_EP[USBFS_MAX_EP];
  64:.\Generated_Source\PSoC5/USBFS_drv.c **** volatile uint8 USBFS_configuration;
  65:.\Generated_Source\PSoC5/USBFS_drv.c **** volatile uint8 USBFS_interfaceNumber;
  66:.\Generated_Source\PSoC5/USBFS_drv.c **** volatile uint8 USBFS_configurationChanged;
  67:.\Generated_Source\PSoC5/USBFS_drv.c **** volatile uint8 USBFS_deviceAddress;
  68:.\Generated_Source\PSoC5/USBFS_drv.c **** volatile uint8 USBFS_deviceStatus;
  69:.\Generated_Source\PSoC5/USBFS_drv.c **** volatile uint8 USBFS_interfaceSetting[USBFS_MAX_INTERFACES_NUMBER];
  70:.\Generated_Source\PSoC5/USBFS_drv.c **** volatile uint8 USBFS_interfaceSetting_last[USBFS_MAX_INTERFACES_NUMBER];
  71:.\Generated_Source\PSoC5/USBFS_drv.c **** volatile uint8 USBFS_interfaceStatus[USBFS_MAX_INTERFACES_NUMBER];
  72:.\Generated_Source\PSoC5/USBFS_drv.c **** volatile uint8 USBFS_device;
  73:.\Generated_Source\PSoC5/USBFS_drv.c **** const uint8 CYCODE *USBFS_interfaceClass;
  74:.\Generated_Source\PSoC5/USBFS_drv.c **** 
  75:.\Generated_Source\PSoC5/USBFS_drv.c **** 
  76:.\Generated_Source\PSoC5/USBFS_drv.c **** /***************************************
  77:.\Generated_Source\PSoC5/USBFS_drv.c **** * Local data allocation
  78:.\Generated_Source\PSoC5/USBFS_drv.c **** ***************************************/
  79:.\Generated_Source\PSoC5/USBFS_drv.c **** 
ARM GAS  C:\DOCUME~1\ADMINI~1\LOCALS~1\Temp\ccuGndcP.s 			page 3


  80:.\Generated_Source\PSoC5/USBFS_drv.c **** volatile uint8 USBFS_ep0Toggle;
  81:.\Generated_Source\PSoC5/USBFS_drv.c **** volatile uint8 USBFS_lastPacketSize;
  82:.\Generated_Source\PSoC5/USBFS_drv.c **** volatile uint8 USBFS_transferState;
  83:.\Generated_Source\PSoC5/USBFS_drv.c **** volatile T_USBFS_TD USBFS_currentTD;
  84:.\Generated_Source\PSoC5/USBFS_drv.c **** volatile uint8 USBFS_ep0Mode;
  85:.\Generated_Source\PSoC5/USBFS_drv.c **** volatile uint8 USBFS_ep0Count;
  86:.\Generated_Source\PSoC5/USBFS_drv.c **** volatile uint16 USBFS_transferByteCount;
  87:.\Generated_Source\PSoC5/USBFS_drv.c **** 
  88:.\Generated_Source\PSoC5/USBFS_drv.c **** 
  89:.\Generated_Source\PSoC5/USBFS_drv.c **** /*******************************************************************************
  90:.\Generated_Source\PSoC5/USBFS_drv.c **** * Function Name: USBFS_ep_0_Interrupt
  91:.\Generated_Source\PSoC5/USBFS_drv.c **** ********************************************************************************
  92:.\Generated_Source\PSoC5/USBFS_drv.c **** *
  93:.\Generated_Source\PSoC5/USBFS_drv.c **** * Summary:
  94:.\Generated_Source\PSoC5/USBFS_drv.c **** *  This Interrupt Service Routine handles Endpoint 0 (Control Pipe) traffic.
  95:.\Generated_Source\PSoC5/USBFS_drv.c **** *  It dispactches setup requests and handles the data and status stages.
  96:.\Generated_Source\PSoC5/USBFS_drv.c **** *
  97:.\Generated_Source\PSoC5/USBFS_drv.c **** * Parameters:
  98:.\Generated_Source\PSoC5/USBFS_drv.c **** *  None.
  99:.\Generated_Source\PSoC5/USBFS_drv.c **** *
 100:.\Generated_Source\PSoC5/USBFS_drv.c **** * Return:
 101:.\Generated_Source\PSoC5/USBFS_drv.c **** *  None.
 102:.\Generated_Source\PSoC5/USBFS_drv.c **** *
 103:.\Generated_Source\PSoC5/USBFS_drv.c **** *******************************************************************************/
 104:.\Generated_Source\PSoC5/USBFS_drv.c **** CY_ISR(USBFS_EP_0_ISR)
 105:.\Generated_Source\PSoC5/USBFS_drv.c **** {
 106:.\Generated_Source\PSoC5/USBFS_drv.c ****     uint8 bRegTemp;
 107:.\Generated_Source\PSoC5/USBFS_drv.c ****     uint8 modifyReg;
 108:.\Generated_Source\PSoC5/USBFS_drv.c **** 
 109:.\Generated_Source\PSoC5/USBFS_drv.c **** 
 110:.\Generated_Source\PSoC5/USBFS_drv.c ****     bRegTemp = CY_GET_REG8(USBFS_EP0_CR_PTR);
 111:.\Generated_Source\PSoC5/USBFS_drv.c ****     if (bRegTemp & USBFS_MODE_ACKD)
 112:.\Generated_Source\PSoC5/USBFS_drv.c ****     {
 113:.\Generated_Source\PSoC5/USBFS_drv.c ****         modifyReg = 1u;
 114:.\Generated_Source\PSoC5/USBFS_drv.c ****         if (bRegTemp & USBFS_MODE_SETUP_RCVD)
 115:.\Generated_Source\PSoC5/USBFS_drv.c ****         {
 116:.\Generated_Source\PSoC5/USBFS_drv.c ****             if((bRegTemp & USBFS_MODE_MASK) != USBFS_MODE_NAK_IN_OUT)
 117:.\Generated_Source\PSoC5/USBFS_drv.c ****             {
 118:.\Generated_Source\PSoC5/USBFS_drv.c ****                 modifyReg = 0u;                                     /* When mode not NAK_IN_OUT => 
 119:.\Generated_Source\PSoC5/USBFS_drv.c ****             }
 120:.\Generated_Source\PSoC5/USBFS_drv.c ****             else
 121:.\Generated_Source\PSoC5/USBFS_drv.c ****             {
 122:.\Generated_Source\PSoC5/USBFS_drv.c ****                 USBFS_HandleSetup();
 123:.\Generated_Source\PSoC5/USBFS_drv.c ****                 if(USBFS_ep0Mode & USBFS_MODE_SETUP_RCVD)
 124:.\Generated_Source\PSoC5/USBFS_drv.c ****                 {
 125:.\Generated_Source\PSoC5/USBFS_drv.c ****                     modifyReg = 0u;                         /* if SETUP bit set -> exit without mod
 126:.\Generated_Source\PSoC5/USBFS_drv.c ****                 }
 127:.\Generated_Source\PSoC5/USBFS_drv.c **** 
 128:.\Generated_Source\PSoC5/USBFS_drv.c ****             }
 129:.\Generated_Source\PSoC5/USBFS_drv.c ****         }
 130:.\Generated_Source\PSoC5/USBFS_drv.c ****         else if (bRegTemp & USBFS_MODE_IN_RCVD)
 131:.\Generated_Source\PSoC5/USBFS_drv.c ****         {
 132:.\Generated_Source\PSoC5/USBFS_drv.c ****             USBFS_HandleIN();
 133:.\Generated_Source\PSoC5/USBFS_drv.c ****         }
 134:.\Generated_Source\PSoC5/USBFS_drv.c ****         else if (bRegTemp & USBFS_MODE_OUT_RCVD)
 135:.\Generated_Source\PSoC5/USBFS_drv.c ****         {
 136:.\Generated_Source\PSoC5/USBFS_drv.c ****             USBFS_HandleOUT();
ARM GAS  C:\DOCUME~1\ADMINI~1\LOCALS~1\Temp\ccuGndcP.s 			page 4


 137:.\Generated_Source\PSoC5/USBFS_drv.c ****         }
 138:.\Generated_Source\PSoC5/USBFS_drv.c ****         else
 139:.\Generated_Source\PSoC5/USBFS_drv.c ****         {
 140:.\Generated_Source\PSoC5/USBFS_drv.c ****             modifyReg = 0u;
 141:.\Generated_Source\PSoC5/USBFS_drv.c ****         }
 142:.\Generated_Source\PSoC5/USBFS_drv.c ****         if(modifyReg != 0u)
 143:.\Generated_Source\PSoC5/USBFS_drv.c ****         {
 144:.\Generated_Source\PSoC5/USBFS_drv.c ****             bRegTemp = CY_GET_REG8(USBFS_EP0_CR_PTR);    /* unlock registers */
 145:.\Generated_Source\PSoC5/USBFS_drv.c ****             if((bRegTemp & USBFS_MODE_SETUP_RCVD) == 0)  /* Check if SETUP bit is not set, otherwis
 146:.\Generated_Source\PSoC5/USBFS_drv.c ****             {
 147:.\Generated_Source\PSoC5/USBFS_drv.c ****                 /* Update the count register */
 148:.\Generated_Source\PSoC5/USBFS_drv.c ****                 bRegTemp = USBFS_ep0Toggle | USBFS_ep0Count;
 149:.\Generated_Source\PSoC5/USBFS_drv.c ****                 CY_SET_REG8(USBFS_EP0_CNT_PTR, bRegTemp);
 150:.\Generated_Source\PSoC5/USBFS_drv.c ****                 if(bRegTemp == CY_GET_REG8(USBFS_EP0_CNT_PTR))   /* continue if writing was succesf
 151:.\Generated_Source\PSoC5/USBFS_drv.c ****                 {
 152:.\Generated_Source\PSoC5/USBFS_drv.c ****                     do
 153:.\Generated_Source\PSoC5/USBFS_drv.c ****                     {
 154:.\Generated_Source\PSoC5/USBFS_drv.c ****                         modifyReg = USBFS_ep0Mode;       /* init temporary variable */
 155:.\Generated_Source\PSoC5/USBFS_drv.c ****                         /* unlock registers */
 156:.\Generated_Source\PSoC5/USBFS_drv.c ****                         bRegTemp = CY_GET_REG8(USBFS_EP0_CR_PTR) & USBFS_MODE_SETUP_RCVD;
 157:.\Generated_Source\PSoC5/USBFS_drv.c ****                         if(bRegTemp == 0)                           /* Check if SETUP bit is not se
 158:.\Generated_Source\PSoC5/USBFS_drv.c ****                         {
 159:.\Generated_Source\PSoC5/USBFS_drv.c ****                             /* Set the Mode Register  */
 160:.\Generated_Source\PSoC5/USBFS_drv.c ****                             CY_SET_REG8(USBFS_EP0_CR_PTR, USBFS_ep0Mode);
 161:.\Generated_Source\PSoC5/USBFS_drv.c ****                             /* writing check */
 162:.\Generated_Source\PSoC5/USBFS_drv.c ****                             modifyReg = CY_GET_REG8(USBFS_EP0_CR_PTR) & USBFS_MODE_MASK;
 163:.\Generated_Source\PSoC5/USBFS_drv.c ****                         }
 164:.\Generated_Source\PSoC5/USBFS_drv.c ****                     }while(modifyReg != USBFS_ep0Mode);  /* repeat if writing was not successful */
 165:.\Generated_Source\PSoC5/USBFS_drv.c ****                 }
 166:.\Generated_Source\PSoC5/USBFS_drv.c ****             }
 167:.\Generated_Source\PSoC5/USBFS_drv.c ****         }
 168:.\Generated_Source\PSoC5/USBFS_drv.c ****     }
 169:.\Generated_Source\PSoC5/USBFS_drv.c **** }
 170:.\Generated_Source\PSoC5/USBFS_drv.c **** 
 171:.\Generated_Source\PSoC5/USBFS_drv.c **** 
 172:.\Generated_Source\PSoC5/USBFS_drv.c **** /*******************************************************************************
 173:.\Generated_Source\PSoC5/USBFS_drv.c **** * Function Name: USBFS_HandleSetup
 174:.\Generated_Source\PSoC5/USBFS_drv.c **** ********************************************************************************
 175:.\Generated_Source\PSoC5/USBFS_drv.c **** *
 176:.\Generated_Source\PSoC5/USBFS_drv.c **** * Summary:
 177:.\Generated_Source\PSoC5/USBFS_drv.c **** *  This Routine dispatches requests for the four USB request types
 178:.\Generated_Source\PSoC5/USBFS_drv.c **** *
 179:.\Generated_Source\PSoC5/USBFS_drv.c **** * Parameters:
 180:.\Generated_Source\PSoC5/USBFS_drv.c **** *  None.
 181:.\Generated_Source\PSoC5/USBFS_drv.c **** *
 182:.\Generated_Source\PSoC5/USBFS_drv.c **** * Return:
 183:.\Generated_Source\PSoC5/USBFS_drv.c **** *  None.
 184:.\Generated_Source\PSoC5/USBFS_drv.c **** *
 185:.\Generated_Source\PSoC5/USBFS_drv.c **** * Reentrant:
 186:.\Generated_Source\PSoC5/USBFS_drv.c **** *  No.
 187:.\Generated_Source\PSoC5/USBFS_drv.c **** *
 188:.\Generated_Source\PSoC5/USBFS_drv.c **** *******************************************************************************/
 189:.\Generated_Source\PSoC5/USBFS_drv.c **** void USBFS_HandleSetup(void) 
 190:.\Generated_Source\PSoC5/USBFS_drv.c **** {
 191:.\Generated_Source\PSoC5/USBFS_drv.c ****     uint8 requestHandled;
 192:.\Generated_Source\PSoC5/USBFS_drv.c **** 
 193:.\Generated_Source\PSoC5/USBFS_drv.c ****     requestHandled = CY_GET_REG8(USBFS_EP0_CR_PTR);      /* unlock registers */
ARM GAS  C:\DOCUME~1\ADMINI~1\LOCALS~1\Temp\ccuGndcP.s 			page 5


 194:.\Generated_Source\PSoC5/USBFS_drv.c ****     CY_SET_REG8(USBFS_EP0_CR_PTR, requestHandled);       /* clear setup bit */
 195:.\Generated_Source\PSoC5/USBFS_drv.c ****     requestHandled = CY_GET_REG8(USBFS_EP0_CR_PTR);      /* reread register */
 196:.\Generated_Source\PSoC5/USBFS_drv.c ****     if(requestHandled & USBFS_MODE_SETUP_RCVD)
 197:.\Generated_Source\PSoC5/USBFS_drv.c ****     {
 198:.\Generated_Source\PSoC5/USBFS_drv.c ****         USBFS_ep0Mode = requestHandled;        /* if SETUP bit set -> exit without modifying the mo
 199:.\Generated_Source\PSoC5/USBFS_drv.c ****     }
 200:.\Generated_Source\PSoC5/USBFS_drv.c ****     else
 201:.\Generated_Source\PSoC5/USBFS_drv.c ****     {
 202:.\Generated_Source\PSoC5/USBFS_drv.c ****         /* In case the previous transfer did not complete, close it out */
 203:.\Generated_Source\PSoC5/USBFS_drv.c ****         USBFS_UpdateStatusBlock(USBFS_XFER_PREMATURE);
 204:.\Generated_Source\PSoC5/USBFS_drv.c **** 
 205:.\Generated_Source\PSoC5/USBFS_drv.c ****         switch (CY_GET_REG8(USBFS_bmRequestType) & USBFS_RQST_TYPE_MASK)
 206:.\Generated_Source\PSoC5/USBFS_drv.c ****         {
 207:.\Generated_Source\PSoC5/USBFS_drv.c ****             case USBFS_RQST_TYPE_STD:
 208:.\Generated_Source\PSoC5/USBFS_drv.c ****                 requestHandled = USBFS_HandleStandardRqst();
 209:.\Generated_Source\PSoC5/USBFS_drv.c ****                 break;
 210:.\Generated_Source\PSoC5/USBFS_drv.c ****             case USBFS_RQST_TYPE_CLS:
 211:.\Generated_Source\PSoC5/USBFS_drv.c ****                 requestHandled = USBFS_DispatchClassRqst();
 212:.\Generated_Source\PSoC5/USBFS_drv.c ****                 break;
 213:.\Generated_Source\PSoC5/USBFS_drv.c ****             case USBFS_RQST_TYPE_VND:
 214:.\Generated_Source\PSoC5/USBFS_drv.c ****                 requestHandled = USBFS_HandleVendorRqst();
 215:.\Generated_Source\PSoC5/USBFS_drv.c ****                 break;
 216:.\Generated_Source\PSoC5/USBFS_drv.c ****             default:
 217:.\Generated_Source\PSoC5/USBFS_drv.c ****                 requestHandled = USBFS_FALSE;
 218:.\Generated_Source\PSoC5/USBFS_drv.c ****                 break;
 219:.\Generated_Source\PSoC5/USBFS_drv.c ****         }
 220:.\Generated_Source\PSoC5/USBFS_drv.c ****         if (requestHandled == USBFS_FALSE)
 221:.\Generated_Source\PSoC5/USBFS_drv.c ****         {
 222:.\Generated_Source\PSoC5/USBFS_drv.c ****             USBFS_ep0Mode = USBFS_MODE_STALL_IN_OUT;
 223:.\Generated_Source\PSoC5/USBFS_drv.c ****         }
 224:.\Generated_Source\PSoC5/USBFS_drv.c ****     }
 225:.\Generated_Source\PSoC5/USBFS_drv.c **** }
 226:.\Generated_Source\PSoC5/USBFS_drv.c **** 
 227:.\Generated_Source\PSoC5/USBFS_drv.c **** 
 228:.\Generated_Source\PSoC5/USBFS_drv.c **** /*******************************************************************************
 229:.\Generated_Source\PSoC5/USBFS_drv.c **** * Function Name: USBFS_HandleIN
 230:.\Generated_Source\PSoC5/USBFS_drv.c **** ********************************************************************************
 231:.\Generated_Source\PSoC5/USBFS_drv.c **** *
 232:.\Generated_Source\PSoC5/USBFS_drv.c **** * Summary:
 233:.\Generated_Source\PSoC5/USBFS_drv.c **** *  This routine handles EP0 IN transfers.
 234:.\Generated_Source\PSoC5/USBFS_drv.c **** *
 235:.\Generated_Source\PSoC5/USBFS_drv.c **** * Parameters:
 236:.\Generated_Source\PSoC5/USBFS_drv.c **** *  None.
 237:.\Generated_Source\PSoC5/USBFS_drv.c **** *
 238:.\Generated_Source\PSoC5/USBFS_drv.c **** * Return:
 239:.\Generated_Source\PSoC5/USBFS_drv.c **** *  None.
 240:.\Generated_Source\PSoC5/USBFS_drv.c **** *
 241:.\Generated_Source\PSoC5/USBFS_drv.c **** * Reentrant:
 242:.\Generated_Source\PSoC5/USBFS_drv.c **** *  No.
 243:.\Generated_Source\PSoC5/USBFS_drv.c **** *
 244:.\Generated_Source\PSoC5/USBFS_drv.c **** *******************************************************************************/
 245:.\Generated_Source\PSoC5/USBFS_drv.c **** void USBFS_HandleIN(void) 
 246:.\Generated_Source\PSoC5/USBFS_drv.c **** {
 247:.\Generated_Source\PSoC5/USBFS_drv.c ****     switch (USBFS_transferState)
 248:.\Generated_Source\PSoC5/USBFS_drv.c ****     {
 249:.\Generated_Source\PSoC5/USBFS_drv.c ****         case USBFS_TRANS_STATE_IDLE:
 250:.\Generated_Source\PSoC5/USBFS_drv.c ****             break;
ARM GAS  C:\DOCUME~1\ADMINI~1\LOCALS~1\Temp\ccuGndcP.s 			page 6


 251:.\Generated_Source\PSoC5/USBFS_drv.c ****         case USBFS_TRANS_STATE_CONTROL_READ:
 252:.\Generated_Source\PSoC5/USBFS_drv.c ****             USBFS_ControlReadDataStage();
 253:.\Generated_Source\PSoC5/USBFS_drv.c ****             break;
 254:.\Generated_Source\PSoC5/USBFS_drv.c ****         case USBFS_TRANS_STATE_CONTROL_WRITE:
 255:.\Generated_Source\PSoC5/USBFS_drv.c ****             USBFS_ControlWriteStatusStage();
 256:.\Generated_Source\PSoC5/USBFS_drv.c ****             break;
 257:.\Generated_Source\PSoC5/USBFS_drv.c ****         case USBFS_TRANS_STATE_NO_DATA_CONTROL:
 258:.\Generated_Source\PSoC5/USBFS_drv.c ****             USBFS_NoDataControlStatusStage();
 259:.\Generated_Source\PSoC5/USBFS_drv.c ****             break;
 260:.\Generated_Source\PSoC5/USBFS_drv.c ****         default:    /* there are no more states */
 261:.\Generated_Source\PSoC5/USBFS_drv.c ****             break;
 262:.\Generated_Source\PSoC5/USBFS_drv.c ****     }
 263:.\Generated_Source\PSoC5/USBFS_drv.c **** }
 264:.\Generated_Source\PSoC5/USBFS_drv.c **** 
 265:.\Generated_Source\PSoC5/USBFS_drv.c **** 
 266:.\Generated_Source\PSoC5/USBFS_drv.c **** /*******************************************************************************
 267:.\Generated_Source\PSoC5/USBFS_drv.c **** * Function Name: USBFS_HandleOUT
 268:.\Generated_Source\PSoC5/USBFS_drv.c **** ********************************************************************************
 269:.\Generated_Source\PSoC5/USBFS_drv.c **** *
 270:.\Generated_Source\PSoC5/USBFS_drv.c **** * Summary:
 271:.\Generated_Source\PSoC5/USBFS_drv.c **** *  This routine handles EP0 OUT transfers.
 272:.\Generated_Source\PSoC5/USBFS_drv.c **** *
 273:.\Generated_Source\PSoC5/USBFS_drv.c **** * Parameters:
 274:.\Generated_Source\PSoC5/USBFS_drv.c **** *  None.
 275:.\Generated_Source\PSoC5/USBFS_drv.c **** *
 276:.\Generated_Source\PSoC5/USBFS_drv.c **** * Return:
 277:.\Generated_Source\PSoC5/USBFS_drv.c **** *  None.
 278:.\Generated_Source\PSoC5/USBFS_drv.c **** *
 279:.\Generated_Source\PSoC5/USBFS_drv.c **** * Reentrant:
 280:.\Generated_Source\PSoC5/USBFS_drv.c **** *  No.
 281:.\Generated_Source\PSoC5/USBFS_drv.c **** *
 282:.\Generated_Source\PSoC5/USBFS_drv.c **** *******************************************************************************/
 283:.\Generated_Source\PSoC5/USBFS_drv.c **** void USBFS_HandleOUT(void) 
 284:.\Generated_Source\PSoC5/USBFS_drv.c **** {
 285:.\Generated_Source\PSoC5/USBFS_drv.c ****     switch (USBFS_transferState)
 286:.\Generated_Source\PSoC5/USBFS_drv.c ****     {
 287:.\Generated_Source\PSoC5/USBFS_drv.c ****         case USBFS_TRANS_STATE_IDLE:
 288:.\Generated_Source\PSoC5/USBFS_drv.c ****             break;
 289:.\Generated_Source\PSoC5/USBFS_drv.c ****         case USBFS_TRANS_STATE_CONTROL_READ:
 290:.\Generated_Source\PSoC5/USBFS_drv.c ****             USBFS_ControlReadStatusStage();
 291:.\Generated_Source\PSoC5/USBFS_drv.c ****             break;
 292:.\Generated_Source\PSoC5/USBFS_drv.c ****         case USBFS_TRANS_STATE_CONTROL_WRITE:
 293:.\Generated_Source\PSoC5/USBFS_drv.c ****             USBFS_ControlWriteDataStage();
 294:.\Generated_Source\PSoC5/USBFS_drv.c ****             break;
 295:.\Generated_Source\PSoC5/USBFS_drv.c ****         case USBFS_TRANS_STATE_NO_DATA_CONTROL:
 296:.\Generated_Source\PSoC5/USBFS_drv.c ****             /* Update the completion block */
 297:.\Generated_Source\PSoC5/USBFS_drv.c ****             USBFS_UpdateStatusBlock(USBFS_XFER_ERROR);
 298:.\Generated_Source\PSoC5/USBFS_drv.c ****             /* We expect no more data, so stall INs and OUTs */
 299:.\Generated_Source\PSoC5/USBFS_drv.c ****             USBFS_ep0Mode = USBFS_MODE_STALL_IN_OUT;
 300:.\Generated_Source\PSoC5/USBFS_drv.c ****             break;
 301:.\Generated_Source\PSoC5/USBFS_drv.c ****         default:    /* there are no more states */
 302:.\Generated_Source\PSoC5/USBFS_drv.c ****             break;
 303:.\Generated_Source\PSoC5/USBFS_drv.c ****     }
 304:.\Generated_Source\PSoC5/USBFS_drv.c **** }
 305:.\Generated_Source\PSoC5/USBFS_drv.c **** 
 306:.\Generated_Source\PSoC5/USBFS_drv.c **** 
 307:.\Generated_Source\PSoC5/USBFS_drv.c **** /*******************************************************************************
ARM GAS  C:\DOCUME~1\ADMINI~1\LOCALS~1\Temp\ccuGndcP.s 			page 7


 308:.\Generated_Source\PSoC5/USBFS_drv.c **** * Function Name: USBFS_LoadEP0
 309:.\Generated_Source\PSoC5/USBFS_drv.c **** ********************************************************************************
 310:.\Generated_Source\PSoC5/USBFS_drv.c **** *
 311:.\Generated_Source\PSoC5/USBFS_drv.c **** * Summary:
 312:.\Generated_Source\PSoC5/USBFS_drv.c **** *  This routine loads the EP0 data registers for OUT transfers.  It uses the
 313:.\Generated_Source\PSoC5/USBFS_drv.c **** *  currentTD (previously initialized by the _InitControlWrite function and
 314:.\Generated_Source\PSoC5/USBFS_drv.c **** *  updated for each OUT transfer, and the bLastPacketSize) to determine how
 315:.\Generated_Source\PSoC5/USBFS_drv.c **** *  many uint8s to transfer on the current OUT.
 316:.\Generated_Source\PSoC5/USBFS_drv.c **** *
 317:.\Generated_Source\PSoC5/USBFS_drv.c **** *  If the number of uint8s remaining is zero and the last transfer was full,
 318:.\Generated_Source\PSoC5/USBFS_drv.c **** *  we need to send a zero length packet.  Otherwise we send the minimum
 319:.\Generated_Source\PSoC5/USBFS_drv.c **** *  of the control endpoint size (8) or remaining number of uint8s for the
 320:.\Generated_Source\PSoC5/USBFS_drv.c **** *  transaction.
 321:.\Generated_Source\PSoC5/USBFS_drv.c **** *
 322:.\Generated_Source\PSoC5/USBFS_drv.c **** * Parameters:
 323:.\Generated_Source\PSoC5/USBFS_drv.c **** *  None.
 324:.\Generated_Source\PSoC5/USBFS_drv.c **** *
 325:.\Generated_Source\PSoC5/USBFS_drv.c **** * Return:
 326:.\Generated_Source\PSoC5/USBFS_drv.c **** *  None.
 327:.\Generated_Source\PSoC5/USBFS_drv.c **** *
 328:.\Generated_Source\PSoC5/USBFS_drv.c **** * Global variables:
 329:.\Generated_Source\PSoC5/USBFS_drv.c **** *  USBFS_transferByteCount - Update the transfer byte count from the
 330:.\Generated_Source\PSoC5/USBFS_drv.c **** *     last transaction.
 331:.\Generated_Source\PSoC5/USBFS_drv.c **** *  USBFS_ep0Count - counts the data loaded to the SIE memory in
 332:.\Generated_Source\PSoC5/USBFS_drv.c **** *     current packet.
 333:.\Generated_Source\PSoC5/USBFS_drv.c **** *  USBFS_lastPacketSize - remebers the USBFS_ep0Count value for the
 334:.\Generated_Source\PSoC5/USBFS_drv.c **** *     next packet.
 335:.\Generated_Source\PSoC5/USBFS_drv.c **** *  USBFS_transferByteCount - suma of the previos bytes transferred
 336:.\Generated_Source\PSoC5/USBFS_drv.c **** *     on previous packets(suma of USBFS_lastPacketSize)
 337:.\Generated_Source\PSoC5/USBFS_drv.c **** *  USBFS_ep0Toggle - inverted
 338:.\Generated_Source\PSoC5/USBFS_drv.c **** *  USBFS_ep0Mode  - prepare for mode register content.
 339:.\Generated_Source\PSoC5/USBFS_drv.c **** *  USBFS_transferState - set to TRANS_STATE_CONTROL_READ
 340:.\Generated_Source\PSoC5/USBFS_drv.c **** *
 341:.\Generated_Source\PSoC5/USBFS_drv.c **** * Reentrant:
 342:.\Generated_Source\PSoC5/USBFS_drv.c **** *  No.
 343:.\Generated_Source\PSoC5/USBFS_drv.c **** *
 344:.\Generated_Source\PSoC5/USBFS_drv.c **** *******************************************************************************/
 345:.\Generated_Source\PSoC5/USBFS_drv.c **** void USBFS_LoadEP0(void) 
 346:.\Generated_Source\PSoC5/USBFS_drv.c **** {
  32              		.loc 1 346 0
  33              		.cfi_startproc
  34              		@ args = 0, pretend = 0, frame = 0
  35              		@ frame_needed = 0, uses_anonymous_args = 0
  36              		@ link register save eliminated.
 347:.\Generated_Source\PSoC5/USBFS_drv.c ****     /* Update the transfer byte count from the last transaction */
 348:.\Generated_Source\PSoC5/USBFS_drv.c ****     USBFS_transferByteCount += USBFS_lastPacketSize;
  37              		.loc 1 348 0
  38 0000 204B     		ldr	r3, .L10
  39 0002 2149     		ldr	r1, .L10+4
  40 0004 1A88     		ldrh	r2, [r3, #0]
  41 0006 0978     		ldrb	r1, [r1, #0]	@ zero_extendqisi2
  42 0008 8A18     		adds	r2, r1, r2
  43 000a 92B2     		uxth	r2, r2
  44 000c 1A80     		strh	r2, [r3, #0]	@ movhi
 349:.\Generated_Source\PSoC5/USBFS_drv.c ****     /* Now load the next transaction */
 350:.\Generated_Source\PSoC5/USBFS_drv.c ****     USBFS_ep0Count = 0u;
  45              		.loc 1 350 0
ARM GAS  C:\DOCUME~1\ADMINI~1\LOCALS~1\Temp\ccuGndcP.s 			page 8


  46 000e 1F4B     		ldr	r3, .L10+8
  47 0010 0022     		movs	r2, #0
  48 0012 1A70     		strb	r2, [r3, #0]
 351:.\Generated_Source\PSoC5/USBFS_drv.c ****     while ((USBFS_currentTD.count > 0u) && (USBFS_ep0Count < 8u))
  49              		.loc 1 351 0
  50 0014 12E0     		b	.L2
  51              	.L4:
 352:.\Generated_Source\PSoC5/USBFS_drv.c ****     {
 353:.\Generated_Source\PSoC5/USBFS_drv.c ****         USBFS_EP0_DR0_PTR[USBFS_ep0Count] = *USBFS_currentTD.pData++;
  52              		.loc 1 353 0
  53 0016 1078     		ldrb	r0, [r2, #0]	@ zero_extendqisi2
  54 0018 5968     		ldr	r1, [r3, #4]
  55 001a 00F18040 		add	r0, r0, #1073741824
  56 001e 11F801CB 		ldrb	ip, [r1], #1	@ zero_extendqisi2
  57 0022 00F5C040 		add	r0, r0, #24576
  58 0026 80F800C0 		strb	ip, [r0, #0]
  59 002a 5960     		str	r1, [r3, #4]
 354:.\Generated_Source\PSoC5/USBFS_drv.c ****         USBFS_ep0Count++;
  60              		.loc 1 354 0
  61 002c 1178     		ldrb	r1, [r2, #0]	@ zero_extendqisi2
  62 002e 0131     		adds	r1, r1, #1
  63 0030 C9B2     		uxtb	r1, r1
  64 0032 1170     		strb	r1, [r2, #0]
 355:.\Generated_Source\PSoC5/USBFS_drv.c ****         USBFS_currentTD.count--;
  65              		.loc 1 355 0
  66 0034 1A88     		ldrh	r2, [r3, #0]
  67 0036 013A     		subs	r2, r2, #1
  68 0038 92B2     		uxth	r2, r2
  69 003a 1A80     		strh	r2, [r3, #0]	@ movhi
  70              	.L2:
  71              		.loc 1 351 0
  72 003c 144B     		ldr	r3, .L10+12
  73 003e 1A88     		ldrh	r2, [r3, #0]
  74 0040 1AB1     		cbz	r2, .L3
  75 0042 124A     		ldr	r2, .L10+8
  76 0044 1178     		ldrb	r1, [r2, #0]	@ zero_extendqisi2
  77 0046 0729     		cmp	r1, #7
  78 0048 E5D9     		bls	.L4
  79              	.L3:
 356:.\Generated_Source\PSoC5/USBFS_drv.c ****     }
 357:.\Generated_Source\PSoC5/USBFS_drv.c ****     /* Support zero-length packet*/
 358:.\Generated_Source\PSoC5/USBFS_drv.c ****     if( (USBFS_ep0Count > 0u) || (USBFS_lastPacketSize == 8u) )
  80              		.loc 1 358 0
  81 004a 104B     		ldr	r3, .L10+8
  82 004c 1B78     		ldrb	r3, [r3, #0]	@ zero_extendqisi2
  83 004e 1BB9     		cbnz	r3, .L5
  84 0050 0D4B     		ldr	r3, .L10+4
  85 0052 1B78     		ldrb	r3, [r3, #0]	@ zero_extendqisi2
  86 0054 082B     		cmp	r3, #8
  87 0056 0BD1     		bne	.L6
  88              	.L5:
 359:.\Generated_Source\PSoC5/USBFS_drv.c ****     {
 360:.\Generated_Source\PSoC5/USBFS_drv.c ****         /* Update the data toggle */
 361:.\Generated_Source\PSoC5/USBFS_drv.c ****         USBFS_ep0Toggle ^= USBFS_EP0_CNT_DATA_TOGGLE;
  89              		.loc 1 361 0
  90 0058 0E4B     		ldr	r3, .L10+16
  91 005a 1A78     		ldrb	r2, [r3, #0]	@ zero_extendqisi2
ARM GAS  C:\DOCUME~1\ADMINI~1\LOCALS~1\Temp\ccuGndcP.s 			page 9


  92 005c 82F08002 		eor	r2, r2, #128
  93 0060 1A70     		strb	r2, [r3, #0]
 362:.\Generated_Source\PSoC5/USBFS_drv.c ****         /* Set the Mode Register  */
 363:.\Generated_Source\PSoC5/USBFS_drv.c ****         USBFS_ep0Mode = USBFS_MODE_ACK_IN_STATUS_OUT;
  94              		.loc 1 363 0
  95 0062 0D4B     		ldr	r3, .L10+20
  96 0064 0F22     		movs	r2, #15
  97 0066 1A70     		strb	r2, [r3, #0]
 364:.\Generated_Source\PSoC5/USBFS_drv.c ****         /* Update the state (or stay the same) */
 365:.\Generated_Source\PSoC5/USBFS_drv.c ****         USBFS_transferState = USBFS_TRANS_STATE_CONTROL_READ;
  98              		.loc 1 365 0
  99 0068 0C4B     		ldr	r3, .L10+24
 100 006a 0D3A     		subs	r2, r2, #13
 101 006c 1A70     		strb	r2, [r3, #0]
 102              		.loc 1 358 0
 103 006e 04E0     		b	.L7
 104              	.L6:
 366:.\Generated_Source\PSoC5/USBFS_drv.c ****     }
 367:.\Generated_Source\PSoC5/USBFS_drv.c ****     else
 368:.\Generated_Source\PSoC5/USBFS_drv.c ****     {
 369:.\Generated_Source\PSoC5/USBFS_drv.c ****         /* Expect Status Stage Out */
 370:.\Generated_Source\PSoC5/USBFS_drv.c ****         USBFS_ep0Mode = USBFS_MODE_STATUS_OUT_ONLY;
 105              		.loc 1 370 0
 106 0070 094A     		ldr	r2, .L10+20
 107 0072 0223     		movs	r3, #2
 108 0074 1370     		strb	r3, [r2, #0]
 371:.\Generated_Source\PSoC5/USBFS_drv.c ****         /* Update the state (or stay the same) */
 372:.\Generated_Source\PSoC5/USBFS_drv.c ****         USBFS_transferState = USBFS_TRANS_STATE_CONTROL_READ;
 109              		.loc 1 372 0
 110 0076 094A     		ldr	r2, .L10+24
 111 0078 1370     		strb	r3, [r2, #0]
 112              	.L7:
 373:.\Generated_Source\PSoC5/USBFS_drv.c ****     }
 374:.\Generated_Source\PSoC5/USBFS_drv.c **** 
 375:.\Generated_Source\PSoC5/USBFS_drv.c ****     /* Save the packet size for next time */
 376:.\Generated_Source\PSoC5/USBFS_drv.c ****     USBFS_lastPacketSize = USBFS_ep0Count;
 113              		.loc 1 376 0
 114 007a 044B     		ldr	r3, .L10+8
 115 007c 1A78     		ldrb	r2, [r3, #0]	@ zero_extendqisi2
 116 007e 024B     		ldr	r3, .L10+4
 117 0080 1A70     		strb	r2, [r3, #0]
 377:.\Generated_Source\PSoC5/USBFS_drv.c **** }
 118              		.loc 1 377 0
 119 0082 7047     		bx	lr
 120              	.L11:
 121              		.align	2
 122              	.L10:
 123 0084 00000000 		.word	USBFS_transferByteCount
 124 0088 00000000 		.word	USBFS_lastPacketSize
 125 008c 00000000 		.word	USBFS_ep0Count
 126 0090 00000000 		.word	USBFS_currentTD
 127 0094 00000000 		.word	USBFS_ep0Toggle
 128 0098 00000000 		.word	USBFS_ep0Mode
 129 009c 00000000 		.word	USBFS_transferState
 130              		.cfi_endproc
 131              	.LFE4:
 132              		.size	USBFS_LoadEP0, .-USBFS_LoadEP0
ARM GAS  C:\DOCUME~1\ADMINI~1\LOCALS~1\Temp\ccuGndcP.s 			page 10


 133              		.section	.text.USBFS_InitZeroLengthControlTransfer,"ax",%progbits
 134              		.align	1
 135              		.global	USBFS_InitZeroLengthControlTransfer
 136              		.thumb
 137              		.thumb_func
 138              		.type	USBFS_InitZeroLengthControlTransfer, %function
 139              	USBFS_InitZeroLengthControlTransfer:
 140              	.LFB6:
 378:.\Generated_Source\PSoC5/USBFS_drv.c **** 
 379:.\Generated_Source\PSoC5/USBFS_drv.c **** 
 380:.\Generated_Source\PSoC5/USBFS_drv.c **** /*******************************************************************************
 381:.\Generated_Source\PSoC5/USBFS_drv.c **** * Function Name: USBFS_InitControlRead
 382:.\Generated_Source\PSoC5/USBFS_drv.c **** ********************************************************************************
 383:.\Generated_Source\PSoC5/USBFS_drv.c **** *
 384:.\Generated_Source\PSoC5/USBFS_drv.c **** * Summary:
 385:.\Generated_Source\PSoC5/USBFS_drv.c **** *  Initialize a control read transaction, usable to send data to the host.
 386:.\Generated_Source\PSoC5/USBFS_drv.c **** *  The following global variables shold be initialized before this function
 387:.\Generated_Source\PSoC5/USBFS_drv.c **** *  called. To send zero length packet use InitZeroLengthControlTransfer
 388:.\Generated_Source\PSoC5/USBFS_drv.c **** *  function.
 389:.\Generated_Source\PSoC5/USBFS_drv.c **** *
 390:.\Generated_Source\PSoC5/USBFS_drv.c **** * Parameters:
 391:.\Generated_Source\PSoC5/USBFS_drv.c **** *  None.
 392:.\Generated_Source\PSoC5/USBFS_drv.c **** *
 393:.\Generated_Source\PSoC5/USBFS_drv.c **** * Return:
 394:.\Generated_Source\PSoC5/USBFS_drv.c **** *  requestHandled state.
 395:.\Generated_Source\PSoC5/USBFS_drv.c **** *
 396:.\Generated_Source\PSoC5/USBFS_drv.c **** * Global variables:
 397:.\Generated_Source\PSoC5/USBFS_drv.c **** *  USBFS_currentTD.count - counts of data to be sent.
 398:.\Generated_Source\PSoC5/USBFS_drv.c **** *  USBFS_currentTD.pData - data pointer.
 399:.\Generated_Source\PSoC5/USBFS_drv.c **** *
 400:.\Generated_Source\PSoC5/USBFS_drv.c **** * Reentrant:
 401:.\Generated_Source\PSoC5/USBFS_drv.c **** *  No.
 402:.\Generated_Source\PSoC5/USBFS_drv.c **** *
 403:.\Generated_Source\PSoC5/USBFS_drv.c **** *******************************************************************************/
 404:.\Generated_Source\PSoC5/USBFS_drv.c **** uint8 USBFS_InitControlRead(void) 
 405:.\Generated_Source\PSoC5/USBFS_drv.c **** {
 406:.\Generated_Source\PSoC5/USBFS_drv.c ****     uint16 xferCount;
 407:.\Generated_Source\PSoC5/USBFS_drv.c ****     if(USBFS_currentTD.count == 0)
 408:.\Generated_Source\PSoC5/USBFS_drv.c ****     {
 409:.\Generated_Source\PSoC5/USBFS_drv.c ****         USBFS_InitZeroLengthControlTransfer();
 410:.\Generated_Source\PSoC5/USBFS_drv.c ****     }
 411:.\Generated_Source\PSoC5/USBFS_drv.c ****     else
 412:.\Generated_Source\PSoC5/USBFS_drv.c ****     {
 413:.\Generated_Source\PSoC5/USBFS_drv.c ****         /* Set up the state machine */
 414:.\Generated_Source\PSoC5/USBFS_drv.c ****         USBFS_transferState = USBFS_TRANS_STATE_CONTROL_READ;
 415:.\Generated_Source\PSoC5/USBFS_drv.c ****         /* Set the toggle, it gets updated in LoadEP */
 416:.\Generated_Source\PSoC5/USBFS_drv.c ****         USBFS_ep0Toggle = 0u;
 417:.\Generated_Source\PSoC5/USBFS_drv.c ****         /* Initialize the Status Block */
 418:.\Generated_Source\PSoC5/USBFS_drv.c ****         USBFS_InitializeStatusBlock();
 419:.\Generated_Source\PSoC5/USBFS_drv.c ****         xferCount = (((uint16)CY_GET_REG8(USBFS_lengthHi) << 8u) | (CY_GET_REG8(USBFS_lengthLo)));
 420:.\Generated_Source\PSoC5/USBFS_drv.c **** 
 421:.\Generated_Source\PSoC5/USBFS_drv.c ****         if (USBFS_currentTD.count > xferCount)
 422:.\Generated_Source\PSoC5/USBFS_drv.c ****         {
 423:.\Generated_Source\PSoC5/USBFS_drv.c ****             USBFS_currentTD.count = xferCount;
 424:.\Generated_Source\PSoC5/USBFS_drv.c ****         }
 425:.\Generated_Source\PSoC5/USBFS_drv.c ****         USBFS_LoadEP0();
 426:.\Generated_Source\PSoC5/USBFS_drv.c ****     }
ARM GAS  C:\DOCUME~1\ADMINI~1\LOCALS~1\Temp\ccuGndcP.s 			page 11


 427:.\Generated_Source\PSoC5/USBFS_drv.c **** 
 428:.\Generated_Source\PSoC5/USBFS_drv.c ****     return(USBFS_TRUE);
 429:.\Generated_Source\PSoC5/USBFS_drv.c **** }
 430:.\Generated_Source\PSoC5/USBFS_drv.c **** 
 431:.\Generated_Source\PSoC5/USBFS_drv.c **** 
 432:.\Generated_Source\PSoC5/USBFS_drv.c **** /*******************************************************************************
 433:.\Generated_Source\PSoC5/USBFS_drv.c **** * Function Name: USBFS_InitZeroLengthControlTransfer
 434:.\Generated_Source\PSoC5/USBFS_drv.c **** ********************************************************************************
 435:.\Generated_Source\PSoC5/USBFS_drv.c **** *
 436:.\Generated_Source\PSoC5/USBFS_drv.c **** * Summary:
 437:.\Generated_Source\PSoC5/USBFS_drv.c **** *  Initialize a zero length data IN transfer.
 438:.\Generated_Source\PSoC5/USBFS_drv.c **** *
 439:.\Generated_Source\PSoC5/USBFS_drv.c **** * Parameters:
 440:.\Generated_Source\PSoC5/USBFS_drv.c **** *  None.
 441:.\Generated_Source\PSoC5/USBFS_drv.c **** *
 442:.\Generated_Source\PSoC5/USBFS_drv.c **** * Return:
 443:.\Generated_Source\PSoC5/USBFS_drv.c **** *  requestHandled state.
 444:.\Generated_Source\PSoC5/USBFS_drv.c **** *
 445:.\Generated_Source\PSoC5/USBFS_drv.c **** * Global variables:
 446:.\Generated_Source\PSoC5/USBFS_drv.c **** *  USBFS_ep0Toggle - set to EP0_CNT_DATA_TOGGLE
 447:.\Generated_Source\PSoC5/USBFS_drv.c **** *  USBFS_ep0Mode  - prepare for mode register content.
 448:.\Generated_Source\PSoC5/USBFS_drv.c **** *  USBFS_transferState - set to TRANS_STATE_CONTROL_READ
 449:.\Generated_Source\PSoC5/USBFS_drv.c **** *  USBFS_ep0Count - cleared, means the zero-length packet.
 450:.\Generated_Source\PSoC5/USBFS_drv.c **** *  USBFS_lastPacketSize - cleared.
 451:.\Generated_Source\PSoC5/USBFS_drv.c **** *
 452:.\Generated_Source\PSoC5/USBFS_drv.c **** * Reentrant:
 453:.\Generated_Source\PSoC5/USBFS_drv.c **** *  No.
 454:.\Generated_Source\PSoC5/USBFS_drv.c **** *
 455:.\Generated_Source\PSoC5/USBFS_drv.c **** *******************************************************************************/
 456:.\Generated_Source\PSoC5/USBFS_drv.c **** uint8 USBFS_InitZeroLengthControlTransfer(void)
 457:.\Generated_Source\PSoC5/USBFS_drv.c ****                                                 
 458:.\Generated_Source\PSoC5/USBFS_drv.c **** {
 141              		.loc 1 458 0
 142              		.cfi_startproc
 143              		@ args = 0, pretend = 0, frame = 0
 144              		@ frame_needed = 0, uses_anonymous_args = 0
 145              		@ link register save eliminated.
 459:.\Generated_Source\PSoC5/USBFS_drv.c ****     /* Update the state */
 460:.\Generated_Source\PSoC5/USBFS_drv.c ****     USBFS_transferState = USBFS_TRANS_STATE_CONTROL_READ;
 146              		.loc 1 460 0
 147 0000 074B     		ldr	r3, .L14
 148 0002 0222     		movs	r2, #2
 149 0004 1A70     		strb	r2, [r3, #0]
 461:.\Generated_Source\PSoC5/USBFS_drv.c ****     /* Set the data toggle */
 462:.\Generated_Source\PSoC5/USBFS_drv.c ****     USBFS_ep0Toggle = USBFS_EP0_CNT_DATA_TOGGLE;
 150              		.loc 1 462 0
 151 0006 074B     		ldr	r3, .L14+4
 152 0008 823A     		subs	r2, r2, #130
 153 000a 1A70     		strb	r2, [r3, #0]
 463:.\Generated_Source\PSoC5/USBFS_drv.c ****     /* Set the Mode Register  */
 464:.\Generated_Source\PSoC5/USBFS_drv.c ****     USBFS_ep0Mode = USBFS_MODE_ACK_IN_STATUS_OUT;
 154              		.loc 1 464 0
 155 000c 064B     		ldr	r3, .L14+8
 156 000e 8F32     		adds	r2, r2, #143
 157 0010 1A70     		strb	r2, [r3, #0]
 465:.\Generated_Source\PSoC5/USBFS_drv.c ****     /* Save the packet size for next time */
 466:.\Generated_Source\PSoC5/USBFS_drv.c ****     USBFS_lastPacketSize = 0u;
ARM GAS  C:\DOCUME~1\ADMINI~1\LOCALS~1\Temp\ccuGndcP.s 			page 12


 158              		.loc 1 466 0
 159 0012 064A     		ldr	r2, .L14+12
 160 0014 0023     		movs	r3, #0
 161 0016 1370     		strb	r3, [r2, #0]
 467:.\Generated_Source\PSoC5/USBFS_drv.c ****     USBFS_ep0Count = 0u;
 162              		.loc 1 467 0
 163 0018 054A     		ldr	r2, .L14+16
 468:.\Generated_Source\PSoC5/USBFS_drv.c **** 
 469:.\Generated_Source\PSoC5/USBFS_drv.c ****     return(USBFS_TRUE);
 470:.\Generated_Source\PSoC5/USBFS_drv.c **** }
 164              		.loc 1 470 0
 165 001a 0120     		movs	r0, #1
 166              		.loc 1 467 0
 167 001c 1370     		strb	r3, [r2, #0]
 168              		.loc 1 470 0
 169 001e 7047     		bx	lr
 170              	.L15:
 171              		.align	2
 172              	.L14:
 173 0020 00000000 		.word	USBFS_transferState
 174 0024 00000000 		.word	USBFS_ep0Toggle
 175 0028 00000000 		.word	USBFS_ep0Mode
 176 002c 00000000 		.word	USBFS_lastPacketSize
 177 0030 00000000 		.word	USBFS_ep0Count
 178              		.cfi_endproc
 179              	.LFE6:
 180              		.size	USBFS_InitZeroLengthControlTransfer, .-USBFS_InitZeroLengthControlTransfer
 181              		.section	.text.USBFS_ControlReadDataStage,"ax",%progbits
 182              		.align	1
 183              		.global	USBFS_ControlReadDataStage
 184              		.thumb
 185              		.thumb_func
 186              		.type	USBFS_ControlReadDataStage, %function
 187              	USBFS_ControlReadDataStage:
 188              	.LFB7:
 471:.\Generated_Source\PSoC5/USBFS_drv.c **** 
 472:.\Generated_Source\PSoC5/USBFS_drv.c **** 
 473:.\Generated_Source\PSoC5/USBFS_drv.c **** /*******************************************************************************
 474:.\Generated_Source\PSoC5/USBFS_drv.c **** * Function Name: USBFS_ControlReadDataStage
 475:.\Generated_Source\PSoC5/USBFS_drv.c **** ********************************************************************************
 476:.\Generated_Source\PSoC5/USBFS_drv.c **** *
 477:.\Generated_Source\PSoC5/USBFS_drv.c **** * Summary:
 478:.\Generated_Source\PSoC5/USBFS_drv.c **** *  Handle the Data Stage of a control read transfer.
 479:.\Generated_Source\PSoC5/USBFS_drv.c **** *
 480:.\Generated_Source\PSoC5/USBFS_drv.c **** * Parameters:
 481:.\Generated_Source\PSoC5/USBFS_drv.c **** *  None.
 482:.\Generated_Source\PSoC5/USBFS_drv.c **** *
 483:.\Generated_Source\PSoC5/USBFS_drv.c **** * Return:
 484:.\Generated_Source\PSoC5/USBFS_drv.c **** *  None.
 485:.\Generated_Source\PSoC5/USBFS_drv.c **** *
 486:.\Generated_Source\PSoC5/USBFS_drv.c **** * Reentrant:
 487:.\Generated_Source\PSoC5/USBFS_drv.c **** *  No.
 488:.\Generated_Source\PSoC5/USBFS_drv.c **** *
 489:.\Generated_Source\PSoC5/USBFS_drv.c **** *******************************************************************************/
 490:.\Generated_Source\PSoC5/USBFS_drv.c **** void USBFS_ControlReadDataStage(void) 
 491:.\Generated_Source\PSoC5/USBFS_drv.c **** 
 492:.\Generated_Source\PSoC5/USBFS_drv.c **** {
ARM GAS  C:\DOCUME~1\ADMINI~1\LOCALS~1\Temp\ccuGndcP.s 			page 13


 189              		.loc 1 492 0
 190              		.cfi_startproc
 191              		@ args = 0, pretend = 0, frame = 0
 192              		@ frame_needed = 0, uses_anonymous_args = 0
 193              		@ link register save eliminated.
 493:.\Generated_Source\PSoC5/USBFS_drv.c ****     USBFS_LoadEP0();
 494:.\Generated_Source\PSoC5/USBFS_drv.c **** }
 194              		.loc 1 494 0
 195              		.loc 1 493 0
 196 0000 FFF7FEBF 		b	USBFS_LoadEP0
 197              		.cfi_endproc
 198              	.LFE7:
 199              		.size	USBFS_ControlReadDataStage, .-USBFS_ControlReadDataStage
 200              		.section	.text.USBFS_ControlWriteDataStage,"ax",%progbits
 201              		.align	1
 202              		.global	USBFS_ControlWriteDataStage
 203              		.thumb
 204              		.thumb_func
 205              		.type	USBFS_ControlWriteDataStage, %function
 206              	USBFS_ControlWriteDataStage:
 207              	.LFB10:
 495:.\Generated_Source\PSoC5/USBFS_drv.c **** 
 496:.\Generated_Source\PSoC5/USBFS_drv.c **** 
 497:.\Generated_Source\PSoC5/USBFS_drv.c **** /*******************************************************************************
 498:.\Generated_Source\PSoC5/USBFS_drv.c **** * Function Name: USBFS_ControlReadStatusStage
 499:.\Generated_Source\PSoC5/USBFS_drv.c **** ********************************************************************************
 500:.\Generated_Source\PSoC5/USBFS_drv.c **** *
 501:.\Generated_Source\PSoC5/USBFS_drv.c **** * Summary:
 502:.\Generated_Source\PSoC5/USBFS_drv.c **** *  Handle the Status Stage of a control read transfer.
 503:.\Generated_Source\PSoC5/USBFS_drv.c **** *
 504:.\Generated_Source\PSoC5/USBFS_drv.c **** * Parameters:
 505:.\Generated_Source\PSoC5/USBFS_drv.c **** *  None.
 506:.\Generated_Source\PSoC5/USBFS_drv.c **** *
 507:.\Generated_Source\PSoC5/USBFS_drv.c **** * Return:
 508:.\Generated_Source\PSoC5/USBFS_drv.c **** *  None.
 509:.\Generated_Source\PSoC5/USBFS_drv.c **** *
 510:.\Generated_Source\PSoC5/USBFS_drv.c **** * Global variables:
 511:.\Generated_Source\PSoC5/USBFS_drv.c **** *  USBFS_USBFS_transferByteCount - updated with last packet size.
 512:.\Generated_Source\PSoC5/USBFS_drv.c **** *  USBFS_transferState - set to TRANS_STATE_IDLE.
 513:.\Generated_Source\PSoC5/USBFS_drv.c **** *  USBFS_ep0Mode  - set to MODE_STALL_IN_OUT.
 514:.\Generated_Source\PSoC5/USBFS_drv.c **** *
 515:.\Generated_Source\PSoC5/USBFS_drv.c **** * Reentrant:
 516:.\Generated_Source\PSoC5/USBFS_drv.c **** *  No.
 517:.\Generated_Source\PSoC5/USBFS_drv.c **** *
 518:.\Generated_Source\PSoC5/USBFS_drv.c **** *******************************************************************************/
 519:.\Generated_Source\PSoC5/USBFS_drv.c **** void USBFS_ControlReadStatusStage(void) 
 520:.\Generated_Source\PSoC5/USBFS_drv.c **** {
 521:.\Generated_Source\PSoC5/USBFS_drv.c ****     /* Update the transfer byte count */
 522:.\Generated_Source\PSoC5/USBFS_drv.c ****     USBFS_transferByteCount += USBFS_lastPacketSize;
 523:.\Generated_Source\PSoC5/USBFS_drv.c ****     /* Go Idle */
 524:.\Generated_Source\PSoC5/USBFS_drv.c ****     USBFS_transferState = USBFS_TRANS_STATE_IDLE;
 525:.\Generated_Source\PSoC5/USBFS_drv.c ****     /* Update the completion block */
 526:.\Generated_Source\PSoC5/USBFS_drv.c ****     USBFS_UpdateStatusBlock(USBFS_XFER_STATUS_ACK);
 527:.\Generated_Source\PSoC5/USBFS_drv.c ****      /* We expect no more data, so stall INs and OUTs */
 528:.\Generated_Source\PSoC5/USBFS_drv.c ****     USBFS_ep0Mode =  USBFS_MODE_STALL_IN_OUT;
 529:.\Generated_Source\PSoC5/USBFS_drv.c **** }
 530:.\Generated_Source\PSoC5/USBFS_drv.c **** 
ARM GAS  C:\DOCUME~1\ADMINI~1\LOCALS~1\Temp\ccuGndcP.s 			page 14


 531:.\Generated_Source\PSoC5/USBFS_drv.c **** 
 532:.\Generated_Source\PSoC5/USBFS_drv.c **** /*******************************************************************************
 533:.\Generated_Source\PSoC5/USBFS_drv.c **** * Function Name: USBFS_InitControlWrite
 534:.\Generated_Source\PSoC5/USBFS_drv.c **** ********************************************************************************
 535:.\Generated_Source\PSoC5/USBFS_drv.c **** *
 536:.\Generated_Source\PSoC5/USBFS_drv.c **** * Summary:
 537:.\Generated_Source\PSoC5/USBFS_drv.c **** *  Initialize a control write transaction
 538:.\Generated_Source\PSoC5/USBFS_drv.c **** *
 539:.\Generated_Source\PSoC5/USBFS_drv.c **** * Parameters:
 540:.\Generated_Source\PSoC5/USBFS_drv.c **** *  None.
 541:.\Generated_Source\PSoC5/USBFS_drv.c **** *
 542:.\Generated_Source\PSoC5/USBFS_drv.c **** * Return:
 543:.\Generated_Source\PSoC5/USBFS_drv.c **** *  requestHandled state.
 544:.\Generated_Source\PSoC5/USBFS_drv.c **** *
 545:.\Generated_Source\PSoC5/USBFS_drv.c **** * Global variables:
 546:.\Generated_Source\PSoC5/USBFS_drv.c **** *  USBFS_USBFS_transferState - set to TRANS_STATE_CONTROL_WRITE
 547:.\Generated_Source\PSoC5/USBFS_drv.c **** *  USBFS_ep0Toggle - set to EP0_CNT_DATA_TOGGLE
 548:.\Generated_Source\PSoC5/USBFS_drv.c **** *  USBFS_ep0Mode  - set to MODE_ACK_OUT_STATUS_IN
 549:.\Generated_Source\PSoC5/USBFS_drv.c **** *
 550:.\Generated_Source\PSoC5/USBFS_drv.c **** * Reentrant:
 551:.\Generated_Source\PSoC5/USBFS_drv.c **** *  No.
 552:.\Generated_Source\PSoC5/USBFS_drv.c **** *
 553:.\Generated_Source\PSoC5/USBFS_drv.c **** *******************************************************************************/
 554:.\Generated_Source\PSoC5/USBFS_drv.c **** uint8 USBFS_InitControlWrite(void) 
 555:.\Generated_Source\PSoC5/USBFS_drv.c **** {
 556:.\Generated_Source\PSoC5/USBFS_drv.c ****     uint16 xferCount;
 557:.\Generated_Source\PSoC5/USBFS_drv.c **** 
 558:.\Generated_Source\PSoC5/USBFS_drv.c ****     /* Set up the state machine */
 559:.\Generated_Source\PSoC5/USBFS_drv.c ****     USBFS_transferState = USBFS_TRANS_STATE_CONTROL_WRITE;
 560:.\Generated_Source\PSoC5/USBFS_drv.c ****     /* This migh not be necessary */
 561:.\Generated_Source\PSoC5/USBFS_drv.c ****     USBFS_ep0Toggle = USBFS_EP0_CNT_DATA_TOGGLE;
 562:.\Generated_Source\PSoC5/USBFS_drv.c ****     /* Initialize the Status Block */
 563:.\Generated_Source\PSoC5/USBFS_drv.c ****     USBFS_InitializeStatusBlock();
 564:.\Generated_Source\PSoC5/USBFS_drv.c **** 
 565:.\Generated_Source\PSoC5/USBFS_drv.c ****     xferCount = (((uint16)CY_GET_REG8(USBFS_lengthHi) << 8u) | (CY_GET_REG8(USBFS_lengthLo)));
 566:.\Generated_Source\PSoC5/USBFS_drv.c **** 
 567:.\Generated_Source\PSoC5/USBFS_drv.c ****     if (USBFS_currentTD.count > xferCount)
 568:.\Generated_Source\PSoC5/USBFS_drv.c ****     {
 569:.\Generated_Source\PSoC5/USBFS_drv.c ****         USBFS_currentTD.count = xferCount;
 570:.\Generated_Source\PSoC5/USBFS_drv.c ****     }
 571:.\Generated_Source\PSoC5/USBFS_drv.c **** 
 572:.\Generated_Source\PSoC5/USBFS_drv.c ****     /* Expect Data or Status Stage */
 573:.\Generated_Source\PSoC5/USBFS_drv.c ****     USBFS_ep0Mode = USBFS_MODE_ACK_OUT_STATUS_IN;
 574:.\Generated_Source\PSoC5/USBFS_drv.c **** 
 575:.\Generated_Source\PSoC5/USBFS_drv.c ****     return(USBFS_TRUE);
 576:.\Generated_Source\PSoC5/USBFS_drv.c **** }
 577:.\Generated_Source\PSoC5/USBFS_drv.c **** 
 578:.\Generated_Source\PSoC5/USBFS_drv.c **** 
 579:.\Generated_Source\PSoC5/USBFS_drv.c **** /*******************************************************************************
 580:.\Generated_Source\PSoC5/USBFS_drv.c **** * Function Name: USBFS_ControlWriteDataStage
 581:.\Generated_Source\PSoC5/USBFS_drv.c **** ********************************************************************************
 582:.\Generated_Source\PSoC5/USBFS_drv.c **** *
 583:.\Generated_Source\PSoC5/USBFS_drv.c **** * Summary:
 584:.\Generated_Source\PSoC5/USBFS_drv.c **** *  Handle the Data Stage of a control write transfer
 585:.\Generated_Source\PSoC5/USBFS_drv.c **** *       1. Get the data (We assume the destination was validated previously)
 586:.\Generated_Source\PSoC5/USBFS_drv.c **** *       2. Update the count and data toggle
 587:.\Generated_Source\PSoC5/USBFS_drv.c **** *       3. Update the mode register for the next transaction
ARM GAS  C:\DOCUME~1\ADMINI~1\LOCALS~1\Temp\ccuGndcP.s 			page 15


 588:.\Generated_Source\PSoC5/USBFS_drv.c **** *
 589:.\Generated_Source\PSoC5/USBFS_drv.c **** * Parameters:
 590:.\Generated_Source\PSoC5/USBFS_drv.c **** *  None.
 591:.\Generated_Source\PSoC5/USBFS_drv.c **** *
 592:.\Generated_Source\PSoC5/USBFS_drv.c **** * Return:
 593:.\Generated_Source\PSoC5/USBFS_drv.c **** *  None.
 594:.\Generated_Source\PSoC5/USBFS_drv.c **** *
 595:.\Generated_Source\PSoC5/USBFS_drv.c **** * Global variables:
 596:.\Generated_Source\PSoC5/USBFS_drv.c **** *  USBFS_transferByteCount - Update the transfer byte count from the
 597:.\Generated_Source\PSoC5/USBFS_drv.c **** *    last transaction.
 598:.\Generated_Source\PSoC5/USBFS_drv.c **** *  USBFS_ep0Count - counts the data loaded from the SIE memory
 599:.\Generated_Source\PSoC5/USBFS_drv.c **** *    in current packet.
 600:.\Generated_Source\PSoC5/USBFS_drv.c **** *  USBFS_transferByteCount - suma of the previos bytes transferred
 601:.\Generated_Source\PSoC5/USBFS_drv.c **** *    on previous packets(suma of USBFS_lastPacketSize)
 602:.\Generated_Source\PSoC5/USBFS_drv.c **** *  USBFS_ep0Toggle - inverted
 603:.\Generated_Source\PSoC5/USBFS_drv.c **** *  USBFS_ep0Mode  - set to MODE_ACK_OUT_STATUS_IN.
 604:.\Generated_Source\PSoC5/USBFS_drv.c **** *
 605:.\Generated_Source\PSoC5/USBFS_drv.c **** * Reentrant:
 606:.\Generated_Source\PSoC5/USBFS_drv.c **** *  No.
 607:.\Generated_Source\PSoC5/USBFS_drv.c **** *
 608:.\Generated_Source\PSoC5/USBFS_drv.c **** *******************************************************************************/
 609:.\Generated_Source\PSoC5/USBFS_drv.c **** void USBFS_ControlWriteDataStage(void) 
 610:.\Generated_Source\PSoC5/USBFS_drv.c **** {
 208              		.loc 1 610 0
 209              		.cfi_startproc
 210              		@ args = 0, pretend = 0, frame = 0
 211              		@ frame_needed = 0, uses_anonymous_args = 0
 212              		@ link register save eliminated.
 611:.\Generated_Source\PSoC5/USBFS_drv.c ****     uint8 *pReg = (uint8 *)USBFS_EP0_DR0_PTR;
 612:.\Generated_Source\PSoC5/USBFS_drv.c **** 
 613:.\Generated_Source\PSoC5/USBFS_drv.c ****     USBFS_ep0Count = (CY_GET_REG8(USBFS_EP0_CNT_PTR ) & 0x0Fu) - 2u;
 213              		.loc 1 613 0
 214 0000 164B     		ldr	r3, .L23
 215 0002 174A     		ldr	r2, .L23+4
 216 0004 1B78     		ldrb	r3, [r3, #0]	@ zero_extendqisi2
 614:.\Generated_Source\PSoC5/USBFS_drv.c **** 
 615:.\Generated_Source\PSoC5/USBFS_drv.c ****     USBFS_transferByteCount += USBFS_ep0Count;
 217              		.loc 1 615 0
 218 0006 1748     		ldr	r0, .L23+8
 219              	.LVL0:
 220              		.loc 1 613 0
 221 0008 03F00F03 		and	r3, r3, #15
 222 000c 023B     		subs	r3, r3, #2
 223 000e DBB2     		uxtb	r3, r3
 224 0010 1370     		strb	r3, [r2, #0]
 225              		.loc 1 615 0
 226 0012 154B     		ldr	r3, .L23+12
 227 0014 1988     		ldrh	r1, [r3, #0]
 228 0016 1278     		ldrb	r2, [r2, #0]	@ zero_extendqisi2
 229 0018 5218     		adds	r2, r2, r1
 230 001a 92B2     		uxth	r2, r2
 231 001c 1A80     		strh	r2, [r3, #0]	@ movhi
 616:.\Generated_Source\PSoC5/USBFS_drv.c **** 
 617:.\Generated_Source\PSoC5/USBFS_drv.c ****     while ((USBFS_currentTD.count > 0u) && (USBFS_ep0Count > 0u))
 232              		.loc 1 617 0
 233 001e 0DE0     		b	.L19
 234              	.L21:
ARM GAS  C:\DOCUME~1\ADMINI~1\LOCALS~1\Temp\ccuGndcP.s 			page 16


 618:.\Generated_Source\PSoC5/USBFS_drv.c ****     {
 619:.\Generated_Source\PSoC5/USBFS_drv.c ****         *USBFS_currentTD.pData++ = CY_GET_REG8(pReg++);
 235              		.loc 1 619 0
 236 0020 5968     		ldr	r1, [r3, #4]
 237 0022 10F801CB 		ldrb	ip, [r0], #1	@ zero_extendqisi2
 238 0026 01F801CB 		strb	ip, [r1], #1
 239 002a 5960     		str	r1, [r3, #4]
 620:.\Generated_Source\PSoC5/USBFS_drv.c ****         USBFS_ep0Count--;
 240              		.loc 1 620 0
 241 002c 1178     		ldrb	r1, [r2, #0]	@ zero_extendqisi2
 242 002e 0139     		subs	r1, r1, #1
 243 0030 C9B2     		uxtb	r1, r1
 244 0032 1170     		strb	r1, [r2, #0]
 621:.\Generated_Source\PSoC5/USBFS_drv.c ****         USBFS_currentTD.count--;
 245              		.loc 1 621 0
 246 0034 1A88     		ldrh	r2, [r3, #0]
 247 0036 013A     		subs	r2, r2, #1
 248 0038 92B2     		uxth	r2, r2
 249 003a 1A80     		strh	r2, [r3, #0]	@ movhi
 250              	.L19:
 251              		.loc 1 617 0
 252 003c 0B4B     		ldr	r3, .L23+16
 253 003e 1A88     		ldrh	r2, [r3, #0]
 254 0040 1AB1     		cbz	r2, .L20
 255 0042 074A     		ldr	r2, .L23+4
 256 0044 1178     		ldrb	r1, [r2, #0]	@ zero_extendqisi2
 257 0046 0029     		cmp	r1, #0
 258 0048 EAD1     		bne	.L21
 259              	.L20:
 622:.\Generated_Source\PSoC5/USBFS_drv.c ****     }
 623:.\Generated_Source\PSoC5/USBFS_drv.c ****     /* Update the data toggle */
 624:.\Generated_Source\PSoC5/USBFS_drv.c ****     USBFS_ep0Toggle ^= USBFS_EP0_CNT_DATA_TOGGLE;
 260              		.loc 1 624 0
 261 004a 094B     		ldr	r3, .L23+20
 262 004c 1A78     		ldrb	r2, [r3, #0]	@ zero_extendqisi2
 263 004e 82F08002 		eor	r2, r2, #128
 264 0052 1A70     		strb	r2, [r3, #0]
 625:.\Generated_Source\PSoC5/USBFS_drv.c ****     /* Expect Data or Status Stage */
 626:.\Generated_Source\PSoC5/USBFS_drv.c ****     USBFS_ep0Mode = USBFS_MODE_ACK_OUT_STATUS_IN;
 265              		.loc 1 626 0
 266 0054 074B     		ldr	r3, .L23+24
 267 0056 0B22     		movs	r2, #11
 268 0058 1A70     		strb	r2, [r3, #0]
 627:.\Generated_Source\PSoC5/USBFS_drv.c **** }
 269              		.loc 1 627 0
 270 005a 7047     		bx	lr
 271              	.L24:
 272              		.align	2
 273              	.L23:
 274 005c 29600040 		.word	1073766441
 275 0060 00000000 		.word	USBFS_ep0Count
 276 0064 00600040 		.word	1073766400
 277 0068 00000000 		.word	USBFS_transferByteCount
 278 006c 00000000 		.word	USBFS_currentTD
 279 0070 00000000 		.word	USBFS_ep0Toggle
 280 0074 00000000 		.word	USBFS_ep0Mode
 281              		.cfi_endproc
ARM GAS  C:\DOCUME~1\ADMINI~1\LOCALS~1\Temp\ccuGndcP.s 			page 17


 282              	.LFE10:
 283              		.size	USBFS_ControlWriteDataStage, .-USBFS_ControlWriteDataStage
 284              		.section	.text.USBFS_InitNoDataControlTransfer,"ax",%progbits
 285              		.align	1
 286              		.global	USBFS_InitNoDataControlTransfer
 287              		.thumb
 288              		.thumb_func
 289              		.type	USBFS_InitNoDataControlTransfer, %function
 290              	USBFS_InitNoDataControlTransfer:
 291              	.LFB12:
 628:.\Generated_Source\PSoC5/USBFS_drv.c **** 
 629:.\Generated_Source\PSoC5/USBFS_drv.c **** 
 630:.\Generated_Source\PSoC5/USBFS_drv.c **** /*******************************************************************************
 631:.\Generated_Source\PSoC5/USBFS_drv.c **** * Function Name: USBFS_ControlWriteStatusStage
 632:.\Generated_Source\PSoC5/USBFS_drv.c **** ********************************************************************************
 633:.\Generated_Source\PSoC5/USBFS_drv.c **** *
 634:.\Generated_Source\PSoC5/USBFS_drv.c **** * Summary:
 635:.\Generated_Source\PSoC5/USBFS_drv.c **** *  Handle the Status Stage of a control write transfer
 636:.\Generated_Source\PSoC5/USBFS_drv.c **** *
 637:.\Generated_Source\PSoC5/USBFS_drv.c **** * Parameters:
 638:.\Generated_Source\PSoC5/USBFS_drv.c **** *  None.
 639:.\Generated_Source\PSoC5/USBFS_drv.c **** *
 640:.\Generated_Source\PSoC5/USBFS_drv.c **** * Return:
 641:.\Generated_Source\PSoC5/USBFS_drv.c **** *  None.
 642:.\Generated_Source\PSoC5/USBFS_drv.c **** *
 643:.\Generated_Source\PSoC5/USBFS_drv.c **** * Global variables:
 644:.\Generated_Source\PSoC5/USBFS_drv.c **** *  USBFS_transferState - set to TRANS_STATE_IDLE.
 645:.\Generated_Source\PSoC5/USBFS_drv.c **** *  USBFS_USBFS_ep0Mode  - set to MODE_STALL_IN_OUT.
 646:.\Generated_Source\PSoC5/USBFS_drv.c **** *
 647:.\Generated_Source\PSoC5/USBFS_drv.c **** * Reentrant:
 648:.\Generated_Source\PSoC5/USBFS_drv.c **** *  No.
 649:.\Generated_Source\PSoC5/USBFS_drv.c **** *
 650:.\Generated_Source\PSoC5/USBFS_drv.c **** *******************************************************************************/
 651:.\Generated_Source\PSoC5/USBFS_drv.c **** void USBFS_ControlWriteStatusStage(void) 
 652:.\Generated_Source\PSoC5/USBFS_drv.c **** {
 653:.\Generated_Source\PSoC5/USBFS_drv.c ****     /* Go Idle */
 654:.\Generated_Source\PSoC5/USBFS_drv.c ****     USBFS_transferState = USBFS_TRANS_STATE_IDLE;
 655:.\Generated_Source\PSoC5/USBFS_drv.c ****     /* Update the completion block */
 656:.\Generated_Source\PSoC5/USBFS_drv.c ****     USBFS_UpdateStatusBlock(USBFS_XFER_STATUS_ACK);
 657:.\Generated_Source\PSoC5/USBFS_drv.c ****      /* We expect no more data, so stall INs and OUTs */
 658:.\Generated_Source\PSoC5/USBFS_drv.c ****     USBFS_ep0Mode = USBFS_MODE_STALL_IN_OUT;
 659:.\Generated_Source\PSoC5/USBFS_drv.c **** }
 660:.\Generated_Source\PSoC5/USBFS_drv.c **** 
 661:.\Generated_Source\PSoC5/USBFS_drv.c **** 
 662:.\Generated_Source\PSoC5/USBFS_drv.c **** /*******************************************************************************
 663:.\Generated_Source\PSoC5/USBFS_drv.c **** * Function Name: USBFS_InitNoDataControlTransfer
 664:.\Generated_Source\PSoC5/USBFS_drv.c **** ********************************************************************************
 665:.\Generated_Source\PSoC5/USBFS_drv.c **** *
 666:.\Generated_Source\PSoC5/USBFS_drv.c **** * Summary:
 667:.\Generated_Source\PSoC5/USBFS_drv.c **** *  Initialize a no data control transfer
 668:.\Generated_Source\PSoC5/USBFS_drv.c **** *
 669:.\Generated_Source\PSoC5/USBFS_drv.c **** * Parameters:
 670:.\Generated_Source\PSoC5/USBFS_drv.c **** *  None.
 671:.\Generated_Source\PSoC5/USBFS_drv.c **** *
 672:.\Generated_Source\PSoC5/USBFS_drv.c **** * Return:
 673:.\Generated_Source\PSoC5/USBFS_drv.c **** *  requestHandled state.
 674:.\Generated_Source\PSoC5/USBFS_drv.c **** *
ARM GAS  C:\DOCUME~1\ADMINI~1\LOCALS~1\Temp\ccuGndcP.s 			page 18


 675:.\Generated_Source\PSoC5/USBFS_drv.c **** * Global variables:
 676:.\Generated_Source\PSoC5/USBFS_drv.c **** *  USBFS_transferState - set to TRANS_STATE_NO_DATA_CONTROL.
 677:.\Generated_Source\PSoC5/USBFS_drv.c **** *  USBFS_ep0Mode  - set to MODE_STATUS_IN_ONLY.
 678:.\Generated_Source\PSoC5/USBFS_drv.c **** *  USBFS_ep0Count - cleared.
 679:.\Generated_Source\PSoC5/USBFS_drv.c **** *  USBFS_ep0Toggle - set to EP0_CNT_DATA_TOGGLE
 680:.\Generated_Source\PSoC5/USBFS_drv.c **** *
 681:.\Generated_Source\PSoC5/USBFS_drv.c **** * Reentrant:
 682:.\Generated_Source\PSoC5/USBFS_drv.c **** *  No.
 683:.\Generated_Source\PSoC5/USBFS_drv.c **** *
 684:.\Generated_Source\PSoC5/USBFS_drv.c **** *******************************************************************************/
 685:.\Generated_Source\PSoC5/USBFS_drv.c **** uint8 USBFS_InitNoDataControlTransfer(void) 
 686:.\Generated_Source\PSoC5/USBFS_drv.c **** {
 292              		.loc 1 686 0
 293              		.cfi_startproc
 294              		@ args = 0, pretend = 0, frame = 0
 295              		@ frame_needed = 0, uses_anonymous_args = 0
 296              		@ link register save eliminated.
 687:.\Generated_Source\PSoC5/USBFS_drv.c ****     USBFS_transferState = USBFS_TRANS_STATE_NO_DATA_CONTROL;
 297              		.loc 1 687 0
 298 0000 064A     		ldr	r2, .L27
 299 0002 0623     		movs	r3, #6
 300 0004 1370     		strb	r3, [r2, #0]
 688:.\Generated_Source\PSoC5/USBFS_drv.c ****     USBFS_ep0Mode = USBFS_MODE_STATUS_IN_ONLY;
 301              		.loc 1 688 0
 302 0006 064A     		ldr	r2, .L27+4
 689:.\Generated_Source\PSoC5/USBFS_drv.c ****     USBFS_ep0Toggle = USBFS_EP0_CNT_DATA_TOGGLE;
 690:.\Generated_Source\PSoC5/USBFS_drv.c ****     USBFS_ep0Count = 0u;
 691:.\Generated_Source\PSoC5/USBFS_drv.c **** 
 692:.\Generated_Source\PSoC5/USBFS_drv.c ****     return(USBFS_TRUE);
 693:.\Generated_Source\PSoC5/USBFS_drv.c **** }
 303              		.loc 1 693 0
 304 0008 0120     		movs	r0, #1
 305              		.loc 1 688 0
 306 000a 1370     		strb	r3, [r2, #0]
 307              		.loc 1 689 0
 308 000c 054B     		ldr	r3, .L27+8
 309 000e 6FF07F02 		mvn	r2, #127
 310 0012 1A70     		strb	r2, [r3, #0]
 311              		.loc 1 690 0
 312 0014 044B     		ldr	r3, .L27+12
 313 0016 8032     		adds	r2, r2, #128
 314 0018 1A70     		strb	r2, [r3, #0]
 315              		.loc 1 693 0
 316 001a 7047     		bx	lr
 317              	.L28:
 318              		.align	2
 319              	.L27:
 320 001c 00000000 		.word	USBFS_transferState
 321 0020 00000000 		.word	USBFS_ep0Mode
 322 0024 00000000 		.word	USBFS_ep0Toggle
 323 0028 00000000 		.word	USBFS_ep0Count
 324              		.cfi_endproc
 325              	.LFE12:
 326              		.size	USBFS_InitNoDataControlTransfer, .-USBFS_InitNoDataControlTransfer
 327              		.section	.text.USBFS_UpdateStatusBlock,"ax",%progbits
 328              		.align	1
 329              		.global	USBFS_UpdateStatusBlock
ARM GAS  C:\DOCUME~1\ADMINI~1\LOCALS~1\Temp\ccuGndcP.s 			page 19


 330              		.thumb
 331              		.thumb_func
 332              		.type	USBFS_UpdateStatusBlock, %function
 333              	USBFS_UpdateStatusBlock:
 334              	.LFB14:
 694:.\Generated_Source\PSoC5/USBFS_drv.c **** 
 695:.\Generated_Source\PSoC5/USBFS_drv.c **** 
 696:.\Generated_Source\PSoC5/USBFS_drv.c **** /*******************************************************************************
 697:.\Generated_Source\PSoC5/USBFS_drv.c **** * Function Name: USBFS_NoDataControlStatusStage
 698:.\Generated_Source\PSoC5/USBFS_drv.c **** ********************************************************************************
 699:.\Generated_Source\PSoC5/USBFS_drv.c **** * Summary:
 700:.\Generated_Source\PSoC5/USBFS_drv.c **** *  Handle the Status Stage of a no data control transfer.
 701:.\Generated_Source\PSoC5/USBFS_drv.c **** *
 702:.\Generated_Source\PSoC5/USBFS_drv.c **** *  SET_ADDRESS is special, since we need to receive the status stage with
 703:.\Generated_Source\PSoC5/USBFS_drv.c **** *  the old address.
 704:.\Generated_Source\PSoC5/USBFS_drv.c **** *
 705:.\Generated_Source\PSoC5/USBFS_drv.c **** * Parameters:
 706:.\Generated_Source\PSoC5/USBFS_drv.c **** *  None.
 707:.\Generated_Source\PSoC5/USBFS_drv.c **** *
 708:.\Generated_Source\PSoC5/USBFS_drv.c **** * Return:
 709:.\Generated_Source\PSoC5/USBFS_drv.c **** *  None.
 710:.\Generated_Source\PSoC5/USBFS_drv.c **** *
 711:.\Generated_Source\PSoC5/USBFS_drv.c **** * Global variables:
 712:.\Generated_Source\PSoC5/USBFS_drv.c **** *  USBFS_transferState - set to TRANS_STATE_IDLE.
 713:.\Generated_Source\PSoC5/USBFS_drv.c **** *  USBFS_ep0Mode  - set to MODE_STALL_IN_OUT.
 714:.\Generated_Source\PSoC5/USBFS_drv.c **** *  USBFS_ep0Toggle - set to EP0_CNT_DATA_TOGGLE
 715:.\Generated_Source\PSoC5/USBFS_drv.c **** *  USBFS_deviceAddress - used to set new address and cleared
 716:.\Generated_Source\PSoC5/USBFS_drv.c **** *
 717:.\Generated_Source\PSoC5/USBFS_drv.c **** * Reentrant:
 718:.\Generated_Source\PSoC5/USBFS_drv.c **** *  No.
 719:.\Generated_Source\PSoC5/USBFS_drv.c **** *
 720:.\Generated_Source\PSoC5/USBFS_drv.c **** *******************************************************************************/
 721:.\Generated_Source\PSoC5/USBFS_drv.c **** void USBFS_NoDataControlStatusStage(void) 
 722:.\Generated_Source\PSoC5/USBFS_drv.c **** {
 723:.\Generated_Source\PSoC5/USBFS_drv.c ****     /* Change the USB address register if we got a SET_ADDRESS. */
 724:.\Generated_Source\PSoC5/USBFS_drv.c ****     if (USBFS_deviceAddress != 0u)
 725:.\Generated_Source\PSoC5/USBFS_drv.c ****     {
 726:.\Generated_Source\PSoC5/USBFS_drv.c ****         CY_SET_REG8(USBFS_CR0_PTR, USBFS_deviceAddress | USBFS_CR0_ENABLE);
 727:.\Generated_Source\PSoC5/USBFS_drv.c ****         USBFS_deviceAddress = 0u;
 728:.\Generated_Source\PSoC5/USBFS_drv.c ****     }
 729:.\Generated_Source\PSoC5/USBFS_drv.c ****     /* Go Idle */
 730:.\Generated_Source\PSoC5/USBFS_drv.c ****     USBFS_transferState = USBFS_TRANS_STATE_IDLE;
 731:.\Generated_Source\PSoC5/USBFS_drv.c ****     /* Update the completion block */
 732:.\Generated_Source\PSoC5/USBFS_drv.c ****     USBFS_UpdateStatusBlock(USBFS_XFER_STATUS_ACK);
 733:.\Generated_Source\PSoC5/USBFS_drv.c ****      /* We expect no more data, so stall INs and OUTs */
 734:.\Generated_Source\PSoC5/USBFS_drv.c ****     USBFS_ep0Mode = USBFS_MODE_STALL_IN_OUT;
 735:.\Generated_Source\PSoC5/USBFS_drv.c **** }
 736:.\Generated_Source\PSoC5/USBFS_drv.c **** 
 737:.\Generated_Source\PSoC5/USBFS_drv.c **** 
 738:.\Generated_Source\PSoC5/USBFS_drv.c **** /*******************************************************************************
 739:.\Generated_Source\PSoC5/USBFS_drv.c **** * Function Name: USBFS_UpdateStatusBlock
 740:.\Generated_Source\PSoC5/USBFS_drv.c **** ********************************************************************************
 741:.\Generated_Source\PSoC5/USBFS_drv.c **** *
 742:.\Generated_Source\PSoC5/USBFS_drv.c **** * Summary:
 743:.\Generated_Source\PSoC5/USBFS_drv.c **** *  Update the Completion Status Block for a Request.  The block is updated
 744:.\Generated_Source\PSoC5/USBFS_drv.c **** *  with the completion code the USBFS_transferByteCount.  The
 745:.\Generated_Source\PSoC5/USBFS_drv.c **** *  StatusBlock Pointer is set to NULL.
ARM GAS  C:\DOCUME~1\ADMINI~1\LOCALS~1\Temp\ccuGndcP.s 			page 20


 746:.\Generated_Source\PSoC5/USBFS_drv.c **** *
 747:.\Generated_Source\PSoC5/USBFS_drv.c **** * Parameters:
 748:.\Generated_Source\PSoC5/USBFS_drv.c **** *  completionCode - status.
 749:.\Generated_Source\PSoC5/USBFS_drv.c **** *
 750:.\Generated_Source\PSoC5/USBFS_drv.c **** * Return:
 751:.\Generated_Source\PSoC5/USBFS_drv.c **** *  None.
 752:.\Generated_Source\PSoC5/USBFS_drv.c **** *
 753:.\Generated_Source\PSoC5/USBFS_drv.c **** * Global variables:
 754:.\Generated_Source\PSoC5/USBFS_drv.c **** *  USBFS_currentTD.pStatusBlock->status - updated by the 
 755:.\Generated_Source\PSoC5/USBFS_drv.c **** *    completionCode parameter.
 756:.\Generated_Source\PSoC5/USBFS_drv.c **** *  USBFS_currentTD.pStatusBlock->length - updated.
 757:.\Generated_Source\PSoC5/USBFS_drv.c **** *  USBFS_currentTD.pStatusBlock - cleared.
 758:.\Generated_Source\PSoC5/USBFS_drv.c **** *
 759:.\Generated_Source\PSoC5/USBFS_drv.c **** * Reentrant:
 760:.\Generated_Source\PSoC5/USBFS_drv.c **** *  No.
 761:.\Generated_Source\PSoC5/USBFS_drv.c **** *
 762:.\Generated_Source\PSoC5/USBFS_drv.c **** *******************************************************************************/
 763:.\Generated_Source\PSoC5/USBFS_drv.c **** void USBFS_UpdateStatusBlock(uint8 completionCode) 
 764:.\Generated_Source\PSoC5/USBFS_drv.c **** {
 335              		.loc 1 764 0
 336              		.cfi_startproc
 337              		@ args = 0, pretend = 0, frame = 0
 338              		@ frame_needed = 0, uses_anonymous_args = 0
 339              		@ link register save eliminated.
 340              	.LVL1:
 765:.\Generated_Source\PSoC5/USBFS_drv.c ****     if (USBFS_currentTD.pStatusBlock != NULL)
 341              		.loc 1 765 0
 342 0000 054B     		ldr	r3, .L32
 343 0002 9A68     		ldr	r2, [r3, #8]
 344 0004 3AB1     		cbz	r2, .L31
 766:.\Generated_Source\PSoC5/USBFS_drv.c ****     {
 767:.\Generated_Source\PSoC5/USBFS_drv.c ****         USBFS_currentTD.pStatusBlock->status = completionCode;
 345              		.loc 1 767 0
 346 0006 9A68     		ldr	r2, [r3, #8]
 768:.\Generated_Source\PSoC5/USBFS_drv.c ****         USBFS_currentTD.pStatusBlock->length = USBFS_transferByteCount;
 347              		.loc 1 768 0
 348 0008 0449     		ldr	r1, .L32+4
 349              		.loc 1 767 0
 350 000a 1070     		strb	r0, [r2, #0]
 351              		.loc 1 768 0
 352 000c 9A68     		ldr	r2, [r3, #8]
 353 000e 0988     		ldrh	r1, [r1, #0]
 354 0010 5180     		strh	r1, [r2, #2]	@ movhi
 769:.\Generated_Source\PSoC5/USBFS_drv.c ****         USBFS_currentTD.pStatusBlock = NULL;
 355              		.loc 1 769 0
 356 0012 0022     		movs	r2, #0
 357 0014 9A60     		str	r2, [r3, #8]
 358              	.L31:
 359 0016 7047     		bx	lr
 360              	.L33:
 361              		.align	2
 362              	.L32:
 363 0018 00000000 		.word	USBFS_currentTD
 364 001c 00000000 		.word	USBFS_transferByteCount
 365              		.cfi_endproc
 366              	.LFE14:
 367              		.size	USBFS_UpdateStatusBlock, .-USBFS_UpdateStatusBlock
ARM GAS  C:\DOCUME~1\ADMINI~1\LOCALS~1\Temp\ccuGndcP.s 			page 21


 368              		.section	.text.USBFS_NoDataControlStatusStage,"ax",%progbits
 369              		.align	1
 370              		.global	USBFS_NoDataControlStatusStage
 371              		.thumb
 372              		.thumb_func
 373              		.type	USBFS_NoDataControlStatusStage, %function
 374              	USBFS_NoDataControlStatusStage:
 375              	.LFB13:
 376              		.loc 1 722 0
 377              		.cfi_startproc
 378              		@ args = 0, pretend = 0, frame = 0
 379              		@ frame_needed = 0, uses_anonymous_args = 0
 380 0000 08B5     		push	{r3, lr}
 381              	.LCFI0:
 382              		.cfi_def_cfa_offset 8
 383              		.loc 1 724 0
 384 0002 0A4B     		ldr	r3, .L37
 385              		.cfi_offset 14, -4
 386              		.cfi_offset 3, -8
 387 0004 1A78     		ldrb	r2, [r3, #0]	@ zero_extendqisi2
 388 0006 32B1     		cbz	r2, .L35
 389              		.loc 1 726 0
 390 0008 1978     		ldrb	r1, [r3, #0]	@ zero_extendqisi2
 391 000a 094A     		ldr	r2, .L37+4
 392 000c 41F08001 		orr	r1, r1, #128
 393 0010 1170     		strb	r1, [r2, #0]
 394              		.loc 1 727 0
 395 0012 0022     		movs	r2, #0
 396 0014 1A70     		strb	r2, [r3, #0]
 397              	.L35:
 398              		.loc 1 730 0
 399 0016 074B     		ldr	r3, .L37+8
 400 0018 0022     		movs	r2, #0
 401 001a 1A70     		strb	r2, [r3, #0]
 402              		.loc 1 732 0
 403 001c 0120     		movs	r0, #1
 404 001e FFF7FEFF 		bl	USBFS_UpdateStatusBlock
 405              		.loc 1 734 0
 406 0022 054B     		ldr	r3, .L37+12
 407 0024 0322     		movs	r2, #3
 408 0026 1A70     		strb	r2, [r3, #0]
 409              		.loc 1 735 0
 410 0028 08BD     		pop	{r3, pc}
 411              	.L38:
 412 002a 00BF     		.align	2
 413              	.L37:
 414 002c 00000000 		.word	USBFS_deviceAddress
 415 0030 08600040 		.word	1073766408
 416 0034 00000000 		.word	USBFS_transferState
 417 0038 00000000 		.word	USBFS_ep0Mode
 418              		.cfi_endproc
 419              	.LFE13:
 420              		.size	USBFS_NoDataControlStatusStage, .-USBFS_NoDataControlStatusStage
 421              		.section	.text.USBFS_ControlWriteStatusStage,"ax",%progbits
 422              		.align	1
 423              		.global	USBFS_ControlWriteStatusStage
 424              		.thumb
ARM GAS  C:\DOCUME~1\ADMINI~1\LOCALS~1\Temp\ccuGndcP.s 			page 22


 425              		.thumb_func
 426              		.type	USBFS_ControlWriteStatusStage, %function
 427              	USBFS_ControlWriteStatusStage:
 428              	.LFB11:
 429              		.loc 1 652 0
 430              		.cfi_startproc
 431              		@ args = 0, pretend = 0, frame = 0
 432              		@ frame_needed = 0, uses_anonymous_args = 0
 433 0000 08B5     		push	{r3, lr}
 434              	.LCFI1:
 435              		.cfi_def_cfa_offset 8
 436              		.loc 1 654 0
 437 0002 054B     		ldr	r3, .L41
 438              		.cfi_offset 14, -4
 439              		.cfi_offset 3, -8
 440 0004 0022     		movs	r2, #0
 441 0006 1A70     		strb	r2, [r3, #0]
 442              		.loc 1 656 0
 443 0008 0120     		movs	r0, #1
 444 000a FFF7FEFF 		bl	USBFS_UpdateStatusBlock
 445              		.loc 1 658 0
 446 000e 034B     		ldr	r3, .L41+4
 447 0010 0322     		movs	r2, #3
 448 0012 1A70     		strb	r2, [r3, #0]
 449              		.loc 1 659 0
 450 0014 08BD     		pop	{r3, pc}
 451              	.L42:
 452 0016 00BF     		.align	2
 453              	.L41:
 454 0018 00000000 		.word	USBFS_transferState
 455 001c 00000000 		.word	USBFS_ep0Mode
 456              		.cfi_endproc
 457              	.LFE11:
 458              		.size	USBFS_ControlWriteStatusStage, .-USBFS_ControlWriteStatusStage
 459              		.section	.text.USBFS_HandleIN,"ax",%progbits
 460              		.align	1
 461              		.global	USBFS_HandleIN
 462              		.thumb
 463              		.thumb_func
 464              		.type	USBFS_HandleIN, %function
 465              	USBFS_HandleIN:
 466              	.LFB2:
 467              		.loc 1 246 0
 468              		.cfi_startproc
 469              		@ args = 0, pretend = 0, frame = 0
 470              		@ frame_needed = 0, uses_anonymous_args = 0
 471              		@ link register save eliminated.
 472              		.loc 1 247 0
 473 0000 074B     		ldr	r3, .L50
 474 0002 1B78     		ldrb	r3, [r3, #0]	@ zero_extendqisi2
 475 0004 042B     		cmp	r3, #4
 476 0006 05D0     		beq	.L46
 477 0008 062B     		cmp	r3, #6
 478 000a 05D0     		beq	.L47
 479 000c 022B     		cmp	r3, #2
 480 000e 05D1     		bne	.L49
 481              		.loc 1 263 0
ARM GAS  C:\DOCUME~1\ADMINI~1\LOCALS~1\Temp\ccuGndcP.s 			page 23


 482              		.loc 1 252 0
 483 0010 FFF7FEBF 		b	USBFS_ControlReadDataStage
 484              	.L46:
 485              		.loc 1 263 0
 486              		.loc 1 255 0
 487 0014 FFF7FEBF 		b	USBFS_ControlWriteStatusStage
 488              	.L47:
 489              		.loc 1 263 0
 490              		.loc 1 258 0
 491 0018 FFF7FEBF 		b	USBFS_NoDataControlStatusStage
 492              	.L49:
 493 001c 7047     		bx	lr
 494              	.L51:
 495 001e 00BF     		.align	2
 496              	.L50:
 497 0020 00000000 		.word	USBFS_transferState
 498              		.cfi_endproc
 499              	.LFE2:
 500              		.size	USBFS_HandleIN, .-USBFS_HandleIN
 501              		.section	.text.USBFS_ControlReadStatusStage,"ax",%progbits
 502              		.align	1
 503              		.global	USBFS_ControlReadStatusStage
 504              		.thumb
 505              		.thumb_func
 506              		.type	USBFS_ControlReadStatusStage, %function
 507              	USBFS_ControlReadStatusStage:
 508              	.LFB8:
 509              		.loc 1 520 0
 510              		.cfi_startproc
 511              		@ args = 0, pretend = 0, frame = 0
 512              		@ frame_needed = 0, uses_anonymous_args = 0
 513 0000 08B5     		push	{r3, lr}
 514              	.LCFI2:
 515              		.cfi_def_cfa_offset 8
 516              		.loc 1 522 0
 517 0002 0849     		ldr	r1, .L54
 518 0004 084B     		ldr	r3, .L54+4
 519              		.cfi_offset 14, -4
 520              		.cfi_offset 3, -8
 521              		.loc 1 526 0
 522 0006 0120     		movs	r0, #1
 523              		.loc 1 522 0
 524 0008 1A88     		ldrh	r2, [r3, #0]
 525 000a 0978     		ldrb	r1, [r1, #0]	@ zero_extendqisi2
 526 000c 8A18     		adds	r2, r1, r2
 527 000e 92B2     		uxth	r2, r2
 528 0010 1A80     		strh	r2, [r3, #0]	@ movhi
 529              		.loc 1 524 0
 530 0012 064B     		ldr	r3, .L54+8
 531 0014 0022     		movs	r2, #0
 532 0016 1A70     		strb	r2, [r3, #0]
 533              		.loc 1 526 0
 534 0018 FFF7FEFF 		bl	USBFS_UpdateStatusBlock
 535              		.loc 1 528 0
 536 001c 044B     		ldr	r3, .L54+12
 537 001e 0322     		movs	r2, #3
 538 0020 1A70     		strb	r2, [r3, #0]
ARM GAS  C:\DOCUME~1\ADMINI~1\LOCALS~1\Temp\ccuGndcP.s 			page 24


 539              		.loc 1 529 0
 540 0022 08BD     		pop	{r3, pc}
 541              	.L55:
 542              		.align	2
 543              	.L54:
 544 0024 00000000 		.word	USBFS_lastPacketSize
 545 0028 00000000 		.word	USBFS_transferByteCount
 546 002c 00000000 		.word	USBFS_transferState
 547 0030 00000000 		.word	USBFS_ep0Mode
 548              		.cfi_endproc
 549              	.LFE8:
 550              		.size	USBFS_ControlReadStatusStage, .-USBFS_ControlReadStatusStage
 551              		.section	.text.USBFS_HandleOUT,"ax",%progbits
 552              		.align	1
 553              		.global	USBFS_HandleOUT
 554              		.thumb
 555              		.thumb_func
 556              		.type	USBFS_HandleOUT, %function
 557              	USBFS_HandleOUT:
 558              	.LFB3:
 559              		.loc 1 284 0
 560              		.cfi_startproc
 561              		@ args = 0, pretend = 0, frame = 0
 562              		@ frame_needed = 0, uses_anonymous_args = 0
 563 0000 10B5     		push	{r4, lr}
 564              	.LCFI3:
 565              		.cfi_def_cfa_offset 8
 566              		.loc 1 285 0
 567 0002 0B4B     		ldr	r3, .L62
 568 0004 1B78     		ldrb	r3, [r3, #0]	@ zero_extendqisi2
 569 0006 042B     		cmp	r3, #4
 570 0008 07D0     		beq	.L59
 571              		.cfi_offset 14, -4
 572              		.cfi_offset 4, -8
 573 000a 062B     		cmp	r3, #6
 574 000c 09D0     		beq	.L60
 575 000e 022B     		cmp	r3, #2
 576 0010 0DD1     		bne	.L61
 577              		.loc 1 304 0
 578 0012 BDE81040 		pop	{r4, lr}
 579              		.loc 1 290 0
 580 0016 FFF7FEBF 		b	USBFS_ControlReadStatusStage
 581              	.L59:
 582              		.loc 1 304 0
 583 001a BDE81040 		pop	{r4, lr}
 584              		.loc 1 293 0
 585 001e FFF7FEBF 		b	USBFS_ControlWriteDataStage
 586              	.L60:
 587              		.loc 1 297 0
 588 0022 0320     		movs	r0, #3
 589 0024 FFF7FEFF 		bl	USBFS_UpdateStatusBlock
 590              		.loc 1 299 0
 591 0028 024B     		ldr	r3, .L62+4
 592 002a 0322     		movs	r2, #3
 593 002c 1A70     		strb	r2, [r3, #0]
 594              	.L61:
 595 002e 10BD     		pop	{r4, pc}
ARM GAS  C:\DOCUME~1\ADMINI~1\LOCALS~1\Temp\ccuGndcP.s 			page 25


 596              	.L63:
 597              		.align	2
 598              	.L62:
 599 0030 00000000 		.word	USBFS_transferState
 600 0034 00000000 		.word	USBFS_ep0Mode
 601              		.cfi_endproc
 602              	.LFE3:
 603              		.size	USBFS_HandleOUT, .-USBFS_HandleOUT
 604              		.section	.text.USBFS_InitializeStatusBlock,"ax",%progbits
 605              		.align	1
 606              		.global	USBFS_InitializeStatusBlock
 607              		.thumb
 608              		.thumb_func
 609              		.type	USBFS_InitializeStatusBlock, %function
 610              	USBFS_InitializeStatusBlock:
 611              	.LFB15:
 770:.\Generated_Source\PSoC5/USBFS_drv.c ****     }
 771:.\Generated_Source\PSoC5/USBFS_drv.c **** }
 772:.\Generated_Source\PSoC5/USBFS_drv.c **** 
 773:.\Generated_Source\PSoC5/USBFS_drv.c **** 
 774:.\Generated_Source\PSoC5/USBFS_drv.c **** /*******************************************************************************
 775:.\Generated_Source\PSoC5/USBFS_drv.c **** * Function Name: USBFS_InitializeStatusBlock
 776:.\Generated_Source\PSoC5/USBFS_drv.c **** ********************************************************************************
 777:.\Generated_Source\PSoC5/USBFS_drv.c **** *
 778:.\Generated_Source\PSoC5/USBFS_drv.c **** * Summary:
 779:.\Generated_Source\PSoC5/USBFS_drv.c **** *  Initialize the Completion Status Block for a Request.  The completion
 780:.\Generated_Source\PSoC5/USBFS_drv.c **** *  code is set to USB_XFER_IDLE.
 781:.\Generated_Source\PSoC5/USBFS_drv.c **** *
 782:.\Generated_Source\PSoC5/USBFS_drv.c **** *  Also, initializes USBFS_transferByteCount.  Save some space,
 783:.\Generated_Source\PSoC5/USBFS_drv.c **** *  this is the only consumer.
 784:.\Generated_Source\PSoC5/USBFS_drv.c **** *
 785:.\Generated_Source\PSoC5/USBFS_drv.c **** * Parameters:
 786:.\Generated_Source\PSoC5/USBFS_drv.c **** *  None.
 787:.\Generated_Source\PSoC5/USBFS_drv.c **** *
 788:.\Generated_Source\PSoC5/USBFS_drv.c **** * Return:
 789:.\Generated_Source\PSoC5/USBFS_drv.c **** *  None.
 790:.\Generated_Source\PSoC5/USBFS_drv.c **** *
 791:.\Generated_Source\PSoC5/USBFS_drv.c **** * Global variables:
 792:.\Generated_Source\PSoC5/USBFS_drv.c **** *  USBFS_currentTD.pStatusBlock->status - set to XFER_IDLE.
 793:.\Generated_Source\PSoC5/USBFS_drv.c **** *  USBFS_currentTD.pStatusBlock->length - cleared.
 794:.\Generated_Source\PSoC5/USBFS_drv.c **** *  USBFS_transferByteCount - cleared.
 795:.\Generated_Source\PSoC5/USBFS_drv.c **** *
 796:.\Generated_Source\PSoC5/USBFS_drv.c **** * Reentrant:
 797:.\Generated_Source\PSoC5/USBFS_drv.c **** *  No.
 798:.\Generated_Source\PSoC5/USBFS_drv.c **** *
 799:.\Generated_Source\PSoC5/USBFS_drv.c **** *******************************************************************************/
 800:.\Generated_Source\PSoC5/USBFS_drv.c **** void USBFS_InitializeStatusBlock(void) 
 801:.\Generated_Source\PSoC5/USBFS_drv.c **** {
 612              		.loc 1 801 0
 613              		.cfi_startproc
 614              		@ args = 0, pretend = 0, frame = 0
 615              		@ frame_needed = 0, uses_anonymous_args = 0
 616              		@ link register save eliminated.
 802:.\Generated_Source\PSoC5/USBFS_drv.c ****     USBFS_transferByteCount = 0u;
 617              		.loc 1 802 0
 618 0000 054A     		ldr	r2, .L67
 619 0002 4FF00003 		mov	r3, #0	@ movhi
ARM GAS  C:\DOCUME~1\ADMINI~1\LOCALS~1\Temp\ccuGndcP.s 			page 26


 620 0006 1380     		strh	r3, [r2, #0]	@ movhi
 803:.\Generated_Source\PSoC5/USBFS_drv.c ****     if(USBFS_currentTD.pStatusBlock != NULL)
 621              		.loc 1 803 0
 622 0008 044A     		ldr	r2, .L67+4
 623 000a 9168     		ldr	r1, [r2, #8]
 624 000c 19B1     		cbz	r1, .L66
 804:.\Generated_Source\PSoC5/USBFS_drv.c ****     {
 805:.\Generated_Source\PSoC5/USBFS_drv.c ****         USBFS_currentTD.pStatusBlock->status = USBFS_XFER_IDLE;
 625              		.loc 1 805 0
 626 000e 9168     		ldr	r1, [r2, #8]
 627 0010 0B70     		strb	r3, [r1, #0]
 806:.\Generated_Source\PSoC5/USBFS_drv.c ****         USBFS_currentTD.pStatusBlock->length = 0u;
 628              		.loc 1 806 0
 629 0012 9268     		ldr	r2, [r2, #8]
 630 0014 5380     		strh	r3, [r2, #2]	@ movhi
 631              	.L66:
 632 0016 7047     		bx	lr
 633              	.L68:
 634              		.align	2
 635              	.L67:
 636 0018 00000000 		.word	USBFS_transferByteCount
 637 001c 00000000 		.word	USBFS_currentTD
 638              		.cfi_endproc
 639              	.LFE15:
 640              		.size	USBFS_InitializeStatusBlock, .-USBFS_InitializeStatusBlock
 641              		.section	.text.USBFS_InitControlWrite,"ax",%progbits
 642              		.align	1
 643              		.global	USBFS_InitControlWrite
 644              		.thumb
 645              		.thumb_func
 646              		.type	USBFS_InitControlWrite, %function
 647              	USBFS_InitControlWrite:
 648              	.LFB9:
 649              		.loc 1 555 0
 650              		.cfi_startproc
 651              		@ args = 0, pretend = 0, frame = 0
 652              		@ frame_needed = 0, uses_anonymous_args = 0
 653 0000 08B5     		push	{r3, lr}
 654              	.LCFI4:
 655              		.cfi_def_cfa_offset 8
 656              		.loc 1 559 0
 657 0002 0C4B     		ldr	r3, .L72
 658              		.cfi_offset 14, -4
 659              		.cfi_offset 3, -8
 660 0004 0422     		movs	r2, #4
 661 0006 1A70     		strb	r2, [r3, #0]
 662              		.loc 1 561 0
 663 0008 0B4B     		ldr	r3, .L72+4
 664 000a 843A     		subs	r2, r2, #132
 665 000c 1A70     		strb	r2, [r3, #0]
 666              		.loc 1 563 0
 667 000e FFF7FEFF 		bl	USBFS_InitializeStatusBlock
 668              		.loc 1 565 0
 669 0012 0A4B     		ldr	r3, .L72+8
 670 0014 1A78     		ldrb	r2, [r3, #0]	@ zero_extendqisi2
 671 0016 013B     		subs	r3, r3, #1
 672 0018 1B78     		ldrb	r3, [r3, #0]	@ zero_extendqisi2
ARM GAS  C:\DOCUME~1\ADMINI~1\LOCALS~1\Temp\ccuGndcP.s 			page 27


 673 001a 43EA0222 		orr	r2, r3, r2, lsl #8
 674              	.LVL2:
 675              		.loc 1 567 0
 676 001e 084B     		ldr	r3, .L72+12
 677 0020 1988     		ldrh	r1, [r3, #0]
 678 0022 89B2     		uxth	r1, r1
 679 0024 9142     		cmp	r1, r2
 680              		.loc 1 569 0
 681 0026 88BF     		it	hi
 682 0028 1A80     		strhhi	r2, [r3, #0]	@ movhi
 683              		.loc 1 573 0
 684 002a 064B     		ldr	r3, .L72+16
 685 002c 0B22     		movs	r2, #11
 686              	.LVL3:
 687 002e 1A70     		strb	r2, [r3, #0]
 688              		.loc 1 576 0
 689 0030 0120     		movs	r0, #1
 690 0032 08BD     		pop	{r3, pc}
 691              	.L73:
 692              		.align	2
 693              	.L72:
 694 0034 00000000 		.word	USBFS_transferState
 695 0038 00000000 		.word	USBFS_ep0Toggle
 696 003c 07600040 		.word	1073766407
 697 0040 00000000 		.word	USBFS_currentTD
 698 0044 00000000 		.word	USBFS_ep0Mode
 699              		.cfi_endproc
 700              	.LFE9:
 701              		.size	USBFS_InitControlWrite, .-USBFS_InitControlWrite
 702              		.section	.text.USBFS_InitControlRead,"ax",%progbits
 703              		.align	1
 704              		.global	USBFS_InitControlRead
 705              		.thumb
 706              		.thumb_func
 707              		.type	USBFS_InitControlRead, %function
 708              	USBFS_InitControlRead:
 709              	.LFB5:
 710              		.loc 1 405 0
 711              		.cfi_startproc
 712              		@ args = 0, pretend = 0, frame = 0
 713              		@ frame_needed = 0, uses_anonymous_args = 0
 714 0000 10B5     		push	{r4, lr}
 715              	.LCFI5:
 716              		.cfi_def_cfa_offset 8
 717              		.loc 1 407 0
 718 0002 0E4C     		ldr	r4, .L79
 719              		.cfi_offset 14, -4
 720              		.cfi_offset 4, -8
 721 0004 2388     		ldrh	r3, [r4, #0]
 722 0006 13B9     		cbnz	r3, .L75
 723              		.loc 1 409 0
 724 0008 FFF7FEFF 		bl	USBFS_InitZeroLengthControlTransfer
 725 000c 14E0     		b	.L76
 726              	.L75:
 727              		.loc 1 414 0
 728 000e 0C4B     		ldr	r3, .L79+4
 729 0010 0222     		movs	r2, #2
ARM GAS  C:\DOCUME~1\ADMINI~1\LOCALS~1\Temp\ccuGndcP.s 			page 28


 730 0012 1A70     		strb	r2, [r3, #0]
 731              		.loc 1 416 0
 732 0014 0B4B     		ldr	r3, .L79+8
 733 0016 023A     		subs	r2, r2, #2
 734 0018 1A70     		strb	r2, [r3, #0]
 735              		.loc 1 418 0
 736 001a FFF7FEFF 		bl	USBFS_InitializeStatusBlock
 737              		.loc 1 419 0
 738 001e 0A4B     		ldr	r3, .L79+12
 739 0020 1A78     		ldrb	r2, [r3, #0]	@ zero_extendqisi2
 740 0022 013B     		subs	r3, r3, #1
 741 0024 1B78     		ldrb	r3, [r3, #0]	@ zero_extendqisi2
 742 0026 43EA0223 		orr	r3, r3, r2, lsl #8
 743              	.LVL4:
 744              		.loc 1 421 0
 745 002a 2288     		ldrh	r2, [r4, #0]
 746 002c 92B2     		uxth	r2, r2
 747 002e 9A42     		cmp	r2, r3
 748              		.loc 1 423 0
 749 0030 88BF     		it	hi
 750 0032 2380     		strhhi	r3, [r4, #0]	@ movhi
 751              		.loc 1 425 0
 752 0034 FFF7FEFF 		bl	USBFS_LoadEP0
 753              	.LVL5:
 754              	.L76:
 755              		.loc 1 429 0
 756 0038 0120     		movs	r0, #1
 757 003a 10BD     		pop	{r4, pc}
 758              	.L80:
 759              		.align	2
 760              	.L79:
 761 003c 00000000 		.word	USBFS_currentTD
 762 0040 00000000 		.word	USBFS_transferState
 763 0044 00000000 		.word	USBFS_ep0Toggle
 764 0048 07600040 		.word	1073766407
 765              		.cfi_endproc
 766              	.LFE5:
 767              		.size	USBFS_InitControlRead, .-USBFS_InitControlRead
 768              		.section	.text.USBFS_HandleSetup,"ax",%progbits
 769              		.align	1
 770              		.global	USBFS_HandleSetup
 771              		.thumb
 772              		.thumb_func
 773              		.type	USBFS_HandleSetup, %function
 774              	USBFS_HandleSetup:
 775              	.LFB1:
 776              		.loc 1 190 0
 777              		.cfi_startproc
 778              		@ args = 0, pretend = 0, frame = 0
 779              		@ frame_needed = 0, uses_anonymous_args = 0
 780 0000 08B5     		push	{r3, lr}
 781              	.LCFI6:
 782              		.cfi_def_cfa_offset 8
 783              		.loc 1 193 0
 784 0002 114B     		ldr	r3, .L90
 785              		.cfi_offset 14, -4
 786              		.cfi_offset 3, -8
ARM GAS  C:\DOCUME~1\ADMINI~1\LOCALS~1\Temp\ccuGndcP.s 			page 29


 787 0004 1A78     		ldrb	r2, [r3, #0]	@ zero_extendqisi2
 788              		.loc 1 194 0
 789 0006 1A70     		strb	r2, [r3, #0]
 790              	.LVL6:
 791              		.loc 1 195 0
 792 0008 1B78     		ldrb	r3, [r3, #0]	@ zero_extendqisi2
 793              		.loc 1 196 0
 794 000a 13F0800F 		tst	r3, #128
 795 000e 02D0     		beq	.L82
 796              	.LVL7:
 797              		.loc 1 198 0
 798 0010 0E4A     		ldr	r2, .L90+4
 799 0012 1370     		strb	r3, [r2, #0]
 800 0014 08BD     		pop	{r3, pc}
 801              	.LVL8:
 802              	.L82:
 803              		.loc 1 203 0
 804 0016 0220     		movs	r0, #2
 805 0018 FFF7FEFF 		bl	USBFS_UpdateStatusBlock
 806              	.LVL9:
 807              		.loc 1 205 0
 808 001c 0C4B     		ldr	r3, .L90+8
 809 001e 1B78     		ldrb	r3, [r3, #0]	@ zero_extendqisi2
 810 0020 03F06003 		and	r3, r3, #96
 811 0024 202B     		cmp	r3, #32
 812 0026 05D0     		beq	.L86
 813 0028 402B     		cmp	r3, #64
 814 002a 06D0     		beq	.L87
 815 002c 43B9     		cbnz	r3, .L84
 816              		.loc 1 208 0
 817 002e FFF7FEFF 		bl	USBFS_HandleStandardRqst
 818              		.loc 1 209 0
 819 0032 04E0     		b	.L88
 820              	.L86:
 821              		.loc 1 211 0
 822 0034 FFF7FEFF 		bl	USBFS_DispatchClassRqst
 823              		.loc 1 212 0
 824 0038 01E0     		b	.L88
 825              	.L87:
 826              		.loc 1 214 0
 827 003a FFF7FEFF 		bl	USBFS_HandleVendorRqst
 828              	.L88:
 829              		.loc 1 220 0
 830 003e 10B9     		cbnz	r0, .L89
 831              	.LVL10:
 832              	.L84:
 833              		.loc 1 222 0
 834 0040 024B     		ldr	r3, .L90+4
 835 0042 0322     		movs	r2, #3
 836 0044 1A70     		strb	r2, [r3, #0]
 837              	.L89:
 838 0046 08BD     		pop	{r3, pc}
 839              	.L91:
 840              		.align	2
 841              	.L90:
 842 0048 28600040 		.word	1073766440
 843 004c 00000000 		.word	USBFS_ep0Mode
ARM GAS  C:\DOCUME~1\ADMINI~1\LOCALS~1\Temp\ccuGndcP.s 			page 30


 844 0050 00600040 		.word	1073766400
 845              		.cfi_endproc
 846              	.LFE1:
 847              		.size	USBFS_HandleSetup, .-USBFS_HandleSetup
 848              		.section	.text.USBFS_EP_0_ISR,"ax",%progbits
 849              		.align	1
 850              		.global	USBFS_EP_0_ISR
 851              		.thumb
 852              		.thumb_func
 853              		.type	USBFS_EP_0_ISR, %function
 854              	USBFS_EP_0_ISR:
 855              	.LFB0:
 856              		.loc 1 105 0
 857              		.cfi_startproc
 858              		@ args = 0, pretend = 0, frame = 0
 859              		@ frame_needed = 0, uses_anonymous_args = 0
 860 0000 08B5     		push	{r3, lr}
 861              	.LCFI7:
 862              		.cfi_def_cfa_offset 8
 863              		.loc 1 110 0
 864 0002 204B     		ldr	r3, .L100
 865              		.cfi_offset 14, -4
 866              		.cfi_offset 3, -8
 867 0004 1B78     		ldrb	r3, [r3, #0]	@ zero_extendqisi2
 868              		.loc 1 111 0
 869 0006 13F0100F 		tst	r3, #16
 870              	.LVL11:
 871 000a 39D0     		beq	.L99
 872              		.loc 1 114 0
 873 000c 13F0800F 		tst	r3, #128
 874 0010 0BD0     		beq	.L94
 875              		.loc 1 116 0
 876 0012 03F00F03 		and	r3, r3, #15
 877              	.LVL12:
 878 0016 012B     		cmp	r3, #1
 879 0018 32D1     		bne	.L99
 880              		.loc 1 122 0
 881 001a FFF7FEFF 		bl	USBFS_HandleSetup
 882              		.loc 1 123 0
 883 001e 1A4B     		ldr	r3, .L100+4
 884 0020 1B78     		ldrb	r3, [r3, #0]	@ zero_extendqisi2
 885 0022 13F0800F 		tst	r3, #128
 886 0026 0BD0     		beq	.L95
 887 0028 08BD     		pop	{r3, pc}
 888              	.LVL13:
 889              	.L94:
 890              		.loc 1 130 0
 891 002a 13F0400F 		tst	r3, #64
 892 002e 02D0     		beq	.L96
 893              		.loc 1 132 0
 894 0030 FFF7FEFF 		bl	USBFS_HandleIN
 895              	.LVL14:
 896 0034 04E0     		b	.L95
 897              	.LVL15:
 898              	.L96:
 899              		.loc 1 134 0
 900 0036 13F0200F 		tst	r3, #32
ARM GAS  C:\DOCUME~1\ADMINI~1\LOCALS~1\Temp\ccuGndcP.s 			page 31


 901 003a 21D0     		beq	.L99
 902              		.loc 1 136 0
 903 003c FFF7FEFF 		bl	USBFS_HandleOUT
 904              	.LVL16:
 905              	.L95:
 906              		.loc 1 144 0
 907 0040 104B     		ldr	r3, .L100
 908 0042 1B78     		ldrb	r3, [r3, #0]	@ zero_extendqisi2
 909              		.loc 1 145 0
 910 0044 13F0800F 		tst	r3, #128
 911 0048 1AD1     		bne	.L99
 912              		.loc 1 148 0
 913 004a 104B     		ldr	r3, .L100+8
 914 004c 104A     		ldr	r2, .L100+12
 915 004e 1B78     		ldrb	r3, [r3, #0]	@ zero_extendqisi2
 916 0050 1278     		ldrb	r2, [r2, #0]	@ zero_extendqisi2
 917 0052 42EA0303 		orr	r3, r2, r3
 918              	.LVL17:
 919              		.loc 1 149 0
 920 0056 0F4A     		ldr	r2, .L100+16
 921 0058 1370     		strb	r3, [r2, #0]
 922              		.loc 1 150 0
 923 005a 1278     		ldrb	r2, [r2, #0]	@ zero_extendqisi2
 924 005c 9342     		cmp	r3, r2
 925 005e 0FD1     		bne	.L99
 926              	.LVL18:
 927              	.L98:
 928              		.loc 1 154 0
 929 0060 0949     		ldr	r1, .L100+4
 930              		.loc 1 156 0
 931 0062 084B     		ldr	r3, .L100
 932              	.LVL19:
 933              		.loc 1 154 0
 934 0064 0A78     		ldrb	r2, [r1, #0]	@ zero_extendqisi2
 935              	.LVL20:
 936              		.loc 1 156 0
 937 0066 1878     		ldrb	r0, [r3, #0]	@ zero_extendqisi2
 938              		.loc 1 157 0
 939 0068 10F0800F 		tst	r0, #128
 940 006c 04D1     		bne	.L97
 941              		.loc 1 160 0
 942 006e 0A78     		ldrb	r2, [r1, #0]	@ zero_extendqisi2
 943 0070 1A70     		strb	r2, [r3, #0]
 944              		.loc 1 162 0
 945 0072 1A78     		ldrb	r2, [r3, #0]	@ zero_extendqisi2
 946 0074 02F00F02 		and	r2, r2, #15
 947              	.LVL21:
 948              	.L97:
 949              		.loc 1 164 0
 950 0078 034B     		ldr	r3, .L100+4
 951 007a 1B78     		ldrb	r3, [r3, #0]	@ zero_extendqisi2
 952 007c 9A42     		cmp	r2, r3
 953 007e EFD1     		bne	.L98
 954              	.LVL22:
 955              	.L99:
 956 0080 08BD     		pop	{r3, pc}
 957              	.L101:
ARM GAS  C:\DOCUME~1\ADMINI~1\LOCALS~1\Temp\ccuGndcP.s 			page 32


 958 0082 00BF     		.align	2
 959              	.L100:
 960 0084 28600040 		.word	1073766440
 961 0088 00000000 		.word	USBFS_ep0Mode
 962 008c 00000000 		.word	USBFS_ep0Toggle
 963 0090 00000000 		.word	USBFS_ep0Count
 964 0094 29600040 		.word	1073766441
 965              		.cfi_endproc
 966              	.LFE0:
 967              		.size	USBFS_EP_0_ISR, .-USBFS_EP_0_ISR
 968              		.comm	USBFS_EP,108,4
 969              		.comm	USBFS_configuration,1,1
 970              		.comm	USBFS_interfaceNumber,1,1
 971              		.comm	USBFS_configurationChanged,1,1
 972              		.comm	USBFS_deviceAddress,1,1
 973              		.comm	USBFS_deviceStatus,1,1
 974              		.comm	USBFS_interfaceSetting,1,4
 975              		.comm	USBFS_interfaceSetting_last,1,4
 976              		.comm	USBFS_interfaceStatus,1,4
 977              		.comm	USBFS_device,1,1
 978              		.comm	USBFS_interfaceClass,4,4
 979              		.comm	USBFS_ep0Toggle,1,1
 980              		.comm	USBFS_lastPacketSize,1,1
 981              		.comm	USBFS_transferState,1,1
 982              		.comm	USBFS_currentTD,12,4
 983              		.comm	USBFS_ep0Mode,1,1
 984              		.comm	USBFS_ep0Count,1,1
 985              		.comm	USBFS_transferByteCount,2,2
 986              		.text
 987              	.Letext0: