ARM GAS  C:\DOCUME~1\ADMINI~1\LOCALS~1\Temp\cca9PUJ6.s 			page 1


   1              		.syntax unified
   2              		.cpu cortex-m3
   3              		.fpu softvfp
   4              		.eabi_attribute 20, 1
   5              		.eabi_attribute 21, 1
   6              		.eabi_attribute 23, 3
   7              		.eabi_attribute 24, 1
   8              		.eabi_attribute 25, 1
   9              		.eabi_attribute 26, 1
  10              		.eabi_attribute 30, 6
  11              		.eabi_attribute 18, 4
  12              		.thumb
  13              		.file	"Filter_1.c"
  20 0000 74010000 		.text
  20      02007300 
  20      00000201 
  20      FB0E0D00 
  20      01010101 
  21              	.Ltext0:
  22              		.cfi_sections	.debug_frame
  23              		.global	Filter_1_initVar
  24              		.bss
  25              		.type	Filter_1_initVar, %object
  26              		.size	Filter_1_initVar, 1
  27              	Filter_1_initVar:
  28 0000 00       		.space	1
  29              		.section	.text.Filter_1_Init,"ax",%progbits
  30              		.align	2
  31              		.global	Filter_1_Init
  32              		.thumb
  33              		.thumb_func
  34              		.type	Filter_1_Init, %function
  35              	Filter_1_Init:
  36              	.LFB0:
  37              		.file 1 ".\\Generated_Source\\PSoC5\\Filter_1.c"
   1:.\Generated_Source\PSoC5/Filter_1.c **** /*******************************************************************************
   2:.\Generated_Source\PSoC5/Filter_1.c **** * File Name: Filter_1.c
   3:.\Generated_Source\PSoC5/Filter_1.c **** * Version 2.10
   4:.\Generated_Source\PSoC5/Filter_1.c **** *
   5:.\Generated_Source\PSoC5/Filter_1.c **** * Description:
   6:.\Generated_Source\PSoC5/Filter_1.c **** *  This file provides the API source code for the FILT component.
   7:.\Generated_Source\PSoC5/Filter_1.c **** *
   8:.\Generated_Source\PSoC5/Filter_1.c **** * Note:
   9:.\Generated_Source\PSoC5/Filter_1.c **** *  
  10:.\Generated_Source\PSoC5/Filter_1.c **** *******************************************************************************
  11:.\Generated_Source\PSoC5/Filter_1.c **** * Copyright 2008-2012, Cypress Semiconductor Corporation.  All rights reserved.
  12:.\Generated_Source\PSoC5/Filter_1.c **** * You may use this file only in accordance with the license, terms, conditions, 
  13:.\Generated_Source\PSoC5/Filter_1.c **** * disclaimers, and limitations in the end user license agreement accompanying 
  14:.\Generated_Source\PSoC5/Filter_1.c **** * the software package with which this file was provided.
  15:.\Generated_Source\PSoC5/Filter_1.c **** ********************************************************************************/
  16:.\Generated_Source\PSoC5/Filter_1.c **** 
ARM GAS  C:\DOCUME~1\ADMINI~1\LOCALS~1\Temp\cca9PUJ6.s 			page 2


  17:.\Generated_Source\PSoC5/Filter_1.c **** #include "Filter_1_PVT.h"
  18:.\Generated_Source\PSoC5/Filter_1.c **** 
  19:.\Generated_Source\PSoC5/Filter_1.c **** 
  20:.\Generated_Source\PSoC5/Filter_1.c **** /*******************************************************************************
  21:.\Generated_Source\PSoC5/Filter_1.c **** * FILT component internal variables.
  22:.\Generated_Source\PSoC5/Filter_1.c **** *******************************************************************************/
  23:.\Generated_Source\PSoC5/Filter_1.c **** 
  24:.\Generated_Source\PSoC5/Filter_1.c **** uint8 Filter_1_initVar = 0u;
  25:.\Generated_Source\PSoC5/Filter_1.c **** 
  26:.\Generated_Source\PSoC5/Filter_1.c **** 
  27:.\Generated_Source\PSoC5/Filter_1.c **** /*******************************************************************************
  28:.\Generated_Source\PSoC5/Filter_1.c **** * Function Name: Filter_1_Init
  29:.\Generated_Source\PSoC5/Filter_1.c **** ********************************************************************************
  30:.\Generated_Source\PSoC5/Filter_1.c **** *
  31:.\Generated_Source\PSoC5/Filter_1.c **** * Summary:
  32:.\Generated_Source\PSoC5/Filter_1.c **** *  Initialize component's parameters to the parameters set by user in the 
  33:.\Generated_Source\PSoC5/Filter_1.c **** *  customizer of the component placed onto schematic. Usually called in 
  34:.\Generated_Source\PSoC5/Filter_1.c **** *  Filter_1_Start().
  35:.\Generated_Source\PSoC5/Filter_1.c **** *
  36:.\Generated_Source\PSoC5/Filter_1.c **** * Parameters:  
  37:.\Generated_Source\PSoC5/Filter_1.c **** *  void
  38:.\Generated_Source\PSoC5/Filter_1.c **** *
  39:.\Generated_Source\PSoC5/Filter_1.c **** * Return: 
  40:.\Generated_Source\PSoC5/Filter_1.c **** *  void
  41:.\Generated_Source\PSoC5/Filter_1.c **** *
  42:.\Generated_Source\PSoC5/Filter_1.c **** *******************************************************************************/
  43:.\Generated_Source\PSoC5/Filter_1.c **** void Filter_1_Init(void) 
  44:.\Generated_Source\PSoC5/Filter_1.c **** {
  38              		.loc 1 44 0
  39              		.cfi_startproc
  40              		@ args = 0, pretend = 0, frame = 0
  41              		@ frame_needed = 1, uses_anonymous_args = 0
  42 0000 80B5     		push	{r7, lr}
  43              	.LCFI0:
  44              		.cfi_def_cfa_offset 8
  45 0002 00AF     		add	r7, sp, #0
  46              		.cfi_offset 14, -4
  47              		.cfi_offset 7, -8
  48              	.LCFI1:
  49              		.cfi_def_cfa_register 7
  45:.\Generated_Source\PSoC5/Filter_1.c ****         /* Power on DFB before initializing the RAMs */
  46:.\Generated_Source\PSoC5/Filter_1.c ****     Filter_1_PM_ACT_CFG_REG |= Filter_1_PM_ACT_MSK;
  50              		.loc 1 46 0
  51 0004 44F2A633 		movw	r3, #:lower16:1073759142
  52 0008 C4F20003 		movt	r3, #:upper16:1073759142
  53 000c 44F2A632 		movw	r2, #:lower16:1073759142
  54 0010 C4F20002 		movt	r2, #:upper16:1073759142
  55 0014 1278     		ldrb	r2, [r2, #0]
  56 0016 D2B2     		uxtb	r2, r2
  57 0018 42F01002 		orr	r2, r2, #16
  58 001c D2B2     		uxtb	r2, r2
  59 001e 1A70     		strb	r2, [r3, #0]
  47:.\Generated_Source\PSoC5/Filter_1.c **** 
  48:.\Generated_Source\PSoC5/Filter_1.c ****     /* Turn off Run Bit */
  49:.\Generated_Source\PSoC5/Filter_1.c ****     Filter_1_CR_REG &= ~Filter_1_RUN_MASK;
  60              		.loc 1 49 0
  61 0020 4CF28073 		movw	r3, #:lower16:1073792896
ARM GAS  C:\DOCUME~1\ADMINI~1\LOCALS~1\Temp\cca9PUJ6.s 			page 3


  62 0024 C4F20003 		movt	r3, #:upper16:1073792896
  63 0028 4CF28072 		movw	r2, #:lower16:1073792896
  64 002c C4F20002 		movt	r2, #:upper16:1073792896
  65 0030 1278     		ldrb	r2, [r2, #0]
  66 0032 D2B2     		uxtb	r2, r2
  67 0034 02F0FE02 		and	r2, r2, #254
  68 0038 1A70     		strb	r2, [r3, #0]
  50:.\Generated_Source\PSoC5/Filter_1.c ****                 
  51:.\Generated_Source\PSoC5/Filter_1.c ****     /* Enable the DFB RAMS */
  52:.\Generated_Source\PSoC5/Filter_1.c ****     Filter_1_RAM_EN_REG = Filter_1_RAM_DIR_BUS;
  69              		.loc 1 52 0
  70 003a 4CF28873 		movw	r3, #:lower16:1073792904
  71 003e C4F20003 		movt	r3, #:upper16:1073792904
  72 0042 4FF03F02 		mov	r2, #63
  73 0046 1A70     		strb	r2, [r3, #0]
  53:.\Generated_Source\PSoC5/Filter_1.c ****         
  54:.\Generated_Source\PSoC5/Filter_1.c ****     /* Put DFB RAM on the bus */
  55:.\Generated_Source\PSoC5/Filter_1.c ****     Filter_1_RAM_DIR_REG = Filter_1_RAM_DIR_BUS;
  74              		.loc 1 55 0
  75 0048 4CF28C73 		movw	r3, #:lower16:1073792908
  76 004c C4F20003 		movt	r3, #:upper16:1073792908
  77 0050 4FF03F02 		mov	r2, #63
  78 0054 1A70     		strb	r2, [r3, #0]
  56:.\Generated_Source\PSoC5/Filter_1.c ****         
  57:.\Generated_Source\PSoC5/Filter_1.c ****     /* Write DFB RAMs */
  58:.\Generated_Source\PSoC5/Filter_1.c ****     /* Control Store RAMs */
  59:.\Generated_Source\PSoC5/Filter_1.c ****     memcpy( Filter_1_CSA_RAM,
  79              		.loc 1 59 0
  80 0056 4CF20040 		movw	r0, #:lower16:1073792000
  81 005a C4F20000 		movt	r0, #:upper16:1073792000
  82 005e 40F20001 		movw	r1, #:lower16:Filter_1_control
  83 0062 C0F20001 		movt	r1, #:upper16:Filter_1_control
  84 0066 4FF48072 		mov	r2, #256
  85 006a FFF7FEFF 		bl	memcpy
  60:.\Generated_Source\PSoC5/Filter_1.c ****         Filter_1_control, Filter_1_CSA_RAM_SIZE); 
  61:.\Generated_Source\PSoC5/Filter_1.c ****     memcpy(Filter_1_CSB_RAM,
  86              		.loc 1 61 0
  87 006e 4CF20050 		movw	r0, #:lower16:1073792256
  88 0072 C4F20000 		movt	r0, #:upper16:1073792256
  89 0076 40F20001 		movw	r1, #:lower16:Filter_1_control
  90 007a C0F20001 		movt	r1, #:upper16:Filter_1_control
  91 007e 4FF48072 		mov	r2, #256
  92 0082 FFF7FEFF 		bl	memcpy
  62:.\Generated_Source\PSoC5/Filter_1.c ****         Filter_1_control, Filter_1_CSB_RAM_SIZE); 
  63:.\Generated_Source\PSoC5/Filter_1.c ****     /* CFSM RAM */
  64:.\Generated_Source\PSoC5/Filter_1.c ****     memcpy(Filter_1_CFSM_RAM,
  93              		.loc 1 64 0
  94 0086 4CF20060 		movw	r0, #:lower16:1073792512
  95 008a C4F20000 		movt	r0, #:upper16:1073792512
  96 008e 40F20001 		movw	r1, #:lower16:Filter_1_cfsm
  97 0092 C0F20001 		movt	r1, #:upper16:Filter_1_cfsm
  98 0096 4FF48072 		mov	r2, #256
  99 009a FFF7FEFF 		bl	memcpy
  65:.\Generated_Source\PSoC5/Filter_1.c ****         Filter_1_cfsm, Filter_1_CFSM_RAM_SIZE); 
  66:.\Generated_Source\PSoC5/Filter_1.c ****     /* DAta RAMs */
  67:.\Generated_Source\PSoC5/Filter_1.c ****     memcpy(Filter_1_DA_RAM,
 100              		.loc 1 67 0
ARM GAS  C:\DOCUME~1\ADMINI~1\LOCALS~1\Temp\cca9PUJ6.s 			page 4


 101 009e 4CF20000 		movw	r0, #:lower16:1073790976
 102 00a2 C4F20000 		movt	r0, #:upper16:1073790976
 103 00a6 40F20001 		movw	r1, #:lower16:Filter_1_data_a
 104 00aa C0F20001 		movt	r1, #:upper16:Filter_1_data_a
 105 00ae 4FF40072 		mov	r2, #512
 106 00b2 FFF7FEFF 		bl	memcpy
  68:.\Generated_Source\PSoC5/Filter_1.c ****         Filter_1_data_a, Filter_1_DA_RAM_SIZE); 
  69:.\Generated_Source\PSoC5/Filter_1.c ****     memcpy(Filter_1_DB_RAM,
 107              		.loc 1 69 0
 108 00b6 4CF20020 		movw	r0, #:lower16:1073791488
 109 00ba C4F20000 		movt	r0, #:upper16:1073791488
 110 00be 40F20001 		movw	r1, #:lower16:Filter_1_data_b
 111 00c2 C0F20001 		movt	r1, #:upper16:Filter_1_data_b
 112 00c6 4FF40072 		mov	r2, #512
 113 00ca FFF7FEFF 		bl	memcpy
  70:.\Generated_Source\PSoC5/Filter_1.c ****         Filter_1_data_b, Filter_1_DB_RAM_SIZE); 
  71:.\Generated_Source\PSoC5/Filter_1.c ****     /* ACU RAM */
  72:.\Generated_Source\PSoC5/Filter_1.c ****     memcpy(Filter_1_ACU_RAM,
 114              		.loc 1 72 0
 115 00ce 4CF20070 		movw	r0, #:lower16:1073792768
 116 00d2 C4F20000 		movt	r0, #:upper16:1073792768
 117 00d6 40F20001 		movw	r1, #:lower16:Filter_1_acu
 118 00da C0F20001 		movt	r1, #:upper16:Filter_1_acu
 119 00de 4FF04002 		mov	r2, #64
 120 00e2 FFF7FEFF 		bl	memcpy
  73:.\Generated_Source\PSoC5/Filter_1.c ****         Filter_1_acu, Filter_1_ACU_RAM_SIZE); 
  74:.\Generated_Source\PSoC5/Filter_1.c **** 
  75:.\Generated_Source\PSoC5/Filter_1.c ****     /* Take DFB RAM off the bus */
  76:.\Generated_Source\PSoC5/Filter_1.c ****     Filter_1_RAM_DIR_REG = Filter_1_RAM_DIR_DFB;
 121              		.loc 1 76 0
 122 00e6 4CF28C73 		movw	r3, #:lower16:1073792908
 123 00ea C4F20003 		movt	r3, #:upper16:1073792908
 124 00ee 4FF00002 		mov	r2, #0
 125 00f2 1A70     		strb	r2, [r3, #0]
  77:.\Generated_Source\PSoC5/Filter_1.c **** 
  78:.\Generated_Source\PSoC5/Filter_1.c ****     /* Set up interrupt and DMA events */
  79:.\Generated_Source\PSoC5/Filter_1.c ****     Filter_1_SetInterruptMode(Filter_1_INIT_INTERRUPT_MODE);
 126              		.loc 1 79 0
 127 00f4 4FF00000 		mov	r0, #0
 128 00f8 FFF7FEFF 		bl	Filter_1_SetInterruptMode
  80:.\Generated_Source\PSoC5/Filter_1.c ****     Filter_1_SetDMAMode(Filter_1_INIT_DMA_MODE);
 129              		.loc 1 80 0
 130 00fc 4FF00100 		mov	r0, #1
 131 0100 FFF7FEFF 		bl	Filter_1_SetDMAMode
  81:.\Generated_Source\PSoC5/Filter_1.c ****         
  82:.\Generated_Source\PSoC5/Filter_1.c ****     /* Clear any pending interrupts */
  83:.\Generated_Source\PSoC5/Filter_1.c ****     /* Bits [2..0] of this register are readonly. */
  84:.\Generated_Source\PSoC5/Filter_1.c ****     Filter_1_SR_REG = 0xf8;   
 132              		.loc 1 84 0
 133 0104 4CF28473 		movw	r3, #:lower16:1073792900
 134 0108 C4F20003 		movt	r3, #:upper16:1073792900
 135 010c 6FF00702 		mvn	r2, #7
 136 0110 1A70     		strb	r2, [r3, #0]
  85:.\Generated_Source\PSoC5/Filter_1.c **** }
 137              		.loc 1 85 0
 138 0112 80BD     		pop	{r7, pc}
 139              		.cfi_endproc
ARM GAS  C:\DOCUME~1\ADMINI~1\LOCALS~1\Temp\cca9PUJ6.s 			page 5


 140              	.LFE0:
 141              		.size	Filter_1_Init, .-Filter_1_Init
 142              		.section	.text.Filter_1_Enable,"ax",%progbits
 143              		.align	2
 144              		.global	Filter_1_Enable
 145              		.thumb
 146              		.thumb_func
 147              		.type	Filter_1_Enable, %function
 148              	Filter_1_Enable:
 149              	.LFB1:
  86:.\Generated_Source\PSoC5/Filter_1.c **** 
  87:.\Generated_Source\PSoC5/Filter_1.c **** 
  88:.\Generated_Source\PSoC5/Filter_1.c **** /*******************************************************************************
  89:.\Generated_Source\PSoC5/Filter_1.c **** * Function Name: Filter_1_Enable
  90:.\Generated_Source\PSoC5/Filter_1.c **** ********************************************************************************
  91:.\Generated_Source\PSoC5/Filter_1.c **** *  
  92:.\Generated_Source\PSoC5/Filter_1.c **** * Summary: 
  93:.\Generated_Source\PSoC5/Filter_1.c **** *  Enables the DFB run bit.
  94:.\Generated_Source\PSoC5/Filter_1.c **** *
  95:.\Generated_Source\PSoC5/Filter_1.c **** * Parameters:  
  96:.\Generated_Source\PSoC5/Filter_1.c **** *  void
  97:.\Generated_Source\PSoC5/Filter_1.c **** *
  98:.\Generated_Source\PSoC5/Filter_1.c **** * Return: 
  99:.\Generated_Source\PSoC5/Filter_1.c **** *  void
 100:.\Generated_Source\PSoC5/Filter_1.c **** *
 101:.\Generated_Source\PSoC5/Filter_1.c **** *******************************************************************************/
 102:.\Generated_Source\PSoC5/Filter_1.c **** void Filter_1_Enable(void) 
 103:.\Generated_Source\PSoC5/Filter_1.c **** {
 150              		.loc 1 103 0
 151              		.cfi_startproc
 152              		@ args = 0, pretend = 0, frame = 0
 153              		@ frame_needed = 1, uses_anonymous_args = 0
 154              		@ link register save eliminated.
 155 0000 80B4     		push	{r7}
 156              	.LCFI2:
 157              		.cfi_def_cfa_offset 4
 158 0002 00AF     		add	r7, sp, #0
 159              		.cfi_offset 7, -4
 160              	.LCFI3:
 161              		.cfi_def_cfa_register 7
 104:.\Generated_Source\PSoC5/Filter_1.c ****     /* Power on DFB in Active mode */
 105:.\Generated_Source\PSoC5/Filter_1.c ****     Filter_1_PM_ACT_CFG_REG |= Filter_1_PM_ACT_MSK;
 162              		.loc 1 105 0
 163 0004 44F2A633 		movw	r3, #:lower16:1073759142
 164 0008 C4F20003 		movt	r3, #:upper16:1073759142
 165 000c 44F2A632 		movw	r2, #:lower16:1073759142
 166 0010 C4F20002 		movt	r2, #:upper16:1073759142
 167 0014 1278     		ldrb	r2, [r2, #0]
 168 0016 D2B2     		uxtb	r2, r2
 169 0018 42F01002 		orr	r2, r2, #16
 170 001c D2B2     		uxtb	r2, r2
 171 001e 1A70     		strb	r2, [r3, #0]
 106:.\Generated_Source\PSoC5/Filter_1.c ****         
 107:.\Generated_Source\PSoC5/Filter_1.c ****     /* Power on DFB in Alternative Active mode */
 108:.\Generated_Source\PSoC5/Filter_1.c ****     Filter_1_PM_STBY_CFG_REG |= Filter_1_PM_STBY_MSK;
 172              		.loc 1 108 0
 173 0020 44F2B633 		movw	r3, #:lower16:1073759158
ARM GAS  C:\DOCUME~1\ADMINI~1\LOCALS~1\Temp\cca9PUJ6.s 			page 6


 174 0024 C4F20003 		movt	r3, #:upper16:1073759158
 175 0028 44F2B632 		movw	r2, #:lower16:1073759158
 176 002c C4F20002 		movt	r2, #:upper16:1073759158
 177 0030 1278     		ldrb	r2, [r2, #0]
 178 0032 D2B2     		uxtb	r2, r2
 179 0034 42F01002 		orr	r2, r2, #16
 180 0038 D2B2     		uxtb	r2, r2
 181 003a 1A70     		strb	r2, [r3, #0]
 109:.\Generated_Source\PSoC5/Filter_1.c **** 
 110:.\Generated_Source\PSoC5/Filter_1.c ****     /* Turn on Run Bit */
 111:.\Generated_Source\PSoC5/Filter_1.c ****     Filter_1_CR_REG |= Filter_1_RUN_MASK;
 182              		.loc 1 111 0
 183 003c 4CF28073 		movw	r3, #:lower16:1073792896
 184 0040 C4F20003 		movt	r3, #:upper16:1073792896
 185 0044 4CF28072 		movw	r2, #:lower16:1073792896
 186 0048 C4F20002 		movt	r2, #:upper16:1073792896
 187 004c 1278     		ldrb	r2, [r2, #0]
 188 004e D2B2     		uxtb	r2, r2
 189 0050 42F00102 		orr	r2, r2, #1
 190 0054 D2B2     		uxtb	r2, r2
 191 0056 1A70     		strb	r2, [r3, #0]
 112:.\Generated_Source\PSoC5/Filter_1.c **** }
 192              		.loc 1 112 0
 193 0058 BD46     		mov	sp, r7
 194 005a 80BC     		pop	{r7}
 195 005c 7047     		bx	lr
 196              		.cfi_endproc
 197              	.LFE1:
 198              		.size	Filter_1_Enable, .-Filter_1_Enable
 199 005e 00BF     		.section	.text.Filter_1_Start,"ax",%progbits
 200              		.align	2
 201              		.global	Filter_1_Start
 202              		.thumb
 203              		.thumb_func
 204              		.type	Filter_1_Start, %function
 205              	Filter_1_Start:
 206              	.LFB2:
 113:.\Generated_Source\PSoC5/Filter_1.c **** 
 114:.\Generated_Source\PSoC5/Filter_1.c **** 
 115:.\Generated_Source\PSoC5/Filter_1.c **** /*******************************************************************************
 116:.\Generated_Source\PSoC5/Filter_1.c **** * Function Name: Filter_1_Start
 117:.\Generated_Source\PSoC5/Filter_1.c **** ********************************************************************************
 118:.\Generated_Source\PSoC5/Filter_1.c **** *
 119:.\Generated_Source\PSoC5/Filter_1.c **** * Summary:
 120:.\Generated_Source\PSoC5/Filter_1.c **** *  This method does the prep work necessary to setup DFB.  This includes loading 
 121:.\Generated_Source\PSoC5/Filter_1.c **** *
 122:.\Generated_Source\PSoC5/Filter_1.c **** * Parameters:  
 123:.\Generated_Source\PSoC5/Filter_1.c **** *  void
 124:.\Generated_Source\PSoC5/Filter_1.c **** * 
 125:.\Generated_Source\PSoC5/Filter_1.c **** * Return: 
 126:.\Generated_Source\PSoC5/Filter_1.c **** *  void
 127:.\Generated_Source\PSoC5/Filter_1.c **** *
 128:.\Generated_Source\PSoC5/Filter_1.c **** * Global variables:
 129:.\Generated_Source\PSoC5/Filter_1.c **** *  Filter_1_initVar:  Used to check the initial configuration,
 130:.\Generated_Source\PSoC5/Filter_1.c **** *  modified when this function is called for the first time.
 131:.\Generated_Source\PSoC5/Filter_1.c **** *
 132:.\Generated_Source\PSoC5/Filter_1.c **** * Note: 
ARM GAS  C:\DOCUME~1\ADMINI~1\LOCALS~1\Temp\cca9PUJ6.s 			page 7


 133:.\Generated_Source\PSoC5/Filter_1.c **** *  Use Filter_1_InterruptConfig to control which events trigger 
 134:.\Generated_Source\PSoC5/Filter_1.c **** *  interrupts in the DFB. 
 135:.\Generated_Source\PSoC5/Filter_1.c **** *
 136:.\Generated_Source\PSoC5/Filter_1.c **** *******************************************************************************/
 137:.\Generated_Source\PSoC5/Filter_1.c **** void Filter_1_Start() 
 138:.\Generated_Source\PSoC5/Filter_1.c **** {
 207              		.loc 1 138 0
 208              		.cfi_startproc
 209              		@ args = 0, pretend = 0, frame = 0
 210              		@ frame_needed = 1, uses_anonymous_args = 0
 211 0000 80B5     		push	{r7, lr}
 212              	.LCFI4:
 213              		.cfi_def_cfa_offset 8
 214 0002 00AF     		add	r7, sp, #0
 215              		.cfi_offset 14, -4
 216              		.cfi_offset 7, -8
 217              	.LCFI5:
 218              		.cfi_def_cfa_register 7
 139:.\Generated_Source\PSoC5/Filter_1.c ****      /* If not Initialized then initialize all required hardware and software */
 140:.\Generated_Source\PSoC5/Filter_1.c ****     if(Filter_1_initVar == 0u)
 219              		.loc 1 140 0
 220 0004 40F20003 		movw	r3, #:lower16:Filter_1_initVar
 221 0008 C0F20003 		movt	r3, #:upper16:Filter_1_initVar
 222 000c 1B78     		ldrb	r3, [r3, #0]	@ zero_extendqisi2
 223 000e 002B     		cmp	r3, #0
 224 0010 08D1     		bne	.L6
 141:.\Generated_Source\PSoC5/Filter_1.c ****     {
 142:.\Generated_Source\PSoC5/Filter_1.c ****         Filter_1_Init();
 225              		.loc 1 142 0
 226 0012 FFF7FEFF 		bl	Filter_1_Init
 143:.\Generated_Source\PSoC5/Filter_1.c ****         Filter_1_initVar = 1u;
 227              		.loc 1 143 0
 228 0016 40F20003 		movw	r3, #:lower16:Filter_1_initVar
 229 001a C0F20003 		movt	r3, #:upper16:Filter_1_initVar
 230 001e 4FF00102 		mov	r2, #1
 231 0022 1A70     		strb	r2, [r3, #0]
 232              	.L6:
 144:.\Generated_Source\PSoC5/Filter_1.c ****     }
 145:.\Generated_Source\PSoC5/Filter_1.c **** 
 146:.\Generated_Source\PSoC5/Filter_1.c ****     /* Enable the DFB block */
 147:.\Generated_Source\PSoC5/Filter_1.c ****     Filter_1_Enable();
 233              		.loc 1 147 0
 234 0024 FFF7FEFF 		bl	Filter_1_Enable
 148:.\Generated_Source\PSoC5/Filter_1.c **** }
 235              		.loc 1 148 0
 236 0028 80BD     		pop	{r7, pc}
 237              		.cfi_endproc
 238              	.LFE2:
 239              		.size	Filter_1_Start, .-Filter_1_Start
 240 002a 00BF     		.section	.text.Filter_1_Stop,"ax",%progbits
 241              		.align	2
 242              		.global	Filter_1_Stop
 243              		.thumb
 244              		.thumb_func
 245              		.type	Filter_1_Stop, %function
 246              	Filter_1_Stop:
 247              	.LFB3:
ARM GAS  C:\DOCUME~1\ADMINI~1\LOCALS~1\Temp\cca9PUJ6.s 			page 8


 149:.\Generated_Source\PSoC5/Filter_1.c **** 
 150:.\Generated_Source\PSoC5/Filter_1.c **** 
 151:.\Generated_Source\PSoC5/Filter_1.c **** /*******************************************************************************
 152:.\Generated_Source\PSoC5/Filter_1.c **** * Function Name: Filter_1_Stop
 153:.\Generated_Source\PSoC5/Filter_1.c **** ********************************************************************************
 154:.\Generated_Source\PSoC5/Filter_1.c **** *
 155:.\Generated_Source\PSoC5/Filter_1.c **** * Summary:
 156:.\Generated_Source\PSoC5/Filter_1.c **** *  Turn off the run bit.  If DMA control is used to feed the channels, allow 
 157:.\Generated_Source\PSoC5/Filter_1.c **** *  arguments to turn one of the TD channels off. 
 158:.\Generated_Source\PSoC5/Filter_1.c **** *
 159:.\Generated_Source\PSoC5/Filter_1.c **** * Parameters:  
 160:.\Generated_Source\PSoC5/Filter_1.c **** *  void
 161:.\Generated_Source\PSoC5/Filter_1.c **** *
 162:.\Generated_Source\PSoC5/Filter_1.c **** * Return: 
 163:.\Generated_Source\PSoC5/Filter_1.c **** *  void
 164:.\Generated_Source\PSoC5/Filter_1.c **** *
 165:.\Generated_Source\PSoC5/Filter_1.c **** *******************************************************************************/
 166:.\Generated_Source\PSoC5/Filter_1.c **** void Filter_1_Stop() 
 167:.\Generated_Source\PSoC5/Filter_1.c **** {
 248              		.loc 1 167 0
 249              		.cfi_startproc
 250              		@ args = 0, pretend = 0, frame = 0
 251              		@ frame_needed = 1, uses_anonymous_args = 0
 252              		@ link register save eliminated.
 253 0000 80B4     		push	{r7}
 254              	.LCFI6:
 255              		.cfi_def_cfa_offset 4
 256 0002 00AF     		add	r7, sp, #0
 257              		.cfi_offset 7, -4
 258              	.LCFI7:
 259              		.cfi_def_cfa_register 7
 168:.\Generated_Source\PSoC5/Filter_1.c ****     Filter_1_CR_REG &= ~(Filter_1_RUN_MASK);
 260              		.loc 1 168 0
 261 0004 4CF28073 		movw	r3, #:lower16:1073792896
 262 0008 C4F20003 		movt	r3, #:upper16:1073792896
 263 000c 4CF28072 		movw	r2, #:lower16:1073792896
 264 0010 C4F20002 		movt	r2, #:upper16:1073792896
 265 0014 1278     		ldrb	r2, [r2, #0]
 266 0016 D2B2     		uxtb	r2, r2
 267 0018 02F0FE02 		and	r2, r2, #254
 268 001c 1A70     		strb	r2, [r3, #0]
 169:.\Generated_Source\PSoC5/Filter_1.c **** 
 170:.\Generated_Source\PSoC5/Filter_1.c ****     /* Power off DFB in Active mode */
 171:.\Generated_Source\PSoC5/Filter_1.c ****     Filter_1_PM_ACT_CFG_REG &= ~Filter_1_PM_ACT_MSK;
 269              		.loc 1 171 0
 270 001e 44F2A633 		movw	r3, #:lower16:1073759142
 271 0022 C4F20003 		movt	r3, #:upper16:1073759142
 272 0026 44F2A632 		movw	r2, #:lower16:1073759142
 273 002a C4F20002 		movt	r2, #:upper16:1073759142
 274 002e 1278     		ldrb	r2, [r2, #0]
 275 0030 D2B2     		uxtb	r2, r2
 276 0032 02F0EF02 		and	r2, r2, #239
 277 0036 1A70     		strb	r2, [r3, #0]
 172:.\Generated_Source\PSoC5/Filter_1.c ****     
 173:.\Generated_Source\PSoC5/Filter_1.c ****     /* Power off DFB in Alternative Active mode */
 174:.\Generated_Source\PSoC5/Filter_1.c ****     Filter_1_PM_STBY_CFG_REG &= ~Filter_1_PM_STBY_MSK;
 278              		.loc 1 174 0
ARM GAS  C:\DOCUME~1\ADMINI~1\LOCALS~1\Temp\cca9PUJ6.s 			page 9


 279 0038 44F2B633 		movw	r3, #:lower16:1073759158
 280 003c C4F20003 		movt	r3, #:upper16:1073759158
 281 0040 44F2B632 		movw	r2, #:lower16:1073759158
 282 0044 C4F20002 		movt	r2, #:upper16:1073759158
 283 0048 1278     		ldrb	r2, [r2, #0]
 284 004a D2B2     		uxtb	r2, r2
 285 004c 02F0EF02 		and	r2, r2, #239
 286 0050 1A70     		strb	r2, [r3, #0]
 175:.\Generated_Source\PSoC5/Filter_1.c **** }
 287              		.loc 1 175 0
 288 0052 BD46     		mov	sp, r7
 289 0054 80BC     		pop	{r7}
 290 0056 7047     		bx	lr
 291              		.cfi_endproc
 292              	.LFE3:
 293              		.size	Filter_1_Stop, .-Filter_1_Stop
 294              		.section	.text.Filter_1_Read8,"ax",%progbits
 295              		.align	2
 296              		.global	Filter_1_Read8
 297              		.thumb
 298              		.thumb_func
 299              		.type	Filter_1_Read8, %function
 300              	Filter_1_Read8:
 301              	.LFB4:
 176:.\Generated_Source\PSoC5/Filter_1.c **** 
 177:.\Generated_Source\PSoC5/Filter_1.c **** 
 178:.\Generated_Source\PSoC5/Filter_1.c **** /*******************************************************************************
 179:.\Generated_Source\PSoC5/Filter_1.c **** * Function Name: Filter_1_Read8
 180:.\Generated_Source\PSoC5/Filter_1.c **** ********************************************************************************
 181:.\Generated_Source\PSoC5/Filter_1.c **** *
 182:.\Generated_Source\PSoC5/Filter_1.c **** * Summary:
 183:.\Generated_Source\PSoC5/Filter_1.c **** *  Get the value in one of the DFB Output Holding Registers 
 184:.\Generated_Source\PSoC5/Filter_1.c **** *
 185:.\Generated_Source\PSoC5/Filter_1.c **** * Parameters:  
 186:.\Generated_Source\PSoC5/Filter_1.c **** *  channel:  Filter_1_CHANNEL_A or Filter_1_CHANNEL_B
 187:.\Generated_Source\PSoC5/Filter_1.c **** *            
 188:.\Generated_Source\PSoC5/Filter_1.c **** * Return: 
 189:.\Generated_Source\PSoC5/Filter_1.c **** *  The most significant 8 bits of the current output value sitting in the 
 190:.\Generated_Source\PSoC5/Filter_1.c **** *  selected channel's holding register or 0x00 for invalid channel numbers.
 191:.\Generated_Source\PSoC5/Filter_1.c **** *
 192:.\Generated_Source\PSoC5/Filter_1.c **** *******************************************************************************/
 193:.\Generated_Source\PSoC5/Filter_1.c **** uint8 Filter_1_Read8(uint8 channel) 
 194:.\Generated_Source\PSoC5/Filter_1.c **** {
 302              		.loc 1 194 0
 303              		.cfi_startproc
 304              		@ args = 0, pretend = 0, frame = 16
 305              		@ frame_needed = 1, uses_anonymous_args = 0
 306              		@ link register save eliminated.
 307 0000 80B4     		push	{r7}
 308              	.LCFI8:
 309              		.cfi_def_cfa_offset 4
 310 0002 85B0     		sub	sp, sp, #20
 311              	.LCFI9:
 312              		.cfi_def_cfa_offset 24
 313 0004 00AF     		add	r7, sp, #0
 314              		.cfi_offset 7, -4
 315              	.LCFI10:
ARM GAS  C:\DOCUME~1\ADMINI~1\LOCALS~1\Temp\cca9PUJ6.s 			page 10


 316              		.cfi_def_cfa_register 7
 317 0006 0346     		mov	r3, r0
 318 0008 FB71     		strb	r3, [r7, #7]
 195:.\Generated_Source\PSoC5/Filter_1.c ****     uint8 value;
 196:.\Generated_Source\PSoC5/Filter_1.c **** 
 197:.\Generated_Source\PSoC5/Filter_1.c ****     if (channel == Filter_1_CHANNEL_A)
 319              		.loc 1 197 0
 320 000a FB79     		ldrb	r3, [r7, #7]	@ zero_extendqisi2
 321 000c 002B     		cmp	r3, #0
 322 000e 06D1     		bne	.L11
 198:.\Generated_Source\PSoC5/Filter_1.c ****     {
 199:.\Generated_Source\PSoC5/Filter_1.c ****         value = Filter_1_HOLDAH_REG;
 323              		.loc 1 199 0
 324 0010 4CF2AA73 		movw	r3, #:lower16:1073792938
 325 0014 C4F20003 		movt	r3, #:upper16:1073792938
 326 0018 1B78     		ldrb	r3, [r3, #0]
 327 001a FB73     		strb	r3, [r7, #15]
 328 001c 0CE0     		b	.L12
 329              	.L11:
 200:.\Generated_Source\PSoC5/Filter_1.c ****     }
 201:.\Generated_Source\PSoC5/Filter_1.c ****     else if (channel == Filter_1_CHANNEL_B)
 330              		.loc 1 201 0
 331 001e FB79     		ldrb	r3, [r7, #7]	@ zero_extendqisi2
 332 0020 012B     		cmp	r3, #1
 333 0022 06D1     		bne	.L13
 202:.\Generated_Source\PSoC5/Filter_1.c ****     {
 203:.\Generated_Source\PSoC5/Filter_1.c ****         value = Filter_1_HOLDBH_REG;
 334              		.loc 1 203 0
 335 0024 4CF2AE73 		movw	r3, #:lower16:1073792942
 336 0028 C4F20003 		movt	r3, #:upper16:1073792942
 337 002c 1B78     		ldrb	r3, [r3, #0]
 338 002e FB73     		strb	r3, [r7, #15]
 339 0030 02E0     		b	.L12
 340              	.L13:
 204:.\Generated_Source\PSoC5/Filter_1.c ****     }
 205:.\Generated_Source\PSoC5/Filter_1.c ****     else
 206:.\Generated_Source\PSoC5/Filter_1.c ****     {
 207:.\Generated_Source\PSoC5/Filter_1.c ****         value = 0x0u;
 341              		.loc 1 207 0
 342 0032 4FF00003 		mov	r3, #0
 343 0036 FB73     		strb	r3, [r7, #15]
 344              	.L12:
 208:.\Generated_Source\PSoC5/Filter_1.c ****     }
 209:.\Generated_Source\PSoC5/Filter_1.c ****     return value;
 345              		.loc 1 209 0
 346 0038 FB7B     		ldrb	r3, [r7, #15]	@ zero_extendqisi2
 210:.\Generated_Source\PSoC5/Filter_1.c **** }
 347              		.loc 1 210 0
 348 003a 1846     		mov	r0, r3
 349 003c 07F11407 		add	r7, r7, #20
 350 0040 BD46     		mov	sp, r7
 351 0042 80BC     		pop	{r7}
 352 0044 7047     		bx	lr
 353              		.cfi_endproc
 354              	.LFE4:
 355              		.size	Filter_1_Read8, .-Filter_1_Read8
 356 0046 00BF     		.section	.text.Filter_1_Read16,"ax",%progbits
ARM GAS  C:\DOCUME~1\ADMINI~1\LOCALS~1\Temp\cca9PUJ6.s 			page 11


 357              		.align	2
 358              		.global	Filter_1_Read16
 359              		.thumb
 360              		.thumb_func
 361              		.type	Filter_1_Read16, %function
 362              	Filter_1_Read16:
 363              	.LFB5:
 211:.\Generated_Source\PSoC5/Filter_1.c **** 
 212:.\Generated_Source\PSoC5/Filter_1.c **** 
 213:.\Generated_Source\PSoC5/Filter_1.c **** /*******************************************************************************
 214:.\Generated_Source\PSoC5/Filter_1.c **** * Function Name: Filter_1_Read16
 215:.\Generated_Source\PSoC5/Filter_1.c **** ********************************************************************************
 216:.\Generated_Source\PSoC5/Filter_1.c **** *
 217:.\Generated_Source\PSoC5/Filter_1.c **** * Summary:
 218:.\Generated_Source\PSoC5/Filter_1.c **** *  Get the value in one of the DFB Output Holding Registers 
 219:.\Generated_Source\PSoC5/Filter_1.c **** *
 220:.\Generated_Source\PSoC5/Filter_1.c **** * Parameters:  
 221:.\Generated_Source\PSoC5/Filter_1.c **** *  channel:  Filter_1_CHANNEL_A or Filter_1_CHANNEL_B
 222:.\Generated_Source\PSoC5/Filter_1.c **** *            
 223:.\Generated_Source\PSoC5/Filter_1.c **** * Return: 
 224:.\Generated_Source\PSoC5/Filter_1.c **** *  The most significant 16 bits of the current output value sitting in the 
 225:.\Generated_Source\PSoC5/Filter_1.c **** *  selected channel's holding register or 0x0000 for invalid channel numbers
 226:.\Generated_Source\PSoC5/Filter_1.c **** *
 227:.\Generated_Source\PSoC5/Filter_1.c **** * Note:
 228:.\Generated_Source\PSoC5/Filter_1.c **** *  Order of the read is important.  On the read of the high byte, the DFB clears
 229:.\Generated_Source\PSoC5/Filter_1.c **** *  the data ready bit.
 230:.\Generated_Source\PSoC5/Filter_1.c **** *
 231:.\Generated_Source\PSoC5/Filter_1.c **** *******************************************************************************/
 232:.\Generated_Source\PSoC5/Filter_1.c **** #if defined(__C51__) || defined(__CX51__) 
 233:.\Generated_Source\PSoC5/Filter_1.c **** 
 234:.\Generated_Source\PSoC5/Filter_1.c ****     uint16 Filter_1_Read16(uint8 channel) 
 235:.\Generated_Source\PSoC5/Filter_1.c ****     {
 236:.\Generated_Source\PSoC5/Filter_1.c ****         uint16 val;
 237:.\Generated_Source\PSoC5/Filter_1.c ****     
 238:.\Generated_Source\PSoC5/Filter_1.c ****         if (channel == Filter_1_CHANNEL_A)
 239:.\Generated_Source\PSoC5/Filter_1.c ****         {        
 240:.\Generated_Source\PSoC5/Filter_1.c ****             val = Filter_1_HOLDAM_REG;
 241:.\Generated_Source\PSoC5/Filter_1.c ****             val |= (uint16)(Filter_1_HOLDAH_REG) << 8;
 242:.\Generated_Source\PSoC5/Filter_1.c ****         }
 243:.\Generated_Source\PSoC5/Filter_1.c ****         else if (channel == Filter_1_CHANNEL_B)
 244:.\Generated_Source\PSoC5/Filter_1.c ****         {      
 245:.\Generated_Source\PSoC5/Filter_1.c ****             val = Filter_1_HOLDBM_REG;
 246:.\Generated_Source\PSoC5/Filter_1.c ****             val |= (uint16)Filter_1_HOLDBH_REG << 8;
 247:.\Generated_Source\PSoC5/Filter_1.c ****         }
 248:.\Generated_Source\PSoC5/Filter_1.c ****         else
 249:.\Generated_Source\PSoC5/Filter_1.c ****         {
 250:.\Generated_Source\PSoC5/Filter_1.c ****             val = 0x0u;
 251:.\Generated_Source\PSoC5/Filter_1.c ****         }
 252:.\Generated_Source\PSoC5/Filter_1.c ****         return val;
 253:.\Generated_Source\PSoC5/Filter_1.c ****     }
 254:.\Generated_Source\PSoC5/Filter_1.c **** 
 255:.\Generated_Source\PSoC5/Filter_1.c **** #else
 256:.\Generated_Source\PSoC5/Filter_1.c **** 
 257:.\Generated_Source\PSoC5/Filter_1.c ****     uint16 Filter_1_Read16(uint8 channel) 
 258:.\Generated_Source\PSoC5/Filter_1.c ****     {
 364              		.loc 1 258 0
 365              		.cfi_startproc
ARM GAS  C:\DOCUME~1\ADMINI~1\LOCALS~1\Temp\cca9PUJ6.s 			page 12


 366              		@ args = 0, pretend = 0, frame = 16
 367              		@ frame_needed = 1, uses_anonymous_args = 0
 368              		@ link register save eliminated.
 369 0000 80B4     		push	{r7}
 370              	.LCFI11:
 371              		.cfi_def_cfa_offset 4
 372 0002 85B0     		sub	sp, sp, #20
 373              	.LCFI12:
 374              		.cfi_def_cfa_offset 24
 375 0004 00AF     		add	r7, sp, #0
 376              		.cfi_offset 7, -4
 377              	.LCFI13:
 378              		.cfi_def_cfa_register 7
 379 0006 0346     		mov	r3, r0
 380 0008 FB71     		strb	r3, [r7, #7]
 259:.\Generated_Source\PSoC5/Filter_1.c ****         uint16 val;
 260:.\Generated_Source\PSoC5/Filter_1.c **** 
 261:.\Generated_Source\PSoC5/Filter_1.c ****         if (channel == Filter_1_CHANNEL_A)
 381              		.loc 1 261 0
 382 000a FB79     		ldrb	r3, [r7, #7]	@ zero_extendqisi2
 383 000c 002B     		cmp	r3, #0
 384 000e 06D1     		bne	.L16
 262:.\Generated_Source\PSoC5/Filter_1.c ****         {        
 263:.\Generated_Source\PSoC5/Filter_1.c ****             val = Filter_1_HOLDA16_REG;
 385              		.loc 1 263 0
 386 0010 4CF2A973 		movw	r3, #:lower16:1073792937
 387 0014 C4F20003 		movt	r3, #:upper16:1073792937
 388 0018 1B88     		ldrh	r3, [r3, #0]	@ movhi
 389 001a FB81     		strh	r3, [r7, #14]	@ movhi
 390 001c 0CE0     		b	.L17
 391              	.L16:
 264:.\Generated_Source\PSoC5/Filter_1.c ****         }
 265:.\Generated_Source\PSoC5/Filter_1.c ****         else if (channel == Filter_1_CHANNEL_B)
 392              		.loc 1 265 0
 393 001e FB79     		ldrb	r3, [r7, #7]	@ zero_extendqisi2
 394 0020 012B     		cmp	r3, #1
 395 0022 06D1     		bne	.L18
 266:.\Generated_Source\PSoC5/Filter_1.c ****         {      
 267:.\Generated_Source\PSoC5/Filter_1.c ****             val = Filter_1_HOLDB16_REG;
 396              		.loc 1 267 0
 397 0024 4CF2AD73 		movw	r3, #:lower16:1073792941
 398 0028 C4F20003 		movt	r3, #:upper16:1073792941
 399 002c 1B88     		ldrh	r3, [r3, #0]	@ movhi
 400 002e FB81     		strh	r3, [r7, #14]	@ movhi
 401 0030 02E0     		b	.L17
 402              	.L18:
 268:.\Generated_Source\PSoC5/Filter_1.c ****         }
 269:.\Generated_Source\PSoC5/Filter_1.c ****         else
 270:.\Generated_Source\PSoC5/Filter_1.c ****         {
 271:.\Generated_Source\PSoC5/Filter_1.c ****             val = 0x0u;
 403              		.loc 1 271 0
 404 0032 4FF00003 		mov	r3, #0
 405 0036 FB81     		strh	r3, [r7, #14]	@ movhi
 406              	.L17:
 272:.\Generated_Source\PSoC5/Filter_1.c ****         }
 273:.\Generated_Source\PSoC5/Filter_1.c ****         return val;
 407              		.loc 1 273 0
ARM GAS  C:\DOCUME~1\ADMINI~1\LOCALS~1\Temp\cca9PUJ6.s 			page 13


 408 0038 FB89     		ldrh	r3, [r7, #14]
 274:.\Generated_Source\PSoC5/Filter_1.c ****     }
 409              		.loc 1 274 0
 410 003a 1846     		mov	r0, r3
 411 003c 07F11407 		add	r7, r7, #20
 412 0040 BD46     		mov	sp, r7
 413 0042 80BC     		pop	{r7}
 414 0044 7047     		bx	lr
 415              		.cfi_endproc
 416              	.LFE5:
 417              		.size	Filter_1_Read16, .-Filter_1_Read16
 418 0046 00BF     		.section	.text.Filter_1_Read24,"ax",%progbits
 419              		.align	2
 420              		.global	Filter_1_Read24
 421              		.thumb
 422              		.thumb_func
 423              		.type	Filter_1_Read24, %function
 424              	Filter_1_Read24:
 425              	.LFB6:
 275:.\Generated_Source\PSoC5/Filter_1.c **** 
 276:.\Generated_Source\PSoC5/Filter_1.c **** #endif /* defined(__C51__) || defined(__CX51__) */
 277:.\Generated_Source\PSoC5/Filter_1.c **** 
 278:.\Generated_Source\PSoC5/Filter_1.c **** 
 279:.\Generated_Source\PSoC5/Filter_1.c **** /*******************************************************************************
 280:.\Generated_Source\PSoC5/Filter_1.c **** * Function Name: Filter_1_Read24
 281:.\Generated_Source\PSoC5/Filter_1.c **** ********************************************************************************
 282:.\Generated_Source\PSoC5/Filter_1.c **** *
 283:.\Generated_Source\PSoC5/Filter_1.c **** * Summary:
 284:.\Generated_Source\PSoC5/Filter_1.c **** *  Get the value in one of the DFB Output Holding Registers 
 285:.\Generated_Source\PSoC5/Filter_1.c **** *
 286:.\Generated_Source\PSoC5/Filter_1.c **** * Parameters:  
 287:.\Generated_Source\PSoC5/Filter_1.c **** *  channel:  Filter_1_CHANNEL_A or Filter_1_CHANNEL_B
 288:.\Generated_Source\PSoC5/Filter_1.c **** *            
 289:.\Generated_Source\PSoC5/Filter_1.c **** * Return: 
 290:.\Generated_Source\PSoC5/Filter_1.c **** *  The current 24-bit output value sitting in the selected channel's
 291:.\Generated_Source\PSoC5/Filter_1.c **** *  holding register or 0x00000000 for invalid channel numbers
 292:.\Generated_Source\PSoC5/Filter_1.c **** *
 293:.\Generated_Source\PSoC5/Filter_1.c **** * Note:
 294:.\Generated_Source\PSoC5/Filter_1.c **** *  Order of the read is important.  On the read of the high byte, the DFB clears
 295:.\Generated_Source\PSoC5/Filter_1.c **** *  the data ready bit.
 296:.\Generated_Source\PSoC5/Filter_1.c **** *
 297:.\Generated_Source\PSoC5/Filter_1.c **** *******************************************************************************/
 298:.\Generated_Source\PSoC5/Filter_1.c **** #if defined(__C51__) || defined(__CX51__)
 299:.\Generated_Source\PSoC5/Filter_1.c **** 
 300:.\Generated_Source\PSoC5/Filter_1.c ****     uint32 Filter_1_Read24(uint8 channel) 
 301:.\Generated_Source\PSoC5/Filter_1.c ****     {
 302:.\Generated_Source\PSoC5/Filter_1.c ****         uint32 val;
 303:.\Generated_Source\PSoC5/Filter_1.c ****     
 304:.\Generated_Source\PSoC5/Filter_1.c ****         if (channel == Filter_1_CHANNEL_A)
 305:.\Generated_Source\PSoC5/Filter_1.c ****         {        
 306:.\Generated_Source\PSoC5/Filter_1.c ****             val = Filter_1_HOLDA_REG;
 307:.\Generated_Source\PSoC5/Filter_1.c ****             val |= (uint32)(Filter_1_HOLDAM_REG) << 8;
 308:.\Generated_Source\PSoC5/Filter_1.c ****             val |= (uint32)(Filter_1_HOLDAH_REG) << 16;
 309:.\Generated_Source\PSoC5/Filter_1.c ****             
 310:.\Generated_Source\PSoC5/Filter_1.c ****             /* SignExtend */
 311:.\Generated_Source\PSoC5/Filter_1.c ****             if(val & Filter_1_SIGN_BIT)
 312:.\Generated_Source\PSoC5/Filter_1.c ****                 val |= Filter_1_SIGN_BYTE;
ARM GAS  C:\DOCUME~1\ADMINI~1\LOCALS~1\Temp\cca9PUJ6.s 			page 14


 313:.\Generated_Source\PSoC5/Filter_1.c ****         }
 314:.\Generated_Source\PSoC5/Filter_1.c ****         else if (channel == Filter_1_CHANNEL_B)
 315:.\Generated_Source\PSoC5/Filter_1.c ****         {      
 316:.\Generated_Source\PSoC5/Filter_1.c ****             val = Filter_1_HOLDB_REG;
 317:.\Generated_Source\PSoC5/Filter_1.c ****             val |= (uint32)Filter_1_HOLDBM_REG << 8;
 318:.\Generated_Source\PSoC5/Filter_1.c ****             val |= (uint32)Filter_1_HOLDBH_REG << 16;
 319:.\Generated_Source\PSoC5/Filter_1.c ****             
 320:.\Generated_Source\PSoC5/Filter_1.c ****             /* SignExtend */
 321:.\Generated_Source\PSoC5/Filter_1.c ****             if(val & Filter_1_SIGN_BIT)
 322:.\Generated_Source\PSoC5/Filter_1.c ****                 val |= Filter_1_SIGN_BYTE;
 323:.\Generated_Source\PSoC5/Filter_1.c ****         }
 324:.\Generated_Source\PSoC5/Filter_1.c ****         else
 325:.\Generated_Source\PSoC5/Filter_1.c ****         {
 326:.\Generated_Source\PSoC5/Filter_1.c ****             val = 0x0u;
 327:.\Generated_Source\PSoC5/Filter_1.c ****         }
 328:.\Generated_Source\PSoC5/Filter_1.c ****         return val;
 329:.\Generated_Source\PSoC5/Filter_1.c ****     }
 330:.\Generated_Source\PSoC5/Filter_1.c **** 
 331:.\Generated_Source\PSoC5/Filter_1.c **** #else
 332:.\Generated_Source\PSoC5/Filter_1.c **** 
 333:.\Generated_Source\PSoC5/Filter_1.c ****     uint32 Filter_1_Read24(uint8 channel) 
 334:.\Generated_Source\PSoC5/Filter_1.c ****     {
 426              		.loc 1 334 0
 427              		.cfi_startproc
 428              		@ args = 0, pretend = 0, frame = 16
 429              		@ frame_needed = 1, uses_anonymous_args = 0
 430              		@ link register save eliminated.
 431 0000 80B4     		push	{r7}
 432              	.LCFI14:
 433              		.cfi_def_cfa_offset 4
 434 0002 85B0     		sub	sp, sp, #20
 435              	.LCFI15:
 436              		.cfi_def_cfa_offset 24
 437 0004 00AF     		add	r7, sp, #0
 438              		.cfi_offset 7, -4
 439              	.LCFI16:
 440              		.cfi_def_cfa_register 7
 441 0006 0346     		mov	r3, r0
 442 0008 FB71     		strb	r3, [r7, #7]
 335:.\Generated_Source\PSoC5/Filter_1.c ****         uint32 val;
 336:.\Generated_Source\PSoC5/Filter_1.c ****          
 337:.\Generated_Source\PSoC5/Filter_1.c ****         if (channel == Filter_1_CHANNEL_A)
 443              		.loc 1 337 0
 444 000a FB79     		ldrb	r3, [r7, #7]	@ zero_extendqisi2
 445 000c 002B     		cmp	r3, #0
 446 000e 06D1     		bne	.L21
 338:.\Generated_Source\PSoC5/Filter_1.c ****         {        
 339:.\Generated_Source\PSoC5/Filter_1.c ****             val = Filter_1_HOLDA24_REG;
 447              		.loc 1 339 0
 448 0010 4CF2A873 		movw	r3, #:lower16:1073792936
 449 0014 C4F20003 		movt	r3, #:upper16:1073792936
 450 0018 1B68     		ldr	r3, [r3, #0]
 451 001a FB60     		str	r3, [r7, #12]
 452 001c 0CE0     		b	.L22
 453              	.L21:
 340:.\Generated_Source\PSoC5/Filter_1.c ****         }
 341:.\Generated_Source\PSoC5/Filter_1.c ****         else if (channel == Filter_1_CHANNEL_B)
ARM GAS  C:\DOCUME~1\ADMINI~1\LOCALS~1\Temp\cca9PUJ6.s 			page 15


 454              		.loc 1 341 0
 455 001e FB79     		ldrb	r3, [r7, #7]	@ zero_extendqisi2
 456 0020 012B     		cmp	r3, #1
 457 0022 06D1     		bne	.L23
 342:.\Generated_Source\PSoC5/Filter_1.c ****         {      
 343:.\Generated_Source\PSoC5/Filter_1.c ****             val = Filter_1_HOLDB24_REG;
 458              		.loc 1 343 0
 459 0024 4CF2AC73 		movw	r3, #:lower16:1073792940
 460 0028 C4F20003 		movt	r3, #:upper16:1073792940
 461 002c 1B68     		ldr	r3, [r3, #0]
 462 002e FB60     		str	r3, [r7, #12]
 463 0030 02E0     		b	.L22
 464              	.L23:
 344:.\Generated_Source\PSoC5/Filter_1.c ****         }
 345:.\Generated_Source\PSoC5/Filter_1.c ****         else
 346:.\Generated_Source\PSoC5/Filter_1.c ****         {
 347:.\Generated_Source\PSoC5/Filter_1.c ****             val = 0x0u;
 465              		.loc 1 347 0
 466 0032 4FF00003 		mov	r3, #0
 467 0036 FB60     		str	r3, [r7, #12]
 468              	.L22:
 348:.\Generated_Source\PSoC5/Filter_1.c ****         }
 349:.\Generated_Source\PSoC5/Filter_1.c ****         return val;
 469              		.loc 1 349 0
 470 0038 FB68     		ldr	r3, [r7, #12]
 350:.\Generated_Source\PSoC5/Filter_1.c ****     }
 471              		.loc 1 350 0
 472 003a 1846     		mov	r0, r3
 473 003c 07F11407 		add	r7, r7, #20
 474 0040 BD46     		mov	sp, r7
 475 0042 80BC     		pop	{r7}
 476 0044 7047     		bx	lr
 477              		.cfi_endproc
 478              	.LFE6:
 479              		.size	Filter_1_Read24, .-Filter_1_Read24
 480 0046 00BF     		.section	.text.Filter_1_Write8,"ax",%progbits
 481              		.align	2
 482              		.global	Filter_1_Write8
 483              		.thumb
 484              		.thumb_func
 485              		.type	Filter_1_Write8, %function
 486              	Filter_1_Write8:
 487              	.LFB7:
 351:.\Generated_Source\PSoC5/Filter_1.c **** 
 352:.\Generated_Source\PSoC5/Filter_1.c **** #endif /* defined(__C51__) || defined(__CX51__) */
 353:.\Generated_Source\PSoC5/Filter_1.c **** 
 354:.\Generated_Source\PSoC5/Filter_1.c **** 
 355:.\Generated_Source\PSoC5/Filter_1.c **** /*******************************************************************************
 356:.\Generated_Source\PSoC5/Filter_1.c **** * Function Name: Filter_1_Write8
 357:.\Generated_Source\PSoC5/Filter_1.c **** ********************************************************************************
 358:.\Generated_Source\PSoC5/Filter_1.c **** *
 359:.\Generated_Source\PSoC5/Filter_1.c **** * Summary:
 360:.\Generated_Source\PSoC5/Filter_1.c **** *  Set the value in one of the DFB Input Staging Registers 
 361:.\Generated_Source\PSoC5/Filter_1.c **** *
 362:.\Generated_Source\PSoC5/Filter_1.c **** * Parameters:  
 363:.\Generated_Source\PSoC5/Filter_1.c **** *  channel:  Use either Filter_1_CHANNEL_A or 
 364:.\Generated_Source\PSoC5/Filter_1.c **** *            Filter_1_CHANNEL_B as arguments to the function.  
ARM GAS  C:\DOCUME~1\ADMINI~1\LOCALS~1\Temp\cca9PUJ6.s 			page 16


 365:.\Generated_Source\PSoC5/Filter_1.c **** *  sample:   The 8-bit, right justified input sample. 
 366:.\Generated_Source\PSoC5/Filter_1.c **** *
 367:.\Generated_Source\PSoC5/Filter_1.c **** * Return: 
 368:.\Generated_Source\PSoC5/Filter_1.c **** *  void
 369:.\Generated_Source\PSoC5/Filter_1.c **** *
 370:.\Generated_Source\PSoC5/Filter_1.c **** * Note:
 371:.\Generated_Source\PSoC5/Filter_1.c **** *  Order of the write is important.  On the load of the high byte, the DFB sets
 372:.\Generated_Source\PSoC5/Filter_1.c **** *  the input ready bit.
 373:.\Generated_Source\PSoC5/Filter_1.c **** *
 374:.\Generated_Source\PSoC5/Filter_1.c **** *******************************************************************************/
 375:.\Generated_Source\PSoC5/Filter_1.c **** void Filter_1_Write8(uint8 channel, uint8 sample) 
 376:.\Generated_Source\PSoC5/Filter_1.c **** {
 488              		.loc 1 376 0
 489              		.cfi_startproc
 490              		@ args = 0, pretend = 0, frame = 8
 491              		@ frame_needed = 1, uses_anonymous_args = 0
 492              		@ link register save eliminated.
 493 0000 80B4     		push	{r7}
 494              	.LCFI17:
 495              		.cfi_def_cfa_offset 4
 496 0002 83B0     		sub	sp, sp, #12
 497              	.LCFI18:
 498              		.cfi_def_cfa_offset 16
 499 0004 00AF     		add	r7, sp, #0
 500              		.cfi_offset 7, -4
 501              	.LCFI19:
 502              		.cfi_def_cfa_register 7
 503 0006 0246     		mov	r2, r0
 504 0008 0B46     		mov	r3, r1
 505 000a FA71     		strb	r2, [r7, #7]
 506 000c BB71     		strb	r3, [r7, #6]
 377:.\Generated_Source\PSoC5/Filter_1.c ****     if (channel == Filter_1_CHANNEL_A)
 507              		.loc 1 377 0
 508 000e FB79     		ldrb	r3, [r7, #7]	@ zero_extendqisi2
 509 0010 002B     		cmp	r3, #0
 510 0012 06D1     		bne	.L26
 378:.\Generated_Source\PSoC5/Filter_1.c ****     {
 379:.\Generated_Source\PSoC5/Filter_1.c ****         Filter_1_STAGEAH_REG = sample;
 511              		.loc 1 379 0
 512 0014 4CF2A273 		movw	r3, #:lower16:1073792930
 513 0018 C4F20003 		movt	r3, #:upper16:1073792930
 514 001c BA79     		ldrb	r2, [r7, #6]
 515 001e 1A70     		strb	r2, [r3, #0]
 516 0020 08E0     		b	.L28
 517              	.L26:
 380:.\Generated_Source\PSoC5/Filter_1.c ****     }
 381:.\Generated_Source\PSoC5/Filter_1.c ****     else if (channel == Filter_1_CHANNEL_B)
 518              		.loc 1 381 0
 519 0022 FB79     		ldrb	r3, [r7, #7]	@ zero_extendqisi2
 520 0024 012B     		cmp	r3, #1
 521 0026 05D1     		bne	.L28
 382:.\Generated_Source\PSoC5/Filter_1.c ****     {
 383:.\Generated_Source\PSoC5/Filter_1.c ****         Filter_1_STAGEBH_REG = sample;
 522              		.loc 1 383 0
 523 0028 4CF2A673 		movw	r3, #:lower16:1073792934
 524 002c C4F20003 		movt	r3, #:upper16:1073792934
 525 0030 BA79     		ldrb	r2, [r7, #6]
ARM GAS  C:\DOCUME~1\ADMINI~1\LOCALS~1\Temp\cca9PUJ6.s 			page 17


 526 0032 1A70     		strb	r2, [r3, #0]
 527              	.L28:
 384:.\Generated_Source\PSoC5/Filter_1.c ****     }
 385:.\Generated_Source\PSoC5/Filter_1.c ****     /* No Final else statement: No value is loaded on bad channel input */
 386:.\Generated_Source\PSoC5/Filter_1.c **** }
 528              		.loc 1 386 0
 529 0034 07F10C07 		add	r7, r7, #12
 530 0038 BD46     		mov	sp, r7
 531 003a 80BC     		pop	{r7}
 532 003c 7047     		bx	lr
 533              		.cfi_endproc
 534              	.LFE7:
 535              		.size	Filter_1_Write8, .-Filter_1_Write8
 536 003e 00BF     		.section	.text.Filter_1_Write16,"ax",%progbits
 537              		.align	2
 538              		.global	Filter_1_Write16
 539              		.thumb
 540              		.thumb_func
 541              		.type	Filter_1_Write16, %function
 542              	Filter_1_Write16:
 543              	.LFB8:
 387:.\Generated_Source\PSoC5/Filter_1.c **** 
 388:.\Generated_Source\PSoC5/Filter_1.c **** 
 389:.\Generated_Source\PSoC5/Filter_1.c **** /*******************************************************************************
 390:.\Generated_Source\PSoC5/Filter_1.c **** * Function Name: Filter_1_Write16
 391:.\Generated_Source\PSoC5/Filter_1.c **** ********************************************************************************
 392:.\Generated_Source\PSoC5/Filter_1.c **** *
 393:.\Generated_Source\PSoC5/Filter_1.c **** * Summary:
 394:.\Generated_Source\PSoC5/Filter_1.c **** *  Set the value in one of the DFB Input Staging Registers 
 395:.\Generated_Source\PSoC5/Filter_1.c **** *
 396:.\Generated_Source\PSoC5/Filter_1.c **** * Parameters:  
 397:.\Generated_Source\PSoC5/Filter_1.c **** *  channel:  Use either Filter_1_CHANNEL_A or 
 398:.\Generated_Source\PSoC5/Filter_1.c **** *            Filter_1_CHANNEL_B as arguments to the function.  
 399:.\Generated_Source\PSoC5/Filter_1.c **** *  sample:   The 16-bit, right justified input sample. 
 400:.\Generated_Source\PSoC5/Filter_1.c **** *
 401:.\Generated_Source\PSoC5/Filter_1.c **** * Return: 
 402:.\Generated_Source\PSoC5/Filter_1.c **** *  void
 403:.\Generated_Source\PSoC5/Filter_1.c **** *
 404:.\Generated_Source\PSoC5/Filter_1.c **** * Note:
 405:.\Generated_Source\PSoC5/Filter_1.c **** *  Order of the write is important.  On the load of the high byte, the DFB sets
 406:.\Generated_Source\PSoC5/Filter_1.c **** *  the input ready bit.
 407:.\Generated_Source\PSoC5/Filter_1.c **** *
 408:.\Generated_Source\PSoC5/Filter_1.c **** *******************************************************************************/
 409:.\Generated_Source\PSoC5/Filter_1.c **** #if defined(__C51__) || defined(__CX51__)
 410:.\Generated_Source\PSoC5/Filter_1.c **** 
 411:.\Generated_Source\PSoC5/Filter_1.c ****     void Filter_1_Write16(uint8 channel, uint16 sample) 
 412:.\Generated_Source\PSoC5/Filter_1.c ****     {
 413:.\Generated_Source\PSoC5/Filter_1.c ****         /* Write the STAGE MSB reg last as it signals a complete wrote to the 
 414:.\Generated_Source\PSoC5/Filter_1.c ****            DFB.*/
 415:.\Generated_Source\PSoC5/Filter_1.c ****         if (channel == Filter_1_CHANNEL_A)
 416:.\Generated_Source\PSoC5/Filter_1.c ****         {
 417:.\Generated_Source\PSoC5/Filter_1.c ****             Filter_1_STAGEAM_REG = (uint8)(sample);
 418:.\Generated_Source\PSoC5/Filter_1.c ****             Filter_1_STAGEAH_REG = (uint8)(sample >> 8 );
 419:.\Generated_Source\PSoC5/Filter_1.c ****         }
 420:.\Generated_Source\PSoC5/Filter_1.c ****         else if (channel == Filter_1_CHANNEL_B)
 421:.\Generated_Source\PSoC5/Filter_1.c ****         {
 422:.\Generated_Source\PSoC5/Filter_1.c ****             Filter_1_STAGEBM_REG = (uint8)(sample);
ARM GAS  C:\DOCUME~1\ADMINI~1\LOCALS~1\Temp\cca9PUJ6.s 			page 18


 423:.\Generated_Source\PSoC5/Filter_1.c ****             Filter_1_STAGEBH_REG = (uint8)(sample >> 8);
 424:.\Generated_Source\PSoC5/Filter_1.c ****         }
 425:.\Generated_Source\PSoC5/Filter_1.c ****         /* No Final else statement: No value is loaded on bad channel input */
 426:.\Generated_Source\PSoC5/Filter_1.c ****     }
 427:.\Generated_Source\PSoC5/Filter_1.c **** 
 428:.\Generated_Source\PSoC5/Filter_1.c **** #else
 429:.\Generated_Source\PSoC5/Filter_1.c **** 
 430:.\Generated_Source\PSoC5/Filter_1.c ****     void Filter_1_Write16(uint8 channel, uint16 sample) 
 431:.\Generated_Source\PSoC5/Filter_1.c ****     {
 544              		.loc 1 431 0
 545              		.cfi_startproc
 546              		@ args = 0, pretend = 0, frame = 8
 547              		@ frame_needed = 1, uses_anonymous_args = 0
 548              		@ link register save eliminated.
 549 0000 80B4     		push	{r7}
 550              	.LCFI20:
 551              		.cfi_def_cfa_offset 4
 552 0002 83B0     		sub	sp, sp, #12
 553              	.LCFI21:
 554              		.cfi_def_cfa_offset 16
 555 0004 00AF     		add	r7, sp, #0
 556              		.cfi_offset 7, -4
 557              	.LCFI22:
 558              		.cfi_def_cfa_register 7
 559 0006 0246     		mov	r2, r0
 560 0008 0B46     		mov	r3, r1
 561 000a FA71     		strb	r2, [r7, #7]
 562 000c BB80     		strh	r3, [r7, #4]	@ movhi
 432:.\Generated_Source\PSoC5/Filter_1.c ****         if (channel == Filter_1_CHANNEL_A)
 563              		.loc 1 432 0
 564 000e FB79     		ldrb	r3, [r7, #7]	@ zero_extendqisi2
 565 0010 002B     		cmp	r3, #0
 566 0012 06D1     		bne	.L30
 433:.\Generated_Source\PSoC5/Filter_1.c ****         {
 434:.\Generated_Source\PSoC5/Filter_1.c ****             Filter_1_STAGEA16_REG = sample;
 567              		.loc 1 434 0
 568 0014 4CF2A173 		movw	r3, #:lower16:1073792929
 569 0018 C4F20003 		movt	r3, #:upper16:1073792929
 570 001c BA88     		ldrh	r2, [r7, #4]	@ movhi
 571 001e 1A80     		strh	r2, [r3, #0]	@ movhi
 572 0020 08E0     		b	.L32
 573              	.L30:
 435:.\Generated_Source\PSoC5/Filter_1.c ****         }
 436:.\Generated_Source\PSoC5/Filter_1.c ****         else if (channel == Filter_1_CHANNEL_B)
 574              		.loc 1 436 0
 575 0022 FB79     		ldrb	r3, [r7, #7]	@ zero_extendqisi2
 576 0024 012B     		cmp	r3, #1
 577 0026 05D1     		bne	.L32
 437:.\Generated_Source\PSoC5/Filter_1.c ****         {
 438:.\Generated_Source\PSoC5/Filter_1.c ****             Filter_1_STAGEB16_REG = sample;
 578              		.loc 1 438 0
 579 0028 4CF2A573 		movw	r3, #:lower16:1073792933
 580 002c C4F20003 		movt	r3, #:upper16:1073792933
 581 0030 BA88     		ldrh	r2, [r7, #4]	@ movhi
 582 0032 1A80     		strh	r2, [r3, #0]	@ movhi
 583              	.L32:
 439:.\Generated_Source\PSoC5/Filter_1.c ****         }
ARM GAS  C:\DOCUME~1\ADMINI~1\LOCALS~1\Temp\cca9PUJ6.s 			page 19


 440:.\Generated_Source\PSoC5/Filter_1.c ****         /* No Final else statement: No value is loaded on bad channel input */
 441:.\Generated_Source\PSoC5/Filter_1.c ****     }
 584              		.loc 1 441 0
 585 0034 07F10C07 		add	r7, r7, #12
 586 0038 BD46     		mov	sp, r7
 587 003a 80BC     		pop	{r7}
 588 003c 7047     		bx	lr
 589              		.cfi_endproc
 590              	.LFE8:
 591              		.size	Filter_1_Write16, .-Filter_1_Write16
 592 003e 00BF     		.section	.text.Filter_1_Write24,"ax",%progbits
 593              		.align	2
 594              		.global	Filter_1_Write24
 595              		.thumb
 596              		.thumb_func
 597              		.type	Filter_1_Write24, %function
 598              	Filter_1_Write24:
 599              	.LFB9:
 442:.\Generated_Source\PSoC5/Filter_1.c **** 
 443:.\Generated_Source\PSoC5/Filter_1.c **** #endif /* defined(__C51__) || defined(__CX51__) */
 444:.\Generated_Source\PSoC5/Filter_1.c **** 
 445:.\Generated_Source\PSoC5/Filter_1.c **** 
 446:.\Generated_Source\PSoC5/Filter_1.c **** /*******************************************************************************
 447:.\Generated_Source\PSoC5/Filter_1.c **** * Function Name: Filter_1_Write24
 448:.\Generated_Source\PSoC5/Filter_1.c **** ********************************************************************************
 449:.\Generated_Source\PSoC5/Filter_1.c **** *
 450:.\Generated_Source\PSoC5/Filter_1.c **** * Summary:
 451:.\Generated_Source\PSoC5/Filter_1.c **** *  Set the value in one of the DFB Input Staging Registers 
 452:.\Generated_Source\PSoC5/Filter_1.c **** *
 453:.\Generated_Source\PSoC5/Filter_1.c **** * Parameters:  
 454:.\Generated_Source\PSoC5/Filter_1.c **** *  channel:  Use either Filter_1_CHANNEL_A or 
 455:.\Generated_Source\PSoC5/Filter_1.c **** *            Filter_1_CHANNEL_B as arguments to the function.  
 456:.\Generated_Source\PSoC5/Filter_1.c **** *  sample:   The 24-bit, right justified input sample inside of a uint32. 
 457:.\Generated_Source\PSoC5/Filter_1.c **** *
 458:.\Generated_Source\PSoC5/Filter_1.c **** * Return: 
 459:.\Generated_Source\PSoC5/Filter_1.c **** *  void
 460:.\Generated_Source\PSoC5/Filter_1.c **** *
 461:.\Generated_Source\PSoC5/Filter_1.c **** * Note:
 462:.\Generated_Source\PSoC5/Filter_1.c **** *  Order of the write is important.  On the load of the high byte, the DFB sets
 463:.\Generated_Source\PSoC5/Filter_1.c **** *  the input ready bit.
 464:.\Generated_Source\PSoC5/Filter_1.c **** *
 465:.\Generated_Source\PSoC5/Filter_1.c **** *******************************************************************************/
 466:.\Generated_Source\PSoC5/Filter_1.c **** #if defined(__C51__) || defined(__CX51__)
 467:.\Generated_Source\PSoC5/Filter_1.c **** 
 468:.\Generated_Source\PSoC5/Filter_1.c ****     void Filter_1_Write24(uint8 channel, uint32 sample) 
 469:.\Generated_Source\PSoC5/Filter_1.c ****     {
 470:.\Generated_Source\PSoC5/Filter_1.c ****         /* Write the STAGE LSB reg last as it signals a complete wrote to 
 471:.\Generated_Source\PSoC5/Filter_1.c ****            the DFB.*/
 472:.\Generated_Source\PSoC5/Filter_1.c ****         if (channel == Filter_1_CHANNEL_A)
 473:.\Generated_Source\PSoC5/Filter_1.c ****         {
 474:.\Generated_Source\PSoC5/Filter_1.c ****             Filter_1_STAGEA_REG  = (uint8)(sample);
 475:.\Generated_Source\PSoC5/Filter_1.c ****             Filter_1_STAGEAM_REG = (uint8)(sample >> 8 );
 476:.\Generated_Source\PSoC5/Filter_1.c ****             Filter_1_STAGEAH_REG = (uint8)(sample >> 16);
 477:.\Generated_Source\PSoC5/Filter_1.c ****         }
 478:.\Generated_Source\PSoC5/Filter_1.c ****         else if (channel == Filter_1_CHANNEL_B)
 479:.\Generated_Source\PSoC5/Filter_1.c ****         {
 480:.\Generated_Source\PSoC5/Filter_1.c ****             Filter_1_STAGEB_REG = (uint8)(sample);
ARM GAS  C:\DOCUME~1\ADMINI~1\LOCALS~1\Temp\cca9PUJ6.s 			page 20


 481:.\Generated_Source\PSoC5/Filter_1.c ****             Filter_1_STAGEBM_REG = (uint8)(sample >> 8);
 482:.\Generated_Source\PSoC5/Filter_1.c ****             Filter_1_STAGEBH_REG = (uint8)(sample >> 16);
 483:.\Generated_Source\PSoC5/Filter_1.c ****         }
 484:.\Generated_Source\PSoC5/Filter_1.c ****         /* No Final else statement: No value is loaded on bad channel input */
 485:.\Generated_Source\PSoC5/Filter_1.c ****     }
 486:.\Generated_Source\PSoC5/Filter_1.c **** 
 487:.\Generated_Source\PSoC5/Filter_1.c **** #else
 488:.\Generated_Source\PSoC5/Filter_1.c **** 
 489:.\Generated_Source\PSoC5/Filter_1.c ****     void Filter_1_Write24(uint8 channel, uint32 sample) 
 490:.\Generated_Source\PSoC5/Filter_1.c ****     {
 600              		.loc 1 490 0
 601              		.cfi_startproc
 602              		@ args = 0, pretend = 0, frame = 8
 603              		@ frame_needed = 1, uses_anonymous_args = 0
 604              		@ link register save eliminated.
 605 0000 80B4     		push	{r7}
 606              	.LCFI23:
 607              		.cfi_def_cfa_offset 4
 608 0002 83B0     		sub	sp, sp, #12
 609              	.LCFI24:
 610              		.cfi_def_cfa_offset 16
 611 0004 00AF     		add	r7, sp, #0
 612              		.cfi_offset 7, -4
 613              	.LCFI25:
 614              		.cfi_def_cfa_register 7
 615 0006 0346     		mov	r3, r0
 616 0008 3960     		str	r1, [r7, #0]
 617 000a FB71     		strb	r3, [r7, #7]
 491:.\Generated_Source\PSoC5/Filter_1.c ****         if (channel == Filter_1_CHANNEL_A)
 618              		.loc 1 491 0
 619 000c FB79     		ldrb	r3, [r7, #7]	@ zero_extendqisi2
 620 000e 002B     		cmp	r3, #0
 621 0010 06D1     		bne	.L34
 492:.\Generated_Source\PSoC5/Filter_1.c ****         {
 493:.\Generated_Source\PSoC5/Filter_1.c ****             Filter_1_STAGEA24_REG = sample;
 622              		.loc 1 493 0
 623 0012 4CF2A073 		movw	r3, #:lower16:1073792928
 624 0016 C4F20003 		movt	r3, #:upper16:1073792928
 625 001a 3A68     		ldr	r2, [r7, #0]
 626 001c 1A60     		str	r2, [r3, #0]
 627 001e 08E0     		b	.L36
 628              	.L34:
 494:.\Generated_Source\PSoC5/Filter_1.c ****         }
 495:.\Generated_Source\PSoC5/Filter_1.c ****         else if (channel == Filter_1_CHANNEL_B)
 629              		.loc 1 495 0
 630 0020 FB79     		ldrb	r3, [r7, #7]	@ zero_extendqisi2
 631 0022 012B     		cmp	r3, #1
 632 0024 05D1     		bne	.L36
 496:.\Generated_Source\PSoC5/Filter_1.c ****         {
 497:.\Generated_Source\PSoC5/Filter_1.c ****             Filter_1_STAGEB24_REG = sample;
 633              		.loc 1 497 0
 634 0026 4CF2A473 		movw	r3, #:lower16:1073792932
 635 002a C4F20003 		movt	r3, #:upper16:1073792932
 636 002e 3A68     		ldr	r2, [r7, #0]
 637 0030 1A60     		str	r2, [r3, #0]
 638              	.L36:
 498:.\Generated_Source\PSoC5/Filter_1.c ****         }
ARM GAS  C:\DOCUME~1\ADMINI~1\LOCALS~1\Temp\cca9PUJ6.s 			page 21


 499:.\Generated_Source\PSoC5/Filter_1.c ****         /* No Final else statement: No value is loaded on bad channel input */
 500:.\Generated_Source\PSoC5/Filter_1.c ****     }
 639              		.loc 1 500 0
 640 0032 07F10C07 		add	r7, r7, #12
 641 0036 BD46     		mov	sp, r7
 642 0038 80BC     		pop	{r7}
 643 003a 7047     		bx	lr
 644              		.cfi_endproc
 645              	.LFE9:
 646              		.size	Filter_1_Write24, .-Filter_1_Write24
 647              		.section	.text.Filter_1_SetCoherency,"ax",%progbits
 648              		.align	2
 649              		.global	Filter_1_SetCoherency
 650              		.thumb
 651              		.thumb_func
 652              		.type	Filter_1_SetCoherency, %function
 653              	Filter_1_SetCoherency:
 654              	.LFB10:
 501:.\Generated_Source\PSoC5/Filter_1.c **** 
 502:.\Generated_Source\PSoC5/Filter_1.c **** #endif /* defined(__C51__) || defined(__CX51__) */
 503:.\Generated_Source\PSoC5/Filter_1.c **** 
 504:.\Generated_Source\PSoC5/Filter_1.c **** 
 505:.\Generated_Source\PSoC5/Filter_1.c **** /*******************************************************************************
 506:.\Generated_Source\PSoC5/Filter_1.c **** * Function Name: Filter_1_SetCoherency
 507:.\Generated_Source\PSoC5/Filter_1.c **** ********************************************************************************
 508:.\Generated_Source\PSoC5/Filter_1.c **** *
 509:.\Generated_Source\PSoC5/Filter_1.c **** * Summary:
 510:.\Generated_Source\PSoC5/Filter_1.c **** *  Sets the DFB coherency register with the user provided input 
 511:.\Generated_Source\PSoC5/Filter_1.c **** *
 512:.\Generated_Source\PSoC5/Filter_1.c **** * Parameters:  
 513:.\Generated_Source\PSoC5/Filter_1.c **** *  channel:  Filter_1_CHANNEL_A or Filter_1_CHANNEL_B
 514:.\Generated_Source\PSoC5/Filter_1.c **** *  byteSelect:  High byte, Middle byte or Low byte as the key coherency byte.
 515:.\Generated_Source\PSoC5/Filter_1.c **** *            
 516:.\Generated_Source\PSoC5/Filter_1.c **** * Return: 
 517:.\Generated_Source\PSoC5/Filter_1.c **** *  None.
 518:.\Generated_Source\PSoC5/Filter_1.c **** *
 519:.\Generated_Source\PSoC5/Filter_1.c **** *******************************************************************************/
 520:.\Generated_Source\PSoC5/Filter_1.c **** void Filter_1_SetCoherency(uint8 channel, uint8 byteSelect) 
 521:.\Generated_Source\PSoC5/Filter_1.c **** {
 655              		.loc 1 521 0
 656              		.cfi_startproc
 657              		@ args = 0, pretend = 0, frame = 8
 658              		@ frame_needed = 1, uses_anonymous_args = 0
 659              		@ link register save eliminated.
 660 0000 80B4     		push	{r7}
 661              	.LCFI26:
 662              		.cfi_def_cfa_offset 4
 663 0002 83B0     		sub	sp, sp, #12
 664              	.LCFI27:
 665              		.cfi_def_cfa_offset 16
 666 0004 00AF     		add	r7, sp, #0
 667              		.cfi_offset 7, -4
 668              	.LCFI28:
 669              		.cfi_def_cfa_register 7
 670 0006 0246     		mov	r2, r0
 671 0008 0B46     		mov	r3, r1
 672 000a FA71     		strb	r2, [r7, #7]
ARM GAS  C:\DOCUME~1\ADMINI~1\LOCALS~1\Temp\cca9PUJ6.s 			page 22


 673 000c BB71     		strb	r3, [r7, #6]
 522:.\Generated_Source\PSoC5/Filter_1.c ****     if (channel == Filter_1_CHANNEL_A)
 674              		.loc 1 522 0
 675 000e FB79     		ldrb	r3, [r7, #7]	@ zero_extendqisi2
 676 0010 002B     		cmp	r3, #0
 677 0012 30D1     		bne	.L38
 523:.\Generated_Source\PSoC5/Filter_1.c ****     {
 524:.\Generated_Source\PSoC5/Filter_1.c ****         Filter_1_COHER_REG &= ~(Filter_1_STAGEA_COHER_MASK | Filter_1_HOLDA_COHER_MASK);
 678              		.loc 1 524 0
 679 0014 4CF2B073 		movw	r3, #:lower16:1073792944
 680 0018 C4F20003 		movt	r3, #:upper16:1073792944
 681 001c 4CF2B072 		movw	r2, #:lower16:1073792944
 682 0020 C4F20002 		movt	r2, #:upper16:1073792944
 683 0024 1278     		ldrb	r2, [r2, #0]
 684 0026 D2B2     		uxtb	r2, r2
 685 0028 02F0CC02 		and	r2, r2, #204
 686 002c 1A70     		strb	r2, [r3, #0]
 525:.\Generated_Source\PSoC5/Filter_1.c ****         Filter_1_COHER_REG |= byteSelect;
 687              		.loc 1 525 0
 688 002e 4CF2B073 		movw	r3, #:lower16:1073792944
 689 0032 C4F20003 		movt	r3, #:upper16:1073792944
 690 0036 4CF2B072 		movw	r2, #:lower16:1073792944
 691 003a C4F20002 		movt	r2, #:upper16:1073792944
 692 003e 1278     		ldrb	r2, [r2, #0]
 693 0040 D1B2     		uxtb	r1, r2
 694 0042 BA79     		ldrb	r2, [r7, #6]
 695 0044 41EA0202 		orr	r2, r1, r2
 696 0048 D2B2     		uxtb	r2, r2
 697 004a 1A70     		strb	r2, [r3, #0]
 526:.\Generated_Source\PSoC5/Filter_1.c ****         Filter_1_COHER_REG |= (byteSelect << 4);
 698              		.loc 1 526 0
 699 004c 4CF2B073 		movw	r3, #:lower16:1073792944
 700 0050 C4F20003 		movt	r3, #:upper16:1073792944
 701 0054 4CF2B072 		movw	r2, #:lower16:1073792944
 702 0058 C4F20002 		movt	r2, #:upper16:1073792944
 703 005c 1278     		ldrb	r2, [r2, #0]
 704 005e D2B2     		uxtb	r2, r2
 705 0060 1146     		mov	r1, r2
 706 0062 BA79     		ldrb	r2, [r7, #6]	@ zero_extendqisi2
 707 0064 4FEA0212 		lsl	r2, r2, #4
 708 0068 D2B2     		uxtb	r2, r2
 709 006a 41EA0202 		orr	r2, r1, r2
 710 006e D2B2     		uxtb	r2, r2
 711 0070 D2B2     		uxtb	r2, r2
 712 0072 1A70     		strb	r2, [r3, #0]
 713 0074 37E0     		b	.L40
 714              	.L38:
 527:.\Generated_Source\PSoC5/Filter_1.c ****     }
 528:.\Generated_Source\PSoC5/Filter_1.c ****     else if (channel == Filter_1_CHANNEL_B)
 715              		.loc 1 528 0
 716 0076 FB79     		ldrb	r3, [r7, #7]	@ zero_extendqisi2
 717 0078 012B     		cmp	r3, #1
 718 007a 34D1     		bne	.L40
 529:.\Generated_Source\PSoC5/Filter_1.c ****     {
 530:.\Generated_Source\PSoC5/Filter_1.c ****         Filter_1_COHER_REG &= ~(Filter_1_STAGEB_COHER_MASK | Filter_1_HOLDB_COHER_MASK);
 719              		.loc 1 530 0
 720 007c 4CF2B073 		movw	r3, #:lower16:1073792944
ARM GAS  C:\DOCUME~1\ADMINI~1\LOCALS~1\Temp\cca9PUJ6.s 			page 23


 721 0080 C4F20003 		movt	r3, #:upper16:1073792944
 722 0084 4CF2B072 		movw	r2, #:lower16:1073792944
 723 0088 C4F20002 		movt	r2, #:upper16:1073792944
 724 008c 1278     		ldrb	r2, [r2, #0]
 725 008e D2B2     		uxtb	r2, r2
 726 0090 02F03302 		and	r2, r2, #51
 727 0094 1A70     		strb	r2, [r3, #0]
 531:.\Generated_Source\PSoC5/Filter_1.c ****         Filter_1_COHER_REG |= byteSelect << 2;
 728              		.loc 1 531 0
 729 0096 4CF2B073 		movw	r3, #:lower16:1073792944
 730 009a C4F20003 		movt	r3, #:upper16:1073792944
 731 009e 4CF2B072 		movw	r2, #:lower16:1073792944
 732 00a2 C4F20002 		movt	r2, #:upper16:1073792944
 733 00a6 1278     		ldrb	r2, [r2, #0]
 734 00a8 D2B2     		uxtb	r2, r2
 735 00aa 1146     		mov	r1, r2
 736 00ac BA79     		ldrb	r2, [r7, #6]	@ zero_extendqisi2
 737 00ae 4FEA8202 		lsl	r2, r2, #2
 738 00b2 D2B2     		uxtb	r2, r2
 739 00b4 41EA0202 		orr	r2, r1, r2
 740 00b8 D2B2     		uxtb	r2, r2
 741 00ba D2B2     		uxtb	r2, r2
 742 00bc 1A70     		strb	r2, [r3, #0]
 532:.\Generated_Source\PSoC5/Filter_1.c ****         Filter_1_COHER_REG |= (byteSelect << 6);
 743              		.loc 1 532 0
 744 00be 4CF2B073 		movw	r3, #:lower16:1073792944
 745 00c2 C4F20003 		movt	r3, #:upper16:1073792944
 746 00c6 4CF2B072 		movw	r2, #:lower16:1073792944
 747 00ca C4F20002 		movt	r2, #:upper16:1073792944
 748 00ce 1278     		ldrb	r2, [r2, #0]
 749 00d0 D2B2     		uxtb	r2, r2
 750 00d2 1146     		mov	r1, r2
 751 00d4 BA79     		ldrb	r2, [r7, #6]	@ zero_extendqisi2
 752 00d6 4FEA8212 		lsl	r2, r2, #6
 753 00da D2B2     		uxtb	r2, r2
 754 00dc 41EA0202 		orr	r2, r1, r2
 755 00e0 D2B2     		uxtb	r2, r2
 756 00e2 D2B2     		uxtb	r2, r2
 757 00e4 1A70     		strb	r2, [r3, #0]
 758              	.L40:
 533:.\Generated_Source\PSoC5/Filter_1.c ****     }
 534:.\Generated_Source\PSoC5/Filter_1.c **** }
 759              		.loc 1 534 0
 760 00e6 07F10C07 		add	r7, r7, #12
 761 00ea BD46     		mov	sp, r7
 762 00ec 80BC     		pop	{r7}
 763 00ee 7047     		bx	lr
 764              		.cfi_endproc
 765              	.LFE10:
 766              		.size	Filter_1_SetCoherency, .-Filter_1_SetCoherency
 767              		.text
 768              	.Letext0: