ARM GAS  C:\DOCUME~1\ADMINI~1\LOCALS~1\Temp\cc64cdHq.s 			page 1


   1              		.syntax unified
   2              		.cpu cortex-m3
   3              		.fpu softvfp
   4              		.eabi_attribute 20, 1
   5              		.eabi_attribute 21, 1
   6              		.eabi_attribute 23, 3
   7              		.eabi_attribute 24, 1
   8              		.eabi_attribute 25, 1
   9              		.eabi_attribute 26, 1
  10              		.eabi_attribute 30, 6
  11              		.eabi_attribute 18, 4
  12              		.thumb
  13              		.file	"I2S_PM.c"
  20 0000 C2000000 		.text
  20      02006800 
  20      00000201 
  20      FB0E0D00 
  20      01010101 
  21              	.Ltext0:
  22              		.cfi_sections	.debug_frame
  23              		.bss
  24              		.align	2
  25              	I2S_backup:
  26 0000 0000     		.space	2
  27 0002 0000     		.section	.text.I2S_SaveConfig,"ax",%progbits
  28              		.align	2
  29              		.global	I2S_SaveConfig
  30              		.thumb
  31              		.thumb_func
  32              		.type	I2S_SaveConfig, %function
  33              	I2S_SaveConfig:
  34              	.LFB0:
  35              		.file 1 ".\\Generated_Source\\PSoC5\\I2S_PM.c"
   1:.\Generated_Source\PSoC5/I2S_PM.c **** /*******************************************************************************
   2:.\Generated_Source\PSoC5/I2S_PM.c **** * File Name: I2S_PM.c
   3:.\Generated_Source\PSoC5/I2S_PM.c **** * Version 2.40
   4:.\Generated_Source\PSoC5/I2S_PM.c **** *
   5:.\Generated_Source\PSoC5/I2S_PM.c **** * Description:
   6:.\Generated_Source\PSoC5/I2S_PM.c **** *  This file contains the setup, control and status commands to support
   7:.\Generated_Source\PSoC5/I2S_PM.c **** *  component operations in low power mode.
   8:.\Generated_Source\PSoC5/I2S_PM.c **** *
   9:.\Generated_Source\PSoC5/I2S_PM.c **** * Note:
  10:.\Generated_Source\PSoC5/I2S_PM.c **** *
  11:.\Generated_Source\PSoC5/I2S_PM.c **** ********************************************************************************
  12:.\Generated_Source\PSoC5/I2S_PM.c **** * Copyright 2008-2012, Cypress Semiconductor Corporation.  All rights reserved.
  13:.\Generated_Source\PSoC5/I2S_PM.c **** * You may use this file only in accordance with the license, terms, conditions,
  14:.\Generated_Source\PSoC5/I2S_PM.c **** * disclaimers, and limitations in the end user license agreement accompanying
  15:.\Generated_Source\PSoC5/I2S_PM.c **** * the software package with which this file was provided.
  16:.\Generated_Source\PSoC5/I2S_PM.c **** *******************************************************************************/
  17:.\Generated_Source\PSoC5/I2S_PM.c **** 
  18:.\Generated_Source\PSoC5/I2S_PM.c **** #include "I2S.h"
ARM GAS  C:\DOCUME~1\ADMINI~1\LOCALS~1\Temp\cc64cdHq.s 			page 2


  19:.\Generated_Source\PSoC5/I2S_PM.c **** 
  20:.\Generated_Source\PSoC5/I2S_PM.c **** static I2S_BACKUP_STRUCT  I2S_backup =
  21:.\Generated_Source\PSoC5/I2S_PM.c **** {
  22:.\Generated_Source\PSoC5/I2S_PM.c ****     /* Generation of WS and SCK is disabled */
  23:.\Generated_Source\PSoC5/I2S_PM.c ****     I2S_DISABLED,
  24:.\Generated_Source\PSoC5/I2S_PM.c **** 
  25:.\Generated_Source\PSoC5/I2S_PM.c ****     /* RX and/or TX directions are disabled */
  26:.\Generated_Source\PSoC5/I2S_PM.c ****     I2S_DISABLED,
  27:.\Generated_Source\PSoC5/I2S_PM.c **** 
  28:.\Generated_Source\PSoC5/I2S_PM.c ****     #if(CY_UDB_V0)
  29:.\Generated_Source\PSoC5/I2S_PM.c ****         /* WS Period */
  30:.\Generated_Source\PSoC5/I2S_PM.c ****         I2S_DEFAULT_WS_PERIOD,
  31:.\Generated_Source\PSoC5/I2S_PM.c **** 
  32:.\Generated_Source\PSoC5/I2S_PM.c ****         #if(I2S_TX_DIRECTION_ENABLE)
  33:.\Generated_Source\PSoC5/I2S_PM.c ****             I2S_DEFAULT_TX_INT_SOURCE,
  34:.\Generated_Source\PSoC5/I2S_PM.c ****         #endif /* (I2S_TX_DIRECTION_ENABLE) */
  35:.\Generated_Source\PSoC5/I2S_PM.c ****        
  36:.\Generated_Source\PSoC5/I2S_PM.c ****         #if(I2S_RX_DIRECTION_ENABLE)
  37:.\Generated_Source\PSoC5/I2S_PM.c ****             I2S_DEFAULT_RX_INT_SOURCE
  38:.\Generated_Source\PSoC5/I2S_PM.c ****         #endif /* (I2S_RX_DIRECTION_ENABLE) */
  39:.\Generated_Source\PSoC5/I2S_PM.c **** 
  40:.\Generated_Source\PSoC5/I2S_PM.c ****     #endif /* (CY_UDB_V0) */
  41:.\Generated_Source\PSoC5/I2S_PM.c **** };
  42:.\Generated_Source\PSoC5/I2S_PM.c **** 
  43:.\Generated_Source\PSoC5/I2S_PM.c **** 
  44:.\Generated_Source\PSoC5/I2S_PM.c **** /*******************************************************************************
  45:.\Generated_Source\PSoC5/I2S_PM.c **** * Function Name: I2S_SaveConfig
  46:.\Generated_Source\PSoC5/I2S_PM.c **** ********************************************************************************
  47:.\Generated_Source\PSoC5/I2S_PM.c **** *
  48:.\Generated_Source\PSoC5/I2S_PM.c **** * Summary:
  49:.\Generated_Source\PSoC5/I2S_PM.c **** *  Saves I2S configuration.
  50:.\Generated_Source\PSoC5/I2S_PM.c **** *
  51:.\Generated_Source\PSoC5/I2S_PM.c **** * Parameters:
  52:.\Generated_Source\PSoC5/I2S_PM.c **** *  None.
  53:.\Generated_Source\PSoC5/I2S_PM.c **** *
  54:.\Generated_Source\PSoC5/I2S_PM.c **** * Return:
  55:.\Generated_Source\PSoC5/I2S_PM.c **** *  None.
  56:.\Generated_Source\PSoC5/I2S_PM.c **** *
  57:.\Generated_Source\PSoC5/I2S_PM.c **** * Global Variables:
  58:.\Generated_Source\PSoC5/I2S_PM.c **** *  I2S_backup - modified when non-retention registers are saved.
  59:.\Generated_Source\PSoC5/I2S_PM.c **** *
  60:.\Generated_Source\PSoC5/I2S_PM.c **** * Reentrant:
  61:.\Generated_Source\PSoC5/I2S_PM.c **** *  No.
  62:.\Generated_Source\PSoC5/I2S_PM.c **** *
  63:.\Generated_Source\PSoC5/I2S_PM.c **** *******************************************************************************/
  64:.\Generated_Source\PSoC5/I2S_PM.c **** void I2S_SaveConfig(void) 
  65:.\Generated_Source\PSoC5/I2S_PM.c **** {
  36              		.loc 1 65 0
  37              		.cfi_startproc
  38              		@ args = 0, pretend = 0, frame = 0
  39              		@ frame_needed = 1, uses_anonymous_args = 0
  40              		@ link register save eliminated.
  41 0000 80B4     		push	{r7}
  42              	.LCFI0:
  43              		.cfi_def_cfa_offset 4
  44 0002 00AF     		add	r7, sp, #0
  45              		.cfi_offset 7, -4
ARM GAS  C:\DOCUME~1\ADMINI~1\LOCALS~1\Temp\cc64cdHq.s 			page 3


  46              	.LCFI1:
  47              		.cfi_def_cfa_register 7
  66:.\Generated_Source\PSoC5/I2S_PM.c ****     /* Saves CTL_REG bits to define what direction was enabled */
  67:.\Generated_Source\PSoC5/I2S_PM.c ****     I2S_backup.CtrlReg = I2S_CONTROL_REG;
  48              		.loc 1 67 0
  49 0004 46F27853 		movw	r3, #:lower16:1073767800
  50 0008 C4F20003 		movt	r3, #:upper16:1073767800
  51 000c 1B78     		ldrb	r3, [r3, #0]
  52 000e DAB2     		uxtb	r2, r3
  53 0010 40F20003 		movw	r3, #:lower16:I2S_backup
  54 0014 C0F20003 		movt	r3, #:upper16:I2S_backup
  55 0018 5A70     		strb	r2, [r3, #1]
  68:.\Generated_Source\PSoC5/I2S_PM.c **** 
  69:.\Generated_Source\PSoC5/I2S_PM.c ****     /* Saves CNT7 and STATUSI MSK/PER for UDB array version 0 */
  70:.\Generated_Source\PSoC5/I2S_PM.c ****     #if(CY_UDB_V0)
  71:.\Generated_Source\PSoC5/I2S_PM.c ****         I2S_backup.Cnt7Period = I2S_CNT7_PERIOD_REG;
  72:.\Generated_Source\PSoC5/I2S_PM.c **** 
  73:.\Generated_Source\PSoC5/I2S_PM.c ****         #if(I2S_TX_DIRECTION_ENABLE)
  74:.\Generated_Source\PSoC5/I2S_PM.c ****             I2S_backup.TxIntMask = I2S_TX_STATUS_MASK_REG;
  75:.\Generated_Source\PSoC5/I2S_PM.c ****         #endif /* (I2S_TX_DIRECTION_ENABLE) */
  76:.\Generated_Source\PSoC5/I2S_PM.c ****         
  77:.\Generated_Source\PSoC5/I2S_PM.c ****         #if(I2S_RX_DIRECTION_ENABLE)
  78:.\Generated_Source\PSoC5/I2S_PM.c ****             I2S_backup.RxIntMask = I2S_RX_STATUS_MASK_REG;
  79:.\Generated_Source\PSoC5/I2S_PM.c ****         #endif /* (I2S_RX_DIRECTION_ENABLE) */
  80:.\Generated_Source\PSoC5/I2S_PM.c **** 
  81:.\Generated_Source\PSoC5/I2S_PM.c ****     #endif /* (CY_UDB_V0) */
  82:.\Generated_Source\PSoC5/I2S_PM.c **** }
  56              		.loc 1 82 0
  57 001a BD46     		mov	sp, r7
  58 001c 80BC     		pop	{r7}
  59 001e 7047     		bx	lr
  60              		.cfi_endproc
  61              	.LFE0:
  62              		.size	I2S_SaveConfig, .-I2S_SaveConfig
  63              		.section	.text.I2S_RestoreConfig,"ax",%progbits
  64              		.align	2
  65              		.global	I2S_RestoreConfig
  66              		.thumb
  67              		.thumb_func
  68              		.type	I2S_RestoreConfig, %function
  69              	I2S_RestoreConfig:
  70              	.LFB1:
  83:.\Generated_Source\PSoC5/I2S_PM.c **** 
  84:.\Generated_Source\PSoC5/I2S_PM.c **** 
  85:.\Generated_Source\PSoC5/I2S_PM.c **** /*******************************************************************************
  86:.\Generated_Source\PSoC5/I2S_PM.c **** * Function Name: I2S_RestoreConfig
  87:.\Generated_Source\PSoC5/I2S_PM.c **** ********************************************************************************
  88:.\Generated_Source\PSoC5/I2S_PM.c **** *
  89:.\Generated_Source\PSoC5/I2S_PM.c **** * Summary:
  90:.\Generated_Source\PSoC5/I2S_PM.c **** *  Restores I2S configuration.
  91:.\Generated_Source\PSoC5/I2S_PM.c **** *
  92:.\Generated_Source\PSoC5/I2S_PM.c **** * Parameters:
  93:.\Generated_Source\PSoC5/I2S_PM.c **** *  None.
  94:.\Generated_Source\PSoC5/I2S_PM.c **** *
  95:.\Generated_Source\PSoC5/I2S_PM.c **** * Return:
  96:.\Generated_Source\PSoC5/I2S_PM.c **** *  None.
  97:.\Generated_Source\PSoC5/I2S_PM.c **** *
ARM GAS  C:\DOCUME~1\ADMINI~1\LOCALS~1\Temp\cc64cdHq.s 			page 4


  98:.\Generated_Source\PSoC5/I2S_PM.c **** * Global Variables:
  99:.\Generated_Source\PSoC5/I2S_PM.c **** *  I2S_backup - used when non-retention registers are restored.
 100:.\Generated_Source\PSoC5/I2S_PM.c **** *
 101:.\Generated_Source\PSoC5/I2S_PM.c **** *******************************************************************************/
 102:.\Generated_Source\PSoC5/I2S_PM.c **** void I2S_RestoreConfig(void) 
 103:.\Generated_Source\PSoC5/I2S_PM.c **** {
  71              		.loc 1 103 0
  72              		.cfi_startproc
  73              		@ args = 0, pretend = 0, frame = 0
  74              		@ frame_needed = 1, uses_anonymous_args = 0
  75              		@ link register save eliminated.
  76 0000 80B4     		push	{r7}
  77              	.LCFI2:
  78              		.cfi_def_cfa_offset 4
  79 0002 00AF     		add	r7, sp, #0
  80              		.cfi_offset 7, -4
  81              	.LCFI3:
  82              		.cfi_def_cfa_register 7
 104:.\Generated_Source\PSoC5/I2S_PM.c ****     /* Restores CNT7 and STATUSI MSK/PER registers for UDB array version 0 */
 105:.\Generated_Source\PSoC5/I2S_PM.c ****     #if(CY_UDB_V0)
 106:.\Generated_Source\PSoC5/I2S_PM.c ****         I2S_CNT7_PERIOD_REG = I2S_backup.Cnt7Period;
 107:.\Generated_Source\PSoC5/I2S_PM.c **** 
 108:.\Generated_Source\PSoC5/I2S_PM.c ****         #if(I2S_TX_DIRECTION_ENABLE)
 109:.\Generated_Source\PSoC5/I2S_PM.c ****             I2S_TX_STATUS_MASK_REG = I2S_backup.TxIntMask;
 110:.\Generated_Source\PSoC5/I2S_PM.c ****         #endif /* (I2S_TX_DIRECTION_ENABLE) */
 111:.\Generated_Source\PSoC5/I2S_PM.c ****         
 112:.\Generated_Source\PSoC5/I2S_PM.c ****         #if(I2S_RX_DIRECTION_ENABLE)
 113:.\Generated_Source\PSoC5/I2S_PM.c ****             I2S_RX_STATUS_MASK_REG = I2S_backup.RxIntMask;
 114:.\Generated_Source\PSoC5/I2S_PM.c ****         #endif /* (I2S_RX_DIRECTION_ENABLE) */
 115:.\Generated_Source\PSoC5/I2S_PM.c **** 
 116:.\Generated_Source\PSoC5/I2S_PM.c ****     #endif /* CY_UDB_V0 */
 117:.\Generated_Source\PSoC5/I2S_PM.c **** }
  83              		.loc 1 117 0
  84 0004 BD46     		mov	sp, r7
  85 0006 80BC     		pop	{r7}
  86 0008 7047     		bx	lr
  87              		.cfi_endproc
  88              	.LFE1:
  89              		.size	I2S_RestoreConfig, .-I2S_RestoreConfig
  90 000a 00BF     		.section	.text.I2S_Sleep,"ax",%progbits
  91              		.align	2
  92              		.global	I2S_Sleep
  93              		.thumb
  94              		.thumb_func
  95              		.type	I2S_Sleep, %function
  96              	I2S_Sleep:
  97              	.LFB2:
 118:.\Generated_Source\PSoC5/I2S_PM.c **** 
 119:.\Generated_Source\PSoC5/I2S_PM.c **** 
 120:.\Generated_Source\PSoC5/I2S_PM.c **** /*******************************************************************************
 121:.\Generated_Source\PSoC5/I2S_PM.c **** * Function Name: I2S_Sleep
 122:.\Generated_Source\PSoC5/I2S_PM.c **** ********************************************************************************
 123:.\Generated_Source\PSoC5/I2S_PM.c **** *
 124:.\Generated_Source\PSoC5/I2S_PM.c **** * Summary:
 125:.\Generated_Source\PSoC5/I2S_PM.c **** *  Prepares I2S goes to sleep.
 126:.\Generated_Source\PSoC5/I2S_PM.c **** *
 127:.\Generated_Source\PSoC5/I2S_PM.c **** * Parameters:
ARM GAS  C:\DOCUME~1\ADMINI~1\LOCALS~1\Temp\cc64cdHq.s 			page 5


 128:.\Generated_Source\PSoC5/I2S_PM.c **** *  None.
 129:.\Generated_Source\PSoC5/I2S_PM.c **** *
 130:.\Generated_Source\PSoC5/I2S_PM.c **** * Return:
 131:.\Generated_Source\PSoC5/I2S_PM.c **** *  None.
 132:.\Generated_Source\PSoC5/I2S_PM.c **** *
 133:.\Generated_Source\PSoC5/I2S_PM.c **** * Global Variables:
 134:.\Generated_Source\PSoC5/I2S_PM.c **** *  I2S_backup - modified when non-retention registers are saved.
 135:.\Generated_Source\PSoC5/I2S_PM.c **** *
 136:.\Generated_Source\PSoC5/I2S_PM.c **** * Reentrant:
 137:.\Generated_Source\PSoC5/I2S_PM.c **** *  No.
 138:.\Generated_Source\PSoC5/I2S_PM.c **** *
 139:.\Generated_Source\PSoC5/I2S_PM.c **** *******************************************************************************/
 140:.\Generated_Source\PSoC5/I2S_PM.c **** void I2S_Sleep(void) 
 141:.\Generated_Source\PSoC5/I2S_PM.c **** {
  98              		.loc 1 141 0
  99              		.cfi_startproc
 100              		@ args = 0, pretend = 0, frame = 0
 101              		@ frame_needed = 1, uses_anonymous_args = 0
 102 0000 80B5     		push	{r7, lr}
 103              	.LCFI4:
 104              		.cfi_def_cfa_offset 8
 105 0002 00AF     		add	r7, sp, #0
 106              		.cfi_offset 14, -4
 107              		.cfi_offset 7, -8
 108              	.LCFI5:
 109              		.cfi_def_cfa_register 7
 142:.\Generated_Source\PSoC5/I2S_PM.c ****     /* Get component state */
 143:.\Generated_Source\PSoC5/I2S_PM.c ****     I2S_backup.enableState = ((uint8) I2S_IS_ENABLE);
 110              		.loc 1 143 0
 111 0004 46F27853 		movw	r3, #:lower16:1073767800
 112 0008 C4F20003 		movt	r3, #:upper16:1073767800
 113 000c 1B78     		ldrb	r3, [r3, #0]
 114 000e DBB2     		uxtb	r3, r3
 115 0010 03F00403 		and	r3, r3, #4
 116 0014 002B     		cmp	r3, #0
 117 0016 0CBF     		ite	eq
 118 0018 0022     		moveq	r2, #0
 119 001a 0122     		movne	r2, #1
 120 001c 40F20003 		movw	r3, #:lower16:I2S_backup
 121 0020 C0F20003 		movt	r3, #:upper16:I2S_backup
 122 0024 1A70     		strb	r2, [r3, #0]
 144:.\Generated_Source\PSoC5/I2S_PM.c **** 
 145:.\Generated_Source\PSoC5/I2S_PM.c ****     /* Save registers configuration */
 146:.\Generated_Source\PSoC5/I2S_PM.c ****     I2S_SaveConfig();
 123              		.loc 1 146 0
 124 0026 FFF7FEFF 		bl	I2S_SaveConfig
 147:.\Generated_Source\PSoC5/I2S_PM.c **** 
 148:.\Generated_Source\PSoC5/I2S_PM.c ****     /* Stop component */
 149:.\Generated_Source\PSoC5/I2S_PM.c ****     I2S_Stop();
 125              		.loc 1 149 0
 126 002a FFF7FEFF 		bl	I2S_Stop
 150:.\Generated_Source\PSoC5/I2S_PM.c **** }
 127              		.loc 1 150 0
 128 002e 80BD     		pop	{r7, pc}
 129              		.cfi_endproc
 130              	.LFE2:
 131              		.size	I2S_Sleep, .-I2S_Sleep
ARM GAS  C:\DOCUME~1\ADMINI~1\LOCALS~1\Temp\cc64cdHq.s 			page 6


 132              		.section	.text.I2S_Wakeup,"ax",%progbits
 133              		.align	2
 134              		.global	I2S_Wakeup
 135              		.thumb
 136              		.thumb_func
 137              		.type	I2S_Wakeup, %function
 138              	I2S_Wakeup:
 139              	.LFB3:
 151:.\Generated_Source\PSoC5/I2S_PM.c **** 
 152:.\Generated_Source\PSoC5/I2S_PM.c **** 
 153:.\Generated_Source\PSoC5/I2S_PM.c **** /*******************************************************************************
 154:.\Generated_Source\PSoC5/I2S_PM.c **** * Function Name: I2S_Wakeup
 155:.\Generated_Source\PSoC5/I2S_PM.c **** ********************************************************************************
 156:.\Generated_Source\PSoC5/I2S_PM.c **** *
 157:.\Generated_Source\PSoC5/I2S_PM.c **** * Summary:
 158:.\Generated_Source\PSoC5/I2S_PM.c **** *  Prepares I2S to wake up.
 159:.\Generated_Source\PSoC5/I2S_PM.c **** *
 160:.\Generated_Source\PSoC5/I2S_PM.c **** * Parameters:
 161:.\Generated_Source\PSoC5/I2S_PM.c **** *  None.
 162:.\Generated_Source\PSoC5/I2S_PM.c **** *
 163:.\Generated_Source\PSoC5/I2S_PM.c **** * Return:
 164:.\Generated_Source\PSoC5/I2S_PM.c **** *  None.
 165:.\Generated_Source\PSoC5/I2S_PM.c **** *
 166:.\Generated_Source\PSoC5/I2S_PM.c **** * Global Variables:
 167:.\Generated_Source\PSoC5/I2S_PM.c **** *  I2S_backup - used when non-retention registers are restored.
 168:.\Generated_Source\PSoC5/I2S_PM.c **** *
 169:.\Generated_Source\PSoC5/I2S_PM.c **** * Reentrant:
 170:.\Generated_Source\PSoC5/I2S_PM.c **** *  Yes.
 171:.\Generated_Source\PSoC5/I2S_PM.c **** *
 172:.\Generated_Source\PSoC5/I2S_PM.c **** *******************************************************************************/
 173:.\Generated_Source\PSoC5/I2S_PM.c **** void I2S_Wakeup(void) 
 174:.\Generated_Source\PSoC5/I2S_PM.c **** {
 140              		.loc 1 174 0
 141              		.cfi_startproc
 142              		@ args = 0, pretend = 0, frame = 0
 143              		@ frame_needed = 1, uses_anonymous_args = 0
 144 0000 80B5     		push	{r7, lr}
 145              	.LCFI6:
 146              		.cfi_def_cfa_offset 8
 147 0002 00AF     		add	r7, sp, #0
 148              		.cfi_offset 14, -4
 149              		.cfi_offset 7, -8
 150              	.LCFI7:
 151              		.cfi_def_cfa_register 7
 175:.\Generated_Source\PSoC5/I2S_PM.c ****     /* Restore registers values */
 176:.\Generated_Source\PSoC5/I2S_PM.c ****     I2S_RestoreConfig();
 152              		.loc 1 176 0
 153 0004 FFF7FEFF 		bl	I2S_RestoreConfig
 177:.\Generated_Source\PSoC5/I2S_PM.c **** 
 178:.\Generated_Source\PSoC5/I2S_PM.c ****     if(0u != I2S_backup.enableState)
 154              		.loc 1 178 0
 155 0008 40F20003 		movw	r3, #:lower16:I2S_backup
 156 000c C0F20003 		movt	r3, #:upper16:I2S_backup
 157 0010 1B78     		ldrb	r3, [r3, #0]	@ zero_extendqisi2
 158 0012 002B     		cmp	r3, #0
 159 0014 0DD0     		beq	.L9
 179:.\Generated_Source\PSoC5/I2S_PM.c ****     {
ARM GAS  C:\DOCUME~1\ADMINI~1\LOCALS~1\Temp\cc64cdHq.s 			page 7


 180:.\Generated_Source\PSoC5/I2S_PM.c ****         /* Enable component's operation */
 181:.\Generated_Source\PSoC5/I2S_PM.c ****         I2S_Enable();
 160              		.loc 1 181 0
 161 0016 FFF7FEFF 		bl	I2S_Enable
 182:.\Generated_Source\PSoC5/I2S_PM.c **** 
 183:.\Generated_Source\PSoC5/I2S_PM.c ****         /* Enable Tx/Rx direction if they were enabled before sleep */
 184:.\Generated_Source\PSoC5/I2S_PM.c ****         #if(I2S_TX_DIRECTION_ENABLE)
 185:.\Generated_Source\PSoC5/I2S_PM.c ****             if(0u != (I2S_backup.CtrlReg & I2S_TX_EN))
 162              		.loc 1 185 0
 163 001a 40F20003 		movw	r3, #:lower16:I2S_backup
 164 001e C0F20003 		movt	r3, #:upper16:I2S_backup
 165 0022 5B78     		ldrb	r3, [r3, #1]	@ zero_extendqisi2
 166 0024 03F00103 		and	r3, r3, #1
 167 0028 DBB2     		uxtb	r3, r3
 168 002a 002B     		cmp	r3, #0
 169 002c 01D0     		beq	.L9
 186:.\Generated_Source\PSoC5/I2S_PM.c ****             {
 187:.\Generated_Source\PSoC5/I2S_PM.c ****                 I2S_EnableTx();
 170              		.loc 1 187 0
 171 002e FFF7FEFF 		bl	I2S_EnableTx
 172              	.L9:
 188:.\Generated_Source\PSoC5/I2S_PM.c ****             }
 189:.\Generated_Source\PSoC5/I2S_PM.c ****         #endif /* (I2S_TX_DIRECTION_ENABLE) */
 190:.\Generated_Source\PSoC5/I2S_PM.c ****         
 191:.\Generated_Source\PSoC5/I2S_PM.c ****         #if(I2S_RX_DIRECTION_ENABLE)
 192:.\Generated_Source\PSoC5/I2S_PM.c ****             if(0u != (I2S_backup.CtrlReg & I2S_RX_EN))
 193:.\Generated_Source\PSoC5/I2S_PM.c ****             {
 194:.\Generated_Source\PSoC5/I2S_PM.c ****                 I2S_EnableRx();
 195:.\Generated_Source\PSoC5/I2S_PM.c ****             }
 196:.\Generated_Source\PSoC5/I2S_PM.c ****         #endif /* (I2S_RX_DIRECTION_ENABLE) */
 197:.\Generated_Source\PSoC5/I2S_PM.c ****     }
 198:.\Generated_Source\PSoC5/I2S_PM.c **** }
 173              		.loc 1 198 0
 174 0032 80BD     		pop	{r7, pc}
 175              		.cfi_endproc
 176              	.LFE3:
 177              		.size	I2S_Wakeup, .-I2S_Wakeup
 178              		.text
 179              	.Letext0: