ARM GAS  C:\DOCUME~1\ADMINI~1\LOCALS~1\Temp\ccmk5fwz.s 			page 1


   1              		.syntax unified
   2              		.cpu cortex-m3
   3              		.fpu softvfp
   4              		.eabi_attribute 20, 1
   5              		.eabi_attribute 21, 1
   6              		.eabi_attribute 23, 3
   7              		.eabi_attribute 24, 1
   8              		.eabi_attribute 25, 1
   9              		.eabi_attribute 26, 1
  10              		.eabi_attribute 30, 6
  11              		.eabi_attribute 18, 4
  12              		.thumb
  13              		.file	"USBFS_std.c"
  20 0000 CE020000 		.text
  20      02006D00 
  20      00000201 
  20      FB0E0D00 
  20      01010101 
  21              	.Ltext0:
  22              		.cfi_sections	.debug_frame
  23              		.global	USBFS_idSerialNumberStringDescriptor
  24              		.data
  25              		.align	2
  26              		.type	USBFS_idSerialNumberStringDescriptor, %object
  27              		.size	USBFS_idSerialNumberStringDescriptor, 34
  28              	USBFS_idSerialNumberStringDescriptor:
  29 0000 22       		.byte	34
  30 0001 03       		.byte	3
  31 0002 00000000 		.space	32
  31      00000000 
  31      00000000 
  31      00000000 
  31      00000000 
  32              		.comm	USBFS_tBuffer,2,4
  33              		.comm	USBFS_fwSerialNumberStringDescriptor,4,4
  34              		.global	USBFS_snStringConfirm
  35 0022 0000     		.bss
  36              		.type	USBFS_snStringConfirm, %object
  37              		.size	USBFS_snStringConfirm, 1
  38              	USBFS_snStringConfirm:
  39 0000 00       		.space	1
  40              		.section	.text.USBFS_SerialNumString,"ax",%progbits
  41              		.align	2
  42              		.global	USBFS_SerialNumString
  43              		.thumb
  44              		.thumb_func
  45              		.type	USBFS_SerialNumString, %function
  46              	USBFS_SerialNumString:
  47              	.LFB0:
  48              		.file 1 ".\\Generated_Source\\PSoC5\\USBFS_std.c"
   1:.\Generated_Source\PSoC5/USBFS_std.c **** /*******************************************************************************
ARM GAS  C:\DOCUME~1\ADMINI~1\LOCALS~1\Temp\ccmk5fwz.s 			page 2


   2:.\Generated_Source\PSoC5/USBFS_std.c **** * File Name: USBFS_std.c
   3:.\Generated_Source\PSoC5/USBFS_std.c **** * Version 2.50
   4:.\Generated_Source\PSoC5/USBFS_std.c **** *
   5:.\Generated_Source\PSoC5/USBFS_std.c **** * Description:
   6:.\Generated_Source\PSoC5/USBFS_std.c **** *  USB Standard request handler.
   7:.\Generated_Source\PSoC5/USBFS_std.c **** *
   8:.\Generated_Source\PSoC5/USBFS_std.c **** * Note:
   9:.\Generated_Source\PSoC5/USBFS_std.c **** *
  10:.\Generated_Source\PSoC5/USBFS_std.c **** ********************************************************************************
  11:.\Generated_Source\PSoC5/USBFS_std.c **** * Copyright 2008-2012, Cypress Semiconductor Corporation.  All rights reserved.
  12:.\Generated_Source\PSoC5/USBFS_std.c **** * You may use this file only in accordance with the license, terms, conditions,
  13:.\Generated_Source\PSoC5/USBFS_std.c **** * disclaimers, and limitations in the end user license agreement accompanying
  14:.\Generated_Source\PSoC5/USBFS_std.c **** * the software package with which this file was provided.
  15:.\Generated_Source\PSoC5/USBFS_std.c **** *******************************************************************************/
  16:.\Generated_Source\PSoC5/USBFS_std.c **** 
  17:.\Generated_Source\PSoC5/USBFS_std.c **** #include "USBFS.h"
  18:.\Generated_Source\PSoC5/USBFS_std.c **** 
  19:.\Generated_Source\PSoC5/USBFS_std.c **** 
  20:.\Generated_Source\PSoC5/USBFS_std.c **** /***************************************
  21:.\Generated_Source\PSoC5/USBFS_std.c **** * External references
  22:.\Generated_Source\PSoC5/USBFS_std.c **** ***************************************/
  23:.\Generated_Source\PSoC5/USBFS_std.c **** 
  24:.\Generated_Source\PSoC5/USBFS_std.c **** extern const uint8 CYCODE USBFS_DEVICE0_DESCR[];
  25:.\Generated_Source\PSoC5/USBFS_std.c **** extern const uint8 CYCODE USBFS_DEVICE0_CONFIGURATION0_DESCR[];
  26:.\Generated_Source\PSoC5/USBFS_std.c **** extern const uint8 CYCODE USBFS_STRING_DESCRIPTORS[];
  27:.\Generated_Source\PSoC5/USBFS_std.c **** extern const uint8 CYCODE USBFS_MSOS_DESCRIPTOR[];
  28:.\Generated_Source\PSoC5/USBFS_std.c **** extern const uint8 CYCODE USBFS_SN_STRING_DESCRIPTOR[];
  29:.\Generated_Source\PSoC5/USBFS_std.c **** 
  30:.\Generated_Source\PSoC5/USBFS_std.c **** extern volatile uint8 USBFS_device;
  31:.\Generated_Source\PSoC5/USBFS_std.c **** extern volatile uint8 USBFS_configuration;
  32:.\Generated_Source\PSoC5/USBFS_std.c **** extern volatile uint8 USBFS_configurationChanged;
  33:.\Generated_Source\PSoC5/USBFS_std.c **** extern volatile uint8 USBFS_interfaceNumber;
  34:.\Generated_Source\PSoC5/USBFS_std.c **** extern volatile uint8 USBFS_interfaceSetting[];
  35:.\Generated_Source\PSoC5/USBFS_std.c **** extern volatile uint8 USBFS_interfaceSetting_last[];
  36:.\Generated_Source\PSoC5/USBFS_std.c **** extern volatile uint8 USBFS_deviceAddress;
  37:.\Generated_Source\PSoC5/USBFS_std.c **** extern volatile uint8 USBFS_deviceStatus;
  38:.\Generated_Source\PSoC5/USBFS_std.c **** extern volatile uint8 USBFS_interfaceStatus[];
  39:.\Generated_Source\PSoC5/USBFS_std.c **** extern uint8 CYCODE *USBFS_interfaceClass;
  40:.\Generated_Source\PSoC5/USBFS_std.c **** extern const T_USBFS_LUT CYCODE USBFS_TABLE[];
  41:.\Generated_Source\PSoC5/USBFS_std.c **** extern volatile T_USBFS_EP_CTL_BLOCK USBFS_EP[];
  42:.\Generated_Source\PSoC5/USBFS_std.c **** extern volatile T_USBFS_TD USBFS_currentTD;
  43:.\Generated_Source\PSoC5/USBFS_std.c **** #if defined(USBFS_ENABLE_CDC_CLASS)
  44:.\Generated_Source\PSoC5/USBFS_std.c ****     extern volatile uint8 USBFS_cdc_data_in_ep;
  45:.\Generated_Source\PSoC5/USBFS_std.c ****     extern volatile uint8 USBFS_cdc_data_out_ep;
  46:.\Generated_Source\PSoC5/USBFS_std.c **** #endif  /* End USBFS_ENABLE_CDC_CLASS*/
  47:.\Generated_Source\PSoC5/USBFS_std.c **** #if defined(USBFS_ENABLE_MIDI_STREAMING)
  48:.\Generated_Source\PSoC5/USBFS_std.c ****     extern volatile uint8 USBFS_midi_in_ep;
  49:.\Generated_Source\PSoC5/USBFS_std.c ****     extern volatile uint8 USBFS_midi_out_ep;
  50:.\Generated_Source\PSoC5/USBFS_std.c **** #endif /* End USBFS_ENABLE_MIDI_STREAMING */
  51:.\Generated_Source\PSoC5/USBFS_std.c **** 
  52:.\Generated_Source\PSoC5/USBFS_std.c **** 
  53:.\Generated_Source\PSoC5/USBFS_std.c **** /***************************************
  54:.\Generated_Source\PSoC5/USBFS_std.c **** *         Forward references
  55:.\Generated_Source\PSoC5/USBFS_std.c **** ***************************************/
  56:.\Generated_Source\PSoC5/USBFS_std.c **** 
  57:.\Generated_Source\PSoC5/USBFS_std.c **** uint8 USBFS_InitControlRead(void) ;
  58:.\Generated_Source\PSoC5/USBFS_std.c **** uint8 USBFS_InitControlWrite(void) ;
ARM GAS  C:\DOCUME~1\ADMINI~1\LOCALS~1\Temp\ccmk5fwz.s 			page 3


  59:.\Generated_Source\PSoC5/USBFS_std.c **** uint8 USBFS_InitNoDataControlTransfer(void) ;
  60:.\Generated_Source\PSoC5/USBFS_std.c **** uint8 USBFS_DispatchClassRqst(void) ;
  61:.\Generated_Source\PSoC5/USBFS_std.c **** 
  62:.\Generated_Source\PSoC5/USBFS_std.c **** void USBFS_Config(uint8 clearAltSetting) ;
  63:.\Generated_Source\PSoC5/USBFS_std.c **** void USBFS_ConfigAltChanged(void) ;
  64:.\Generated_Source\PSoC5/USBFS_std.c **** T_USBFS_LUT *USBFS_GetConfigTablePtr(uint8 c)
  65:.\Generated_Source\PSoC5/USBFS_std.c ****                                                             ;
  66:.\Generated_Source\PSoC5/USBFS_std.c **** T_USBFS_LUT *USBFS_GetDeviceTablePtr(void)
  67:.\Generated_Source\PSoC5/USBFS_std.c ****                                                             ;
  68:.\Generated_Source\PSoC5/USBFS_std.c **** uint8 USBFS_ClearEndpointHalt(void) ;
  69:.\Generated_Source\PSoC5/USBFS_std.c **** uint8 USBFS_SetEndpointHalt(void) ;
  70:.\Generated_Source\PSoC5/USBFS_std.c **** uint8 USBFS_ValidateAlternateSetting(void) ;
  71:.\Generated_Source\PSoC5/USBFS_std.c **** 
  72:.\Generated_Source\PSoC5/USBFS_std.c **** /*DIE ID string descriptor for 8 bytes ID*/
  73:.\Generated_Source\PSoC5/USBFS_std.c **** #if defined(USBFS_ENABLE_IDSN_STRING)
  74:.\Generated_Source\PSoC5/USBFS_std.c ****     void USBFS_ReadDieID(uint8 *descr) ;
  75:.\Generated_Source\PSoC5/USBFS_std.c ****     uint8 USBFS_idSerialNumberStringDescriptor[0x22u]={0x22u, USBFS_DESCR_STRING};
  76:.\Generated_Source\PSoC5/USBFS_std.c **** #endif /* USBFS_ENABLE_IDSN_STRING */
  77:.\Generated_Source\PSoC5/USBFS_std.c **** 
  78:.\Generated_Source\PSoC5/USBFS_std.c **** #if(USBFS_EP_MM != USBFS__EP_MANUAL)
  79:.\Generated_Source\PSoC5/USBFS_std.c ****     void USBFS_Stop_DMA(uint8 epNumber) ;
  80:.\Generated_Source\PSoC5/USBFS_std.c **** #endif   /* End USBFS_EP_MM != USBFS__EP_MANUAL */
  81:.\Generated_Source\PSoC5/USBFS_std.c **** uint8 CYCODE *USBFS_GetInterfaceClassTablePtr(void)
  82:.\Generated_Source\PSoC5/USBFS_std.c ****                                                     ;
  83:.\Generated_Source\PSoC5/USBFS_std.c **** 
  84:.\Generated_Source\PSoC5/USBFS_std.c **** 
  85:.\Generated_Source\PSoC5/USBFS_std.c **** /***************************************
  86:.\Generated_Source\PSoC5/USBFS_std.c **** * Global data allocation
  87:.\Generated_Source\PSoC5/USBFS_std.c **** ***************************************/
  88:.\Generated_Source\PSoC5/USBFS_std.c **** 
  89:.\Generated_Source\PSoC5/USBFS_std.c **** volatile uint8 USBFS_tBuffer[USBFS_EP_STATUS_LENGTH > USBFS_DEVICE_STATUS_LENGTH ? \
  90:.\Generated_Source\PSoC5/USBFS_std.c ****                                USBFS_EP_STATUS_LENGTH : USBFS_DEVICE_STATUS_LENGTH];
  91:.\Generated_Source\PSoC5/USBFS_std.c **** volatile uint8 *USBFS_fwSerialNumberStringDescriptor;
  92:.\Generated_Source\PSoC5/USBFS_std.c **** volatile uint8 USBFS_snStringConfirm = USBFS_FALSE;
  93:.\Generated_Source\PSoC5/USBFS_std.c **** 
  94:.\Generated_Source\PSoC5/USBFS_std.c **** 
  95:.\Generated_Source\PSoC5/USBFS_std.c **** /*******************************************************************************
  96:.\Generated_Source\PSoC5/USBFS_std.c **** * Function Name: USBFS_SerialNumString
  97:.\Generated_Source\PSoC5/USBFS_std.c **** ********************************************************************************
  98:.\Generated_Source\PSoC5/USBFS_std.c **** *
  99:.\Generated_Source\PSoC5/USBFS_std.c **** * Summary:
 100:.\Generated_Source\PSoC5/USBFS_std.c **** *  Application firmware may supply the source of the USB device descriptors
 101:.\Generated_Source\PSoC5/USBFS_std.c **** *  serial number string during runtime.
 102:.\Generated_Source\PSoC5/USBFS_std.c **** *
 103:.\Generated_Source\PSoC5/USBFS_std.c **** * Parameters:
 104:.\Generated_Source\PSoC5/USBFS_std.c **** *  snString:  pointer to string.
 105:.\Generated_Source\PSoC5/USBFS_std.c **** *
 106:.\Generated_Source\PSoC5/USBFS_std.c **** * Return:
 107:.\Generated_Source\PSoC5/USBFS_std.c **** *  None.
 108:.\Generated_Source\PSoC5/USBFS_std.c **** *
 109:.\Generated_Source\PSoC5/USBFS_std.c **** * Reentrant:
 110:.\Generated_Source\PSoC5/USBFS_std.c **** *  No.
 111:.\Generated_Source\PSoC5/USBFS_std.c **** *
 112:.\Generated_Source\PSoC5/USBFS_std.c **** *******************************************************************************/
 113:.\Generated_Source\PSoC5/USBFS_std.c **** void  USBFS_SerialNumString(uint8 *snString) 
 114:.\Generated_Source\PSoC5/USBFS_std.c **** {
  49              		.loc 1 114 0
ARM GAS  C:\DOCUME~1\ADMINI~1\LOCALS~1\Temp\ccmk5fwz.s 			page 4


  50              		.cfi_startproc
  51              		@ args = 0, pretend = 0, frame = 8
  52              		@ frame_needed = 1, uses_anonymous_args = 0
  53              		@ link register save eliminated.
  54 0000 80B4     		push	{r7}
  55              	.LCFI0:
  56              		.cfi_def_cfa_offset 4
  57 0002 83B0     		sub	sp, sp, #12
  58              	.LCFI1:
  59              		.cfi_def_cfa_offset 16
  60 0004 00AF     		add	r7, sp, #0
  61              		.cfi_offset 7, -4
  62              	.LCFI2:
  63              		.cfi_def_cfa_register 7
  64 0006 7860     		str	r0, [r7, #4]
 115:.\Generated_Source\PSoC5/USBFS_std.c ****     #if defined(USBFS_ENABLE_FWSN_STRING)
 116:.\Generated_Source\PSoC5/USBFS_std.c ****         USBFS_snStringConfirm = USBFS_FALSE;
 117:.\Generated_Source\PSoC5/USBFS_std.c ****         if(snString != NULL)
 118:.\Generated_Source\PSoC5/USBFS_std.c ****         {
 119:.\Generated_Source\PSoC5/USBFS_std.c ****             USBFS_fwSerialNumberStringDescriptor = snString;
 120:.\Generated_Source\PSoC5/USBFS_std.c ****             /* check descriptor validation */
 121:.\Generated_Source\PSoC5/USBFS_std.c ****             if( (USBFS_fwSerialNumberStringDescriptor[0u] > 1u ) &&  \
 122:.\Generated_Source\PSoC5/USBFS_std.c ****                 (USBFS_fwSerialNumberStringDescriptor[1u] == USBFS_DESCR_STRING) )
 123:.\Generated_Source\PSoC5/USBFS_std.c ****             {
 124:.\Generated_Source\PSoC5/USBFS_std.c ****                 USBFS_snStringConfirm = USBFS_TRUE;
 125:.\Generated_Source\PSoC5/USBFS_std.c ****             }
 126:.\Generated_Source\PSoC5/USBFS_std.c ****         }
 127:.\Generated_Source\PSoC5/USBFS_std.c ****     #else
 128:.\Generated_Source\PSoC5/USBFS_std.c ****         snString = snString;
 129:.\Generated_Source\PSoC5/USBFS_std.c ****     #endif  /* USBFS_ENABLE_FWSN_STRING */
 130:.\Generated_Source\PSoC5/USBFS_std.c **** }
  65              		.loc 1 130 0
  66 0008 07F10C07 		add	r7, r7, #12
  67 000c BD46     		mov	sp, r7
  68 000e 80BC     		pop	{r7}
  69 0010 7047     		bx	lr
  70              		.cfi_endproc
  71              	.LFE0:
  72              		.size	USBFS_SerialNumString, .-USBFS_SerialNumString
  73 0012 00BF     		.section	.text.USBFS_HandleStandardRqst,"ax",%progbits
  74              		.align	2
  75              		.global	USBFS_HandleStandardRqst
  76              		.thumb
  77              		.thumb_func
  78              		.type	USBFS_HandleStandardRqst, %function
  79              	USBFS_HandleStandardRqst:
  80              	.LFB1:
 131:.\Generated_Source\PSoC5/USBFS_std.c **** 
 132:.\Generated_Source\PSoC5/USBFS_std.c **** 
 133:.\Generated_Source\PSoC5/USBFS_std.c **** /*******************************************************************************
 134:.\Generated_Source\PSoC5/USBFS_std.c **** * Function Name: USBFS_HandleStandardRqst
 135:.\Generated_Source\PSoC5/USBFS_std.c **** ********************************************************************************
 136:.\Generated_Source\PSoC5/USBFS_std.c **** *
 137:.\Generated_Source\PSoC5/USBFS_std.c **** * Summary:
 138:.\Generated_Source\PSoC5/USBFS_std.c **** *  This Routine dispatches standard requests
 139:.\Generated_Source\PSoC5/USBFS_std.c **** *
 140:.\Generated_Source\PSoC5/USBFS_std.c **** * Parameters:
ARM GAS  C:\DOCUME~1\ADMINI~1\LOCALS~1\Temp\ccmk5fwz.s 			page 5


 141:.\Generated_Source\PSoC5/USBFS_std.c **** *  None.
 142:.\Generated_Source\PSoC5/USBFS_std.c **** *
 143:.\Generated_Source\PSoC5/USBFS_std.c **** * Return:
 144:.\Generated_Source\PSoC5/USBFS_std.c **** *  TRUE if request handled.
 145:.\Generated_Source\PSoC5/USBFS_std.c **** *
 146:.\Generated_Source\PSoC5/USBFS_std.c **** * Reentrant:
 147:.\Generated_Source\PSoC5/USBFS_std.c **** *  No.
 148:.\Generated_Source\PSoC5/USBFS_std.c **** *
 149:.\Generated_Source\PSoC5/USBFS_std.c **** *******************************************************************************/
 150:.\Generated_Source\PSoC5/USBFS_std.c **** uint8 USBFS_HandleStandardRqst(void) 
 151:.\Generated_Source\PSoC5/USBFS_std.c **** {
  81              		.loc 1 151 0
  82              		.cfi_startproc
  83              		@ args = 0, pretend = 0, frame = 16
  84              		@ frame_needed = 1, uses_anonymous_args = 0
  85 0000 80B5     		push	{r7, lr}
  86              	.LCFI3:
  87              		.cfi_def_cfa_offset 8
  88 0002 84B0     		sub	sp, sp, #16
  89              	.LCFI4:
  90              		.cfi_def_cfa_offset 24
  91 0004 00AF     		add	r7, sp, #0
  92              		.cfi_offset 14, -4
  93              		.cfi_offset 7, -8
  94              	.LCFI5:
  95              		.cfi_def_cfa_register 7
 152:.\Generated_Source\PSoC5/USBFS_std.c ****     uint8 requestHandled = USBFS_FALSE;
  96              		.loc 1 152 0
  97 0006 4FF00003 		mov	r3, #0
  98 000a FB70     		strb	r3, [r7, #3]
 153:.\Generated_Source\PSoC5/USBFS_std.c ****     #if defined(USBFS_ENABLE_STRINGS)
 154:.\Generated_Source\PSoC5/USBFS_std.c ****         volatile uint8 *pStr = 0u;
  99              		.loc 1 154 0
 100 000c 4FF00003 		mov	r3, #0
 101 0010 7B60     		str	r3, [r7, #4]
 155:.\Generated_Source\PSoC5/USBFS_std.c ****         #if defined(USBFS_ENABLE_DESCRIPTOR_STRINGS)
 156:.\Generated_Source\PSoC5/USBFS_std.c ****             uint8 nStr;
 157:.\Generated_Source\PSoC5/USBFS_std.c ****         #endif /* USBFS_ENABLE_DESCRIPTOR_STRINGS */
 158:.\Generated_Source\PSoC5/USBFS_std.c ****     #endif /* USBFS_ENABLE_STRINGS */
 159:.\Generated_Source\PSoC5/USBFS_std.c ****     uint16 count;
 160:.\Generated_Source\PSoC5/USBFS_std.c **** 
 161:.\Generated_Source\PSoC5/USBFS_std.c ****     T_USBFS_LUT *pTmp;
 162:.\Generated_Source\PSoC5/USBFS_std.c ****     USBFS_currentTD.count = 0u;
 102              		.loc 1 162 0
 103 0012 40F20003 		movw	r3, #:lower16:USBFS_currentTD
 104 0016 C0F20003 		movt	r3, #:upper16:USBFS_currentTD
 105 001a 4FF00002 		mov	r2, #0
 106 001e 1A80     		strh	r2, [r3, #0]	@ movhi
 163:.\Generated_Source\PSoC5/USBFS_std.c **** 
 164:.\Generated_Source\PSoC5/USBFS_std.c ****     if ((CY_GET_REG8(USBFS_bmRequestType) & USBFS_RQST_DIR_MASK) == USBFS_RQST_DIR_D2H)
 107              		.loc 1 164 0
 108 0020 46F20003 		movw	r3, #:lower16:1073766400
 109 0024 C4F20003 		movt	r3, #:upper16:1073766400
 110 0028 1B78     		ldrb	r3, [r3, #0]
 111 002a DBB2     		uxtb	r3, r3
 112 002c 5BB2     		sxtb	r3, r3
 113 002e 002B     		cmp	r3, #0
ARM GAS  C:\DOCUME~1\ADMINI~1\LOCALS~1\Temp\ccmk5fwz.s 			page 6


 114 0030 80F29A81 		bge	.L4
 165:.\Generated_Source\PSoC5/USBFS_std.c ****     {
 166:.\Generated_Source\PSoC5/USBFS_std.c ****         /* Control Read */
 167:.\Generated_Source\PSoC5/USBFS_std.c ****         switch (CY_GET_REG8(USBFS_bRequest))
 115              		.loc 1 167 0
 116 0034 46F20103 		movw	r3, #:lower16:1073766401
 117 0038 C4F20003 		movt	r3, #:upper16:1073766401
 118 003c 1B78     		ldrb	r3, [r3, #0]
 119 003e DBB2     		uxtb	r3, r3
 120 0040 0A2B     		cmp	r3, #10
 121 0042 00F2E382 		bhi	.L44
 122 0046 01A2     		adr	r2, .L10
 123 0048 52F823F0 		ldr	pc, [r2, r3, lsl #2]
 124              		.align	2
 125              	.L10:
 126 004c 2D020000 		.word	.L6+1
 127 0050 0D060000 		.word	.L44+1
 128 0054 0D060000 		.word	.L44+1
 129 0058 0D060000 		.word	.L44+1
 130 005c 0D060000 		.word	.L44+1
 131 0060 0D060000 		.word	.L44+1
 132 0064 79000000 		.word	.L7+1
 133 0068 0D060000 		.word	.L44+1
 134 006c 03030000 		.word	.L8+1
 135 0070 0D060000 		.word	.L44+1
 136 0074 2F030000 		.word	.L9+1
 137              	.L7:
 168:.\Generated_Source\PSoC5/USBFS_std.c ****         {
 169:.\Generated_Source\PSoC5/USBFS_std.c ****             case USBFS_GET_DESCRIPTOR:
 170:.\Generated_Source\PSoC5/USBFS_std.c ****                 if (CY_GET_REG8(USBFS_wValueHi) == USBFS_DESCR_DEVICE)
 138              		.loc 1 170 0
 139 0078 46F20303 		movw	r3, #:lower16:1073766403
 140 007c C4F20003 		movt	r3, #:upper16:1073766403
 141 0080 1B78     		ldrb	r3, [r3, #0]
 142 0082 DBB2     		uxtb	r3, r3
 143 0084 012B     		cmp	r3, #1
 144 0086 17D1     		bne	.L11
 171:.\Generated_Source\PSoC5/USBFS_std.c ****                 {
 172:.\Generated_Source\PSoC5/USBFS_std.c ****                     pTmp = USBFS_GetDeviceTablePtr();
 145              		.loc 1 172 0
 146 0088 FFF7FEFF 		bl	USBFS_GetDeviceTablePtr
 147 008c 0346     		mov	r3, r0
 148 008e FB60     		str	r3, [r7, #12]
 173:.\Generated_Source\PSoC5/USBFS_std.c ****                     USBFS_currentTD.pData = pTmp->p_list;
 149              		.loc 1 173 0
 150 0090 FB68     		ldr	r3, [r7, #12]
 151 0092 5B68     		ldr	r3, [r3, #4]
 152 0094 1A46     		mov	r2, r3
 153 0096 40F20003 		movw	r3, #:lower16:USBFS_currentTD
 154 009a C0F20003 		movt	r3, #:upper16:USBFS_currentTD
 155 009e 5A60     		str	r2, [r3, #4]
 174:.\Generated_Source\PSoC5/USBFS_std.c ****                     USBFS_currentTD.count = USBFS_DEVICE_DESCR_LENGTH;
 156              		.loc 1 174 0
 157 00a0 40F20003 		movw	r3, #:lower16:USBFS_currentTD
 158 00a4 C0F20003 		movt	r3, #:upper16:USBFS_currentTD
 159 00a8 4FF01202 		mov	r2, #18
 160 00ac 1A80     		strh	r2, [r3, #0]	@ movhi
ARM GAS  C:\DOCUME~1\ADMINI~1\LOCALS~1\Temp\ccmk5fwz.s 			page 7


 175:.\Generated_Source\PSoC5/USBFS_std.c ****                     requestHandled  = USBFS_InitControlRead();
 161              		.loc 1 175 0
 162 00ae FFF7FEFF 		bl	USBFS_InitControlRead
 163 00b2 0346     		mov	r3, r0
 164 00b4 FB70     		strb	r3, [r7, #3]
 176:.\Generated_Source\PSoC5/USBFS_std.c ****                 }
 177:.\Generated_Source\PSoC5/USBFS_std.c ****                 else if (CY_GET_REG8(USBFS_wValueHi) == USBFS_DESCR_CONFIG)
 178:.\Generated_Source\PSoC5/USBFS_std.c ****                 {
 179:.\Generated_Source\PSoC5/USBFS_std.c ****                     pTmp = USBFS_GetConfigTablePtr(CY_GET_REG8(USBFS_wValueLo));
 180:.\Generated_Source\PSoC5/USBFS_std.c ****                     USBFS_currentTD.pData = pTmp->p_list;
 181:.\Generated_Source\PSoC5/USBFS_std.c ****                     count = ((uint16)(USBFS_currentTD.pData)[ \
 182:.\Generated_Source\PSoC5/USBFS_std.c ****                                       USBFS_CONFIG_DESCR_TOTAL_LENGTH_HI] << 8u) | \
 183:.\Generated_Source\PSoC5/USBFS_std.c ****                                      (USBFS_currentTD.pData)[USBFS_CONFIG_DESCR_TOTAL_LENGTH_LOW];
 184:.\Generated_Source\PSoC5/USBFS_std.c ****                     USBFS_currentTD.count = count;
 185:.\Generated_Source\PSoC5/USBFS_std.c ****                     requestHandled  = USBFS_InitControlRead();
 186:.\Generated_Source\PSoC5/USBFS_std.c ****                 }
 187:.\Generated_Source\PSoC5/USBFS_std.c ****                 #if defined(USBFS_ENABLE_STRINGS)
 188:.\Generated_Source\PSoC5/USBFS_std.c ****                 else if (CY_GET_REG8(USBFS_wValueHi) == USBFS_DESCR_STRING)
 189:.\Generated_Source\PSoC5/USBFS_std.c ****                 {
 190:.\Generated_Source\PSoC5/USBFS_std.c ****                     /* Descriptor Strings*/
 191:.\Generated_Source\PSoC5/USBFS_std.c ****                     #if defined(USBFS_ENABLE_DESCRIPTOR_STRINGS)
 192:.\Generated_Source\PSoC5/USBFS_std.c ****                         nStr = 0u;
 193:.\Generated_Source\PSoC5/USBFS_std.c ****                         pStr = (volatile uint8 *)&USBFS_STRING_DESCRIPTORS[0u];
 194:.\Generated_Source\PSoC5/USBFS_std.c ****                         while ( (CY_GET_REG8(USBFS_wValueLo) > nStr) && (*pStr != 0u ))
 195:.\Generated_Source\PSoC5/USBFS_std.c ****                         {
 196:.\Generated_Source\PSoC5/USBFS_std.c ****                             pStr += *pStr;
 197:.\Generated_Source\PSoC5/USBFS_std.c ****                             nStr++;
 198:.\Generated_Source\PSoC5/USBFS_std.c ****                         };
 199:.\Generated_Source\PSoC5/USBFS_std.c ****                     #endif /* End USBFS_ENABLE_DESCRIPTOR_STRINGS */
 200:.\Generated_Source\PSoC5/USBFS_std.c ****                     /* Microsoft OS String*/
 201:.\Generated_Source\PSoC5/USBFS_std.c ****                     #if defined(USBFS_ENABLE_MSOS_STRING)
 202:.\Generated_Source\PSoC5/USBFS_std.c ****                         if( CY_GET_REG8(USBFS_wValueLo) == USBFS_STRING_MSOS )
 203:.\Generated_Source\PSoC5/USBFS_std.c ****                         {
 204:.\Generated_Source\PSoC5/USBFS_std.c ****                             pStr = (volatile uint8 *)&USBFS_MSOS_DESCRIPTOR[0u];
 205:.\Generated_Source\PSoC5/USBFS_std.c ****                         }
 206:.\Generated_Source\PSoC5/USBFS_std.c ****                     #endif /* End USBFS_ENABLE_MSOS_STRING*/
 207:.\Generated_Source\PSoC5/USBFS_std.c ****                     /* SN string*/
 208:.\Generated_Source\PSoC5/USBFS_std.c ****                     #if defined(USBFS_ENABLE_SN_STRING)
 209:.\Generated_Source\PSoC5/USBFS_std.c ****                         if( (CY_GET_REG8(USBFS_wValueLo) != 0) && 
 210:.\Generated_Source\PSoC5/USBFS_std.c ****                             (CY_GET_REG8(USBFS_wValueLo) == 
 211:.\Generated_Source\PSoC5/USBFS_std.c ****                             USBFS_DEVICE0_DESCR[USBFS_DEVICE_DESCR_SN_SHIFT]) )
 212:.\Generated_Source\PSoC5/USBFS_std.c ****                         {
 213:.\Generated_Source\PSoC5/USBFS_std.c ****                             pStr = (volatile uint8 *)&USBFS_SN_STRING_DESCRIPTOR[0u];
 214:.\Generated_Source\PSoC5/USBFS_std.c ****                             if(USBFS_snStringConfirm != USBFS_FALSE)
 215:.\Generated_Source\PSoC5/USBFS_std.c ****                             {
 216:.\Generated_Source\PSoC5/USBFS_std.c ****                                 pStr = USBFS_fwSerialNumberStringDescriptor;
 217:.\Generated_Source\PSoC5/USBFS_std.c ****                             }
 218:.\Generated_Source\PSoC5/USBFS_std.c ****                             #if defined(USBFS_ENABLE_IDSN_STRING)
 219:.\Generated_Source\PSoC5/USBFS_std.c ****                                 /* Read DIE ID and genarete string descriptor in RAM*/
 220:.\Generated_Source\PSoC5/USBFS_std.c ****                                 USBFS_ReadDieID(USBFS_idSerialNumberStringDescriptor);
 221:.\Generated_Source\PSoC5/USBFS_std.c ****                                 pStr = USBFS_idSerialNumberStringDescriptor;
 222:.\Generated_Source\PSoC5/USBFS_std.c ****                             #endif    /* End USBFS_ENABLE_IDSN_STRING */
 223:.\Generated_Source\PSoC5/USBFS_std.c ****                         }
 224:.\Generated_Source\PSoC5/USBFS_std.c ****                     #endif    /* End USBFS_ENABLE_SN_STRING */
 225:.\Generated_Source\PSoC5/USBFS_std.c ****                     if (*pStr != 0u)
 226:.\Generated_Source\PSoC5/USBFS_std.c ****                     {
 227:.\Generated_Source\PSoC5/USBFS_std.c ****                         USBFS_currentTD.count = *pStr;
ARM GAS  C:\DOCUME~1\ADMINI~1\LOCALS~1\Temp\ccmk5fwz.s 			page 8


 228:.\Generated_Source\PSoC5/USBFS_std.c ****                         USBFS_currentTD.pData = pStr;
 229:.\Generated_Source\PSoC5/USBFS_std.c ****                         requestHandled  = USBFS_InitControlRead();
 230:.\Generated_Source\PSoC5/USBFS_std.c ****                     }
 231:.\Generated_Source\PSoC5/USBFS_std.c ****                 }
 232:.\Generated_Source\PSoC5/USBFS_std.c ****                 #endif /* End USBFS_ENABLE_STRINGS */
 233:.\Generated_Source\PSoC5/USBFS_std.c ****                 else
 234:.\Generated_Source\PSoC5/USBFS_std.c ****                 {
 235:.\Generated_Source\PSoC5/USBFS_std.c ****                     requestHandled = USBFS_DispatchClassRqst();
 236:.\Generated_Source\PSoC5/USBFS_std.c ****                 }
 237:.\Generated_Source\PSoC5/USBFS_std.c ****                 break;
 165              		.loc 1 237 0
 166 00b6 B8E2     		b	.L24
 167              	.L11:
 168              		.loc 1 177 0
 169 00b8 46F20303 		movw	r3, #:lower16:1073766403
 170 00bc C4F20003 		movt	r3, #:upper16:1073766403
 171 00c0 1B78     		ldrb	r3, [r3, #0]
 172 00c2 DBB2     		uxtb	r3, r3
 173 00c4 022B     		cmp	r3, #2
 174 00c6 36D1     		bne	.L13
 175              		.loc 1 179 0
 176 00c8 46F20203 		movw	r3, #:lower16:1073766402
 177 00cc C4F20003 		movt	r3, #:upper16:1073766402
 178 00d0 1B78     		ldrb	r3, [r3, #0]
 179 00d2 DBB2     		uxtb	r3, r3
 180 00d4 1846     		mov	r0, r3
 181 00d6 FFF7FEFF 		bl	USBFS_GetConfigTablePtr
 182 00da 0346     		mov	r3, r0
 183 00dc FB60     		str	r3, [r7, #12]
 184              		.loc 1 180 0
 185 00de FB68     		ldr	r3, [r7, #12]
 186 00e0 5B68     		ldr	r3, [r3, #4]
 187 00e2 1A46     		mov	r2, r3
 188 00e4 40F20003 		movw	r3, #:lower16:USBFS_currentTD
 189 00e8 C0F20003 		movt	r3, #:upper16:USBFS_currentTD
 190 00ec 5A60     		str	r2, [r3, #4]
 191              		.loc 1 181 0
 192 00ee 40F20003 		movw	r3, #:lower16:USBFS_currentTD
 193 00f2 C0F20003 		movt	r3, #:upper16:USBFS_currentTD
 194 00f6 5B68     		ldr	r3, [r3, #4]
 195 00f8 03F10303 		add	r3, r3, #3
 196 00fc 1B78     		ldrb	r3, [r3, #0]
 197 00fe DBB2     		uxtb	r3, r3
 198 0100 4FEA0323 		lsl	r3, r3, #8
 199 0104 9AB2     		uxth	r2, r3
 200              		.loc 1 183 0
 201 0106 40F20003 		movw	r3, #:lower16:USBFS_currentTD
 202 010a C0F20003 		movt	r3, #:upper16:USBFS_currentTD
 203 010e 5B68     		ldr	r3, [r3, #4]
 204 0110 03F10203 		add	r3, r3, #2
 205 0114 1B78     		ldrb	r3, [r3, #0]
 206 0116 DBB2     		uxtb	r3, r3
 207              		.loc 1 181 0
 208 0118 42EA0303 		orr	r3, r2, r3
 209 011c 9BB2     		uxth	r3, r3
 210 011e 7B81     		strh	r3, [r7, #10]	@ movhi
 211              		.loc 1 184 0
ARM GAS  C:\DOCUME~1\ADMINI~1\LOCALS~1\Temp\ccmk5fwz.s 			page 9


 212 0120 40F20003 		movw	r3, #:lower16:USBFS_currentTD
 213 0124 C0F20003 		movt	r3, #:upper16:USBFS_currentTD
 214 0128 7A89     		ldrh	r2, [r7, #10]	@ movhi
 215 012a 1A80     		strh	r2, [r3, #0]	@ movhi
 216              		.loc 1 185 0
 217 012c FFF7FEFF 		bl	USBFS_InitControlRead
 218 0130 0346     		mov	r3, r0
 219 0132 FB70     		strb	r3, [r7, #3]
 220              		.loc 1 237 0
 221 0134 79E2     		b	.L24
 222              	.L13:
 223              		.loc 1 188 0
 224 0136 46F20303 		movw	r3, #:lower16:1073766403
 225 013a C4F20003 		movt	r3, #:upper16:1073766403
 226 013e 1B78     		ldrb	r3, [r3, #0]
 227 0140 DBB2     		uxtb	r3, r3
 228 0142 032B     		cmp	r3, #3
 229 0144 6DD1     		bne	.L14
 230              		.loc 1 192 0
 231 0146 4FF00003 		mov	r3, #0
 232 014a 7B72     		strb	r3, [r7, #9]
 233              		.loc 1 193 0
 234 014c 40F20003 		movw	r3, #:lower16:USBFS_STRING_DESCRIPTORS
 235 0150 C0F20003 		movt	r3, #:upper16:USBFS_STRING_DESCRIPTORS
 236 0154 7B60     		str	r3, [r7, #4]
 237              		.loc 1 194 0
 238 0156 09E0     		b	.L15
 239              	.L17:
 240              		.loc 1 196 0
 241 0158 7B68     		ldr	r3, [r7, #4]
 242 015a 1B78     		ldrb	r3, [r3, #0]
 243 015c DBB2     		uxtb	r3, r3
 244 015e 7A68     		ldr	r2, [r7, #4]
 245 0160 1344     		add	r3, r2, r3
 246 0162 7B60     		str	r3, [r7, #4]
 247              		.loc 1 197 0
 248 0164 7B7A     		ldrb	r3, [r7, #9]
 249 0166 03F10103 		add	r3, r3, #1
 250 016a 7B72     		strb	r3, [r7, #9]
 251              	.L15:
 252              		.loc 1 194 0
 253 016c 46F20203 		movw	r3, #:lower16:1073766402
 254 0170 C4F20003 		movt	r3, #:upper16:1073766402
 255 0174 1B78     		ldrb	r3, [r3, #0]
 256 0176 DBB2     		uxtb	r3, r3
 257 0178 7A7A     		ldrb	r2, [r7, #9]	@ zero_extendqisi2
 258 017a 9A42     		cmp	r2, r3
 259 017c 04D2     		bcs	.L16
 260 017e 7B68     		ldr	r3, [r7, #4]
 261 0180 1B78     		ldrb	r3, [r3, #0]
 262 0182 DBB2     		uxtb	r3, r3
 263 0184 002B     		cmp	r3, #0
 264 0186 E7D1     		bne	.L17
 265              	.L16:
 266              		.loc 1 209 0
 267 0188 46F20203 		movw	r3, #:lower16:1073766402
 268 018c C4F20003 		movt	r3, #:upper16:1073766402
ARM GAS  C:\DOCUME~1\ADMINI~1\LOCALS~1\Temp\ccmk5fwz.s 			page 10


 269 0190 1B78     		ldrb	r3, [r3, #0]
 270 0192 DBB2     		uxtb	r3, r3
 271 0194 002B     		cmp	r3, #0
 272 0196 2AD0     		beq	.L18
 273              		.loc 1 210 0
 274 0198 46F20203 		movw	r3, #:lower16:1073766402
 275 019c C4F20003 		movt	r3, #:upper16:1073766402
 276 01a0 1B78     		ldrb	r3, [r3, #0]
 277 01a2 DAB2     		uxtb	r2, r3
 278              		.loc 1 211 0
 279 01a4 40F20003 		movw	r3, #:lower16:USBFS_DEVICE0_DESCR
 280 01a8 C0F20003 		movt	r3, #:upper16:USBFS_DEVICE0_DESCR
 281 01ac 1B7C     		ldrb	r3, [r3, #16]	@ zero_extendqisi2
 282              		.loc 1 209 0
 283 01ae 9A42     		cmp	r2, r3
 284 01b0 1DD1     		bne	.L18
 285              		.loc 1 213 0
 286 01b2 40F20003 		movw	r3, #:lower16:USBFS_SN_STRING_DESCRIPTOR
 287 01b6 C0F20003 		movt	r3, #:upper16:USBFS_SN_STRING_DESCRIPTOR
 288 01ba 7B60     		str	r3, [r7, #4]
 289              		.loc 1 214 0
 290 01bc 40F20003 		movw	r3, #:lower16:USBFS_snStringConfirm
 291 01c0 C0F20003 		movt	r3, #:upper16:USBFS_snStringConfirm
 292 01c4 1B78     		ldrb	r3, [r3, #0]
 293 01c6 DBB2     		uxtb	r3, r3
 294 01c8 002B     		cmp	r3, #0
 295 01ca 05D0     		beq	.L19
 296              		.loc 1 216 0
 297 01cc 40F20003 		movw	r3, #:lower16:USBFS_fwSerialNumberStringDescriptor
 298 01d0 C0F20003 		movt	r3, #:upper16:USBFS_fwSerialNumberStringDescriptor
 299 01d4 1B68     		ldr	r3, [r3, #0]
 300 01d6 7B60     		str	r3, [r7, #4]
 301              	.L19:
 302              		.loc 1 220 0
 303 01d8 40F20000 		movw	r0, #:lower16:USBFS_idSerialNumberStringDescriptor
 304 01dc C0F20000 		movt	r0, #:upper16:USBFS_idSerialNumberStringDescriptor
 305 01e0 FFF7FEFF 		bl	USBFS_ReadDieID
 306              		.loc 1 221 0
 307 01e4 40F20003 		movw	r3, #:lower16:USBFS_idSerialNumberStringDescriptor
 308 01e8 C0F20003 		movt	r3, #:upper16:USBFS_idSerialNumberStringDescriptor
 309 01ec 7B60     		str	r3, [r7, #4]
 310              	.L18:
 311              		.loc 1 225 0
 312 01ee 7B68     		ldr	r3, [r7, #4]
 313 01f0 1B78     		ldrb	r3, [r3, #0]
 314 01f2 DBB2     		uxtb	r3, r3
 315 01f4 002B     		cmp	r3, #0
 316 01f6 00F00B82 		beq	.L45
 317              		.loc 1 227 0
 318 01fa 7B68     		ldr	r3, [r7, #4]
 319 01fc 1B78     		ldrb	r3, [r3, #0]
 320 01fe DBB2     		uxtb	r3, r3
 321 0200 1A46     		mov	r2, r3
 322 0202 40F20003 		movw	r3, #:lower16:USBFS_currentTD
 323 0206 C0F20003 		movt	r3, #:upper16:USBFS_currentTD
 324 020a 1A80     		strh	r2, [r3, #0]	@ movhi
 325              		.loc 1 228 0
ARM GAS  C:\DOCUME~1\ADMINI~1\LOCALS~1\Temp\ccmk5fwz.s 			page 11


 326 020c 40F20003 		movw	r3, #:lower16:USBFS_currentTD
 327 0210 C0F20003 		movt	r3, #:upper16:USBFS_currentTD
 328 0214 7A68     		ldr	r2, [r7, #4]
 329 0216 5A60     		str	r2, [r3, #4]
 330              		.loc 1 229 0
 331 0218 FFF7FEFF 		bl	USBFS_InitControlRead
 332 021c 0346     		mov	r3, r0
 333 021e FB70     		strb	r3, [r7, #3]
 334              		.loc 1 237 0
 335 0220 03E2     		b	.L24
 336              	.L14:
 337              		.loc 1 235 0
 338 0222 FFF7FEFF 		bl	USBFS_DispatchClassRqst
 339 0226 0346     		mov	r3, r0
 340 0228 FB70     		strb	r3, [r7, #3]
 341              		.loc 1 237 0
 342 022a FEE1     		b	.L24
 343              	.L6:
 238:.\Generated_Source\PSoC5/USBFS_std.c ****             case USBFS_GET_STATUS:
 239:.\Generated_Source\PSoC5/USBFS_std.c ****                 switch ((CY_GET_REG8(USBFS_bmRequestType) & USBFS_RQST_RCPT_MASK))
 344              		.loc 1 239 0
 345 022c 46F20003 		movw	r3, #:lower16:1073766400
 346 0230 C4F20003 		movt	r3, #:upper16:1073766400
 347 0234 1B78     		ldrb	r3, [r3, #0]
 348 0236 DBB2     		uxtb	r3, r3
 349 0238 03F00303 		and	r3, r3, #3
 350 023c 002B     		cmp	r3, #0
 351 023e 39D0     		beq	.L22
 352 0240 022B     		cmp	r3, #2
 353 0242 40F0E781 		bne	.L46
 354              	.L23:
 240:.\Generated_Source\PSoC5/USBFS_std.c ****                 {
 241:.\Generated_Source\PSoC5/USBFS_std.c ****                     case USBFS_RQST_RCPT_EP:
 242:.\Generated_Source\PSoC5/USBFS_std.c ****                         USBFS_currentTD.count = USBFS_EP_STATUS_LENGTH;
 355              		.loc 1 242 0
 356 0246 40F20003 		movw	r3, #:lower16:USBFS_currentTD
 357 024a C0F20003 		movt	r3, #:upper16:USBFS_currentTD
 358 024e 4FF00202 		mov	r2, #2
 359 0252 1A80     		strh	r2, [r3, #0]	@ movhi
 243:.\Generated_Source\PSoC5/USBFS_std.c ****                         USBFS_tBuffer[0] = USBFS_EP[ \
 244:.\Generated_Source\PSoC5/USBFS_std.c ****                                         CY_GET_REG8(USBFS_wIndexLo) & USBFS_DIR_UNUSED].hwEpState;
 360              		.loc 1 244 0
 361 0254 46F20403 		movw	r3, #:lower16:1073766404
 362 0258 C4F20003 		movt	r3, #:upper16:1073766404
 363 025c 1B78     		ldrb	r3, [r3, #0]
 364 025e DBB2     		uxtb	r3, r3
 365 0260 03F07F01 		and	r1, r3, #127
 366              		.loc 1 243 0
 367 0264 40F20002 		movw	r2, #:lower16:USBFS_EP
 368 0268 C0F20002 		movt	r2, #:upper16:USBFS_EP
 369 026c 0B46     		mov	r3, r1
 370 026e 4FEA4303 		lsl	r3, r3, #1
 371 0272 0B44     		add	r3, r3, r1
 372 0274 4FEA8303 		lsl	r3, r3, #2
 373 0278 1344     		add	r3, r3, r2
 374 027a 9B78     		ldrb	r3, [r3, #2]
 375 027c DAB2     		uxtb	r2, r3
ARM GAS  C:\DOCUME~1\ADMINI~1\LOCALS~1\Temp\ccmk5fwz.s 			page 12


 376 027e 40F20003 		movw	r3, #:lower16:USBFS_tBuffer
 377 0282 C0F20003 		movt	r3, #:upper16:USBFS_tBuffer
 378 0286 1A70     		strb	r2, [r3, #0]
 245:.\Generated_Source\PSoC5/USBFS_std.c ****                         USBFS_tBuffer[1] = 0u;
 379              		.loc 1 245 0
 380 0288 40F20003 		movw	r3, #:lower16:USBFS_tBuffer
 381 028c C0F20003 		movt	r3, #:upper16:USBFS_tBuffer
 382 0290 4FF00002 		mov	r2, #0
 383 0294 5A70     		strb	r2, [r3, #1]
 246:.\Generated_Source\PSoC5/USBFS_std.c ****                         USBFS_currentTD.pData = &USBFS_tBuffer[0u];
 384              		.loc 1 246 0
 385 0296 40F20003 		movw	r3, #:lower16:USBFS_currentTD
 386 029a C0F20003 		movt	r3, #:upper16:USBFS_currentTD
 387 029e 40F20002 		movw	r2, #:lower16:USBFS_tBuffer
 388 02a2 C0F20002 		movt	r2, #:upper16:USBFS_tBuffer
 389 02a6 5A60     		str	r2, [r3, #4]
 247:.\Generated_Source\PSoC5/USBFS_std.c ****                         requestHandled  = USBFS_InitControlRead();
 390              		.loc 1 247 0
 391 02a8 FFF7FEFF 		bl	USBFS_InitControlRead
 392 02ac 0346     		mov	r3, r0
 393 02ae FB70     		strb	r3, [r7, #3]
 248:.\Generated_Source\PSoC5/USBFS_std.c ****                         break;
 394              		.loc 1 248 0
 395 02b0 00BF     		nop
 249:.\Generated_Source\PSoC5/USBFS_std.c ****                     case USBFS_RQST_RCPT_DEV:
 250:.\Generated_Source\PSoC5/USBFS_std.c ****                         USBFS_currentTD.count = USBFS_DEVICE_STATUS_LENGTH;
 251:.\Generated_Source\PSoC5/USBFS_std.c ****                         USBFS_tBuffer[0u] = USBFS_deviceStatus;
 252:.\Generated_Source\PSoC5/USBFS_std.c ****                         USBFS_tBuffer[1u] = 0u;
 253:.\Generated_Source\PSoC5/USBFS_std.c ****                         USBFS_currentTD.pData = &USBFS_tBuffer[0u];
 254:.\Generated_Source\PSoC5/USBFS_std.c ****                         requestHandled  = USBFS_InitControlRead();
 255:.\Generated_Source\PSoC5/USBFS_std.c ****                         break;
 256:.\Generated_Source\PSoC5/USBFS_std.c ****                     default:    /* requestHandled is initialezed as FALSE by default */
 257:.\Generated_Source\PSoC5/USBFS_std.c ****                         break;
 258:.\Generated_Source\PSoC5/USBFS_std.c ****                 }
 259:.\Generated_Source\PSoC5/USBFS_std.c ****                 break;
 396              		.loc 1 259 0
 397 02b2 BAE1     		b	.L24
 398              	.L22:
 399              		.loc 1 250 0
 400 02b4 40F20003 		movw	r3, #:lower16:USBFS_currentTD
 401 02b8 C0F20003 		movt	r3, #:upper16:USBFS_currentTD
 402 02bc 4FF00202 		mov	r2, #2
 403 02c0 1A80     		strh	r2, [r3, #0]	@ movhi
 404              		.loc 1 251 0
 405 02c2 40F20003 		movw	r3, #:lower16:USBFS_deviceStatus
 406 02c6 C0F20003 		movt	r3, #:upper16:USBFS_deviceStatus
 407 02ca 1B78     		ldrb	r3, [r3, #0]
 408 02cc DAB2     		uxtb	r2, r3
 409 02ce 40F20003 		movw	r3, #:lower16:USBFS_tBuffer
 410 02d2 C0F20003 		movt	r3, #:upper16:USBFS_tBuffer
 411 02d6 1A70     		strb	r2, [r3, #0]
 412              		.loc 1 252 0
 413 02d8 40F20003 		movw	r3, #:lower16:USBFS_tBuffer
 414 02dc C0F20003 		movt	r3, #:upper16:USBFS_tBuffer
 415 02e0 4FF00002 		mov	r2, #0
 416 02e4 5A70     		strb	r2, [r3, #1]
 417              		.loc 1 253 0
ARM GAS  C:\DOCUME~1\ADMINI~1\LOCALS~1\Temp\ccmk5fwz.s 			page 13


 418 02e6 40F20003 		movw	r3, #:lower16:USBFS_currentTD
 419 02ea C0F20003 		movt	r3, #:upper16:USBFS_currentTD
 420 02ee 40F20002 		movw	r2, #:lower16:USBFS_tBuffer
 421 02f2 C0F20002 		movt	r2, #:upper16:USBFS_tBuffer
 422 02f6 5A60     		str	r2, [r3, #4]
 423              		.loc 1 254 0
 424 02f8 FFF7FEFF 		bl	USBFS_InitControlRead
 425 02fc 0346     		mov	r3, r0
 426 02fe FB70     		strb	r3, [r7, #3]
 427              		.loc 1 259 0
 428 0300 93E1     		b	.L24
 429              	.L8:
 260:.\Generated_Source\PSoC5/USBFS_std.c ****             case USBFS_GET_CONFIGURATION:
 261:.\Generated_Source\PSoC5/USBFS_std.c ****                 USBFS_currentTD.count = 1u;
 430              		.loc 1 261 0
 431 0302 40F20003 		movw	r3, #:lower16:USBFS_currentTD
 432 0306 C0F20003 		movt	r3, #:upper16:USBFS_currentTD
 433 030a 4FF00102 		mov	r2, #1
 434 030e 1A80     		strh	r2, [r3, #0]	@ movhi
 262:.\Generated_Source\PSoC5/USBFS_std.c ****                 USBFS_currentTD.pData = (uint8 *)&USBFS_configuration;
 435              		.loc 1 262 0
 436 0310 40F20003 		movw	r3, #:lower16:USBFS_currentTD
 437 0314 C0F20003 		movt	r3, #:upper16:USBFS_currentTD
 438 0318 40F20002 		movw	r2, #:lower16:USBFS_configuration
 439 031c C0F20002 		movt	r2, #:upper16:USBFS_configuration
 440 0320 5A60     		str	r2, [r3, #4]
 263:.\Generated_Source\PSoC5/USBFS_std.c ****                 requestHandled  = USBFS_InitControlRead();
 441              		.loc 1 263 0
 442 0322 FFF7FEFF 		bl	USBFS_InitControlRead
 443 0326 0346     		mov	r3, r0
 444 0328 FB70     		strb	r3, [r7, #3]
 264:.\Generated_Source\PSoC5/USBFS_std.c ****                 break;
 445              		.loc 1 264 0
 446 032a 00BF     		nop
 447 032c 7DE1     		b	.L24
 448              	.L9:
 265:.\Generated_Source\PSoC5/USBFS_std.c ****             case USBFS_GET_INTERFACE:
 266:.\Generated_Source\PSoC5/USBFS_std.c ****                 USBFS_currentTD.count = 1u;
 449              		.loc 1 266 0
 450 032e 40F20003 		movw	r3, #:lower16:USBFS_currentTD
 451 0332 C0F20003 		movt	r3, #:upper16:USBFS_currentTD
 452 0336 4FF00102 		mov	r2, #1
 453 033a 1A80     		strh	r2, [r3, #0]	@ movhi
 267:.\Generated_Source\PSoC5/USBFS_std.c ****                 USBFS_currentTD.pData = (uint8 *)&USBFS_interfaceSetting[ \
 268:.\Generated_Source\PSoC5/USBFS_std.c ****                                                                             CY_GET_REG8(USBFS_wInde
 454              		.loc 1 268 0
 455 033c 46F20403 		movw	r3, #:lower16:1073766404
 456 0340 C4F20003 		movt	r3, #:upper16:1073766404
 457 0344 1B78     		ldrb	r3, [r3, #0]
 458 0346 DBB2     		uxtb	r3, r3
 459              		.loc 1 267 0
 460 0348 1A46     		mov	r2, r3
 461 034a 40F20003 		movw	r3, #:lower16:USBFS_interfaceSetting
 462 034e C0F20003 		movt	r3, #:upper16:USBFS_interfaceSetting
 463 0352 1A44     		add	r2, r2, r3
 464 0354 40F20003 		movw	r3, #:lower16:USBFS_currentTD
 465 0358 C0F20003 		movt	r3, #:upper16:USBFS_currentTD
ARM GAS  C:\DOCUME~1\ADMINI~1\LOCALS~1\Temp\ccmk5fwz.s 			page 14


 466 035c 5A60     		str	r2, [r3, #4]
 269:.\Generated_Source\PSoC5/USBFS_std.c ****                 requestHandled  = USBFS_InitControlRead();
 467              		.loc 1 269 0
 468 035e FFF7FEFF 		bl	USBFS_InitControlRead
 469 0362 0346     		mov	r3, r0
 470 0364 FB70     		strb	r3, [r7, #3]
 471 0366 60E1     		b	.L24
 472              	.L4:
 270:.\Generated_Source\PSoC5/USBFS_std.c ****                 break;
 271:.\Generated_Source\PSoC5/USBFS_std.c ****             default: /* requestHandled is initialezed as FALSE by default */
 272:.\Generated_Source\PSoC5/USBFS_std.c ****                 break;
 273:.\Generated_Source\PSoC5/USBFS_std.c ****         }
 274:.\Generated_Source\PSoC5/USBFS_std.c ****     }
 275:.\Generated_Source\PSoC5/USBFS_std.c ****     else {
 276:.\Generated_Source\PSoC5/USBFS_std.c ****         /* Control Write */
 277:.\Generated_Source\PSoC5/USBFS_std.c ****         switch (CY_GET_REG8(USBFS_bRequest))
 473              		.loc 1 277 0
 474 0368 46F20103 		movw	r3, #:lower16:1073766401
 475 036c C4F20003 		movt	r3, #:upper16:1073766401
 476 0370 1B78     		ldrb	r3, [r3, #0]
 477 0372 DBB2     		uxtb	r3, r3
 478 0374 03F1FF33 		add	r3, r3, #-1
 479 0378 0A2B     		cmp	r3, #10
 480 037a 00F25681 		bhi	.L24
 481 037e 01A2     		adr	r2, .L30
 482 0380 52F823F0 		ldr	pc, [r2, r3, lsl #2]
 483              		.align	2
 484              	.L30:
 485 0384 77040000 		.word	.L25+1
 486 0388 2B060000 		.word	.L24+1
 487 038c 45050000 		.word	.L26+1
 488 0390 2B060000 		.word	.L24+1
 489 0394 B1030000 		.word	.L27+1
 490 0398 2B060000 		.word	.L24+1
 491 039c 2B060000 		.word	.L24+1
 492 03a0 2B060000 		.word	.L24+1
 493 03a4 D1030000 		.word	.L28+1
 494 03a8 2B060000 		.word	.L24+1
 495 03ac 07040000 		.word	.L29+1
 496              	.L27:
 278:.\Generated_Source\PSoC5/USBFS_std.c ****         {
 279:.\Generated_Source\PSoC5/USBFS_std.c ****             case USBFS_SET_ADDRESS:
 280:.\Generated_Source\PSoC5/USBFS_std.c ****                 USBFS_deviceAddress = CY_GET_REG8(USBFS_wValueLo);
 497              		.loc 1 280 0
 498 03b0 46F20203 		movw	r3, #:lower16:1073766402
 499 03b4 C4F20003 		movt	r3, #:upper16:1073766402
 500 03b8 1B78     		ldrb	r3, [r3, #0]
 501 03ba DAB2     		uxtb	r2, r3
 502 03bc 40F20003 		movw	r3, #:lower16:USBFS_deviceAddress
 503 03c0 C0F20003 		movt	r3, #:upper16:USBFS_deviceAddress
 504 03c4 1A70     		strb	r2, [r3, #0]
 281:.\Generated_Source\PSoC5/USBFS_std.c ****                 requestHandled = USBFS_InitNoDataControlTransfer();
 505              		.loc 1 281 0
 506 03c6 FFF7FEFF 		bl	USBFS_InitNoDataControlTransfer
 507 03ca 0346     		mov	r3, r0
 508 03cc FB70     		strb	r3, [r7, #3]
 282:.\Generated_Source\PSoC5/USBFS_std.c ****                 break;
ARM GAS  C:\DOCUME~1\ADMINI~1\LOCALS~1\Temp\ccmk5fwz.s 			page 15


 509              		.loc 1 282 0
 510 03ce 2CE1     		b	.L24
 511              	.L28:
 283:.\Generated_Source\PSoC5/USBFS_std.c ****             case USBFS_SET_CONFIGURATION:
 284:.\Generated_Source\PSoC5/USBFS_std.c ****                 USBFS_configuration = CY_GET_REG8(USBFS_wValueLo);
 512              		.loc 1 284 0
 513 03d0 46F20203 		movw	r3, #:lower16:1073766402
 514 03d4 C4F20003 		movt	r3, #:upper16:1073766402
 515 03d8 1B78     		ldrb	r3, [r3, #0]
 516 03da DAB2     		uxtb	r2, r3
 517 03dc 40F20003 		movw	r3, #:lower16:USBFS_configuration
 518 03e0 C0F20003 		movt	r3, #:upper16:USBFS_configuration
 519 03e4 1A70     		strb	r2, [r3, #0]
 285:.\Generated_Source\PSoC5/USBFS_std.c ****                 USBFS_configurationChanged = USBFS_TRUE;
 520              		.loc 1 285 0
 521 03e6 40F20003 		movw	r3, #:lower16:USBFS_configurationChanged
 522 03ea C0F20003 		movt	r3, #:upper16:USBFS_configurationChanged
 523 03ee 4FF00102 		mov	r2, #1
 524 03f2 1A70     		strb	r2, [r3, #0]
 286:.\Generated_Source\PSoC5/USBFS_std.c ****                 USBFS_Config(USBFS_TRUE);
 525              		.loc 1 286 0
 526 03f4 4FF00100 		mov	r0, #1
 527 03f8 FFF7FEFF 		bl	USBFS_Config
 287:.\Generated_Source\PSoC5/USBFS_std.c ****                 requestHandled = USBFS_InitNoDataControlTransfer();
 528              		.loc 1 287 0
 529 03fc FFF7FEFF 		bl	USBFS_InitNoDataControlTransfer
 530 0400 0346     		mov	r3, r0
 531 0402 FB70     		strb	r3, [r7, #3]
 288:.\Generated_Source\PSoC5/USBFS_std.c ****                 break;
 532              		.loc 1 288 0
 533 0404 11E1     		b	.L24
 534              	.L29:
 289:.\Generated_Source\PSoC5/USBFS_std.c ****             case USBFS_SET_INTERFACE:
 290:.\Generated_Source\PSoC5/USBFS_std.c ****                 if (USBFS_ValidateAlternateSetting())
 535              		.loc 1 290 0
 536 0406 FFF7FEFF 		bl	USBFS_ValidateAlternateSetting
 537 040a 0346     		mov	r3, r0
 538 040c 002B     		cmp	r3, #0
 539 040e 00F00381 		beq	.L47
 291:.\Generated_Source\PSoC5/USBFS_std.c ****                 {
 292:.\Generated_Source\PSoC5/USBFS_std.c ****                     USBFS_interfaceNumber = CY_GET_REG8(USBFS_wIndexLo);
 540              		.loc 1 292 0
 541 0412 46F20403 		movw	r3, #:lower16:1073766404
 542 0416 C4F20003 		movt	r3, #:upper16:1073766404
 543 041a 1B78     		ldrb	r3, [r3, #0]
 544 041c DAB2     		uxtb	r2, r3
 545 041e 40F20003 		movw	r3, #:lower16:USBFS_interfaceNumber
 546 0422 C0F20003 		movt	r3, #:upper16:USBFS_interfaceNumber
 547 0426 1A70     		strb	r2, [r3, #0]
 293:.\Generated_Source\PSoC5/USBFS_std.c ****                     USBFS_configurationChanged = USBFS_TRUE;
 548              		.loc 1 293 0
 549 0428 40F20003 		movw	r3, #:lower16:USBFS_configurationChanged
 550 042c C0F20003 		movt	r3, #:upper16:USBFS_configurationChanged
 551 0430 4FF00102 		mov	r2, #1
 552 0434 1A70     		strb	r2, [r3, #0]
 294:.\Generated_Source\PSoC5/USBFS_std.c ****                     #if ((USBFS_EP_MA == USBFS__MA_DYNAMIC) && \
 295:.\Generated_Source\PSoC5/USBFS_std.c ****                          (USBFS_EP_MM == USBFS__EP_MANUAL) )
ARM GAS  C:\DOCUME~1\ADMINI~1\LOCALS~1\Temp\ccmk5fwz.s 			page 16


 296:.\Generated_Source\PSoC5/USBFS_std.c ****                         USBFS_Config(USBFS_FALSE);
 297:.\Generated_Source\PSoC5/USBFS_std.c ****                     #else
 298:.\Generated_Source\PSoC5/USBFS_std.c ****                         USBFS_ConfigAltChanged();
 553              		.loc 1 298 0
 554 0436 FFF7FEFF 		bl	USBFS_ConfigAltChanged
 299:.\Generated_Source\PSoC5/USBFS_std.c ****                     #endif /* End (USBFS_EP_MA == USBFS__MA_DYNAMIC) */
 300:.\Generated_Source\PSoC5/USBFS_std.c ****                     /* Update handled Alt setting changes status */
 301:.\Generated_Source\PSoC5/USBFS_std.c ****                     USBFS_interfaceSetting_last[USBFS_interfaceNumber] = 
 555              		.loc 1 301 0
 556 043a 40F20003 		movw	r3, #:lower16:USBFS_interfaceNumber
 557 043e C0F20003 		movt	r3, #:upper16:USBFS_interfaceNumber
 558 0442 1B78     		ldrb	r3, [r3, #0]
 559 0444 DBB2     		uxtb	r3, r3
 560 0446 1A46     		mov	r2, r3
 302:.\Generated_Source\PSoC5/USBFS_std.c ****                          USBFS_interfaceSetting[USBFS_interfaceNumber];
 561              		.loc 1 302 0
 562 0448 40F20003 		movw	r3, #:lower16:USBFS_interfaceNumber
 563 044c C0F20003 		movt	r3, #:upper16:USBFS_interfaceNumber
 564 0450 1B78     		ldrb	r3, [r3, #0]
 565 0452 DBB2     		uxtb	r3, r3
 566 0454 1946     		mov	r1, r3
 567 0456 40F20003 		movw	r3, #:lower16:USBFS_interfaceSetting
 568 045a C0F20003 		movt	r3, #:upper16:USBFS_interfaceSetting
 569 045e 5B5C     		ldrb	r3, [r3, r1]
 570 0460 D9B2     		uxtb	r1, r3
 571              		.loc 1 301 0
 572 0462 40F20003 		movw	r3, #:lower16:USBFS_interfaceSetting_last
 573 0466 C0F20003 		movt	r3, #:upper16:USBFS_interfaceSetting_last
 574 046a 9954     		strb	r1, [r3, r2]
 303:.\Generated_Source\PSoC5/USBFS_std.c ****                     requestHandled = USBFS_InitNoDataControlTransfer();
 575              		.loc 1 303 0
 576 046c FFF7FEFF 		bl	USBFS_InitNoDataControlTransfer
 577 0470 0346     		mov	r3, r0
 578 0472 FB70     		strb	r3, [r7, #3]
 304:.\Generated_Source\PSoC5/USBFS_std.c ****                 }
 305:.\Generated_Source\PSoC5/USBFS_std.c ****                 break;
 579              		.loc 1 305 0
 580 0474 D9E0     		b	.L24
 581              	.L25:
 306:.\Generated_Source\PSoC5/USBFS_std.c ****             case USBFS_CLEAR_FEATURE:
 307:.\Generated_Source\PSoC5/USBFS_std.c ****                 switch (CY_GET_REG8(USBFS_bmRequestType) & USBFS_RQST_RCPT_MASK)
 582              		.loc 1 307 0
 583 0476 46F20003 		movw	r3, #:lower16:1073766400
 584 047a C4F20003 		movt	r3, #:upper16:1073766400
 585 047e 1B78     		ldrb	r3, [r3, #0]
 586 0480 DBB2     		uxtb	r3, r3
 587 0482 03F00303 		and	r3, r3, #3
 588 0486 012B     		cmp	r3, #1
 589 0488 2CD0     		beq	.L34
 590 048a 012B     		cmp	r3, #1
 591 048c 0FD3     		bcc	.L33
 592 048e 022B     		cmp	r3, #2
 593 0490 40F0C480 		bne	.L48
 594              	.L35:
 308:.\Generated_Source\PSoC5/USBFS_std.c ****                 {
 309:.\Generated_Source\PSoC5/USBFS_std.c ****                     case USBFS_RQST_RCPT_EP:
 310:.\Generated_Source\PSoC5/USBFS_std.c ****                         if (CY_GET_REG8(USBFS_wValueLo) == USBFS_ENDPOINT_HALT)
ARM GAS  C:\DOCUME~1\ADMINI~1\LOCALS~1\Temp\ccmk5fwz.s 			page 17


 595              		.loc 1 310 0
 596 0494 46F20203 		movw	r3, #:lower16:1073766402
 597 0498 C4F20003 		movt	r3, #:upper16:1073766402
 598 049c 1B78     		ldrb	r3, [r3, #0]
 599 049e DBB2     		uxtb	r3, r3
 600 04a0 002B     		cmp	r3, #0
 601 04a2 03D1     		bne	.L36
 311:.\Generated_Source\PSoC5/USBFS_std.c ****                         {
 312:.\Generated_Source\PSoC5/USBFS_std.c ****                             requestHandled = USBFS_ClearEndpointHalt();
 602              		.loc 1 312 0
 603 04a4 FFF7FEFF 		bl	USBFS_ClearEndpointHalt
 604 04a8 0346     		mov	r3, r0
 605 04aa FB70     		strb	r3, [r7, #3]
 606              	.L36:
 313:.\Generated_Source\PSoC5/USBFS_std.c ****                         }
 314:.\Generated_Source\PSoC5/USBFS_std.c ****                         break;
 607              		.loc 1 314 0
 608 04ac 49E0     		b	.L32
 609              	.L33:
 315:.\Generated_Source\PSoC5/USBFS_std.c ****                     case USBFS_RQST_RCPT_DEV:
 316:.\Generated_Source\PSoC5/USBFS_std.c ****                         /* Clear device REMOTE_WAKEUP */
 317:.\Generated_Source\PSoC5/USBFS_std.c ****                         if (CY_GET_REG8(USBFS_wValueLo) == USBFS_DEVICE_REMOTE_WAKEUP)
 610              		.loc 1 317 0
 611 04ae 46F20203 		movw	r3, #:lower16:1073766402
 612 04b2 C4F20003 		movt	r3, #:upper16:1073766402
 613 04b6 1B78     		ldrb	r3, [r3, #0]
 614 04b8 DBB2     		uxtb	r3, r3
 615 04ba 012B     		cmp	r3, #1
 616 04bc 11D1     		bne	.L37
 318:.\Generated_Source\PSoC5/USBFS_std.c ****                         {
 319:.\Generated_Source\PSoC5/USBFS_std.c ****                             USBFS_deviceStatus &= ~USBFS_DEVICE_STATUS_REMOTE_WAKEUP;
 617              		.loc 1 319 0
 618 04be 40F20003 		movw	r3, #:lower16:USBFS_deviceStatus
 619 04c2 C0F20003 		movt	r3, #:upper16:USBFS_deviceStatus
 620 04c6 1B78     		ldrb	r3, [r3, #0]
 621 04c8 DBB2     		uxtb	r3, r3
 622 04ca 1A46     		mov	r2, r3
 623 04cc 02F0FD02 		and	r2, r2, #253
 624 04d0 40F20003 		movw	r3, #:lower16:USBFS_deviceStatus
 625 04d4 C0F20003 		movt	r3, #:upper16:USBFS_deviceStatus
 626 04d8 1A70     		strb	r2, [r3, #0]
 320:.\Generated_Source\PSoC5/USBFS_std.c ****                             requestHandled = USBFS_InitNoDataControlTransfer();
 627              		.loc 1 320 0
 628 04da FFF7FEFF 		bl	USBFS_InitNoDataControlTransfer
 629 04de 0346     		mov	r3, r0
 630 04e0 FB70     		strb	r3, [r7, #3]
 631              	.L37:
 321:.\Generated_Source\PSoC5/USBFS_std.c ****                         }
 322:.\Generated_Source\PSoC5/USBFS_std.c ****                         break;
 632              		.loc 1 322 0
 633 04e2 2EE0     		b	.L32
 634              	.L34:
 323:.\Generated_Source\PSoC5/USBFS_std.c ****                     case USBFS_RQST_RCPT_IFC:
 324:.\Generated_Source\PSoC5/USBFS_std.c ****                         /* Validate interfaceNumber */
 325:.\Generated_Source\PSoC5/USBFS_std.c ****                         if (CY_GET_REG8(USBFS_wIndexLo) < USBFS_MAX_INTERFACES_NUMBER)
 635              		.loc 1 325 0
 636 04e4 46F20403 		movw	r3, #:lower16:1073766404
ARM GAS  C:\DOCUME~1\ADMINI~1\LOCALS~1\Temp\ccmk5fwz.s 			page 18


 637 04e8 C4F20003 		movt	r3, #:upper16:1073766404
 638 04ec 1B78     		ldrb	r3, [r3, #0]
 639 04ee DBB2     		uxtb	r3, r3
 640 04f0 032B     		cmp	r3, #3
 641 04f2 00F29580 		bhi	.L49
 326:.\Generated_Source\PSoC5/USBFS_std.c ****                         {
 327:.\Generated_Source\PSoC5/USBFS_std.c ****                             USBFS_interfaceStatus[CY_GET_REG8(USBFS_wIndexLo)] &= \
 642              		.loc 1 327 0
 643 04f6 46F20403 		movw	r3, #:lower16:1073766404
 644 04fa C4F20003 		movt	r3, #:upper16:1073766404
 645 04fe 1B78     		ldrb	r3, [r3, #0]
 646 0500 DBB2     		uxtb	r3, r3
 647 0502 1A46     		mov	r2, r3
 648 0504 1946     		mov	r1, r3
 649 0506 40F20003 		movw	r3, #:lower16:USBFS_interfaceStatus
 650 050a C0F20003 		movt	r3, #:upper16:USBFS_interfaceStatus
 651 050e 5B5C     		ldrb	r3, [r3, r1]
 652 0510 DBB2     		uxtb	r3, r3
 653 0512 1946     		mov	r1, r3
 328:.\Generated_Source\PSoC5/USBFS_std.c ****                                                                 ~(CY_GET_REG8(USBFS_wValueLo)) ;
 654              		.loc 1 328 0
 655 0514 46F20203 		movw	r3, #:lower16:1073766402
 656 0518 C4F20003 		movt	r3, #:upper16:1073766402
 657 051c 1B78     		ldrb	r3, [r3, #0]
 658 051e DBB2     		uxtb	r3, r3
 659              		.loc 1 327 0
 660 0520 6FEA0303 		mvn	r3, r3
 661 0524 DBB2     		uxtb	r3, r3
 662 0526 01EA0303 		and	r3, r1, r3
 663 052a DBB2     		uxtb	r3, r3
 664 052c D9B2     		uxtb	r1, r3
 665 052e 40F20003 		movw	r3, #:lower16:USBFS_interfaceStatus
 666 0532 C0F20003 		movt	r3, #:upper16:USBFS_interfaceStatus
 667 0536 9954     		strb	r1, [r3, r2]
 329:.\Generated_Source\PSoC5/USBFS_std.c ****                             requestHandled = USBFS_InitNoDataControlTransfer();
 668              		.loc 1 329 0
 669 0538 FFF7FEFF 		bl	USBFS_InitNoDataControlTransfer
 670 053c 0346     		mov	r3, r0
 671 053e FB70     		strb	r3, [r7, #3]
 330:.\Generated_Source\PSoC5/USBFS_std.c ****                         }
 331:.\Generated_Source\PSoC5/USBFS_std.c ****                         break;
 332:.\Generated_Source\PSoC5/USBFS_std.c ****                     default:    /* requestHandled is initialezed as FALSE by default */
 333:.\Generated_Source\PSoC5/USBFS_std.c ****                         break;
 334:.\Generated_Source\PSoC5/USBFS_std.c ****                 }
 335:.\Generated_Source\PSoC5/USBFS_std.c ****                 break;
 672              		.loc 1 335 0
 673 0540 73E0     		b	.L24
 674              	.L32:
 675 0542 72E0     		b	.L24
 676              	.L26:
 336:.\Generated_Source\PSoC5/USBFS_std.c ****             case USBFS_SET_FEATURE:
 337:.\Generated_Source\PSoC5/USBFS_std.c ****                 switch (CY_GET_REG8(USBFS_bmRequestType) & USBFS_RQST_RCPT_MASK)
 677              		.loc 1 337 0
 678 0544 46F20003 		movw	r3, #:lower16:1073766400
 679 0548 C4F20003 		movt	r3, #:upper16:1073766400
 680 054c 1B78     		ldrb	r3, [r3, #0]
 681 054e DBB2     		uxtb	r3, r3
ARM GAS  C:\DOCUME~1\ADMINI~1\LOCALS~1\Temp\ccmk5fwz.s 			page 19


 682 0550 03F00303 		and	r3, r3, #3
 683 0554 012B     		cmp	r3, #1
 684 0556 2BD0     		beq	.L39
 685 0558 012B     		cmp	r3, #1
 686 055a 0ED3     		bcc	.L38
 687 055c 022B     		cmp	r3, #2
 688 055e 64D1     		bne	.L24
 689              	.L40:
 338:.\Generated_Source\PSoC5/USBFS_std.c ****                 {
 339:.\Generated_Source\PSoC5/USBFS_std.c ****                     case USBFS_RQST_RCPT_EP:
 340:.\Generated_Source\PSoC5/USBFS_std.c ****                         if (CY_GET_REG8(USBFS_wValueLo) == USBFS_ENDPOINT_HALT)
 690              		.loc 1 340 0
 691 0560 46F20203 		movw	r3, #:lower16:1073766402
 692 0564 C4F20003 		movt	r3, #:upper16:1073766402
 693 0568 1B78     		ldrb	r3, [r3, #0]
 694 056a DBB2     		uxtb	r3, r3
 695 056c 002B     		cmp	r3, #0
 696 056e 59D1     		bne	.L50
 341:.\Generated_Source\PSoC5/USBFS_std.c ****                         {
 342:.\Generated_Source\PSoC5/USBFS_std.c ****                             requestHandled = USBFS_SetEndpointHalt();
 697              		.loc 1 342 0
 698 0570 FFF7FEFF 		bl	USBFS_SetEndpointHalt
 699 0574 0346     		mov	r3, r0
 700 0576 FB70     		strb	r3, [r7, #3]
 343:.\Generated_Source\PSoC5/USBFS_std.c ****                         }
 344:.\Generated_Source\PSoC5/USBFS_std.c ****                         break;
 701              		.loc 1 344 0
 702 0578 57E0     		b	.L24
 703              	.L38:
 345:.\Generated_Source\PSoC5/USBFS_std.c ****                     case USBFS_RQST_RCPT_DEV:
 346:.\Generated_Source\PSoC5/USBFS_std.c ****                         /* Set device REMOTE_WAKEUP */
 347:.\Generated_Source\PSoC5/USBFS_std.c ****                         if (CY_GET_REG8(USBFS_wValueLo) == USBFS_DEVICE_REMOTE_WAKEUP)
 704              		.loc 1 347 0
 705 057a 46F20203 		movw	r3, #:lower16:1073766402
 706 057e C4F20003 		movt	r3, #:upper16:1073766402
 707 0582 1B78     		ldrb	r3, [r3, #0]
 708 0584 DBB2     		uxtb	r3, r3
 709 0586 012B     		cmp	r3, #1
 710 0588 4ED1     		bne	.L51
 348:.\Generated_Source\PSoC5/USBFS_std.c ****                         {
 349:.\Generated_Source\PSoC5/USBFS_std.c ****                             USBFS_deviceStatus |= USBFS_DEVICE_STATUS_REMOTE_WAKEUP;
 711              		.loc 1 349 0
 712 058a 40F20003 		movw	r3, #:lower16:USBFS_deviceStatus
 713 058e C0F20003 		movt	r3, #:upper16:USBFS_deviceStatus
 714 0592 1B78     		ldrb	r3, [r3, #0]
 715 0594 DBB2     		uxtb	r3, r3
 716 0596 43F00203 		orr	r3, r3, #2
 717 059a DAB2     		uxtb	r2, r3
 718 059c 40F20003 		movw	r3, #:lower16:USBFS_deviceStatus
 719 05a0 C0F20003 		movt	r3, #:upper16:USBFS_deviceStatus
 720 05a4 1A70     		strb	r2, [r3, #0]
 350:.\Generated_Source\PSoC5/USBFS_std.c ****                             requestHandled = USBFS_InitNoDataControlTransfer();
 721              		.loc 1 350 0
 722 05a6 FFF7FEFF 		bl	USBFS_InitNoDataControlTransfer
 723 05aa 0346     		mov	r3, r0
 724 05ac FB70     		strb	r3, [r7, #3]
 351:.\Generated_Source\PSoC5/USBFS_std.c ****                         }
ARM GAS  C:\DOCUME~1\ADMINI~1\LOCALS~1\Temp\ccmk5fwz.s 			page 20


 352:.\Generated_Source\PSoC5/USBFS_std.c ****                         break;
 725              		.loc 1 352 0
 726 05ae 3CE0     		b	.L24
 727              	.L39:
 353:.\Generated_Source\PSoC5/USBFS_std.c ****                     case USBFS_RQST_RCPT_IFC:
 354:.\Generated_Source\PSoC5/USBFS_std.c ****                         /* Validate interfaceNumber */
 355:.\Generated_Source\PSoC5/USBFS_std.c ****                         if (CY_GET_REG8(USBFS_wIndexLo) < USBFS_MAX_INTERFACES_NUMBER)
 728              		.loc 1 355 0
 729 05b0 46F20403 		movw	r3, #:lower16:1073766404
 730 05b4 C4F20003 		movt	r3, #:upper16:1073766404
 731 05b8 1B78     		ldrb	r3, [r3, #0]
 732 05ba DBB2     		uxtb	r3, r3
 733 05bc 032B     		cmp	r3, #3
 734 05be 34D8     		bhi	.L24
 356:.\Generated_Source\PSoC5/USBFS_std.c ****                         {
 357:.\Generated_Source\PSoC5/USBFS_std.c ****                             USBFS_interfaceStatus[CY_GET_REG8(USBFS_wIndexLo)] &= \
 735              		.loc 1 357 0
 736 05c0 46F20403 		movw	r3, #:lower16:1073766404
 737 05c4 C4F20003 		movt	r3, #:upper16:1073766404
 738 05c8 1B78     		ldrb	r3, [r3, #0]
 739 05ca DBB2     		uxtb	r3, r3
 740 05cc 1A46     		mov	r2, r3
 741 05ce 1946     		mov	r1, r3
 742 05d0 40F20003 		movw	r3, #:lower16:USBFS_interfaceStatus
 743 05d4 C0F20003 		movt	r3, #:upper16:USBFS_interfaceStatus
 744 05d8 5B5C     		ldrb	r3, [r3, r1]
 745 05da DBB2     		uxtb	r3, r3
 746 05dc 1946     		mov	r1, r3
 358:.\Generated_Source\PSoC5/USBFS_std.c ****                                                                 ~(CY_GET_REG8(USBFS_wValueLo)) ;
 747              		.loc 1 358 0
 748 05de 46F20203 		movw	r3, #:lower16:1073766402
 749 05e2 C4F20003 		movt	r3, #:upper16:1073766402
 750 05e6 1B78     		ldrb	r3, [r3, #0]
 751 05e8 DBB2     		uxtb	r3, r3
 752              		.loc 1 357 0
 753 05ea 6FEA0303 		mvn	r3, r3
 754 05ee DBB2     		uxtb	r3, r3
 755 05f0 01EA0303 		and	r3, r1, r3
 756 05f4 DBB2     		uxtb	r3, r3
 757 05f6 D9B2     		uxtb	r1, r3
 758 05f8 40F20003 		movw	r3, #:lower16:USBFS_interfaceStatus
 759 05fc C0F20003 		movt	r3, #:upper16:USBFS_interfaceStatus
 760 0600 9954     		strb	r1, [r3, r2]
 359:.\Generated_Source\PSoC5/USBFS_std.c ****                             requestHandled = USBFS_InitNoDataControlTransfer();
 761              		.loc 1 359 0
 762 0602 FFF7FEFF 		bl	USBFS_InitNoDataControlTransfer
 763 0606 0346     		mov	r3, r0
 764 0608 FB70     		strb	r3, [r7, #3]
 765 060a 0EE0     		b	.L24
 766              	.L44:
 767              		.loc 1 269 0
 768 060c 00BF     		nop
 769 060e 0CE0     		b	.L24
 770              	.L45:
 771              		.loc 1 237 0
 772 0610 00BF     		nop
 773 0612 0AE0     		b	.L24
ARM GAS  C:\DOCUME~1\ADMINI~1\LOCALS~1\Temp\ccmk5fwz.s 			page 21


 774              	.L46:
 775              		.loc 1 259 0
 776 0614 00BF     		nop
 777 0616 08E0     		b	.L24
 778              	.L47:
 779              		.loc 1 305 0
 780 0618 00BF     		nop
 781 061a 06E0     		b	.L24
 782              	.L48:
 783              		.loc 1 335 0
 784 061c 00BF     		nop
 785 061e 04E0     		b	.L24
 786              	.L49:
 787 0620 00BF     		nop
 788 0622 02E0     		b	.L24
 789              	.L50:
 790              		.loc 1 344 0
 791 0624 00BF     		nop
 792 0626 00E0     		b	.L24
 793              	.L51:
 794              		.loc 1 352 0
 795 0628 00BF     		nop
 796              	.L24:
 360:.\Generated_Source\PSoC5/USBFS_std.c ****                         }
 361:.\Generated_Source\PSoC5/USBFS_std.c ****                         break;
 362:.\Generated_Source\PSoC5/USBFS_std.c ****                     default:    /* requestHandled is initialezed as FALSE by default */
 363:.\Generated_Source\PSoC5/USBFS_std.c ****                         break;
 364:.\Generated_Source\PSoC5/USBFS_std.c ****                 }
 365:.\Generated_Source\PSoC5/USBFS_std.c ****                 break;
 366:.\Generated_Source\PSoC5/USBFS_std.c ****             default:    /* requestHandled is initialezed as FALSE by default */
 367:.\Generated_Source\PSoC5/USBFS_std.c ****                 break;
 368:.\Generated_Source\PSoC5/USBFS_std.c ****         }
 369:.\Generated_Source\PSoC5/USBFS_std.c ****     }
 370:.\Generated_Source\PSoC5/USBFS_std.c ****     return(requestHandled);
 797              		.loc 1 370 0
 798 062a FB78     		ldrb	r3, [r7, #3]	@ zero_extendqisi2
 371:.\Generated_Source\PSoC5/USBFS_std.c **** }
 799              		.loc 1 371 0
 800 062c 1846     		mov	r0, r3
 801 062e 07F11007 		add	r7, r7, #16
 802 0632 BD46     		mov	sp, r7
 803 0634 80BD     		pop	{r7, pc}
 804              		.cfi_endproc
 805              	.LFE1:
 806              		.size	USBFS_HandleStandardRqst, .-USBFS_HandleStandardRqst
 807 0636 00BF     		.section	.text.USBFS_ReadDieID,"ax",%progbits
 808              		.align	2
 809              		.global	USBFS_ReadDieID
 810              		.thumb
 811              		.thumb_func
 812              		.type	USBFS_ReadDieID, %function
 813              	USBFS_ReadDieID:
 814              	.LFB2:
 372:.\Generated_Source\PSoC5/USBFS_std.c **** 
 373:.\Generated_Source\PSoC5/USBFS_std.c **** 
 374:.\Generated_Source\PSoC5/USBFS_std.c **** #if defined(USBFS_ENABLE_IDSN_STRING)
 375:.\Generated_Source\PSoC5/USBFS_std.c **** 
ARM GAS  C:\DOCUME~1\ADMINI~1\LOCALS~1\Temp\ccmk5fwz.s 			page 22


 376:.\Generated_Source\PSoC5/USBFS_std.c ****     /***************************************************************************
 377:.\Generated_Source\PSoC5/USBFS_std.c ****     * Function Name: USBFS_ReadDieID
 378:.\Generated_Source\PSoC5/USBFS_std.c ****     ****************************************************************************
 379:.\Generated_Source\PSoC5/USBFS_std.c ****     *
 380:.\Generated_Source\PSoC5/USBFS_std.c ****     * Summary:
 381:.\Generated_Source\PSoC5/USBFS_std.c ****     *  This routine read Die ID and genarete Serian Number string descriptor.
 382:.\Generated_Source\PSoC5/USBFS_std.c ****     *
 383:.\Generated_Source\PSoC5/USBFS_std.c ****     * Parameters:
 384:.\Generated_Source\PSoC5/USBFS_std.c ****     *  descr:  pointer on string descriptor.
 385:.\Generated_Source\PSoC5/USBFS_std.c ****     *
 386:.\Generated_Source\PSoC5/USBFS_std.c ****     * Return:
 387:.\Generated_Source\PSoC5/USBFS_std.c ****     *  None.
 388:.\Generated_Source\PSoC5/USBFS_std.c ****     *
 389:.\Generated_Source\PSoC5/USBFS_std.c ****     * Reentrant:
 390:.\Generated_Source\PSoC5/USBFS_std.c ****     *  No.
 391:.\Generated_Source\PSoC5/USBFS_std.c ****     *
 392:.\Generated_Source\PSoC5/USBFS_std.c ****     ***************************************************************************/
 393:.\Generated_Source\PSoC5/USBFS_std.c ****     void USBFS_ReadDieID(uint8 *descr) 
 394:.\Generated_Source\PSoC5/USBFS_std.c ****     {
 815              		.loc 1 394 0
 816              		.cfi_startproc
 817              		@ args = 0, pretend = 0, frame = 16
 818              		@ frame_needed = 1, uses_anonymous_args = 0
 819              		@ link register save eliminated.
 820 0000 80B4     		push	{r7}
 821              	.LCFI6:
 822              		.cfi_def_cfa_offset 4
 823 0002 85B0     		sub	sp, sp, #20
 824              	.LCFI7:
 825              		.cfi_def_cfa_offset 24
 826 0004 00AF     		add	r7, sp, #0
 827              		.cfi_offset 7, -4
 828              	.LCFI8:
 829              		.cfi_def_cfa_register 7
 830 0006 7860     		str	r0, [r7, #4]
 395:.\Generated_Source\PSoC5/USBFS_std.c ****         uint8 i,j;
 396:.\Generated_Source\PSoC5/USBFS_std.c ****         uint8 value;
 397:.\Generated_Source\PSoC5/USBFS_std.c ****         static char8 const hex[16u] = "0123456789ABCDEF";
 398:.\Generated_Source\PSoC5/USBFS_std.c **** 
 399:.\Generated_Source\PSoC5/USBFS_std.c ****         /* check descriptor validation */
 400:.\Generated_Source\PSoC5/USBFS_std.c ****         if( (descr[0u] > 1u ) && (descr[1u] == USBFS_DESCR_STRING) )
 831              		.loc 1 400 0
 832 0008 7B68     		ldr	r3, [r7, #4]
 833 000a 1B78     		ldrb	r3, [r3, #0]	@ zero_extendqisi2
 834 000c 012B     		cmp	r3, #1
 835 000e 3ED9     		bls	.L56
 836 0010 7B68     		ldr	r3, [r7, #4]
 837 0012 03F10103 		add	r3, r3, #1
 838 0016 1B78     		ldrb	r3, [r3, #0]	@ zero_extendqisi2
 839 0018 032B     		cmp	r3, #3
 840 001a 38D1     		bne	.L56
 401:.\Generated_Source\PSoC5/USBFS_std.c ****         {
 402:.\Generated_Source\PSoC5/USBFS_std.c ****             /* fill descriptor */
 403:.\Generated_Source\PSoC5/USBFS_std.c ****             for(j = 0u, i = 2u; i < descr[0u]; i += 2u)
 841              		.loc 1 403 0
 842 001c 4FF00003 		mov	r3, #0
 843 0020 BB73     		strb	r3, [r7, #14]
ARM GAS  C:\DOCUME~1\ADMINI~1\LOCALS~1\Temp\ccmk5fwz.s 			page 23


 844 0022 4FF00203 		mov	r3, #2
 845 0026 7B73     		strb	r3, [r7, #13]
 846 0028 2CE0     		b	.L54
 847              	.L55:
 404:.\Generated_Source\PSoC5/USBFS_std.c ****             {
 405:.\Generated_Source\PSoC5/USBFS_std.c ****                 value = CY_GET_XTND_REG8((void CYFAR *)(USBFS_DIE_ID + j++));
 848              		.loc 1 405 0
 849 002a BB7B     		ldrb	r3, [r7, #14]	@ zero_extendqisi2
 850 002c 03F19243 		add	r3, r3, #1224736768
 851 0030 03F58073 		add	r3, r3, #256
 852 0034 1B78     		ldrb	r3, [r3, #0]
 853 0036 FB73     		strb	r3, [r7, #15]
 854 0038 BB7B     		ldrb	r3, [r7, #14]
 855 003a 03F10103 		add	r3, r3, #1
 856 003e BB73     		strb	r3, [r7, #14]
 406:.\Generated_Source\PSoC5/USBFS_std.c ****                 descr[i] = (uint8)hex[value >> 4u];
 857              		.loc 1 406 0
 858 0040 7A7B     		ldrb	r2, [r7, #13]	@ zero_extendqisi2
 859 0042 7B68     		ldr	r3, [r7, #4]
 860 0044 1A44     		add	r2, r2, r3
 861 0046 FB7B     		ldrb	r3, [r7, #15]	@ zero_extendqisi2
 862 0048 4FEA1313 		lsr	r3, r3, #4
 863 004c DBB2     		uxtb	r3, r3
 864 004e 1946     		mov	r1, r3
 865 0050 40F20003 		movw	r3, #:lower16:hex.2332
 866 0054 C0F20003 		movt	r3, #:upper16:hex.2332
 867 0058 5B5C     		ldrb	r3, [r3, r1]	@ zero_extendqisi2
 868 005a 1370     		strb	r3, [r2, #0]
 407:.\Generated_Source\PSoC5/USBFS_std.c ****                 i += 2u;
 869              		.loc 1 407 0
 870 005c 7B7B     		ldrb	r3, [r7, #13]
 871 005e 03F10203 		add	r3, r3, #2
 872 0062 7B73     		strb	r3, [r7, #13]
 408:.\Generated_Source\PSoC5/USBFS_std.c ****                 descr[i] = (uint8)hex[value & 0x0Fu];
 873              		.loc 1 408 0
 874 0064 7A7B     		ldrb	r2, [r7, #13]	@ zero_extendqisi2
 875 0066 7B68     		ldr	r3, [r7, #4]
 876 0068 1A44     		add	r2, r2, r3
 877 006a FB7B     		ldrb	r3, [r7, #15]	@ zero_extendqisi2
 878 006c 03F00F01 		and	r1, r3, #15
 879 0070 40F20003 		movw	r3, #:lower16:hex.2332
 880 0074 C0F20003 		movt	r3, #:upper16:hex.2332
 881 0078 5B5C     		ldrb	r3, [r3, r1]	@ zero_extendqisi2
 882 007a 1370     		strb	r3, [r2, #0]
 883              		.loc 1 403 0
 884 007c 7B7B     		ldrb	r3, [r7, #13]
 885 007e 03F10203 		add	r3, r3, #2
 886 0082 7B73     		strb	r3, [r7, #13]
 887              	.L54:
 888 0084 7B68     		ldr	r3, [r7, #4]
 889 0086 1B78     		ldrb	r3, [r3, #0]	@ zero_extendqisi2
 890 0088 7A7B     		ldrb	r2, [r7, #13]	@ zero_extendqisi2
 891 008a 9A42     		cmp	r2, r3
 892 008c CDD3     		bcc	.L55
 893              	.L56:
 409:.\Generated_Source\PSoC5/USBFS_std.c ****             }
 410:.\Generated_Source\PSoC5/USBFS_std.c ****         }
ARM GAS  C:\DOCUME~1\ADMINI~1\LOCALS~1\Temp\ccmk5fwz.s 			page 24


 411:.\Generated_Source\PSoC5/USBFS_std.c ****     }
 894              		.loc 1 411 0
 895 008e 07F11407 		add	r7, r7, #20
 896 0092 BD46     		mov	sp, r7
 897 0094 80BC     		pop	{r7}
 898 0096 7047     		bx	lr
 899              		.cfi_endproc
 900              	.LFE2:
 901              		.size	USBFS_ReadDieID, .-USBFS_ReadDieID
 902              		.section	.text.USBFS_ConfigReg,"ax",%progbits
 903              		.align	2
 904              		.global	USBFS_ConfigReg
 905              		.thumb
 906              		.thumb_func
 907              		.type	USBFS_ConfigReg, %function
 908              	USBFS_ConfigReg:
 909              	.LFB3:
 412:.\Generated_Source\PSoC5/USBFS_std.c **** 
 413:.\Generated_Source\PSoC5/USBFS_std.c **** #endif /* End $INSTANCE_NAME`_ENABLE_IDSN_STRING*/
 414:.\Generated_Source\PSoC5/USBFS_std.c **** 
 415:.\Generated_Source\PSoC5/USBFS_std.c **** 
 416:.\Generated_Source\PSoC5/USBFS_std.c **** /*******************************************************************************
 417:.\Generated_Source\PSoC5/USBFS_std.c **** * Function Name: USBFS_ConfigReg
 418:.\Generated_Source\PSoC5/USBFS_std.c **** ********************************************************************************
 419:.\Generated_Source\PSoC5/USBFS_std.c **** *
 420:.\Generated_Source\PSoC5/USBFS_std.c **** * Summary:
 421:.\Generated_Source\PSoC5/USBFS_std.c **** *  This routine configures hardware registers from the variables.
 422:.\Generated_Source\PSoC5/USBFS_std.c **** *  It is called from USBFS_Config() function and from RestoreConfig
 423:.\Generated_Source\PSoC5/USBFS_std.c **** *  after Wakeup.
 424:.\Generated_Source\PSoC5/USBFS_std.c **** *
 425:.\Generated_Source\PSoC5/USBFS_std.c **** * Parameters:
 426:.\Generated_Source\PSoC5/USBFS_std.c **** *  None.
 427:.\Generated_Source\PSoC5/USBFS_std.c **** *
 428:.\Generated_Source\PSoC5/USBFS_std.c **** * Return:
 429:.\Generated_Source\PSoC5/USBFS_std.c **** *  None.
 430:.\Generated_Source\PSoC5/USBFS_std.c **** *
 431:.\Generated_Source\PSoC5/USBFS_std.c **** *******************************************************************************/
 432:.\Generated_Source\PSoC5/USBFS_std.c **** void USBFS_ConfigReg(void) 
 433:.\Generated_Source\PSoC5/USBFS_std.c **** {
 910              		.loc 1 433 0
 911              		.cfi_startproc
 912              		@ args = 0, pretend = 0, frame = 8
 913              		@ frame_needed = 1, uses_anonymous_args = 0
 914              		@ link register save eliminated.
 915 0000 80B4     		push	{r7}
 916              	.LCFI9:
 917              		.cfi_def_cfa_offset 4
 918 0002 83B0     		sub	sp, sp, #12
 919              	.LCFI10:
 920              		.cfi_def_cfa_offset 16
 921 0004 00AF     		add	r7, sp, #0
 922              		.cfi_offset 7, -4
 923              	.LCFI11:
 924              		.cfi_def_cfa_register 7
 434:.\Generated_Source\PSoC5/USBFS_std.c ****     uint8 ep;
 435:.\Generated_Source\PSoC5/USBFS_std.c ****     uint8 i;
 436:.\Generated_Source\PSoC5/USBFS_std.c ****     #if(USBFS_EP_MM == USBFS__EP_DMAAUTO)
ARM GAS  C:\DOCUME~1\ADMINI~1\LOCALS~1\Temp\ccmk5fwz.s 			page 25


 437:.\Generated_Source\PSoC5/USBFS_std.c ****         uint8 ep_type = 0u;
 925              		.loc 1 437 0
 926 0006 4FF00003 		mov	r3, #0
 927 000a FB71     		strb	r3, [r7, #7]
 438:.\Generated_Source\PSoC5/USBFS_std.c ****     #endif /* End USBFS_EP_MM == USBFS__EP_DMAAUTO */
 439:.\Generated_Source\PSoC5/USBFS_std.c **** 
 440:.\Generated_Source\PSoC5/USBFS_std.c ****     /* Set the endpoint buffer addresses */
 441:.\Generated_Source\PSoC5/USBFS_std.c ****     ep = USBFS_EP1;
 928              		.loc 1 441 0
 929 000c 4FF00103 		mov	r3, #1
 930 0010 7B71     		strb	r3, [r7, #5]
 442:.\Generated_Source\PSoC5/USBFS_std.c ****     for (i = 0u; i < 0x80u; i+= 0x10u)
 931              		.loc 1 442 0
 932 0012 4FF00003 		mov	r3, #0
 933 0016 BB71     		strb	r3, [r7, #6]
 934 0018 63E0     		b	.L58
 935              	.L63:
 443:.\Generated_Source\PSoC5/USBFS_std.c ****     {
 444:.\Generated_Source\PSoC5/USBFS_std.c ****         CY_SET_REG8(&USBFS_ARB_EP1_CFG_PTR[i], USBFS_ARB_EPX_CFG_CRC_BYPASS |
 936              		.loc 1 444 0
 937 001a BA79     		ldrb	r2, [r7, #6]	@ zero_extendqisi2
 938 001c 46F28003 		movw	r3, #:lower16:1073766528
 939 0020 C4F20003 		movt	r3, #:upper16:1073766528
 940 0024 1344     		add	r3, r2, r3
 941 0026 4FF00C02 		mov	r2, #12
 942 002a 1A70     		strb	r2, [r3, #0]
 445:.\Generated_Source\PSoC5/USBFS_std.c ****                                                           USBFS_ARB_EPX_CFG_RESET);
 446:.\Generated_Source\PSoC5/USBFS_std.c **** 
 447:.\Generated_Source\PSoC5/USBFS_std.c ****         #if(USBFS_EP_MM != USBFS__EP_MANUAL)
 448:.\Generated_Source\PSoC5/USBFS_std.c ****             /* Enable all Arbiter EP Interrupts : err, buf under, buf over, dma gnt(mode2 only), in
 449:.\Generated_Source\PSoC5/USBFS_std.c ****             USBFS_ARB_EP1_INT_EN_PTR[i] = USBFS_ARB_EPX_INT_MASK;
 943              		.loc 1 449 0
 944 002c BA79     		ldrb	r2, [r7, #6]	@ zero_extendqisi2
 945 002e 46F28103 		movw	r3, #:lower16:1073766529
 946 0032 C4F20003 		movt	r3, #:upper16:1073766529
 947 0036 1344     		add	r3, r2, r3
 948 0038 4FF01D02 		mov	r2, #29
 949 003c 1A70     		strb	r2, [r3, #0]
 450:.\Generated_Source\PSoC5/USBFS_std.c ****         #endif   /* End USBFS_EP_MM != USBFS__EP_MANUAL */
 451:.\Generated_Source\PSoC5/USBFS_std.c **** 
 452:.\Generated_Source\PSoC5/USBFS_std.c ****         if(USBFS_EP[ep].epMode != USBFS_MODE_DISABLE)
 950              		.loc 1 452 0
 951 003e 7979     		ldrb	r1, [r7, #5]	@ zero_extendqisi2
 952 0040 40F20002 		movw	r2, #:lower16:USBFS_EP
 953 0044 C0F20002 		movt	r2, #:upper16:USBFS_EP
 954 0048 0B46     		mov	r3, r1
 955 004a 4FEA4303 		lsl	r3, r3, #1
 956 004e 0B44     		add	r3, r3, r1
 957 0050 4FEA8303 		lsl	r3, r3, #2
 958 0054 1344     		add	r3, r3, r2
 959 0056 5B79     		ldrb	r3, [r3, #5]
 960 0058 DBB2     		uxtb	r3, r3
 961 005a 002B     		cmp	r3, #0
 962 005c 30D0     		beq	.L59
 453:.\Generated_Source\PSoC5/USBFS_std.c ****         {
 454:.\Generated_Source\PSoC5/USBFS_std.c ****             if((USBFS_EP[ep].addr & USBFS_DIR_IN) != 0u )
 963              		.loc 1 454 0
ARM GAS  C:\DOCUME~1\ADMINI~1\LOCALS~1\Temp\ccmk5fwz.s 			page 26


 964 005e 7979     		ldrb	r1, [r7, #5]	@ zero_extendqisi2
 965 0060 40F20002 		movw	r2, #:lower16:USBFS_EP
 966 0064 C0F20002 		movt	r2, #:upper16:USBFS_EP
 967 0068 0B46     		mov	r3, r1
 968 006a 4FEA4303 		lsl	r3, r3, #1
 969 006e 0B44     		add	r3, r3, r1
 970 0070 4FEA8303 		lsl	r3, r3, #2
 971 0074 1344     		add	r3, r3, r2
 972 0076 1B79     		ldrb	r3, [r3, #4]
 973 0078 DBB2     		uxtb	r3, r3
 974 007a 5BB2     		sxtb	r3, r3
 975 007c 002B     		cmp	r3, #0
 976 007e 09DA     		bge	.L60
 455:.\Generated_Source\PSoC5/USBFS_std.c ****             {
 456:.\Generated_Source\PSoC5/USBFS_std.c ****                 CY_SET_REG8(&USBFS_SIE_EP1_CR0_PTR[i], USBFS_MODE_NAK_IN);
 977              		.loc 1 456 0
 978 0080 BA79     		ldrb	r2, [r7, #6]	@ zero_extendqisi2
 979 0082 46F20E03 		movw	r3, #:lower16:1073766414
 980 0086 C4F20003 		movt	r3, #:upper16:1073766414
 981 008a 1344     		add	r3, r2, r3
 982 008c 4FF00C02 		mov	r2, #12
 983 0090 1A70     		strb	r2, [r3, #0]
 457:.\Generated_Source\PSoC5/USBFS_std.c ****             }
 458:.\Generated_Source\PSoC5/USBFS_std.c ****             else
 459:.\Generated_Source\PSoC5/USBFS_std.c ****             {
 460:.\Generated_Source\PSoC5/USBFS_std.c ****                 CY_SET_REG8(&USBFS_SIE_EP1_CR0_PTR[i], USBFS_MODE_NAK_OUT);
 461:.\Generated_Source\PSoC5/USBFS_std.c ****                 /* Prepare EP type mask for automatic memory allocation */
 462:.\Generated_Source\PSoC5/USBFS_std.c ****                 #if(USBFS_EP_MM == USBFS__EP_DMAAUTO)
 463:.\Generated_Source\PSoC5/USBFS_std.c ****                     ep_type |= 0x01u << (ep - USBFS_EP1);
 984              		.loc 1 463 0
 985 0092 1EE0     		b	.L62
 986              	.L60:
 987              		.loc 1 460 0
 988 0094 BA79     		ldrb	r2, [r7, #6]	@ zero_extendqisi2
 989 0096 46F20E03 		movw	r3, #:lower16:1073766414
 990 009a C4F20003 		movt	r3, #:upper16:1073766414
 991 009e 1344     		add	r3, r2, r3
 992 00a0 4FF00802 		mov	r2, #8
 993 00a4 1A70     		strb	r2, [r3, #0]
 994              		.loc 1 463 0
 995 00a6 7B79     		ldrb	r3, [r7, #5]	@ zero_extendqisi2
 996 00a8 03F1FF33 		add	r3, r3, #-1
 997 00ac 4FF00102 		mov	r2, #1
 998 00b0 02FA03F3 		lsl	r3, r2, r3
 999 00b4 DAB2     		uxtb	r2, r3
 1000 00b6 FB79     		ldrb	r3, [r7, #7]
 1001 00b8 42EA0303 		orr	r3, r2, r3
 1002 00bc FB71     		strb	r3, [r7, #7]
 1003 00be 08E0     		b	.L62
 1004              	.L59:
 464:.\Generated_Source\PSoC5/USBFS_std.c ****                 #endif /* End USBFS_EP_MM == USBFS__EP_DMAAUTO */
 465:.\Generated_Source\PSoC5/USBFS_std.c ****             }
 466:.\Generated_Source\PSoC5/USBFS_std.c ****         }
 467:.\Generated_Source\PSoC5/USBFS_std.c ****         else
 468:.\Generated_Source\PSoC5/USBFS_std.c ****         {
 469:.\Generated_Source\PSoC5/USBFS_std.c ****             CY_SET_REG8(&USBFS_SIE_EP1_CR0_PTR[i], USBFS_MODE_STALL_DATA_EP);
 1005              		.loc 1 469 0
ARM GAS  C:\DOCUME~1\ADMINI~1\LOCALS~1\Temp\ccmk5fwz.s 			page 27


 1006 00c0 BA79     		ldrb	r2, [r7, #6]	@ zero_extendqisi2
 1007 00c2 46F20E03 		movw	r3, #:lower16:1073766414
 1008 00c6 C4F20003 		movt	r3, #:upper16:1073766414
 1009 00ca 1344     		add	r3, r2, r3
 1010 00cc 6FF07F02 		mvn	r2, #127
 1011 00d0 1A70     		strb	r2, [r3, #0]
 1012              	.L62:
 470:.\Generated_Source\PSoC5/USBFS_std.c ****         }
 471:.\Generated_Source\PSoC5/USBFS_std.c **** 
 472:.\Generated_Source\PSoC5/USBFS_std.c ****         #if(USBFS_EP_MM != USBFS__EP_DMAAUTO)
 473:.\Generated_Source\PSoC5/USBFS_std.c ****             CY_SET_REG8(&USBFS_SIE_EP1_CNT0_PTR[i],   USBFS_EP[ep].bufferSize >> 8u);
 474:.\Generated_Source\PSoC5/USBFS_std.c ****             CY_SET_REG8(&USBFS_SIE_EP1_CNT1_PTR[i],   USBFS_EP[ep].bufferSize & 0xFFu);
 475:.\Generated_Source\PSoC5/USBFS_std.c **** 
 476:.\Generated_Source\PSoC5/USBFS_std.c ****             CY_SET_REG8(&USBFS_ARB_RW1_RA_PTR[i],     USBFS_EP[ep].buffOffset & 0xFFu);
 477:.\Generated_Source\PSoC5/USBFS_std.c ****             CY_SET_REG8(&USBFS_ARB_RW1_RA_MSB_PTR[i], USBFS_EP[ep].buffOffset >> 8u);
 478:.\Generated_Source\PSoC5/USBFS_std.c ****             CY_SET_REG8(&USBFS_ARB_RW1_WA_PTR[i],     USBFS_EP[ep].buffOffset & 0xFFu);
 479:.\Generated_Source\PSoC5/USBFS_std.c ****             CY_SET_REG8(&USBFS_ARB_RW1_WA_MSB_PTR[i], USBFS_EP[ep].buffOffset >> 8u);
 480:.\Generated_Source\PSoC5/USBFS_std.c ****         #endif /* End USBFS_EP_MM != USBFS__EP_DMAAUTO */
 481:.\Generated_Source\PSoC5/USBFS_std.c **** 
 482:.\Generated_Source\PSoC5/USBFS_std.c ****         ep++;
 1013              		.loc 1 482 0
 1014 00d2 7B79     		ldrb	r3, [r7, #5]
 1015 00d4 03F10103 		add	r3, r3, #1
 1016 00d8 7B71     		strb	r3, [r7, #5]
 1017              		.loc 1 442 0
 1018 00da BB79     		ldrb	r3, [r7, #6]
 1019 00dc 03F11003 		add	r3, r3, #16
 1020 00e0 BB71     		strb	r3, [r7, #6]
 1021              	.L58:
 1022 00e2 BB79     		ldrb	r3, [r7, #6]	@ zero_extendqisi2
 1023 00e4 5BB2     		sxtb	r3, r3
 1024 00e6 002B     		cmp	r3, #0
 1025 00e8 97DA     		bge	.L63
 483:.\Generated_Source\PSoC5/USBFS_std.c ****     }
 484:.\Generated_Source\PSoC5/USBFS_std.c **** 
 485:.\Generated_Source\PSoC5/USBFS_std.c ****     #if(USBFS_EP_MM == USBFS__EP_DMAAUTO)
 486:.\Generated_Source\PSoC5/USBFS_std.c ****          /* BUF_SIZE depend on DMA_THRESS value: 55-32 bytes  44-16 bytes 33-8 bytes 22-4 bytes 11-
 487:.\Generated_Source\PSoC5/USBFS_std.c ****         USBFS_BUF_SIZE_REG = USBFS_DMA_BUF_SIZE;
 1026              		.loc 1 487 0
 1027 00ea 46F28C03 		movw	r3, #:lower16:1073766540
 1028 00ee C4F20003 		movt	r3, #:upper16:1073766540
 1029 00f2 4FF05502 		mov	r2, #85
 1030 00f6 1A70     		strb	r2, [r3, #0]
 488:.\Generated_Source\PSoC5/USBFS_std.c ****         USBFS_DMA_THRES_REG = USBFS_DMA_BYTES_PER_BURST;   /* DMA burst threshold */
 1031              		.loc 1 488 0
 1032 00f8 46F2BC03 		movw	r3, #:lower16:1073766588
 1033 00fc C4F20003 		movt	r3, #:upper16:1073766588
 1034 0100 4FF02002 		mov	r2, #32
 1035 0104 1A70     		strb	r2, [r3, #0]
 489:.\Generated_Source\PSoC5/USBFS_std.c ****         USBFS_DMA_THRES_MSB_REG = 0u;
 1036              		.loc 1 489 0
 1037 0106 46F2BD03 		movw	r3, #:lower16:1073766589
 1038 010a C4F20003 		movt	r3, #:upper16:1073766589
 1039 010e 4FF00002 		mov	r2, #0
 1040 0112 1A70     		strb	r2, [r3, #0]
 490:.\Generated_Source\PSoC5/USBFS_std.c ****         USBFS_EP_ACTIVE_REG = USBFS_ARB_INT_MASK;
 1041              		.loc 1 490 0
ARM GAS  C:\DOCUME~1\ADMINI~1\LOCALS~1\Temp\ccmk5fwz.s 			page 28


 1042 0114 46F28E03 		movw	r3, #:lower16:1073766542
 1043 0118 C4F20003 		movt	r3, #:upper16:1073766542
 1044 011c 4FF02B02 		mov	r2, #43
 1045 0120 1A70     		strb	r2, [r3, #0]
 491:.\Generated_Source\PSoC5/USBFS_std.c ****         USBFS_EP_TYPE_REG = ep_type;
 1046              		.loc 1 491 0
 1047 0122 46F28F03 		movw	r3, #:lower16:1073766543
 1048 0126 C4F20003 		movt	r3, #:upper16:1073766543
 1049 012a FA79     		ldrb	r2, [r7, #7]
 1050 012c 1A70     		strb	r2, [r3, #0]
 492:.\Generated_Source\PSoC5/USBFS_std.c ****         /* Cfg_cmp bit set to 1 once configuration is complete. */
 493:.\Generated_Source\PSoC5/USBFS_std.c ****         USBFS_ARB_CFG_REG = USBFS_ARB_CFG_AUTO_DMA | USBFS_ARB_CFG_AUTO_MEM |
 1051              		.loc 1 493 0
 1052 012e 46F29C03 		movw	r3, #:lower16:1073766556
 1053 0132 C4F20003 		movt	r3, #:upper16:1073766556
 1054 0136 6FF02F02 		mvn	r2, #47
 1055 013a 1A70     		strb	r2, [r3, #0]
 494:.\Generated_Source\PSoC5/USBFS_std.c ****                                        USBFS_ARB_CFG_CFG_CPM;
 495:.\Generated_Source\PSoC5/USBFS_std.c ****         /* Cfg_cmp bit set to 0 during configuration of PFSUSB Registers. */
 496:.\Generated_Source\PSoC5/USBFS_std.c ****         USBFS_ARB_CFG_REG = USBFS_ARB_CFG_AUTO_DMA | USBFS_ARB_CFG_AUTO_MEM;
 1056              		.loc 1 496 0
 1057 013c 46F29C03 		movw	r3, #:lower16:1073766556
 1058 0140 C4F20003 		movt	r3, #:upper16:1073766556
 1059 0144 4FF05002 		mov	r2, #80
 1060 0148 1A70     		strb	r2, [r3, #0]
 497:.\Generated_Source\PSoC5/USBFS_std.c ****     #endif /* End USBFS_EP_MM == USBFS__EP_DMAAUTO */
 498:.\Generated_Source\PSoC5/USBFS_std.c **** 
 499:.\Generated_Source\PSoC5/USBFS_std.c ****     CY_SET_REG8(USBFS_SIE_EP_INT_EN_PTR, 0xFFu);
 1061              		.loc 1 499 0
 1062 014a 46F20A03 		movw	r3, #:lower16:1073766410
 1063 014e C4F20003 		movt	r3, #:upper16:1073766410
 1064 0152 4FF0FF32 		mov	r2, #-1
 1065 0156 1A70     		strb	r2, [r3, #0]
 500:.\Generated_Source\PSoC5/USBFS_std.c **** }
 1066              		.loc 1 500 0
 1067 0158 07F10C07 		add	r7, r7, #12
 1068 015c BD46     		mov	sp, r7
 1069 015e 80BC     		pop	{r7}
 1070 0160 7047     		bx	lr
 1071              		.cfi_endproc
 1072              	.LFE3:
 1073              		.size	USBFS_ConfigReg, .-USBFS_ConfigReg
 1074 0162 00BF     		.section	.text.USBFS_Config,"ax",%progbits
 1075              		.align	2
 1076              		.global	USBFS_Config
 1077              		.thumb
 1078              		.thumb_func
 1079              		.type	USBFS_Config, %function
 1080              	USBFS_Config:
 1081              	.LFB4:
 501:.\Generated_Source\PSoC5/USBFS_std.c **** 
 502:.\Generated_Source\PSoC5/USBFS_std.c **** 
 503:.\Generated_Source\PSoC5/USBFS_std.c **** /*******************************************************************************
 504:.\Generated_Source\PSoC5/USBFS_std.c **** * Function Name: USBFS_Config
 505:.\Generated_Source\PSoC5/USBFS_std.c **** ********************************************************************************
 506:.\Generated_Source\PSoC5/USBFS_std.c **** *
 507:.\Generated_Source\PSoC5/USBFS_std.c **** * Summary:
ARM GAS  C:\DOCUME~1\ADMINI~1\LOCALS~1\Temp\ccmk5fwz.s 			page 29


 508:.\Generated_Source\PSoC5/USBFS_std.c **** *  This routine configures endpoints for the entire configuration by scanning
 509:.\Generated_Source\PSoC5/USBFS_std.c **** *  the configuration descriptor.
 510:.\Generated_Source\PSoC5/USBFS_std.c **** *
 511:.\Generated_Source\PSoC5/USBFS_std.c **** * Parameters:
 512:.\Generated_Source\PSoC5/USBFS_std.c **** *  clearAltSetting: It configures the bAlternateSetting 0 for each interface.
 513:.\Generated_Source\PSoC5/USBFS_std.c **** *
 514:.\Generated_Source\PSoC5/USBFS_std.c **** * Return:
 515:.\Generated_Source\PSoC5/USBFS_std.c **** *  None.
 516:.\Generated_Source\PSoC5/USBFS_std.c **** *
 517:.\Generated_Source\PSoC5/USBFS_std.c **** * USBFS_interfaceClass - Initialized class array for each interface.
 518:.\Generated_Source\PSoC5/USBFS_std.c **** *   It is used for hangling Class specific requests depend on interface class.
 519:.\Generated_Source\PSoC5/USBFS_std.c **** *   Different classes in multiple Alternate settings does not supported.
 520:.\Generated_Source\PSoC5/USBFS_std.c **** *
 521:.\Generated_Source\PSoC5/USBFS_std.c **** * Reentrant:
 522:.\Generated_Source\PSoC5/USBFS_std.c **** *  No.
 523:.\Generated_Source\PSoC5/USBFS_std.c **** *
 524:.\Generated_Source\PSoC5/USBFS_std.c **** *******************************************************************************/
 525:.\Generated_Source\PSoC5/USBFS_std.c **** void USBFS_Config(uint8 clearAltSetting) 
 526:.\Generated_Source\PSoC5/USBFS_std.c **** {
 1082              		.loc 1 526 0
 1083              		.cfi_startproc
 1084              		@ args = 0, pretend = 0, frame = 24
 1085              		@ frame_needed = 1, uses_anonymous_args = 0
 1086 0000 80B5     		push	{r7, lr}
 1087              	.LCFI12:
 1088              		.cfi_def_cfa_offset 8
 1089 0002 86B0     		sub	sp, sp, #24
 1090              	.LCFI13:
 1091              		.cfi_def_cfa_offset 32
 1092 0004 00AF     		add	r7, sp, #0
 1093              		.cfi_offset 14, -4
 1094              		.cfi_offset 7, -8
 1095              	.LCFI14:
 1096              		.cfi_def_cfa_register 7
 1097 0006 0346     		mov	r3, r0
 1098 0008 FB71     		strb	r3, [r7, #7]
 527:.\Generated_Source\PSoC5/USBFS_std.c ****     uint8 ep;
 528:.\Generated_Source\PSoC5/USBFS_std.c ****     uint8 cur_ep;
 529:.\Generated_Source\PSoC5/USBFS_std.c ****     uint8 i;
 530:.\Generated_Source\PSoC5/USBFS_std.c ****     uint8 iso;
 531:.\Generated_Source\PSoC5/USBFS_std.c ****     uint8 *pDescr;
 532:.\Generated_Source\PSoC5/USBFS_std.c ****     #if(USBFS_EP_MM != USBFS__EP_DMAAUTO)
 533:.\Generated_Source\PSoC5/USBFS_std.c ****         uint16 count = 0u;
 534:.\Generated_Source\PSoC5/USBFS_std.c ****     #endif /* End USBFS_EP_MM != USBFS__EP_DMAAUTO */
 535:.\Generated_Source\PSoC5/USBFS_std.c ****     
 536:.\Generated_Source\PSoC5/USBFS_std.c ****     T_USBFS_LUT *pTmp;
 537:.\Generated_Source\PSoC5/USBFS_std.c ****     T_USBFS_EP_SETTINGS_BLOCK *pEP;
 538:.\Generated_Source\PSoC5/USBFS_std.c **** 
 539:.\Generated_Source\PSoC5/USBFS_std.c ****     /* Clear all of the endpoints */
 540:.\Generated_Source\PSoC5/USBFS_std.c ****     for (ep = 0u; ep < USBFS_MAX_EP; ep++)
 1099              		.loc 1 540 0
 1100 000a 4FF00003 		mov	r3, #0
 1101 000e 3B72     		strb	r3, [r7, #8]
 1102 0010 70E0     		b	.L66
 1103              	.L67:
 541:.\Generated_Source\PSoC5/USBFS_std.c ****     {
 542:.\Generated_Source\PSoC5/USBFS_std.c ****         USBFS_EP[ep].attrib = 0u;
ARM GAS  C:\DOCUME~1\ADMINI~1\LOCALS~1\Temp\ccmk5fwz.s 			page 30


 1104              		.loc 1 542 0
 1105 0012 397A     		ldrb	r1, [r7, #8]	@ zero_extendqisi2
 1106 0014 40F20002 		movw	r2, #:lower16:USBFS_EP
 1107 0018 C0F20002 		movt	r2, #:upper16:USBFS_EP
 1108 001c 0B46     		mov	r3, r1
 1109 001e 4FEA4303 		lsl	r3, r3, #1
 1110 0022 0B44     		add	r3, r3, r1
 1111 0024 4FEA8303 		lsl	r3, r3, #2
 1112 0028 1344     		add	r3, r3, r2
 1113 002a 4FF00002 		mov	r2, #0
 1114 002e 1A70     		strb	r2, [r3, #0]
 543:.\Generated_Source\PSoC5/USBFS_std.c ****         USBFS_EP[ep].hwEpState = 0u;
 1115              		.loc 1 543 0
 1116 0030 397A     		ldrb	r1, [r7, #8]	@ zero_extendqisi2
 1117 0032 40F20002 		movw	r2, #:lower16:USBFS_EP
 1118 0036 C0F20002 		movt	r2, #:upper16:USBFS_EP
 1119 003a 0B46     		mov	r3, r1
 1120 003c 4FEA4303 		lsl	r3, r3, #1
 1121 0040 0B44     		add	r3, r3, r1
 1122 0042 4FEA8303 		lsl	r3, r3, #2
 1123 0046 1344     		add	r3, r3, r2
 1124 0048 4FF00002 		mov	r2, #0
 1125 004c 9A70     		strb	r2, [r3, #2]
 544:.\Generated_Source\PSoC5/USBFS_std.c ****         USBFS_EP[ep].apiEpState = USBFS_NO_EVENT_PENDING;
 1126              		.loc 1 544 0
 1127 004e 397A     		ldrb	r1, [r7, #8]	@ zero_extendqisi2
 1128 0050 40F20002 		movw	r2, #:lower16:USBFS_EP
 1129 0054 C0F20002 		movt	r2, #:upper16:USBFS_EP
 1130 0058 0B46     		mov	r3, r1
 1131 005a 4FEA4303 		lsl	r3, r3, #1
 1132 005e 0B44     		add	r3, r3, r1
 1133 0060 4FEA8303 		lsl	r3, r3, #2
 1134 0064 1344     		add	r3, r3, r2
 1135 0066 4FF00002 		mov	r2, #0
 1136 006a 5A70     		strb	r2, [r3, #1]
 545:.\Generated_Source\PSoC5/USBFS_std.c ****         USBFS_EP[ep].epToggle = 0u;
 1137              		.loc 1 545 0
 1138 006c 397A     		ldrb	r1, [r7, #8]	@ zero_extendqisi2
 1139 006e 40F20002 		movw	r2, #:lower16:USBFS_EP
 1140 0072 C0F20002 		movt	r2, #:upper16:USBFS_EP
 1141 0076 0B46     		mov	r3, r1
 1142 0078 4FEA4303 		lsl	r3, r3, #1
 1143 007c 0B44     		add	r3, r3, r1
 1144 007e 4FEA8303 		lsl	r3, r3, #2
 1145 0082 1344     		add	r3, r3, r2
 1146 0084 4FF00002 		mov	r2, #0
 1147 0088 DA70     		strb	r2, [r3, #3]
 546:.\Generated_Source\PSoC5/USBFS_std.c ****         USBFS_EP[ep].epMode = USBFS_MODE_DISABLE;
 1148              		.loc 1 546 0
 1149 008a 397A     		ldrb	r1, [r7, #8]	@ zero_extendqisi2
 1150 008c 40F20002 		movw	r2, #:lower16:USBFS_EP
 1151 0090 C0F20002 		movt	r2, #:upper16:USBFS_EP
 1152 0094 0B46     		mov	r3, r1
 1153 0096 4FEA4303 		lsl	r3, r3, #1
 1154 009a 0B44     		add	r3, r3, r1
 1155 009c 4FEA8303 		lsl	r3, r3, #2
 1156 00a0 1344     		add	r3, r3, r2
ARM GAS  C:\DOCUME~1\ADMINI~1\LOCALS~1\Temp\ccmk5fwz.s 			page 31


 1157 00a2 4FF00002 		mov	r2, #0
 1158 00a6 5A71     		strb	r2, [r3, #5]
 547:.\Generated_Source\PSoC5/USBFS_std.c ****         USBFS_EP[ep].bufferSize = 0u;
 1159              		.loc 1 547 0
 1160 00a8 397A     		ldrb	r1, [r7, #8]	@ zero_extendqisi2
 1161 00aa 40F20002 		movw	r2, #:lower16:USBFS_EP
 1162 00ae C0F20002 		movt	r2, #:upper16:USBFS_EP
 1163 00b2 0B46     		mov	r3, r1
 1164 00b4 4FEA4303 		lsl	r3, r3, #1
 1165 00b8 0B44     		add	r3, r3, r1
 1166 00ba 4FEA8303 		lsl	r3, r3, #2
 1167 00be 1344     		add	r3, r3, r2
 1168 00c0 03F10803 		add	r3, r3, #8
 1169 00c4 4FF00002 		mov	r2, #0
 1170 00c8 1A80     		strh	r2, [r3, #0]	@ movhi
 548:.\Generated_Source\PSoC5/USBFS_std.c ****         USBFS_EP[ep].interface = 0u;
 1171              		.loc 1 548 0
 1172 00ca 397A     		ldrb	r1, [r7, #8]	@ zero_extendqisi2
 1173 00cc 40F20002 		movw	r2, #:lower16:USBFS_EP
 1174 00d0 C0F20002 		movt	r2, #:upper16:USBFS_EP
 1175 00d4 0B46     		mov	r3, r1
 1176 00d6 4FEA4303 		lsl	r3, r3, #1
 1177 00da 0B44     		add	r3, r3, r1
 1178 00dc 4FEA8303 		lsl	r3, r3, #2
 1179 00e0 1344     		add	r3, r3, r2
 1180 00e2 03F10803 		add	r3, r3, #8
 1181 00e6 4FF00002 		mov	r2, #0
 1182 00ea 9A70     		strb	r2, [r3, #2]
 1183              		.loc 1 540 0
 1184 00ec 3B7A     		ldrb	r3, [r7, #8]
 1185 00ee 03F10103 		add	r3, r3, #1
 1186 00f2 3B72     		strb	r3, [r7, #8]
 1187              	.L66:
 1188 00f4 3B7A     		ldrb	r3, [r7, #8]	@ zero_extendqisi2
 1189 00f6 082B     		cmp	r3, #8
 1190 00f8 8BD9     		bls	.L67
 549:.\Generated_Source\PSoC5/USBFS_std.c **** 
 550:.\Generated_Source\PSoC5/USBFS_std.c ****     }
 551:.\Generated_Source\PSoC5/USBFS_std.c **** 
 552:.\Generated_Source\PSoC5/USBFS_std.c ****     /* Clear Alternate settings for all interfaces */
 553:.\Generated_Source\PSoC5/USBFS_std.c ****     if(clearAltSetting != 0u)
 1191              		.loc 1 553 0
 1192 00fa FB79     		ldrb	r3, [r7, #7]	@ zero_extendqisi2
 1193 00fc 002B     		cmp	r3, #0
 1194 00fe 1AD0     		beq	.L68
 554:.\Generated_Source\PSoC5/USBFS_std.c ****     {
 555:.\Generated_Source\PSoC5/USBFS_std.c ****         for (i = 0u; i < USBFS_MAX_INTERFACES_NUMBER; i++)
 1195              		.loc 1 555 0
 1196 0100 4FF00003 		mov	r3, #0
 1197 0104 BB72     		strb	r3, [r7, #10]
 1198 0106 13E0     		b	.L69
 1199              	.L70:
 556:.\Generated_Source\PSoC5/USBFS_std.c ****         {
 557:.\Generated_Source\PSoC5/USBFS_std.c ****             USBFS_interfaceSetting[i] = 0x00u;
 1200              		.loc 1 557 0
 1201 0108 BA7A     		ldrb	r2, [r7, #10]	@ zero_extendqisi2
 1202 010a 40F20003 		movw	r3, #:lower16:USBFS_interfaceSetting
ARM GAS  C:\DOCUME~1\ADMINI~1\LOCALS~1\Temp\ccmk5fwz.s 			page 32


 1203 010e C0F20003 		movt	r3, #:upper16:USBFS_interfaceSetting
 1204 0112 4FF00001 		mov	r1, #0
 1205 0116 9954     		strb	r1, [r3, r2]
 558:.\Generated_Source\PSoC5/USBFS_std.c ****             USBFS_interfaceSetting_last[i] = 0x00u;
 1206              		.loc 1 558 0
 1207 0118 BA7A     		ldrb	r2, [r7, #10]	@ zero_extendqisi2
 1208 011a 40F20003 		movw	r3, #:lower16:USBFS_interfaceSetting_last
 1209 011e C0F20003 		movt	r3, #:upper16:USBFS_interfaceSetting_last
 1210 0122 4FF00001 		mov	r1, #0
 1211 0126 9954     		strb	r1, [r3, r2]
 1212              		.loc 1 555 0
 1213 0128 BB7A     		ldrb	r3, [r7, #10]
 1214 012a 03F10103 		add	r3, r3, #1
 1215 012e BB72     		strb	r3, [r7, #10]
 1216              	.L69:
 1217 0130 BB7A     		ldrb	r3, [r7, #10]	@ zero_extendqisi2
 1218 0132 032B     		cmp	r3, #3
 1219 0134 E8D9     		bls	.L70
 1220              	.L68:
 559:.\Generated_Source\PSoC5/USBFS_std.c ****         }
 560:.\Generated_Source\PSoC5/USBFS_std.c ****     }
 561:.\Generated_Source\PSoC5/USBFS_std.c **** 
 562:.\Generated_Source\PSoC5/USBFS_std.c ****     /* Init Endpoints and Device Status if configured */
 563:.\Generated_Source\PSoC5/USBFS_std.c ****     if(USBFS_configuration > 0u)
 1221              		.loc 1 563 0
 1222 0136 40F20003 		movw	r3, #:lower16:USBFS_configuration
 1223 013a C0F20003 		movt	r3, #:upper16:USBFS_configuration
 1224 013e 1B78     		ldrb	r3, [r3, #0]
 1225 0140 DBB2     		uxtb	r3, r3
 1226 0142 002B     		cmp	r3, #0
 1227 0144 00F04481 		beq	.L89
 564:.\Generated_Source\PSoC5/USBFS_std.c ****     {
 565:.\Generated_Source\PSoC5/USBFS_std.c ****         pTmp = USBFS_GetConfigTablePtr(USBFS_configuration - 1u);
 1228              		.loc 1 565 0
 1229 0148 40F20003 		movw	r3, #:lower16:USBFS_configuration
 1230 014c C0F20003 		movt	r3, #:upper16:USBFS_configuration
 1231 0150 1B78     		ldrb	r3, [r3, #0]
 1232 0152 DBB2     		uxtb	r3, r3
 1233 0154 03F1FF33 		add	r3, r3, #-1
 1234 0158 DBB2     		uxtb	r3, r3
 1235 015a 1846     		mov	r0, r3
 1236 015c FFF7FEFF 		bl	USBFS_GetConfigTablePtr
 1237 0160 0346     		mov	r3, r0
 1238 0162 3B61     		str	r3, [r7, #16]
 566:.\Generated_Source\PSoC5/USBFS_std.c ****         /* Set Power status for current configuration */
 567:.\Generated_Source\PSoC5/USBFS_std.c ****         pDescr = (uint8 *)pTmp->p_list;
 1239              		.loc 1 567 0
 1240 0164 3B69     		ldr	r3, [r7, #16]
 1241 0166 5B68     		ldr	r3, [r3, #4]
 1242 0168 FB60     		str	r3, [r7, #12]
 568:.\Generated_Source\PSoC5/USBFS_std.c ****         if((pDescr[USBFS_CONFIG_DESCR_ATTRIB] & USBFS_CONFIG_DESCR_ATTRIB_SELF_POWERED) != 0u)
 1243              		.loc 1 568 0
 1244 016a FB68     		ldr	r3, [r7, #12]
 1245 016c 03F10703 		add	r3, r3, #7
 1246 0170 1B78     		ldrb	r3, [r3, #0]	@ zero_extendqisi2
 1247 0172 03F04003 		and	r3, r3, #64
 1248 0176 002B     		cmp	r3, #0
ARM GAS  C:\DOCUME~1\ADMINI~1\LOCALS~1\Temp\ccmk5fwz.s 			page 33


 1249 0178 0ED0     		beq	.L72
 569:.\Generated_Source\PSoC5/USBFS_std.c ****         {
 570:.\Generated_Source\PSoC5/USBFS_std.c ****             USBFS_deviceStatus |=  USBFS_DEVICE_STATUS_SELF_POWERED;
 1250              		.loc 1 570 0
 1251 017a 40F20003 		movw	r3, #:lower16:USBFS_deviceStatus
 1252 017e C0F20003 		movt	r3, #:upper16:USBFS_deviceStatus
 1253 0182 1B78     		ldrb	r3, [r3, #0]
 1254 0184 DBB2     		uxtb	r3, r3
 1255 0186 43F00103 		orr	r3, r3, #1
 1256 018a DAB2     		uxtb	r2, r3
 1257 018c 40F20003 		movw	r3, #:lower16:USBFS_deviceStatus
 1258 0190 C0F20003 		movt	r3, #:upper16:USBFS_deviceStatus
 1259 0194 1A70     		strb	r2, [r3, #0]
 1260 0196 0DE0     		b	.L73
 1261              	.L72:
 571:.\Generated_Source\PSoC5/USBFS_std.c ****         }
 572:.\Generated_Source\PSoC5/USBFS_std.c ****         else
 573:.\Generated_Source\PSoC5/USBFS_std.c ****         {
 574:.\Generated_Source\PSoC5/USBFS_std.c ****             USBFS_deviceStatus &=  ~USBFS_DEVICE_STATUS_SELF_POWERED;
 1262              		.loc 1 574 0
 1263 0198 40F20003 		movw	r3, #:lower16:USBFS_deviceStatus
 1264 019c C0F20003 		movt	r3, #:upper16:USBFS_deviceStatus
 1265 01a0 1B78     		ldrb	r3, [r3, #0]
 1266 01a2 DBB2     		uxtb	r3, r3
 1267 01a4 1A46     		mov	r2, r3
 1268 01a6 02F0FE02 		and	r2, r2, #254
 1269 01aa 40F20003 		movw	r3, #:lower16:USBFS_deviceStatus
 1270 01ae C0F20003 		movt	r3, #:upper16:USBFS_deviceStatus
 1271 01b2 1A70     		strb	r2, [r3, #0]
 1272              	.L73:
 575:.\Generated_Source\PSoC5/USBFS_std.c ****         }
 576:.\Generated_Source\PSoC5/USBFS_std.c ****         pTmp++;
 1273              		.loc 1 576 0
 1274 01b4 3B69     		ldr	r3, [r7, #16]
 1275 01b6 03F10803 		add	r3, r3, #8
 1276 01ba 3B61     		str	r3, [r7, #16]
 577:.\Generated_Source\PSoC5/USBFS_std.c ****         ep = pTmp->c;  /* For this table, c is the number of endpoints configurations  */
 1277              		.loc 1 577 0
 1278 01bc 3B69     		ldr	r3, [r7, #16]
 1279 01be 1B78     		ldrb	r3, [r3, #0]
 1280 01c0 3B72     		strb	r3, [r7, #8]
 578:.\Generated_Source\PSoC5/USBFS_std.c **** 
 579:.\Generated_Source\PSoC5/USBFS_std.c ****         #if ((USBFS_EP_MA == USBFS__MA_DYNAMIC) && \
 580:.\Generated_Source\PSoC5/USBFS_std.c ****              (USBFS_EP_MM == USBFS__EP_MANUAL) )
 581:.\Generated_Source\PSoC5/USBFS_std.c ****             /* Config for dynamic EP memory allocation */
 582:.\Generated_Source\PSoC5/USBFS_std.c ****             /* p_list points the endpoint setting table. */
 583:.\Generated_Source\PSoC5/USBFS_std.c ****             pEP = (T_USBFS_EP_SETTINGS_BLOCK *) pTmp->p_list;
 584:.\Generated_Source\PSoC5/USBFS_std.c ****             for (i = 0u; i < ep; i++, pEP++)
 585:.\Generated_Source\PSoC5/USBFS_std.c ****             {
 586:.\Generated_Source\PSoC5/USBFS_std.c ****                 /* compate current Alternate setting with EP Alt*/
 587:.\Generated_Source\PSoC5/USBFS_std.c ****                 if(USBFS_interfaceSetting[pEP->interface] == pEP->altSetting)
 588:.\Generated_Source\PSoC5/USBFS_std.c ****                 {
 589:.\Generated_Source\PSoC5/USBFS_std.c ****                     cur_ep = pEP->addr & USBFS_DIR_UNUSED;
 590:.\Generated_Source\PSoC5/USBFS_std.c ****                     iso  = ((pEP->attributes & USBFS_EP_TYPE_MASK) == USBFS_EP_TYPE_ISOC);
 591:.\Generated_Source\PSoC5/USBFS_std.c ****                     if (pEP->addr & USBFS_DIR_IN)
 592:.\Generated_Source\PSoC5/USBFS_std.c ****                     {
 593:.\Generated_Source\PSoC5/USBFS_std.c ****                         /* IN Endpoint */
ARM GAS  C:\DOCUME~1\ADMINI~1\LOCALS~1\Temp\ccmk5fwz.s 			page 34


 594:.\Generated_Source\PSoC5/USBFS_std.c ****                         USBFS_EP[cur_ep].apiEpState = USBFS_EVENT_PENDING;
 595:.\Generated_Source\PSoC5/USBFS_std.c ****                         USBFS_EP[cur_ep].epMode = \
 596:.\Generated_Source\PSoC5/USBFS_std.c ****                                                 (iso ? USBFS_MODE_ISO_IN : USBFS_MODE_ACK_IN);
 597:.\Generated_Source\PSoC5/USBFS_std.c ****                         #if defined(USBFS_ENABLE_CDC_CLASS)
 598:.\Generated_Source\PSoC5/USBFS_std.c ****                             if(((pEP->bMisc == USBFS_CLASS_CDC_DATA) ||
 599:.\Generated_Source\PSoC5/USBFS_std.c ****                                 (pEP->bMisc == USBFS_CLASS_CDC)) &&
 600:.\Generated_Source\PSoC5/USBFS_std.c ****                                 ((pEP->attributes & USBFS_EP_TYPE_MASK) != USBFS_EP_TYPE_INT))
 601:.\Generated_Source\PSoC5/USBFS_std.c ****                             {
 602:.\Generated_Source\PSoC5/USBFS_std.c ****                                 USBFS_cdc_data_in_ep = cur_ep;
 603:.\Generated_Source\PSoC5/USBFS_std.c ****                             }
 604:.\Generated_Source\PSoC5/USBFS_std.c ****                         #endif  /* End USBFS_ENABLE_CDC_CLASS*/
 605:.\Generated_Source\PSoC5/USBFS_std.c ****                         #if defined(USBFS_ENABLE_MIDI_STREAMING)
 606:.\Generated_Source\PSoC5/USBFS_std.c ****                             if((pEP->bMisc == USBFS_CLASS_AUDIO) &&
 607:.\Generated_Source\PSoC5/USBFS_std.c ****                                ((pEP->attributes & USBFS_EP_TYPE_MASK) == USBFS_EP_TYPE_BULK))
 608:.\Generated_Source\PSoC5/USBFS_std.c ****                             {
 609:.\Generated_Source\PSoC5/USBFS_std.c ****                                 USBFS_midi_in_ep = cur_ep;
 610:.\Generated_Source\PSoC5/USBFS_std.c ****                             }
 611:.\Generated_Source\PSoC5/USBFS_std.c ****                         #endif  /* End USBFS_ENABLE_MIDI_STREAMING*/
 612:.\Generated_Source\PSoC5/USBFS_std.c ****                     }
 613:.\Generated_Source\PSoC5/USBFS_std.c ****                     else
 614:.\Generated_Source\PSoC5/USBFS_std.c ****                     {
 615:.\Generated_Source\PSoC5/USBFS_std.c ****                         /* OUT Endpoint */
 616:.\Generated_Source\PSoC5/USBFS_std.c ****                         USBFS_EP[cur_ep].apiEpState = USBFS_NO_EVENT_PENDING;
 617:.\Generated_Source\PSoC5/USBFS_std.c ****                         USBFS_EP[cur_ep].epMode = \
 618:.\Generated_Source\PSoC5/USBFS_std.c ****                                                 (iso ? USBFS_MODE_ISO_OUT : USBFS_MODE_ACK_OUT);
 619:.\Generated_Source\PSoC5/USBFS_std.c ****                         #if defined(USBFS_ENABLE_CDC_CLASS)
 620:.\Generated_Source\PSoC5/USBFS_std.c ****                             if(((pEP->bMisc == USBFS_CLASS_CDC_DATA) ||
 621:.\Generated_Source\PSoC5/USBFS_std.c ****                                 (pEP->bMisc == USBFS_CLASS_CDC)) &&
 622:.\Generated_Source\PSoC5/USBFS_std.c ****                                 ((pEP->attributes & USBFS_EP_TYPE_MASK) != USBFS_EP_TYPE_INT))
 623:.\Generated_Source\PSoC5/USBFS_std.c ****                             {
 624:.\Generated_Source\PSoC5/USBFS_std.c ****                                 USBFS_cdc_data_out_ep = cur_ep;
 625:.\Generated_Source\PSoC5/USBFS_std.c ****                             }
 626:.\Generated_Source\PSoC5/USBFS_std.c ****                         #endif  /* End USBFS_ENABLE_CDC_CLASS*/
 627:.\Generated_Source\PSoC5/USBFS_std.c ****                         #if defined(USBFS_ENABLE_MIDI_STREAMING)
 628:.\Generated_Source\PSoC5/USBFS_std.c ****                             if((pEP->bMisc == USBFS_CLASS_AUDIO) &&
 629:.\Generated_Source\PSoC5/USBFS_std.c ****                                ((pEP->attributes & USBFS_EP_TYPE_MASK) == USBFS_EP_TYPE_BULK))
 630:.\Generated_Source\PSoC5/USBFS_std.c ****                             {
 631:.\Generated_Source\PSoC5/USBFS_std.c ****                                 USBFS_midi_out_ep = cur_ep;
 632:.\Generated_Source\PSoC5/USBFS_std.c ****                             }
 633:.\Generated_Source\PSoC5/USBFS_std.c ****                         #endif  /* End USBFS_ENABLE_MIDI_STREAMING*/
 634:.\Generated_Source\PSoC5/USBFS_std.c ****                     }
 635:.\Generated_Source\PSoC5/USBFS_std.c ****                     USBFS_EP[cur_ep].bufferSize = pEP->bufferSize;
 636:.\Generated_Source\PSoC5/USBFS_std.c ****                     USBFS_EP[cur_ep].addr = pEP->addr;
 637:.\Generated_Source\PSoC5/USBFS_std.c ****                     USBFS_EP[cur_ep].attrib = pEP->attributes;
 638:.\Generated_Source\PSoC5/USBFS_std.c ****                 }
 639:.\Generated_Source\PSoC5/USBFS_std.c ****             }
 640:.\Generated_Source\PSoC5/USBFS_std.c ****         #else /* Config for static EP memory allocation  */
 641:.\Generated_Source\PSoC5/USBFS_std.c ****             for (i = USBFS_EP1; i < USBFS_MAX_EP; i++)
 1281              		.loc 1 641 0
 1282 01c2 4FF00103 		mov	r3, #1
 1283 01c6 BB72     		strb	r3, [r7, #10]
 1284 01c8 CCE0     		b	.L74
 1285              	.L86:
 642:.\Generated_Source\PSoC5/USBFS_std.c ****             {
 643:.\Generated_Source\PSoC5/USBFS_std.c ****                 /* and p_list points the endpoint setting table. */
 644:.\Generated_Source\PSoC5/USBFS_std.c ****                 pEP = (T_USBFS_EP_SETTINGS_BLOCK *) pTmp->p_list;
 1286              		.loc 1 644 0
ARM GAS  C:\DOCUME~1\ADMINI~1\LOCALS~1\Temp\ccmk5fwz.s 			page 35


 1287 01ca 3B69     		ldr	r3, [r7, #16]
 1288 01cc 5B68     		ldr	r3, [r3, #4]
 1289 01ce 7B61     		str	r3, [r7, #20]
 645:.\Generated_Source\PSoC5/USBFS_std.c ****                 /* find max length for each EP and select it (length could be different in differen
 646:.\Generated_Source\PSoC5/USBFS_std.c ****                 /* but other settings should be correct with regards to Interface alt Setting */
 647:.\Generated_Source\PSoC5/USBFS_std.c ****                 for (cur_ep = 0u; cur_ep < ep; cur_ep++, pEP++)
 1290              		.loc 1 647 0
 1291 01d0 4FF00003 		mov	r3, #0
 1292 01d4 7B72     		strb	r3, [r7, #9]
 1293 01d6 BCE0     		b	.L75
 1294              	.L85:
 648:.\Generated_Source\PSoC5/USBFS_std.c ****                 {
 649:.\Generated_Source\PSoC5/USBFS_std.c ****                     /* EP count is equal to EP # in table and we found larger EP length than have b
 650:.\Generated_Source\PSoC5/USBFS_std.c ****                     if(i == (pEP->addr & USBFS_DIR_UNUSED))
 1295              		.loc 1 650 0
 1296 01d8 BA7A     		ldrb	r2, [r7, #10]	@ zero_extendqisi2
 1297 01da 7B69     		ldr	r3, [r7, #20]
 1298 01dc 9B78     		ldrb	r3, [r3, #2]	@ zero_extendqisi2
 1299 01de 03F07F03 		and	r3, r3, #127
 1300 01e2 9A42     		cmp	r2, r3
 1301 01e4 40F0AD80 		bne	.L76
 651:.\Generated_Source\PSoC5/USBFS_std.c ****                     {
 652:.\Generated_Source\PSoC5/USBFS_std.c ****                         if(USBFS_EP[i].bufferSize < pEP->bufferSize)
 1302              		.loc 1 652 0
 1303 01e8 B97A     		ldrb	r1, [r7, #10]	@ zero_extendqisi2
 1304 01ea 40F20002 		movw	r2, #:lower16:USBFS_EP
 1305 01ee C0F20002 		movt	r2, #:upper16:USBFS_EP
 1306 01f2 0B46     		mov	r3, r1
 1307 01f4 4FEA4303 		lsl	r3, r3, #1
 1308 01f8 0B44     		add	r3, r3, r1
 1309 01fa 4FEA8303 		lsl	r3, r3, #2
 1310 01fe 1344     		add	r3, r3, r2
 1311 0200 03F10803 		add	r3, r3, #8
 1312 0204 1B88     		ldrh	r3, [r3, #0]	@ movhi
 1313 0206 9AB2     		uxth	r2, r3
 1314 0208 7B69     		ldr	r3, [r7, #20]
 1315 020a 9B88     		ldrh	r3, [r3, #4]
 1316 020c 9A42     		cmp	r2, r3
 1317 020e 11D2     		bcs	.L77
 653:.\Generated_Source\PSoC5/USBFS_std.c ****                         {
 654:.\Generated_Source\PSoC5/USBFS_std.c ****                             USBFS_EP[i].bufferSize = pEP->bufferSize;
 1318              		.loc 1 654 0
 1319 0210 B97A     		ldrb	r1, [r7, #10]	@ zero_extendqisi2
 1320 0212 7B69     		ldr	r3, [r7, #20]
 1321 0214 9888     		ldrh	r0, [r3, #4]
 1322 0216 40F20002 		movw	r2, #:lower16:USBFS_EP
 1323 021a C0F20002 		movt	r2, #:upper16:USBFS_EP
 1324 021e 0B46     		mov	r3, r1
 1325 0220 4FEA4303 		lsl	r3, r3, #1
 1326 0224 0B44     		add	r3, r3, r1
 1327 0226 4FEA8303 		lsl	r3, r3, #2
 1328 022a 1344     		add	r3, r3, r2
 1329 022c 03F10803 		add	r3, r3, #8
 1330 0230 0246     		mov	r2, r0	@ movhi
 1331 0232 1A80     		strh	r2, [r3, #0]	@ movhi
 1332              	.L77:
 655:.\Generated_Source\PSoC5/USBFS_std.c ****                         }
ARM GAS  C:\DOCUME~1\ADMINI~1\LOCALS~1\Temp\ccmk5fwz.s 			page 36


 656:.\Generated_Source\PSoC5/USBFS_std.c ****                         /* compate current Alternate setting with EP Alt*/
 657:.\Generated_Source\PSoC5/USBFS_std.c ****                         if(USBFS_interfaceSetting[pEP->interface] == pEP->altSetting)
 1333              		.loc 1 657 0
 1334 0234 7B69     		ldr	r3, [r7, #20]
 1335 0236 1B78     		ldrb	r3, [r3, #0]	@ zero_extendqisi2
 1336 0238 1A46     		mov	r2, r3
 1337 023a 40F20003 		movw	r3, #:lower16:USBFS_interfaceSetting
 1338 023e C0F20003 		movt	r3, #:upper16:USBFS_interfaceSetting
 1339 0242 9B5C     		ldrb	r3, [r3, r2]
 1340 0244 DAB2     		uxtb	r2, r3
 1341 0246 7B69     		ldr	r3, [r7, #20]
 1342 0248 5B78     		ldrb	r3, [r3, #1]	@ zero_extendqisi2
 1343 024a 9A42     		cmp	r2, r3
 1344 024c 79D1     		bne	.L76
 658:.\Generated_Source\PSoC5/USBFS_std.c ****                         {
 659:.\Generated_Source\PSoC5/USBFS_std.c ****                             iso  = ((pEP->attributes & USBFS_EP_TYPE_MASK) == USBFS_EP_TYPE_ISOC);
 1345              		.loc 1 659 0
 1346 024e 7B69     		ldr	r3, [r7, #20]
 1347 0250 DB78     		ldrb	r3, [r3, #3]	@ zero_extendqisi2
 1348 0252 03F00303 		and	r3, r3, #3
 1349 0256 012B     		cmp	r3, #1
 1350 0258 14BF     		ite	ne
 1351 025a 0023     		movne	r3, #0
 1352 025c 0123     		moveq	r3, #1
 1353 025e FB72     		strb	r3, [r7, #11]
 660:.\Generated_Source\PSoC5/USBFS_std.c ****                             if (pEP->addr & USBFS_DIR_IN)
 1354              		.loc 1 660 0
 1355 0260 7B69     		ldr	r3, [r7, #20]
 1356 0262 9B78     		ldrb	r3, [r3, #2]	@ zero_extendqisi2
 1357 0264 5BB2     		sxtb	r3, r3
 1358 0266 002B     		cmp	r3, #0
 1359 0268 25DA     		bge	.L78
 661:.\Generated_Source\PSoC5/USBFS_std.c ****                             {
 662:.\Generated_Source\PSoC5/USBFS_std.c ****                                 /* IN Endpoint */
 663:.\Generated_Source\PSoC5/USBFS_std.c ****                                 USBFS_EP[i].apiEpState = USBFS_EVENT_PENDING;
 1360              		.loc 1 663 0
 1361 026a B97A     		ldrb	r1, [r7, #10]	@ zero_extendqisi2
 1362 026c 40F20002 		movw	r2, #:lower16:USBFS_EP
 1363 0270 C0F20002 		movt	r2, #:upper16:USBFS_EP
 1364 0274 0B46     		mov	r3, r1
 1365 0276 4FEA4303 		lsl	r3, r3, #1
 1366 027a 0B44     		add	r3, r3, r1
 1367 027c 4FEA8303 		lsl	r3, r3, #2
 1368 0280 1344     		add	r3, r3, r2
 1369 0282 4FF00102 		mov	r2, #1
 1370 0286 5A70     		strb	r2, [r3, #1]
 664:.\Generated_Source\PSoC5/USBFS_std.c ****                                 USBFS_EP[i].epMode =
 1371              		.loc 1 664 0
 1372 0288 B87A     		ldrb	r0, [r7, #10]	@ zero_extendqisi2
 1373 028a FB7A     		ldrb	r3, [r7, #11]	@ zero_extendqisi2
 1374 028c 002B     		cmp	r3, #0
 1375 028e 02D0     		beq	.L79
 1376 0290 4FF00701 		mov	r1, #7
 1377 0294 01E0     		b	.L80
 1378              	.L79:
 1379 0296 4FF00D01 		mov	r1, #13
 1380              	.L80:
ARM GAS  C:\DOCUME~1\ADMINI~1\LOCALS~1\Temp\ccmk5fwz.s 			page 37


 1381 029a 40F20002 		movw	r2, #:lower16:USBFS_EP
 1382 029e C0F20002 		movt	r2, #:upper16:USBFS_EP
 1383 02a2 0346     		mov	r3, r0
 1384 02a4 4FEA4303 		lsl	r3, r3, #1
 1385 02a8 0344     		add	r3, r3, r0
 1386 02aa 4FEA8303 		lsl	r3, r3, #2
 1387 02ae 1344     		add	r3, r3, r2
 1388 02b0 0A46     		mov	r2, r1
 1389 02b2 5A71     		strb	r2, [r3, #5]
 1390 02b4 24E0     		b	.L81
 1391              	.L78:
 665:.\Generated_Source\PSoC5/USBFS_std.c ****                                                     (iso ? USBFS_MODE_ISO_IN : USBFS_MODE_ACK_IN);
 666:.\Generated_Source\PSoC5/USBFS_std.c ****                                 /* Find and init CDC IN endpoint number */
 667:.\Generated_Source\PSoC5/USBFS_std.c ****                                 #if defined(USBFS_ENABLE_CDC_CLASS)
 668:.\Generated_Source\PSoC5/USBFS_std.c ****                                     if(((pEP->bMisc == USBFS_CLASS_CDC_DATA) ||
 669:.\Generated_Source\PSoC5/USBFS_std.c ****                                         (pEP->bMisc == USBFS_CLASS_CDC)) &&
 670:.\Generated_Source\PSoC5/USBFS_std.c ****                                         ((pEP->attributes & USBFS_EP_TYPE_MASK) !=
 671:.\Generated_Source\PSoC5/USBFS_std.c ****                                                                                         USBFS_EP_TY
 672:.\Generated_Source\PSoC5/USBFS_std.c ****                                     {
 673:.\Generated_Source\PSoC5/USBFS_std.c ****                                         USBFS_cdc_data_in_ep = i;
 674:.\Generated_Source\PSoC5/USBFS_std.c ****                                     }
 675:.\Generated_Source\PSoC5/USBFS_std.c ****                                 #endif  /* End USBFS_ENABLE_CDC_CLASS*/
 676:.\Generated_Source\PSoC5/USBFS_std.c ****                                 #if defined(USBFS_ENABLE_MIDI_STREAMING)
 677:.\Generated_Source\PSoC5/USBFS_std.c ****                                     if((pEP->bMisc == USBFS_CLASS_AUDIO) &&
 678:.\Generated_Source\PSoC5/USBFS_std.c ****                                        ((pEP->attributes & USBFS_EP_TYPE_MASK) ==
 679:.\Generated_Source\PSoC5/USBFS_std.c ****                                                                                         USBFS_EP_TY
 680:.\Generated_Source\PSoC5/USBFS_std.c ****                                     {
 681:.\Generated_Source\PSoC5/USBFS_std.c ****                                         USBFS_midi_in_ep = i;
 682:.\Generated_Source\PSoC5/USBFS_std.c ****                                     }
 683:.\Generated_Source\PSoC5/USBFS_std.c ****                                 #endif  /* End USBFS_ENABLE_MIDI_STREAMING*/
 684:.\Generated_Source\PSoC5/USBFS_std.c ****                             }
 685:.\Generated_Source\PSoC5/USBFS_std.c ****                             else
 686:.\Generated_Source\PSoC5/USBFS_std.c ****                             {
 687:.\Generated_Source\PSoC5/USBFS_std.c ****                                 /* OUT Endpoint */
 688:.\Generated_Source\PSoC5/USBFS_std.c ****                                 USBFS_EP[i].apiEpState = USBFS_NO_EVENT_PENDING;
 1392              		.loc 1 688 0
 1393 02b6 B97A     		ldrb	r1, [r7, #10]	@ zero_extendqisi2
 1394 02b8 40F20002 		movw	r2, #:lower16:USBFS_EP
 1395 02bc C0F20002 		movt	r2, #:upper16:USBFS_EP
 1396 02c0 0B46     		mov	r3, r1
 1397 02c2 4FEA4303 		lsl	r3, r3, #1
 1398 02c6 0B44     		add	r3, r3, r1
 1399 02c8 4FEA8303 		lsl	r3, r3, #2
 1400 02cc 1344     		add	r3, r3, r2
 1401 02ce 4FF00002 		mov	r2, #0
 1402 02d2 5A70     		strb	r2, [r3, #1]
 689:.\Generated_Source\PSoC5/USBFS_std.c ****                                 USBFS_EP[i].epMode =
 1403              		.loc 1 689 0
 1404 02d4 B87A     		ldrb	r0, [r7, #10]	@ zero_extendqisi2
 1405 02d6 FB7A     		ldrb	r3, [r7, #11]	@ zero_extendqisi2
 1406 02d8 002B     		cmp	r3, #0
 1407 02da 02D0     		beq	.L82
 1408 02dc 4FF00501 		mov	r1, #5
 1409 02e0 01E0     		b	.L83
 1410              	.L82:
 1411 02e2 4FF00901 		mov	r1, #9
 1412              	.L83:
ARM GAS  C:\DOCUME~1\ADMINI~1\LOCALS~1\Temp\ccmk5fwz.s 			page 38


 1413 02e6 40F20002 		movw	r2, #:lower16:USBFS_EP
 1414 02ea C0F20002 		movt	r2, #:upper16:USBFS_EP
 1415 02ee 0346     		mov	r3, r0
 1416 02f0 4FEA4303 		lsl	r3, r3, #1
 1417 02f4 0344     		add	r3, r3, r0
 1418 02f6 4FEA8303 		lsl	r3, r3, #2
 1419 02fa 1344     		add	r3, r3, r2
 1420 02fc 0A46     		mov	r2, r1
 1421 02fe 5A71     		strb	r2, [r3, #5]
 1422              	.L81:
 690:.\Generated_Source\PSoC5/USBFS_std.c ****                                                 (iso ? USBFS_MODE_ISO_OUT : USBFS_MODE_ACK_OUT);
 691:.\Generated_Source\PSoC5/USBFS_std.c ****                                 /* Find and init CDC IN endpoint number */
 692:.\Generated_Source\PSoC5/USBFS_std.c ****                                 #if defined(USBFS_ENABLE_CDC_CLASS)
 693:.\Generated_Source\PSoC5/USBFS_std.c ****                                     if(((pEP->bMisc == USBFS_CLASS_CDC_DATA) ||
 694:.\Generated_Source\PSoC5/USBFS_std.c ****                                         (pEP->bMisc == USBFS_CLASS_CDC)) &&
 695:.\Generated_Source\PSoC5/USBFS_std.c ****                                         ((pEP->attributes & USBFS_EP_TYPE_MASK) !=
 696:.\Generated_Source\PSoC5/USBFS_std.c ****                                                                                     USBFS_EP_TYPE_I
 697:.\Generated_Source\PSoC5/USBFS_std.c ****                                     {
 698:.\Generated_Source\PSoC5/USBFS_std.c ****                                         USBFS_cdc_data_out_ep = i;
 699:.\Generated_Source\PSoC5/USBFS_std.c ****                                     }
 700:.\Generated_Source\PSoC5/USBFS_std.c ****                                 #endif  /* End USBFS_ENABLE_CDC_CLASS*/
 701:.\Generated_Source\PSoC5/USBFS_std.c ****                                 #if defined(USBFS_ENABLE_MIDI_STREAMING)
 702:.\Generated_Source\PSoC5/USBFS_std.c ****                                     if((pEP->bMisc == USBFS_CLASS_AUDIO) &&
 703:.\Generated_Source\PSoC5/USBFS_std.c ****                                        ((pEP->attributes & USBFS_EP_TYPE_MASK) ==
 704:.\Generated_Source\PSoC5/USBFS_std.c ****                                                                                         USBFS_EP_TY
 705:.\Generated_Source\PSoC5/USBFS_std.c ****                                     {
 706:.\Generated_Source\PSoC5/USBFS_std.c ****                                         USBFS_midi_out_ep = i;
 707:.\Generated_Source\PSoC5/USBFS_std.c ****                                     }
 708:.\Generated_Source\PSoC5/USBFS_std.c ****                                 #endif  /* End USBFS_ENABLE_MIDI_STREAMING*/
 709:.\Generated_Source\PSoC5/USBFS_std.c ****                             }
 710:.\Generated_Source\PSoC5/USBFS_std.c ****                             USBFS_EP[i].addr = pEP->addr;
 1423              		.loc 1 710 0
 1424 0300 B97A     		ldrb	r1, [r7, #10]	@ zero_extendqisi2
 1425 0302 7B69     		ldr	r3, [r7, #20]
 1426 0304 9878     		ldrb	r0, [r3, #2]	@ zero_extendqisi2
 1427 0306 40F20002 		movw	r2, #:lower16:USBFS_EP
 1428 030a C0F20002 		movt	r2, #:upper16:USBFS_EP
 1429 030e 0B46     		mov	r3, r1
 1430 0310 4FEA4303 		lsl	r3, r3, #1
 1431 0314 0B44     		add	r3, r3, r1
 1432 0316 4FEA8303 		lsl	r3, r3, #2
 1433 031a 1344     		add	r3, r3, r2
 1434 031c 0246     		mov	r2, r0
 1435 031e 1A71     		strb	r2, [r3, #4]
 711:.\Generated_Source\PSoC5/USBFS_std.c ****                             USBFS_EP[i].attrib = pEP->attributes;
 1436              		.loc 1 711 0
 1437 0320 B97A     		ldrb	r1, [r7, #10]	@ zero_extendqisi2
 1438 0322 7B69     		ldr	r3, [r7, #20]
 1439 0324 D878     		ldrb	r0, [r3, #3]	@ zero_extendqisi2
 1440 0326 40F20002 		movw	r2, #:lower16:USBFS_EP
 1441 032a C0F20002 		movt	r2, #:upper16:USBFS_EP
 1442 032e 0B46     		mov	r3, r1
 1443 0330 4FEA4303 		lsl	r3, r3, #1
 1444 0334 0B44     		add	r3, r3, r1
 1445 0336 4FEA8303 		lsl	r3, r3, #2
 1446 033a 1344     		add	r3, r3, r2
 1447 033c 0246     		mov	r2, r0
ARM GAS  C:\DOCUME~1\ADMINI~1\LOCALS~1\Temp\ccmk5fwz.s 			page 39


 1448 033e 1A70     		strb	r2, [r3, #0]
 712:.\Generated_Source\PSoC5/USBFS_std.c **** 
 713:.\Generated_Source\PSoC5/USBFS_std.c ****                             #if(USBFS_EP_MM == USBFS__EP_DMAAUTO)
 714:.\Generated_Source\PSoC5/USBFS_std.c ****                                 break;      /* use first EP setting in Auto memory managment */
 1449              		.loc 1 714 0
 1450 0340 0CE0     		b	.L84
 1451              	.L76:
 1452              		.loc 1 647 0
 1453 0342 7B7A     		ldrb	r3, [r7, #9]
 1454 0344 03F10103 		add	r3, r3, #1
 1455 0348 7B72     		strb	r3, [r7, #9]
 1456 034a 7B69     		ldr	r3, [r7, #20]
 1457 034c 03F10803 		add	r3, r3, #8
 1458 0350 7B61     		str	r3, [r7, #20]
 1459              	.L75:
 1460 0352 7A7A     		ldrb	r2, [r7, #9]	@ zero_extendqisi2
 1461 0354 3B7A     		ldrb	r3, [r7, #8]	@ zero_extendqisi2
 1462 0356 9A42     		cmp	r2, r3
 1463 0358 FFF43EAF 		bcc	.L85
 1464              	.L84:
 1465              		.loc 1 641 0
 1466 035c BB7A     		ldrb	r3, [r7, #10]
 1467 035e 03F10103 		add	r3, r3, #1
 1468 0362 BB72     		strb	r3, [r7, #10]
 1469              	.L74:
 1470 0364 BB7A     		ldrb	r3, [r7, #10]	@ zero_extendqisi2
 1471 0366 082B     		cmp	r3, #8
 1472 0368 7FF62FAF 		bls	.L86
 715:.\Generated_Source\PSoC5/USBFS_std.c ****                             #endif /* End USBFS_EP_MM == USBFS__EP_DMAAUTO */
 716:.\Generated_Source\PSoC5/USBFS_std.c ****                         }
 717:.\Generated_Source\PSoC5/USBFS_std.c ****                     }
 718:.\Generated_Source\PSoC5/USBFS_std.c ****                 }
 719:.\Generated_Source\PSoC5/USBFS_std.c ****             }
 720:.\Generated_Source\PSoC5/USBFS_std.c ****         #endif /* End (USBFS_EP_MA == USBFS__MA_DYNAMIC) */
 721:.\Generated_Source\PSoC5/USBFS_std.c **** 
 722:.\Generated_Source\PSoC5/USBFS_std.c ****         /* Init class array for each interface and interface number for each EP.
 723:.\Generated_Source\PSoC5/USBFS_std.c ****         *  It is used for hangling Class specific requests directed to either an
 724:.\Generated_Source\PSoC5/USBFS_std.c ****         *  interface or the endpoint.
 725:.\Generated_Source\PSoC5/USBFS_std.c ****         */
 726:.\Generated_Source\PSoC5/USBFS_std.c ****         /* p_list points the endpoint setting table. */
 727:.\Generated_Source\PSoC5/USBFS_std.c ****         pEP = (T_USBFS_EP_SETTINGS_BLOCK *) pTmp->p_list;
 1473              		.loc 1 727 0
 1474 036c 3B69     		ldr	r3, [r7, #16]
 1475 036e 5B68     		ldr	r3, [r3, #4]
 1476 0370 7B61     		str	r3, [r7, #20]
 728:.\Generated_Source\PSoC5/USBFS_std.c ****         for (i = 0u; i < ep; i++, pEP++)
 1477              		.loc 1 728 0
 1478 0372 4FF00003 		mov	r3, #0
 1479 0376 BB72     		strb	r3, [r7, #10]
 1480 0378 1CE0     		b	.L87
 1481              	.L88:
 729:.\Generated_Source\PSoC5/USBFS_std.c ****         {
 730:.\Generated_Source\PSoC5/USBFS_std.c ****             /* config interface number for each EP*/
 731:.\Generated_Source\PSoC5/USBFS_std.c ****             USBFS_EP[pEP->addr & USBFS_DIR_UNUSED].interface = pEP->interface;
 1482              		.loc 1 731 0
 1483 037a 7B69     		ldr	r3, [r7, #20]
 1484 037c 9B78     		ldrb	r3, [r3, #2]	@ zero_extendqisi2
ARM GAS  C:\DOCUME~1\ADMINI~1\LOCALS~1\Temp\ccmk5fwz.s 			page 40


 1485 037e 03F07F01 		and	r1, r3, #127
 1486 0382 7B69     		ldr	r3, [r7, #20]
 1487 0384 1878     		ldrb	r0, [r3, #0]	@ zero_extendqisi2
 1488 0386 40F20002 		movw	r2, #:lower16:USBFS_EP
 1489 038a C0F20002 		movt	r2, #:upper16:USBFS_EP
 1490 038e 0B46     		mov	r3, r1
 1491 0390 4FEA4303 		lsl	r3, r3, #1
 1492 0394 0B44     		add	r3, r3, r1
 1493 0396 4FEA8303 		lsl	r3, r3, #2
 1494 039a 1344     		add	r3, r3, r2
 1495 039c 03F10803 		add	r3, r3, #8
 1496 03a0 0246     		mov	r2, r0
 1497 03a2 9A70     		strb	r2, [r3, #2]
 1498              		.loc 1 728 0
 1499 03a4 BB7A     		ldrb	r3, [r7, #10]
 1500 03a6 03F10103 		add	r3, r3, #1
 1501 03aa BB72     		strb	r3, [r7, #10]
 1502 03ac 7B69     		ldr	r3, [r7, #20]
 1503 03ae 03F10803 		add	r3, r3, #8
 1504 03b2 7B61     		str	r3, [r7, #20]
 1505              	.L87:
 1506 03b4 BA7A     		ldrb	r2, [r7, #10]	@ zero_extendqisi2
 1507 03b6 3B7A     		ldrb	r3, [r7, #8]	@ zero_extendqisi2
 1508 03b8 9A42     		cmp	r2, r3
 1509 03ba DED3     		bcc	.L88
 732:.\Generated_Source\PSoC5/USBFS_std.c ****         }
 733:.\Generated_Source\PSoC5/USBFS_std.c ****         /* init pointer on interface class table*/
 734:.\Generated_Source\PSoC5/USBFS_std.c ****         USBFS_interfaceClass = USBFS_GetInterfaceClassTablePtr();
 1510              		.loc 1 734 0
 1511 03bc FFF7FEFF 		bl	USBFS_GetInterfaceClassTablePtr
 1512 03c0 0246     		mov	r2, r0
 1513 03c2 40F20003 		movw	r3, #:lower16:USBFS_interfaceClass
 1514 03c6 C0F20003 		movt	r3, #:upper16:USBFS_interfaceClass
 1515 03ca 1A60     		str	r2, [r3, #0]
 735:.\Generated_Source\PSoC5/USBFS_std.c ****         /* Set the endpoint buffer addresses */
 736:.\Generated_Source\PSoC5/USBFS_std.c ****         
 737:.\Generated_Source\PSoC5/USBFS_std.c ****         #if(USBFS_EP_MM != USBFS__EP_DMAAUTO)
 738:.\Generated_Source\PSoC5/USBFS_std.c ****             for (ep = USBFS_EP1; ep < USBFS_MAX_EP; ep++)
 739:.\Generated_Source\PSoC5/USBFS_std.c ****             {
 740:.\Generated_Source\PSoC5/USBFS_std.c ****                 USBFS_EP[ep].buffOffset = count;
 741:.\Generated_Source\PSoC5/USBFS_std.c ****                  count += USBFS_EP[ep].bufferSize;
 742:.\Generated_Source\PSoC5/USBFS_std.c ****             }
 743:.\Generated_Source\PSoC5/USBFS_std.c ****         #endif /* End USBFS_EP_MM != USBFS__EP_DMAAUTO */
 744:.\Generated_Source\PSoC5/USBFS_std.c **** 
 745:.\Generated_Source\PSoC5/USBFS_std.c ****         /* Congigure hardware registers */
 746:.\Generated_Source\PSoC5/USBFS_std.c ****         USBFS_ConfigReg();
 1516              		.loc 1 746 0
 1517 03cc FFF7FEFF 		bl	USBFS_ConfigReg
 1518              	.L89:
 747:.\Generated_Source\PSoC5/USBFS_std.c ****     } /* USBFS_configuration > 0 */
 748:.\Generated_Source\PSoC5/USBFS_std.c **** }
 1519              		.loc 1 748 0
 1520 03d0 07F11807 		add	r7, r7, #24
 1521 03d4 BD46     		mov	sp, r7
 1522 03d6 80BD     		pop	{r7, pc}
 1523              		.cfi_endproc
 1524              	.LFE4:
ARM GAS  C:\DOCUME~1\ADMINI~1\LOCALS~1\Temp\ccmk5fwz.s 			page 41


 1525              		.size	USBFS_Config, .-USBFS_Config
 1526              		.section	.text.USBFS_ConfigAltChanged,"ax",%progbits
 1527              		.align	2
 1528              		.global	USBFS_ConfigAltChanged
 1529              		.thumb
 1530              		.thumb_func
 1531              		.type	USBFS_ConfigAltChanged, %function
 1532              	USBFS_ConfigAltChanged:
 1533              	.LFB5:
 749:.\Generated_Source\PSoC5/USBFS_std.c **** 
 750:.\Generated_Source\PSoC5/USBFS_std.c **** 
 751:.\Generated_Source\PSoC5/USBFS_std.c **** /*******************************************************************************
 752:.\Generated_Source\PSoC5/USBFS_std.c **** * Function Name: USBFS_ConfigAltChanged
 753:.\Generated_Source\PSoC5/USBFS_std.c **** ********************************************************************************
 754:.\Generated_Source\PSoC5/USBFS_std.c **** *
 755:.\Generated_Source\PSoC5/USBFS_std.c **** * Summary:
 756:.\Generated_Source\PSoC5/USBFS_std.c **** *  This routine undate configuration for the required endpoints only.
 757:.\Generated_Source\PSoC5/USBFS_std.c **** *  It is called after SET_INTERFACE request when Static memory allocation used.
 758:.\Generated_Source\PSoC5/USBFS_std.c **** *
 759:.\Generated_Source\PSoC5/USBFS_std.c **** * Parameters:
 760:.\Generated_Source\PSoC5/USBFS_std.c **** *  None.
 761:.\Generated_Source\PSoC5/USBFS_std.c **** *
 762:.\Generated_Source\PSoC5/USBFS_std.c **** * Return:
 763:.\Generated_Source\PSoC5/USBFS_std.c **** *  None.
 764:.\Generated_Source\PSoC5/USBFS_std.c **** *
 765:.\Generated_Source\PSoC5/USBFS_std.c **** * Reentrant:
 766:.\Generated_Source\PSoC5/USBFS_std.c **** *  No.
 767:.\Generated_Source\PSoC5/USBFS_std.c **** *
 768:.\Generated_Source\PSoC5/USBFS_std.c **** *******************************************************************************/
 769:.\Generated_Source\PSoC5/USBFS_std.c **** void USBFS_ConfigAltChanged() 
 770:.\Generated_Source\PSoC5/USBFS_std.c **** {
 1534              		.loc 1 770 0
 1535              		.cfi_startproc
 1536              		@ args = 0, pretend = 0, frame = 16
 1537              		@ frame_needed = 1, uses_anonymous_args = 0
 1538 0000 80B5     		push	{r7, lr}
 1539              	.LCFI15:
 1540              		.cfi_def_cfa_offset 8
 1541 0002 84B0     		sub	sp, sp, #16
 1542              	.LCFI16:
 1543              		.cfi_def_cfa_offset 24
 1544 0004 00AF     		add	r7, sp, #0
 1545              		.cfi_offset 14, -4
 1546              		.cfi_offset 7, -8
 1547              	.LCFI17:
 1548              		.cfi_def_cfa_register 7
 771:.\Generated_Source\PSoC5/USBFS_std.c ****     uint8 ep,cur_ep,i;
 772:.\Generated_Source\PSoC5/USBFS_std.c ****     uint8 iso;
 773:.\Generated_Source\PSoC5/USBFS_std.c ****     uint8 ri;
 774:.\Generated_Source\PSoC5/USBFS_std.c **** 
 775:.\Generated_Source\PSoC5/USBFS_std.c ****     T_USBFS_LUT *pTmp;
 776:.\Generated_Source\PSoC5/USBFS_std.c ****     T_USBFS_EP_SETTINGS_BLOCK *pEP;
 777:.\Generated_Source\PSoC5/USBFS_std.c **** 
 778:.\Generated_Source\PSoC5/USBFS_std.c **** 
 779:.\Generated_Source\PSoC5/USBFS_std.c ****     /* Init Endpoints and Device Status if configured */
 780:.\Generated_Source\PSoC5/USBFS_std.c ****     if(USBFS_configuration > 0u)
 1549              		.loc 1 780 0
ARM GAS  C:\DOCUME~1\ADMINI~1\LOCALS~1\Temp\ccmk5fwz.s 			page 42


 1550 0006 40F20003 		movw	r3, #:lower16:USBFS_configuration
 1551 000a C0F20003 		movt	r3, #:upper16:USBFS_configuration
 1552 000e 1B78     		ldrb	r3, [r3, #0]
 1553 0010 DBB2     		uxtb	r3, r3
 1554 0012 002B     		cmp	r3, #0
 1555 0014 00F07D81 		beq	.L104
 781:.\Generated_Source\PSoC5/USBFS_std.c ****     {
 782:.\Generated_Source\PSoC5/USBFS_std.c ****         pTmp = USBFS_GetConfigTablePtr(USBFS_configuration - 1u);
 1556              		.loc 1 782 0
 1557 0018 40F20003 		movw	r3, #:lower16:USBFS_configuration
 1558 001c C0F20003 		movt	r3, #:upper16:USBFS_configuration
 1559 0020 1B78     		ldrb	r3, [r3, #0]
 1560 0022 DBB2     		uxtb	r3, r3
 1561 0024 03F1FF33 		add	r3, r3, #-1
 1562 0028 DBB2     		uxtb	r3, r3
 1563 002a 1846     		mov	r0, r3
 1564 002c FFF7FEFF 		bl	USBFS_GetConfigTablePtr
 1565 0030 0346     		mov	r3, r0
 1566 0032 BB60     		str	r3, [r7, #8]
 783:.\Generated_Source\PSoC5/USBFS_std.c ****         pTmp++;
 1567              		.loc 1 783 0
 1568 0034 BB68     		ldr	r3, [r7, #8]
 1569 0036 03F10803 		add	r3, r3, #8
 1570 003a BB60     		str	r3, [r7, #8]
 784:.\Generated_Source\PSoC5/USBFS_std.c ****         ep = pTmp->c;  /* For this table, c is the number of endpoints configurations  */
 1571              		.loc 1 784 0
 1572 003c BB68     		ldr	r3, [r7, #8]
 1573 003e 1B78     		ldrb	r3, [r3, #0]
 1574 0040 FB70     		strb	r3, [r7, #3]
 785:.\Generated_Source\PSoC5/USBFS_std.c **** 
 786:.\Generated_Source\PSoC5/USBFS_std.c ****         /* Do not touch EP wich doesn't need reconfiguration */
 787:.\Generated_Source\PSoC5/USBFS_std.c ****         /* When Alt setting chaged, the only required endpoints need to be reconfigured */
 788:.\Generated_Source\PSoC5/USBFS_std.c ****         /* p_list points the endpoint setting table. */
 789:.\Generated_Source\PSoC5/USBFS_std.c ****         pEP = (T_USBFS_EP_SETTINGS_BLOCK *) pTmp->p_list;
 1575              		.loc 1 789 0
 1576 0042 BB68     		ldr	r3, [r7, #8]
 1577 0044 5B68     		ldr	r3, [r3, #4]
 1578 0046 FB60     		str	r3, [r7, #12]
 790:.\Generated_Source\PSoC5/USBFS_std.c ****         for (i = 0u; i < ep; i++, pEP++)
 1579              		.loc 1 790 0
 1580 0048 4FF00003 		mov	r3, #0
 1581 004c 7B71     		strb	r3, [r7, #5]
 1582 004e 5BE1     		b	.L92
 1583              	.L103:
 791:.\Generated_Source\PSoC5/USBFS_std.c ****         {
 792:.\Generated_Source\PSoC5/USBFS_std.c ****             /*If Alt setting changed and new is same with EP Alt */
 793:.\Generated_Source\PSoC5/USBFS_std.c ****             if((USBFS_interfaceSetting[pEP->interface] !=
 1584              		.loc 1 793 0
 1585 0050 FB68     		ldr	r3, [r7, #12]
 1586 0052 1B78     		ldrb	r3, [r3, #0]	@ zero_extendqisi2
 1587 0054 1A46     		mov	r2, r3
 1588 0056 40F20003 		movw	r3, #:lower16:USBFS_interfaceSetting
 1589 005a C0F20003 		movt	r3, #:upper16:USBFS_interfaceSetting
 1590 005e 9B5C     		ldrb	r3, [r3, r2]
 1591 0060 DAB2     		uxtb	r2, r3
 794:.\Generated_Source\PSoC5/USBFS_std.c ****                 USBFS_interfaceSetting_last[pEP->interface] ) &&
 1592              		.loc 1 794 0
ARM GAS  C:\DOCUME~1\ADMINI~1\LOCALS~1\Temp\ccmk5fwz.s 			page 43


 1593 0062 FB68     		ldr	r3, [r7, #12]
 1594 0064 1B78     		ldrb	r3, [r3, #0]	@ zero_extendqisi2
 1595              		.loc 1 793 0
 1596 0066 1946     		mov	r1, r3
 1597              		.loc 1 794 0
 1598 0068 40F20003 		movw	r3, #:lower16:USBFS_interfaceSetting_last
 1599 006c C0F20003 		movt	r3, #:upper16:USBFS_interfaceSetting_last
 1600 0070 5B5C     		ldrb	r3, [r3, r1]
 1601 0072 DBB2     		uxtb	r3, r3
 1602              		.loc 1 793 0
 1603 0074 9A42     		cmp	r2, r3
 1604 0076 00F03F81 		beq	.L93
 795:.\Generated_Source\PSoC5/USBFS_std.c ****                (USBFS_interfaceSetting[pEP->interface] == pEP->altSetting) &&
 1605              		.loc 1 795 0
 1606 007a FB68     		ldr	r3, [r7, #12]
 1607 007c 1B78     		ldrb	r3, [r3, #0]	@ zero_extendqisi2
 1608 007e 1A46     		mov	r2, r3
 1609 0080 40F20003 		movw	r3, #:lower16:USBFS_interfaceSetting
 1610 0084 C0F20003 		movt	r3, #:upper16:USBFS_interfaceSetting
 1611 0088 9B5C     		ldrb	r3, [r3, r2]
 1612 008a DAB2     		uxtb	r2, r3
 1613 008c FB68     		ldr	r3, [r7, #12]
 1614 008e 5B78     		ldrb	r3, [r3, #1]	@ zero_extendqisi2
 1615              		.loc 1 793 0
 1616 0090 9A42     		cmp	r2, r3
 1617 0092 40F03181 		bne	.L93
 796:.\Generated_Source\PSoC5/USBFS_std.c ****                 pEP->interface == CY_GET_REG8(USBFS_wIndexLo))
 1618              		.loc 1 796 0
 1619 0096 FB68     		ldr	r3, [r7, #12]
 1620 0098 1A78     		ldrb	r2, [r3, #0]	@ zero_extendqisi2
 1621 009a 46F20403 		movw	r3, #:lower16:1073766404
 1622 009e C4F20003 		movt	r3, #:upper16:1073766404
 1623 00a2 1B78     		ldrb	r3, [r3, #0]
 1624 00a4 DBB2     		uxtb	r3, r3
 1625              		.loc 1 793 0
 1626 00a6 9A42     		cmp	r2, r3
 1627 00a8 40F02681 		bne	.L93
 797:.\Generated_Source\PSoC5/USBFS_std.c ****             {
 798:.\Generated_Source\PSoC5/USBFS_std.c ****                 cur_ep = pEP->addr & USBFS_DIR_UNUSED;
 1628              		.loc 1 798 0
 1629 00ac FB68     		ldr	r3, [r7, #12]
 1630 00ae 9B78     		ldrb	r3, [r3, #2]	@ zero_extendqisi2
 1631 00b0 03F07F03 		and	r3, r3, #127
 1632 00b4 3B71     		strb	r3, [r7, #4]
 799:.\Generated_Source\PSoC5/USBFS_std.c ****                 ri = ((cur_ep - USBFS_EP1) << USBFS_EPX_CNTX_ADDR_SHIFT);
 1633              		.loc 1 799 0
 1634 00b6 3B79     		ldrb	r3, [r7, #4]
 1635 00b8 03F1FF33 		add	r3, r3, #-1
 1636 00bc DBB2     		uxtb	r3, r3
 1637 00be 4FEA0313 		lsl	r3, r3, #4
 1638 00c2 FB71     		strb	r3, [r7, #7]
 800:.\Generated_Source\PSoC5/USBFS_std.c ****                 iso  = ((pEP->attributes & USBFS_EP_TYPE_MASK) == USBFS_EP_TYPE_ISOC);
 1639              		.loc 1 800 0
 1640 00c4 FB68     		ldr	r3, [r7, #12]
 1641 00c6 DB78     		ldrb	r3, [r3, #3]	@ zero_extendqisi2
 1642 00c8 03F00303 		and	r3, r3, #3
 1643 00cc 012B     		cmp	r3, #1
ARM GAS  C:\DOCUME~1\ADMINI~1\LOCALS~1\Temp\ccmk5fwz.s 			page 44


 1644 00ce 14BF     		ite	ne
 1645 00d0 0023     		movne	r3, #0
 1646 00d2 0123     		moveq	r3, #1
 1647 00d4 BB71     		strb	r3, [r7, #6]
 801:.\Generated_Source\PSoC5/USBFS_std.c ****                 if (pEP->addr & USBFS_DIR_IN)
 1648              		.loc 1 801 0
 1649 00d6 FB68     		ldr	r3, [r7, #12]
 1650 00d8 9B78     		ldrb	r3, [r3, #2]	@ zero_extendqisi2
 1651 00da 5BB2     		sxtb	r3, r3
 1652 00dc 002B     		cmp	r3, #0
 1653 00de 25DA     		bge	.L94
 802:.\Generated_Source\PSoC5/USBFS_std.c ****                 {
 803:.\Generated_Source\PSoC5/USBFS_std.c ****                     /* IN Endpoint */
 804:.\Generated_Source\PSoC5/USBFS_std.c ****                     USBFS_EP[cur_ep].apiEpState = USBFS_EVENT_PENDING;
 1654              		.loc 1 804 0
 1655 00e0 3979     		ldrb	r1, [r7, #4]	@ zero_extendqisi2
 1656 00e2 40F20002 		movw	r2, #:lower16:USBFS_EP
 1657 00e6 C0F20002 		movt	r2, #:upper16:USBFS_EP
 1658 00ea 0B46     		mov	r3, r1
 1659 00ec 4FEA4303 		lsl	r3, r3, #1
 1660 00f0 0B44     		add	r3, r3, r1
 1661 00f2 4FEA8303 		lsl	r3, r3, #2
 1662 00f6 1344     		add	r3, r3, r2
 1663 00f8 4FF00102 		mov	r2, #1
 1664 00fc 5A70     		strb	r2, [r3, #1]
 805:.\Generated_Source\PSoC5/USBFS_std.c ****                     USBFS_EP[cur_ep].epMode =
 1665              		.loc 1 805 0
 1666 00fe 3879     		ldrb	r0, [r7, #4]	@ zero_extendqisi2
 1667 0100 BB79     		ldrb	r3, [r7, #6]	@ zero_extendqisi2
 1668 0102 002B     		cmp	r3, #0
 1669 0104 02D0     		beq	.L95
 1670 0106 4FF00701 		mov	r1, #7
 1671 010a 01E0     		b	.L96
 1672              	.L95:
 1673 010c 4FF00D01 		mov	r1, #13
 1674              	.L96:
 1675 0110 40F20002 		movw	r2, #:lower16:USBFS_EP
 1676 0114 C0F20002 		movt	r2, #:upper16:USBFS_EP
 1677 0118 0346     		mov	r3, r0
 1678 011a 4FEA4303 		lsl	r3, r3, #1
 1679 011e 0344     		add	r3, r3, r0
 1680 0120 4FEA8303 		lsl	r3, r3, #2
 1681 0124 1344     		add	r3, r3, r2
 1682 0126 0A46     		mov	r2, r1
 1683 0128 5A71     		strb	r2, [r3, #5]
 1684 012a 24E0     		b	.L97
 1685              	.L94:
 806:.\Generated_Source\PSoC5/USBFS_std.c ****                                             (iso ? USBFS_MODE_ISO_IN : USBFS_MODE_ACK_IN);
 807:.\Generated_Source\PSoC5/USBFS_std.c ****                 }
 808:.\Generated_Source\PSoC5/USBFS_std.c ****                 else
 809:.\Generated_Source\PSoC5/USBFS_std.c ****                 {
 810:.\Generated_Source\PSoC5/USBFS_std.c ****                     /* OUT Endpoint */
 811:.\Generated_Source\PSoC5/USBFS_std.c ****                     USBFS_EP[cur_ep].apiEpState = USBFS_NO_EVENT_PENDING;
 1686              		.loc 1 811 0
 1687 012c 3979     		ldrb	r1, [r7, #4]	@ zero_extendqisi2
 1688 012e 40F20002 		movw	r2, #:lower16:USBFS_EP
 1689 0132 C0F20002 		movt	r2, #:upper16:USBFS_EP
ARM GAS  C:\DOCUME~1\ADMINI~1\LOCALS~1\Temp\ccmk5fwz.s 			page 45


 1690 0136 0B46     		mov	r3, r1
 1691 0138 4FEA4303 		lsl	r3, r3, #1
 1692 013c 0B44     		add	r3, r3, r1
 1693 013e 4FEA8303 		lsl	r3, r3, #2
 1694 0142 1344     		add	r3, r3, r2
 1695 0144 4FF00002 		mov	r2, #0
 1696 0148 5A70     		strb	r2, [r3, #1]
 812:.\Generated_Source\PSoC5/USBFS_std.c ****                     USBFS_EP[cur_ep].epMode =
 1697              		.loc 1 812 0
 1698 014a 3879     		ldrb	r0, [r7, #4]	@ zero_extendqisi2
 1699 014c BB79     		ldrb	r3, [r7, #6]	@ zero_extendqisi2
 1700 014e 002B     		cmp	r3, #0
 1701 0150 02D0     		beq	.L98
 1702 0152 4FF00501 		mov	r1, #5
 1703 0156 01E0     		b	.L99
 1704              	.L98:
 1705 0158 4FF00901 		mov	r1, #9
 1706              	.L99:
 1707 015c 40F20002 		movw	r2, #:lower16:USBFS_EP
 1708 0160 C0F20002 		movt	r2, #:upper16:USBFS_EP
 1709 0164 0346     		mov	r3, r0
 1710 0166 4FEA4303 		lsl	r3, r3, #1
 1711 016a 0344     		add	r3, r3, r0
 1712 016c 4FEA8303 		lsl	r3, r3, #2
 1713 0170 1344     		add	r3, r3, r2
 1714 0172 0A46     		mov	r2, r1
 1715 0174 5A71     		strb	r2, [r3, #5]
 1716              	.L97:
 813:.\Generated_Source\PSoC5/USBFS_std.c ****                                             (iso ? USBFS_MODE_ISO_OUT : USBFS_MODE_ACK_OUT);
 814:.\Generated_Source\PSoC5/USBFS_std.c ****                 }
 815:.\Generated_Source\PSoC5/USBFS_std.c ****                  /* Change the SIE mode for the selected EP to NAK ALL */
 816:.\Generated_Source\PSoC5/USBFS_std.c ****                  CY_SET_REG8(&USBFS_SIE_EP1_CR0_PTR[ri], USBFS_MODE_NAK_IN_OUT);
 1717              		.loc 1 816 0
 1718 0176 FA79     		ldrb	r2, [r7, #7]	@ zero_extendqisi2
 1719 0178 46F20E03 		movw	r3, #:lower16:1073766414
 1720 017c C4F20003 		movt	r3, #:upper16:1073766414
 1721 0180 1344     		add	r3, r2, r3
 1722 0182 4FF00102 		mov	r2, #1
 1723 0186 1A70     		strb	r2, [r3, #0]
 817:.\Generated_Source\PSoC5/USBFS_std.c ****                 USBFS_EP[cur_ep].bufferSize = pEP->bufferSize;
 1724              		.loc 1 817 0
 1725 0188 3979     		ldrb	r1, [r7, #4]	@ zero_extendqisi2
 1726 018a FB68     		ldr	r3, [r7, #12]
 1727 018c 9888     		ldrh	r0, [r3, #4]
 1728 018e 40F20002 		movw	r2, #:lower16:USBFS_EP
 1729 0192 C0F20002 		movt	r2, #:upper16:USBFS_EP
 1730 0196 0B46     		mov	r3, r1
 1731 0198 4FEA4303 		lsl	r3, r3, #1
 1732 019c 0B44     		add	r3, r3, r1
 1733 019e 4FEA8303 		lsl	r3, r3, #2
 1734 01a2 1344     		add	r3, r3, r2
 1735 01a4 03F10803 		add	r3, r3, #8
 1736 01a8 0246     		mov	r2, r0	@ movhi
 1737 01aa 1A80     		strh	r2, [r3, #0]	@ movhi
 818:.\Generated_Source\PSoC5/USBFS_std.c ****                 USBFS_EP[cur_ep].addr = pEP->addr;
 1738              		.loc 1 818 0
 1739 01ac 3979     		ldrb	r1, [r7, #4]	@ zero_extendqisi2
ARM GAS  C:\DOCUME~1\ADMINI~1\LOCALS~1\Temp\ccmk5fwz.s 			page 46


 1740 01ae FB68     		ldr	r3, [r7, #12]
 1741 01b0 9878     		ldrb	r0, [r3, #2]	@ zero_extendqisi2
 1742 01b2 40F20002 		movw	r2, #:lower16:USBFS_EP
 1743 01b6 C0F20002 		movt	r2, #:upper16:USBFS_EP
 1744 01ba 0B46     		mov	r3, r1
 1745 01bc 4FEA4303 		lsl	r3, r3, #1
 1746 01c0 0B44     		add	r3, r3, r1
 1747 01c2 4FEA8303 		lsl	r3, r3, #2
 1748 01c6 1344     		add	r3, r3, r2
 1749 01c8 0246     		mov	r2, r0
 1750 01ca 1A71     		strb	r2, [r3, #4]
 819:.\Generated_Source\PSoC5/USBFS_std.c ****                 USBFS_EP[cur_ep].attrib = pEP->attributes;
 1751              		.loc 1 819 0
 1752 01cc 3979     		ldrb	r1, [r7, #4]	@ zero_extendqisi2
 1753 01ce FB68     		ldr	r3, [r7, #12]
 1754 01d0 D878     		ldrb	r0, [r3, #3]	@ zero_extendqisi2
 1755 01d2 40F20002 		movw	r2, #:lower16:USBFS_EP
 1756 01d6 C0F20002 		movt	r2, #:upper16:USBFS_EP
 1757 01da 0B46     		mov	r3, r1
 1758 01dc 4FEA4303 		lsl	r3, r3, #1
 1759 01e0 0B44     		add	r3, r3, r1
 1760 01e2 4FEA8303 		lsl	r3, r3, #2
 1761 01e6 1344     		add	r3, r3, r2
 1762 01e8 0246     		mov	r2, r0
 1763 01ea 1A70     		strb	r2, [r3, #0]
 820:.\Generated_Source\PSoC5/USBFS_std.c **** 
 821:.\Generated_Source\PSoC5/USBFS_std.c ****                 /* Clear the data toggle */
 822:.\Generated_Source\PSoC5/USBFS_std.c ****                 USBFS_EP[cur_ep].epToggle = 0u;
 1764              		.loc 1 822 0
 1765 01ec 3979     		ldrb	r1, [r7, #4]	@ zero_extendqisi2
 1766 01ee 40F20002 		movw	r2, #:lower16:USBFS_EP
 1767 01f2 C0F20002 		movt	r2, #:upper16:USBFS_EP
 1768 01f6 0B46     		mov	r3, r1
 1769 01f8 4FEA4303 		lsl	r3, r3, #1
 1770 01fc 0B44     		add	r3, r3, r1
 1771 01fe 4FEA8303 		lsl	r3, r3, #2
 1772 0202 1344     		add	r3, r3, r2
 1773 0204 4FF00002 		mov	r2, #0
 1774 0208 DA70     		strb	r2, [r3, #3]
 823:.\Generated_Source\PSoC5/USBFS_std.c **** 
 824:.\Generated_Source\PSoC5/USBFS_std.c ****                 /* Dynamic reconfiguration for mode 3 transfer */
 825:.\Generated_Source\PSoC5/USBFS_std.c ****                 #if((USBFS_EP_MM == USBFS__EP_DMAAUTO) && (!CY_PSOC5A) )
 826:.\Generated_Source\PSoC5/USBFS_std.c ****                     /* In_data_rdy for selected EP should be set to 0 */
 827:.\Generated_Source\PSoC5/USBFS_std.c ****                     USBFS_ARB_EP1_CFG_PTR[ri] &= ~USBFS_ARB_EPX_CFG_IN_DATA_RDY;
 1775              		.loc 1 827 0
 1776 020a FA79     		ldrb	r2, [r7, #7]	@ zero_extendqisi2
 1777 020c 46F28003 		movw	r3, #:lower16:1073766528
 1778 0210 C4F20003 		movt	r3, #:upper16:1073766528
 1779 0214 1344     		add	r3, r2, r3
 1780 0216 F979     		ldrb	r1, [r7, #7]	@ zero_extendqisi2
 1781 0218 46F28002 		movw	r2, #:lower16:1073766528
 1782 021c C4F20002 		movt	r2, #:upper16:1073766528
 1783 0220 0A44     		add	r2, r1, r2
 1784 0222 1278     		ldrb	r2, [r2, #0]
 1785 0224 D2B2     		uxtb	r2, r2
 1786 0226 02F0FE02 		and	r2, r2, #254
 1787 022a 1A70     		strb	r2, [r3, #0]
ARM GAS  C:\DOCUME~1\ADMINI~1\LOCALS~1\Temp\ccmk5fwz.s 			page 47


 828:.\Generated_Source\PSoC5/USBFS_std.c **** 
 829:.\Generated_Source\PSoC5/USBFS_std.c ****                     /* write the EP number for which reconfiguration is required */
 830:.\Generated_Source\PSoC5/USBFS_std.c ****                     USBFS_DYN_RECONFIG_REG = (cur_ep - USBFS_EP1) << 
 1788              		.loc 1 830 0
 1789 022c 46F21403 		movw	r3, #:lower16:1073766420
 1790 0230 C4F20003 		movt	r3, #:upper16:1073766420
 1791 0234 3A79     		ldrb	r2, [r7, #4]
 1792 0236 02F1FF32 		add	r2, r2, #-1
 1793 023a D2B2     		uxtb	r2, r2
 1794 023c 4FEA4202 		lsl	r2, r2, #1
 1795 0240 D2B2     		uxtb	r2, r2
 1796 0242 1A70     		strb	r2, [r3, #0]
 831:.\Generated_Source\PSoC5/USBFS_std.c ****                                                         USBFS_DYN_RECONFIG_EP_SHIFT;
 832:.\Generated_Source\PSoC5/USBFS_std.c ****                     /* Set the dyn_config_en bit in dynamic reconfiguration register */
 833:.\Generated_Source\PSoC5/USBFS_std.c ****                     USBFS_DYN_RECONFIG_REG |= USBFS_DYN_RECONFIG_ENABLE;
 1797              		.loc 1 833 0
 1798 0244 46F21403 		movw	r3, #:lower16:1073766420
 1799 0248 C4F20003 		movt	r3, #:upper16:1073766420
 1800 024c 46F21402 		movw	r2, #:lower16:1073766420
 1801 0250 C4F20002 		movt	r2, #:upper16:1073766420
 1802 0254 1278     		ldrb	r2, [r2, #0]
 1803 0256 D2B2     		uxtb	r2, r2
 1804 0258 42F00102 		orr	r2, r2, #1
 1805 025c D2B2     		uxtb	r2, r2
 1806 025e 1A70     		strb	r2, [r3, #0]
 1807              	.L100:
 834:.\Generated_Source\PSoC5/USBFS_std.c ****                     /* wait for the dyn_config_rdy bit to set by the block,
 835:.\Generated_Source\PSoC5/USBFS_std.c ****                     *  this bit will be set to 1 when block is ready for reconfiguration.
 836:.\Generated_Source\PSoC5/USBFS_std.c ****                     */
 837:.\Generated_Source\PSoC5/USBFS_std.c ****                     while((USBFS_DYN_RECONFIG_REG & USBFS_DYN_RECONFIG_RDY_STS) == 0u);
 1808              		.loc 1 837 0
 1809 0260 46F21403 		movw	r3, #:lower16:1073766420
 1810 0264 C4F20003 		movt	r3, #:upper16:1073766420
 1811 0268 1B78     		ldrb	r3, [r3, #0]
 1812 026a DBB2     		uxtb	r3, r3
 1813 026c 03F01003 		and	r3, r3, #16
 1814 0270 002B     		cmp	r3, #0
 1815 0272 F5D0     		beq	.L100
 838:.\Generated_Source\PSoC5/USBFS_std.c ****                     /* Once dyn_config_rdy bit is set, FW can change the EP configuration. */
 839:.\Generated_Source\PSoC5/USBFS_std.c ****                     /* Change EP Type with new direction */
 840:.\Generated_Source\PSoC5/USBFS_std.c ****                     if((pEP->addr & USBFS_DIR_IN) == 0)
 1816              		.loc 1 840 0
 1817 0274 FB68     		ldr	r3, [r7, #12]
 1818 0276 9B78     		ldrb	r3, [r3, #2]	@ zero_extendqisi2
 1819 0278 5BB2     		sxtb	r3, r3
 1820 027a 002B     		cmp	r3, #0
 1821 027c 16DB     		blt	.L101
 841:.\Generated_Source\PSoC5/USBFS_std.c ****                     {
 842:.\Generated_Source\PSoC5/USBFS_std.c ****                         USBFS_EP_TYPE_REG |= 0x01u << (cur_ep - USBFS_EP1);
 1822              		.loc 1 842 0
 1823 027e 46F28F03 		movw	r3, #:lower16:1073766543
 1824 0282 C4F20003 		movt	r3, #:upper16:1073766543
 1825 0286 46F28F02 		movw	r2, #:lower16:1073766543
 1826 028a C4F20002 		movt	r2, #:upper16:1073766543
 1827 028e 1278     		ldrb	r2, [r2, #0]
 1828 0290 D1B2     		uxtb	r1, r2
 1829 0292 3A79     		ldrb	r2, [r7, #4]	@ zero_extendqisi2
ARM GAS  C:\DOCUME~1\ADMINI~1\LOCALS~1\Temp\ccmk5fwz.s 			page 48


 1830 0294 02F1FF32 		add	r2, r2, #-1
 1831 0298 4FF00100 		mov	r0, #1
 1832 029c 00FA02F2 		lsl	r2, r0, r2
 1833 02a0 D2B2     		uxtb	r2, r2
 1834 02a2 41EA0202 		orr	r2, r1, r2
 1835 02a6 D2B2     		uxtb	r2, r2
 1836 02a8 1A70     		strb	r2, [r3, #0]
 1837 02aa 18E0     		b	.L102
 1838              	.L101:
 843:.\Generated_Source\PSoC5/USBFS_std.c ****                     }
 844:.\Generated_Source\PSoC5/USBFS_std.c ****                     else
 845:.\Generated_Source\PSoC5/USBFS_std.c ****                     {
 846:.\Generated_Source\PSoC5/USBFS_std.c ****                         USBFS_EP_TYPE_REG &= ~(0x01u << (cur_ep - USBFS_EP1));
 1839              		.loc 1 846 0
 1840 02ac 46F28F03 		movw	r3, #:lower16:1073766543
 1841 02b0 C4F20003 		movt	r3, #:upper16:1073766543
 1842 02b4 46F28F02 		movw	r2, #:lower16:1073766543
 1843 02b8 C4F20002 		movt	r2, #:upper16:1073766543
 1844 02bc 1278     		ldrb	r2, [r2, #0]
 1845 02be D1B2     		uxtb	r1, r2
 1846 02c0 3A79     		ldrb	r2, [r7, #4]	@ zero_extendqisi2
 1847 02c2 02F1FF32 		add	r2, r2, #-1
 1848 02c6 4FF00100 		mov	r0, #1
 1849 02ca 00FA02F2 		lsl	r2, r0, r2
 1850 02ce D2B2     		uxtb	r2, r2
 1851 02d0 6FEA0202 		mvn	r2, r2
 1852 02d4 D2B2     		uxtb	r2, r2
 1853 02d6 01EA0202 		and	r2, r1, r2
 1854 02da D2B2     		uxtb	r2, r2
 1855 02dc 1A70     		strb	r2, [r3, #0]
 1856              	.L102:
 847:.\Generated_Source\PSoC5/USBFS_std.c ****                     }
 848:.\Generated_Source\PSoC5/USBFS_std.c ****                     /* dynamic reconfiguration enable bit cleared, pointers and control/status
 849:.\Generated_Source\PSoC5/USBFS_std.c ****                     *  signals for the selected EP is cleared/re-initialized on negedge
 850:.\Generated_Source\PSoC5/USBFS_std.c ****                     *  of dynamic reconfiguration enable bit).
 851:.\Generated_Source\PSoC5/USBFS_std.c ****                     */
 852:.\Generated_Source\PSoC5/USBFS_std.c ****                     USBFS_DYN_RECONFIG_REG &= ~USBFS_DYN_RECONFIG_ENABLE;
 1857              		.loc 1 852 0
 1858 02de 46F21403 		movw	r3, #:lower16:1073766420
 1859 02e2 C4F20003 		movt	r3, #:upper16:1073766420
 1860 02e6 46F21402 		movw	r2, #:lower16:1073766420
 1861 02ea C4F20002 		movt	r2, #:upper16:1073766420
 1862 02ee 1278     		ldrb	r2, [r2, #0]
 1863 02f0 D2B2     		uxtb	r2, r2
 1864 02f2 02F0FE02 		and	r2, r2, #254
 1865 02f6 1A70     		strb	r2, [r3, #0]
 1866              	.L93:
 1867              		.loc 1 790 0
 1868 02f8 7B79     		ldrb	r3, [r7, #5]
 1869 02fa 03F10103 		add	r3, r3, #1
 1870 02fe 7B71     		strb	r3, [r7, #5]
 1871 0300 FB68     		ldr	r3, [r7, #12]
 1872 0302 03F10803 		add	r3, r3, #8
 1873 0306 FB60     		str	r3, [r7, #12]
 1874              	.L92:
 1875 0308 7A79     		ldrb	r2, [r7, #5]	@ zero_extendqisi2
 1876 030a FB78     		ldrb	r3, [r7, #3]	@ zero_extendqisi2
ARM GAS  C:\DOCUME~1\ADMINI~1\LOCALS~1\Temp\ccmk5fwz.s 			page 49


 1877 030c 9A42     		cmp	r2, r3
 1878 030e FFF49FAE 		bcc	.L103
 1879              	.L104:
 853:.\Generated_Source\PSoC5/USBFS_std.c ****                     /* The main loop has to reenable DMA and OUT endpoint*/
 854:.\Generated_Source\PSoC5/USBFS_std.c ****                 #else
 855:.\Generated_Source\PSoC5/USBFS_std.c ****                 CY_SET_REG8(&USBFS_SIE_EP1_CNT0_PTR[ri],   USBFS_EP[cur_ep].bufferSize >> 8u);
 856:.\Generated_Source\PSoC5/USBFS_std.c ****                 CY_SET_REG8(&USBFS_SIE_EP1_CNT1_PTR[ri],   USBFS_EP[cur_ep].bufferSize & 0xFFu);
 857:.\Generated_Source\PSoC5/USBFS_std.c **** 
 858:.\Generated_Source\PSoC5/USBFS_std.c ****                 CY_SET_REG8(&USBFS_ARB_RW1_RA_PTR[ri],     USBFS_EP[cur_ep].buffOffset & 0xFFu);
 859:.\Generated_Source\PSoC5/USBFS_std.c ****                 CY_SET_REG8(&USBFS_ARB_RW1_RA_MSB_PTR[ri], USBFS_EP[cur_ep].buffOffset >> 8u);
 860:.\Generated_Source\PSoC5/USBFS_std.c ****                 CY_SET_REG8(&USBFS_ARB_RW1_WA_PTR[ri],     USBFS_EP[cur_ep].buffOffset & 0xFFu);
 861:.\Generated_Source\PSoC5/USBFS_std.c ****                 CY_SET_REG8(&USBFS_ARB_RW1_WA_MSB_PTR[ri], USBFS_EP[cur_ep].buffOffset >> 8u);
 862:.\Generated_Source\PSoC5/USBFS_std.c ****                 #endif /* End USBFS_EP_MM == USBFS__EP_DMAAUTO */
 863:.\Generated_Source\PSoC5/USBFS_std.c ****             }
 864:.\Generated_Source\PSoC5/USBFS_std.c ****         }
 865:.\Generated_Source\PSoC5/USBFS_std.c ****     } /* USBFS_configuration > 0 */
 866:.\Generated_Source\PSoC5/USBFS_std.c **** }
 1880              		.loc 1 866 0
 1881 0312 07F11007 		add	r7, r7, #16
 1882 0316 BD46     		mov	sp, r7
 1883 0318 80BD     		pop	{r7, pc}
 1884              		.cfi_endproc
 1885              	.LFE5:
 1886              		.size	USBFS_ConfigAltChanged, .-USBFS_ConfigAltChanged
 1887 031a 00BF     		.section	.text.USBFS_GetConfigTablePtr,"ax",%progbits
 1888              		.align	2
 1889              		.global	USBFS_GetConfigTablePtr
 1890              		.thumb
 1891              		.thumb_func
 1892              		.type	USBFS_GetConfigTablePtr, %function
 1893              	USBFS_GetConfigTablePtr:
 1894              	.LFB6:
 867:.\Generated_Source\PSoC5/USBFS_std.c **** 
 868:.\Generated_Source\PSoC5/USBFS_std.c **** 
 869:.\Generated_Source\PSoC5/USBFS_std.c **** /*******************************************************************************
 870:.\Generated_Source\PSoC5/USBFS_std.c **** * Function Name: USBFS_GetConfigTablePtr
 871:.\Generated_Source\PSoC5/USBFS_std.c **** ********************************************************************************
 872:.\Generated_Source\PSoC5/USBFS_std.c **** *
 873:.\Generated_Source\PSoC5/USBFS_std.c **** * Summary:
 874:.\Generated_Source\PSoC5/USBFS_std.c **** *  This routine returns a pointer a configuration table entry
 875:.\Generated_Source\PSoC5/USBFS_std.c **** *
 876:.\Generated_Source\PSoC5/USBFS_std.c **** * Parameters:
 877:.\Generated_Source\PSoC5/USBFS_std.c **** *  c:  Configuration Index
 878:.\Generated_Source\PSoC5/USBFS_std.c **** *
 879:.\Generated_Source\PSoC5/USBFS_std.c **** * Return:
 880:.\Generated_Source\PSoC5/USBFS_std.c **** *  Device Descriptor pointer.
 881:.\Generated_Source\PSoC5/USBFS_std.c **** *
 882:.\Generated_Source\PSoC5/USBFS_std.c **** *******************************************************************************/
 883:.\Generated_Source\PSoC5/USBFS_std.c **** T_USBFS_LUT *USBFS_GetConfigTablePtr(uint8 c) \
 884:.\Generated_Source\PSoC5/USBFS_std.c ****                                                         
 885:.\Generated_Source\PSoC5/USBFS_std.c **** {
 1895              		.loc 1 885 0
 1896              		.cfi_startproc
 1897              		@ args = 0, pretend = 0, frame = 16
 1898              		@ frame_needed = 1, uses_anonymous_args = 0
 1899 0000 80B5     		push	{r7, lr}
 1900              	.LCFI18:
ARM GAS  C:\DOCUME~1\ADMINI~1\LOCALS~1\Temp\ccmk5fwz.s 			page 50


 1901              		.cfi_def_cfa_offset 8
 1902 0002 84B0     		sub	sp, sp, #16
 1903              	.LCFI19:
 1904              		.cfi_def_cfa_offset 24
 1905 0004 00AF     		add	r7, sp, #0
 1906              		.cfi_offset 14, -4
 1907              		.cfi_offset 7, -8
 1908              	.LCFI20:
 1909              		.cfi_def_cfa_register 7
 1910 0006 0346     		mov	r3, r0
 1911 0008 FB71     		strb	r3, [r7, #7]
 886:.\Generated_Source\PSoC5/USBFS_std.c ****     /* Device Table */
 887:.\Generated_Source\PSoC5/USBFS_std.c ****     T_USBFS_LUT *pTmp;
 888:.\Generated_Source\PSoC5/USBFS_std.c **** 
 889:.\Generated_Source\PSoC5/USBFS_std.c ****     pTmp = USBFS_GetDeviceTablePtr();
 1912              		.loc 1 889 0
 1913 000a FFF7FEFF 		bl	USBFS_GetDeviceTablePtr
 1914 000e 0346     		mov	r3, r0
 1915 0010 FB60     		str	r3, [r7, #12]
 890:.\Generated_Source\PSoC5/USBFS_std.c **** 
 891:.\Generated_Source\PSoC5/USBFS_std.c ****     /* The first entry points to the Device Descriptor,
 892:.\Generated_Source\PSoC5/USBFS_std.c ****        the the configuration entries  */
 893:.\Generated_Source\PSoC5/USBFS_std.c ****     return(pTmp[c + 1u].p_list);
 1916              		.loc 1 893 0
 1917 0012 FB79     		ldrb	r3, [r7, #7]	@ zero_extendqisi2
 1918 0014 03F10103 		add	r3, r3, #1
 1919 0018 4FEAC302 		lsl	r2, r3, #3
 1920 001c FB68     		ldr	r3, [r7, #12]
 1921 001e 1344     		add	r3, r2, r3
 1922 0020 5B68     		ldr	r3, [r3, #4]
 894:.\Generated_Source\PSoC5/USBFS_std.c **** }
 1923              		.loc 1 894 0
 1924 0022 1846     		mov	r0, r3
 1925 0024 07F11007 		add	r7, r7, #16
 1926 0028 BD46     		mov	sp, r7
 1927 002a 80BD     		pop	{r7, pc}
 1928              		.cfi_endproc
 1929              	.LFE6:
 1930              		.size	USBFS_GetConfigTablePtr, .-USBFS_GetConfigTablePtr
 1931              		.section	.text.USBFS_GetDeviceTablePtr,"ax",%progbits
 1932              		.align	2
 1933              		.global	USBFS_GetDeviceTablePtr
 1934              		.thumb
 1935              		.thumb_func
 1936              		.type	USBFS_GetDeviceTablePtr, %function
 1937              	USBFS_GetDeviceTablePtr:
 1938              	.LFB7:
 895:.\Generated_Source\PSoC5/USBFS_std.c **** 
 896:.\Generated_Source\PSoC5/USBFS_std.c **** 
 897:.\Generated_Source\PSoC5/USBFS_std.c **** /*******************************************************************************
 898:.\Generated_Source\PSoC5/USBFS_std.c **** * Function Name: USBFS_GetDeviceTablePtr
 899:.\Generated_Source\PSoC5/USBFS_std.c **** ********************************************************************************
 900:.\Generated_Source\PSoC5/USBFS_std.c **** *
 901:.\Generated_Source\PSoC5/USBFS_std.c **** * Summary:
 902:.\Generated_Source\PSoC5/USBFS_std.c **** *  This routine returns a pointer to the Device table
 903:.\Generated_Source\PSoC5/USBFS_std.c **** *
 904:.\Generated_Source\PSoC5/USBFS_std.c **** * Parameters:
ARM GAS  C:\DOCUME~1\ADMINI~1\LOCALS~1\Temp\ccmk5fwz.s 			page 51


 905:.\Generated_Source\PSoC5/USBFS_std.c **** *  None.
 906:.\Generated_Source\PSoC5/USBFS_std.c **** *
 907:.\Generated_Source\PSoC5/USBFS_std.c **** * Return:
 908:.\Generated_Source\PSoC5/USBFS_std.c **** *  Device Table pointer
 909:.\Generated_Source\PSoC5/USBFS_std.c **** *
 910:.\Generated_Source\PSoC5/USBFS_std.c **** *******************************************************************************/
 911:.\Generated_Source\PSoC5/USBFS_std.c **** T_USBFS_LUT *USBFS_GetDeviceTablePtr(void) 
 912:.\Generated_Source\PSoC5/USBFS_std.c **** {
 1939              		.loc 1 912 0
 1940              		.cfi_startproc
 1941              		@ args = 0, pretend = 0, frame = 0
 1942              		@ frame_needed = 1, uses_anonymous_args = 0
 1943              		@ link register save eliminated.
 1944 0000 80B4     		push	{r7}
 1945              	.LCFI21:
 1946              		.cfi_def_cfa_offset 4
 1947 0002 00AF     		add	r7, sp, #0
 1948              		.cfi_offset 7, -4
 1949              	.LCFI22:
 1950              		.cfi_def_cfa_register 7
 913:.\Generated_Source\PSoC5/USBFS_std.c ****     /* Device Table */
 914:.\Generated_Source\PSoC5/USBFS_std.c ****     return(USBFS_TABLE[USBFS_device].p_list);
 1951              		.loc 1 914 0
 1952 0004 40F20003 		movw	r3, #:lower16:USBFS_device
 1953 0008 C0F20003 		movt	r3, #:upper16:USBFS_device
 1954 000c 1B78     		ldrb	r3, [r3, #0]
 1955 000e DBB2     		uxtb	r3, r3
 1956 0010 40F20002 		movw	r2, #:lower16:USBFS_TABLE
 1957 0014 C0F20002 		movt	r2, #:upper16:USBFS_TABLE
 1958 0018 4FEAC303 		lsl	r3, r3, #3
 1959 001c 1344     		add	r3, r3, r2
 1960 001e 5B68     		ldr	r3, [r3, #4]
 915:.\Generated_Source\PSoC5/USBFS_std.c **** }
 1961              		.loc 1 915 0
 1962 0020 1846     		mov	r0, r3
 1963 0022 BD46     		mov	sp, r7
 1964 0024 80BC     		pop	{r7}
 1965 0026 7047     		bx	lr
 1966              		.cfi_endproc
 1967              	.LFE7:
 1968              		.size	USBFS_GetDeviceTablePtr, .-USBFS_GetDeviceTablePtr
 1969              		.section	.text.USBFS_GetInterfaceClassTablePtr,"ax",%progbits
 1970              		.align	2
 1971              		.global	USBFS_GetInterfaceClassTablePtr
 1972              		.thumb
 1973              		.thumb_func
 1974              		.type	USBFS_GetInterfaceClassTablePtr, %function
 1975              	USBFS_GetInterfaceClassTablePtr:
 1976              	.LFB8:
 916:.\Generated_Source\PSoC5/USBFS_std.c **** 
 917:.\Generated_Source\PSoC5/USBFS_std.c **** 
 918:.\Generated_Source\PSoC5/USBFS_std.c **** /*******************************************************************************
 919:.\Generated_Source\PSoC5/USBFS_std.c **** * Function Name: USB_GetInterfaceClassTablePtr
 920:.\Generated_Source\PSoC5/USBFS_std.c **** ********************************************************************************
 921:.\Generated_Source\PSoC5/USBFS_std.c **** *
 922:.\Generated_Source\PSoC5/USBFS_std.c **** * Summary:
 923:.\Generated_Source\PSoC5/USBFS_std.c **** *  This routine returns Interface Class table pointer, which contains
ARM GAS  C:\DOCUME~1\ADMINI~1\LOCALS~1\Temp\ccmk5fwz.s 			page 52


 924:.\Generated_Source\PSoC5/USBFS_std.c **** *  the relation between interface number and interface class.
 925:.\Generated_Source\PSoC5/USBFS_std.c **** *
 926:.\Generated_Source\PSoC5/USBFS_std.c **** * Parameters:
 927:.\Generated_Source\PSoC5/USBFS_std.c **** *  None.
 928:.\Generated_Source\PSoC5/USBFS_std.c **** *
 929:.\Generated_Source\PSoC5/USBFS_std.c **** * Return:
 930:.\Generated_Source\PSoC5/USBFS_std.c **** *  Interface Class table pointer.
 931:.\Generated_Source\PSoC5/USBFS_std.c **** *
 932:.\Generated_Source\PSoC5/USBFS_std.c **** *******************************************************************************/
 933:.\Generated_Source\PSoC5/USBFS_std.c **** uint8 CYCODE *USBFS_GetInterfaceClassTablePtr(void)
 934:.\Generated_Source\PSoC5/USBFS_std.c ****                                                         
 935:.\Generated_Source\PSoC5/USBFS_std.c **** {
 1977              		.loc 1 935 0
 1978              		.cfi_startproc
 1979              		@ args = 0, pretend = 0, frame = 8
 1980              		@ frame_needed = 1, uses_anonymous_args = 0
 1981 0000 80B5     		push	{r7, lr}
 1982              	.LCFI23:
 1983              		.cfi_def_cfa_offset 8
 1984 0002 82B0     		sub	sp, sp, #8
 1985              	.LCFI24:
 1986              		.cfi_def_cfa_offset 16
 1987 0004 00AF     		add	r7, sp, #0
 1988              		.cfi_offset 14, -4
 1989              		.cfi_offset 7, -8
 1990              	.LCFI25:
 1991              		.cfi_def_cfa_register 7
 936:.\Generated_Source\PSoC5/USBFS_std.c ****     T_USBFS_LUT *pTmp;
 937:.\Generated_Source\PSoC5/USBFS_std.c ****     uint8 currentInterfacesNum;
 938:.\Generated_Source\PSoC5/USBFS_std.c **** 
 939:.\Generated_Source\PSoC5/USBFS_std.c ****     pTmp = USBFS_GetConfigTablePtr(USBFS_configuration - 1u);
 1992              		.loc 1 939 0
 1993 0006 40F20003 		movw	r3, #:lower16:USBFS_configuration
 1994 000a C0F20003 		movt	r3, #:upper16:USBFS_configuration
 1995 000e 1B78     		ldrb	r3, [r3, #0]
 1996 0010 DBB2     		uxtb	r3, r3
 1997 0012 03F1FF33 		add	r3, r3, #-1
 1998 0016 DBB2     		uxtb	r3, r3
 1999 0018 1846     		mov	r0, r3
 2000 001a FFF7FEFF 		bl	USBFS_GetConfigTablePtr
 2001 001e 0346     		mov	r3, r0
 2002 0020 3B60     		str	r3, [r7, #0]
 940:.\Generated_Source\PSoC5/USBFS_std.c ****     currentInterfacesNum  = ((uint8 *) pTmp->p_list)[USBFS_CONFIG_DESCR_NUM_INTERFACES];
 2003              		.loc 1 940 0
 2004 0022 3B68     		ldr	r3, [r7, #0]
 2005 0024 5B68     		ldr	r3, [r3, #4]
 2006 0026 03F10403 		add	r3, r3, #4
 2007 002a 1B78     		ldrb	r3, [r3, #0]
 2008 002c FB71     		strb	r3, [r7, #7]
 941:.\Generated_Source\PSoC5/USBFS_std.c ****     /* Third entry in the LUT starts the Interface Table pointers */
 942:.\Generated_Source\PSoC5/USBFS_std.c ****     pTmp += 2;
 2009              		.loc 1 942 0
 2010 002e 3B68     		ldr	r3, [r7, #0]
 2011 0030 03F11003 		add	r3, r3, #16
 2012 0034 3B60     		str	r3, [r7, #0]
 943:.\Generated_Source\PSoC5/USBFS_std.c ****     /* The INTERFACE_CLASS table is located after all interfaces*/
 944:.\Generated_Source\PSoC5/USBFS_std.c ****     pTmp += currentInterfacesNum;
ARM GAS  C:\DOCUME~1\ADMINI~1\LOCALS~1\Temp\ccmk5fwz.s 			page 53


 2013              		.loc 1 944 0
 2014 0036 FB79     		ldrb	r3, [r7, #7]	@ zero_extendqisi2
 2015 0038 4FEAC303 		lsl	r3, r3, #3
 2016 003c 3A68     		ldr	r2, [r7, #0]
 2017 003e 1344     		add	r3, r2, r3
 2018 0040 3B60     		str	r3, [r7, #0]
 945:.\Generated_Source\PSoC5/USBFS_std.c ****     return(pTmp->p_list);
 2019              		.loc 1 945 0
 2020 0042 3B68     		ldr	r3, [r7, #0]
 2021 0044 5B68     		ldr	r3, [r3, #4]
 946:.\Generated_Source\PSoC5/USBFS_std.c **** }
 2022              		.loc 1 946 0
 2023 0046 1846     		mov	r0, r3
 2024 0048 07F10807 		add	r7, r7, #8
 2025 004c BD46     		mov	sp, r7
 2026 004e 80BD     		pop	{r7, pc}
 2027              		.cfi_endproc
 2028              	.LFE8:
 2029              		.size	USBFS_GetInterfaceClassTablePtr, .-USBFS_GetInterfaceClassTablePtr
 2030              		.section	.text.USBFS_TerminateEP,"ax",%progbits
 2031              		.align	2
 2032              		.global	USBFS_TerminateEP
 2033              		.thumb
 2034              		.thumb_func
 2035              		.type	USBFS_TerminateEP, %function
 2036              	USBFS_TerminateEP:
 2037              	.LFB9:
 947:.\Generated_Source\PSoC5/USBFS_std.c **** 
 948:.\Generated_Source\PSoC5/USBFS_std.c **** 
 949:.\Generated_Source\PSoC5/USBFS_std.c **** /*******************************************************************************
 950:.\Generated_Source\PSoC5/USBFS_std.c **** * Function Name: USBFS_TerminateEP
 951:.\Generated_Source\PSoC5/USBFS_std.c **** ********************************************************************************
 952:.\Generated_Source\PSoC5/USBFS_std.c **** *
 953:.\Generated_Source\PSoC5/USBFS_std.c **** * Summary:
 954:.\Generated_Source\PSoC5/USBFS_std.c **** *  This function terminates the specified USBFS endpoint. 
 955:.\Generated_Source\PSoC5/USBFS_std.c **** *  This function should be used before endpoint reconfiguration.
 956:.\Generated_Source\PSoC5/USBFS_std.c **** *
 957:.\Generated_Source\PSoC5/USBFS_std.c **** * Parameters:
 958:.\Generated_Source\PSoC5/USBFS_std.c **** *  Endpoint number.
 959:.\Generated_Source\PSoC5/USBFS_std.c **** *
 960:.\Generated_Source\PSoC5/USBFS_std.c **** * Return:
 961:.\Generated_Source\PSoC5/USBFS_std.c **** *  None.
 962:.\Generated_Source\PSoC5/USBFS_std.c **** *
 963:.\Generated_Source\PSoC5/USBFS_std.c **** * Reentrant:
 964:.\Generated_Source\PSoC5/USBFS_std.c **** *  No.
 965:.\Generated_Source\PSoC5/USBFS_std.c **** *
 966:.\Generated_Source\PSoC5/USBFS_std.c **** *******************************************************************************/
 967:.\Generated_Source\PSoC5/USBFS_std.c **** void USBFS_TerminateEP(uint8 ep) 
 968:.\Generated_Source\PSoC5/USBFS_std.c **** {
 2038              		.loc 1 968 0
 2039              		.cfi_startproc
 2040              		@ args = 0, pretend = 0, frame = 16
 2041              		@ frame_needed = 1, uses_anonymous_args = 0
 2042              		@ link register save eliminated.
 2043 0000 80B4     		push	{r7}
 2044              	.LCFI26:
 2045              		.cfi_def_cfa_offset 4
ARM GAS  C:\DOCUME~1\ADMINI~1\LOCALS~1\Temp\ccmk5fwz.s 			page 54


 2046 0002 85B0     		sub	sp, sp, #20
 2047              	.LCFI27:
 2048              		.cfi_def_cfa_offset 24
 2049 0004 00AF     		add	r7, sp, #0
 2050              		.cfi_offset 7, -4
 2051              	.LCFI28:
 2052              		.cfi_def_cfa_register 7
 2053 0006 0346     		mov	r3, r0
 2054 0008 FB71     		strb	r3, [r7, #7]
 969:.\Generated_Source\PSoC5/USBFS_std.c ****     uint8 ri;
 970:.\Generated_Source\PSoC5/USBFS_std.c **** 
 971:.\Generated_Source\PSoC5/USBFS_std.c ****     ep &= USBFS_DIR_UNUSED;
 2055              		.loc 1 971 0
 2056 000a FB79     		ldrb	r3, [r7, #7]
 2057 000c 03F07F03 		and	r3, r3, #127
 2058 0010 FB71     		strb	r3, [r7, #7]
 972:.\Generated_Source\PSoC5/USBFS_std.c ****     ri = ((ep - USBFS_EP1) << USBFS_EPX_CNTX_ADDR_SHIFT);
 2059              		.loc 1 972 0
 2060 0012 FB79     		ldrb	r3, [r7, #7]
 2061 0014 03F1FF33 		add	r3, r3, #-1
 2062 0018 DBB2     		uxtb	r3, r3
 2063 001a 4FEA0313 		lsl	r3, r3, #4
 2064 001e FB73     		strb	r3, [r7, #15]
 973:.\Generated_Source\PSoC5/USBFS_std.c **** 
 974:.\Generated_Source\PSoC5/USBFS_std.c ****     if ((ep > USBFS_EP0) && (ep < USBFS_MAX_EP))
 2065              		.loc 1 974 0
 2066 0020 FB79     		ldrb	r3, [r7, #7]	@ zero_extendqisi2
 2067 0022 002B     		cmp	r3, #0
 2068 0024 63D0     		beq	.L114
 2069 0026 FB79     		ldrb	r3, [r7, #7]	@ zero_extendqisi2
 2070 0028 082B     		cmp	r3, #8
 2071 002a 60D8     		bhi	.L114
 975:.\Generated_Source\PSoC5/USBFS_std.c ****     {
 976:.\Generated_Source\PSoC5/USBFS_std.c ****         /* Set the endpoint Halt */
 977:.\Generated_Source\PSoC5/USBFS_std.c ****         USBFS_EP[ep].hwEpState |= (USBFS_ENDPOINT_STATUS_HALT);
 2072              		.loc 1 977 0
 2073 002c F979     		ldrb	r1, [r7, #7]	@ zero_extendqisi2
 2074 002e F879     		ldrb	r0, [r7, #7]	@ zero_extendqisi2
 2075 0030 40F20002 		movw	r2, #:lower16:USBFS_EP
 2076 0034 C0F20002 		movt	r2, #:upper16:USBFS_EP
 2077 0038 0346     		mov	r3, r0
 2078 003a 4FEA4303 		lsl	r3, r3, #1
 2079 003e 0344     		add	r3, r3, r0
 2080 0040 4FEA8303 		lsl	r3, r3, #2
 2081 0044 1344     		add	r3, r3, r2
 2082 0046 9B78     		ldrb	r3, [r3, #2]
 2083 0048 DBB2     		uxtb	r3, r3
 2084 004a 43F00103 		orr	r3, r3, #1
 2085 004e D8B2     		uxtb	r0, r3
 2086 0050 40F20002 		movw	r2, #:lower16:USBFS_EP
 2087 0054 C0F20002 		movt	r2, #:upper16:USBFS_EP
 2088 0058 0B46     		mov	r3, r1
 2089 005a 4FEA4303 		lsl	r3, r3, #1
 2090 005e 0B44     		add	r3, r3, r1
 2091 0060 4FEA8303 		lsl	r3, r3, #2
 2092 0064 1344     		add	r3, r3, r2
 2093 0066 0246     		mov	r2, r0
ARM GAS  C:\DOCUME~1\ADMINI~1\LOCALS~1\Temp\ccmk5fwz.s 			page 55


 2094 0068 9A70     		strb	r2, [r3, #2]
 978:.\Generated_Source\PSoC5/USBFS_std.c **** 
 979:.\Generated_Source\PSoC5/USBFS_std.c ****         /* Clear the data toggle */
 980:.\Generated_Source\PSoC5/USBFS_std.c ****         USBFS_EP[ep].epToggle = 0u;
 2095              		.loc 1 980 0
 2096 006a F979     		ldrb	r1, [r7, #7]	@ zero_extendqisi2
 2097 006c 40F20002 		movw	r2, #:lower16:USBFS_EP
 2098 0070 C0F20002 		movt	r2, #:upper16:USBFS_EP
 2099 0074 0B46     		mov	r3, r1
 2100 0076 4FEA4303 		lsl	r3, r3, #1
 2101 007a 0B44     		add	r3, r3, r1
 2102 007c 4FEA8303 		lsl	r3, r3, #2
 2103 0080 1344     		add	r3, r3, r2
 2104 0082 4FF00002 		mov	r2, #0
 2105 0086 DA70     		strb	r2, [r3, #3]
 981:.\Generated_Source\PSoC5/USBFS_std.c ****         USBFS_EP[ep].apiEpState = USBFS_NO_EVENT_ALLOWED;
 2106              		.loc 1 981 0
 2107 0088 F979     		ldrb	r1, [r7, #7]	@ zero_extendqisi2
 2108 008a 40F20002 		movw	r2, #:lower16:USBFS_EP
 2109 008e C0F20002 		movt	r2, #:upper16:USBFS_EP
 2110 0092 0B46     		mov	r3, r1
 2111 0094 4FEA4303 		lsl	r3, r3, #1
 2112 0098 0B44     		add	r3, r3, r1
 2113 009a 4FEA8303 		lsl	r3, r3, #2
 2114 009e 1344     		add	r3, r3, r2
 2115 00a0 4FF00202 		mov	r2, #2
 2116 00a4 5A70     		strb	r2, [r3, #1]
 982:.\Generated_Source\PSoC5/USBFS_std.c **** 
 983:.\Generated_Source\PSoC5/USBFS_std.c ****         if (USBFS_EP[ep].addr & USBFS_DIR_IN)
 2117              		.loc 1 983 0
 2118 00a6 F979     		ldrb	r1, [r7, #7]	@ zero_extendqisi2
 2119 00a8 40F20002 		movw	r2, #:lower16:USBFS_EP
 2120 00ac C0F20002 		movt	r2, #:upper16:USBFS_EP
 2121 00b0 0B46     		mov	r3, r1
 2122 00b2 4FEA4303 		lsl	r3, r3, #1
 2123 00b6 0B44     		add	r3, r3, r1
 2124 00b8 4FEA8303 		lsl	r3, r3, #2
 2125 00bc 1344     		add	r3, r3, r2
 2126 00be 1B79     		ldrb	r3, [r3, #4]
 2127 00c0 DBB2     		uxtb	r3, r3
 2128 00c2 5BB2     		sxtb	r3, r3
 2129 00c4 002B     		cmp	r3, #0
 2130 00c6 09DA     		bge	.L113
 984:.\Generated_Source\PSoC5/USBFS_std.c ****         {
 985:.\Generated_Source\PSoC5/USBFS_std.c ****             /* IN Endpoint */
 986:.\Generated_Source\PSoC5/USBFS_std.c ****             CY_SET_REG8(&USBFS_SIE_EP1_CR0_PTR[ri], USBFS_MODE_NAK_IN);
 2131              		.loc 1 986 0
 2132 00c8 FA7B     		ldrb	r2, [r7, #15]	@ zero_extendqisi2
 2133 00ca 46F20E03 		movw	r3, #:lower16:1073766414
 2134 00ce C4F20003 		movt	r3, #:upper16:1073766414
 2135 00d2 1344     		add	r3, r2, r3
 2136 00d4 4FF00C02 		mov	r2, #12
 2137 00d8 1A70     		strb	r2, [r3, #0]
 2138 00da 08E0     		b	.L114
 2139              	.L113:
 987:.\Generated_Source\PSoC5/USBFS_std.c ****         }
 988:.\Generated_Source\PSoC5/USBFS_std.c ****         else
ARM GAS  C:\DOCUME~1\ADMINI~1\LOCALS~1\Temp\ccmk5fwz.s 			page 56


 989:.\Generated_Source\PSoC5/USBFS_std.c ****         {
 990:.\Generated_Source\PSoC5/USBFS_std.c ****             /* OUT Endpoint */
 991:.\Generated_Source\PSoC5/USBFS_std.c ****             CY_SET_REG8(&USBFS_SIE_EP1_CR0_PTR[ri], USBFS_MODE_NAK_OUT);
 2140              		.loc 1 991 0
 2141 00dc FA7B     		ldrb	r2, [r7, #15]	@ zero_extendqisi2
 2142 00de 46F20E03 		movw	r3, #:lower16:1073766414
 2143 00e2 C4F20003 		movt	r3, #:upper16:1073766414
 2144 00e6 1344     		add	r3, r2, r3
 2145 00e8 4FF00802 		mov	r2, #8
 2146 00ec 1A70     		strb	r2, [r3, #0]
 2147              	.L114:
 992:.\Generated_Source\PSoC5/USBFS_std.c ****         }
 993:.\Generated_Source\PSoC5/USBFS_std.c ****     }
 994:.\Generated_Source\PSoC5/USBFS_std.c **** }
 2148              		.loc 1 994 0
 2149 00ee 07F11407 		add	r7, r7, #20
 2150 00f2 BD46     		mov	sp, r7
 2151 00f4 80BC     		pop	{r7}
 2152 00f6 7047     		bx	lr
 2153              		.cfi_endproc
 2154              	.LFE9:
 2155              		.size	USBFS_TerminateEP, .-USBFS_TerminateEP
 2156              		.section	.text.USBFS_SetEndpointHalt,"ax",%progbits
 2157              		.align	2
 2158              		.global	USBFS_SetEndpointHalt
 2159              		.thumb
 2160              		.thumb_func
 2161              		.type	USBFS_SetEndpointHalt, %function
 2162              	USBFS_SetEndpointHalt:
 2163              	.LFB10:
 995:.\Generated_Source\PSoC5/USBFS_std.c **** 
 996:.\Generated_Source\PSoC5/USBFS_std.c **** 
 997:.\Generated_Source\PSoC5/USBFS_std.c **** /*******************************************************************************
 998:.\Generated_Source\PSoC5/USBFS_std.c **** * Function Name: USBFS_SetEndpointHalt
 999:.\Generated_Source\PSoC5/USBFS_std.c **** ********************************************************************************
1000:.\Generated_Source\PSoC5/USBFS_std.c **** *
1001:.\Generated_Source\PSoC5/USBFS_std.c **** * Summary:
1002:.\Generated_Source\PSoC5/USBFS_std.c **** *  This routine handles set endpoint halt.
1003:.\Generated_Source\PSoC5/USBFS_std.c **** *
1004:.\Generated_Source\PSoC5/USBFS_std.c **** * Parameters:
1005:.\Generated_Source\PSoC5/USBFS_std.c **** *  None.
1006:.\Generated_Source\PSoC5/USBFS_std.c **** *
1007:.\Generated_Source\PSoC5/USBFS_std.c **** * Return:
1008:.\Generated_Source\PSoC5/USBFS_std.c **** *  requestHandled.
1009:.\Generated_Source\PSoC5/USBFS_std.c **** *
1010:.\Generated_Source\PSoC5/USBFS_std.c **** * Reentrant:
1011:.\Generated_Source\PSoC5/USBFS_std.c **** *  No.
1012:.\Generated_Source\PSoC5/USBFS_std.c **** *
1013:.\Generated_Source\PSoC5/USBFS_std.c **** *******************************************************************************/
1014:.\Generated_Source\PSoC5/USBFS_std.c **** uint8 USBFS_SetEndpointHalt(void) 
1015:.\Generated_Source\PSoC5/USBFS_std.c **** {
 2164              		.loc 1 1015 0
 2165              		.cfi_startproc
 2166              		@ args = 0, pretend = 0, frame = 8
 2167              		@ frame_needed = 1, uses_anonymous_args = 0
 2168 0000 80B5     		push	{r7, lr}
 2169              	.LCFI29:
ARM GAS  C:\DOCUME~1\ADMINI~1\LOCALS~1\Temp\ccmk5fwz.s 			page 57


 2170              		.cfi_def_cfa_offset 8
 2171 0002 82B0     		sub	sp, sp, #8
 2172              	.LCFI30:
 2173              		.cfi_def_cfa_offset 16
 2174 0004 00AF     		add	r7, sp, #0
 2175              		.cfi_offset 14, -4
 2176              		.cfi_offset 7, -8
 2177              	.LCFI31:
 2178              		.cfi_def_cfa_register 7
1016:.\Generated_Source\PSoC5/USBFS_std.c ****     uint8 ep, ri;
1017:.\Generated_Source\PSoC5/USBFS_std.c ****     uint8 requestHandled = USBFS_FALSE;
 2179              		.loc 1 1017 0
 2180 0006 4FF00003 		mov	r3, #0
 2181 000a FB71     		strb	r3, [r7, #7]
1018:.\Generated_Source\PSoC5/USBFS_std.c **** 
1019:.\Generated_Source\PSoC5/USBFS_std.c ****     /* Set endpoint halt */
1020:.\Generated_Source\PSoC5/USBFS_std.c ****     ep = CY_GET_REG8(USBFS_wIndexLo) & USBFS_DIR_UNUSED;
 2182              		.loc 1 1020 0
 2183 000c 46F20403 		movw	r3, #:lower16:1073766404
 2184 0010 C4F20003 		movt	r3, #:upper16:1073766404
 2185 0014 1B78     		ldrb	r3, [r3, #0]
 2186 0016 DBB2     		uxtb	r3, r3
 2187 0018 03F07F03 		and	r3, r3, #127
 2188 001c 7B71     		strb	r3, [r7, #5]
1021:.\Generated_Source\PSoC5/USBFS_std.c ****     ri = ((ep - USBFS_EP1) << USBFS_EPX_CNTX_ADDR_SHIFT);
 2189              		.loc 1 1021 0
 2190 001e 7B79     		ldrb	r3, [r7, #5]
 2191 0020 03F1FF33 		add	r3, r3, #-1
 2192 0024 DBB2     		uxtb	r3, r3
 2193 0026 4FEA0313 		lsl	r3, r3, #4
 2194 002a BB71     		strb	r3, [r7, #6]
1022:.\Generated_Source\PSoC5/USBFS_std.c **** 
1023:.\Generated_Source\PSoC5/USBFS_std.c ****     if ((ep > USBFS_EP0) && (ep < USBFS_MAX_EP))
 2195              		.loc 1 1023 0
 2196 002c 7B79     		ldrb	r3, [r7, #5]	@ zero_extendqisi2
 2197 002e 002B     		cmp	r3, #0
 2198 0030 77D0     		beq	.L116
 2199 0032 7B79     		ldrb	r3, [r7, #5]	@ zero_extendqisi2
 2200 0034 082B     		cmp	r3, #8
 2201 0036 74D8     		bhi	.L116
1024:.\Generated_Source\PSoC5/USBFS_std.c ****     {
1025:.\Generated_Source\PSoC5/USBFS_std.c ****         /* Set the endpoint Halt */
1026:.\Generated_Source\PSoC5/USBFS_std.c ****         USBFS_EP[ep].hwEpState |= (USBFS_ENDPOINT_STATUS_HALT);
 2202              		.loc 1 1026 0
 2203 0038 7979     		ldrb	r1, [r7, #5]	@ zero_extendqisi2
 2204 003a 7879     		ldrb	r0, [r7, #5]	@ zero_extendqisi2
 2205 003c 40F20002 		movw	r2, #:lower16:USBFS_EP
 2206 0040 C0F20002 		movt	r2, #:upper16:USBFS_EP
 2207 0044 0346     		mov	r3, r0
 2208 0046 4FEA4303 		lsl	r3, r3, #1
 2209 004a 0344     		add	r3, r3, r0
 2210 004c 4FEA8303 		lsl	r3, r3, #2
 2211 0050 1344     		add	r3, r3, r2
 2212 0052 9B78     		ldrb	r3, [r3, #2]
 2213 0054 DBB2     		uxtb	r3, r3
 2214 0056 43F00103 		orr	r3, r3, #1
 2215 005a D8B2     		uxtb	r0, r3
ARM GAS  C:\DOCUME~1\ADMINI~1\LOCALS~1\Temp\ccmk5fwz.s 			page 58


 2216 005c 40F20002 		movw	r2, #:lower16:USBFS_EP
 2217 0060 C0F20002 		movt	r2, #:upper16:USBFS_EP
 2218 0064 0B46     		mov	r3, r1
 2219 0066 4FEA4303 		lsl	r3, r3, #1
 2220 006a 0B44     		add	r3, r3, r1
 2221 006c 4FEA8303 		lsl	r3, r3, #2
 2222 0070 1344     		add	r3, r3, r2
 2223 0072 0246     		mov	r2, r0
 2224 0074 9A70     		strb	r2, [r3, #2]
1027:.\Generated_Source\PSoC5/USBFS_std.c **** 
1028:.\Generated_Source\PSoC5/USBFS_std.c ****         /* Clear the data toggle */
1029:.\Generated_Source\PSoC5/USBFS_std.c ****         USBFS_EP[ep].epToggle = 0u;
 2225              		.loc 1 1029 0
 2226 0076 7979     		ldrb	r1, [r7, #5]	@ zero_extendqisi2
 2227 0078 40F20002 		movw	r2, #:lower16:USBFS_EP
 2228 007c C0F20002 		movt	r2, #:upper16:USBFS_EP
 2229 0080 0B46     		mov	r3, r1
 2230 0082 4FEA4303 		lsl	r3, r3, #1
 2231 0086 0B44     		add	r3, r3, r1
 2232 0088 4FEA8303 		lsl	r3, r3, #2
 2233 008c 1344     		add	r3, r3, r2
 2234 008e 4FF00002 		mov	r2, #0
 2235 0092 DA70     		strb	r2, [r3, #3]
1030:.\Generated_Source\PSoC5/USBFS_std.c ****         USBFS_EP[ep].apiEpState |= USBFS_NO_EVENT_ALLOWED;
 2236              		.loc 1 1030 0
 2237 0094 7979     		ldrb	r1, [r7, #5]	@ zero_extendqisi2
 2238 0096 7879     		ldrb	r0, [r7, #5]	@ zero_extendqisi2
 2239 0098 40F20002 		movw	r2, #:lower16:USBFS_EP
 2240 009c C0F20002 		movt	r2, #:upper16:USBFS_EP
 2241 00a0 0346     		mov	r3, r0
 2242 00a2 4FEA4303 		lsl	r3, r3, #1
 2243 00a6 0344     		add	r3, r3, r0
 2244 00a8 4FEA8303 		lsl	r3, r3, #2
 2245 00ac 1344     		add	r3, r3, r2
 2246 00ae 5B78     		ldrb	r3, [r3, #1]
 2247 00b0 DBB2     		uxtb	r3, r3
 2248 00b2 43F00203 		orr	r3, r3, #2
 2249 00b6 D8B2     		uxtb	r0, r3
 2250 00b8 40F20002 		movw	r2, #:lower16:USBFS_EP
 2251 00bc C0F20002 		movt	r2, #:upper16:USBFS_EP
 2252 00c0 0B46     		mov	r3, r1
 2253 00c2 4FEA4303 		lsl	r3, r3, #1
 2254 00c6 0B44     		add	r3, r3, r1
 2255 00c8 4FEA8303 		lsl	r3, r3, #2
 2256 00cc 1344     		add	r3, r3, r2
 2257 00ce 0246     		mov	r2, r0
 2258 00d0 5A70     		strb	r2, [r3, #1]
1031:.\Generated_Source\PSoC5/USBFS_std.c **** 
1032:.\Generated_Source\PSoC5/USBFS_std.c ****         if (USBFS_EP[ep].addr & USBFS_DIR_IN)
 2259              		.loc 1 1032 0
 2260 00d2 7979     		ldrb	r1, [r7, #5]	@ zero_extendqisi2
 2261 00d4 40F20002 		movw	r2, #:lower16:USBFS_EP
 2262 00d8 C0F20002 		movt	r2, #:upper16:USBFS_EP
 2263 00dc 0B46     		mov	r3, r1
 2264 00de 4FEA4303 		lsl	r3, r3, #1
 2265 00e2 0B44     		add	r3, r3, r1
 2266 00e4 4FEA8303 		lsl	r3, r3, #2
ARM GAS  C:\DOCUME~1\ADMINI~1\LOCALS~1\Temp\ccmk5fwz.s 			page 59


 2267 00e8 1344     		add	r3, r3, r2
 2268 00ea 1B79     		ldrb	r3, [r3, #4]
 2269 00ec DBB2     		uxtb	r3, r3
 2270 00ee 5BB2     		sxtb	r3, r3
 2271 00f0 002B     		cmp	r3, #0
 2272 00f2 09DA     		bge	.L117
1033:.\Generated_Source\PSoC5/USBFS_std.c ****         {
1034:.\Generated_Source\PSoC5/USBFS_std.c ****             /* IN Endpoint */
1035:.\Generated_Source\PSoC5/USBFS_std.c ****             CY_SET_REG8(&USBFS_SIE_EP1_CR0_PTR[ri], USBFS_MODE_STALL_DATA_EP |
 2273              		.loc 1 1035 0
 2274 00f4 BA79     		ldrb	r2, [r7, #6]	@ zero_extendqisi2
 2275 00f6 46F20E03 		movw	r3, #:lower16:1073766414
 2276 00fa C4F20003 		movt	r3, #:upper16:1073766414
 2277 00fe 1344     		add	r3, r2, r3
 2278 0100 6FF07202 		mvn	r2, #114
 2279 0104 1A70     		strb	r2, [r3, #0]
 2280 0106 08E0     		b	.L118
 2281              	.L117:
1036:.\Generated_Source\PSoC5/USBFS_std.c ****                                                                USBFS_MODE_ACK_IN);
1037:.\Generated_Source\PSoC5/USBFS_std.c ****         }
1038:.\Generated_Source\PSoC5/USBFS_std.c ****         else
1039:.\Generated_Source\PSoC5/USBFS_std.c ****         {
1040:.\Generated_Source\PSoC5/USBFS_std.c ****             /* OUT Endpoint */
1041:.\Generated_Source\PSoC5/USBFS_std.c ****             CY_SET_REG8(&USBFS_SIE_EP1_CR0_PTR[ri], USBFS_MODE_STALL_DATA_EP |
 2282              		.loc 1 1041 0
 2283 0108 BA79     		ldrb	r2, [r7, #6]	@ zero_extendqisi2
 2284 010a 46F20E03 		movw	r3, #:lower16:1073766414
 2285 010e C4F20003 		movt	r3, #:upper16:1073766414
 2286 0112 1344     		add	r3, r2, r3
 2287 0114 6FF07602 		mvn	r2, #118
 2288 0118 1A70     		strb	r2, [r3, #0]
 2289              	.L118:
1042:.\Generated_Source\PSoC5/USBFS_std.c ****                                                                USBFS_MODE_ACK_OUT);
1043:.\Generated_Source\PSoC5/USBFS_std.c ****         }
1044:.\Generated_Source\PSoC5/USBFS_std.c ****         requestHandled = USBFS_InitNoDataControlTransfer();
 2290              		.loc 1 1044 0
 2291 011a FFF7FEFF 		bl	USBFS_InitNoDataControlTransfer
 2292 011e 0346     		mov	r3, r0
 2293 0120 FB71     		strb	r3, [r7, #7]
 2294              	.L116:
1045:.\Generated_Source\PSoC5/USBFS_std.c ****     }
1046:.\Generated_Source\PSoC5/USBFS_std.c **** 
1047:.\Generated_Source\PSoC5/USBFS_std.c ****     return(requestHandled);
 2295              		.loc 1 1047 0
 2296 0122 FB79     		ldrb	r3, [r7, #7]	@ zero_extendqisi2
1048:.\Generated_Source\PSoC5/USBFS_std.c **** }
 2297              		.loc 1 1048 0
 2298 0124 1846     		mov	r0, r3
 2299 0126 07F10807 		add	r7, r7, #8
 2300 012a BD46     		mov	sp, r7
 2301 012c 80BD     		pop	{r7, pc}
 2302              		.cfi_endproc
 2303              	.LFE10:
 2304              		.size	USBFS_SetEndpointHalt, .-USBFS_SetEndpointHalt
 2305 012e 00BF     		.section	.text.USBFS_ClearEndpointHalt,"ax",%progbits
 2306              		.align	2
 2307              		.global	USBFS_ClearEndpointHalt
ARM GAS  C:\DOCUME~1\ADMINI~1\LOCALS~1\Temp\ccmk5fwz.s 			page 60


 2308              		.thumb
 2309              		.thumb_func
 2310              		.type	USBFS_ClearEndpointHalt, %function
 2311              	USBFS_ClearEndpointHalt:
 2312              	.LFB11:
1049:.\Generated_Source\PSoC5/USBFS_std.c **** 
1050:.\Generated_Source\PSoC5/USBFS_std.c **** 
1051:.\Generated_Source\PSoC5/USBFS_std.c **** /*******************************************************************************
1052:.\Generated_Source\PSoC5/USBFS_std.c **** * Function Name: USBFS_ClearEndpointHalt
1053:.\Generated_Source\PSoC5/USBFS_std.c **** ********************************************************************************
1054:.\Generated_Source\PSoC5/USBFS_std.c **** *
1055:.\Generated_Source\PSoC5/USBFS_std.c **** * Summary:
1056:.\Generated_Source\PSoC5/USBFS_std.c **** *  This routine handles clear endpoint halt.
1057:.\Generated_Source\PSoC5/USBFS_std.c **** *
1058:.\Generated_Source\PSoC5/USBFS_std.c **** * Parameters:
1059:.\Generated_Source\PSoC5/USBFS_std.c **** *  None.
1060:.\Generated_Source\PSoC5/USBFS_std.c **** *
1061:.\Generated_Source\PSoC5/USBFS_std.c **** * Return:
1062:.\Generated_Source\PSoC5/USBFS_std.c **** *  requestHandled.
1063:.\Generated_Source\PSoC5/USBFS_std.c **** *
1064:.\Generated_Source\PSoC5/USBFS_std.c **** * Reentrant:
1065:.\Generated_Source\PSoC5/USBFS_std.c **** *  No.
1066:.\Generated_Source\PSoC5/USBFS_std.c **** *
1067:.\Generated_Source\PSoC5/USBFS_std.c **** *******************************************************************************/
1068:.\Generated_Source\PSoC5/USBFS_std.c **** uint8 USBFS_ClearEndpointHalt(void) 
1069:.\Generated_Source\PSoC5/USBFS_std.c **** {
 2313              		.loc 1 1069 0
 2314              		.cfi_startproc
 2315              		@ args = 0, pretend = 0, frame = 8
 2316              		@ frame_needed = 1, uses_anonymous_args = 0
 2317 0000 80B5     		push	{r7, lr}
 2318              	.LCFI32:
 2319              		.cfi_def_cfa_offset 8
 2320 0002 82B0     		sub	sp, sp, #8
 2321              	.LCFI33:
 2322              		.cfi_def_cfa_offset 16
 2323 0004 00AF     		add	r7, sp, #0
 2324              		.cfi_offset 14, -4
 2325              		.cfi_offset 7, -8
 2326              	.LCFI34:
 2327              		.cfi_def_cfa_register 7
1070:.\Generated_Source\PSoC5/USBFS_std.c ****     uint8 ep, ri;
1071:.\Generated_Source\PSoC5/USBFS_std.c ****     uint8 requestHandled = USBFS_FALSE;
 2328              		.loc 1 1071 0
 2329 0006 4FF00003 		mov	r3, #0
 2330 000a FB71     		strb	r3, [r7, #7]
1072:.\Generated_Source\PSoC5/USBFS_std.c **** 
1073:.\Generated_Source\PSoC5/USBFS_std.c ****     /* Clear endpoint halt */
1074:.\Generated_Source\PSoC5/USBFS_std.c ****     ep = CY_GET_REG8(USBFS_wIndexLo) & USBFS_DIR_UNUSED;
 2331              		.loc 1 1074 0
 2332 000c 46F20403 		movw	r3, #:lower16:1073766404
 2333 0010 C4F20003 		movt	r3, #:upper16:1073766404
 2334 0014 1B78     		ldrb	r3, [r3, #0]
 2335 0016 DBB2     		uxtb	r3, r3
 2336 0018 03F07F03 		and	r3, r3, #127
 2337 001c 7B71     		strb	r3, [r7, #5]
1075:.\Generated_Source\PSoC5/USBFS_std.c ****     ri = ((ep - USBFS_EP1) << USBFS_EPX_CNTX_ADDR_SHIFT);
ARM GAS  C:\DOCUME~1\ADMINI~1\LOCALS~1\Temp\ccmk5fwz.s 			page 61


 2338              		.loc 1 1075 0
 2339 001e 7B79     		ldrb	r3, [r7, #5]
 2340 0020 03F1FF33 		add	r3, r3, #-1
 2341 0024 DBB2     		uxtb	r3, r3
 2342 0026 4FEA0313 		lsl	r3, r3, #4
 2343 002a BB71     		strb	r3, [r7, #6]
1076:.\Generated_Source\PSoC5/USBFS_std.c **** 
1077:.\Generated_Source\PSoC5/USBFS_std.c ****     if ((ep > USBFS_EP0) && (ep < USBFS_MAX_EP))
 2344              		.loc 1 1077 0
 2345 002c 7B79     		ldrb	r3, [r7, #5]	@ zero_extendqisi2
 2346 002e 002B     		cmp	r3, #0
 2347 0030 00F0BC80 		beq	.L121
 2348 0034 7B79     		ldrb	r3, [r7, #5]	@ zero_extendqisi2
 2349 0036 082B     		cmp	r3, #8
 2350 0038 00F2B880 		bhi	.L121
1078:.\Generated_Source\PSoC5/USBFS_std.c ****     {
1079:.\Generated_Source\PSoC5/USBFS_std.c ****         /* Clear the endpoint Halt */
1080:.\Generated_Source\PSoC5/USBFS_std.c ****         USBFS_EP[ep].hwEpState &= ~(USBFS_ENDPOINT_STATUS_HALT);
 2351              		.loc 1 1080 0
 2352 003c 7879     		ldrb	r0, [r7, #5]	@ zero_extendqisi2
 2353 003e 7979     		ldrb	r1, [r7, #5]	@ zero_extendqisi2
 2354 0040 40F20002 		movw	r2, #:lower16:USBFS_EP
 2355 0044 C0F20002 		movt	r2, #:upper16:USBFS_EP
 2356 0048 0B46     		mov	r3, r1
 2357 004a 4FEA4303 		lsl	r3, r3, #1
 2358 004e 0B44     		add	r3, r3, r1
 2359 0050 4FEA8303 		lsl	r3, r3, #2
 2360 0054 1344     		add	r3, r3, r2
 2361 0056 9B78     		ldrb	r3, [r3, #2]
 2362 0058 DBB2     		uxtb	r3, r3
 2363 005a 1A46     		mov	r2, r3
 2364 005c 02F0FE02 		and	r2, r2, #254
 2365 0060 40F20001 		movw	r1, #:lower16:USBFS_EP
 2366 0064 C0F20001 		movt	r1, #:upper16:USBFS_EP
 2367 0068 0346     		mov	r3, r0
 2368 006a 4FEA4303 		lsl	r3, r3, #1
 2369 006e 0344     		add	r3, r3, r0
 2370 0070 4FEA8303 		lsl	r3, r3, #2
 2371 0074 0B44     		add	r3, r3, r1
 2372 0076 9A70     		strb	r2, [r3, #2]
1081:.\Generated_Source\PSoC5/USBFS_std.c **** 
1082:.\Generated_Source\PSoC5/USBFS_std.c ****         /* Clear the data toggle */
1083:.\Generated_Source\PSoC5/USBFS_std.c ****         USBFS_EP[ep].epToggle = 0u;
 2373              		.loc 1 1083 0
 2374 0078 7979     		ldrb	r1, [r7, #5]	@ zero_extendqisi2
 2375 007a 40F20002 		movw	r2, #:lower16:USBFS_EP
 2376 007e C0F20002 		movt	r2, #:upper16:USBFS_EP
 2377 0082 0B46     		mov	r3, r1
 2378 0084 4FEA4303 		lsl	r3, r3, #1
 2379 0088 0B44     		add	r3, r3, r1
 2380 008a 4FEA8303 		lsl	r3, r3, #2
 2381 008e 1344     		add	r3, r3, r2
 2382 0090 4FF00002 		mov	r2, #0
 2383 0094 DA70     		strb	r2, [r3, #3]
1084:.\Generated_Source\PSoC5/USBFS_std.c ****         /* Clear toggle bit for already armed packet */
1085:.\Generated_Source\PSoC5/USBFS_std.c ****         CY_SET_REG8(&USBFS_SIE_EP1_CNT0_PTR[ri], 
 2384              		.loc 1 1085 0
ARM GAS  C:\DOCUME~1\ADMINI~1\LOCALS~1\Temp\ccmk5fwz.s 			page 62


 2385 0096 BA79     		ldrb	r2, [r7, #6]	@ zero_extendqisi2
 2386 0098 46F20C03 		movw	r3, #:lower16:1073766412
 2387 009c C4F20003 		movt	r3, #:upper16:1073766412
 2388 00a0 1344     		add	r3, r2, r3
 2389 00a2 B979     		ldrb	r1, [r7, #6]	@ zero_extendqisi2
 2390 00a4 46F20C02 		movw	r2, #:lower16:1073766412
 2391 00a8 C4F20002 		movt	r2, #:upper16:1073766412
 2392 00ac 0A44     		add	r2, r1, r2
 2393 00ae 1278     		ldrb	r2, [r2, #0]
 2394 00b0 D2B2     		uxtb	r2, r2
 2395 00b2 02F07F02 		and	r2, r2, #127
 2396 00b6 1A70     		strb	r2, [r3, #0]
1086:.\Generated_Source\PSoC5/USBFS_std.c ****                     CY_GET_REG8(&USBFS_SIE_EP1_CNT0_PTR[ri]) & ~USBFS_EPX_CNT_DATA_TOGGLE);
1087:.\Generated_Source\PSoC5/USBFS_std.c ****         /* Return api State as it was defined before */
1088:.\Generated_Source\PSoC5/USBFS_std.c ****         USBFS_EP[ep].apiEpState &= ~USBFS_NO_EVENT_ALLOWED;
 2397              		.loc 1 1088 0
 2398 00b8 7879     		ldrb	r0, [r7, #5]	@ zero_extendqisi2
 2399 00ba 7979     		ldrb	r1, [r7, #5]	@ zero_extendqisi2
 2400 00bc 40F20002 		movw	r2, #:lower16:USBFS_EP
 2401 00c0 C0F20002 		movt	r2, #:upper16:USBFS_EP
 2402 00c4 0B46     		mov	r3, r1
 2403 00c6 4FEA4303 		lsl	r3, r3, #1
 2404 00ca 0B44     		add	r3, r3, r1
 2405 00cc 4FEA8303 		lsl	r3, r3, #2
 2406 00d0 1344     		add	r3, r3, r2
 2407 00d2 5B78     		ldrb	r3, [r3, #1]
 2408 00d4 DBB2     		uxtb	r3, r3
 2409 00d6 1A46     		mov	r2, r3
 2410 00d8 02F0FD02 		and	r2, r2, #253
 2411 00dc 40F20001 		movw	r1, #:lower16:USBFS_EP
 2412 00e0 C0F20001 		movt	r1, #:upper16:USBFS_EP
 2413 00e4 0346     		mov	r3, r0
 2414 00e6 4FEA4303 		lsl	r3, r3, #1
 2415 00ea 0344     		add	r3, r3, r0
 2416 00ec 4FEA8303 		lsl	r3, r3, #2
 2417 00f0 0B44     		add	r3, r3, r1
 2418 00f2 5A70     		strb	r2, [r3, #1]
1089:.\Generated_Source\PSoC5/USBFS_std.c **** 
1090:.\Generated_Source\PSoC5/USBFS_std.c ****         if (USBFS_EP[ep].addr & USBFS_DIR_IN)
 2419              		.loc 1 1090 0
 2420 00f4 7979     		ldrb	r1, [r7, #5]	@ zero_extendqisi2
 2421 00f6 40F20002 		movw	r2, #:lower16:USBFS_EP
 2422 00fa C0F20002 		movt	r2, #:upper16:USBFS_EP
 2423 00fe 0B46     		mov	r3, r1
 2424 0100 4FEA4303 		lsl	r3, r3, #1
 2425 0104 0B44     		add	r3, r3, r1
 2426 0106 4FEA8303 		lsl	r3, r3, #2
 2427 010a 1344     		add	r3, r3, r2
 2428 010c 1B79     		ldrb	r3, [r3, #4]
 2429 010e DBB2     		uxtb	r3, r3
 2430 0110 5BB2     		sxtb	r3, r3
 2431 0112 002B     		cmp	r3, #0
 2432 0114 23DA     		bge	.L122
1091:.\Generated_Source\PSoC5/USBFS_std.c ****         {
1092:.\Generated_Source\PSoC5/USBFS_std.c ****             /* IN Endpoint */
1093:.\Generated_Source\PSoC5/USBFS_std.c ****             if(USBFS_EP[ep].apiEpState == USBFS_IN_BUFFER_EMPTY)
 2433              		.loc 1 1093 0
ARM GAS  C:\DOCUME~1\ADMINI~1\LOCALS~1\Temp\ccmk5fwz.s 			page 63


 2434 0116 7979     		ldrb	r1, [r7, #5]	@ zero_extendqisi2
 2435 0118 40F20002 		movw	r2, #:lower16:USBFS_EP
 2436 011c C0F20002 		movt	r2, #:upper16:USBFS_EP
 2437 0120 0B46     		mov	r3, r1
 2438 0122 4FEA4303 		lsl	r3, r3, #1
 2439 0126 0B44     		add	r3, r3, r1
 2440 0128 4FEA8303 		lsl	r3, r3, #2
 2441 012c 1344     		add	r3, r3, r2
 2442 012e 5B78     		ldrb	r3, [r3, #1]
 2443 0130 DBB2     		uxtb	r3, r3
 2444 0132 012B     		cmp	r3, #1
 2445 0134 09D1     		bne	.L123
1094:.\Generated_Source\PSoC5/USBFS_std.c ****             {       /* Wait for next packet from application */
1095:.\Generated_Source\PSoC5/USBFS_std.c ****                 CY_SET_REG8(&USBFS_SIE_EP1_CR0_PTR[ri], USBFS_MODE_NAK_IN);
 2446              		.loc 1 1095 0
 2447 0136 BA79     		ldrb	r2, [r7, #6]	@ zero_extendqisi2
 2448 0138 46F20E03 		movw	r3, #:lower16:1073766414
 2449 013c C4F20003 		movt	r3, #:upper16:1073766414
 2450 0140 1344     		add	r3, r2, r3
 2451 0142 4FF00C02 		mov	r2, #12
 2452 0146 1A70     		strb	r2, [r3, #0]
1096:.\Generated_Source\PSoC5/USBFS_std.c ****             }
1097:.\Generated_Source\PSoC5/USBFS_std.c ****             else    /* Continue armed transfer */
1098:.\Generated_Source\PSoC5/USBFS_std.c ****             {
1099:.\Generated_Source\PSoC5/USBFS_std.c ****                 CY_SET_REG8(&USBFS_SIE_EP1_CR0_PTR[ri], USBFS_MODE_ACK_IN);
 2453              		.loc 1 1099 0
 2454 0148 2CE0     		b	.L125
 2455              	.L123:
 2456 014a BA79     		ldrb	r2, [r7, #6]	@ zero_extendqisi2
 2457 014c 46F20E03 		movw	r3, #:lower16:1073766414
 2458 0150 C4F20003 		movt	r3, #:upper16:1073766414
 2459 0154 1344     		add	r3, r2, r3
 2460 0156 4FF00D02 		mov	r2, #13
 2461 015a 1A70     		strb	r2, [r3, #0]
 2462 015c 22E0     		b	.L125
 2463              	.L122:
1100:.\Generated_Source\PSoC5/USBFS_std.c ****             }
1101:.\Generated_Source\PSoC5/USBFS_std.c ****         }
1102:.\Generated_Source\PSoC5/USBFS_std.c ****         else
1103:.\Generated_Source\PSoC5/USBFS_std.c ****         {
1104:.\Generated_Source\PSoC5/USBFS_std.c ****             /* OUT Endpoint */
1105:.\Generated_Source\PSoC5/USBFS_std.c ****             if(USBFS_EP[ep].apiEpState == USBFS_OUT_BUFFER_FULL)
 2464              		.loc 1 1105 0
 2465 015e 7979     		ldrb	r1, [r7, #5]	@ zero_extendqisi2
 2466 0160 40F20002 		movw	r2, #:lower16:USBFS_EP
 2467 0164 C0F20002 		movt	r2, #:upper16:USBFS_EP
 2468 0168 0B46     		mov	r3, r1
 2469 016a 4FEA4303 		lsl	r3, r3, #1
 2470 016e 0B44     		add	r3, r3, r1
 2471 0170 4FEA8303 		lsl	r3, r3, #2
 2472 0174 1344     		add	r3, r3, r2
 2473 0176 5B78     		ldrb	r3, [r3, #1]
 2474 0178 DBB2     		uxtb	r3, r3
 2475 017a 012B     		cmp	r3, #1
 2476 017c 09D1     		bne	.L126
1106:.\Generated_Source\PSoC5/USBFS_std.c ****             {       /* Allow application to read full buffer */
1107:.\Generated_Source\PSoC5/USBFS_std.c ****                 CY_SET_REG8(&USBFS_SIE_EP1_CR0_PTR[ri], USBFS_MODE_NAK_OUT);
ARM GAS  C:\DOCUME~1\ADMINI~1\LOCALS~1\Temp\ccmk5fwz.s 			page 64


 2477              		.loc 1 1107 0
 2478 017e BA79     		ldrb	r2, [r7, #6]	@ zero_extendqisi2
 2479 0180 46F20E03 		movw	r3, #:lower16:1073766414
 2480 0184 C4F20003 		movt	r3, #:upper16:1073766414
 2481 0188 1344     		add	r3, r2, r3
 2482 018a 4FF00802 		mov	r2, #8
 2483 018e 1A70     		strb	r2, [r3, #0]
 2484 0190 08E0     		b	.L125
 2485              	.L126:
1108:.\Generated_Source\PSoC5/USBFS_std.c ****             }
1109:.\Generated_Source\PSoC5/USBFS_std.c ****             else    /* Mark endpoint as empty, so it will be reloaded */
1110:.\Generated_Source\PSoC5/USBFS_std.c ****             {
1111:.\Generated_Source\PSoC5/USBFS_std.c ****                 CY_SET_REG8(&USBFS_SIE_EP1_CR0_PTR[ri], USBFS_MODE_ACK_OUT);
 2486              		.loc 1 1111 0
 2487 0192 BA79     		ldrb	r2, [r7, #6]	@ zero_extendqisi2
 2488 0194 46F20E03 		movw	r3, #:lower16:1073766414
 2489 0198 C4F20003 		movt	r3, #:upper16:1073766414
 2490 019c 1344     		add	r3, r2, r3
 2491 019e 4FF00902 		mov	r2, #9
 2492 01a2 1A70     		strb	r2, [r3, #0]
 2493              	.L125:
1112:.\Generated_Source\PSoC5/USBFS_std.c ****             }
1113:.\Generated_Source\PSoC5/USBFS_std.c ****         }
1114:.\Generated_Source\PSoC5/USBFS_std.c ****         requestHandled = USBFS_InitNoDataControlTransfer();
 2494              		.loc 1 1114 0
 2495 01a4 FFF7FEFF 		bl	USBFS_InitNoDataControlTransfer
 2496 01a8 0346     		mov	r3, r0
 2497 01aa FB71     		strb	r3, [r7, #7]
 2498              	.L121:
1115:.\Generated_Source\PSoC5/USBFS_std.c ****     }
1116:.\Generated_Source\PSoC5/USBFS_std.c **** 
1117:.\Generated_Source\PSoC5/USBFS_std.c ****     return(requestHandled);
 2499              		.loc 1 1117 0
 2500 01ac FB79     		ldrb	r3, [r7, #7]	@ zero_extendqisi2
1118:.\Generated_Source\PSoC5/USBFS_std.c **** }
 2501              		.loc 1 1118 0
 2502 01ae 1846     		mov	r0, r3
 2503 01b0 07F10807 		add	r7, r7, #8
 2504 01b4 BD46     		mov	sp, r7
 2505 01b6 80BD     		pop	{r7, pc}
 2506              		.cfi_endproc
 2507              	.LFE11:
 2508              		.size	USBFS_ClearEndpointHalt, .-USBFS_ClearEndpointHalt
 2509              		.section	.text.USBFS_ValidateAlternateSetting,"ax",%progbits
 2510              		.align	2
 2511              		.global	USBFS_ValidateAlternateSetting
 2512              		.thumb
 2513              		.thumb_func
 2514              		.type	USBFS_ValidateAlternateSetting, %function
 2515              	USBFS_ValidateAlternateSetting:
 2516              	.LFB12:
1119:.\Generated_Source\PSoC5/USBFS_std.c **** 
1120:.\Generated_Source\PSoC5/USBFS_std.c **** 
1121:.\Generated_Source\PSoC5/USBFS_std.c **** /*******************************************************************************
1122:.\Generated_Source\PSoC5/USBFS_std.c **** * Function Name: USBFS_ValidateAlternateSetting
1123:.\Generated_Source\PSoC5/USBFS_std.c **** ********************************************************************************
1124:.\Generated_Source\PSoC5/USBFS_std.c **** *
ARM GAS  C:\DOCUME~1\ADMINI~1\LOCALS~1\Temp\ccmk5fwz.s 			page 65


1125:.\Generated_Source\PSoC5/USBFS_std.c **** * Summary:
1126:.\Generated_Source\PSoC5/USBFS_std.c **** *  Validates (and records) a SET INTERFACE request.
1127:.\Generated_Source\PSoC5/USBFS_std.c **** *
1128:.\Generated_Source\PSoC5/USBFS_std.c **** * Parameters:
1129:.\Generated_Source\PSoC5/USBFS_std.c **** *  None.
1130:.\Generated_Source\PSoC5/USBFS_std.c **** *
1131:.\Generated_Source\PSoC5/USBFS_std.c **** * Return:
1132:.\Generated_Source\PSoC5/USBFS_std.c **** *  requestHandled.
1133:.\Generated_Source\PSoC5/USBFS_std.c **** *
1134:.\Generated_Source\PSoC5/USBFS_std.c **** * Reentrant:
1135:.\Generated_Source\PSoC5/USBFS_std.c **** *  No.
1136:.\Generated_Source\PSoC5/USBFS_std.c **** *
1137:.\Generated_Source\PSoC5/USBFS_std.c **** *******************************************************************************/
1138:.\Generated_Source\PSoC5/USBFS_std.c **** uint8 USBFS_ValidateAlternateSetting(void) 
1139:.\Generated_Source\PSoC5/USBFS_std.c **** {
 2517              		.loc 1 1139 0
 2518              		.cfi_startproc
 2519              		@ args = 0, pretend = 0, frame = 16
 2520              		@ frame_needed = 1, uses_anonymous_args = 0
 2521 0000 80B5     		push	{r7, lr}
 2522              	.LCFI35:
 2523              		.cfi_def_cfa_offset 8
 2524 0002 84B0     		sub	sp, sp, #16
 2525              	.LCFI36:
 2526              		.cfi_def_cfa_offset 24
 2527 0004 00AF     		add	r7, sp, #0
 2528              		.cfi_offset 14, -4
 2529              		.cfi_offset 7, -8
 2530              	.LCFI37:
 2531              		.cfi_def_cfa_register 7
1140:.\Generated_Source\PSoC5/USBFS_std.c ****     uint8 requestHandled = USBFS_TRUE;
 2532              		.loc 1 1140 0
 2533 0006 4FF00103 		mov	r3, #1
 2534 000a BB71     		strb	r3, [r7, #6]
1141:.\Generated_Source\PSoC5/USBFS_std.c ****     uint8 interfaceNum;
1142:.\Generated_Source\PSoC5/USBFS_std.c ****     T_USBFS_LUT *pTmp;
1143:.\Generated_Source\PSoC5/USBFS_std.c ****     uint8 currentInterfacesNum;
1144:.\Generated_Source\PSoC5/USBFS_std.c **** 
1145:.\Generated_Source\PSoC5/USBFS_std.c ****     interfaceNum = CY_GET_REG8(USBFS_wIndexLo);
 2535              		.loc 1 1145 0
 2536 000c 46F20403 		movw	r3, #:lower16:1073766404
 2537 0010 C4F20003 		movt	r3, #:upper16:1073766404
 2538 0014 1B78     		ldrb	r3, [r3, #0]
 2539 0016 FB71     		strb	r3, [r7, #7]
1146:.\Generated_Source\PSoC5/USBFS_std.c ****     /* Validate interface setting, stall if invalid. */
1147:.\Generated_Source\PSoC5/USBFS_std.c ****     pTmp = USBFS_GetConfigTablePtr(USBFS_configuration - 1u);
 2540              		.loc 1 1147 0
 2541 0018 40F20003 		movw	r3, #:lower16:USBFS_configuration
 2542 001c C0F20003 		movt	r3, #:upper16:USBFS_configuration
 2543 0020 1B78     		ldrb	r3, [r3, #0]
 2544 0022 DBB2     		uxtb	r3, r3
 2545 0024 03F1FF33 		add	r3, r3, #-1
 2546 0028 DBB2     		uxtb	r3, r3
 2547 002a 1846     		mov	r0, r3
 2548 002c FFF7FEFF 		bl	USBFS_GetConfigTablePtr
 2549 0030 0346     		mov	r3, r0
 2550 0032 BB60     		str	r3, [r7, #8]
ARM GAS  C:\DOCUME~1\ADMINI~1\LOCALS~1\Temp\ccmk5fwz.s 			page 66


1148:.\Generated_Source\PSoC5/USBFS_std.c ****     currentInterfacesNum  = ((uint8 *) pTmp->p_list)[USBFS_CONFIG_DESCR_NUM_INTERFACES];
 2551              		.loc 1 1148 0
 2552 0034 BB68     		ldr	r3, [r7, #8]
 2553 0036 5B68     		ldr	r3, [r3, #4]
 2554 0038 03F10403 		add	r3, r3, #4
 2555 003c 1B78     		ldrb	r3, [r3, #0]
 2556 003e FB73     		strb	r3, [r7, #15]
1149:.\Generated_Source\PSoC5/USBFS_std.c **** 
1150:.\Generated_Source\PSoC5/USBFS_std.c ****     if((interfaceNum >= currentInterfacesNum) || (interfaceNum >= USBFS_MAX_INTERFACES_NUMBER))
 2557              		.loc 1 1150 0
 2558 0040 FA79     		ldrb	r2, [r7, #7]	@ zero_extendqisi2
 2559 0042 FB7B     		ldrb	r3, [r7, #15]	@ zero_extendqisi2
 2560 0044 9A42     		cmp	r2, r3
 2561 0046 02D2     		bcs	.L129
 2562 0048 FB79     		ldrb	r3, [r7, #7]	@ zero_extendqisi2
 2563 004a 032B     		cmp	r3, #3
 2564 004c 03D9     		bls	.L130
 2565              	.L129:
1151:.\Generated_Source\PSoC5/USBFS_std.c ****     {   /* wrong interface number */
1152:.\Generated_Source\PSoC5/USBFS_std.c ****         requestHandled = USBFS_FALSE;
 2566              		.loc 1 1152 0
 2567 004e 4FF00003 		mov	r3, #0
 2568 0052 BB71     		strb	r3, [r7, #6]
 2569              		.loc 1 1150 0
 2570 0054 18E0     		b	.L131
 2571              	.L130:
1153:.\Generated_Source\PSoC5/USBFS_std.c ****     }
1154:.\Generated_Source\PSoC5/USBFS_std.c ****     else
1155:.\Generated_Source\PSoC5/USBFS_std.c ****     {
1156:.\Generated_Source\PSoC5/USBFS_std.c ****         /* save current Alt setting to find out the difference in Config() function */
1157:.\Generated_Source\PSoC5/USBFS_std.c ****         USBFS_interfaceSetting_last[interfaceNum] = USBFS_interfaceSetting[interfaceNum];
 2572              		.loc 1 1157 0
 2573 0056 FA79     		ldrb	r2, [r7, #7]	@ zero_extendqisi2
 2574 0058 F979     		ldrb	r1, [r7, #7]	@ zero_extendqisi2
 2575 005a 40F20003 		movw	r3, #:lower16:USBFS_interfaceSetting
 2576 005e C0F20003 		movt	r3, #:upper16:USBFS_interfaceSetting
 2577 0062 5B5C     		ldrb	r3, [r3, r1]
 2578 0064 D9B2     		uxtb	r1, r3
 2579 0066 40F20003 		movw	r3, #:lower16:USBFS_interfaceSetting_last
 2580 006a C0F20003 		movt	r3, #:upper16:USBFS_interfaceSetting_last
 2581 006e 9954     		strb	r1, [r3, r2]
1158:.\Generated_Source\PSoC5/USBFS_std.c ****         USBFS_interfaceSetting[interfaceNum] = CY_GET_REG8(USBFS_wValueLo);
 2582              		.loc 1 1158 0
 2583 0070 FA79     		ldrb	r2, [r7, #7]	@ zero_extendqisi2
 2584 0072 46F20203 		movw	r3, #:lower16:1073766402
 2585 0076 C4F20003 		movt	r3, #:upper16:1073766402
 2586 007a 1B78     		ldrb	r3, [r3, #0]
 2587 007c D9B2     		uxtb	r1, r3
 2588 007e 40F20003 		movw	r3, #:lower16:USBFS_interfaceSetting
 2589 0082 C0F20003 		movt	r3, #:upper16:USBFS_interfaceSetting
 2590 0086 9954     		strb	r1, [r3, r2]
 2591              	.L131:
1159:.\Generated_Source\PSoC5/USBFS_std.c ****     }
1160:.\Generated_Source\PSoC5/USBFS_std.c **** 
1161:.\Generated_Source\PSoC5/USBFS_std.c ****     return (requestHandled);
 2592              		.loc 1 1161 0
 2593 0088 BB79     		ldrb	r3, [r7, #6]	@ zero_extendqisi2
ARM GAS  C:\DOCUME~1\ADMINI~1\LOCALS~1\Temp\ccmk5fwz.s 			page 67


1162:.\Generated_Source\PSoC5/USBFS_std.c **** }
 2594              		.loc 1 1162 0
 2595 008a 1846     		mov	r0, r3
 2596 008c 07F11007 		add	r7, r7, #16
 2597 0090 BD46     		mov	sp, r7
 2598 0092 80BD     		pop	{r7, pc}
 2599              		.cfi_endproc
 2600              	.LFE12:
 2601              		.size	USBFS_ValidateAlternateSetting, .-USBFS_ValidateAlternateSetting
 2602              		.section	.rodata
 2603              		.align	2
 2604              		.type	hex.2332, %object
 2605              		.size	hex.2332, 16
 2606              	hex.2332:
 2607 0000 30313233 		.ascii	"0123456789ABCDEF"
 2607      34353637 
 2607      38394142 
 2607      43444546 
 2608              		.text
 2609              	.Letext0: