ARM GAS  C:\DOCUME~1\ADMINI~1\LOCALS~1\Temp\ccmk5fwz.s 			page 1


   1              		.syntax unified
   2              		.cpu cortex-m3
   3              		.fpu softvfp
   4              		.eabi_attribute 20, 1
   5              		.eabi_attribute 21, 1
   6              		.eabi_attribute 23, 3
   7              		.eabi_attribute 24, 1
   8              		.eabi_attribute 25, 1
   9              		.eabi_attribute 26, 1
  10              		.eabi_attribute 30, 6
  11              		.eabi_attribute 18, 4
  12              		.thumb
  13              		.file	"USBFS_std.c"
  14              		.section	.debug_abbrev,"",%progbits
  15              	.Ldebug_abbrev0:
  16              		.section	.debug_info,"",%progbits
  17              	.Ldebug_info0:
  18              		.section	.debug_line,"",%progbits
  19              	.Ldebug_line0:
  20 0000 CE020000 		.text
  20      02006D00 
  20      00000201 
  20      FB0E0D00 
  20      01010101 
  21              	.Ltext0:
  22              		.cfi_sections	.debug_frame
  23              		.global	USBFS_idSerialNumberStringDescriptor
  24              		.data
  25              		.align	2
  26              		.type	USBFS_idSerialNumberStringDescriptor, %object
  27              		.size	USBFS_idSerialNumberStringDescriptor, 34
  28              	USBFS_idSerialNumberStringDescriptor:
  29 0000 22       		.byte	34
  30 0001 03       		.byte	3
  31 0002 00000000 		.space	32
  31      00000000 
  31      00000000 
  31      00000000 
  31      00000000 
  32              		.comm	USBFS_tBuffer,2,4
  33              		.comm	USBFS_fwSerialNumberStringDescriptor,4,4
  34              		.global	USBFS_snStringConfirm
  35 0022 0000     		.bss
  36              		.type	USBFS_snStringConfirm, %object
  37              		.size	USBFS_snStringConfirm, 1
  38              	USBFS_snStringConfirm:
  39 0000 00       		.space	1
  40              		.section	.text.USBFS_SerialNumString,"ax",%progbits
  41              		.align	2
  42              		.global	USBFS_SerialNumString
  43              		.thumb
  44              		.thumb_func
  45              		.type	USBFS_SerialNumString, %function
  46              	USBFS_SerialNumString:
  47              	.LFB0:
  48              		.file 1 ".\\Generated_Source\\PSoC5\\USBFS_std.c"
   1:.\Generated_Source\PSoC5/USBFS_std.c **** /*******************************************************************************
ARM GAS  C:\DOCUME~1\ADMINI~1\LOCALS~1\Temp\ccmk5fwz.s 			page 2


   2:.\Generated_Source\PSoC5/USBFS_std.c **** * File Name: USBFS_std.c
   3:.\Generated_Source\PSoC5/USBFS_std.c **** * Version 2.50
   4:.\Generated_Source\PSoC5/USBFS_std.c **** *
   5:.\Generated_Source\PSoC5/USBFS_std.c **** * Description:
   6:.\Generated_Source\PSoC5/USBFS_std.c **** *  USB Standard request handler.
   7:.\Generated_Source\PSoC5/USBFS_std.c **** *
   8:.\Generated_Source\PSoC5/USBFS_std.c **** * Note:
   9:.\Generated_Source\PSoC5/USBFS_std.c **** *
  10:.\Generated_Source\PSoC5/USBFS_std.c **** ********************************************************************************
  11:.\Generated_Source\PSoC5/USBFS_std.c **** * Copyright 2008-2012, Cypress Semiconductor Corporation.  All rights reserved.
  12:.\Generated_Source\PSoC5/USBFS_std.c **** * You may use this file only in accordance with the license, terms, conditions,
  13:.\Generated_Source\PSoC5/USBFS_std.c **** * disclaimers, and limitations in the end user license agreement accompanying
  14:.\Generated_Source\PSoC5/USBFS_std.c **** * the software package with which this file was provided.
  15:.\Generated_Source\PSoC5/USBFS_std.c **** *******************************************************************************/
  16:.\Generated_Source\PSoC5/USBFS_std.c **** 
  17:.\Generated_Source\PSoC5/USBFS_std.c **** #include "USBFS.h"
  18:.\Generated_Source\PSoC5/USBFS_std.c **** 
  19:.\Generated_Source\PSoC5/USBFS_std.c **** 
  20:.\Generated_Source\PSoC5/USBFS_std.c **** /***************************************
  21:.\Generated_Source\PSoC5/USBFS_std.c **** * External references
  22:.\Generated_Source\PSoC5/USBFS_std.c **** ***************************************/
  23:.\Generated_Source\PSoC5/USBFS_std.c **** 
  24:.\Generated_Source\PSoC5/USBFS_std.c **** extern const uint8 CYCODE USBFS_DEVICE0_DESCR[];
  25:.\Generated_Source\PSoC5/USBFS_std.c **** extern const uint8 CYCODE USBFS_DEVICE0_CONFIGURATION0_DESCR[];
  26:.\Generated_Source\PSoC5/USBFS_std.c **** extern const uint8 CYCODE USBFS_STRING_DESCRIPTORS[];
  27:.\Generated_Source\PSoC5/USBFS_std.c **** extern const uint8 CYCODE USBFS_MSOS_DESCRIPTOR[];
  28:.\Generated_Source\PSoC5/USBFS_std.c **** extern const uint8 CYCODE USBFS_SN_STRING_DESCRIPTOR[];
  29:.\Generated_Source\PSoC5/USBFS_std.c **** 
  30:.\Generated_Source\PSoC5/USBFS_std.c **** extern volatile uint8 USBFS_device;
  31:.\Generated_Source\PSoC5/USBFS_std.c **** extern volatile uint8 USBFS_configuration;
  32:.\Generated_Source\PSoC5/USBFS_std.c **** extern volatile uint8 USBFS_configurationChanged;
  33:.\Generated_Source\PSoC5/USBFS_std.c **** extern volatile uint8 USBFS_interfaceNumber;
  34:.\Generated_Source\PSoC5/USBFS_std.c **** extern volatile uint8 USBFS_interfaceSetting[];
  35:.\Generated_Source\PSoC5/USBFS_std.c **** extern volatile uint8 USBFS_interfaceSetting_last[];
  36:.\Generated_Source\PSoC5/USBFS_std.c **** extern volatile uint8 USBFS_deviceAddress;
  37:.\Generated_Source\PSoC5/USBFS_std.c **** extern volatile uint8 USBFS_deviceStatus;
  38:.\Generated_Source\PSoC5/USBFS_std.c **** extern volatile uint8 USBFS_interfaceStatus[];
  39:.\Generated_Source\PSoC5/USBFS_std.c **** extern uint8 CYCODE *USBFS_interfaceClass;
  40:.\Generated_Source\PSoC5/USBFS_std.c **** extern const T_USBFS_LUT CYCODE USBFS_TABLE[];
  41:.\Generated_Source\PSoC5/USBFS_std.c **** extern volatile T_USBFS_EP_CTL_BLOCK USBFS_EP[];
  42:.\Generated_Source\PSoC5/USBFS_std.c **** extern volatile T_USBFS_TD USBFS_currentTD;
  43:.\Generated_Source\PSoC5/USBFS_std.c **** #if defined(USBFS_ENABLE_CDC_CLASS)
  44:.\Generated_Source\PSoC5/USBFS_std.c ****     extern volatile uint8 USBFS_cdc_data_in_ep;
  45:.\Generated_Source\PSoC5/USBFS_std.c ****     extern volatile uint8 USBFS_cdc_data_out_ep;
  46:.\Generated_Source\PSoC5/USBFS_std.c **** #endif  /* End USBFS_ENABLE_CDC_CLASS*/
  47:.\Generated_Source\PSoC5/USBFS_std.c **** #if defined(USBFS_ENABLE_MIDI_STREAMING)
  48:.\Generated_Source\PSoC5/USBFS_std.c ****     extern volatile uint8 USBFS_midi_in_ep;
  49:.\Generated_Source\PSoC5/USBFS_std.c ****     extern volatile uint8 USBFS_midi_out_ep;
  50:.\Generated_Source\PSoC5/USBFS_std.c **** #endif /* End USBFS_ENABLE_MIDI_STREAMING */
  51:.\Generated_Source\PSoC5/USBFS_std.c **** 
  52:.\Generated_Source\PSoC5/USBFS_std.c **** 
  53:.\Generated_Source\PSoC5/USBFS_std.c **** /***************************************
  54:.\Generated_Source\PSoC5/USBFS_std.c **** *         Forward references
  55:.\Generated_Source\PSoC5/USBFS_std.c **** ***************************************/
  56:.\Generated_Source\PSoC5/USBFS_std.c **** 
  57:.\Generated_Source\PSoC5/USBFS_std.c **** uint8 USBFS_InitControlRead(void) ;
  58:.\Generated_Source\PSoC5/USBFS_std.c **** uint8 USBFS_InitControlWrite(void) ;
ARM GAS  C:\DOCUME~1\ADMINI~1\LOCALS~1\Temp\ccmk5fwz.s 			page 3


  59:.\Generated_Source\PSoC5/USBFS_std.c **** uint8 USBFS_InitNoDataControlTransfer(void) ;
  60:.\Generated_Source\PSoC5/USBFS_std.c **** uint8 USBFS_DispatchClassRqst(void) ;
  61:.\Generated_Source\PSoC5/USBFS_std.c **** 
  62:.\Generated_Source\PSoC5/USBFS_std.c **** void USBFS_Config(uint8 clearAltSetting) ;
  63:.\Generated_Source\PSoC5/USBFS_std.c **** void USBFS_ConfigAltChanged(void) ;
  64:.\Generated_Source\PSoC5/USBFS_std.c **** T_USBFS_LUT *USBFS_GetConfigTablePtr(uint8 c)
  65:.\Generated_Source\PSoC5/USBFS_std.c ****                                                             ;
  66:.\Generated_Source\PSoC5/USBFS_std.c **** T_USBFS_LUT *USBFS_GetDeviceTablePtr(void)
  67:.\Generated_Source\PSoC5/USBFS_std.c ****                                                             ;
  68:.\Generated_Source\PSoC5/USBFS_std.c **** uint8 USBFS_ClearEndpointHalt(void) ;
  69:.\Generated_Source\PSoC5/USBFS_std.c **** uint8 USBFS_SetEndpointHalt(void) ;
  70:.\Generated_Source\PSoC5/USBFS_std.c **** uint8 USBFS_ValidateAlternateSetting(void) ;
  71:.\Generated_Source\PSoC5/USBFS_std.c **** 
  72:.\Generated_Source\PSoC5/USBFS_std.c **** /*DIE ID string descriptor for 8 bytes ID*/
  73:.\Generated_Source\PSoC5/USBFS_std.c **** #if defined(USBFS_ENABLE_IDSN_STRING)
  74:.\Generated_Source\PSoC5/USBFS_std.c ****     void USBFS_ReadDieID(uint8 *descr) ;
  75:.\Generated_Source\PSoC5/USBFS_std.c ****     uint8 USBFS_idSerialNumberStringDescriptor[0x22u]={0x22u, USBFS_DESCR_STRING};
  76:.\Generated_Source\PSoC5/USBFS_std.c **** #endif /* USBFS_ENABLE_IDSN_STRING */
  77:.\Generated_Source\PSoC5/USBFS_std.c **** 
  78:.\Generated_Source\PSoC5/USBFS_std.c **** #if(USBFS_EP_MM != USBFS__EP_MANUAL)
  79:.\Generated_Source\PSoC5/USBFS_std.c ****     void USBFS_Stop_DMA(uint8 epNumber) ;
  80:.\Generated_Source\PSoC5/USBFS_std.c **** #endif   /* End USBFS_EP_MM != USBFS__EP_MANUAL */
  81:.\Generated_Source\PSoC5/USBFS_std.c **** uint8 CYCODE *USBFS_GetInterfaceClassTablePtr(void)
  82:.\Generated_Source\PSoC5/USBFS_std.c ****                                                     ;
  83:.\Generated_Source\PSoC5/USBFS_std.c **** 
  84:.\Generated_Source\PSoC5/USBFS_std.c **** 
  85:.\Generated_Source\PSoC5/USBFS_std.c **** /***************************************
  86:.\Generated_Source\PSoC5/USBFS_std.c **** * Global data allocation
  87:.\Generated_Source\PSoC5/USBFS_std.c **** ***************************************/
  88:.\Generated_Source\PSoC5/USBFS_std.c **** 
  89:.\Generated_Source\PSoC5/USBFS_std.c **** volatile uint8 USBFS_tBuffer[USBFS_EP_STATUS_LENGTH > USBFS_DEVICE_STATUS_LENGTH ? \
  90:.\Generated_Source\PSoC5/USBFS_std.c ****                                USBFS_EP_STATUS_LENGTH : USBFS_DEVICE_STATUS_LENGTH];
  91:.\Generated_Source\PSoC5/USBFS_std.c **** volatile uint8 *USBFS_fwSerialNumberStringDescriptor;
  92:.\Generated_Source\PSoC5/USBFS_std.c **** volatile uint8 USBFS_snStringConfirm = USBFS_FALSE;
  93:.\Generated_Source\PSoC5/USBFS_std.c **** 
  94:.\Generated_Source\PSoC5/USBFS_std.c **** 
  95:.\Generated_Source\PSoC5/USBFS_std.c **** /*******************************************************************************
  96:.\Generated_Source\PSoC5/USBFS_std.c **** * Function Name: USBFS_SerialNumString
  97:.\Generated_Source\PSoC5/USBFS_std.c **** ********************************************************************************
  98:.\Generated_Source\PSoC5/USBFS_std.c **** *
  99:.\Generated_Source\PSoC5/USBFS_std.c **** * Summary:
 100:.\Generated_Source\PSoC5/USBFS_std.c **** *  Application firmware may supply the source of the USB device descriptors
 101:.\Generated_Source\PSoC5/USBFS_std.c **** *  serial number string during runtime.
 102:.\Generated_Source\PSoC5/USBFS_std.c **** *
 103:.\Generated_Source\PSoC5/USBFS_std.c **** * Parameters:
 104:.\Generated_Source\PSoC5/USBFS_std.c **** *  snString:  pointer to string.
 105:.\Generated_Source\PSoC5/USBFS_std.c **** *
 106:.\Generated_Source\PSoC5/USBFS_std.c **** * Return:
 107:.\Generated_Source\PSoC5/USBFS_std.c **** *  None.
 108:.\Generated_Source\PSoC5/USBFS_std.c **** *
 109:.\Generated_Source\PSoC5/USBFS_std.c **** * Reentrant:
 110:.\Generated_Source\PSoC5/USBFS_std.c **** *  No.
 111:.\Generated_Source\PSoC5/USBFS_std.c **** *
 112:.\Generated_Source\PSoC5/USBFS_std.c **** *******************************************************************************/
 113:.\Generated_Source\PSoC5/USBFS_std.c **** void  USBFS_SerialNumString(uint8 *snString) 
 114:.\Generated_Source\PSoC5/USBFS_std.c **** {
  49              		.loc 1 114 0
ARM GAS  C:\DOCUME~1\ADMINI~1\LOCALS~1\Temp\ccmk5fwz.s 			page 4


  50              		.cfi_startproc
  51              		@ args = 0, pretend = 0, frame = 8
  52              		@ frame_needed = 1, uses_anonymous_args = 0
  53              		@ link register save eliminated.
  54 0000 80B4     		push	{r7}
  55              	.LCFI0:
  56              		.cfi_def_cfa_offset 4
  57 0002 83B0     		sub	sp, sp, #12
  58              	.LCFI1:
  59              		.cfi_def_cfa_offset 16
  60 0004 00AF     		add	r7, sp, #0
  61              		.cfi_offset 7, -4
  62              	.LCFI2:
  63              		.cfi_def_cfa_register 7
  64 0006 7860     		str	r0, [r7, #4]
 115:.\Generated_Source\PSoC5/USBFS_std.c ****     #if defined(USBFS_ENABLE_FWSN_STRING)
 116:.\Generated_Source\PSoC5/USBFS_std.c ****         USBFS_snStringConfirm = USBFS_FALSE;
 117:.\Generated_Source\PSoC5/USBFS_std.c ****         if(snString != NULL)
 118:.\Generated_Source\PSoC5/USBFS_std.c ****         {
 119:.\Generated_Source\PSoC5/USBFS_std.c ****             USBFS_fwSerialNumberStringDescriptor = snString;
 120:.\Generated_Source\PSoC5/USBFS_std.c ****             /* check descriptor validation */
 121:.\Generated_Source\PSoC5/USBFS_std.c ****             if( (USBFS_fwSerialNumberStringDescriptor[0u] > 1u ) &&  \
 122:.\Generated_Source\PSoC5/USBFS_std.c ****                 (USBFS_fwSerialNumberStringDescriptor[1u] == USBFS_DESCR_STRING) )
 123:.\Generated_Source\PSoC5/USBFS_std.c ****             {
 124:.\Generated_Source\PSoC5/USBFS_std.c ****                 USBFS_snStringConfirm = USBFS_TRUE;
 125:.\Generated_Source\PSoC5/USBFS_std.c ****             }
 126:.\Generated_Source\PSoC5/USBFS_std.c ****         }
 127:.\Generated_Source\PSoC5/USBFS_std.c ****     #else
 128:.\Generated_Source\PSoC5/USBFS_std.c ****         snString = snString;
 129:.\Generated_Source\PSoC5/USBFS_std.c ****     #endif  /* USBFS_ENABLE_FWSN_STRING */
 130:.\Generated_Source\PSoC5/USBFS_std.c **** }
  65              		.loc 1 130 0
  66 0008 07F10C07 		add	r7, r7, #12
  67 000c BD46     		mov	sp, r7
  68 000e 80BC     		pop	{r7}
  69 0010 7047     		bx	lr
  70              		.cfi_endproc
  71              	.LFE0:
  72              		.size	USBFS_SerialNumString, .-USBFS_SerialNumString
  73 0012 00BF     		.section	.text.USBFS_HandleStandardRqst,"ax",%progbits
  74              		.align	2
  75              		.global	USBFS_HandleStandardRqst
  76              		.thumb
  77              		.thumb_func
  78              		.type	USBFS_HandleStandardRqst, %function
  79              	USBFS_HandleStandardRqst:
  80              	.LFB1:
 131:.\Generated_Source\PSoC5/USBFS_std.c **** 
 132:.\Generated_Source\PSoC5/USBFS_std.c **** 
 133:.\Generated_Source\PSoC5/USBFS_std.c **** /*******************************************************************************
 134:.\Generated_Source\PSoC5/USBFS_std.c **** * Function Name: USBFS_HandleStandardRqst
 135:.\Generated_Source\PSoC5/USBFS_std.c **** ********************************************************************************
 136:.\Generated_Source\PSoC5/USBFS_std.c **** *
 137:.\Generated_Source\PSoC5/USBFS_std.c **** * Summary:
 138:.\Generated_Source\PSoC5/USBFS_std.c **** *  This Routine dispatches standard requests
 139:.\Generated_Source\PSoC5/USBFS_std.c **** *
 140:.\Generated_Source\PSoC5/USBFS_std.c **** * Parameters:
ARM GAS  C:\DOCUME~1\ADMINI~1\LOCALS~1\Temp\ccmk5fwz.s 			page 5


 141:.\Generated_Source\PSoC5/USBFS_std.c **** *  None.
 142:.\Generated_Source\PSoC5/USBFS_std.c **** *
 143:.\Generated_Source\PSoC5/USBFS_std.c **** * Return:
 144:.\Generated_Source\PSoC5/USBFS_std.c **** *  TRUE if request handled.
 145:.\Generated_Source\PSoC5/USBFS_std.c **** *
 146:.\Generated_Source\PSoC5/USBFS_std.c **** * Reentrant:
 147:.\Generated_Source\PSoC5/USBFS_std.c **** *  No.
 148:.\Generated_Source\PSoC5/USBFS_std.c **** *
 149:.\Generated_Source\PSoC5/USBFS_std.c **** *******************************************************************************/
 150:.\Generated_Source\PSoC5/USBFS_std.c **** uint8 USBFS_HandleStandardRqst(void) 
 151:.\Generated_Source\PSoC5/USBFS_std.c **** {
  81              		.loc 1 151 0
  82              		.cfi_startproc
  83              		@ args = 0, pretend = 0, frame = 16
  84              		@ frame_needed = 1, uses_anonymous_args = 0
  85 0000 80B5     		push	{r7, lr}
  86              	.LCFI3:
  87              		.cfi_def_cfa_offset 8
  88 0002 84B0     		sub	sp, sp, #16
  89              	.LCFI4:
  90              		.cfi_def_cfa_offset 24
  91 0004 00AF     		add	r7, sp, #0
  92              		.cfi_offset 14, -4
  93              		.cfi_offset 7, -8
  94              	.LCFI5:
  95              		.cfi_def_cfa_register 7
 152:.\Generated_Source\PSoC5/USBFS_std.c ****     uint8 requestHandled = USBFS_FALSE;
  96              		.loc 1 152 0
  97 0006 4FF00003 		mov	r3, #0
  98 000a FB70     		strb	r3, [r7, #3]
 153:.\Generated_Source\PSoC5/USBFS_std.c ****     #if defined(USBFS_ENABLE_STRINGS)
 154:.\Generated_Source\PSoC5/USBFS_std.c ****         volatile uint8 *pStr = 0u;
  99              		.loc 1 154 0
 100 000c 4FF00003 		mov	r3, #0
 101 0010 7B60     		str	r3, [r7, #4]
 155:.\Generated_Source\PSoC5/USBFS_std.c ****         #if defined(USBFS_ENABLE_DESCRIPTOR_STRINGS)
 156:.\Generated_Source\PSoC5/USBFS_std.c ****             uint8 nStr;
 157:.\Generated_Source\PSoC5/USBFS_std.c ****         #endif /* USBFS_ENABLE_DESCRIPTOR_STRINGS */
 158:.\Generated_Source\PSoC5/USBFS_std.c ****     #endif /* USBFS_ENABLE_STRINGS */
 159:.\Generated_Source\PSoC5/USBFS_std.c ****     uint16 count;
 160:.\Generated_Source\PSoC5/USBFS_std.c **** 
 161:.\Generated_Source\PSoC5/USBFS_std.c ****     T_USBFS_LUT *pTmp;
 162:.\Generated_Source\PSoC5/USBFS_std.c ****     USBFS_currentTD.count = 0u;
 102              		.loc 1 162 0
 103 0012 40F20003 		movw	r3, #:lower16:USBFS_currentTD
 104 0016 C0F20003 		movt	r3, #:upper16:USBFS_currentTD
 105 001a 4FF00002 		mov	r2, #0
 106 001e 1A80     		strh	r2, [r3, #0]	@ movhi
 163:.\Generated_Source\PSoC5/USBFS_std.c **** 
 164:.\Generated_Source\PSoC5/USBFS_std.c ****     if ((CY_GET_REG8(USBFS_bmRequestType) & USBFS_RQST_DIR_MASK) == USBFS_RQST_DIR_D2H)
 107              		.loc 1 164 0
 108 0020 46F20003 		movw	r3, #:lower16:1073766400
 109 0024 C4F20003 		movt	r3, #:upper16:1073766400
 110 0028 1B78     		ldrb	r3, [r3, #0]
 111 002a DBB2     		uxtb	r3, r3
 112 002c 5BB2     		sxtb	r3, r3
 113 002e 002B     		cmp	r3, #0
ARM GAS  C:\DOCUME~1\ADMINI~1\LOCALS~1\Temp\ccmk5fwz.s 			page 6


 114 0030 80F29A81 		bge	.L4
 165:.\Generated_Source\PSoC5/USBFS_std.c ****     {
 166:.\Generated_Source\PSoC5/USBFS_std.c ****         /* Control Read */
 167:.\Generated_Source\PSoC5/USBFS_std.c ****         switch (CY_GET_REG8(USBFS_bRequest))
 115              		.loc 1 167 0
 116 0034 46F20103 		movw	r3, #:lower16:1073766401
 117 0038 C4F20003 		movt	r3, #:upper16:1073766401
 118 003c 1B78     		ldrb	r3, [r3, #0]
 119 003e DBB2     		uxtb	r3, r3
 120 0040 0A2B     		cmp	r3, #10
 121 0042 00F2E382 		bhi	.L44
 122 0046 01A2     		adr	r2, .L10
 123 0048 52F823F0 		ldr	pc, [r2, r3, lsl #2]
 124              		.align	2
 125              	.L10:
 126 004c 2D020000 		.word	.L6+1
 127 0050 0D060000 		.word	.L44+1
 128 0054 0D060000 		.word	.L44+1
 129 0058 0D060000 		.word	.L44+1
 130 005c 0D060000 		.word	.L44+1
 131 0060 0D060000 		.word	.L44+1
 132 0064 79000000 		.word	.L7+1
 133 0068 0D060000 		.word	.L44+1
 134 006c 03030000 		.word	.L8+1
 135 0070 0D060000 		.word	.L44+1
 136 0074 2F030000 		.word	.L9+1
 137              	.L7:
 168:.\Generated_Source\PSoC5/USBFS_std.c ****         {
 169:.\Generated_Source\PSoC5/USBFS_std.c ****             case USBFS_GET_DESCRIPTOR:
 170:.\Generated_Source\PSoC5/USBFS_std.c ****                 if (CY_GET_REG8(USBFS_wValueHi) == USBFS_DESCR_DEVICE)
 138              		.loc 1 170 0
 139 0078 46F20303 		movw	r3, #:lower16:1073766403
 140 007c C4F20003 		movt	r3, #:upper16:1073766403
 141 0080 1B78     		ldrb	r3, [r3, #0]
 142 0082 DBB2     		uxtb	r3, r3
 143 0084 012B     		cmp	r3, #1
 144 0086 17D1     		bne	.L11
 171:.\Generated_Source\PSoC5/USBFS_std.c ****                 {
 172:.\Generated_Source\PSoC5/USBFS_std.c ****                     pTmp = USBFS_GetDeviceTablePtr();
 145              		.loc 1 172 0
 146 0088 FFF7FEFF 		bl	USBFS_GetDeviceTablePtr
 147 008c 0346     		mov	r3, r0
 148 008e FB60     		str	r3, [r7, #12]
 173:.\Generated_Source\PSoC5/USBFS_std.c ****                     USBFS_currentTD.pData = pTmp->p_list;
 149              		.loc 1 173 0
 150 0090 FB68     		ldr	r3, [r7, #12]
 151 0092 5B68     		ldr	r3, [r3, #4]
 152 0094 1A46     		mov	r2, r3
 153 0096 40F20003 		movw	r3, #:lower16:USBFS_currentTD
 154 009a C0F20003 		movt	r3, #:upper16:USBFS_currentTD
 155 009e 5A60     		str	r2, [r3, #4]
 174:.\Generated_Source\PSoC5/USBFS_std.c ****                     USBFS_currentTD.count = USBFS_DEVICE_DESCR_LENGTH;
 156              		.loc 1 174 0
 157 00a0 40F20003 		movw	r3, #:lower16:USBFS_currentTD
 158 00a4 C0F20003 		movt	r3, #:upper16:USBFS_currentTD
 159 00a8 4FF01202 		mov	r2, #18
 160 00ac 1A80     		strh	r2, [r3, #0]	@ movhi
ARM GAS  C:\DOCUME~1\ADMINI~1\LOCALS~1\Temp\ccmk5fwz.s 			page 7


 175:.\Generated_Source\PSoC5/USBFS_std.c ****                     requestHandled  = USBFS_InitControlRead();
 161              		.loc 1 175 0
 162 00ae FFF7FEFF 		bl	USBFS_InitControlRead
 163 00b2 0346     		mov	r3, r0
 164 00b4 FB70     		strb	r3, [r7, #3]
 176:.\Generated_Source\PSoC5/USBFS_std.c ****                 }
 177:.\Generated_Source\PSoC5/USBFS_std.c ****                 else if (CY_GET_REG8(USBFS_wValueHi) == USBFS_DESCR_CONFIG)
 178:.\Generated_Source\PSoC5/USBFS_std.c ****                 {
 179:.\Generated_Source\PSoC5/USBFS_std.c ****                     pTmp = USBFS_GetConfigTablePtr(CY_GET_REG8(USBFS_wValueLo));
 180:.\Generated_Source\PSoC5/USBFS_std.c ****                     USBFS_currentTD.pData = pTmp->p_list;
 181:.\Generated_Source\PSoC5/USBFS_std.c ****                     count = ((uint16)(USBFS_currentTD.pData)[ \
 182:.\Generated_Source\PSoC5/USBFS_std.c ****                                       USBFS_CONFIG_DESCR_TOTAL_LENGTH_HI] << 8u) | \
 183:.\Generated_Source\PSoC5/USBFS_std.c ****                                      (USBFS_currentTD.pData)[USBFS_CONFIG_DESCR_TOTAL_LENGTH_LOW];
 184:.\Generated_Source\PSoC5/USBFS_std.c ****                     USBFS_currentTD.count = count;
 185:.\Generated_Source\PSoC5/USBFS_std.c ****                     requestHandled  = USBFS_InitControlRead();
 186:.\Generated_Source\PSoC5/USBFS_std.c ****                 }
 187:.\Generated_Source\PSoC5/USBFS_std.c ****                 #if defined(USBFS_ENABLE_STRINGS)
 188:.\Generated_Source\PSoC5/USBFS_std.c ****                 else if (CY_GET_REG8(USBFS_wValueHi) == USBFS_DESCR_STRING)
 189:.\Generated_Source\PSoC5/USBFS_std.c ****                 {
 190:.\Generated_Source\PSoC5/USBFS_std.c ****                     /* Descriptor Strings*/
 191:.\Generated_Source\PSoC5/USBFS_std.c ****                     #if defined(USBFS_ENABLE_DESCRIPTOR_STRINGS)
 192:.\Generated_Source\PSoC5/USBFS_std.c ****                         nStr = 0u;
 193:.\Generated_Source\PSoC5/USBFS_std.c ****                         pStr = (volatile uint8 *)&USBFS_STRING_DESCRIPTORS[0u];
 194:.\Generated_Source\PSoC5/USBFS_std.c ****                         while ( (CY_GET_REG8(USBFS_wValueLo) > nStr) && (*pStr != 0u ))
 195:.\Generated_Source\PSoC5/USBFS_std.c ****                         {
 196:.\Generated_Source\PSoC5/USBFS_std.c ****                             pStr += *pStr;
 197:.\Generated_Source\PSoC5/USBFS_std.c ****                             nStr++;
 198:.\Generated_Source\PSoC5/USBFS_std.c ****                         };
 199:.\Generated_Source\PSoC5/USBFS_std.c ****                     #endif /* End USBFS_ENABLE_DESCRIPTOR_STRINGS */
 200:.\Generated_Source\PSoC5/USBFS_std.c ****                     /* Microsoft OS String*/
 201:.\Generated_Source\PSoC5/USBFS_std.c ****                     #if defined(USBFS_ENABLE_MSOS_STRING)
 202:.\Generated_Source\PSoC5/USBFS_std.c ****                         if( CY_GET_REG8(USBFS_wValueLo) == USBFS_STRING_MSOS )
 203:.\Generated_Source\PSoC5/USBFS_std.c ****                         {
 204:.\Generated_Source\PSoC5/USBFS_std.c ****                             pStr = (volatile uint8 *)&USBFS_MSOS_DESCRIPTOR[0u];
 205:.\Generated_Source\PSoC5/USBFS_std.c ****                         }
 206:.\Generated_Source\PSoC5/USBFS_std.c ****                     #endif /* End USBFS_ENABLE_MSOS_STRING*/
 207:.\Generated_Source\PSoC5/USBFS_std.c ****                     /* SN string*/
 208:.\Generated_Source\PSoC5/USBFS_std.c ****                     #if defined(USBFS_ENABLE_SN_STRING)
 209:.\Generated_Source\PSoC5/USBFS_std.c ****                         if( (CY_GET_REG8(USBFS_wValueLo) != 0) && 
 210:.\Generated_Source\PSoC5/USBFS_std.c ****                             (CY_GET_REG8(USBFS_wValueLo) == 
 211:.\Generated_Source\PSoC5/USBFS_std.c ****                             USBFS_DEVICE0_DESCR[USBFS_DEVICE_DESCR_SN_SHIFT]) )
 212:.\Generated_Source\PSoC5/USBFS_std.c ****                         {
 213:.\Generated_Source\PSoC5/USBFS_std.c ****                             pStr = (volatile uint8 *)&USBFS_SN_STRING_DESCRIPTOR[0u];
 214:.\Generated_Source\PSoC5/USBFS_std.c ****                             if(USBFS_snStringConfirm != USBFS_FALSE)
 215:.\Generated_Source\PSoC5/USBFS_std.c ****                             {
 216:.\Generated_Source\PSoC5/USBFS_std.c ****                                 pStr = USBFS_fwSerialNumberStringDescriptor;
 217:.\Generated_Source\PSoC5/USBFS_std.c ****                             }
 218:.\Generated_Source\PSoC5/USBFS_std.c ****                             #if defined(USBFS_ENABLE_IDSN_STRING)
 219:.\Generated_Source\PSoC5/USBFS_std.c ****                                 /* Read DIE ID and genarete string descriptor in RAM*/
 220:.\Generated_Source\PSoC5/USBFS_std.c ****                                 USBFS_ReadDieID(USBFS_idSerialNumberStringDescriptor);
 221:.\Generated_Source\PSoC5/USBFS_std.c ****                                 pStr = USBFS_idSerialNumberStringDescriptor;
 222:.\Generated_Source\PSoC5/USBFS_std.c ****                             #endif    /* End USBFS_ENABLE_IDSN_STRING */
 223:.\Generated_Source\PSoC5/USBFS_std.c ****                         }
 224:.\Generated_Source\PSoC5/USBFS_std.c ****                     #endif    /* End USBFS_ENABLE_SN_STRING */
 225:.\Generated_Source\PSoC5/USBFS_std.c ****                     if (*pStr != 0u)
 226:.\Generated_Source\PSoC5/USBFS_std.c ****                     {
 227:.\Generated_Source\PSoC5/USBFS_std.c ****                         USBFS_currentTD.count = *pStr;
ARM GAS  C:\DOCUME~1\ADMINI~1\LOCALS~1\Temp\ccmk5fwz.s 			page 8


 228:.\Generated_Source\PSoC5/USBFS_std.c ****                         USBFS_currentTD.pData = pStr;
 229:.\Generated_Source\PSoC5/USBFS_std.c ****                         requestHandled  = USBFS_InitControlRead();
 230:.\Generated_Source\PSoC5/USBFS_std.c ****                     }
 231:.\Generated_Source\PSoC5/USBFS_std.c ****                 }
 232:.\Generated_Source\PSoC5/USBFS_std.c ****                 #endif /* End USBFS_ENABLE_STRINGS */
 233:.\Generated_Source\PSoC5/USBFS_std.c ****                 else
 234:.\Generated_Source\PSoC5/USBFS_std.c ****                 {
 235:.\Generated_Source\PSoC5/USBFS_std.c ****                     requestHandled = USBFS_DispatchClassRqst();
 236:.\Generated_Source\PSoC5/USBFS_std.c ****                 }
 237:.\Generated_Source\PSoC5/USBFS_std.c ****                 break;
 165              		.loc 1 237 0
 166 00b6 B8E2     		b	.L24
 167              	.L11:
 168              		.loc 1 177 0
 169 00b8 46F20303 		movw	r3, #:lower16:1073766403
 170 00bc C4F20003 		movt	r3, #:upper16:1073766403
 171 00c0 1B78     		ldrb	r3, [r3, #0]
 172 00c2 DBB2     		uxtb	r3, r3
 173 00c4 022B     		cmp	r3, #2
 174 00c6 36D1     		bne	.L13
 175              		.loc 1 179 0
 176 00c8 46F20203 		movw	r3, #:lower16:1073766402
 177 00cc C4F20003 		movt	r3, #:upper16:1073766402
 178 00d0 1B78     		ldrb	r3, [r3, #0]
 179 00d2 DBB2     		uxtb	r3, r3
 180 00d4 1846     		mov	r0, r3
 181 00d6 FFF7FEFF 		bl	USBFS_GetConfigTablePtr
 182 00da 0346     		mov	r3, r0
 183 00dc FB60     		str	r3, [r7, #12]
 184              		.loc 1 180 0
 185 00de FB68     		ldr	r3, [r7, #12]
 186 00e0 5B68     		ldr	r3, [r3, #4]
 187 00e2 1A46     		mov	r2, r3
 188 00e4 40F20003 		movw	r3, #:lower16:USBFS_currentTD
 189 00e8 C0F20003 		movt	r3, #:upper16:USBFS_currentTD
 190 00ec 5A60     		str	r2, [r3, #4]
 191              		.loc 1 181 0
 192 00ee 40F20003 		movw	r3, #:lower16:USBFS_currentTD
 193 00f2 C0F20003 		movt	r3, #:upper16:USBFS_currentTD
 194 00f6 5B68     		ldr	r3, [r3, #4]
 195 00f8 03F10303 		add	r3, r3, #3
 196 00fc 1B78     		ldrb	r3, [r3, #0]
 197 00fe DBB2     		uxtb	r3, r3
 198 0100 4FEA0323 		lsl	r3, r3, #8
 199 0104 9AB2     		uxth	r2, r3
 200              		.loc 1 183 0
 201 0106 40F20003 		movw	r3, #:lower16:USBFS_currentTD
 202 010a C0F20003 		movt	r3, #:upper16:USBFS_currentTD
 203 010e 5B68     		ldr	r3, [r3, #4]
 204 0110 03F10203 		add	r3, r3, #2
 205 0114 1B78     		ldrb	r3, [r3, #0]
 206 0116 DBB2     		uxtb	r3, r3
 207              		.loc 1 181 0
 208 0118 42EA0303 		orr	r3, r2, r3
 209 011c 9BB2     		uxth	r3, r3
 210 011e 7B81     		strh	r3, [r7, #10]	@ movhi
 211              		.loc 1 184 0
ARM GAS  C:\DOCUME~1\ADMINI~1\LOCALS~1\Temp\ccmk5fwz.s 			page 9


 212 0120 40F20003 		movw	r3, #:lower16:USBFS_currentTD
 213 0124 C0F20003 		movt	r3, #:upper16:USBFS_currentTD
 214 0128 7A89     		ldrh	r2, [r7, #10]	@ movhi
 215 012a 1A80     		strh	r2, [r3, #0]	@ movhi
 216              		.loc 1 185 0
 217 012c FFF7FEFF 		bl	USBFS_InitControlRead
 218 0130 0346     		mov	r3, r0
 219 0132 FB70     		strb	r3, [r7, #3]
 220              		.loc 1 237 0
 221 0134 79E2     		b	.L24
 222              	.L13:
 223              		.loc 1 188 0
 224 0136 46F20303 		movw	r3, #:lower16:1073766403
 225 013a C4F20003 		movt	r3, #:upper16:1073766403
 226 013e 1B78     		ldrb	r3, [r3, #0]
 227 0140 DBB2     		uxtb	r3, r3
 228 0142 032B     		cmp	r3, #3
 229 0144 6DD1     		bne	.L14
 230              		.loc 1 192 0
 231 0146 4FF00003 		mov	r3, #0
 232 014a 7B72     		strb	r3, [r7, #9]
 233              		.loc 1 193 0
 234 014c 40F20003 		movw	r3, #:lower16:USBFS_STRING_DESCRIPTORS
 235 0150 C0F20003 		movt	r3, #:upper16:USBFS_STRING_DESCRIPTORS
 236 0154 7B60     		str	r3, [r7, #4]
 237              		.loc 1 194 0
 238 0156 09E0     		b	.L15
 239              	.L17:
 240              		.loc 1 196 0
 241 0158 7B68     		ldr	r3, [r7, #4]
 242 015a 1B78     		ldrb	r3, [r3, #0]
 243 015c DBB2     		uxtb	r3, r3
 244 015e 7A68     		ldr	r2, [r7, #4]
 245 0160 1344     		add	r3, r2, r3
 246 0162 7B60     		str	r3, [r7, #4]
 247              		.loc 1 197 0
 248 0164 7B7A     		ldrb	r3, [r7, #9]
 249 0166 03F10103 		add	r3, r3, #1
 250 016a 7B72     		strb	r3, [r7, #9]
 251              	.L15:
 252              		.loc 1 194 0
 253 016c 46F20203 		movw	r3, #:lower16:1073766402
 254 0170 C4F20003 		movt	r3, #:upper16:1073766402
 255 0174 1B78     		ldrb	r3, [r3, #0]
 256 0176 DBB2     		uxtb	r3, r3
 257 0178 7A7A     		ldrb	r2, [r7, #9]	@ zero_extendqisi2
 258 017a 9A42     		cmp	r2, r3
 259 017c 04D2     		bcs	.L16
 260 017e 7B68     		ldr	r3, [r7, #4]
 261 0180 1B78     		ldrb	r3, [r3, #0]
 262 0182 DBB2     		uxtb	r3, r3
 263 0184 002B     		cmp	r3, #0
 264 0186 E7D1     		bne	.L17
 265              	.L16:
 266              		.loc 1 209 0
 267 0188 46F20203 		movw	r3, #:lower16:1073766402
 268 018c C4F20003 		movt	r3, #:upper16:1073766402
ARM GAS  C:\DOCUME~1\ADMINI~1\LOCALS~1\Temp\ccmk5fwz.s 			page 10


 269 0190 1B78     		ldrb	r3, [r3, #0]
 270 0192 DBB2     		uxtb	r3, r3
 271 0194 002B     		cmp	r3, #0
 272 0196 2AD0     		beq	.L18
 273              		.loc 1 210 0
 274 0198 46F20203 		movw	r3, #:lower16:1073766402
 275 019c C4F20003 		movt	r3, #:upper16:1073766402
 276 01a0 1B78     		ldrb	r3, [r3, #0]
 277 01a2 DAB2     		uxtb	r2, r3
 278              		.loc 1 211 0
 279 01a4 40F20003 		movw	r3, #:lower16:USBFS_DEVICE0_DESCR
 280 01a8 C0F20003 		movt	r3, #:upper16:USBFS_DEVICE0_DESCR
 281 01ac 1B7C     		ldrb	r3, [r3, #16]	@ zero_extendqisi2
 282              		.loc 1 209 0
 283 01ae 9A42     		cmp	r2, r3
 284 01b0 1DD1     		bne	.L18
 285              		.loc 1 213 0
 286 01b2 40F20003 		movw	r3, #:lower16:USBFS_SN_STRING_DESCRIPTOR
 287 01b6 C0F20003 		movt	r3, #:upper16:USBFS_SN_STRING_DESCRIPTOR
 288 01ba 7B60     		str	r3, [r7, #4]
 289              		.loc 1 214 0
 290 01bc 40F20003 		movw	r3, #:lower16:USBFS_snStringConfirm
 291 01c0 C0F20003 		movt	r3, #:upper16:USBFS_snStringConfirm
 292 01c4 1B78     		ldrb	r3, [r3, #0]
 293 01c6 DBB2     		uxtb	r3, r3
 294 01c8 002B     		cmp	r3, #0
 295 01ca 05D0     		beq	.L19
 296              		.loc 1 216 0
 297 01cc 40F20003 		movw	r3, #:lower16:USBFS_fwSerialNumberStringDescriptor
 298 01d0 C0F20003 		movt	r3, #:upper16:USBFS_fwSerialNumberStringDescriptor
 299 01d4 1B68     		ldr	r3, [r3, #0]
 300 01d6 7B60     		str	r3, [r7, #4]
 301              	.L19:
 302              		.loc 1 220 0
 303 01d8 40F20000 		movw	r0, #:lower16:USBFS_idSerialNumberStringDescriptor
 304 01dc C0F20000 		movt	r0, #:upper16:USBFS_idSerialNumberStringDescriptor
 305 01e0 FFF7FEFF 		bl	USBFS_ReadDieID
 306              		.loc 1 221 0
 307 01e4 40F20003 		movw	r3, #:lower16:USBFS_idSerialNumberStringDescriptor
 308 01e8 C0F20003 		movt	r3, #:upper16:USBFS_idSerialNumberStringDescriptor
 309 01ec 7B60     		str	r3, [r7, #4]
 310              	.L18:
 311              		.loc 1 225 0
 312 01ee 7B68     		ldr	r3, [r7, #4]
 313 01f0 1B78     		ldrb	r3, [r3, #0]
 314 01f2 DBB2     		uxtb	r3, r3
 315 01f4 002B     		cmp	r3, #0
 316 01f6 00F00B82 		beq	.L45
 317              		.loc 1 227 0
 318 01fa 7B68     		ldr	r3, [r7, #4]
 319 01fc 1B78     		ldrb	r3, [r3, #0]
 320 01fe DBB2     		uxtb	r3, r3
 321 0200 1A46     		mov	r2, r3
 322 0202 40F20003 		movw	r3, #:lower16:USBFS_currentTD
 323 0206 C0F20003 		movt	r3, #:upper16:USBFS_currentTD
 324 020a 1A80     		strh	r2, [r3, #0]	@ movhi
 325              		.loc 1 228 0
ARM GAS  C:\DOCUME~1\ADMINI~1\LOCALS~1\Temp\ccmk5fwz.s 			page 11


 326 020c 40F20003 		movw	r3, #:lower16:USBFS_currentTD
 327 0210 C0F20003 		movt	r3, #:upper16:USBFS_currentTD
 328 0214 7A68     		ldr	r2, [r7, #4]
 329 0216 5A60     		str	r2, [r3, #4]
 330              		.loc 1 229 0
 331 0218 FFF7FEFF 		bl	USBFS_InitControlRead
 332 021c 0346     		mov	r3, r0
 333 021e FB70     		strb	r3, [r7, #3]
 334              		.loc 1 237 0
 335 0220 03E2     		b	.L24
 336              	.L14:
 337              		.loc 1 235 0
 338 0222 FFF7FEFF 		bl	USBFS_DispatchClassRqst
 339 0226 0346     		mov	r3, r0
 340 0228 FB70     		strb	r3, [r7, #3]
 341              		.loc 1 237 0
 342 022a FEE1     		b	.L24
 343              	.L6:
 238:.\Generated_Source\PSoC5/USBFS_std.c ****             case USBFS_GET_STATUS:
 239:.\Generated_Source\PSoC5/USBFS_std.c ****                 switch ((CY_GET_REG8(USBFS_bmRequestType) & USBFS_RQST_RCPT_MASK))
 344              		.loc 1 239 0
 345 022c 46F20003 		movw	r3, #:lower16:1073766400
 346 0230 C4F20003 		movt	r3, #:upper16:1073766400
 347 0234 1B78     		ldrb	r3, [r3, #0]
 348 0236 DBB2     		uxtb	r3, r3
 349 0238 03F00303 		and	r3, r3, #3
 350 023c 002B     		cmp	r3, #0
 351 023e 39D0     		beq	.L22
 352 0240 022B     		cmp	r3, #2
 353 0242 40F0E781 		bne	.L46
 354              	.L23:
 240:.\Generated_Source\PSoC5/USBFS_std.c ****                 {
 241:.\Generated_Source\PSoC5/USBFS_std.c ****                     case USBFS_RQST_RCPT_EP:
 242:.\Generated_Source\PSoC5/USBFS_std.c ****                         USBFS_currentTD.count = USBFS_EP_STATUS_LENGTH;
 355              		.loc 1 242 0
 356 0246 40F20003 		movw	r3, #:lower16:USBFS_currentTD
 357 024a C0F20003 		movt	r3, #:upper16:USBFS_currentTD
 358 024e 4FF00202 		mov	r2, #2
 359 0252 1A80     		strh	r2, [r3, #0]	@ movhi
 243:.\Generated_Source\PSoC5/USBFS_std.c ****                         USBFS_tBuffer[0] = USBFS_EP[ \
 244:.\Generated_Source\PSoC5/USBFS_std.c ****                                         CY_GET_REG8(USBFS_wIndexLo) & USBFS_DIR_UNUSED].hwEpState;
 360              		.loc 1 244 0
 361 0254 46F20403 		movw	r3, #:lower16:1073766404
 362 0258 C4F20003 		movt	r3, #:upper16:1073766404
 363 025c 1B78     		ldrb	r3, [r3, #0]
 364 025e DBB2     		uxtb	r3, r3
 365 0260 03F07F01 		and	r1, r3, #127
 366              		.loc 1 243 0
 367 0264 40F20002 		movw	r2, #:lower16:USBFS_EP
 368 0268 C0F20002 		movt	r2, #:upper16:USBFS_EP
 369 026c 0B46     		mov	r3, r1
 370 026e 4FEA4303 		lsl	r3, r3, #1
 371 0272 0B44     		add	r3, r3, r1
 372 0274 4FEA8303 		lsl	r3, r3, #2
 373 0278 1344     		add	r3, r3, r2
 374 027a 9B78     		ldrb	r3, [r3, #2]
 375 027c DAB2     		uxtb	r2, r3
ARM GAS  C:\DOCUME~1\ADMINI~1\LOCALS~1\Temp\ccmk5fwz.s 			page 12


 376 027e 40F20003 		movw	r3, #:lower16:USBFS_tBuffer
 377 0282 C0F20003 		movt	r3, #:upper16:USBFS_tBuffer
 378 0286 1A70     		strb	r2, [r3, #0]
 245:.\Generated_Source\PSoC5/USBFS_std.c ****                         USBFS_tBuffer[1] = 0u;
 379              		.loc 1 245 0
 380 0288 40F20003 		movw	r3, #:lower16:USBFS_tBuffer
 381 028c C0F20003 		movt	r3, #:upper16:USBFS_tBuffer
 382 0290 4FF00002 		mov	r2, #0
 383 0294 5A70     		strb	r2, [r3, #1]
 246:.\Generated_Source\PSoC5/USBFS_std.c ****                         USBFS_currentTD.pData = &USBFS_tBuffer[0u];
 384              		.loc 1 246 0
 385 0296 40F20003 		movw	r3, #:lower16:USBFS_currentTD
 386 029a C0F20003 		movt	r3, #:upper16:USBFS_currentTD
 387 029e 40F20002 		movw	r2, #:lower16:USBFS_tBuffer
 388 02a2 C0F20002 		movt	r2, #:upper16:USBFS_tBuffer
 389 02a6 5A60     		str	r2, [r3, #4]
 247:.\Generated_Source\PSoC5/USBFS_std.c ****                         requestHandled  = USBFS_InitControlRead();
 390              		.loc 1 247 0
 391 02a8 FFF7FEFF 		bl	USBFS_InitControlRead
 392 02ac 0346     		mov	r3, r0
 393 02ae FB70     		strb	r3, [r7, #3]
 248:.\Generated_Source\PSoC5/USBFS_std.c ****                         break;
 394              		.loc 1 248 0
 395 02b0 00BF     		nop
 249:.\Generated_Source\PSoC5/USBFS_std.c ****                     case USBFS_RQST_RCPT_DEV:
 250:.\Generated_Source\PSoC5/USBFS_std.c ****                         USBFS_currentTD.count = USBFS_DEVICE_STATUS_LENGTH;
 251:.\Generated_Source\PSoC5/USBFS_std.c ****                         USBFS_tBuffer[0u] = USBFS_deviceStatus;
 252:.\Generated_Source\PSoC5/USBFS_std.c ****                         USBFS_tBuffer[1u] = 0u;
 253:.\Generated_Source\PSoC5/USBFS_std.c ****                         USBFS_currentTD.pData = &USBFS_tBuffer[0u];
 254:.\Generated_Source\PSoC5/USBFS_std.c ****                         requestHandled  = USBFS_InitControlRead();
 255:.\Generated_Source\PSoC5/USBFS_std.c ****                         break;
 256:.\Generated_Source\PSoC5/USBFS_std.c ****                     default:    /* requestHandled is initialezed as FALSE by default */
 257:.\Generated_Source\PSoC5/USBFS_std.c ****                         break;
 258:.\Generated_Source\PSoC5/USBFS_std.c ****                 }
 259:.\Generated_Source\PSoC5/USBFS_std.c ****                 break;
 396              		.loc 1 259 0
 397 02b2 BAE1     		b	.L24
 398              	.L22:
 399              		.loc 1 250 0
 400 02b4 40F20003 		movw	r3, #:lower16:USBFS_currentTD
 401 02b8 C0F20003 		movt	r3, #:upper16:USBFS_currentTD
 402 02bc 4FF00202 		mov	r2, #2
 403 02c0 1A80     		strh	r2, [r3, #0]	@ movhi
 404              		.loc 1 251 0
 405 02c2 40F20003 		movw	r3, #:lower16:USBFS_deviceStatus
 406 02c6 C0F20003 		movt	r3, #:upper16:USBFS_deviceStatus
 407 02ca 1B78     		ldrb	r3, [r3, #0]
 408 02cc DAB2     		uxtb	r2, r3
 409 02ce 40F20003 		movw	r3, #:lower16:USBFS_tBuffer
 410 02d2 C0F20003 		movt	r3, #:upper16:USBFS_tBuffer
 411 02d6 1A70     		strb	r2, [r3, #0]
 412              		.loc 1 252 0
 413 02d8 40F20003 		movw	r3, #:lower16:USBFS_tBuffer
 414 02dc C0F20003 		movt	r3, #:upper16:USBFS_tBuffer
 415 02e0 4FF00002 		mov	r2, #0
 416 02e4 5A70     		strb	r2, [r3, #1]
 417              		.loc 1 253 0
ARM GAS  C:\DOCUME~1\ADMINI~1\LOCALS~1\Temp\ccmk5fwz.s 			page 13


 418 02e6 40F20003 		movw	r3, #:lower16:USBFS_currentTD
 419 02ea C0F20003 		movt	r3, #:upper16:USBFS_currentTD
 420 02ee 40F20002 		movw	r2, #:lower16:USBFS_tBuffer
 421 02f2 C0F20002 		movt	r2, #:upper16:USBFS_tBuffer
 422 02f6 5A60     		str	r2, [r3, #4]
 423              		.loc 1 254 0
 424 02f8 FFF7FEFF 		bl	USBFS_InitControlRead
 425 02fc 0346     		mov	r3, r0
 426 02fe FB70     		strb	r3, [r7, #3]
 427              		.loc 1 259 0
 428 0300 93E1     		b	.L24
 429              	.L8:
 260:.\Generated_Source\PSoC5/USBFS_std.c ****             case USBFS_GET_CONFIGURATION:
 261:.\Generated_Source\PSoC5/USBFS_std.c ****                 USBFS_currentTD.count = 1u;
 430              		.loc 1 261 0
 431 0302 40F20003 		movw	r3, #:lower16:USBFS_currentTD
 432 0306 C0F20003 		movt	r3, #:upper16:USBFS_currentTD
 433 030a 4FF00102 		mov	r2, #1
 434 030e 1A80     		strh	r2, [r3, #0]	@ movhi
 262:.\Generated_Source\PSoC5/USBFS_std.c ****                 USBFS_currentTD.pData = (uint8 *)&USBFS_configuration;
 435              		.loc 1 262 0
 436 0310 40F20003 		movw	r3, #:lower16:USBFS_currentTD
 437 0314 C0F20003 		movt	r3, #:upper16:USBFS_currentTD
 438 0318 40F20002 		movw	r2, #:lower16:USBFS_configuration
 439 031c C0F20002 		movt	r2, #:upper16:USBFS_configuration
 440 0320 5A60     		str	r2, [r3, #4]
 263:.\Generated_Source\PSoC5/USBFS_std.c ****                 requestHandled  = USBFS_InitControlRead();
 441              		.loc 1 263 0
 442 0322 FFF7FEFF 		bl	USBFS_InitControlRead
 443 0326 0346     		mov	r3, r0
 444 0328 FB70     		strb	r3, [r7, #3]
 264:.\Generated_Source\PSoC5/USBFS_std.c ****                 break;
 445              		.loc 1 264 0
 446 032a 00BF     		nop
 447 032c 7DE1     		b	.L24
 448              	.L9:
 265:.\Generated_Source\PSoC5/USBFS_std.c ****             case USBFS_GET_INTERFACE:
 266:.\Generated_Source\PSoC5/USBFS_std.c ****                 USBFS_currentTD.count = 1u;
 449              		.loc 1 266 0
 450 032e 40F20003 		movw	r3, #:lower16:USBFS_currentTD
 451 0332 C0F20003 		movt	r3, #:upper16:USBFS_currentTD
 452 0336 4FF00102 		mov	r2, #1
 453 033a 1A80     		strh	r2, [r3, #0]	@ movhi
 267:.\Generated_Source\PSoC5/USBFS_std.c ****                 USBFS_currentTD.pData = (uint8 *)&USBFS_interfaceSetting[ \
 268:.\Generated_Source\PSoC5/USBFS_std.c ****                                                                             CY_GET_REG8(USBFS_wInde
 454              		.loc 1 268 0
 455 033c 46F20403 		movw	r3, #:lower16:1073766404
 456 0340 C4F20003 		movt	r3, #:upper16:1073766404
 457 0344 1B78     		ldrb	r3, [r3, #0]
 458 0346 DBB2     		uxtb	r3, r3
 459              		.loc 1 267 0
 460 0348 1A46     		mov	r2, r3
 461 034a 40F20003 		movw	r3, #:lower16:USBFS_interfaceSetting
 462 034e C0F20003 		movt	r3, #:upper16:USBFS_interfaceSetting
 463 0352 1A44     		add	r2, r2, r3
 464 0354 40F20003 		movw	r3, #:lower16:USBFS_currentTD
 465 0358 C0F20003 		movt	r3, #:upper16:USBFS_currentTD
ARM GAS  C:\DOCUME~1\ADMINI~1\LOCALS~1\Temp\ccmk5fwz.s 			page 14


 466 035c 5A60     		str	r2, [r3, #4]
 269:.\Generated_Source\PSoC5/USBFS_std.c ****                 requestHandled  = USBFS_InitControlRead();
 467              		.loc 1 269 0
 468 035e FFF7FEFF 		bl	USBFS_InitControlRead
 469 0362 0346     		mov	r3, r0
 470 0364 FB70     		strb	r3, [r7, #3]
 471 0366 60E1     		b	.L24
 472              	.L4:
 270:.\Generated_Source\PSoC5/USBFS_std.c ****                 break;
 271:.\Generated_Source\PSoC5/USBFS_std.c ****             default: /* requestHandled is initialezed as FALSE by default */
 272:.\Generated_Source\PSoC5/USBFS_std.c ****                 break;
 273:.\Generated_Source\PSoC5/USBFS_std.c ****         }
 274:.\Generated_Source\PSoC5/USBFS_std.c ****     }
 275:.\Generated_Source\PSoC5/USBFS_std.c ****     else {
 276:.\Generated_Source\PSoC5/USBFS_std.c ****         /* Control Write */
 277:.\Generated_Source\PSoC5/USBFS_std.c ****         switch (CY_GET_REG8(USBFS_bRequest))
 473              		.loc 1 277 0
 474 0368 46F20103 		movw	r3, #:lower16:1073766401
 475 036c C4F20003 		movt	r3, #:upper16:1073766401
 476 0370 1B78     		ldrb	r3, [r3, #0]
 477 0372 DBB2     		uxtb	r3, r3
 478 0374 03F1FF33 		add	r3, r3, #-1
 479 0378 0A2B     		cmp	r3, #10
 480 037a 00F25681 		bhi	.L24
 481 037e 01A2     		adr	r2, .L30
 482 0380 52F823F0 		ldr	pc, [r2, r3, lsl #2]
 483              		.align	2
 484              	.L30:
 485 0384 77040000 		.word	.L25+1
 486 0388 2B060000 		.word	.L24+1
 487 038c 45050000 		.word	.L26+1
 488 0390 2B060000 		.word	.L24+1
 489 0394 B1030000 		.word	.L27+1
 490 0398 2B060000 		.word	.L24+1
 491 039c 2B060000 		.word	.L24+1
 492 03a0 2B060000 		.word	.L24+1
 493 03a4 D1030000 		.word	.L28+1
 494 03a8 2B060000 		.word	.L24+1
 495 03ac 07040000 		.word	.L29+1
 496              	.L27:
 278:.\Generated_Source\PSoC5/USBFS_std.c ****         {
 279:.\Generated_Source\PSoC5/USBFS_std.c ****             case USBFS_SET_ADDRESS:
 280:.\Generated_Source\PSoC5/USBFS_std.c ****                 USBFS_deviceAddress = CY_GET_REG8(USBFS_wValueLo);
 497              		.loc 1 280 0
 498 03b0 46F20203 		movw	r3, #:lower16:1073766402
 499 03b4 C4F20003 		movt	r3, #:upper16:1073766402
 500 03b8 1B78     		ldrb	r3, [r3, #0]
 501 03ba DAB2     		uxtb	r2, r3
 502 03bc 40F20003 		movw	r3, #:lower16:USBFS_deviceAddress
 503 03c0 C0F20003 		movt	r3, #:upper16:USBFS_deviceAddress
 504 03c4 1A70     		strb	r2, [r3, #0]
 281:.\Generated_Source\PSoC5/USBFS_std.c ****                 requestHandled = USBFS_InitNoDataControlTransfer();
 505              		.loc 1 281 0
 506 03c6 FFF7FEFF 		bl	USBFS_InitNoDataControlTransfer
 507 03ca 0346     		mov	r3, r0
 508 03cc FB70     		strb	r3, [r7, #3]
 282:.\Generated_Source\PSoC5/USBFS_std.c ****                 break;
ARM GAS  C:\DOCUME~1\ADMINI~1\LOCALS~1\Temp\ccmk5fwz.s 			page 15


 509              		.loc 1 282 0
 510 03ce 2CE1     		b	.L24
 511              	.L28:
 283:.\Generated_Source\PSoC5/USBFS_std.c ****             case USBFS_SET_CONFIGURATION:
 284:.\Generated_Source\PSoC5/USBFS_std.c ****                 USBFS_configuration = CY_GET_REG8(USBFS_wValueLo);
 512              		.loc 1 284 0
 513 03d0 46F20203 		movw	r3, #:lower16:1073766402
 514 03d4 C4F20003 		movt	r3, #:upper16:1073766402
 515 03d8 1B78     		ldrb	r3, [r3, #0]
 516 03da DAB2     		uxtb	r2, r3
 517 03dc 40F20003 		movw	r3, #:lower16:USBFS_configuration
 518 03e0 C0F20003 		movt	r3, #:upper16:USBFS_configuration
 519 03e4 1A70     		strb	r2, [r3, #0]
 285:.\Generated_Source\PSoC5/USBFS_std.c ****                 USBFS_configurationChanged = USBFS_TRUE;
 520              		.loc 1 285 0
 521 03e6 40F20003 		movw	r3, #:lower16:USBFS_configurationChanged
 522 03ea C0F20003 		movt	r3, #:upper16:USBFS_configurationChanged
 523 03ee 4FF00102 		mov	r2, #1
 524 03f2 1A70     		strb	r2, [r3, #0]
 286:.\Generated_Source\PSoC5/USBFS_std.c ****                 USBFS_Config(USBFS_TRUE);
 525              		.loc 1 286 0
 526 03f4 4FF00100 		mov	r0, #1
 527 03f8 FFF7FEFF 		bl	USBFS_Config
 287:.\Generated_Source\PSoC5/USBFS_std.c ****                 requestHandled = USBFS_InitNoDataControlTransfer();
 528              		.loc 1 287 0
 529 03fc FFF7FEFF 		bl	USBFS_InitNoDataControlTransfer
 530 0400 0346     		mov	r3, r0
 531 0402 FB70     		strb	r3, [r7, #3]
 288:.\Generated_Source\PSoC5/USBFS_std.c ****                 break;
 532              		.loc 1 288 0
 533 0404 11E1     		b	.L24
 534              	.L29:
 289:.\Generated_Source\PSoC5/USBFS_std.c ****             case USBFS_SET_INTERFACE:
 290:.\Generated_Source\PSoC5/USBFS_std.c ****                 if (USBFS_ValidateAlternateSetting())
 535              		.loc 1 290 0
 536 0406 FFF7FEFF 		bl	USBFS_ValidateAlternateSetting
 537 040a 0346     		mov	r3, r0
 538 040c 002B     		cmp	r3, #0
 539 040e 00F00381 		beq	.L47
 291:.\Generated_Source\PSoC5/USBFS_std.c ****                 {
 292:.\Generated_Source\PSoC5/USBFS_std.c ****                     USBFS_interfaceNumber = CY_GET_REG8(USBFS_wIndexLo);
 540              		.loc 1 292 0
 541 0412 46F20403 		movw	r3, #:lower16:1073766404
 542 0416 C4F20003 		movt	r3, #:upper16:1073766404
 543 041a 1B78     		ldrb	r3, [r3, #0]
 544 041c DAB2     		uxtb	r2, r3
 545 041e 40F20003 		movw	r3, #:lower16:USBFS_interfaceNumber
 546 0422 C0F20003 		movt	r3, #:upper16:USBFS_interfaceNumber
 547 0426 1A70     		strb	r2, [r3, #0]
 293:.\Generated_Source\PSoC5/USBFS_std.c ****                     USBFS_configurationChanged = USBFS_TRUE;
 548              		.loc 1 293 0
 549 0428 40F20003 		movw	r3, #:lower16:USBFS_configurationChanged
 550 042c C0F20003 		movt	r3, #:upper16:USBFS_configurationChanged
 551 0430 4FF00102 		mov	r2, #1
 552 0434 1A70     		strb	r2, [r3, #0]
 294:.\Generated_Source\PSoC5/USBFS_std.c ****                     #if ((USBFS_EP_MA == USBFS__MA_DYNAMIC) && \
 295:.\Generated_Source\PSoC5/USBFS_std.c ****                          (USBFS_EP_MM == USBFS__EP_MANUAL) )
ARM GAS  C:\DOCUME~1\ADMINI~1\LOCALS~1\Temp\ccmk5fwz.s 			page 16


 296:.\Generated_Source\PSoC5/USBFS_std.c ****                         USBFS_Config(USBFS_FALSE);
 297:.\Generated_Source\PSoC5/USBFS_std.c ****                     #else
 298:.\Generated_Source\PSoC5/USBFS_std.c ****                         USBFS_ConfigAltChanged();
 553              		.loc 1 298 0
 554 0436 FFF7FEFF 		bl	USBFS_ConfigAltChanged
 299:.\Generated_Source\PSoC5/USBFS_std.c ****                     #endif /* End (USBFS_EP_MA == USBFS__MA_DYNAMIC) */
 300:.\Generated_Source\PSoC5/USBFS_std.c ****                     /* Update handled Alt setting changes status */
 301:.\Generated_Source\PSoC5/USBFS_std.c ****                     USBFS_interfaceSetting_last[USBFS_interfaceNumber] = 
 555              		.loc 1 301 0
 556 043a 40F20003 		movw	r3, #:lower16:USBFS_interfaceNumber
 557 043e C0F20003 		movt	r3, #:upper16:USBFS_interfaceNumber
 558 0442 1B78     		ldrb	r3, [r3, #0]
 559 0444 DBB2     		uxtb	r3, r3
 560 0446 1A46     		mov	r2, r3
 302:.\Generated_Source\PSoC5/USBFS_std.c ****                          USBFS_interfaceSetting[USBFS_interfaceNumber];
 561              		.loc 1 302 0
 562 0448 40F20003 		movw	r3, #:lower16:USBFS_interfaceNumber
 563 044c C0F20003 		movt	r3, #:upper16:USBFS_interfaceNumber
 564 0450 1B78     		ldrb	r3, [r3, #0]
 565 0452 DBB2     		uxtb	r3, r3
 566 0454 1946     		mov	r1, r3
 567 0456 40F20003 		movw	r3, #:lower16:USBFS_interfaceSetting
 568 045a C0F20003 		movt	r3, #:upper16:USBFS_interfaceSetting
 569 045e 5B5C     		ldrb	r3, [r3, r1]
 570 0460 D9B2     		uxtb	r1, r3
 571              		.loc 1 301 0
 572 0462 40F20003 		movw	r3, #:lower16:USBFS_interfaceSetting_last
 573 0466 C0F20003 		movt	r3, #:upper16:USBFS_interfaceSetting_last
 574 046a 9954     		strb	r1, [r3, r2]
 303:.\Generated_Source\PSoC5/USBFS_std.c ****                     requestHandled = USBFS_InitNoDataControlTransfer();
 575              		.loc 1 303 0
 576 046c FFF7FEFF 		bl	USBFS_InitNoDataControlTransfer
 577 0470 0346     		mov	r3, r0
 578 0472 FB70     		strb	r3, [r7, #3]
 304:.\Generated_Source\PSoC5/USBFS_std.c ****                 }
 305:.\Generated_Source\PSoC5/USBFS_std.c ****                 break;
 579              		.loc 1 305 0
 580 0474 D9E0     		b	.L24
 581              	.L25:
 306:.\Generated_Source\PSoC5/USBFS_std.c ****             case USBFS_CLEAR_FEATURE:
 307:.\Generated_Source\PSoC5/USBFS_std.c ****                 switch (CY_GET_REG8(USBFS_bmRequestType) & USBFS_RQST_RCPT_MASK)
 582              		.loc 1 307 0
 583 0476 46F20003 		movw	r3, #:lower16:1073766400
 584 047a C4F20003 		movt	r3, #:upper16:1073766400
 585 047e 1B78     		ldrb	r3, [r3, #0]
 586 0480 DBB2     		uxtb	r3, r3
 587 0482 03F00303 		and	r3, r3, #3
 588 0486 012B     		cmp	r3, #1
 589 0488 2CD0     		beq	.L34
 590 048a 012B     		cmp	r3, #1
 591 048c 0FD3     		bcc	.L33
 592 048e 022B     		cmp	r3, #2
 593 0490 40F0C480 		bne	.L48
 594              	.L35:
 308:.\Generated_Source\PSoC5/USBFS_std.c ****                 {
 309:.\Generated_Source\PSoC5/USBFS_std.c ****                     case USBFS_RQST_RCPT_EP:
 310:.\Generated_Source\PSoC5/USBFS_std.c ****                         if (CY_GET_REG8(USBFS_wValueLo) == USBFS_ENDPOINT_HALT)
ARM GAS  C:\DOCUME~1\ADMINI~1\LOCALS~1\Temp\ccmk5fwz.s 			page 17


 595              		.loc 1 310 0
 596 0494 46F20203 		movw	r3, #:lower16:1073766402
 597 0498 C4F20003 		movt	r3, #:upper16:1073766402
 598 049c 1B78     		ldrb	r3, [r3, #0]
 599 049e DBB2     		uxtb	r3, r3
 600 04a0 002B     		cmp	r3, #0
 601 04a2 03D1     		bne	.L36
 311:.\Generated_Source\PSoC5/USBFS_std.c ****                         {
 312:.\Generated_Source\PSoC5/USBFS_std.c ****                             requestHandled = USBFS_ClearEndpointHalt();
 602              		.loc 1 312 0
 603 04a4 FFF7FEFF 		bl	USBFS_ClearEndpointHalt
 604 04a8 0346     		mov	r3, r0
 605 04aa FB70     		strb	r3, [r7, #3]
 606              	.L36:
 313:.\Generated_Source\PSoC5/USBFS_std.c ****                         }
 314:.\Generated_Source\PSoC5/USBFS_std.c ****                         break;
 607              		.loc 1 314 0
 608 04ac 49E0     		b	.L32
 609              	.L33:
 315:.\Generated_Source\PSoC5/USBFS_std.c ****                     case USBFS_RQST_RCPT_DEV:
 316:.\Generated_Source\PSoC5/USBFS_std.c ****                         /* Clear device REMOTE_WAKEUP */
 317:.\Generated_Source\PSoC5/USBFS_std.c ****                         if (CY_GET_REG8(USBFS_wValueLo) == USBFS_DEVICE_REMOTE_WAKEUP)
 610              		.loc 1 317 0
 611 04ae 46F20203 		movw	r3, #:lower16:1073766402
 612 04b2 C4F20003 		movt	r3, #:upper16:1073766402
 613 04b6 1B78     		ldrb	r3, [r3, #0]
 614 04b8 DBB2     		uxtb	r3, r3
 615 04ba 012B     		cmp	r3, #1
 616 04bc 11D1     		bne	.L37
 318:.\Generated_Source\PSoC5/USBFS_std.c ****                         {
 319:.\Generated_Source\PSoC5/USBFS_std.c ****                             USBFS_deviceStatus &= ~USBFS_DEVICE_STATUS_REMOTE_WAKEUP;
 617              		.loc 1 319 0
 618 04be 40F20003 		movw	r3, #:lower16:USBFS_deviceStatus
 619 04c2 C0F20003 		movt	r3, #:upper16:USBFS_deviceStatus
 620 04c6 1B78     		ldrb	r3, [r3, #0]
 621 04c8 DBB2     		uxtb	r3, r3
 622 04ca 1A46     		mov	r2, r3
 623 04cc 02F0FD02 		and	r2, r2, #253
 624 04d0 40F20003 		movw	r3, #:lower16:USBFS_deviceStatus
 625 04d4 C0F20003 		movt	r3, #:upper16:USBFS_deviceStatus
 626 04d8 1A70     		strb	r2, [r3, #0]
 320:.\Generated_Source\PSoC5/USBFS_std.c ****                             requestHandled = USBFS_InitNoDataControlTransfer();
 627              		.loc 1 320 0
 628 04da FFF7FEFF 		bl	USBFS_InitNoDataControlTransfer
 629 04de 0346     		mov	r3, r0
 630 04e0 FB70     		strb	r3, [r7, #3]
 631              	.L37:
 321:.\Generated_Source\PSoC5/USBFS_std.c ****                         }
 322:.\Generated_Source\PSoC5/USBFS_std.c ****                         break;
 632              		.loc 1 322 0
 633 04e2 2EE0     		b	.L32
 634              	.L34:
 323:.\Generated_Source\PSoC5/USBFS_std.c ****                     case USBFS_RQST_RCPT_IFC:
 324:.\Generated_Source\PSoC5/USBFS_std.c ****                         /* Validate interfaceNumber */
 325:.\Generated_Source\PSoC5/USBFS_std.c ****                         if (CY_GET_REG8(USBFS_wIndexLo) < USBFS_MAX_INTERFACES_NUMBER)
 635              		.loc 1 325 0
 636 04e4 46F20403 		movw	r3, #:lower16:1073766404
ARM GAS  C:\DOCUME~1\ADMINI~1\LOCALS~1\Temp\ccmk5fwz.s 			page 18


 637 04e8 C4F20003 		movt	r3, #:upper16:1073766404
 638 04ec 1B78     		ldrb	r3, [r3, #0]
 639 04ee DBB2     		uxtb	r3, r3
 640 04f0 032B     		cmp	r3, #3
 641 04f2 00F29580 		bhi	.L49
 326:.\Generated_Source\PSoC5/USBFS_std.c ****                         {
 327:.\Generated_Source\PSoC5/USBFS_std.c ****                             USBFS_interfaceStatus[CY_GET_REG8(USBFS_wIndexLo)] &= \
 642              		.loc 1 327 0
 643 04f6 46F20403 		movw	r3, #:lower16:1073766404
 644 04fa C4F20003 		movt	r3, #:upper16:1073766404
 645 04fe 1B78     		ldrb	r3, [r3, #0]
 646 0500 DBB2     		uxtb	r3, r3
 647 0502 1A46     		mov	r2, r3
 648 0504 1946     		mov	r1, r3
 649 0506 40F20003 		movw	r3, #:lower16:USBFS_interfaceStatus
 650 050a C0F20003 		movt	r3, #:upper16:USBFS_interfaceStatus
 651 050e 5B5C     		ldrb	r3, [r3, r1]
 652 0510 DBB2     		uxtb	r3, r3
 653 0512 1946     		mov	r1, r3
 328:.\Generated_Source\PSoC5/USBFS_std.c ****                                                                 ~(CY_GET_REG8(USBFS_wValueLo)) ;
 654              		.loc 1 328 0
 655 0514 46F20203 		movw	r3, #:lower16:1073766402
 656 0518 C4F20003 		movt	r3, #:upper16:1073766402
 657 051c 1B78     		ldrb	r3, [r3, #0]
 658 051e DBB2     		uxtb	r3, r3
 659              		.loc 1 327 0
 660 0520 6FEA0303 		mvn	r3, r3
 661 0524 DBB2     		uxtb	r3, r3
 662 0526 01EA0303 		and	r3, r1, r3
 663 052a DBB2     		uxtb	r3, r3
 664 052c D9B2     		uxtb	r1, r3
 665 052e 40F20003 		movw	r3, #:lower16:USBFS_interfaceStatus
 666 0532 C0F20003 		movt	r3, #:upper16:USBFS_interfaceStatus
 667 0536 9954     		strb	r1, [r3, r2]
 329:.\Generated_Source\PSoC5/USBFS_std.c ****                             requestHandled = USBFS_InitNoDataControlTransfer();
 668              		.loc 1 329 0
 669 0538 FFF7FEFF 		bl	USBFS_InitNoDataControlTransfer
 670 053c 0346     		mov	r3, r0
 671 053e FB70     		strb	r3, [r7, #3]
 330:.\Generated_Source\PSoC5/USBFS_std.c ****                         }
 331:.\Generated_Source\PSoC5/USBFS_std.c ****                         break;
 332:.\Generated_Source\PSoC5/USBFS_std.c ****                     default:    /* requestHandled is initialezed as FALSE by default */
 333:.\Generated_Source\PSoC5/USBFS_std.c ****                         break;
 334:.\Generated_Source\PSoC5/USBFS_std.c ****                 }
 335:.\Generated_Source\PSoC5/USBFS_std.c ****                 break;
 672              		.loc 1 335 0
 673 0540 73E0     		b	.L24
 674              	.L32:
 675 0542 72E0     		b	.L24
 676              	.L26:
 336:.\Generated_Source\PSoC5/USBFS_std.c ****             case USBFS_SET_FEATURE:
 337:.\Generated_Source\PSoC5/USBFS_std.c ****                 switch (CY_GET_REG8(USBFS_bmRequestType) & USBFS_RQST_RCPT_MASK)
 677              		.loc 1 337 0
 678 0544 46F20003 		movw	r3, #:lower16:1073766400
 679 0548 C4F20003 		movt	r3, #:upper16:1073766400
 680 054c 1B78     		ldrb	r3, [r3, #0]
 681 054e DBB2     		uxtb	r3, r3
ARM GAS  C:\DOCUME~1\ADMINI~1\LOCALS~1\Temp\ccmk5fwz.s 			page 19


 682 0550 03F00303 		and	r3, r3, #3
 683 0554 012B     		cmp	r3, #1
 684 0556 2BD0     		beq	.L39
 685 0558 012B     		cmp	r3, #1
 686 055a 0ED3     		bcc	.L38
 687 055c 022B     		cmp	r3, #2
 688 055e 64D1     		bne	.L24
 689              	.L40:
 338:.\Generated_Source\PSoC5/USBFS_std.c ****                 {
 339:.\Generated_Source\PSoC5/USBFS_std.c ****                     case USBFS_RQST_RCPT_EP:
 340:.\Generated_Source\PSoC5/USBFS_std.c ****                         if (CY_GET_REG8(USBFS_wValueLo) == USBFS_ENDPOINT_HALT)
 690              		.loc 1 340 0
 691 0560 46F20203 		movw	r3, #:lower16:1073766402
 692 0564 C4F20003 		movt	r3, #:upper16:1073766402
 693 0568 1B78     		ldrb	r3, [r3, #0]
 694 056a DBB2     		uxtb	r3, r3
 695 056c 002B     		cmp	r3, #0
 696 056e 59D1     		bne	.L50
 341:.\Generated_Source\PSoC5/USBFS_std.c ****                         {
 342:.\Generated_Source\PSoC5/USBFS_std.c ****                             requestHandled = USBFS_SetEndpointHalt();
 697              		.loc 1 342 0
 698 0570 FFF7FEFF 		bl	USBFS_SetEndpointHalt
 699 0574 0346     		mov	r3, r0
 700 0576 FB70     		strb	r3, [r7, #3]
 343:.\Generated_Source\PSoC5/USBFS_std.c ****                         }
 344:.\Generated_Source\PSoC5/USBFS_std.c ****                         break;
 701              		.loc 1 344 0
 702 0578 57E0     		b	.L24
 703              	.L38:
 345:.\Generated_Source\PSoC5/USBFS_std.c ****                     case USBFS_RQST_RCPT_DEV:
 346:.\Generated_Source\PSoC5/USBFS_std.c ****                         /* Set device REMOTE_WAKEUP */
 347:.\Generated_Source\PSoC5/USBFS_std.c ****                         if (CY_GET_REG8(USBFS_wValueLo) == USBFS_DEVICE_REMOTE_WAKEUP)
 704              		.loc 1 347 0
 705 057a 46F20203 		movw	r3, #:lower16:1073766402
 706 057e C4F20003 		movt	r3, #:upper16:1073766402
 707 0582 1B78     		ldrb	r3, [r3, #0]
 708 0584 DBB2     		uxtb	r3, r3
 709 0586 012B     		cmp	r3, #1
 710 0588 4ED1     		bne	.L51
 348:.\Generated_Source\PSoC5/USBFS_std.c ****                         {
 349:.\Generated_Source\PSoC5/USBFS_std.c ****                             USBFS_deviceStatus |= USBFS_DEVICE_STATUS_REMOTE_WAKEUP;
 711              		.loc 1 349 0
 712 058a 40F20003 		movw	r3, #:lower16:USBFS_deviceStatus
 713 058e C0F20003 		movt	r3, #:upper16:USBFS_deviceStatus
 714 0592 1B78     		ldrb	r3, [r3, #0]
 715 0594 DBB2     		uxtb	r3, r3
 716 0596 43F00203 		orr	r3, r3, #2
 717 059a DAB2     		uxtb	r2, r3
 718 059c 40F20003 		movw	r3, #:lower16:USBFS_deviceStatus
 719 05a0 C0F20003 		movt	r3, #:upper16:USBFS_deviceStatus
 720 05a4 1A70     		strb	r2, [r3, #0]
 350:.\Generated_Source\PSoC5/USBFS_std.c ****                             requestHandled = USBFS_InitNoDataControlTransfer();
 721              		.loc 1 350 0
 722 05a6 FFF7FEFF 		bl	USBFS_InitNoDataControlTransfer
 723 05aa 0346     		mov	r3, r0
 724 05ac FB70     		strb	r3, [r7, #3]
 351:.\Generated_Source\PSoC5/USBFS_std.c ****                         }
ARM GAS  C:\DOCUME~1\ADMINI~1\LOCALS~1\Temp\ccmk5fwz.s 			page 20


 352:.\Generated_Source\PSoC5/USBFS_std.c ****                         break;
 725              		.loc 1 352 0
 726 05ae 3CE0     		b	.L24
 727              	.L39:
 353:.\Generated_Source\PSoC5/USBFS_std.c ****                     case USBFS_RQST_RCPT_IFC:
 354:.\Generated_Source\PSoC5/USBFS_std.c ****                         /* Validate interfaceNumber */
 355:.\Generated_Source\PSoC5/USBFS_std.c ****                         if (CY_GET_REG8(USBFS_wIndexLo) < USBFS_MAX_INTERFACES_NUMBER)
 728              		.loc 1 355 0
 729 05b0 46F20403 		movw	r3, #:lower16:1073766404
 730 05b4 C4F20003 		movt	r3, #:upper16:1073766404
 731 05b8 1B78     		ldrb	r3, [r3, #0]
 732 05ba DBB2     		uxtb	r3, r3
 733 05bc 032B     		cmp	r3, #3
 734 05be 34D8     		bhi	.L24
 356:.\Generated_Source\PSoC5/USBFS_std.c ****                         {
 357:.\Generated_Source\PSoC5/USBFS_std.c ****                             USBFS_interfaceStatus[CY_GET_REG8(USBFS_wIndexLo)] &= \
 735              		.loc 1 357 0
 736 05c0 46F20403 		movw	r3, #:lower16:1073766404
 737 05c4 C4F20003 		movt	r3, #:upper16:1073766404
 738 05c8 1B78     		ldrb	r3, [r3, #0]
 739 05ca DBB2     		uxtb	r3, r3
 740 05cc 1A46     		mov	r2, r3
 741 05ce 1946     		mov	r1, r3
 742 05d0 40F20003 		movw	r3, #:lower16:USBFS_interfaceStatus
 743 05d4 C0F20003 		movt	r3, #:upper16:USBFS_interfaceStatus
 744 05d8 5B5C     		ldrb	r3, [r3, r1]
 745 05da DBB2     		uxtb	r3, r3
 746 05dc 1946     		mov	r1, r3
 358:.\Generated_Source\PSoC5/USBFS_std.c ****                                                                 ~(CY_GET_REG8(USBFS_wValueLo)) ;
 747              		.loc 1 358 0
 748 05de 46F20203 		movw	r3, #:lower16:1073766402
 749 05e2 C4F20003 		movt	r3, #:upper16:1073766402
 750 05e6 1B78     		ldrb	r3, [r3, #0]
 751 05e8 DBB2     		uxtb	r3, r3
 752              		.loc 1 357 0
 753 05ea 6FEA0303 		mvn	r3, r3
 754 05ee DBB2     		uxtb	r3, r3
 755 05f0 01EA0303 		and	r3, r1, r3
 756 05f4 DBB2     		uxtb	r3, r3
 757 05f6 D9B2     		uxtb	r1, r3
 758 05f8 40F20003 		movw	r3, #:lower16:USBFS_interfaceStatus
 759 05fc C0F20003 		movt	r3, #:upper16:USBFS_interfaceStatus
 760 0600 9954     		strb	r1, [r3, r2]
 359:.\Generated_Source\PSoC5/USBFS_std.c ****                             requestHandled = USBFS_InitNoDataControlTransfer();
 761              		.loc 1 359 0
 762 0602 FFF7FEFF 		bl	USBFS_InitNoDataControlTransfer
 763 0606 0346     		mov	r3, r0
 764 0608 FB70     		strb	r3, [r7, #3]
 765 060a 0EE0     		b	.L24
 766              	.L44:
 767              		.loc 1 269 0
 768 060c 00BF     		nop
 769 060e 0CE0     		b	.L24
 770              	.L45:
 771              		.loc 1 237 0
 772 0610 00BF     		nop
 773 0612 0AE0     		b	.L24
ARM GAS  C:\DOCUME~1\ADMINI~1\LOCALS~1\Temp\ccmk5fwz.s 			page 21


 774              	.L46:
 775              		.loc 1 259 0
 776 0614 00BF     		nop
 777 0616 08E0     		b	.L24
 778              	.L47:
 779              		.loc 1 305 0
 780 0618 00BF     		nop
 781 061a 06E0     		b	.L24
 782              	.L48:
 783              		.loc 1 335 0
 784 061c 00BF     		nop
 785 061e 04E0     		b	.L24
 786              	.L49:
 787 0620 00BF     		nop
 788 0622 02E0     		b	.L24
 789              	.L50:
 790              		.loc 1 344 0
 791 0624 00BF     		nop
 792 0626 00E0     		b	.L24
 793              	.L51:
 794              		.loc 1 352 0
 795 0628 00BF     		nop
 796              	.L24:
 360:.\Generated_Source\PSoC5/USBFS_std.c ****                         }
 361:.\Generated_Source\PSoC5/USBFS_std.c ****                         break;
 362:.\Generated_Source\PSoC5/USBFS_std.c ****                     default:    /* requestHandled is initialezed as FALSE by default */
 363:.\Generated_Source\PSoC5/USBFS_std.c ****                         break;
 364:.\Generated_Source\PSoC5/USBFS_std.c ****                 }
 365:.\Generated_Source\PSoC5/USBFS_std.c ****                 break;
 366:.\Generated_Source\PSoC5/USBFS_std.c ****             default:    /* requestHandled is initialezed as FALSE by default */
 367:.\Generated_Source\PSoC5/USBFS_std.c ****                 break;
 368:.\Generated_Source\PSoC5/USBFS_std.c ****         }
 369:.\Generated_Source\PSoC5/USBFS_std.c ****     }
 370:.\Generated_Source\PSoC5/USBFS_std.c ****     return(requestHandled);
 797              		.loc 1 370 0
 798 062a FB78     		ldrb	r3, [r7, #3]	@ zero_extendqisi2
 371:.\Generated_Source\PSoC5/USBFS_std.c **** }
 799              		.loc 1 371 0
 800 062c 1846     		mov	r0, r3
 801 062e 07F11007 		add	r7, r7, #16
 802 0632 BD46     		mov	sp, r7
 803 0634 80BD     		pop	{r7, pc}
 804              		.cfi_endproc
 805              	.LFE1:
 806              		.size	USBFS_HandleStandardRqst, .-USBFS_HandleStandardRqst
 807 0636 00BF     		.section	.text.USBFS_ReadDieID,"ax",%progbits
 808              		.align	2
 809              		.global	USBFS_ReadDieID
 810              		.thumb
 811              		.thumb_func
 812              		.type	USBFS_ReadDieID, %function
 813              	USBFS_ReadDieID:
 814              	.LFB2:
 372:.\Generated_Source\PSoC5/USBFS_std.c **** 
 373:.\Generated_Source\PSoC5/USBFS_std.c **** 
 374:.\Generated_Source\PSoC5/USBFS_std.c **** #if defined(USBFS_ENABLE_IDSN_STRING)
 375:.\Generated_Source\PSoC5/USBFS_std.c **** 
ARM GAS  C:\DOCUME~1\ADMINI~1\LOCALS~1\Temp\ccmk5fwz.s 			page 22


 376:.\Generated_Source\PSoC5/USBFS_std.c ****     /***************************************************************************
 377:.\Generated_Source\PSoC5/USBFS_std.c ****     * Function Name: USBFS_ReadDieID
 378:.\Generated_Source\PSoC5/USBFS_std.c ****     ****************************************************************************
 379:.\Generated_Source\PSoC5/USBFS_std.c ****     *
 380:.\Generated_Source\PSoC5/USBFS_std.c ****     * Summary:
 381:.\Generated_Source\PSoC5/USBFS_std.c ****     *  This routine read Die ID and genarete Serian Number string descriptor.
 382:.\Generated_Source\PSoC5/USBFS_std.c ****     *
 383:.\Generated_Source\PSoC5/USBFS_std.c ****     * Parameters:
 384:.\Generated_Source\PSoC5/USBFS_std.c ****     *  descr:  pointer on string descriptor.
 385:.\Generated_Source\PSoC5/USBFS_std.c ****     *
 386:.\Generated_Source\PSoC5/USBFS_std.c ****     * Return:
 387:.\Generated_Source\PSoC5/USBFS_std.c ****     *  None.
 388:.\Generated_Source\PSoC5/USBFS_std.c ****     *
 389:.\Generated_Source\PSoC5/USBFS_std.c ****     * Reentrant:
 390:.\Generated_Source\PSoC5/USBFS_std.c ****     *  No.
 391:.\Generated_Source\PSoC5/USBFS_std.c ****     *
 392:.\Generated_Source\PSoC5/USBFS_std.c ****     ***************************************************************************/
 393:.\Generated_Source\PSoC5/USBFS_std.c ****     void USBFS_ReadDieID(uint8 *descr) 
 394:.\Generated_Source\PSoC5/USBFS_std.c ****     {
 815              		.loc 1 394 0
 816              		.cfi_startproc
 817              		@ args = 0, pretend = 0, frame = 16
 818              		@ frame_needed = 1, uses_anonymous_args = 0
 819              		@ link register save eliminated.
 820 0000 80B4     		push	{r7}
 821              	.LCFI6:
 822              		.cfi_def_cfa_offset 4
 823 0002 85B0     		sub	sp, sp, #20
 824              	.LCFI7:
 825              		.cfi_def_cfa_offset 24
 826 0004 00AF     		add	r7, sp, #0
 827              		.cfi_offset 7, -4
 828              	.LCFI8:
 829              		.cfi_def_cfa_register 7
 830 0006 7860     		str	r0, [r7, #4]
 395:.\Generated_Source\PSoC5/USBFS_std.c ****         uint8 i,j;
 396:.\Generated_Source\PSoC5/USBFS_std.c ****         uint8 value;
 397:.\Generated_Source\PSoC5/USBFS_std.c ****         static char8 const hex[16u] = "0123456789ABCDEF";
 398:.\Generated_Source\PSoC5/USBFS_std.c **** 
 399:.\Generated_Source\PSoC5/USBFS_std.c ****         /* check descriptor validation */
 400:.\Generated_Source\PSoC5/USBFS_std.c ****         if( (descr[0u] > 1u ) && (descr[1u] == USBFS_DESCR_STRING) )
 831              		.loc 1 400 0
 832 0008 7B68     		ldr	r3, [r7, #4]
 833 000a 1B78     		ldrb	r3, [r3, #0]	@ zero_extendqisi2
 834 000c 012B     		cmp	r3, #1
 835 000e 3ED9     		bls	.L56
 836 0010 7B68     		ldr	r3, [r7, #4]
 837 0012 03F10103 		add	r3, r3, #1
 838 0016 1B78     		ldrb	r3, [r3, #0]	@ zero_extendqisi2
 839 0018 032B     		cmp	r3, #3
 840 001a 38D1     		bne	.L56
 401:.\Generated_Source\PSoC5/USBFS_std.c ****         {
 402:.\Generated_Source\PSoC5/USBFS_std.c ****             /* fill descriptor */
 403:.\Generated_Source\PSoC5/USBFS_std.c ****             for(j = 0u, i = 2u; i < descr[0u]; i += 2u)
 841              		.loc 1 403 0
 842 001c 4FF00003 		mov	r3, #0
 843 0020 BB73     		strb	r3, [r7, #14]
ARM GAS  C:\DOCUME~1\ADMINI~1\LOCALS~1\Temp\ccmk5fwz.s 			page 23


 844 0022 4FF00203 		mov	r3, #2
 845 0026 7B73     		strb	r3, [r7, #13]
 846 0028 2CE0     		b	.L54
 847              	.L55:
 404:.\Generated_Source\PSoC5/USBFS_std.c ****             {
 405:.\Generated_Source\PSoC5/USBFS_std.c ****                 value = CY_GET_XTND_REG8((void CYFAR *)(USBFS_DIE_ID + j++));
 848              		.loc 1 405 0
 849 002a BB7B     		ldrb	r3, [r7, #14]	@ zero_extendqisi2
 850 002c 03F19243 		add	r3, r3, #1224736768
 851 0030 03F58073 		add	r3, r3, #256
 852 0034 1B78     		ldrb	r3, [r3, #0]
 853 0036 FB73     		strb	r3, [r7, #15]
 854 0038 BB7B     		ldrb	r3, [r7, #14]
 855 003a 03F10103 		add	r3, r3, #1
 856 003e BB73     		strb	r3, [r7, #14]
 406:.\Generated_Source\PSoC5/USBFS_std.c ****                 descr[i] = (uint8)hex[value >> 4u];
 857              		.loc 1 406 0
 858 0040 7A7B     		ldrb	r2, [r7, #13]	@ zero_extendqisi2
 859 0042 7B68     		ldr	r3, [r7, #4]
 860 0044 1A44     		add	r2, r2, r3
 861 0046 FB7B     		ldrb	r3, [r7, #15]	@ zero_extendqisi2
 862 0048 4FEA1313 		lsr	r3, r3, #4
 863 004c DBB2     		uxtb	r3, r3
 864 004e 1946     		mov	r1, r3
 865 0050 40F20003 		movw	r3, #:lower16:hex.2332
 866 0054 C0F20003 		movt	r3, #:upper16:hex.2332
 867 0058 5B5C     		ldrb	r3, [r3, r1]	@ zero_extendqisi2
 868 005a 1370     		strb	r3, [r2, #0]
 407:.\Generated_Source\PSoC5/USBFS_std.c ****                 i += 2u;
 869              		.loc 1 407 0
 870 005c 7B7B     		ldrb	r3, [r7, #13]
 871 005e 03F10203 		add	r3, r3, #2
 872 0062 7B73     		strb	r3, [r7, #13]
 408:.\Generated_Source\PSoC5/USBFS_std.c ****                 descr[i] = (uint8)hex[value & 0x0Fu];
 873              		.loc 1 408 0
 874 0064 7A7B     		ldrb	r2, [r7, #13]	@ zero_extendqisi2
 875 0066 7B68     		ldr	r3, [r7, #4]
 876 0068 1A44     		add	r2, r2, r3
 877 006a FB7B     		ldrb	r3, [r7, #15]	@ zero_extendqisi2
 878 006c 03F00F01 		and	r1, r3, #15
 879 0070 40F20003 		movw	r3, #:lower16:hex.2332
 880 0074 C0F20003 		movt	r3, #:upper16:hex.2332
 881 0078 5B5C     		ldrb	r3, [r3, r1]	@ zero_extendqisi2
 882 007a 1370     		strb	r3, [r2, #0]
 883              		.loc 1 403 0
 884 007c 7B7B     		ldrb	r3, [r7, #13]
 885 007e 03F10203 		add	r3, r3, #2
 886 0082 7B73     		strb	r3, [r7, #13]
 887              	.L54:
 888 0084 7B68     		ldr	r3, [r7, #4]
 889 0086 1B78     		ldrb	r3, [r3, #0]	@ zero_extendqisi2
 890 0088 7A7B     		ldrb	r2, [r7, #13]	@ zero_extendqisi2
 891 008a 9A42     		cmp	r2, r3
 892 008c CDD3     		bcc	.L55
 893              	.L56:
 409:.\Generated_Source\PSoC5/USBFS_std.c ****             }
 410:.\Generated_Source\PSoC5/USBFS_std.c ****         }
ARM GAS  C:\DOCUME~1\ADMINI~1\LOCALS~1\Temp\ccmk5fwz.s 			page 24


 411:.\Generated_Source\PSoC5/USBFS_std.c ****     }
 894              		.loc 1 411 0
 895 008e 07F11407 		add	r7, r7, #20
 896 0092 BD46     		mov	sp, r7
 897 0094 80BC     		pop	{r7}
 898 0096 7047     		bx	lr
 899              		.cfi_endproc
 900              	.LFE2:
 901              		.size	USBFS_ReadDieID, .-USBFS_ReadDieID
 902              		.section	.text.USBFS_ConfigReg,"ax",%progbits
 903              		.align	2
 904              		.global	USBFS_ConfigReg
 905              		.thumb
 906              		.thumb_func
 907              		.type	USBFS_ConfigReg, %function
 908              	USBFS_ConfigReg:
 909              	.LFB3:
 412:.\Generated_Source\PSoC5/USBFS_std.c **** 
 413:.\Generated_Source\PSoC5/USBFS_std.c **** #endif /* End $INSTANCE_NAME`_ENABLE_IDSN_STRING*/
 414:.\Generated_Source\PSoC5/USBFS_std.c **** 
 415:.\Generated_Source\PSoC5/USBFS_std.c **** 
 416:.\Generated_Source\PSoC5/USBFS_std.c **** /*******************************************************************************
 417:.\Generated_Source\PSoC5/USBFS_std.c **** * Function Name: USBFS_ConfigReg
 418:.\Generated_Source\PSoC5/USBFS_std.c **** ********************************************************************************
 419:.\Generated_Source\PSoC5/USBFS_std.c **** *
 420:.\Generated_Source\PSoC5/USBFS_std.c **** * Summary:
 421:.\Generated_Source\PSoC5/USBFS_std.c **** *  This routine configures hardware registers from the variables.
 422:.\Generated_Source\PSoC5/USBFS_std.c **** *  It is called from USBFS_Config() function and from RestoreConfig
 423:.\Generated_Source\PSoC5/USBFS_std.c **** *  after Wakeup.
 424:.\Generated_Source\PSoC5/USBFS_std.c **** *
 425:.\Generated_Source\PSoC5/USBFS_std.c **** * Parameters:
 426:.\Generated_Source\PSoC5/USBFS_std.c **** *  None.
 427:.\Generated_Source\PSoC5/USBFS_std.c **** *
 428:.\Generated_Source\PSoC5/USBFS_std.c **** * Return:
 429:.\Generated_Source\PSoC5/USBFS_std.c **** *  None.
 430:.\Generated_Source\PSoC5/USBFS_std.c **** *
 431:.\Generated_Source\PSoC5/USBFS_std.c **** *******************************************************************************/
 432:.\Generated_Source\PSoC5/USBFS_std.c **** void USBFS_ConfigReg(void) 
 433:.\Generated_Source\PSoC5/USBFS_std.c **** {
 910              		.loc 1 433 0
 911              		.cfi_startproc
 912              		@ args = 0, pretend = 0, frame = 8
 913              		@ frame_needed = 1, uses_anonymous_args = 0
 914              		@ link register save eliminated.
 915 0000 80B4     		push	{r7}
 916              	.LCFI9:
 917              		.cfi_def_cfa_offset 4
 918 0002 83B0     		sub	sp, sp, #12
 919              	.LCFI10:
 920              		.cfi_def_cfa_offset 16
 921 0004 00AF     		add	r7, sp, #0
 922              		.cfi_offset 7, -4
 923              	.LCFI11:
 924              		.cfi_def_cfa_register 7
 434:.\Generated_Source\PSoC5/USBFS_std.c ****     uint8 ep;
 435:.\Generated_Source\PSoC5/USBFS_std.c ****     uint8 i;
 436:.\Generated_Source\PSoC5/USBFS_std.c ****     #if(USBFS_EP_MM == USBFS__EP_DMAAUTO)
ARM GAS  C:\DOCUME~1\ADMINI~1\LOCALS~1\Temp\ccmk5fwz.s 			page 25


 437:.\Generated_Source\PSoC5/USBFS_std.c ****         uint8 ep_type = 0u;
 925              		.loc 1 437 0
 926 0006 4FF00003 		mov	r3, #0
 927 000a FB71     		strb	r3, [r7, #7]
 438:.\Generated_Source\PSoC5/USBFS_std.c ****     #endif /* End USBFS_EP_MM == USBFS__EP_DMAAUTO */
 439:.\Generated_Source\PSoC5/USBFS_std.c **** 
 440:.\Generated_Source\PSoC5/USBFS_std.c ****     /* Set the endpoint buffer addresses */
 441:.\Generated_Source\PSoC5/USBFS_std.c ****     ep = USBFS_EP1;
 928              		.loc 1 441 0
 929 000c 4FF00103 		mov	r3, #1
 930 0010 7B71     		strb	r3, [r7, #5]
 442:.\Generated_Source\PSoC5/USBFS_std.c ****     for (i = 0u; i < 0x80u; i+= 0x10u)
 931              		.loc 1 442 0
 932 0012 4FF00003 		mov	r3, #0
 933 0016 BB71     		strb	r3, [r7, #6]
 934 0018 63E0     		b	.L58
 935              	.L63:
 443:.\Generated_Source\PSoC5/USBFS_std.c ****     {
 444:.\Generated_Source\PSoC5/USBFS_std.c ****         CY_SET_REG8(&USBFS_ARB_EP1_CFG_PTR[i], USBFS_ARB_EPX_CFG_CRC_BYPASS |
 936              		.loc 1 444 0
 937 001a BA79     		ldrb	r2, [r7, #6]	@ zero_extendqisi2
 938 001c 46F28003 		movw	r3, #:lower16:1073766528
 939 0020 C4F20003 		movt	r3, #:upper16:1073766528
 940 0024 1344     		add	r3, r2, r3
 941 0026 4FF00C02 		mov	r2, #12
 942 002a 1A70     		strb	r2, [r3, #0]
 445:.\Generated_Source\PSoC5/USBFS_std.c ****                                                           USBFS_ARB_EPX_CFG_RESET);
 446:.\Generated_Source\PSoC5/USBFS_std.c **** 
 447:.\Generated_Source\PSoC5/USBFS_std.c ****         #if(USBFS_EP_MM != USBFS__EP_MANUAL)
 448:.\Generated_Source\PSoC5/USBFS_std.c ****             /* Enable all Arbiter EP Interrupts : err, buf under, buf over, dma gnt(mode2 only), in
 449:.\Generated_Source\PSoC5/USBFS_std.c ****             USBFS_ARB_EP1_INT_EN_PTR[i] = USBFS_ARB_EPX_INT_MASK;
 943              		.loc 1 449 0
 944 002c BA79     		ldrb	r2, [r7, #6]	@ zero_extendqisi2
 945 002e 46F28103 		movw	r3, #:lower16:1073766529
 946 0032 C4F20003 		movt	r3, #:upper16:1073766529
 947 0036 1344     		add	r3, r2, r3
 948 0038 4FF01D02 		mov	r2, #29
 949 003c 1A70     		strb	r2, [r3, #0]
 450:.\Generated_Source\PSoC5/USBFS_std.c ****         #endif   /* End USBFS_EP_MM != USBFS__EP_MANUAL */
 451:.\Generated_Source\PSoC5/USBFS_std.c **** 
 452:.\Generated_Source\PSoC5/USBFS_std.c ****         if(USBFS_EP[ep].epMode != USBFS_MODE_DISABLE)
 950              		.loc 1 452 0
 951 003e 7979     		ldrb	r1, [r7, #5]	@ zero_extendqisi2
 952 0040 40F20002 		movw	r2, #:lower16:USBFS_EP
 953 0044 C0F20002 		movt	r2, #:upper16:USBFS_EP
 954 0048 0B46     		mov	r3, r1
 955 004a 4FEA4303 		lsl	r3, r3, #1
 956 004e 0B44     		add	r3, r3, r1
 957 0050 4FEA8303 		lsl	r3, r3, #2
 958 0054 1344     		add	r3, r3, r2
 959 0056 5B79     		ldrb	r3, [r3, #5]
 960 0058 DBB2     		uxtb	r3, r3
 961 005a 002B     		cmp	r3, #0
 962 005c 30D0     		beq	.L59
 453:.\Generated_Source\PSoC5/USBFS_std.c ****         {
 454:.\Generated_Source\PSoC5/USBFS_std.c ****             if((USBFS_EP[ep].addr & USBFS_DIR_IN) != 0u )
 963              		.loc 1 454 0
ARM GAS  C:\DOCUME~1\ADMINI~1\LOCALS~1\Temp\ccmk5fwz.s 			page 26


 964 005e 7979     		ldrb	r1, [r7, #5]	@ zero_extendqisi2
 965 0060 40F20002 		movw	r2, #:lower16:USBFS_EP
 966 0064 C0F20002 		movt	r2, #:upper16:USBFS_EP
 967 0068 0B46     		mov	r3, r1
 968 006a 4FEA4303 		lsl	r3, r3, #1
 969 006e 0B44     		add	r3, r3, r1
 970 0070 4FEA8303 		lsl	r3, r3, #2
 971 0074 1344     		add	r3, r3, r2
 972 0076 1B79     		ldrb	r3, [r3, #4]
 973 0078 DBB2     		uxtb	r3, r3
 974 007a 5BB2     		sxtb	r3, r3
 975 007c 002B     		cmp	r3, #0
 976 007e 09DA     		bge	.L60
 455:.\Generated_Source\PSoC5/USBFS_std.c ****             {
 456:.\Generated_Source\PSoC5/USBFS_std.c ****                 CY_SET_REG8(&USBFS_SIE_EP1_CR0_PTR[i], USBFS_MODE_NAK_IN);
 977              		.loc 1 456 0
 978 0080 BA79     		ldrb	r2, [r7, #6]	@ zero_extendqisi2
 979 0082 46F20E03 		movw	r3, #:lower16:1073766414
 980 0086 C4F20003 		movt	r3, #:upper16:1073766414
 981 008a 1344     		add	r3, r2, r3
 982 008c 4FF00C02 		mov	r2, #12
 983 0090 1A70     		strb	r2, [r3, #0]
 457:.\Generated_Source\PSoC5/USBFS_std.c ****             }
 458:.\Generated_Source\PSoC5/USBFS_std.c ****             else
 459:.\Generated_Source\PSoC5/USBFS_std.c ****             {
 460:.\Generated_Source\PSoC5/USBFS_std.c ****                 CY_SET_REG8(&USBFS_SIE_EP1_CR0_PTR[i], USBFS_MODE_NAK_OUT);
 461:.\Generated_Source\PSoC5/USBFS_std.c ****                 /* Prepare EP type mask for automatic memory allocation */
 462:.\Generated_Source\PSoC5/USBFS_std.c ****                 #if(USBFS_EP_MM == USBFS__EP_DMAAUTO)
 463:.\Generated_Source\PSoC5/USBFS_std.c ****                     ep_type |= 0x01u << (ep - USBFS_EP1);
 984              		.loc 1 463 0
 985 0092 1EE0     		b	.L62
 986              	.L60:
 987              		.loc 1 460 0
 988 0094 BA79     		ldrb	r2, [r7, #6]	@ zero_extendqisi2
 989 0096 46F20E03 		movw	r3, #:lower16:1073766414
 990 009a C4F20003 		movt	r3, #:upper16:1073766414
 991 009e 1344     		add	r3, r2, r3
 992 00a0 4FF00802 		mov	r2, #8
 993 00a4 1A70     		strb	r2, [r3, #0]
 994              		.loc 1 463 0
 995 00a6 7B79     		ldrb	r3, [r7, #5]	@ zero_extendqisi2
 996 00a8 03F1FF33 		add	r3, r3, #-1
 997 00ac 4FF00102 		mov	r2, #1
 998 00b0 02FA03F3 		lsl	r3, r2, r3
 999 00b4 DAB2     		uxtb	r2, r3
 1000 00b6 FB79     		ldrb	r3, [r7, #7]
 1001 00b8 42EA0303 		orr	r3, r2, r3
 1002 00bc FB71     		strb	r3, [r7, #7]
 1003 00be 08E0     		b	.L62
 1004              	.L59:
 464:.\Generated_Source\PSoC5/USBFS_std.c ****                 #endif /* End USBFS_EP_MM == USBFS__EP_DMAAUTO */
 465:.\Generated_Source\PSoC5/USBFS_std.c ****             }
 466:.\Generated_Source\PSoC5/USBFS_std.c ****         }
 467:.\Generated_Source\PSoC5/USBFS_std.c ****         else
 468:.\Generated_Source\PSoC5/USBFS_std.c ****         {
 469:.\Generated_Source\PSoC5/USBFS_std.c ****             CY_SET_REG8(&USBFS_SIE_EP1_CR0_PTR[i], USBFS_MODE_STALL_DATA_EP);
 1005              		.loc 1 469 0
ARM GAS  C:\DOCUME~1\ADMINI~1\LOCALS~1\Temp\ccmk5fwz.s 			page 27


 1006 00c0 BA79     		ldrb	r2, [r7, #6]	@ zero_extendqisi2
 1007 00c2 46F20E03 		movw	r3, #:lower16:1073766414
 1008 00c6 C4F20003 		movt	r3, #:upper16:1073766414
 1009 00ca 1344     		add	r3, r2, r3
 1010 00cc 6FF07F02 		mvn	r2, #127
 1011 00d0 1A70     		strb	r2, [r3, #0]
 1012              	.L62:
 470:.\Generated_Source\PSoC5/USBFS_std.c ****         }
 471:.\Generated_Source\PSoC5/USBFS_std.c **** 
 472:.\Generated_Source\PSoC5/USBFS_std.c ****         #if(USBFS_EP_MM != USBFS__EP_DMAAUTO)
 473:.\Generated_Source\PSoC5/USBFS_std.c ****             CY_SET_REG8(&USBFS_SIE_EP1_CNT0_PTR[i],   USBFS_EP[ep].bufferSize >> 8u);
 474:.\Generated_Source\PSoC5/USBFS_std.c ****             CY_SET_REG8(&USBFS_SIE_EP1_CNT1_PTR[i],   USBFS_EP[ep].bufferSize & 0xFFu);
 475:.\Generated_Source\PSoC5/USBFS_std.c **** 
 476:.\Generated_Source\PSoC5/USBFS_std.c ****             CY_SET_REG8(&USBFS_ARB_RW1_RA_PTR[i],     USBFS_EP[ep].buffOffset & 0xFFu);
 477:.\Generated_Source\PSoC5/USBFS_std.c ****             CY_SET_REG8(&USBFS_ARB_RW1_RA_MSB_PTR[i], USBFS_EP[ep].buffOffset >> 8u);
 478:.\Generated_Source\PSoC5/USBFS_std.c ****             CY_SET_REG8(&USBFS_ARB_RW1_WA_PTR[i],     USBFS_EP[ep].buffOffset & 0xFFu);
 479:.\Generated_Source\PSoC5/USBFS_std.c ****             CY_SET_REG8(&USBFS_ARB_RW1_WA_MSB_PTR[i], USBFS_EP[ep].buffOffset >> 8u);
 480:.\Generated_Source\PSoC5/USBFS_std.c ****         #endif /* End USBFS_EP_MM != USBFS__EP_DMAAUTO */
 481:.\Generated_Source\PSoC5/USBFS_std.c **** 
 482:.\Generated_Source\PSoC5/USBFS_std.c ****         ep++;
 1013              		.loc 1 482 0
 1014 00d2 7B79     		ldrb	r3, [r7, #5]
 1015 00d4 03F10103 		add	r3, r3, #1
 1016 00d8 7B71     		strb	r3, [r7, #5]
 1017              		.loc 1 442 0
 1018 00da BB79     		ldrb	r3, [r7, #6]
 1019 00dc 03F11003 		add	r3, r3, #16
 1020 00e0 BB71     		strb	r3, [r7, #6]
 1021              	.L58:
 1022 00e2 BB79     		ldrb	r3, [r7, #6]	@ zero_extendqisi2
 1023 00e4 5BB2     		sxtb	r3, r3
 1024 00e6 002B     		cmp	r3, #0
 1025 00e8 97DA     		bge	.L63
 483:.\Generated_Source\PSoC5/USBFS_std.c ****     }
 484:.\Generated_Source\PSoC5/USBFS_std.c **** 
 485:.\Generated_Source\PSoC5/USBFS_std.c ****     #if(USBFS_EP_MM == USBFS__EP_DMAAUTO)
 486:.\Generated_Source\PSoC5/USBFS_std.c ****          /* BUF_SIZE depend on DMA_THRESS value: 55-32 bytes  44-16 bytes 33-8 bytes 22-4 bytes 11-
 487:.\Generated_Source\PSoC5/USBFS_std.c ****         USBFS_BUF_SIZE_REG = USBFS_DMA_BUF_SIZE;
 1026              		.loc 1 487 0
 1027 00ea 46F28C03 		movw	r3, #:lower16:1073766540
 1028 00ee C4F20003 		movt	r3, #:upper16:1073766540
 1029 00f2 4FF05502 		mov	r2, #85
 1030 00f6 1A70     		strb	r2, [r3, #0]
 488:.\Generated_Source\PSoC5/USBFS_std.c ****         USBFS_DMA_THRES_REG = USBFS_DMA_BYTES_PER_BURST;   /* DMA burst threshold */
 1031              		.loc 1 488 0
 1032 00f8 46F2BC03 		movw	r3, #:lower16:1073766588
 1033 00fc C4F20003 		movt	r3, #:upper16:1073766588
 1034 0100 4FF02002 		mov	r2, #32
 1035 0104 1A70     		strb	r2, [r3, #0]
 489:.\Generated_Source\PSoC5/USBFS_std.c ****         USBFS_DMA_THRES_MSB_REG = 0u;
 1036              		.loc 1 489 0
 1037 0106 46F2BD03 		movw	r3, #:lower16:1073766589
 1038 010a C4F20003 		movt	r3, #:upper16:1073766589
 1039 010e 4FF00002 		mov	r2, #0
 1040 0112 1A70     		strb	r2, [r3, #0]
 490:.\Generated_Source\PSoC5/USBFS_std.c ****         USBFS_EP_ACTIVE_REG = USBFS_ARB_INT_MASK;
 1041              		.loc 1 490 0
ARM GAS  C:\DOCUME~1\ADMINI~1\LOCALS~1\Temp\ccmk5fwz.s 			page 28


 1042 0114 46F28E03 		movw	r3, #:lower16:1073766542
 1043 0118 C4F20003 		movt	r3, #:upper16:1073766542
 1044 011c 4FF02B02 		mov	r2, #43
 1045 0120 1A70     		strb	r2, [r3, #0]
 491:.\Generated_Source\PSoC5/USBFS_std.c ****         USBFS_EP_TYPE_REG = ep_type;
 1046              		.loc 1 491 0
 1047 0122 46F28F03 		movw	r3, #:lower16:1073766543
 1048 0126 C4F20003 		movt	r3, #:upper16:1073766543
 1049 012a FA79     		ldrb	r2, [r7, #7]
 1050 012c 1A70     		strb	r2, [r3, #0]
 492:.\Generated_Source\PSoC5/USBFS_std.c ****         /* Cfg_cmp bit set to 1 once configuration is complete. */
 493:.\Generated_Source\PSoC5/USBFS_std.c ****         USBFS_ARB_CFG_REG = USBFS_ARB_CFG_AUTO_DMA | USBFS_ARB_CFG_AUTO_MEM |
 1051              		.loc 1 493 0
 1052 012e 46F29C03 		movw	r3, #:lower16:1073766556
 1053 0132 C4F20003 		movt	r3, #:upper16:1073766556
 1054 0136 6FF02F02 		mvn	r2, #47
 1055 013a 1A70     		strb	r2, [r3, #0]
 494:.\Generated_Source\PSoC5/USBFS_std.c ****                                        USBFS_ARB_CFG_CFG_CPM;
 495:.\Generated_Source\PSoC5/USBFS_std.c ****         /* Cfg_cmp bit set to 0 during configuration of PFSUSB Registers. */
 496:.\Generated_Source\PSoC5/USBFS_std.c ****         USBFS_ARB_CFG_REG = USBFS_ARB_CFG_AUTO_DMA | USBFS_ARB_CFG_AUTO_MEM;
 1056              		.loc 1 496 0
 1057 013c 46F29C03 		movw	r3, #:lower16:1073766556
 1058 0140 C4F20003 		movt	r3, #:upper16:1073766556
 1059 0144 4FF05002 		mov	r2, #80
 1060 0148 1A70     		strb	r2, [r3, #0]
 497:.\Generated_Source\PSoC5/USBFS_std.c ****     #endif /* End USBFS_EP_MM == USBFS__EP_DMAAUTO */
 498:.\Generated_Source\PSoC5/USBFS_std.c **** 
 499:.\Generated_Source\PSoC5/USBFS_std.c ****     CY_SET_REG8(USBFS_SIE_EP_INT_EN_PTR, 0xFFu);
 1061              		.loc 1 499 0
 1062 014a 46F20A03 		movw	r3, #:lower16:1073766410
 1063 014e C4F20003 		movt	r3, #:upper16:1073766410
 1064 0152 4FF0FF32 		mov	r2, #-1
 1065 0156 1A70     		strb	r2, [r3, #0]
 500:.\Generated_Source\PSoC5/USBFS_std.c **** }
 1066              		.loc 1 500 0
 1067 0158 07F10C07 		add	r7, r7, #12
 1068 015c BD46     		mov	sp, r7
 1069 015e 80BC     		pop	{r7}
 1070 0160 7047     		bx	lr
 1071              		.cfi_endproc
 1072              	.LFE3:
 1073              		.size	USBFS_ConfigReg, .-USBFS_ConfigReg
 1074 0162 00BF     		.section	.text.USBFS_Config,"ax",%progbits
 1075              		.align	2
 1076              		.global	USBFS_Config
 1077              		.thumb
 1078              		.thumb_func
 1079              		.type	USBFS_Config, %function
 1080              	USBFS_Config:
 1081              	.LFB4:
 501:.\Generated_Source\PSoC5/USBFS_std.c **** 
 502:.\Generated_Source\PSoC5/USBFS_std.c **** 
 503:.\Generated_Source\PSoC5/USBFS_std.c **** /*******************************************************************************
 504:.\Generated_Source\PSoC5/USBFS_std.c **** * Function Name: USBFS_Config
 505:.\Generated_Source\PSoC5/USBFS_std.c **** ********************************************************************************
 506:.\Generated_Source\PSoC5/USBFS_std.c **** *
 507:.\Generated_Source\PSoC5/USBFS_std.c **** * Summary:
ARM GAS  C:\DOCUME~1\ADMINI~1\LOCALS~1\Temp\ccmk5fwz.s 			page 29


 508:.\Generated_Source\PSoC5/USBFS_std.c **** *  This routine configures endpoints for the entire configuration by scanning
 509:.\Generated_Source\PSoC5/USBFS_std.c **** *  the configuration descriptor.
 510:.\Generated_Source\PSoC5/USBFS_std.c **** *
 511:.\Generated_Source\PSoC5/USBFS_std.c **** * Parameters:
 512:.\Generated_Source\PSoC5/USBFS_std.c **** *  clearAltSetting: It configures the bAlternateSetting 0 for each interface.
 513:.\Generated_Source\PSoC5/USBFS_std.c **** *
 514:.\Generated_Source\PSoC5/USBFS_std.c **** * Return:
 515:.\Generated_Source\PSoC5/USBFS_std.c **** *  None.
 516:.\Generated_Source\PSoC5/USBFS_std.c **** *
 517:.\Generated_Source\PSoC5/USBFS_std.c **** * USBFS_interfaceClass - Initialized class array for each interface.
 518:.\Generated_Source\PSoC5/USBFS_std.c **** *   It is used for hangling Class specific requests depend on interface class.
 519:.\Generated_Source\PSoC5/USBFS_std.c **** *   Different classes in multiple Alternate settings does not supported.
 520:.\Generated_Source\PSoC5/USBFS_std.c **** *
 521:.\Generated_Source\PSoC5/USBFS_std.c **** * Reentrant:
 522:.\Generated_Source\PSoC5/USBFS_std.c **** *  No.
 523:.\Generated_Source\PSoC5/USBFS_std.c **** *
 524:.\Generated_Source\PSoC5/USBFS_std.c **** *******************************************************************************/
 525:.\Generated_Source\PSoC5/USBFS_std.c **** void USBFS_Config(uint8 clearAltSetting) 
 526:.\Generated_Source\PSoC5/USBFS_std.c **** {
 1082              		.loc 1 526 0
 1083              		.cfi_startproc
 1084              		@ args = 0, pretend = 0, frame = 24
 1085              		@ frame_needed = 1, uses_anonymous_args = 0
 1086 0000 80B5     		push	{r7, lr}
 1087              	.LCFI12:
 1088              		.cfi_def_cfa_offset 8
 1089 0002 86B0     		sub	sp, sp, #24
 1090              	.LCFI13:
 1091              		.cfi_def_cfa_offset 32
 1092 0004 00AF     		add	r7, sp, #0
 1093              		.cfi_offset 14, -4
 1094              		.cfi_offset 7, -8
 1095              	.LCFI14:
 1096              		.cfi_def_cfa_register 7
 1097 0006 0346     		mov	r3, r0
 1098 0008 FB71     		strb	r3, [r7, #7]
 527:.\Generated_Source\PSoC5/USBFS_std.c ****     uint8 ep;
 528:.\Generated_Source\PSoC5/USBFS_std.c ****     uint8 cur_ep;
 529:.\Generated_Source\PSoC5/USBFS_std.c ****     uint8 i;
 530:.\Generated_Source\PSoC5/USBFS_std.c ****     uint8 iso;
 531:.\Generated_Source\PSoC5/USBFS_std.c ****     uint8 *pDescr;
 532:.\Generated_Source\PSoC5/USBFS_std.c ****     #if(USBFS_EP_MM != USBFS__EP_DMAAUTO)
 533:.\Generated_Source\PSoC5/USBFS_std.c ****         uint16 count = 0u;
 534:.\Generated_Source\PSoC5/USBFS_std.c ****     #endif /* End USBFS_EP_MM != USBFS__EP_DMAAUTO */
 535:.\Generated_Source\PSoC5/USBFS_std.c ****     
 536:.\Generated_Source\PSoC5/USBFS_std.c ****     T_USBFS_LUT *pTmp;
 537:.\Generated_Source\PSoC5/USBFS_std.c ****     T_USBFS_EP_SETTINGS_BLOCK *pEP;
 538:.\Generated_Source\PSoC5/USBFS_std.c **** 
 539:.\Generated_Source\PSoC5/USBFS_std.c ****     /* Clear all of the endpoints */
 540:.\Generated_Source\PSoC5/USBFS_std.c ****     for (ep = 0u; ep < USBFS_MAX_EP; ep++)
 1099              		.loc 1 540 0
 1100 000a 4FF00003 		mov	r3, #0
 1101 000e 3B72     		strb	r3, [r7, #8]
 1102 0010 70E0     		b	.L66
 1103              	.L67:
 541:.\Generated_Source\PSoC5/USBFS_std.c ****     {
 542:.\Generated_Source\PSoC5/USBFS_std.c ****         USBFS_EP[ep].attrib = 0u;
ARM GAS  C:\DOCUME~1\ADMINI~1\LOCALS~1\Temp\ccmk5fwz.s 			page 30


 1104              		.loc 1 542 0
 1105 0012 397A     		ldrb	r1, [r7, #8]	@ zero_extendqisi2
 1106 0014 40F20002 		movw	r2, #:lower16:USBFS_EP
 1107 0018 C0F20002 		movt	r2, #:upper16:USBFS_EP
 1108 001c 0B46     		mov	r3, r1
 1109 001e 4FEA4303 		lsl	r3, r3, #1
 1110 0022 0B44     		add	r3, r3, r1
 1111 0024 4FEA8303 		lsl	r3, r3, #2
 1112 0028 1344     		add	r3, r3, r2
 1113 002a 4FF00002 		mov	r2, #0
 1114 002e 1A70     		strb	r2, [r3, #0]
 543:.\Generated_Source\PSoC5/USBFS_std.c ****         USBFS_EP[ep].hwEpState = 0u;
 1115              		.loc 1 543 0
 1116 0030 397A     		ldrb	r1, [r7, #8]	@ zero_extendqisi2
 1117 0032 40F20002 		movw	r2, #:lower16:USBFS_EP
 1118 0036 C0F20002 		movt	r2, #:upper16:USBFS_EP
 1119 003a 0B46     		mov	r3, r1
 1120 003c 4FEA4303 		lsl	r3, r3, #1
 1121 0040 0B44     		add	r3, r3, r1
 1122 0042 4FEA8303 		lsl	r3, r3, #2
 1123 0046 1344     		add	r3, r3, r2
 1124 0048 4FF00002 		mov	r2, #0
 1125 004c 9A70     		strb	r2, [r3, #2]
 544:.\Generated_Source\PSoC5/USBFS_std.c ****         USBFS_EP[ep].apiEpState = USBFS_NO_EVENT_PENDING;
 1126              		.loc 1 544 0
 1127 004e 397A     		ldrb	r1, [r7, #8]	@ zero_extendqisi2
 1128 0050 40F20002 		movw	r2, #:lower16:USBFS_EP
 1129 0054 C0F20002 		movt	r2, #:upper16:USBFS_EP
 1130 0058 0B46     		mov	r3, r1
 1131 005a 4FEA4303 		lsl	r3, r3, #1
 1132 005e 0B44     		add	r3, r3, r1
 1133 0060 4FEA8303 		lsl	r3, r3, #2
 1134 0064 1344     		add	r3, r3, r2
 1135 0066 4FF00002 		mov	r2, #0
 1136 006a 5A70     		strb	r2, [r3, #1]
 545:.\Generated_Source\PSoC5/USBFS_std.c ****         USBFS_EP[ep].epToggle = 0u;
 1137              		.loc 1 545 0
 1138 006c 397A     		ldrb	r1, [r7, #8]	@ zero_extendqisi2
 1139 006e 40F20002 		movw	r2, #:lower16:USBFS_EP
 1140 0072 C0F20002 		movt	r2, #:upper16:USBFS_EP
 1141 0076 0B46     		mov	r3, r1
 1142 0078 4FEA4303 		lsl	r3, r3, #1
 1143 007c 0B44     		add	r3, r3, r1
 1144 007e 4FEA8303 		lsl	r3, r3, #2
 1145 0082 1344     		add	r3, r3, r2
 1146 0084 4FF00002 		mov	r2, #0
 1147 0088 DA70     		strb	r2, [r3, #3]
 546:.\Generated_Source\PSoC5/USBFS_std.c ****         USBFS_EP[ep].epMode = USBFS_MODE_DISABLE;
 1148              		.loc 1 546 0
 1149 008a 397A     		ldrb	r1, [r7, #8]	@ zero_extendqisi2
 1150 008c 40F20002 		movw	r2, #:lower16:USBFS_EP
 1151 0090 C0F20002 		movt	r2, #:upper16:USBFS_EP
 1152 0094 0B46     		mov	r3, r1
 1153 0096 4FEA4303 		lsl	r3, r3, #1
 1154 009a 0B44     		add	r3, r3, r1
 1155 009c 4FEA8303 		lsl	r3, r3, #2
 1156 00a0 1344     		add	r3, r3, r2
ARM GAS  C:\DOCUME~1\ADMINI~1\LOCALS~1\Temp\ccmk5fwz.s 			page 31


 1157 00a2 4FF00002 		mov	r2, #0
 1158 00a6 5A71     		strb	r2, [r3, #5]
 547:.\Generated_Source\PSoC5/USBFS_std.c ****         USBFS_EP[ep].bufferSize = 0u;
 1159              		.loc 1 547 0
 1160 00a8 397A     		ldrb	r1, [r7, #8]	@ zero_extendqisi2
 1161 00aa 40F20002 		movw	r2, #:lower16:USBFS_EP
 1162 00ae C0F20002 		movt	r2, #:upper16:USBFS_EP
 1163 00b2 0B46     		mov	r3, r1
 1164 00b4 4FEA4303 		lsl	r3, r3, #1
 1165 00b8 0B44     		add	r3, r3, r1
 1166 00ba 4FEA8303 		lsl	r3, r3, #2
 1167 00be 1344     		add	r3, r3, r2
 1168 00c0 03F10803 		add	r3, r3, #8
 1169 00c4 4FF00002 		mov	r2, #0
 1170 00c8 1A80     		strh	r2, [r3, #0]	@ movhi
 548:.\Generated_Source\PSoC5/USBFS_std.c ****         USBFS_EP[ep].interface = 0u;
 1171              		.loc 1 548 0
 1172 00ca 397A     		ldrb	r1, [r7, #8]	@ zero_extendqisi2
 1173 00cc 40F20002 		movw	r2, #:lower16:USBFS_EP
 1174 00d0 C0F20002 		movt	r2, #:upper16:USBFS_EP
 1175 00d4 0B46     		mov	r3, r1
 1176 00d6 4FEA4303 		lsl	r3, r3, #1
 1177 00da 0B44     		add	r3, r3, r1
 1178 00dc 4FEA8303 		lsl	r3, r3, #2
 1179 00e0 1344     		add	r3, r3, r2
 1180 00e2 03F10803 		add	r3, r3, #8
 1181 00e6 4FF00002 		mov	r2, #0
 1182 00ea 9A70     		strb	r2, [r3, #2]
 1183              		.loc 1 540 0
 1184 00ec 3B7A     		ldrb	r3, [r7, #8]
 1185 00ee 03F10103 		add	r3, r3, #1
 1186 00f2 3B72     		strb	r3, [r7, #8]
 1187              	.L66:
 1188 00f4 3B7A     		ldrb	r3, [r7, #8]	@ zero_extendqisi2
 1189 00f6 082B     		cmp	r3, #8
 1190 00f8 8BD9     		bls	.L67
 549:.\Generated_Source\PSoC5/USBFS_std.c **** 
 550:.\Generated_Source\PSoC5/USBFS_std.c ****     }
 551:.\Generated_Source\PSoC5/USBFS_std.c **** 
 552:.\Generated_Source\PSoC5/USBFS_std.c ****     /* Clear Alternate settings for all interfaces */
 553:.\Generated_Source\PSoC5/USBFS_std.c ****     if(clearAltSetting != 0u)
 1191              		.loc 1 553 0
 1192 00fa FB79     		ldrb	r3, [r7, #7]	@ zero_extendqisi2
 1193 00fc 002B     		cmp	r3, #0
 1194 00fe 1AD0     		beq	.L68
 554:.\Generated_Source\PSoC5/USBFS_std.c ****     {
 555:.\Generated_Source\PSoC5/USBFS_std.c ****         for (i = 0u; i < USBFS_MAX_INTERFACES_NUMBER; i++)
 1195              		.loc 1 555 0
 1196 0100 4FF00003 		mov	r3, #0
 1197 0104 BB72     		strb	r3, [r7, #10]
 1198 0106 13E0     		b	.L69
 1199              	.L70:
 556:.\Generated_Source\PSoC5/USBFS_std.c ****         {
 557:.\Generated_Source\PSoC5/USBFS_std.c ****             USBFS_interfaceSetting[i] = 0x00u;
 1200              		.loc 1 557 0
 1201 0108 BA7A     		ldrb	r2, [r7, #10]	@ zero_extendqisi2
 1202 010a 40F20003 		movw	r3, #:lower16:USBFS_interfaceSetting
ARM GAS  C:\DOCUME~1\ADMINI~1\LOCALS~1\Temp\ccmk5fwz.s 			page 32


 1203 010e C0F20003 		movt	r3, #:upper16:USBFS_interfaceSetting
 1204 0112 4FF00001 		mov	r1, #0
 1205 0116 9954     		strb	r1, [r3, r2]
 558:.\Generated_Source\PSoC5/USBFS_std.c ****             USBFS_interfaceSetting_last[i] = 0x00u;
 1206              		.loc 1 558 0
 1207 0118 BA7A     		ldrb	r2, [r7, #10]	@ zero_extendqisi2
 1208 011a 40F20003 		movw	r3, #:lower16:USBFS_interfaceSetting_last
 1209 011e C0F20003 		movt	r3, #:upper16:USBFS_interfaceSetting_last
 1210 0122 4FF00001 		mov	r1, #0
 1211 0126 9954     		strb	r1, [r3, r2]
 1212              		.loc 1 555 0
 1213 0128 BB7A     		ldrb	r3, [r7, #10]
 1214 012a 03F10103 		add	r3, r3, #1
 1215 012e BB72     		strb	r3, [r7, #10]
 1216              	.L69:
 1217 0130 BB7A     		ldrb	r3, [r7, #10]	@ zero_extendqisi2
 1218 0132 032B     		cmp	r3, #3
 1219 0134 E8D9     		bls	.L70
 1220              	.L68:
 559:.\Generated_Source\PSoC5/USBFS_std.c ****         }
 560:.\Generated_Source\PSoC5/USBFS_std.c ****     }
 561:.\Generated_Source\PSoC5/USBFS_std.c **** 
 562:.\Generated_Source\PSoC5/USBFS_std.c ****     /* Init Endpoints and Device Status if configured */
 563:.\Generated_Source\PSoC5/USBFS_std.c ****     if(USBFS_configuration > 0u)
 1221              		.loc 1 563 0
 1222 0136 40F20003 		movw	r3, #:lower16:USBFS_configuration
 1223 013a C0F20003 		movt	r3, #:upper16:USBFS_configuration
 1224 013e 1B78     		ldrb	r3, [r3, #0]
 1225 0140 DBB2     		uxtb	r3, r3
 1226 0142 002B     		cmp	r3, #0
 1227 0144 00F04481 		beq	.L89
 564:.\Generated_Source\PSoC5/USBFS_std.c ****     {
 565:.\Generated_Source\PSoC5/USBFS_std.c ****         pTmp = USBFS_GetConfigTablePtr(USBFS_configuration - 1u);
 1228              		.loc 1 565 0
 1229 0148 40F20003 		movw	r3, #:lower16:USBFS_configuration
 1230 014c C0F20003 		movt	r3, #:upper16:USBFS_configuration
 1231 0150 1B78     		ldrb	r3, [r3, #0]
 1232 0152 DBB2     		uxtb	r3, r3
 1233 0154 03F1FF33 		add	r3, r3, #-1
 1234 0158 DBB2     		uxtb	r3, r3
 1235 015a 1846     		mov	r0, r3
 1236 015c FFF7FEFF 		bl	USBFS_GetConfigTablePtr
 1237 0160 0346     		mov	r3, r0
 1238 0162 3B61     		str	r3, [r7, #16]
 566:.\Generated_Source\PSoC5/USBFS_std.c ****         /* Set Power status for current configuration */
 567:.\Generated_Source\PSoC5/USBFS_std.c ****         pDescr = (uint8 *)pTmp->p_list;
 1239              		.loc 1 567 0
 1240 0164 3B69     		ldr	r3, [r7, #16]
 1241 0166 5B68     		ldr	r3, [r3, #4]
 1242 0168 FB60     		str	r3, [r7, #12]
 568:.\Generated_Source\PSoC5/USBFS_std.c ****         if((pDescr[USBFS_CONFIG_DESCR_ATTRIB] & USBFS_CONFIG_DESCR_ATTRIB_SELF_POWERED) != 0u)
 1243              		.loc 1 568 0
 1244 016a FB68     		ldr	r3, [r7, #12]
 1245 016c 03F10703 		add	r3, r3, #7
 1246 0170 1B78     		ldrb	r3, [r3, #0]	@ zero_extendqisi2
 1247 0172 03F04003 		and	r3, r3, #64
 1248 0176 002B     		cmp	r3, #0
ARM GAS  C:\DOCUME~1\ADMINI~1\LOCALS~1\Temp\ccmk5fwz.s 			page 33


 1249 0178 0ED0     		beq	.L72
 569:.\Generated_Source\PSoC5/USBFS_std.c ****         {
 570:.\Generated_Source\PSoC5/USBFS_std.c ****             USBFS_deviceStatus |=  USBFS_DEVICE_STATUS_SELF_POWERED;
 1250              		.loc 1 570 0
 1251 017a 40F20003 		movw	r3, #:lower16:USBFS_deviceStatus
 1252 017e C0F20003 		movt	r3, #:upper16:USBFS_deviceStatus
 1253 0182 1B78     		ldrb	r3, [r3, #0]
 1254 0184 DBB2     		uxtb	r3, r3
 1255 0186 43F00103 		orr	r3, r3, #1
 1256 018a DAB2     		uxtb	r2, r3
 1257 018c 40F20003 		movw	r3, #:lower16:USBFS_deviceStatus
 1258 0190 C0F20003 		movt	r3, #:upper16:USBFS_deviceStatus
 1259 0194 1A70     		strb	r2, [r3, #0]
 1260 0196 0DE0     		b	.L73
 1261              	.L72:
 571:.\Generated_Source\PSoC5/USBFS_std.c ****         }
 572:.\Generated_Source\PSoC5/USBFS_std.c ****         else
 573:.\Generated_Source\PSoC5/USBFS_std.c ****         {
 574:.\Generated_Source\PSoC5/USBFS_std.c ****             USBFS_deviceStatus &=  ~USBFS_DEVICE_STATUS_SELF_POWERED;
 1262              		.loc 1 574 0
 1263 0198 40F20003 		movw	r3, #:lower16:USBFS_deviceStatus
 1264 019c C0F20003 		movt	r3, #:upper16:USBFS_deviceStatus
 1265 01a0 1B78     		ldrb	r3, [r3, #0]
 1266 01a2 DBB2     		uxtb	r3, r3
 1267 01a4 1A46     		mov	r2, r3
 1268 01a6 02F0FE02 		and	r2, r2, #254
 1269 01aa 40F20003 		movw	r3, #:lower16:USBFS_deviceStatus
 1270 01ae C0F20003 		movt	r3, #:upper16:USBFS_deviceStatus
 1271 01b2 1A70     		strb	r2, [r3, #0]
 1272              	.L73:
 575:.\Generated_Source\PSoC5/USBFS_std.c ****         }
 576:.\Generated_Source\PSoC5/USBFS_std.c ****         pTmp++;
 1273              		.loc 1 576 0
 1274 01b4 3B69     		ldr	r3, [r7, #16]
 1275 01b6 03F10803 		add	r3, r3, #8
 1276 01ba 3B61     		str	r3, [r7, #16]
 577:.\Generated_Source\PSoC5/USBFS_std.c ****         ep = pTmp->c;  /* For this table, c is the number of endpoints configurations  */
 1277              		.loc 1 577 0
 1278 01bc 3B69     		ldr	r3, [r7, #16]
 1279 01be 1B78     		ldrb	r3, [r3, #0]
 1280 01c0 3B72     		strb	r3, [r7, #8]
 578:.\Generated_Source\PSoC5/USBFS_std.c **** 
 579:.\Generated_Source\PSoC5/USBFS_std.c ****         #if ((USBFS_EP_MA == USBFS__MA_DYNAMIC) && \
 580:.\Generated_Source\PSoC5/USBFS_std.c ****              (USBFS_EP_MM == USBFS__EP_MANUAL) )
 581:.\Generated_Source\PSoC5/USBFS_std.c ****             /* Config for dynamic EP memory allocation */
 582:.\Generated_Source\PSoC5/USBFS_std.c ****             /* p_list points the endpoint setting table. */
 583:.\Generated_Source\PSoC5/USBFS_std.c ****             pEP = (T_USBFS_EP_SETTINGS_BLOCK *) pTmp->p_list;
 584:.\Generated_Source\PSoC5/USBFS_std.c ****             for (i = 0u; i < ep; i++, pEP++)
 585:.\Generated_Source\PSoC5/USBFS_std.c ****             {
 586:.\Generated_Source\PSoC5/USBFS_std.c ****                 /* compate current Alternate setting with EP Alt*/
 587:.\Generated_Source\PSoC5/USBFS_std.c ****                 if(USBFS_interfaceSetting[pEP->interface] == pEP->altSetting)
 588:.\Generated_Source\PSoC5/USBFS_std.c ****                 {
 589:.\Generated_Source\PSoC5/USBFS_std.c ****                     cur_ep = pEP->addr & USBFS_DIR_UNUSED;
 590:.\Generated_Source\PSoC5/USBFS_std.c ****                     iso  = ((pEP->attributes & USBFS_EP_TYPE_MASK) == USBFS_EP_TYPE_ISOC);
 591:.\Generated_Source\PSoC5/USBFS_std.c ****                     if (pEP->addr & USBFS_DIR_IN)
 592:.\Generated_Source\PSoC5/USBFS_std.c ****                     {
 593:.\Generated_Source\PSoC5/USBFS_std.c ****                         /* IN Endpoint */
ARM GAS  C:\DOCUME~1\ADMINI~1\LOCALS~1\Temp\ccmk5fwz.s 			page 34


 594:.\Generated_Source\PSoC5/USBFS_std.c ****                         USBFS_EP[cur_ep].apiEpState = USBFS_EVENT_PENDING;
 595:.\Generated_Source\PSoC5/USBFS_std.c ****                         USBFS_EP[cur_ep].epMode = \
 596:.\Generated_Source\PSoC5/USBFS_std.c ****                                                 (iso ? USBFS_MODE_ISO_IN : USBFS_MODE_ACK_IN);
 597:.\Generated_Source\PSoC5/USBFS_std.c ****                         #if defined(USBFS_ENABLE_CDC_CLASS)
 598:.\Generated_Source\PSoC5/USBFS_std.c ****                             if(((pEP->bMisc == USBFS_CLASS_CDC_DATA) ||
 599:.\Generated_Source\PSoC5/USBFS_std.c ****                                 (pEP->bMisc == USBFS_CLASS_CDC)) &&
 600:.\Generated_Source\PSoC5/USBFS_std.c ****                                 ((pEP->attributes & USBFS_EP_TYPE_MASK) != USBFS_EP_TYPE_INT))
 601:.\Generated_Source\PSoC5/USBFS_std.c ****                             {
 602:.\Generated_Source\PSoC5/USBFS_std.c ****                                 USBFS_cdc_data_in_ep = cur_ep;
 603:.\Generated_Source\PSoC5/USBFS_std.c ****                             }
 604:.\Generated_Source\PSoC5/USBFS_std.c ****                         #endif  /* End USBFS_ENABLE_CDC_CLASS*/
 605:.\Generated_Source\PSoC5/USBFS_std.c ****                         #if defined(USBFS_ENABLE_MIDI_STREAMING)
 606:.\Generated_Source\PSoC5/USBFS_std.c ****                             if((pEP->bMisc == USBFS_CLASS_AUDIO) &&
 607:.\Generated_Source\PSoC5/USBFS_std.c ****                                ((pEP->attributes & USBFS_EP_TYPE_MASK) == USBFS_EP_TYPE_BULK))
 608:.\Generated_Source\PSoC5/USBFS_std.c ****                             {
 609:.\Generated_Source\PSoC5/USBFS_std.c ****                                 USBFS_midi_in_ep = cur_ep;
 610:.\Generated_Source\PSoC5/USBFS_std.c ****                             }
 611:.\Generated_Source\PSoC5/USBFS_std.c ****                         #endif  /* End USBFS_ENABLE_MIDI_STREAMING*/
 612:.\Generated_Source\PSoC5/USBFS_std.c ****                     }
 613:.\Generated_Source\PSoC5/USBFS_std.c ****                     else
 614:.\Generated_Source\PSoC5/USBFS_std.c ****                     {
 615:.\Generated_Source\PSoC5/USBFS_std.c ****                         /* OUT Endpoint */
 616:.\Generated_Source\PSoC5/USBFS_std.c ****                         USBFS_EP[cur_ep].apiEpState = USBFS_NO_EVENT_PENDING;
 617:.\Generated_Source\PSoC5/USBFS_std.c ****                         USBFS_EP[cur_ep].epMode = \
 618:.\Generated_Source\PSoC5/USBFS_std.c ****                                                 (iso ? USBFS_MODE_ISO_OUT : USBFS_MODE_ACK_OUT);
 619:.\Generated_Source\PSoC5/USBFS_std.c ****                         #if defined(USBFS_ENABLE_CDC_CLASS)
 620:.\Generated_Source\PSoC5/USBFS_std.c ****                             if(((pEP->bMisc == USBFS_CLASS_CDC_DATA) ||
 621:.\Generated_Source\PSoC5/USBFS_std.c ****                                 (pEP->bMisc == USBFS_CLASS_CDC)) &&
 622:.\Generated_Source\PSoC5/USBFS_std.c ****                                 ((pEP->attributes & USBFS_EP_TYPE_MASK) != USBFS_EP_TYPE_INT))
 623:.\Generated_Source\PSoC5/USBFS_std.c ****                             {
 624:.\Generated_Source\PSoC5/USBFS_std.c ****                                 USBFS_cdc_data_out_ep = cur_ep;
 625:.\Generated_Source\PSoC5/USBFS_std.c ****                             }
 626:.\Generated_Source\PSoC5/USBFS_std.c ****                         #endif  /* End USBFS_ENABLE_CDC_CLASS*/
 627:.\Generated_Source\PSoC5/USBFS_std.c ****                         #if defined(USBFS_ENABLE_MIDI_STREAMING)
 628:.\Generated_Source\PSoC5/USBFS_std.c ****                             if((pEP->bMisc == USBFS_CLASS_AUDIO) &&
 629:.\Generated_Source\PSoC5/USBFS_std.c ****                                ((pEP->attributes & USBFS_EP_TYPE_MASK) == USBFS_EP_TYPE_BULK))
 630:.\Generated_Source\PSoC5/USBFS_std.c ****                             {
 631:.\Generated_Source\PSoC5/USBFS_std.c ****                                 USBFS_midi_out_ep = cur_ep;
 632:.\Generated_Source\PSoC5/USBFS_std.c ****                             }
 633:.\Generated_Source\PSoC5/USBFS_std.c ****                         #endif  /* End USBFS_ENABLE_MIDI_STREAMING*/
 634:.\Generated_Source\PSoC5/USBFS_std.c ****                     }
 635:.\Generated_Source\PSoC5/USBFS_std.c ****                     USBFS_EP[cur_ep].bufferSize = pEP->bufferSize;
 636:.\Generated_Source\PSoC5/USBFS_std.c ****                     USBFS_EP[cur_ep].addr = pEP->addr;
 637:.\Generated_Source\PSoC5/USBFS_std.c ****                     USBFS_EP[cur_ep].attrib = pEP->attributes;
 638:.\Generated_Source\PSoC5/USBFS_std.c ****                 }
 639:.\Generated_Source\PSoC5/USBFS_std.c ****             }
 640:.\Generated_Source\PSoC5/USBFS_std.c ****         #else /* Config for static EP memory allocation  */
 641:.\Generated_Source\PSoC5/USBFS_std.c ****             for (i = USBFS_EP1; i < USBFS_MAX_EP; i++)
 1281              		.loc 1 641 0
 1282 01c2 4FF00103 		mov	r3, #1
 1283 01c6 BB72     		strb	r3, [r7, #10]
 1284 01c8 CCE0     		b	.L74
 1285              	.L86:
 642:.\Generated_Source\PSoC5/USBFS_std.c ****             {
 643:.\Generated_Source\PSoC5/USBFS_std.c ****                 /* and p_list points the endpoint setting table. */
 644:.\Generated_Source\PSoC5/USBFS_std.c ****                 pEP = (T_USBFS_EP_SETTINGS_BLOCK *) pTmp->p_list;
 1286              		.loc 1 644 0
ARM GAS  C:\DOCUME~1\ADMINI~1\LOCALS~1\Temp\ccmk5fwz.s 			page 35


 1287 01ca 3B69     		ldr	r3, [r7, #16]
 1288 01cc 5B68     		ldr	r3, [r3, #4]
 1289 01ce 7B61     		str	r3, [r7, #20]
 645:.\Generated_Source\PSoC5/USBFS_std.c ****                 /* find max length for each EP and select it (length could be different in differen
 646:.\Generated_Source\PSoC5/USBFS_std.c ****                 /* but other settings should be correct with regards to Interface alt Setting */
 647:.\Generated_Source\PSoC5/USBFS_std.c ****                 for (cur_ep = 0u; cur_ep < ep; cur_ep++, pEP++)
 1290              		.loc 1 647 0
 1291 01d0 4FF00003 		mov	r3, #0
 1292 01d4 7B72     		strb	r3, [r7, #9]
 1293 01d6 BCE0     		b	.L75
 1294              	.L85:
 648:.\Generated_Source\PSoC5/USBFS_std.c ****                 {
 649:.\Generated_Source\PSoC5/USBFS_std.c ****                     /* EP count is equal to EP # in table and we found larger EP length than have b
 650:.\Generated_Source\PSoC5/USBFS_std.c ****                     if(i == (pEP->addr & USBFS_DIR_UNUSED))
 1295              		.loc 1 650 0
 1296 01d8 BA7A     		ldrb	r2, [r7, #10]	@ zero_extendqisi2
 1297 01da 7B69     		ldr	r3, [r7, #20]
 1298 01dc 9B78     		ldrb	r3, [r3, #2]	@ zero_extendqisi2
 1299 01de 03F07F03 		and	r3, r3, #127
 1300 01e2 9A42     		cmp	r2, r3
 1301 01e4 40F0AD80 		bne	.L76
 651:.\Generated_Source\PSoC5/USBFS_std.c ****                     {
 652:.\Generated_Source\PSoC5/USBFS_std.c ****                         if(USBFS_EP[i].bufferSize < pEP->bufferSize)
 1302              		.loc 1 652 0
 1303 01e8 B97A     		ldrb	r1, [r7, #10]	@ zero_extendqisi2
 1304 01ea 40F20002 		movw	r2, #:lower16:USBFS_EP
 1305 01ee C0F20002 		movt	r2, #:upper16:USBFS_EP
 1306 01f2 0B46     		mov	r3, r1
 1307 01f4 4FEA4303 		lsl	r3, r3, #1
 1308 01f8 0B44     		add	r3, r3, r1
 1309 01fa 4FEA8303 		lsl	r3, r3, #2
 1310 01fe 1344     		add	r3, r3, r2
 1311 0200 03F10803 		add	r3, r3, #8
 1312 0204 1B88     		ldrh	r3, [r3, #0]	@ movhi
 1313 0206 9AB2     		uxth	r2, r3
 1314 0208 7B69     		ldr	r3, [r7, #20]
 1315 020a 9B88     		ldrh	r3, [r3, #4]
 1316 020c 9A42     		cmp	r2, r3
 1317 020e 11D2     		bcs	.L77
 653:.\Generated_Source\PSoC5/USBFS_std.c ****                         {
 654:.\Generated_Source\PSoC5/USBFS_std.c ****                             USBFS_EP[i].bufferSize = pEP->bufferSize;
 1318              		.loc 1 654 0
 1319 0210 B97A     		ldrb	r1, [r7, #10]	@ zero_extendqisi2
 1320 0212 7B69     		ldr	r3, [r7, #20]
 1321 0214 9888     		ldrh	r0, [r3, #4]
 1322 0216 40F20002 		movw	r2, #:lower16:USBFS_EP
 1323 021a C0F20002 		movt	r2, #:upper16:USBFS_EP
 1324 021e 0B46     		mov	r3, r1
 1325 0220 4FEA4303 		lsl	r3, r3, #1
 1326 0224 0B44     		add	r3, r3, r1
 1327 0226 4FEA8303 		lsl	r3, r3, #2
 1328 022a 1344     		add	r3, r3, r2
 1329 022c 03F10803 		add	r3, r3, #8
 1330 0230 0246     		mov	r2, r0	@ movhi
 1331 0232 1A80     		strh	r2, [r3, #0]	@ movhi
 1332              	.L77:
 655:.\Generated_Source\PSoC5/USBFS_std.c ****                         }
ARM GAS  C:\DOCUME~1\ADMINI~1\LOCALS~1\Temp\ccmk5fwz.s 			page 36


 656:.\Generated_Source\PSoC5/USBFS_std.c ****                         /* compate current Alternate setting with EP Alt*/
 657:.\Generated_Source\PSoC5/USBFS_std.c ****                         if(USBFS_interfaceSetting[pEP->interface] == pEP->altSetting)
 1333              		.loc 1 657 0
 1334 0234 7B69     		ldr	r3, [r7, #20]
 1335 0236 1B78     		ldrb	r3, [r3, #0]	@ zero_extendqisi2
 1336 0238 1A46     		mov	r2, r3
 1337 023a 40F20003 		movw	r3, #:lower16:USBFS_interfaceSetting
 1338 023e C0F20003 		movt	r3, #:upper16:USBFS_interfaceSetting
 1339 0242 9B5C     		ldrb	r3, [r3, r2]
 1340 0244 DAB2     		uxtb	r2, r3
 1341 0246 7B69     		ldr	r3, [r7, #20]
 1342 0248 5B78     		ldrb	r3, [r3, #1]	@ zero_extendqisi2
 1343 024a 9A42     		cmp	r2, r3
 1344 024c 79D1     		bne	.L76
 658:.\Generated_Source\PSoC5/USBFS_std.c ****                         {
 659:.\Generated_Source\PSoC5/USBFS_std.c ****                             iso  = ((pEP->attributes & USBFS_EP_TYPE_MASK) == USBFS_EP_TYPE_ISOC);
 1345              		.loc 1 659 0
 1346 024e 7B69     		ldr	r3, [r7, #20]
 1347 0250 DB78     		ldrb	r3, [r3, #3]	@ zero_extendqisi2
 1348 0252 03F00303 		and	r3, r3, #3
 1349 0256 012B     		cmp	r3, #1
 1350 0258 14BF     		ite	ne
 1351 025a 0023     		movne	r3, #0
 1352 025c 0123     		moveq	r3, #1
 1353 025e FB72     		strb	r3, [r7, #11]
 660:.\Generated_Source\PSoC5/USBFS_std.c ****                             if (pEP->addr & USBFS_DIR_IN)
 1354              		.loc 1 660 0
 1355 0260 7B69     		ldr	r3, [r7, #20]
 1356 0262 9B78     		ldrb	r3, [r3, #2]	@ zero_extendqisi2
 1357 0264 5BB2     		sxtb	r3, r3
 1358 0266 002B     		cmp	r3, #0
 1359 0268 25DA     		bge	.L78
 661:.\Generated_Source\PSoC5/USBFS_std.c ****                             {
 662:.\Generated_Source\PSoC5/USBFS_std.c ****                                 /* IN Endpoint */
 663:.\Generated_Source\PSoC5/USBFS_std.c ****                                 USBFS_EP[i].apiEpState = USBFS_EVENT_PENDING;
 1360              		.loc 1 663 0
 1361 026a B97A     		ldrb	r1, [r7, #10]	@ zero_extendqisi2
 1362 026c 40F20002 		movw	r2, #:lower16:USBFS_EP
 1363 0270 C0F20002 		movt	r2, #:upper16:USBFS_EP
 1364 0274 0B46     		mov	r3, r1
 1365 0276 4FEA4303 		lsl	r3, r3, #1
 1366 027a 0B44     		add	r3, r3, r1
 1367 027c 4FEA8303 		lsl	r3, r3, #2
 1368 0280 1344     		add	r3, r3, r2
 1369 0282 4FF00102 		mov	r2, #1
 1370 0286 5A70     		strb	r2, [r3, #1]
 664:.\Generated_Source\PSoC5/USBFS_std.c ****                                 USBFS_EP[i].epMode =
 1371              		.loc 1 664 0
 1372 0288 B87A     		ldrb	r0, [r7, #10]	@ zero_extendqisi2
 1373 028a FB7A     		ldrb	r3, [r7, #11]	@ zero_extendqisi2
 1374 028c 002B     		cmp	r3, #0
 1375 028e 02D0     		beq	.L79
 1376 0290 4FF00701 		mov	r1, #7
 1377 0294 01E0     		b	.L80
 1378              	.L79:
 1379 0296 4FF00D01 		mov	r1, #13
 1380              	.L80:
ARM GAS  C:\DOCUME~1\ADMINI~1\LOCALS~1\Temp\ccmk5fwz.s 			page 37


 1381 029a 40F20002 		movw	r2, #:lower16:USBFS_EP
 1382 029e C0F20002 		movt	r2, #:upper16:USBFS_EP
 1383 02a2 0346     		mov	r3, r0
 1384 02a4 4FEA4303 		lsl	r3, r3, #1
 1385 02a8 0344     		add	r3, r3, r0
 1386 02aa 4FEA8303 		lsl	r3, r3, #2
 1387 02ae 1344     		add	r3, r3, r2
 1388 02b0 0A46     		mov	r2, r1
 1389 02b2 5A71     		strb	r2, [r3, #5]
 1390 02b4 24E0     		b	.L81
 1391              	.L78:
 665:.\Generated_Source\PSoC5/USBFS_std.c ****                                                     (iso ? USBFS_MODE_ISO_IN : USBFS_MODE_ACK_IN);
 666:.\Generated_Source\PSoC5/USBFS_std.c ****                                 /* Find and init CDC IN endpoint number */
 667:.\Generated_Source\PSoC5/USBFS_std.c ****                                 #if defined(USBFS_ENABLE_CDC_CLASS)
 668:.\Generated_Source\PSoC5/USBFS_std.c ****                                     if(((pEP->bMisc == USBFS_CLASS_CDC_DATA) ||
 669:.\Generated_Source\PSoC5/USBFS_std.c ****                                         (pEP->bMisc == USBFS_CLASS_CDC)) &&
 670:.\Generated_Source\PSoC5/USBFS_std.c ****                                         ((pEP->attributes & USBFS_EP_TYPE_MASK) !=
 671:.\Generated_Source\PSoC5/USBFS_std.c ****                                                                                         USBFS_EP_TY
 672:.\Generated_Source\PSoC5/USBFS_std.c ****                                     {
 673:.\Generated_Source\PSoC5/USBFS_std.c ****                                         USBFS_cdc_data_in_ep = i;
 674:.\Generated_Source\PSoC5/USBFS_std.c ****                                     }
 675:.\Generated_Source\PSoC5/USBFS_std.c ****                                 #endif  /* End USBFS_ENABLE_CDC_CLASS*/
 676:.\Generated_Source\PSoC5/USBFS_std.c ****                                 #if defined(USBFS_ENABLE_MIDI_STREAMING)
 677:.\Generated_Source\PSoC5/USBFS_std.c ****                                     if((pEP->bMisc == USBFS_CLASS_AUDIO) &&
 678:.\Generated_Source\PSoC5/USBFS_std.c ****                                        ((pEP->attributes & USBFS_EP_TYPE_MASK) ==
 679:.\Generated_Source\PSoC5/USBFS_std.c ****                                                                                         USBFS_EP_TY
 680:.\Generated_Source\PSoC5/USBFS_std.c ****                                     {
 681:.\Generated_Source\PSoC5/USBFS_std.c ****                                         USBFS_midi_in_ep = i;
 682:.\Generated_Source\PSoC5/USBFS_std.c ****                                     }
 683:.\Generated_Source\PSoC5/USBFS_std.c ****                                 #endif  /* End USBFS_ENABLE_MIDI_STREAMING*/
 684:.\Generated_Source\PSoC5/USBFS_std.c ****                             }
 685:.\Generated_Source\PSoC5/USBFS_std.c ****                             else
 686:.\Generated_Source\PSoC5/USBFS_std.c ****                             {
 687:.\Generated_Source\PSoC5/USBFS_std.c ****                                 /* OUT Endpoint */
 688:.\Generated_Source\PSoC5/USBFS_std.c ****                                 USBFS_EP[i].apiEpState = USBFS_NO_EVENT_PENDING;
 1392              		.loc 1 688 0
 1393 02b6 B97A     		ldrb	r1, [r7, #10]	@ zero_extendqisi2
 1394 02b8 40F20002 		movw	r2, #:lower16:USBFS_EP
 1395 02bc C0F20002 		movt	r2, #:upper16:USBFS_EP
 1396 02c0 0B46     		mov	r3, r1
 1397 02c2 4FEA4303 		lsl	r3, r3, #1
 1398 02c6 0B44     		add	r3, r3, r1
 1399 02c8 4FEA8303 		lsl	r3, r3, #2
 1400 02cc 1344     		add	r3, r3, r2
 1401 02ce 4FF00002 		mov	r2, #0
 1402 02d2 5A70     		strb	r2, [r3, #1]
 689:.\Generated_Source\PSoC5/USBFS_std.c ****                                 USBFS_EP[i].epMode =
 1403              		.loc 1 689 0
 1404 02d4 B87A     		ldrb	r0, [r7, #10]	@ zero_extendqisi2
 1405 02d6 FB7A     		ldrb	r3, [r7, #11]	@ zero_extendqisi2
 1406 02d8 002B     		cmp	r3, #0
 1407 02da 02D0     		beq	.L82
 1408 02dc 4FF00501 		mov	r1, #5
 1409 02e0 01E0     		b	.L83
 1410              	.L82:
 1411 02e2 4FF00901 		mov	r1, #9
 1412              	.L83:
ARM GAS  C:\DOCUME~1\ADMINI~1\LOCALS~1\Temp\ccmk5fwz.s 			page 38


 1413 02e6 40F20002 		movw	r2, #:lower16:USBFS_EP
 1414 02ea C0F20002 		movt	r2, #:upper16:USBFS_EP
 1415 02ee 0346     		mov	r3, r0
 1416 02f0 4FEA4303 		lsl	r3, r3, #1
 1417 02f4 0344     		add	r3, r3, r0
 1418 02f6 4FEA8303 		lsl	r3, r3, #2
 1419 02fa 1344     		add	r3, r3, r2
 1420 02fc 0A46     		mov	r2, r1
 1421 02fe 5A71     		strb	r2, [r3, #5]
 1422              	.L81:
 690:.\Generated_Source\PSoC5/USBFS_std.c ****                                                 (iso ? USBFS_MODE_ISO_OUT : USBFS_MODE_ACK_OUT);
 691:.\Generated_Source\PSoC5/USBFS_std.c ****                                 /* Find and init CDC IN endpoint number */
 692:.\Generated_Source\PSoC5/USBFS_std.c ****                                 #if defined(USBFS_ENABLE_CDC_CLASS)
 693:.\Generated_Source\PSoC5/USBFS_std.c ****                                     if(((pEP->bMisc == USBFS_CLASS_CDC_DATA) ||
 694:.\Generated_Source\PSoC5/USBFS_std.c ****                                         (pEP->bMisc == USBFS_CLASS_CDC)) &&
 695:.\Generated_Source\PSoC5/USBFS_std.c ****                                         ((pEP->attributes & USBFS_EP_TYPE_MASK) !=
 696:.\Generated_Source\PSoC5/USBFS_std.c ****                                                                                     USBFS_EP_TYPE_I
 697:.\Generated_Source\PSoC5/USBFS_std.c ****                                     {
 698:.\Generated_Source\PSoC5/USBFS_std.c ****                                         USBFS_cdc_data_out_ep = i;
 699:.\Generated_Source\PSoC5/USBFS_std.c ****                                     }
 700:.\Generated_Source\PSoC5/USBFS_std.c ****                                 #endif  /* End USBFS_ENABLE_CDC_CLASS*/
 701:.\Generated_Source\PSoC5/USBFS_std.c ****                                 #if defined(USBFS_ENABLE_MIDI_STREAMING)
 702:.\Generated_Source\PSoC5/USBFS_std.c ****                                     if((pEP->bMisc == USBFS_CLASS_AUDIO) &&
 703:.\Generated_Source\PSoC5/USBFS_std.c ****                                        ((pEP->attributes & USBFS_EP_TYPE_MASK) ==
 704:.\Generated_Source\PSoC5/USBFS_std.c ****                                                                                         USBFS_EP_TY
 705:.\Generated_Source\PSoC5/USBFS_std.c ****                                     {
 706:.\Generated_Source\PSoC5/USBFS_std.c ****                                         USBFS_midi_out_ep = i;
 707:.\Generated_Source\PSoC5/USBFS_std.c ****                                     }
 708:.\Generated_Source\PSoC5/USBFS_std.c ****                                 #endif  /* End USBFS_ENABLE_MIDI_STREAMING*/
 709:.\Generated_Source\PSoC5/USBFS_std.c ****                             }
 710:.\Generated_Source\PSoC5/USBFS_std.c ****                             USBFS_EP[i].addr = pEP->addr;
 1423              		.loc 1 710 0
 1424 0300 B97A     		ldrb	r1, [r7, #10]	@ zero_extendqisi2
 1425 0302 7B69     		ldr	r3, [r7, #20]
 1426 0304 9878     		ldrb	r0, [r3, #2]	@ zero_extendqisi2
 1427 0306 40F20002 		movw	r2, #:lower16:USBFS_EP
 1428 030a C0F20002 		movt	r2, #:upper16:USBFS_EP
 1429 030e 0B46     		mov	r3, r1
 1430 0310 4FEA4303 		lsl	r3, r3, #1
 1431 0314 0B44     		add	r3, r3, r1
 1432 0316 4FEA8303 		lsl	r3, r3, #2
 1433 031a 1344     		add	r3, r3, r2
 1434 031c 0246     		mov	r2, r0
 1435 031e 1A71     		strb	r2, [r3, #4]
 711:.\Generated_Source\PSoC5/USBFS_std.c ****                             USBFS_EP[i].attrib = pEP->attributes;
 1436              		.loc 1 711 0
 1437 0320 B97A     		ldrb	r1, [r7, #10]	@ zero_extendqisi2
 1438 0322 7B69     		ldr	r3, [r7, #20]
 1439 0324 D878     		ldrb	r0, [r3, #3]	@ zero_extendqisi2
 1440 0326 40F20002 		movw	r2, #:lower16:USBFS_EP
 1441 032a C0F20002 		movt	r2, #:upper16:USBFS_EP
 1442 032e 0B46     		mov	r3, r1
 1443 0330 4FEA4303 		lsl	r3, r3, #1
 1444 0334 0B44     		add	r3, r3, r1
 1445 0336 4FEA8303 		lsl	r3, r3, #2
 1446 033a 1344     		add	r3, r3, r2
 1447 033c 0246     		mov	r2, r0
ARM GAS  C:\DOCUME~1\ADMINI~1\LOCALS~1\Temp\ccmk5fwz.s 			page 39


 1448 033e 1A70     		strb	r2, [r3, #0]
 712:.\Generated_Source\PSoC5/USBFS_std.c **** 
 713:.\Generated_Source\PSoC5/USBFS_std.c ****                             #if(USBFS_EP_MM == USBFS__EP_DMAAUTO)
 714:.\Generated_Source\PSoC5/USBFS_std.c ****                                 break;      /* use first EP setting in Auto memory managment */
 1449              		.loc 1 714 0
 1450 0340 0CE0     		b	.L84
 1451              	.L76:
 1452              		.loc 1 647 0
 1453 0342 7B7A     		ldrb	r3, [r7, #9]
 1454 0344 03F10103 		add	r3, r3, #1
 1455 0348 7B72     		strb	r3, [r7, #9]
 1456 034a 7B69     		ldr	r3, [r7, #20]
 1457 034c 03F10803 		add	r3, r3, #8
 1458 0350 7B61     		str	r3, [r7, #20]
 1459              	.L75:
 1460 0352 7A7A     		ldrb	r2, [r7, #9]	@ zero_extendqisi2
 1461 0354 3B7A     		ldrb	r3, [r7, #8]	@ zero_extendqisi2
 1462 0356 9A42     		cmp	r2, r3
 1463 0358 FFF43EAF 		bcc	.L85
 1464              	.L84:
 1465              		.loc 1 641 0
 1466 035c BB7A     		ldrb	r3, [r7, #10]
 1467 035e 03F10103 		add	r3, r3, #1
 1468 0362 BB72     		strb	r3, [r7, #10]
 1469              	.L74:
 1470 0364 BB7A     		ldrb	r3, [r7, #10]	@ zero_extendqisi2
 1471 0366 082B     		cmp	r3, #8
 1472 0368 7FF62FAF 		bls	.L86
 715:.\Generated_Source\PSoC5/USBFS_std.c ****                             #endif /* End USBFS_EP_MM == USBFS__EP_DMAAUTO */
 716:.\Generated_Source\PSoC5/USBFS_std.c ****                         }
 717:.\Generated_Source\PSoC5/USBFS_std.c ****                     }
 718:.\Generated_Source\PSoC5/USBFS_std.c ****                 }
 719:.\Generated_Source\PSoC5/USBFS_std.c ****             }
 720:.\Generated_Source\PSoC5/USBFS_std.c ****         #endif /* End (USBFS_EP_MA == USBFS__MA_DYNAMIC) */
 721:.\Generated_Source\PSoC5/USBFS_std.c **** 
 722:.\Generated_Source\PSoC5/USBFS_std.c ****         /* Init class array for each interface and interface number for each EP.
 723:.\Generated_Source\PSoC5/USBFS_std.c ****         *  It is used for hangling Class specific requests directed to either an
 724:.\Generated_Source\PSoC5/USBFS_std.c ****         *  interface or the endpoint.
 725:.\Generated_Source\PSoC5/USBFS_std.c ****         */
 726:.\Generated_Source\PSoC5/USBFS_std.c ****         /* p_list points the endpoint setting table. */
 727:.\Generated_Source\PSoC5/USBFS_std.c ****         pEP = (T_USBFS_EP_SETTINGS_BLOCK *) pTmp->p_list;
 1473              		.loc 1 727 0
 1474 036c 3B69     		ldr	r3, [r7, #16]
 1475 036e 5B68     		ldr	r3, [r3, #4]
 1476 0370 7B61     		str	r3, [r7, #20]
 728:.\Generated_Source\PSoC5/USBFS_std.c ****         for (i = 0u; i < ep; i++, pEP++)
 1477              		.loc 1 728 0
 1478 0372 4FF00003 		mov	r3, #0
 1479 0376 BB72     		strb	r3, [r7, #10]
 1480 0378 1CE0     		b	.L87
 1481              	.L88:
 729:.\Generated_Source\PSoC5/USBFS_std.c ****         {
 730:.\Generated_Source\PSoC5/USBFS_std.c ****             /* config interface number for each EP*/
 731:.\Generated_Source\PSoC5/USBFS_std.c ****             USBFS_EP[pEP->addr & USBFS_DIR_UNUSED].interface = pEP->interface;
 1482              		.loc 1 731 0
 1483 037a 7B69     		ldr	r3, [r7, #20]
 1484 037c 9B78     		ldrb	r3, [r3, #2]	@ zero_extendqisi2
ARM GAS  C:\DOCUME~1\ADMINI~1\LOCALS~1\Temp\ccmk5fwz.s 			page 40


 1485 037e 03F07F01 		and	r1, r3, #127
 1486 0382 7B69     		ldr	r3, [r7, #20]
 1487 0384 1878     		ldrb	r0, [r3, #0]	@ zero_extendqisi2
 1488 0386 40F20002 		movw	r2, #:lower16:USBFS_EP
 1489 038a C0F20002 		movt	r2, #:upper16:USBFS_EP
 1490 038e 0B46     		mov	r3, r1
 1491 0390 4FEA4303 		lsl	r3, r3, #1
 1492 0394 0B44     		add	r3, r3, r1
 1493 0396 4FEA8303 		lsl	r3, r3, #2
 1494 039a 1344     		add	r3, r3, r2
 1495 039c 03F10803 		add	r3, r3, #8
 1496 03a0 0246     		mov	r2, r0
 1497 03a2 9A70     		strb	r2, [r3, #2]
 1498              		.loc 1 728 0
 1499 03a4 BB7A     		ldrb	r3, [r7, #10]
 1500 03a6 03F10103 		add	r3, r3, #1
 1501 03aa BB72     		strb	r3, [r7, #10]
 1502 03ac 7B69     		ldr	r3, [r7, #20]
 1503 03ae 03F10803 		add	r3, r3, #8
 1504 03b2 7B61     		str	r3, [r7, #20]
 1505              	.L87:
 1506 03b4 BA7A     		ldrb	r2, [r7, #10]	@ zero_extendqisi2
 1507 03b6 3B7A     		ldrb	r3, [r7, #8]	@ zero_extendqisi2
 1508 03b8 9A42     		cmp	r2, r3
 1509 03ba DED3     		bcc	.L88
 732:.\Generated_Source\PSoC5/USBFS_std.c ****         }
 733:.\Generated_Source\PSoC5/USBFS_std.c ****         /* init pointer on interface class table*/
 734:.\Generated_Source\PSoC5/USBFS_std.c ****         USBFS_interfaceClass = USBFS_GetInterfaceClassTablePtr();
 1510              		.loc 1 734 0
 1511 03bc FFF7FEFF 		bl	USBFS_GetInterfaceClassTablePtr
 1512 03c0 0246     		mov	r2, r0
 1513 03c2 40F20003 		movw	r3, #:lower16:USBFS_interfaceClass
 1514 03c6 C0F20003 		movt	r3, #:upper16:USBFS_interfaceClass
 1515 03ca 1A60     		str	r2, [r3, #0]
 735:.\Generated_Source\PSoC5/USBFS_std.c ****         /* Set the endpoint buffer addresses */
 736:.\Generated_Source\PSoC5/USBFS_std.c ****         
 737:.\Generated_Source\PSoC5/USBFS_std.c ****         #if(USBFS_EP_MM != USBFS__EP_DMAAUTO)
 738:.\Generated_Source\PSoC5/USBFS_std.c ****             for (ep = USBFS_EP1; ep < USBFS_MAX_EP; ep++)
 739:.\Generated_Source\PSoC5/USBFS_std.c ****             {
 740:.\Generated_Source\PSoC5/USBFS_std.c ****                 USBFS_EP[ep].buffOffset = count;
 741:.\Generated_Source\PSoC5/USBFS_std.c ****                  count += USBFS_EP[ep].bufferSize;
 742:.\Generated_Source\PSoC5/USBFS_std.c ****             }
 743:.\Generated_Source\PSoC5/USBFS_std.c ****         #endif /* End USBFS_EP_MM != USBFS__EP_DMAAUTO */
 744:.\Generated_Source\PSoC5/USBFS_std.c **** 
 745:.\Generated_Source\PSoC5/USBFS_std.c ****         /* Congigure hardware registers */
 746:.\Generated_Source\PSoC5/USBFS_std.c ****         USBFS_ConfigReg();
 1516              		.loc 1 746 0
 1517 03cc FFF7FEFF 		bl	USBFS_ConfigReg
 1518              	.L89:
 747:.\Generated_Source\PSoC5/USBFS_std.c ****     } /* USBFS_configuration > 0 */
 748:.\Generated_Source\PSoC5/USBFS_std.c **** }
 1519              		.loc 1 748 0
 1520 03d0 07F11807 		add	r7, r7, #24
 1521 03d4 BD46     		mov	sp, r7
 1522 03d6 80BD     		pop	{r7, pc}
 1523              		.cfi_endproc
 1524              	.LFE4:
ARM GAS  C:\DOCUME~1\ADMINI~1\LOCALS~1\Temp\ccmk5fwz.s 			page 41


 1525              		.size	USBFS_Config, .-USBFS_Config
 1526              		.section	.text.USBFS_ConfigAltChanged,"ax",%progbits
 1527              		.align	2
 1528              		.global	USBFS_ConfigAltChanged
 1529              		.thumb
 1530              		.thumb_func
 1531              		.type	USBFS_ConfigAltChanged, %function
 1532              	USBFS_ConfigAltChanged:
 1533              	.LFB5:
 749:.\Generated_Source\PSoC5/USBFS_std.c **** 
 750:.\Generated_Source\PSoC5/USBFS_std.c **** 
 751:.\Generated_Source\PSoC5/USBFS_std.c **** /*******************************************************************************
 752:.\Generated_Source\PSoC5/USBFS_std.c **** * Function Name: USBFS_ConfigAltChanged
 753:.\Generated_Source\PSoC5/USBFS_std.c **** ********************************************************************************
 754:.\Generated_Source\PSoC5/USBFS_std.c **** *
 755:.\Generated_Source\PSoC5/USBFS_std.c **** * Summary:
 756:.\Generated_Source\PSoC5/USBFS_std.c **** *  This routine undate configuration for the required endpoints only.
 757:.\Generated_Source\PSoC5/USBFS_std.c **** *  It is called after SET_INTERFACE request when Static memory allocation used.
 758:.\Generated_Source\PSoC5/USBFS_std.c **** *
 759:.\Generated_Source\PSoC5/USBFS_std.c **** * Parameters:
 760:.\Generated_Source\PSoC5/USBFS_std.c **** *  None.
 761:.\Generated_Source\PSoC5/USBFS_std.c **** *
 762:.\Generated_Source\PSoC5/USBFS_std.c **** * Return:
 763:.\Generated_Source\PSoC5/USBFS_std.c **** *  None.
 764:.\Generated_Source\PSoC5/USBFS_std.c **** *
 765:.\Generated_Source\PSoC5/USBFS_std.c **** * Reentrant:
 766:.\Generated_Source\PSoC5/USBFS_std.c **** *  No.
 767:.\Generated_Source\PSoC5/USBFS_std.c **** *
 768:.\Generated_Source\PSoC5/USBFS_std.c **** *******************************************************************************/
 769:.\Generated_Source\PSoC5/USBFS_std.c **** void USBFS_ConfigAltChanged() 
 770:.\Generated_Source\PSoC5/USBFS_std.c **** {
 1534              		.loc 1 770 0
 1535              		.cfi_startproc
 1536              		@ args = 0, pretend = 0, frame = 16
 1537              		@ frame_needed = 1, uses_anonymous_args = 0
 1538 0000 80B5     		push	{r7, lr}
 1539              	.LCFI15:
 1540              		.cfi_def_cfa_offset 8
 1541 0002 84B0     		sub	sp, sp, #16
 1542              	.LCFI16:
 1543              		.cfi_def_cfa_offset 24
 1544 0004 00AF     		add	r7, sp, #0
 1545              		.cfi_offset 14, -4
 1546              		.cfi_offset 7, -8
 1547              	.LCFI17:
 1548              		.cfi_def_cfa_register 7
 771:.\Generated_Source\PSoC5/USBFS_std.c ****     uint8 ep,cur_ep,i;
 772:.\Generated_Source\PSoC5/USBFS_std.c ****     uint8 iso;
 773:.\Generated_Source\PSoC5/USBFS_std.c ****     uint8 ri;
 774:.\Generated_Source\PSoC5/USBFS_std.c **** 
 775:.\Generated_Source\PSoC5/USBFS_std.c ****     T_USBFS_LUT *pTmp;
 776:.\Generated_Source\PSoC5/USBFS_std.c ****     T_USBFS_EP_SETTINGS_BLOCK *pEP;
 777:.\Generated_Source\PSoC5/USBFS_std.c **** 
 778:.\Generated_Source\PSoC5/USBFS_std.c **** 
 779:.\Generated_Source\PSoC5/USBFS_std.c ****     /* Init Endpoints and Device Status if configured */
 780:.\Generated_Source\PSoC5/USBFS_std.c ****     if(USBFS_configuration > 0u)
 1549              		.loc 1 780 0
ARM GAS  C:\DOCUME~1\ADMINI~1\LOCALS~1\Temp\ccmk5fwz.s 			page 42


 1550 0006 40F20003 		movw	r3, #:lower16:USBFS_configuration
 1551 000a C0F20003 		movt	r3, #:upper16:USBFS_configuration
 1552 000e 1B78     		ldrb	r3, [r3, #0]
 1553 0010 DBB2     		uxtb	r3, r3
 1554 0012 002B     		cmp	r3, #0
 1555 0014 00F07D81 		beq	.L104
 781:.\Generated_Source\PSoC5/USBFS_std.c ****     {
 782:.\Generated_Source\PSoC5/USBFS_std.c ****         pTmp = USBFS_GetConfigTablePtr(USBFS_configuration - 1u);
 1556              		.loc 1 782 0
 1557 0018 40F20003 		movw	r3, #:lower16:USBFS_configuration
 1558 001c C0F20003 		movt	r3, #:upper16:USBFS_configuration
 1559 0020 1B78     		ldrb	r3, [r3, #0]
 1560 0022 DBB2     		uxtb	r3, r3
 1561 0024 03F1FF33 		add	r3, r3, #-1
 1562 0028 DBB2     		uxtb	r3, r3
 1563 002a 1846     		mov	r0, r3
 1564 002c FFF7FEFF 		bl	USBFS_GetConfigTablePtr
 1565 0030 0346     		mov	r3, r0
 1566 0032 BB60     		str	r3, [r7, #8]
 783:.\Generated_Source\PSoC5/USBFS_std.c ****         pTmp++;
 1567              		.loc 1 783 0
 1568 0034 BB68     		ldr	r3, [r7, #8]
 1569 0036 03F10803 		add	r3, r3, #8
 1570 003a BB60     		str	r3, [r7, #8]
 784:.\Generated_Source\PSoC5/USBFS_std.c ****         ep = pTmp->c;  /* For this table, c is the number of endpoints configurations  */
 1571              		.loc 1 784 0
 1572 003c BB68     		ldr	r3, [r7, #8]
 1573 003e 1B78     		ldrb	r3, [r3, #0]
 1574 0040 FB70     		strb	r3, [r7, #3]
 785:.\Generated_Source\PSoC5/USBFS_std.c **** 
 786:.\Generated_Source\PSoC5/USBFS_std.c ****         /* Do not touch EP wich doesn't need reconfiguration */
 787:.\Generated_Source\PSoC5/USBFS_std.c ****         /* When Alt setting chaged, the only required endpoints need to be reconfigured */
 788:.\Generated_Source\PSoC5/USBFS_std.c ****         /* p_list points the endpoint setting table. */
 789:.\Generated_Source\PSoC5/USBFS_std.c ****         pEP = (T_USBFS_EP_SETTINGS_BLOCK *) pTmp->p_list;
 1575              		.loc 1 789 0
 1576 0042 BB68     		ldr	r3, [r7, #8]
 1577 0044 5B68     		ldr	r3, [r3, #4]
 1578 0046 FB60     		str	r3, [r7, #12]
 790:.\Generated_Source\PSoC5/USBFS_std.c ****         for (i = 0u; i < ep; i++, pEP++)
 1579              		.loc 1 790 0
 1580 0048 4FF00003 		mov	r3, #0
 1581 004c 7B71     		strb	r3, [r7, #5]
 1582 004e 5BE1     		b	.L92
 1583              	.L103:
 791:.\Generated_Source\PSoC5/USBFS_std.c ****         {
 792:.\Generated_Source\PSoC5/USBFS_std.c ****             /*If Alt setting changed and new is same with EP Alt */
 793:.\Generated_Source\PSoC5/USBFS_std.c ****             if((USBFS_interfaceSetting[pEP->interface] !=
 1584              		.loc 1 793 0
 1585 0050 FB68     		ldr	r3, [r7, #12]
 1586 0052 1B78     		ldrb	r3, [r3, #0]	@ zero_extendqisi2
 1587 0054 1A46     		mov	r2, r3
 1588 0056 40F20003 		movw	r3, #:lower16:USBFS_interfaceSetting
 1589 005a C0F20003 		movt	r3, #:upper16:USBFS_interfaceSetting
 1590 005e 9B5C     		ldrb	r3, [r3, r2]
 1591 0060 DAB2     		uxtb	r2, r3
 794:.\Generated_Source\PSoC5/USBFS_std.c ****                 USBFS_interfaceSetting_last[pEP->interface] ) &&
 1592              		.loc 1 794 0
ARM GAS  C:\DOCUME~1\ADMINI~1\LOCALS~1\Temp\ccmk5fwz.s 			page 43


 1593 0062 FB68     		ldr	r3, [r7, #12]
 1594 0064 1B78     		ldrb	r3, [r3, #0]	@ zero_extendqisi2
 1595              		.loc 1 793 0
 1596 0066 1946     		mov	r1, r3
 1597              		.loc 1 794 0
 1598 0068 40F20003 		movw	r3, #:lower16:USBFS_interfaceSetting_last
 1599 006c C0F20003 		movt	r3, #:upper16:USBFS_interfaceSetting_last
 1600 0070 5B5C     		ldrb	r3, [r3, r1]
 1601 0072 DBB2     		uxtb	r3, r3
 1602              		.loc 1 793 0
 1603 0074 9A42     		cmp	r2, r3
 1604 0076 00F03F81 		beq	.L93
 795:.\Generated_Source\PSoC5/USBFS_std.c ****                (USBFS_interfaceSetting[pEP->interface] == pEP->altSetting) &&
 1605              		.loc 1 795 0
 1606 007a FB68     		ldr	r3, [r7, #12]
 1607 007c 1B78     		ldrb	r3, [r3, #0]	@ zero_extendqisi2
 1608 007e 1A46     		mov	r2, r3
 1609 0080 40F20003 		movw	r3, #:lower16:USBFS_interfaceSetting
 1610 0084 C0F20003 		movt	r3, #:upper16:USBFS_interfaceSetting
 1611 0088 9B5C     		ldrb	r3, [r3, r2]
 1612 008a DAB2     		uxtb	r2, r3
 1613 008c FB68     		ldr	r3, [r7, #12]
 1614 008e 5B78     		ldrb	r3, [r3, #1]	@ zero_extendqisi2
 1615              		.loc 1 793 0
 1616 0090 9A42     		cmp	r2, r3
 1617 0092 40F03181 		bne	.L93
 796:.\Generated_Source\PSoC5/USBFS_std.c ****                 pEP->interface == CY_GET_REG8(USBFS_wIndexLo))
 1618              		.loc 1 796 0
 1619 0096 FB68     		ldr	r3, [r7, #12]
 1620 0098 1A78     		ldrb	r2, [r3, #0]	@ zero_extendqisi2
 1621 009a 46F20403 		movw	r3, #:lower16:1073766404
 1622 009e C4F20003 		movt	r3, #:upper16:1073766404
 1623 00a2 1B78     		ldrb	r3, [r3, #0]
 1624 00a4 DBB2     		uxtb	r3, r3
 1625              		.loc 1 793 0
 1626 00a6 9A42     		cmp	r2, r3
 1627 00a8 40F02681 		bne	.L93
 797:.\Generated_Source\PSoC5/USBFS_std.c ****             {
 798:.\Generated_Source\PSoC5/USBFS_std.c ****                 cur_ep = pEP->addr & USBFS_DIR_UNUSED;
 1628              		.loc 1 798 0
 1629 00ac FB68     		ldr	r3, [r7, #12]
 1630 00ae 9B78     		ldrb	r3, [r3, #2]	@ zero_extendqisi2
 1631 00b0 03F07F03 		and	r3, r3, #127
 1632 00b4 3B71     		strb	r3, [r7, #4]
 799:.\Generated_Source\PSoC5/USBFS_std.c ****                 ri = ((cur_ep - USBFS_EP1) << USBFS_EPX_CNTX_ADDR_SHIFT);
 1633              		.loc 1 799 0
 1634 00b6 3B79     		ldrb	r3, [r7, #4]
 1635 00b8 03F1FF33 		add	r3, r3, #-1
 1636 00bc DBB2     		uxtb	r3, r3
 1637 00be 4FEA0313 		lsl	r3, r3, #4
 1638 00c2 FB71     		strb	r3, [r7, #7]
 800:.\Generated_Source\PSoC5/USBFS_std.c ****                 iso  = ((pEP->attributes & USBFS_EP_TYPE_MASK) == USBFS_EP_TYPE_ISOC);
 1639              		.loc 1 800 0
 1640 00c4 FB68     		ldr	r3, [r7, #12]
 1641 00c6 DB78     		ldrb	r3, [r3, #3]	@ zero_extendqisi2
 1642 00c8 03F00303 		and	r3, r3, #3
 1643 00cc 012B     		cmp	r3, #1
ARM GAS  C:\DOCUME~1\ADMINI~1\LOCALS~1\Temp\ccmk5fwz.s 			page 44


 1644 00ce 14BF     		ite	ne
 1645 00d0 0023     		movne	r3, #0
 1646 00d2 0123     		moveq	r3, #1
 1647 00d4 BB71     		strb	r3, [r7, #6]
 801:.\Generated_Source\PSoC5/USBFS_std.c ****                 if (pEP->addr & USBFS_DIR_IN)
 1648              		.loc 1 801 0
 1649 00d6 FB68     		ldr	r3, [r7, #12]
 1650 00d8 9B78     		ldrb	r3, [r3, #2]	@ zero_extendqisi2
 1651 00da 5BB2     		sxtb	r3, r3
 1652 00dc 002B     		cmp	r3, #0
 1653 00de 25DA     		bge	.L94
 802:.\Generated_Source\PSoC5/USBFS_std.c ****                 {
 803:.\Generated_Source\PSoC5/USBFS_std.c ****                     /* IN Endpoint */
 804:.\Generated_Source\PSoC5/USBFS_std.c ****                     USBFS_EP[cur_ep].apiEpState = USBFS_EVENT_PENDING;
 1654              		.loc 1 804 0
 1655 00e0 3979     		ldrb	r1, [r7, #4]	@ zero_extendqisi2
 1656 00e2 40F20002 		movw	r2, #:lower16:USBFS_EP
 1657 00e6 C0F20002 		movt	r2, #:upper16:USBFS_EP
 1658 00ea 0B46     		mov	r3, r1
 1659 00ec 4FEA4303 		lsl	r3, r3, #1
 1660 00f0 0B44     		add	r3, r3, r1
 1661 00f2 4FEA8303 		lsl	r3, r3, #2
 1662 00f6 1344     		add	r3, r3, r2
 1663 00f8 4FF00102 		mov	r2, #1
 1664 00fc 5A70     		strb	r2, [r3, #1]
 805:.\Generated_Source\PSoC5/USBFS_std.c ****                     USBFS_EP[cur_ep].epMode =
 1665              		.loc 1 805 0
 1666 00fe 3879     		ldrb	r0, [r7, #4]	@ zero_extendqisi2
 1667 0100 BB79     		ldrb	r3, [r7, #6]	@ zero_extendqisi2
 1668 0102 002B     		cmp	r3, #0
 1669 0104 02D0     		beq	.L95
 1670 0106 4FF00701 		mov	r1, #7
 1671 010a 01E0     		b	.L96
 1672              	.L95:
 1673 010c 4FF00D01 		mov	r1, #13
 1674              	.L96:
 1675 0110 40F20002 		movw	r2, #:lower16:USBFS_EP
 1676 0114 C0F20002 		movt	r2, #:upper16:USBFS_EP
 1677 0118 0346     		mov	r3, r0
 1678 011a 4FEA4303 		lsl	r3, r3, #1
 1679 011e 0344     		add	r3, r3, r0
 1680 0120 4FEA8303 		lsl	r3, r3, #2
 1681 0124 1344     		add	r3, r3, r2
 1682 0126 0A46     		mov	r2, r1
 1683 0128 5A71     		strb	r2, [r3, #5]
 1684 012a 24E0     		b	.L97
 1685              	.L94:
 806:.\Generated_Source\PSoC5/USBFS_std.c ****                                             (iso ? USBFS_MODE_ISO_IN : USBFS_MODE_ACK_IN);
 807:.\Generated_Source\PSoC5/USBFS_std.c ****                 }
 808:.\Generated_Source\PSoC5/USBFS_std.c ****                 else
 809:.\Generated_Source\PSoC5/USBFS_std.c ****                 {
 810:.\Generated_Source\PSoC5/USBFS_std.c ****                     /* OUT Endpoint */
 811:.\Generated_Source\PSoC5/USBFS_std.c ****                     USBFS_EP[cur_ep].apiEpState = USBFS_NO_EVENT_PENDING;
 1686              		.loc 1 811 0
 1687 012c 3979     		ldrb	r1, [r7, #4]	@ zero_extendqisi2
 1688 012e 40F20002 		movw	r2, #:lower16:USBFS_EP
 1689 0132 C0F20002 		movt	r2, #:upper16:USBFS_EP
ARM GAS  C:\DOCUME~1\ADMINI~1\LOCALS~1\Temp\ccmk5fwz.s 			page 45


 1690 0136 0B46     		mov	r3, r1
 1691 0138 4FEA4303 		lsl	r3, r3, #1
 1692 013c 0B44     		add	r3, r3, r1
 1693 013e 4FEA8303 		lsl	r3, r3, #2
 1694 0142 1344     		add	r3, r3, r2
 1695 0144 4FF00002 		mov	r2, #0
 1696 0148 5A70     		strb	r2, [r3, #1]
 812:.\Generated_Source\PSoC5/USBFS_std.c ****                     USBFS_EP[cur_ep].epMode =
 1697              		.loc 1 812 0
 1698 014a 3879     		ldrb	r0, [r7, #4]	@ zero_extendqisi2
 1699 014c BB79     		ldrb	r3, [r7, #6]	@ zero_extendqisi2
 1700 014e 002B     		cmp	r3, #0
 1701 0150 02D0     		beq	.L98
 1702 0152 4FF00501 		mov	r1, #5
 1703 0156 01E0     		b	.L99
 1704              	.L98:
 1705 0158 4FF00901 		mov	r1, #9
 1706              	.L99:
 1707 015c 40F20002 		movw	r2, #:lower16:USBFS_EP
 1708 0160 C0F20002 		movt	r2, #:upper16:USBFS_EP
 1709 0164 0346     		mov	r3, r0
 1710 0166 4FEA4303 		lsl	r3, r3, #1
 1711 016a 0344     		add	r3, r3, r0
 1712 016c 4FEA8303 		lsl	r3, r3, #2
 1713 0170 1344     		add	r3, r3, r2
 1714 0172 0A46     		mov	r2, r1
 1715 0174 5A71     		strb	r2, [r3, #5]
 1716              	.L97:
 813:.\Generated_Source\PSoC5/USBFS_std.c ****                                             (iso ? USBFS_MODE_ISO_OUT : USBFS_MODE_ACK_OUT);
 814:.\Generated_Source\PSoC5/USBFS_std.c ****                 }
 815:.\Generated_Source\PSoC5/USBFS_std.c ****                  /* Change the SIE mode for the selected EP to NAK ALL */
 816:.\Generated_Source\PSoC5/USBFS_std.c ****                  CY_SET_REG8(&USBFS_SIE_EP1_CR0_PTR[ri], USBFS_MODE_NAK_IN_OUT);
 1717              		.loc 1 816 0
 1718 0176 FA79     		ldrb	r2, [r7, #7]	@ zero_extendqisi2
 1719 0178 46F20E03 		movw	r3, #:lower16:1073766414
 1720 017c C4F20003 		movt	r3, #:upper16:1073766414
 1721 0180 1344     		add	r3, r2, r3
 1722 0182 4FF00102 		mov	r2, #1
 1723 0186 1A70     		strb	r2, [r3, #0]
 817:.\Generated_Source\PSoC5/USBFS_std.c ****                 USBFS_EP[cur_ep].bufferSize = pEP->bufferSize;
 1724              		.loc 1 817 0
 1725 0188 3979     		ldrb	r1, [r7, #4]	@ zero_extendqisi2
 1726 018a FB68     		ldr	r3, [r7, #12]
 1727 018c 9888     		ldrh	r0, [r3, #4]
 1728 018e 40F20002 		movw	r2, #:lower16:USBFS_EP
 1729 0192 C0F20002 		movt	r2, #:upper16:USBFS_EP
 1730 0196 0B46     		mov	r3, r1
 1731 0198 4FEA4303 		lsl	r3, r3, #1
 1732 019c 0B44     		add	r3, r3, r1
 1733 019e 4FEA8303 		lsl	r3, r3, #2
 1734 01a2 1344     		add	r3, r3, r2
 1735 01a4 03F10803 		add	r3, r3, #8
 1736 01a8 0246     		mov	r2, r0	@ movhi
 1737 01aa 1A80     		strh	r2, [r3, #0]	@ movhi
 818:.\Generated_Source\PSoC5/USBFS_std.c ****                 USBFS_EP[cur_ep].addr = pEP->addr;
 1738              		.loc 1 818 0
 1739 01ac 3979     		ldrb	r1, [r7, #4]	@ zero_extendqisi2
ARM GAS  C:\DOCUME~1\ADMINI~1\LOCALS~1\Temp\ccmk5fwz.s 			page 46


 1740 01ae FB68     		ldr	r3, [r7, #12]
 1741 01b0 9878     		ldrb	r0, [r3, #2]	@ zero_extendqisi2
 1742 01b2 40F20002 		movw	r2, #:lower16:USBFS_EP
 1743 01b6 C0F20002 		movt	r2, #:upper16:USBFS_EP
 1744 01ba 0B46     		mov	r3, r1
 1745 01bc 4FEA4303 		lsl	r3, r3, #1
 1746 01c0 0B44     		add	r3, r3, r1
 1747 01c2 4FEA8303 		lsl	r3, r3, #2
 1748 01c6 1344     		add	r3, r3, r2
 1749 01c8 0246     		mov	r2, r0
 1750 01ca 1A71     		strb	r2, [r3, #4]
 819:.\Generated_Source\PSoC5/USBFS_std.c ****                 USBFS_EP[cur_ep].attrib = pEP->attributes;
 1751              		.loc 1 819 0
 1752 01cc 3979     		ldrb	r1, [r7, #4]	@ zero_extendqisi2
 1753 01ce FB68     		ldr	r3, [r7, #12]
 1754 01d0 D878     		ldrb	r0, [r3, #3]	@ zero_extendqisi2
 1755 01d2 40F20002 		movw	r2, #:lower16:USBFS_EP
 1756 01d6 C0F20002 		movt	r2, #:upper16:USBFS_EP
 1757 01da 0B46     		mov	r3, r1
 1758 01dc 4FEA4303 		lsl	r3, r3, #1
 1759 01e0 0B44     		add	r3, r3, r1
 1760 01e2 4FEA8303 		lsl	r3, r3, #2
 1761 01e6 1344     		add	r3, r3, r2
 1762 01e8 0246     		mov	r2, r0
 1763 01ea 1A70     		strb	r2, [r3, #0]
 820:.\Generated_Source\PSoC5/USBFS_std.c **** 
 821:.\Generated_Source\PSoC5/USBFS_std.c ****                 /* Clear the data toggle */
 822:.\Generated_Source\PSoC5/USBFS_std.c ****                 USBFS_EP[cur_ep].epToggle = 0u;
 1764              		.loc 1 822 0
 1765 01ec 3979     		ldrb	r1, [r7, #4]	@ zero_extendqisi2
 1766 01ee 40F20002 		movw	r2, #:lower16:USBFS_EP
 1767 01f2 C0F20002 		movt	r2, #:upper16:USBFS_EP
 1768 01f6 0B46     		mov	r3, r1
 1769 01f8 4FEA4303 		lsl	r3, r3, #1
 1770 01fc 0B44     		add	r3, r3, r1
 1771 01fe 4FEA8303 		lsl	r3, r3, #2
 1772 0202 1344     		add	r3, r3, r2
 1773 0204 4FF00002 		mov	r2, #0
 1774 0208 DA70     		strb	r2, [r3, #3]
 823:.\Generated_Source\PSoC5/USBFS_std.c **** 
 824:.\Generated_Source\PSoC5/USBFS_std.c ****                 /* Dynamic reconfiguration for mode 3 transfer */
 825:.\Generated_Source\PSoC5/USBFS_std.c ****                 #if((USBFS_EP_MM == USBFS__EP_DMAAUTO) && (!CY_PSOC5A) )
 826:.\Generated_Source\PSoC5/USBFS_std.c ****                     /* In_data_rdy for selected EP should be set to 0 */
 827:.\Generated_Source\PSoC5/USBFS_std.c ****                     USBFS_ARB_EP1_CFG_PTR[ri] &= ~USBFS_ARB_EPX_CFG_IN_DATA_RDY;
 1775              		.loc 1 827 0
 1776 020a FA79     		ldrb	r2, [r7, #7]	@ zero_extendqisi2
 1777 020c 46F28003 		movw	r3, #:lower16:1073766528
 1778 0210 C4F20003 		movt	r3, #:upper16:1073766528
 1779 0214 1344     		add	r3, r2, r3
 1780 0216 F979     		ldrb	r1, [r7, #7]	@ zero_extendqisi2
 1781 0218 46F28002 		movw	r2, #:lower16:1073766528
 1782 021c C4F20002 		movt	r2, #:upper16:1073766528
 1783 0220 0A44     		add	r2, r1, r2
 1784 0222 1278     		ldrb	r2, [r2, #0]
 1785 0224 D2B2     		uxtb	r2, r2
 1786 0226 02F0FE02 		and	r2, r2, #254
 1787 022a 1A70     		strb	r2, [r3, #0]
ARM GAS  C:\DOCUME~1\ADMINI~1\LOCALS~1\Temp\ccmk5fwz.s 			page 47


 828:.\Generated_Source\PSoC5/USBFS_std.c **** 
 829:.\Generated_Source\PSoC5/USBFS_std.c ****                     /* write the EP number for which reconfiguration is required */
 830:.\Generated_Source\PSoC5/USBFS_std.c ****                     USBFS_DYN_RECONFIG_REG = (cur_ep - USBFS_EP1) << 
 1788              		.loc 1 830 0
 1789 022c 46F21403 		movw	r3, #:lower16:1073766420
 1790 0230 C4F20003 		movt	r3, #:upper16:1073766420
 1791 0234 3A79     		ldrb	r2, [r7, #4]
 1792 0236 02F1FF32 		add	r2, r2, #-1
 1793 023a D2B2     		uxtb	r2, r2
 1794 023c 4FEA4202 		lsl	r2, r2, #1
 1795 0240 D2B2     		uxtb	r2, r2
 1796 0242 1A70     		strb	r2, [r3, #0]
 831:.\Generated_Source\PSoC5/USBFS_std.c ****                                                         USBFS_DYN_RECONFIG_EP_SHIFT;
 832:.\Generated_Source\PSoC5/USBFS_std.c ****                     /* Set the dyn_config_en bit in dynamic reconfiguration register */
 833:.\Generated_Source\PSoC5/USBFS_std.c ****                     USBFS_DYN_RECONFIG_REG |= USBFS_DYN_RECONFIG_ENABLE;
 1797              		.loc 1 833 0
 1798 0244 46F21403 		movw	r3, #:lower16:1073766420
 1799 0248 C4F20003 		movt	r3, #:upper16:1073766420
 1800 024c 46F21402 		movw	r2, #:lower16:1073766420
 1801 0250 C4F20002 		movt	r2, #:upper16:1073766420
 1802 0254 1278     		ldrb	r2, [r2, #0]
 1803 0256 D2B2     		uxtb	r2, r2
 1804 0258 42F00102 		orr	r2, r2, #1
 1805 025c D2B2     		uxtb	r2, r2
 1806 025e 1A70     		strb	r2, [r3, #0]
 1807              	.L100:
 834:.\Generated_Source\PSoC5/USBFS_std.c ****                     /* wait for the dyn_config_rdy bit to set by the block,
 835:.\Generated_Source\PSoC5/USBFS_std.c ****                     *  this bit will be set to 1 when block is ready for reconfiguration.
 836:.\Generated_Source\PSoC5/USBFS_std.c ****                     */
 837:.\Generated_Source\PSoC5/USBFS_std.c ****                     while((USBFS_DYN_RECONFIG_REG & USBFS_DYN_RECONFIG_RDY_STS) == 0u);
 1808              		.loc 1 837 0
 1809 0260 46F21403 		movw	r3, #:lower16:1073766420
 1810 0264 C4F20003 		movt	r3, #:upper16:1073766420
 1811 0268 1B78     		ldrb	r3, [r3, #0]
 1812 026a DBB2     		uxtb	r3, r3
 1813 026c 03F01003 		and	r3, r3, #16
 1814 0270 002B     		cmp	r3, #0
 1815 0272 F5D0     		beq	.L100
 838:.\Generated_Source\PSoC5/USBFS_std.c ****                     /* Once dyn_config_rdy bit is set, FW can change the EP configuration. */
 839:.\Generated_Source\PSoC5/USBFS_std.c ****                     /* Change EP Type with new direction */
 840:.\Generated_Source\PSoC5/USBFS_std.c ****                     if((pEP->addr & USBFS_DIR_IN) == 0)
 1816              		.loc 1 840 0
 1817 0274 FB68     		ldr	r3, [r7, #12]
 1818 0276 9B78     		ldrb	r3, [r3, #2]	@ zero_extendqisi2
 1819 0278 5BB2     		sxtb	r3, r3
 1820 027a 002B     		cmp	r3, #0
 1821 027c 16DB     		blt	.L101
 841:.\Generated_Source\PSoC5/USBFS_std.c ****                     {
 842:.\Generated_Source\PSoC5/USBFS_std.c ****                         USBFS_EP_TYPE_REG |= 0x01u << (cur_ep - USBFS_EP1);
 1822              		.loc 1 842 0
 1823 027e 46F28F03 		movw	r3, #:lower16:1073766543
 1824 0282 C4F20003 		movt	r3, #:upper16:1073766543
 1825 0286 46F28F02 		movw	r2, #:lower16:1073766543
 1826 028a C4F20002 		movt	r2, #:upper16:1073766543
 1827 028e 1278     		ldrb	r2, [r2, #0]
 1828 0290 D1B2     		uxtb	r1, r2
 1829 0292 3A79     		ldrb	r2, [r7, #4]	@ zero_extendqisi2
ARM GAS  C:\DOCUME~1\ADMINI~1\LOCALS~1\Temp\ccmk5fwz.s 			page 48


 1830 0294 02F1FF32 		add	r2, r2, #-1
 1831 0298 4FF00100 		mov	r0, #1
 1832 029c 00FA02F2 		lsl	r2, r0, r2
 1833 02a0 D2B2     		uxtb	r2, r2
 1834 02a2 41EA0202 		orr	r2, r1, r2
 1835 02a6 D2B2     		uxtb	r2, r2
 1836 02a8 1A70     		strb	r2, [r3, #0]
 1837 02aa 18E0     		b	.L102
 1838              	.L101:
 843:.\Generated_Source\PSoC5/USBFS_std.c ****                     }
 844:.\Generated_Source\PSoC5/USBFS_std.c ****                     else
 845:.\Generated_Source\PSoC5/USBFS_std.c ****                     {
 846:.\Generated_Source\PSoC5/USBFS_std.c ****                         USBFS_EP_TYPE_REG &= ~(0x01u << (cur_ep - USBFS_EP1));
 1839              		.loc 1 846 0
 1840 02ac 46F28F03 		movw	r3, #:lower16:1073766543
 1841 02b0 C4F20003 		movt	r3, #:upper16:1073766543
 1842 02b4 46F28F02 		movw	r2, #:lower16:1073766543
 1843 02b8 C4F20002 		movt	r2, #:upper16:1073766543
 1844 02bc 1278     		ldrb	r2, [r2, #0]
 1845 02be D1B2     		uxtb	r1, r2
 1846 02c0 3A79     		ldrb	r2, [r7, #4]	@ zero_extendqisi2
 1847 02c2 02F1FF32 		add	r2, r2, #-1
 1848 02c6 4FF00100 		mov	r0, #1
 1849 02ca 00FA02F2 		lsl	r2, r0, r2
 1850 02ce D2B2     		uxtb	r2, r2
 1851 02d0 6FEA0202 		mvn	r2, r2
 1852 02d4 D2B2     		uxtb	r2, r2
 1853 02d6 01EA0202 		and	r2, r1, r2
 1854 02da D2B2     		uxtb	r2, r2
 1855 02dc 1A70     		strb	r2, [r3, #0]
 1856              	.L102:
 847:.\Generated_Source\PSoC5/USBFS_std.c ****                     }
 848:.\Generated_Source\PSoC5/USBFS_std.c ****                     /* dynamic reconfiguration enable bit cleared, pointers and control/status
 849:.\Generated_Source\PSoC5/USBFS_std.c ****                     *  signals for the selected EP is cleared/re-initialized on negedge
 850:.\Generated_Source\PSoC5/USBFS_std.c ****                     *  of dynamic reconfiguration enable bit).
 851:.\Generated_Source\PSoC5/USBFS_std.c ****                     */
 852:.\Generated_Source\PSoC5/USBFS_std.c ****                     USBFS_DYN_RECONFIG_REG &= ~USBFS_DYN_RECONFIG_ENABLE;
 1857              		.loc 1 852 0
 1858 02de 46F21403 		movw	r3, #:lower16:1073766420
 1859 02e2 C4F20003 		movt	r3, #:upper16:1073766420
 1860 02e6 46F21402 		movw	r2, #:lower16:1073766420
 1861 02ea C4F20002 		movt	r2, #:upper16:1073766420
 1862 02ee 1278     		ldrb	r2, [r2, #0]
 1863 02f0 D2B2     		uxtb	r2, r2
 1864 02f2 02F0FE02 		and	r2, r2, #254
 1865 02f6 1A70     		strb	r2, [r3, #0]
 1866              	.L93:
 1867              		.loc 1 790 0
 1868 02f8 7B79     		ldrb	r3, [r7, #5]
 1869 02fa 03F10103 		add	r3, r3, #1
 1870 02fe 7B71     		strb	r3, [r7, #5]
 1871 0300 FB68     		ldr	r3, [r7, #12]
 1872 0302 03F10803 		add	r3, r3, #8
 1873 0306 FB60     		str	r3, [r7, #12]
 1874              	.L92:
 1875 0308 7A79     		ldrb	r2, [r7, #5]	@ zero_extendqisi2
 1876 030a FB78     		ldrb	r3, [r7, #3]	@ zero_extendqisi2
ARM GAS  C:\DOCUME~1\ADMINI~1\LOCALS~1\Temp\ccmk5fwz.s 			page 49


 1877 030c 9A42     		cmp	r2, r3
 1878 030e FFF49FAE 		bcc	.L103
 1879              	.L104:
 853:.\Generated_Source\PSoC5/USBFS_std.c ****                     /* The main loop has to reenable DMA and OUT endpoint*/
 854:.\Generated_Source\PSoC5/USBFS_std.c ****                 #else
 855:.\Generated_Source\PSoC5/USBFS_std.c ****                 CY_SET_REG8(&USBFS_SIE_EP1_CNT0_PTR[ri],   USBFS_EP[cur_ep].bufferSize >> 8u);
 856:.\Generated_Source\PSoC5/USBFS_std.c ****                 CY_SET_REG8(&USBFS_SIE_EP1_CNT1_PTR[ri],   USBFS_EP[cur_ep].bufferSize & 0xFFu);
 857:.\Generated_Source\PSoC5/USBFS_std.c **** 
 858:.\Generated_Source\PSoC5/USBFS_std.c ****                 CY_SET_REG8(&USBFS_ARB_RW1_RA_PTR[ri],     USBFS_EP[cur_ep].buffOffset & 0xFFu);
 859:.\Generated_Source\PSoC5/USBFS_std.c ****                 CY_SET_REG8(&USBFS_ARB_RW1_RA_MSB_PTR[ri], USBFS_EP[cur_ep].buffOffset >> 8u);
 860:.\Generated_Source\PSoC5/USBFS_std.c ****                 CY_SET_REG8(&USBFS_ARB_RW1_WA_PTR[ri],     USBFS_EP[cur_ep].buffOffset & 0xFFu);
 861:.\Generated_Source\PSoC5/USBFS_std.c ****                 CY_SET_REG8(&USBFS_ARB_RW1_WA_MSB_PTR[ri], USBFS_EP[cur_ep].buffOffset >> 8u);
 862:.\Generated_Source\PSoC5/USBFS_std.c ****                 #endif /* End USBFS_EP_MM == USBFS__EP_DMAAUTO */
 863:.\Generated_Source\PSoC5/USBFS_std.c ****             }
 864:.\Generated_Source\PSoC5/USBFS_std.c ****         }
 865:.\Generated_Source\PSoC5/USBFS_std.c ****     } /* USBFS_configuration > 0 */
 866:.\Generated_Source\PSoC5/USBFS_std.c **** }
 1880              		.loc 1 866 0
 1881 0312 07F11007 		add	r7, r7, #16
 1882 0316 BD46     		mov	sp, r7
 1883 0318 80BD     		pop	{r7, pc}
 1884              		.cfi_endproc
 1885              	.LFE5:
 1886              		.size	USBFS_ConfigAltChanged, .-USBFS_ConfigAltChanged
 1887 031a 00BF     		.section	.text.USBFS_GetConfigTablePtr,"ax",%progbits
 1888              		.align	2
 1889              		.global	USBFS_GetConfigTablePtr
 1890              		.thumb
 1891              		.thumb_func
 1892              		.type	USBFS_GetConfigTablePtr, %function
 1893              	USBFS_GetConfigTablePtr:
 1894              	.LFB6:
 867:.\Generated_Source\PSoC5/USBFS_std.c **** 
 868:.\Generated_Source\PSoC5/USBFS_std.c **** 
 869:.\Generated_Source\PSoC5/USBFS_std.c **** /*******************************************************************************
 870:.\Generated_Source\PSoC5/USBFS_std.c **** * Function Name: USBFS_GetConfigTablePtr
 871:.\Generated_Source\PSoC5/USBFS_std.c **** ********************************************************************************
 872:.\Generated_Source\PSoC5/USBFS_std.c **** *
 873:.\Generated_Source\PSoC5/USBFS_std.c **** * Summary:
 874:.\Generated_Source\PSoC5/USBFS_std.c **** *  This routine returns a pointer a configuration table entry
 875:.\Generated_Source\PSoC5/USBFS_std.c **** *
 876:.\Generated_Source\PSoC5/USBFS_std.c **** * Parameters:
 877:.\Generated_Source\PSoC5/USBFS_std.c **** *  c:  Configuration Index
 878:.\Generated_Source\PSoC5/USBFS_std.c **** *
 879:.\Generated_Source\PSoC5/USBFS_std.c **** * Return:
 880:.\Generated_Source\PSoC5/USBFS_std.c **** *  Device Descriptor pointer.
 881:.\Generated_Source\PSoC5/USBFS_std.c **** *
 882:.\Generated_Source\PSoC5/USBFS_std.c **** *******************************************************************************/
 883:.\Generated_Source\PSoC5/USBFS_std.c **** T_USBFS_LUT *USBFS_GetConfigTablePtr(uint8 c) \
 884:.\Generated_Source\PSoC5/USBFS_std.c ****                                                         
 885:.\Generated_Source\PSoC5/USBFS_std.c **** {
 1895              		.loc 1 885 0
 1896              		.cfi_startproc
 1897              		@ args = 0, pretend = 0, frame = 16
 1898              		@ frame_needed = 1, uses_anonymous_args = 0
 1899 0000 80B5     		push	{r7, lr}
 1900              	.LCFI18:
ARM GAS  C:\DOCUME~1\ADMINI~1\LOCALS~1\Temp\ccmk5fwz.s 			page 50


 1901              		.cfi_def_cfa_offset 8
 1902 0002 84B0     		sub	sp, sp, #16
 1903              	.LCFI19:
 1904              		.cfi_def_cfa_offset 24
 1905 0004 00AF     		add	r7, sp, #0
 1906              		.cfi_offset 14, -4
 1907              		.cfi_offset 7, -8
 1908              	.LCFI20:
 1909              		.cfi_def_cfa_register 7
 1910 0006 0346     		mov	r3, r0
 1911 0008 FB71     		strb	r3, [r7, #7]
 886:.\Generated_Source\PSoC5/USBFS_std.c ****     /* Device Table */
 887:.\Generated_Source\PSoC5/USBFS_std.c ****     T_USBFS_LUT *pTmp;
 888:.\Generated_Source\PSoC5/USBFS_std.c **** 
 889:.\Generated_Source\PSoC5/USBFS_std.c ****     pTmp = USBFS_GetDeviceTablePtr();
 1912              		.loc 1 889 0
 1913 000a FFF7FEFF 		bl	USBFS_GetDeviceTablePtr
 1914 000e 0346     		mov	r3, r0
 1915 0010 FB60     		str	r3, [r7, #12]
 890:.\Generated_Source\PSoC5/USBFS_std.c **** 
 891:.\Generated_Source\PSoC5/USBFS_std.c ****     /* The first entry points to the Device Descriptor,
 892:.\Generated_Source\PSoC5/USBFS_std.c ****        the the configuration entries  */
 893:.\Generated_Source\PSoC5/USBFS_std.c ****     return(pTmp[c + 1u].p_list);
 1916              		.loc 1 893 0
 1917 0012 FB79     		ldrb	r3, [r7, #7]	@ zero_extendqisi2
 1918 0014 03F10103 		add	r3, r3, #1
 1919 0018 4FEAC302 		lsl	r2, r3, #3
 1920 001c FB68     		ldr	r3, [r7, #12]
 1921 001e 1344     		add	r3, r2, r3
 1922 0020 5B68     		ldr	r3, [r3, #4]
 894:.\Generated_Source\PSoC5/USBFS_std.c **** }
 1923              		.loc 1 894 0
 1924 0022 1846     		mov	r0, r3
 1925 0024 07F11007 		add	r7, r7, #16
 1926 0028 BD46     		mov	sp, r7
 1927 002a 80BD     		pop	{r7, pc}
 1928              		.cfi_endproc
 1929              	.LFE6:
 1930              		.size	USBFS_GetConfigTablePtr, .-USBFS_GetConfigTablePtr
 1931              		.section	.text.USBFS_GetDeviceTablePtr,"ax",%progbits
 1932              		.align	2
 1933              		.global	USBFS_GetDeviceTablePtr
 1934              		.thumb
 1935              		.thumb_func
 1936              		.type	USBFS_GetDeviceTablePtr, %function
 1937              	USBFS_GetDeviceTablePtr:
 1938              	.LFB7:
 895:.\Generated_Source\PSoC5/USBFS_std.c **** 
 896:.\Generated_Source\PSoC5/USBFS_std.c **** 
 897:.\Generated_Source\PSoC5/USBFS_std.c **** /*******************************************************************************
 898:.\Generated_Source\PSoC5/USBFS_std.c **** * Function Name: USBFS_GetDeviceTablePtr
 899:.\Generated_Source\PSoC5/USBFS_std.c **** ********************************************************************************
 900:.\Generated_Source\PSoC5/USBFS_std.c **** *
 901:.\Generated_Source\PSoC5/USBFS_std.c **** * Summary:
 902:.\Generated_Source\PSoC5/USBFS_std.c **** *  This routine returns a pointer to the Device table
 903:.\Generated_Source\PSoC5/USBFS_std.c **** *
 904:.\Generated_Source\PSoC5/USBFS_std.c **** * Parameters:
ARM GAS  C:\DOCUME~1\ADMINI~1\LOCALS~1\Temp\ccmk5fwz.s 			page 51


 905:.\Generated_Source\PSoC5/USBFS_std.c **** *  None.
 906:.\Generated_Source\PSoC5/USBFS_std.c **** *
 907:.\Generated_Source\PSoC5/USBFS_std.c **** * Return:
 908:.\Generated_Source\PSoC5/USBFS_std.c **** *  Device Table pointer
 909:.\Generated_Source\PSoC5/USBFS_std.c **** *
 910:.\Generated_Source\PSoC5/USBFS_std.c **** *******************************************************************************/
 911:.\Generated_Source\PSoC5/USBFS_std.c **** T_USBFS_LUT *USBFS_GetDeviceTablePtr(void) 
 912:.\Generated_Source\PSoC5/USBFS_std.c **** {
 1939              		.loc 1 912 0
 1940              		.cfi_startproc
 1941              		@ args = 0, pretend = 0, frame = 0
 1942              		@ frame_needed = 1, uses_anonymous_args = 0
 1943              		@ link register save eliminated.
 1944 0000 80B4     		push	{r7}
 1945              	.LCFI21:
 1946              		.cfi_def_cfa_offset 4
 1947 0002 00AF     		add	r7, sp, #0
 1948              		.cfi_offset 7, -4
 1949              	.LCFI22:
 1950              		.cfi_def_cfa_register 7
 913:.\Generated_Source\PSoC5/USBFS_std.c ****     /* Device Table */
 914:.\Generated_Source\PSoC5/USBFS_std.c ****     return(USBFS_TABLE[USBFS_device].p_list);
 1951              		.loc 1 914 0
 1952 0004 40F20003 		movw	r3, #:lower16:USBFS_device
 1953 0008 C0F20003 		movt	r3, #:upper16:USBFS_device
 1954 000c 1B78     		ldrb	r3, [r3, #0]
 1955 000e DBB2     		uxtb	r3, r3
 1956 0010 40F20002 		movw	r2, #:lower16:USBFS_TABLE
 1957 0014 C0F20002 		movt	r2, #:upper16:USBFS_TABLE
 1958 0018 4FEAC303 		lsl	r3, r3, #3
 1959 001c 1344     		add	r3, r3, r2
 1960 001e 5B68     		ldr	r3, [r3, #4]
 915:.\Generated_Source\PSoC5/USBFS_std.c **** }
 1961              		.loc 1 915 0
 1962 0020 1846     		mov	r0, r3
 1963 0022 BD46     		mov	sp, r7
 1964 0024 80BC     		pop	{r7}
 1965 0026 7047     		bx	lr
 1966              		.cfi_endproc
 1967              	.LFE7:
 1968              		.size	USBFS_GetDeviceTablePtr, .-USBFS_GetDeviceTablePtr
 1969              		.section	.text.USBFS_GetInterfaceClassTablePtr,"ax",%progbits
 1970              		.align	2
 1971              		.global	USBFS_GetInterfaceClassTablePtr
 1972              		.thumb
 1973              		.thumb_func
 1974              		.type	USBFS_GetInterfaceClassTablePtr, %function
 1975              	USBFS_GetInterfaceClassTablePtr:
 1976              	.LFB8:
 916:.\Generated_Source\PSoC5/USBFS_std.c **** 
 917:.\Generated_Source\PSoC5/USBFS_std.c **** 
 918:.\Generated_Source\PSoC5/USBFS_std.c **** /*******************************************************************************
 919:.\Generated_Source\PSoC5/USBFS_std.c **** * Function Name: USB_GetInterfaceClassTablePtr
 920:.\Generated_Source\PSoC5/USBFS_std.c **** ********************************************************************************
 921:.\Generated_Source\PSoC5/USBFS_std.c **** *
 922:.\Generated_Source\PSoC5/USBFS_std.c **** * Summary:
 923:.\Generated_Source\PSoC5/USBFS_std.c **** *  This routine returns Interface Class table pointer, which contains
ARM GAS  C:\DOCUME~1\ADMINI~1\LOCALS~1\Temp\ccmk5fwz.s 			page 52


 924:.\Generated_Source\PSoC5/USBFS_std.c **** *  the relation between interface number and interface class.
 925:.\Generated_Source\PSoC5/USBFS_std.c **** *
 926:.\Generated_Source\PSoC5/USBFS_std.c **** * Parameters:
 927:.\Generated_Source\PSoC5/USBFS_std.c **** *  None.
 928:.\Generated_Source\PSoC5/USBFS_std.c **** *
 929:.\Generated_Source\PSoC5/USBFS_std.c **** * Return:
 930:.\Generated_Source\PSoC5/USBFS_std.c **** *  Interface Class table pointer.
 931:.\Generated_Source\PSoC5/USBFS_std.c **** *
 932:.\Generated_Source\PSoC5/USBFS_std.c **** *******************************************************************************/
 933:.\Generated_Source\PSoC5/USBFS_std.c **** uint8 CYCODE *USBFS_GetInterfaceClassTablePtr(void)
 934:.\Generated_Source\PSoC5/USBFS_std.c ****                                                         
 935:.\Generated_Source\PSoC5/USBFS_std.c **** {
 1977              		.loc 1 935 0
 1978              		.cfi_startproc
 1979              		@ args = 0, pretend = 0, frame = 8
 1980              		@ frame_needed = 1, uses_anonymous_args = 0
 1981 0000 80B5     		push	{r7, lr}
 1982              	.LCFI23:
 1983              		.cfi_def_cfa_offset 8
 1984 0002 82B0     		sub	sp, sp, #8
 1985              	.LCFI24:
 1986              		.cfi_def_cfa_offset 16
 1987 0004 00AF     		add	r7, sp, #0
 1988              		.cfi_offset 14, -4
 1989              		.cfi_offset 7, -8
 1990              	.LCFI25:
 1991              		.cfi_def_cfa_register 7
 936:.\Generated_Source\PSoC5/USBFS_std.c ****     T_USBFS_LUT *pTmp;
 937:.\Generated_Source\PSoC5/USBFS_std.c ****     uint8 currentInterfacesNum;
 938:.\Generated_Source\PSoC5/USBFS_std.c **** 
 939:.\Generated_Source\PSoC5/USBFS_std.c ****     pTmp = USBFS_GetConfigTablePtr(USBFS_configuration - 1u);
 1992              		.loc 1 939 0
 1993 0006 40F20003 		movw	r3, #:lower16:USBFS_configuration
 1994 000a C0F20003 		movt	r3, #:upper16:USBFS_configuration
 1995 000e 1B78     		ldrb	r3, [r3, #0]
 1996 0010 DBB2     		uxtb	r3, r3
 1997 0012 03F1FF33 		add	r3, r3, #-1
 1998 0016 DBB2     		uxtb	r3, r3
 1999 0018 1846     		mov	r0, r3
 2000 001a FFF7FEFF 		bl	USBFS_GetConfigTablePtr
 2001 001e 0346     		mov	r3, r0
 2002 0020 3B60     		str	r3, [r7, #0]
 940:.\Generated_Source\PSoC5/USBFS_std.c ****     currentInterfacesNum  = ((uint8 *) pTmp->p_list)[USBFS_CONFIG_DESCR_NUM_INTERFACES];
 2003              		.loc 1 940 0
 2004 0022 3B68     		ldr	r3, [r7, #0]
 2005 0024 5B68     		ldr	r3, [r3, #4]
 2006 0026 03F10403 		add	r3, r3, #4
 2007 002a 1B78     		ldrb	r3, [r3, #0]
 2008 002c FB71     		strb	r3, [r7, #7]
 941:.\Generated_Source\PSoC5/USBFS_std.c ****     /* Third entry in the LUT starts the Interface Table pointers */
 942:.\Generated_Source\PSoC5/USBFS_std.c ****     pTmp += 2;
 2009              		.loc 1 942 0
 2010 002e 3B68     		ldr	r3, [r7, #0]
 2011 0030 03F11003 		add	r3, r3, #16
 2012 0034 3B60     		str	r3, [r7, #0]
 943:.\Generated_Source\PSoC5/USBFS_std.c ****     /* The INTERFACE_CLASS table is located after all interfaces*/
 944:.\Generated_Source\PSoC5/USBFS_std.c ****     pTmp += currentInterfacesNum;
ARM GAS  C:\DOCUME~1\ADMINI~1\LOCALS~1\Temp\ccmk5fwz.s 			page 53


 2013              		.loc 1 944 0
 2014 0036 FB79     		ldrb	r3, [r7, #7]	@ zero_extendqisi2
 2015 0038 4FEAC303 		lsl	r3, r3, #3
 2016 003c 3A68     		ldr	r2, [r7, #0]
 2017 003e 1344     		add	r3, r2, r3
 2018 0040 3B60     		str	r3, [r7, #0]
 945:.\Generated_Source\PSoC5/USBFS_std.c ****     return(pTmp->p_list);
 2019              		.loc 1 945 0
 2020 0042 3B68     		ldr	r3, [r7, #0]
 2021 0044 5B68     		ldr	r3, [r3, #4]
 946:.\Generated_Source\PSoC5/USBFS_std.c **** }
 2022              		.loc 1 946 0
 2023 0046 1846     		mov	r0, r3
 2024 0048 07F10807 		add	r7, r7, #8
 2025 004c BD46     		mov	sp, r7
 2026 004e 80BD     		pop	{r7, pc}
 2027              		.cfi_endproc
 2028              	.LFE8:
 2029              		.size	USBFS_GetInterfaceClassTablePtr, .-USBFS_GetInterfaceClassTablePtr
 2030              		.section	.text.USBFS_TerminateEP,"ax",%progbits
 2031              		.align	2
 2032              		.global	USBFS_TerminateEP
 2033              		.thumb
 2034              		.thumb_func
 2035              		.type	USBFS_TerminateEP, %function
 2036              	USBFS_TerminateEP:
 2037              	.LFB9:
 947:.\Generated_Source\PSoC5/USBFS_std.c **** 
 948:.\Generated_Source\PSoC5/USBFS_std.c **** 
 949:.\Generated_Source\PSoC5/USBFS_std.c **** /*******************************************************************************
 950:.\Generated_Source\PSoC5/USBFS_std.c **** * Function Name: USBFS_TerminateEP
 951:.\Generated_Source\PSoC5/USBFS_std.c **** ********************************************************************************
 952:.\Generated_Source\PSoC5/USBFS_std.c **** *
 953:.\Generated_Source\PSoC5/USBFS_std.c **** * Summary:
 954:.\Generated_Source\PSoC5/USBFS_std.c **** *  This function terminates the specified USBFS endpoint. 
 955:.\Generated_Source\PSoC5/USBFS_std.c **** *  This function should be used before endpoint reconfiguration.
 956:.\Generated_Source\PSoC5/USBFS_std.c **** *
 957:.\Generated_Source\PSoC5/USBFS_std.c **** * Parameters:
 958:.\Generated_Source\PSoC5/USBFS_std.c **** *  Endpoint number.
 959:.\Generated_Source\PSoC5/USBFS_std.c **** *
 960:.\Generated_Source\PSoC5/USBFS_std.c **** * Return:
 961:.\Generated_Source\PSoC5/USBFS_std.c **** *  None.
 962:.\Generated_Source\PSoC5/USBFS_std.c **** *
 963:.\Generated_Source\PSoC5/USBFS_std.c **** * Reentrant:
 964:.\Generated_Source\PSoC5/USBFS_std.c **** *  No.
 965:.\Generated_Source\PSoC5/USBFS_std.c **** *
 966:.\Generated_Source\PSoC5/USBFS_std.c **** *******************************************************************************/
 967:.\Generated_Source\PSoC5/USBFS_std.c **** void USBFS_TerminateEP(uint8 ep) 
 968:.\Generated_Source\PSoC5/USBFS_std.c **** {
 2038              		.loc 1 968 0
 2039              		.cfi_startproc
 2040              		@ args = 0, pretend = 0, frame = 16
 2041              		@ frame_needed = 1, uses_anonymous_args = 0
 2042              		@ link register save eliminated.
 2043 0000 80B4     		push	{r7}
 2044              	.LCFI26:
 2045              		.cfi_def_cfa_offset 4
ARM GAS  C:\DOCUME~1\ADMINI~1\LOCALS~1\Temp\ccmk5fwz.s 			page 54


 2046 0002 85B0     		sub	sp, sp, #20
 2047              	.LCFI27:
 2048              		.cfi_def_cfa_offset 24
 2049 0004 00AF     		add	r7, sp, #0
 2050              		.cfi_offset 7, -4
 2051              	.LCFI28:
 2052              		.cfi_def_cfa_register 7
 2053 0006 0346     		mov	r3, r0
 2054 0008 FB71     		strb	r3, [r7, #7]
 969:.\Generated_Source\PSoC5/USBFS_std.c ****     uint8 ri;
 970:.\Generated_Source\PSoC5/USBFS_std.c **** 
 971:.\Generated_Source\PSoC5/USBFS_std.c ****     ep &= USBFS_DIR_UNUSED;
 2055              		.loc 1 971 0
 2056 000a FB79     		ldrb	r3, [r7, #7]
 2057 000c 03F07F03 		and	r3, r3, #127
 2058 0010 FB71     		strb	r3, [r7, #7]
 972:.\Generated_Source\PSoC5/USBFS_std.c ****     ri = ((ep - USBFS_EP1) << USBFS_EPX_CNTX_ADDR_SHIFT);
 2059              		.loc 1 972 0
 2060 0012 FB79     		ldrb	r3, [r7, #7]
 2061 0014 03F1FF33 		add	r3, r3, #-1
 2062 0018 DBB2     		uxtb	r3, r3
 2063 001a 4FEA0313 		lsl	r3, r3, #4
 2064 001e FB73     		strb	r3, [r7, #15]
 973:.\Generated_Source\PSoC5/USBFS_std.c **** 
 974:.\Generated_Source\PSoC5/USBFS_std.c ****     if ((ep > USBFS_EP0) && (ep < USBFS_MAX_EP))
 2065              		.loc 1 974 0
 2066 0020 FB79     		ldrb	r3, [r7, #7]	@ zero_extendqisi2
 2067 0022 002B     		cmp	r3, #0
 2068 0024 63D0     		beq	.L114
 2069 0026 FB79     		ldrb	r3, [r7, #7]	@ zero_extendqisi2
 2070 0028 082B     		cmp	r3, #8
 2071 002a 60D8     		bhi	.L114
 975:.\Generated_Source\PSoC5/USBFS_std.c ****     {
 976:.\Generated_Source\PSoC5/USBFS_std.c ****         /* Set the endpoint Halt */
 977:.\Generated_Source\PSoC5/USBFS_std.c ****         USBFS_EP[ep].hwEpState |= (USBFS_ENDPOINT_STATUS_HALT);
 2072              		.loc 1 977 0
 2073 002c F979     		ldrb	r1, [r7, #7]	@ zero_extendqisi2
 2074 002e F879     		ldrb	r0, [r7, #7]	@ zero_extendqisi2
 2075 0030 40F20002 		movw	r2, #:lower16:USBFS_EP
 2076 0034 C0F20002 		movt	r2, #:upper16:USBFS_EP
 2077 0038 0346     		mov	r3, r0
 2078 003a 4FEA4303 		lsl	r3, r3, #1
 2079 003e 0344     		add	r3, r3, r0
 2080 0040 4FEA8303 		lsl	r3, r3, #2
 2081 0044 1344     		add	r3, r3, r2
 2082 0046 9B78     		ldrb	r3, [r3, #2]
 2083 0048 DBB2     		uxtb	r3, r3
 2084 004a 43F00103 		orr	r3, r3, #1
 2085 004e D8B2     		uxtb	r0, r3
 2086 0050 40F20002 		movw	r2, #:lower16:USBFS_EP
 2087 0054 C0F20002 		movt	r2, #:upper16:USBFS_EP
 2088 0058 0B46     		mov	r3, r1
 2089 005a 4FEA4303 		lsl	r3, r3, #1
 2090 005e 0B44     		add	r3, r3, r1
 2091 0060 4FEA8303 		lsl	r3, r3, #2
 2092 0064 1344     		add	r3, r3, r2
 2093 0066 0246     		mov	r2, r0
ARM GAS  C:\DOCUME~1\ADMINI~1\LOCALS~1\Temp\ccmk5fwz.s 			page 55


 2094 0068 9A70     		strb	r2, [r3, #2]
 978:.\Generated_Source\PSoC5/USBFS_std.c **** 
 979:.\Generated_Source\PSoC5/USBFS_std.c ****         /* Clear the data toggle */
 980:.\Generated_Source\PSoC5/USBFS_std.c ****         USBFS_EP[ep].epToggle = 0u;
 2095              		.loc 1 980 0
 2096 006a F979     		ldrb	r1, [r7, #7]	@ zero_extendqisi2
 2097 006c 40F20002 		movw	r2, #:lower16:USBFS_EP
 2098 0070 C0F20002 		movt	r2, #:upper16:USBFS_EP
 2099 0074 0B46     		mov	r3, r1
 2100 0076 4FEA4303 		lsl	r3, r3, #1
 2101 007a 0B44     		add	r3, r3, r1
 2102 007c 4FEA8303 		lsl	r3, r3, #2
 2103 0080 1344     		add	r3, r3, r2
 2104 0082 4FF00002 		mov	r2, #0
 2105 0086 DA70     		strb	r2, [r3, #3]
 981:.\Generated_Source\PSoC5/USBFS_std.c ****         USBFS_EP[ep].apiEpState = USBFS_NO_EVENT_ALLOWED;
 2106              		.loc 1 981 0
 2107 0088 F979     		ldrb	r1, [r7, #7]	@ zero_extendqisi2
 2108 008a 40F20002 		movw	r2, #:lower16:USBFS_EP
 2109 008e C0F20002 		movt	r2, #:upper16:USBFS_EP
 2110 0092 0B46     		mov	r3, r1
 2111 0094 4FEA4303 		lsl	r3, r3, #1
 2112 0098 0B44     		add	r3, r3, r1
 2113 009a 4FEA8303 		lsl	r3, r3, #2
 2114 009e 1344     		add	r3, r3, r2
 2115 00a0 4FF00202 		mov	r2, #2
 2116 00a4 5A70     		strb	r2, [r3, #1]
 982:.\Generated_Source\PSoC5/USBFS_std.c **** 
 983:.\Generated_Source\PSoC5/USBFS_std.c ****         if (USBFS_EP[ep].addr & USBFS_DIR_IN)
 2117              		.loc 1 983 0
 2118 00a6 F979     		ldrb	r1, [r7, #7]	@ zero_extendqisi2
 2119 00a8 40F20002 		movw	r2, #:lower16:USBFS_EP
 2120 00ac C0F20002 		movt	r2, #:upper16:USBFS_EP
 2121 00b0 0B46     		mov	r3, r1
 2122 00b2 4FEA4303 		lsl	r3, r3, #1
 2123 00b6 0B44     		add	r3, r3, r1
 2124 00b8 4FEA8303 		lsl	r3, r3, #2
 2125 00bc 1344     		add	r3, r3, r2
 2126 00be 1B79     		ldrb	r3, [r3, #4]
 2127 00c0 DBB2     		uxtb	r3, r3
 2128 00c2 5BB2     		sxtb	r3, r3
 2129 00c4 002B     		cmp	r3, #0
 2130 00c6 09DA     		bge	.L113
 984:.\Generated_Source\PSoC5/USBFS_std.c ****         {
 985:.\Generated_Source\PSoC5/USBFS_std.c ****             /* IN Endpoint */
 986:.\Generated_Source\PSoC5/USBFS_std.c ****             CY_SET_REG8(&USBFS_SIE_EP1_CR0_PTR[ri], USBFS_MODE_NAK_IN);
 2131              		.loc 1 986 0
 2132 00c8 FA7B     		ldrb	r2, [r7, #15]	@ zero_extendqisi2
 2133 00ca 46F20E03 		movw	r3, #:lower16:1073766414
 2134 00ce C4F20003 		movt	r3, #:upper16:1073766414
 2135 00d2 1344     		add	r3, r2, r3
 2136 00d4 4FF00C02 		mov	r2, #12
 2137 00d8 1A70     		strb	r2, [r3, #0]
 2138 00da 08E0     		b	.L114
 2139              	.L113:
 987:.\Generated_Source\PSoC5/USBFS_std.c ****         }
 988:.\Generated_Source\PSoC5/USBFS_std.c ****         else
ARM GAS  C:\DOCUME~1\ADMINI~1\LOCALS~1\Temp\ccmk5fwz.s 			page 56


 989:.\Generated_Source\PSoC5/USBFS_std.c ****         {
 990:.\Generated_Source\PSoC5/USBFS_std.c ****             /* OUT Endpoint */
 991:.\Generated_Source\PSoC5/USBFS_std.c ****             CY_SET_REG8(&USBFS_SIE_EP1_CR0_PTR[ri], USBFS_MODE_NAK_OUT);
 2140              		.loc 1 991 0
 2141 00dc FA7B     		ldrb	r2, [r7, #15]	@ zero_extendqisi2
 2142 00de 46F20E03 		movw	r3, #:lower16:1073766414
 2143 00e2 C4F20003 		movt	r3, #:upper16:1073766414
 2144 00e6 1344     		add	r3, r2, r3
 2145 00e8 4FF00802 		mov	r2, #8
 2146 00ec 1A70     		strb	r2, [r3, #0]
 2147              	.L114:
 992:.\Generated_Source\PSoC5/USBFS_std.c ****         }
 993:.\Generated_Source\PSoC5/USBFS_std.c ****     }
 994:.\Generated_Source\PSoC5/USBFS_std.c **** }
 2148              		.loc 1 994 0
 2149 00ee 07F11407 		add	r7, r7, #20
 2150 00f2 BD46     		mov	sp, r7
 2151 00f4 80BC     		pop	{r7}
 2152 00f6 7047     		bx	lr
 2153              		.cfi_endproc
 2154              	.LFE9:
 2155              		.size	USBFS_TerminateEP, .-USBFS_TerminateEP
 2156              		.section	.text.USBFS_SetEndpointHalt,"ax",%progbits
 2157              		.align	2
 2158              		.global	USBFS_SetEndpointHalt
 2159              		.thumb
 2160              		.thumb_func
 2161              		.type	USBFS_SetEndpointHalt, %function
 2162              	USBFS_SetEndpointHalt:
 2163              	.LFB10:
 995:.\Generated_Source\PSoC5/USBFS_std.c **** 
 996:.\Generated_Source\PSoC5/USBFS_std.c **** 
 997:.\Generated_Source\PSoC5/USBFS_std.c **** /*******************************************************************************
 998:.\Generated_Source\PSoC5/USBFS_std.c **** * Function Name: USBFS_SetEndpointHalt
 999:.\Generated_Source\PSoC5/USBFS_std.c **** ********************************************************************************
1000:.\Generated_Source\PSoC5/USBFS_std.c **** *
1001:.\Generated_Source\PSoC5/USBFS_std.c **** * Summary:
1002:.\Generated_Source\PSoC5/USBFS_std.c **** *  This routine handles set endpoint halt.
1003:.\Generated_Source\PSoC5/USBFS_std.c **** *
1004:.\Generated_Source\PSoC5/USBFS_std.c **** * Parameters:
1005:.\Generated_Source\PSoC5/USBFS_std.c **** *  None.
1006:.\Generated_Source\PSoC5/USBFS_std.c **** *
1007:.\Generated_Source\PSoC5/USBFS_std.c **** * Return:
1008:.\Generated_Source\PSoC5/USBFS_std.c **** *  requestHandled.
1009:.\Generated_Source\PSoC5/USBFS_std.c **** *
1010:.\Generated_Source\PSoC5/USBFS_std.c **** * Reentrant:
1011:.\Generated_Source\PSoC5/USBFS_std.c **** *  No.
1012:.\Generated_Source\PSoC5/USBFS_std.c **** *
1013:.\Generated_Source\PSoC5/USBFS_std.c **** *******************************************************************************/
1014:.\Generated_Source\PSoC5/USBFS_std.c **** uint8 USBFS_SetEndpointHalt(void) 
1015:.\Generated_Source\PSoC5/USBFS_std.c **** {
 2164              		.loc 1 1015 0
 2165              		.cfi_startproc
 2166              		@ args = 0, pretend = 0, frame = 8
 2167              		@ frame_needed = 1, uses_anonymous_args = 0
 2168 0000 80B5     		push	{r7, lr}
 2169              	.LCFI29:
ARM GAS  C:\DOCUME~1\ADMINI~1\LOCALS~1\Temp\ccmk5fwz.s 			page 57


 2170              		.cfi_def_cfa_offset 8
 2171 0002 82B0     		sub	sp, sp, #8
 2172              	.LCFI30:
 2173              		.cfi_def_cfa_offset 16
 2174 0004 00AF     		add	r7, sp, #0
 2175              		.cfi_offset 14, -4
 2176              		.cfi_offset 7, -8
 2177              	.LCFI31:
 2178              		.cfi_def_cfa_register 7
1016:.\Generated_Source\PSoC5/USBFS_std.c ****     uint8 ep, ri;
1017:.\Generated_Source\PSoC5/USBFS_std.c ****     uint8 requestHandled = USBFS_FALSE;
 2179              		.loc 1 1017 0
 2180 0006 4FF00003 		mov	r3, #0
 2181 000a FB71     		strb	r3, [r7, #7]
1018:.\Generated_Source\PSoC5/USBFS_std.c **** 
1019:.\Generated_Source\PSoC5/USBFS_std.c ****     /* Set endpoint halt */
1020:.\Generated_Source\PSoC5/USBFS_std.c ****     ep = CY_GET_REG8(USBFS_wIndexLo) & USBFS_DIR_UNUSED;
 2182              		.loc 1 1020 0
 2183 000c 46F20403 		movw	r3, #:lower16:1073766404
 2184 0010 C4F20003 		movt	r3, #:upper16:1073766404
 2185 0014 1B78     		ldrb	r3, [r3, #0]
 2186 0016 DBB2     		uxtb	r3, r3
 2187 0018 03F07F03 		and	r3, r3, #127
 2188 001c 7B71     		strb	r3, [r7, #5]
1021:.\Generated_Source\PSoC5/USBFS_std.c ****     ri = ((ep - USBFS_EP1) << USBFS_EPX_CNTX_ADDR_SHIFT);
 2189              		.loc 1 1021 0
 2190 001e 7B79     		ldrb	r3, [r7, #5]
 2191 0020 03F1FF33 		add	r3, r3, #-1
 2192 0024 DBB2     		uxtb	r3, r3
 2193 0026 4FEA0313 		lsl	r3, r3, #4
 2194 002a BB71     		strb	r3, [r7, #6]
1022:.\Generated_Source\PSoC5/USBFS_std.c **** 
1023:.\Generated_Source\PSoC5/USBFS_std.c ****     if ((ep > USBFS_EP0) && (ep < USBFS_MAX_EP))
 2195              		.loc 1 1023 0
 2196 002c 7B79     		ldrb	r3, [r7, #5]	@ zero_extendqisi2
 2197 002e 002B     		cmp	r3, #0
 2198 0030 77D0     		beq	.L116
 2199 0032 7B79     		ldrb	r3, [r7, #5]	@ zero_extendqisi2
 2200 0034 082B     		cmp	r3, #8
 2201 0036 74D8     		bhi	.L116
1024:.\Generated_Source\PSoC5/USBFS_std.c ****     {
1025:.\Generated_Source\PSoC5/USBFS_std.c ****         /* Set the endpoint Halt */
1026:.\Generated_Source\PSoC5/USBFS_std.c ****         USBFS_EP[ep].hwEpState |= (USBFS_ENDPOINT_STATUS_HALT);
 2202              		.loc 1 1026 0
 2203 0038 7979     		ldrb	r1, [r7, #5]	@ zero_extendqisi2
 2204 003a 7879     		ldrb	r0, [r7, #5]	@ zero_extendqisi2
 2205 003c 40F20002 		movw	r2, #:lower16:USBFS_EP
 2206 0040 C0F20002 		movt	r2, #:upper16:USBFS_EP
 2207 0044 0346     		mov	r3, r0
 2208 0046 4FEA4303 		lsl	r3, r3, #1
 2209 004a 0344     		add	r3, r3, r0
 2210 004c 4FEA8303 		lsl	r3, r3, #2
 2211 0050 1344     		add	r3, r3, r2
 2212 0052 9B78     		ldrb	r3, [r3, #2]
 2213 0054 DBB2     		uxtb	r3, r3
 2214 0056 43F00103 		orr	r3, r3, #1
 2215 005a D8B2     		uxtb	r0, r3
ARM GAS  C:\DOCUME~1\ADMINI~1\LOCALS~1\Temp\ccmk5fwz.s 			page 58


 2216 005c 40F20002 		movw	r2, #:lower16:USBFS_EP
 2217 0060 C0F20002 		movt	r2, #:upper16:USBFS_EP
 2218 0064 0B46     		mov	r3, r1
 2219 0066 4FEA4303 		lsl	r3, r3, #1
 2220 006a 0B44     		add	r3, r3, r1
 2221 006c 4FEA8303 		lsl	r3, r3, #2
 2222 0070 1344     		add	r3, r3, r2
 2223 0072 0246     		mov	r2, r0
 2224 0074 9A70     		strb	r2, [r3, #2]
1027:.\Generated_Source\PSoC5/USBFS_std.c **** 
1028:.\Generated_Source\PSoC5/USBFS_std.c ****         /* Clear the data toggle */
1029:.\Generated_Source\PSoC5/USBFS_std.c ****         USBFS_EP[ep].epToggle = 0u;
 2225              		.loc 1 1029 0
 2226 0076 7979     		ldrb	r1, [r7, #5]	@ zero_extendqisi2
 2227 0078 40F20002 		movw	r2, #:lower16:USBFS_EP
 2228 007c C0F20002 		movt	r2, #:upper16:USBFS_EP
 2229 0080 0B46     		mov	r3, r1
 2230 0082 4FEA4303 		lsl	r3, r3, #1
 2231 0086 0B44     		add	r3, r3, r1
 2232 0088 4FEA8303 		lsl	r3, r3, #2
 2233 008c 1344     		add	r3, r3, r2
 2234 008e 4FF00002 		mov	r2, #0
 2235 0092 DA70     		strb	r2, [r3, #3]
1030:.\Generated_Source\PSoC5/USBFS_std.c ****         USBFS_EP[ep].apiEpState |= USBFS_NO_EVENT_ALLOWED;
 2236              		.loc 1 1030 0
 2237 0094 7979     		ldrb	r1, [r7, #5]	@ zero_extendqisi2
 2238 0096 7879     		ldrb	r0, [r7, #5]	@ zero_extendqisi2
 2239 0098 40F20002 		movw	r2, #:lower16:USBFS_EP
 2240 009c C0F20002 		movt	r2, #:upper16:USBFS_EP
 2241 00a0 0346     		mov	r3, r0
 2242 00a2 4FEA4303 		lsl	r3, r3, #1
 2243 00a6 0344     		add	r3, r3, r0
 2244 00a8 4FEA8303 		lsl	r3, r3, #2
 2245 00ac 1344     		add	r3, r3, r2
 2246 00ae 5B78     		ldrb	r3, [r3, #1]
 2247 00b0 DBB2     		uxtb	r3, r3
 2248 00b2 43F00203 		orr	r3, r3, #2
 2249 00b6 D8B2     		uxtb	r0, r3
 2250 00b8 40F20002 		movw	r2, #:lower16:USBFS_EP
 2251 00bc C0F20002 		movt	r2, #:upper16:USBFS_EP
 2252 00c0 0B46     		mov	r3, r1
 2253 00c2 4FEA4303 		lsl	r3, r3, #1
 2254 00c6 0B44     		add	r3, r3, r1
 2255 00c8 4FEA8303 		lsl	r3, r3, #2
 2256 00cc 1344     		add	r3, r3, r2
 2257 00ce 0246     		mov	r2, r0
 2258 00d0 5A70     		strb	r2, [r3, #1]
1031:.\Generated_Source\PSoC5/USBFS_std.c **** 
1032:.\Generated_Source\PSoC5/USBFS_std.c ****         if (USBFS_EP[ep].addr & USBFS_DIR_IN)
 2259              		.loc 1 1032 0
 2260 00d2 7979     		ldrb	r1, [r7, #5]	@ zero_extendqisi2
 2261 00d4 40F20002 		movw	r2, #:lower16:USBFS_EP
 2262 00d8 C0F20002 		movt	r2, #:upper16:USBFS_EP
 2263 00dc 0B46     		mov	r3, r1
 2264 00de 4FEA4303 		lsl	r3, r3, #1
 2265 00e2 0B44     		add	r3, r3, r1
 2266 00e4 4FEA8303 		lsl	r3, r3, #2
ARM GAS  C:\DOCUME~1\ADMINI~1\LOCALS~1\Temp\ccmk5fwz.s 			page 59


 2267 00e8 1344     		add	r3, r3, r2
 2268 00ea 1B79     		ldrb	r3, [r3, #4]
 2269 00ec DBB2     		uxtb	r3, r3
 2270 00ee 5BB2     		sxtb	r3, r3
 2271 00f0 002B     		cmp	r3, #0
 2272 00f2 09DA     		bge	.L117
1033:.\Generated_Source\PSoC5/USBFS_std.c ****         {
1034:.\Generated_Source\PSoC5/USBFS_std.c ****             /* IN Endpoint */
1035:.\Generated_Source\PSoC5/USBFS_std.c ****             CY_SET_REG8(&USBFS_SIE_EP1_CR0_PTR[ri], USBFS_MODE_STALL_DATA_EP |
 2273              		.loc 1 1035 0
 2274 00f4 BA79     		ldrb	r2, [r7, #6]	@ zero_extendqisi2
 2275 00f6 46F20E03 		movw	r3, #:lower16:1073766414
 2276 00fa C4F20003 		movt	r3, #:upper16:1073766414
 2277 00fe 1344     		add	r3, r2, r3
 2278 0100 6FF07202 		mvn	r2, #114
 2279 0104 1A70     		strb	r2, [r3, #0]
 2280 0106 08E0     		b	.L118
 2281              	.L117:
1036:.\Generated_Source\PSoC5/USBFS_std.c ****                                                                USBFS_MODE_ACK_IN);
1037:.\Generated_Source\PSoC5/USBFS_std.c ****         }
1038:.\Generated_Source\PSoC5/USBFS_std.c ****         else
1039:.\Generated_Source\PSoC5/USBFS_std.c ****         {
1040:.\Generated_Source\PSoC5/USBFS_std.c ****             /* OUT Endpoint */
1041:.\Generated_Source\PSoC5/USBFS_std.c ****             CY_SET_REG8(&USBFS_SIE_EP1_CR0_PTR[ri], USBFS_MODE_STALL_DATA_EP |
 2282              		.loc 1 1041 0
 2283 0108 BA79     		ldrb	r2, [r7, #6]	@ zero_extendqisi2
 2284 010a 46F20E03 		movw	r3, #:lower16:1073766414
 2285 010e C4F20003 		movt	r3, #:upper16:1073766414
 2286 0112 1344     		add	r3, r2, r3
 2287 0114 6FF07602 		mvn	r2, #118
 2288 0118 1A70     		strb	r2, [r3, #0]
 2289              	.L118:
1042:.\Generated_Source\PSoC5/USBFS_std.c ****                                                                USBFS_MODE_ACK_OUT);
1043:.\Generated_Source\PSoC5/USBFS_std.c ****         }
1044:.\Generated_Source\PSoC5/USBFS_std.c ****         requestHandled = USBFS_InitNoDataControlTransfer();
 2290              		.loc 1 1044 0
 2291 011a FFF7FEFF 		bl	USBFS_InitNoDataControlTransfer
 2292 011e 0346     		mov	r3, r0
 2293 0120 FB71     		strb	r3, [r7, #7]
 2294              	.L116:
1045:.\Generated_Source\PSoC5/USBFS_std.c ****     }
1046:.\Generated_Source\PSoC5/USBFS_std.c **** 
1047:.\Generated_Source\PSoC5/USBFS_std.c ****     return(requestHandled);
 2295              		.loc 1 1047 0
 2296 0122 FB79     		ldrb	r3, [r7, #7]	@ zero_extendqisi2
1048:.\Generated_Source\PSoC5/USBFS_std.c **** }
 2297              		.loc 1 1048 0
 2298 0124 1846     		mov	r0, r3
 2299 0126 07F10807 		add	r7, r7, #8
 2300 012a BD46     		mov	sp, r7
 2301 012c 80BD     		pop	{r7, pc}
 2302              		.cfi_endproc
 2303              	.LFE10:
 2304              		.size	USBFS_SetEndpointHalt, .-USBFS_SetEndpointHalt
 2305 012e 00BF     		.section	.text.USBFS_ClearEndpointHalt,"ax",%progbits
 2306              		.align	2
 2307              		.global	USBFS_ClearEndpointHalt
ARM GAS  C:\DOCUME~1\ADMINI~1\LOCALS~1\Temp\ccmk5fwz.s 			page 60


 2308              		.thumb
 2309              		.thumb_func
 2310              		.type	USBFS_ClearEndpointHalt, %function
 2311              	USBFS_ClearEndpointHalt:
 2312              	.LFB11:
1049:.\Generated_Source\PSoC5/USBFS_std.c **** 
1050:.\Generated_Source\PSoC5/USBFS_std.c **** 
1051:.\Generated_Source\PSoC5/USBFS_std.c **** /*******************************************************************************
1052:.\Generated_Source\PSoC5/USBFS_std.c **** * Function Name: USBFS_ClearEndpointHalt
1053:.\Generated_Source\PSoC5/USBFS_std.c **** ********************************************************************************
1054:.\Generated_Source\PSoC5/USBFS_std.c **** *
1055:.\Generated_Source\PSoC5/USBFS_std.c **** * Summary:
1056:.\Generated_Source\PSoC5/USBFS_std.c **** *  This routine handles clear endpoint halt.
1057:.\Generated_Source\PSoC5/USBFS_std.c **** *
1058:.\Generated_Source\PSoC5/USBFS_std.c **** * Parameters:
1059:.\Generated_Source\PSoC5/USBFS_std.c **** *  None.
1060:.\Generated_Source\PSoC5/USBFS_std.c **** *
1061:.\Generated_Source\PSoC5/USBFS_std.c **** * Return:
1062:.\Generated_Source\PSoC5/USBFS_std.c **** *  requestHandled.
1063:.\Generated_Source\PSoC5/USBFS_std.c **** *
1064:.\Generated_Source\PSoC5/USBFS_std.c **** * Reentrant:
1065:.\Generated_Source\PSoC5/USBFS_std.c **** *  No.
1066:.\Generated_Source\PSoC5/USBFS_std.c **** *
1067:.\Generated_Source\PSoC5/USBFS_std.c **** *******************************************************************************/
1068:.\Generated_Source\PSoC5/USBFS_std.c **** uint8 USBFS_ClearEndpointHalt(void) 
1069:.\Generated_Source\PSoC5/USBFS_std.c **** {
 2313              		.loc 1 1069 0
 2314              		.cfi_startproc
 2315              		@ args = 0, pretend = 0, frame = 8
 2316              		@ frame_needed = 1, uses_anonymous_args = 0
 2317 0000 80B5     		push	{r7, lr}
 2318              	.LCFI32:
 2319              		.cfi_def_cfa_offset 8
 2320 0002 82B0     		sub	sp, sp, #8
 2321              	.LCFI33:
 2322              		.cfi_def_cfa_offset 16
 2323 0004 00AF     		add	r7, sp, #0
 2324              		.cfi_offset 14, -4
 2325              		.cfi_offset 7, -8
 2326              	.LCFI34:
 2327              		.cfi_def_cfa_register 7
1070:.\Generated_Source\PSoC5/USBFS_std.c ****     uint8 ep, ri;
1071:.\Generated_Source\PSoC5/USBFS_std.c ****     uint8 requestHandled = USBFS_FALSE;
 2328              		.loc 1 1071 0
 2329 0006 4FF00003 		mov	r3, #0
 2330 000a FB71     		strb	r3, [r7, #7]
1072:.\Generated_Source\PSoC5/USBFS_std.c **** 
1073:.\Generated_Source\PSoC5/USBFS_std.c ****     /* Clear endpoint halt */
1074:.\Generated_Source\PSoC5/USBFS_std.c ****     ep = CY_GET_REG8(USBFS_wIndexLo) & USBFS_DIR_UNUSED;
 2331              		.loc 1 1074 0
 2332 000c 46F20403 		movw	r3, #:lower16:1073766404
 2333 0010 C4F20003 		movt	r3, #:upper16:1073766404
 2334 0014 1B78     		ldrb	r3, [r3, #0]
 2335 0016 DBB2     		uxtb	r3, r3
 2336 0018 03F07F03 		and	r3, r3, #127
 2337 001c 7B71     		strb	r3, [r7, #5]
1075:.\Generated_Source\PSoC5/USBFS_std.c ****     ri = ((ep - USBFS_EP1) << USBFS_EPX_CNTX_ADDR_SHIFT);
ARM GAS  C:\DOCUME~1\ADMINI~1\LOCALS~1\Temp\ccmk5fwz.s 			page 61


 2338              		.loc 1 1075 0
 2339 001e 7B79     		ldrb	r3, [r7, #5]
 2340 0020 03F1FF33 		add	r3, r3, #-1
 2341 0024 DBB2     		uxtb	r3, r3
 2342 0026 4FEA0313 		lsl	r3, r3, #4
 2343 002a BB71     		strb	r3, [r7, #6]
1076:.\Generated_Source\PSoC5/USBFS_std.c **** 
1077:.\Generated_Source\PSoC5/USBFS_std.c ****     if ((ep > USBFS_EP0) && (ep < USBFS_MAX_EP))
 2344              		.loc 1 1077 0
 2345 002c 7B79     		ldrb	r3, [r7, #5]	@ zero_extendqisi2
 2346 002e 002B     		cmp	r3, #0
 2347 0030 00F0BC80 		beq	.L121
 2348 0034 7B79     		ldrb	r3, [r7, #5]	@ zero_extendqisi2
 2349 0036 082B     		cmp	r3, #8
 2350 0038 00F2B880 		bhi	.L121
1078:.\Generated_Source\PSoC5/USBFS_std.c ****     {
1079:.\Generated_Source\PSoC5/USBFS_std.c ****         /* Clear the endpoint Halt */
1080:.\Generated_Source\PSoC5/USBFS_std.c ****         USBFS_EP[ep].hwEpState &= ~(USBFS_ENDPOINT_STATUS_HALT);
 2351              		.loc 1 1080 0
 2352 003c 7879     		ldrb	r0, [r7, #5]	@ zero_extendqisi2
 2353 003e 7979     		ldrb	r1, [r7, #5]	@ zero_extendqisi2
 2354 0040 40F20002 		movw	r2, #:lower16:USBFS_EP
 2355 0044 C0F20002 		movt	r2, #:upper16:USBFS_EP
 2356 0048 0B46     		mov	r3, r1
 2357 004a 4FEA4303 		lsl	r3, r3, #1
 2358 004e 0B44     		add	r3, r3, r1
 2359 0050 4FEA8303 		lsl	r3, r3, #2
 2360 0054 1344     		add	r3, r3, r2
 2361 0056 9B78     		ldrb	r3, [r3, #2]
 2362 0058 DBB2     		uxtb	r3, r3
 2363 005a 1A46     		mov	r2, r3
 2364 005c 02F0FE02 		and	r2, r2, #254
 2365 0060 40F20001 		movw	r1, #:lower16:USBFS_EP
 2366 0064 C0F20001 		movt	r1, #:upper16:USBFS_EP
 2367 0068 0346     		mov	r3, r0
 2368 006a 4FEA4303 		lsl	r3, r3, #1
 2369 006e 0344     		add	r3, r3, r0
 2370 0070 4FEA8303 		lsl	r3, r3, #2
 2371 0074 0B44     		add	r3, r3, r1
 2372 0076 9A70     		strb	r2, [r3, #2]
1081:.\Generated_Source\PSoC5/USBFS_std.c **** 
1082:.\Generated_Source\PSoC5/USBFS_std.c ****         /* Clear the data toggle */
1083:.\Generated_Source\PSoC5/USBFS_std.c ****         USBFS_EP[ep].epToggle = 0u;
 2373              		.loc 1 1083 0
 2374 0078 7979     		ldrb	r1, [r7, #5]	@ zero_extendqisi2
 2375 007a 40F20002 		movw	r2, #:lower16:USBFS_EP
 2376 007e C0F20002 		movt	r2, #:upper16:USBFS_EP
 2377 0082 0B46     		mov	r3, r1
 2378 0084 4FEA4303 		lsl	r3, r3, #1
 2379 0088 0B44     		add	r3, r3, r1
 2380 008a 4FEA8303 		lsl	r3, r3, #2
 2381 008e 1344     		add	r3, r3, r2
 2382 0090 4FF00002 		mov	r2, #0
 2383 0094 DA70     		strb	r2, [r3, #3]
1084:.\Generated_Source\PSoC5/USBFS_std.c ****         /* Clear toggle bit for already armed packet */
1085:.\Generated_Source\PSoC5/USBFS_std.c ****         CY_SET_REG8(&USBFS_SIE_EP1_CNT0_PTR[ri], 
 2384              		.loc 1 1085 0
ARM GAS  C:\DOCUME~1\ADMINI~1\LOCALS~1\Temp\ccmk5fwz.s 			page 62


 2385 0096 BA79     		ldrb	r2, [r7, #6]	@ zero_extendqisi2
 2386 0098 46F20C03 		movw	r3, #:lower16:1073766412
 2387 009c C4F20003 		movt	r3, #:upper16:1073766412
 2388 00a0 1344     		add	r3, r2, r3
 2389 00a2 B979     		ldrb	r1, [r7, #6]	@ zero_extendqisi2
 2390 00a4 46F20C02 		movw	r2, #:lower16:1073766412
 2391 00a8 C4F20002 		movt	r2, #:upper16:1073766412
 2392 00ac 0A44     		add	r2, r1, r2
 2393 00ae 1278     		ldrb	r2, [r2, #0]
 2394 00b0 D2B2     		uxtb	r2, r2
 2395 00b2 02F07F02 		and	r2, r2, #127
 2396 00b6 1A70     		strb	r2, [r3, #0]
1086:.\Generated_Source\PSoC5/USBFS_std.c ****                     CY_GET_REG8(&USBFS_SIE_EP1_CNT0_PTR[ri]) & ~USBFS_EPX_CNT_DATA_TOGGLE);
1087:.\Generated_Source\PSoC5/USBFS_std.c ****         /* Return api State as it was defined before */
1088:.\Generated_Source\PSoC5/USBFS_std.c ****         USBFS_EP[ep].apiEpState &= ~USBFS_NO_EVENT_ALLOWED;
 2397              		.loc 1 1088 0
 2398 00b8 7879     		ldrb	r0, [r7, #5]	@ zero_extendqisi2
 2399 00ba 7979     		ldrb	r1, [r7, #5]	@ zero_extendqisi2
 2400 00bc 40F20002 		movw	r2, #:lower16:USBFS_EP
 2401 00c0 C0F20002 		movt	r2, #:upper16:USBFS_EP
 2402 00c4 0B46     		mov	r3, r1
 2403 00c6 4FEA4303 		lsl	r3, r3, #1
 2404 00ca 0B44     		add	r3, r3, r1
 2405 00cc 4FEA8303 		lsl	r3, r3, #2
 2406 00d0 1344     		add	r3, r3, r2
 2407 00d2 5B78     		ldrb	r3, [r3, #1]
 2408 00d4 DBB2     		uxtb	r3, r3
 2409 00d6 1A46     		mov	r2, r3
 2410 00d8 02F0FD02 		and	r2, r2, #253
 2411 00dc 40F20001 		movw	r1, #:lower16:USBFS_EP
 2412 00e0 C0F20001 		movt	r1, #:upper16:USBFS_EP
 2413 00e4 0346     		mov	r3, r0
 2414 00e6 4FEA4303 		lsl	r3, r3, #1
 2415 00ea 0344     		add	r3, r3, r0
 2416 00ec 4FEA8303 		lsl	r3, r3, #2
 2417 00f0 0B44     		add	r3, r3, r1
 2418 00f2 5A70     		strb	r2, [r3, #1]
1089:.\Generated_Source\PSoC5/USBFS_std.c **** 
1090:.\Generated_Source\PSoC5/USBFS_std.c ****         if (USBFS_EP[ep].addr & USBFS_DIR_IN)
 2419              		.loc 1 1090 0
 2420 00f4 7979     		ldrb	r1, [r7, #5]	@ zero_extendqisi2
 2421 00f6 40F20002 		movw	r2, #:lower16:USBFS_EP
 2422 00fa C0F20002 		movt	r2, #:upper16:USBFS_EP
 2423 00fe 0B46     		mov	r3, r1
 2424 0100 4FEA4303 		lsl	r3, r3, #1
 2425 0104 0B44     		add	r3, r3, r1
 2426 0106 4FEA8303 		lsl	r3, r3, #2
 2427 010a 1344     		add	r3, r3, r2
 2428 010c 1B79     		ldrb	r3, [r3, #4]
 2429 010e DBB2     		uxtb	r3, r3
 2430 0110 5BB2     		sxtb	r3, r3
 2431 0112 002B     		cmp	r3, #0
 2432 0114 23DA     		bge	.L122
1091:.\Generated_Source\PSoC5/USBFS_std.c ****         {
1092:.\Generated_Source\PSoC5/USBFS_std.c ****             /* IN Endpoint */
1093:.\Generated_Source\PSoC5/USBFS_std.c ****             if(USBFS_EP[ep].apiEpState == USBFS_IN_BUFFER_EMPTY)
 2433              		.loc 1 1093 0
ARM GAS  C:\DOCUME~1\ADMINI~1\LOCALS~1\Temp\ccmk5fwz.s 			page 63


 2434 0116 7979     		ldrb	r1, [r7, #5]	@ zero_extendqisi2
 2435 0118 40F20002 		movw	r2, #:lower16:USBFS_EP
 2436 011c C0F20002 		movt	r2, #:upper16:USBFS_EP
 2437 0120 0B46     		mov	r3, r1
 2438 0122 4FEA4303 		lsl	r3, r3, #1
 2439 0126 0B44     		add	r3, r3, r1
 2440 0128 4FEA8303 		lsl	r3, r3, #2
 2441 012c 1344     		add	r3, r3, r2
 2442 012e 5B78     		ldrb	r3, [r3, #1]
 2443 0130 DBB2     		uxtb	r3, r3
 2444 0132 012B     		cmp	r3, #1
 2445 0134 09D1     		bne	.L123
1094:.\Generated_Source\PSoC5/USBFS_std.c ****             {       /* Wait for next packet from application */
1095:.\Generated_Source\PSoC5/USBFS_std.c ****                 CY_SET_REG8(&USBFS_SIE_EP1_CR0_PTR[ri], USBFS_MODE_NAK_IN);
 2446              		.loc 1 1095 0
 2447 0136 BA79     		ldrb	r2, [r7, #6]	@ zero_extendqisi2
 2448 0138 46F20E03 		movw	r3, #:lower16:1073766414
 2449 013c C4F20003 		movt	r3, #:upper16:1073766414
 2450 0140 1344     		add	r3, r2, r3
 2451 0142 4FF00C02 		mov	r2, #12
 2452 0146 1A70     		strb	r2, [r3, #0]
1096:.\Generated_Source\PSoC5/USBFS_std.c ****             }
1097:.\Generated_Source\PSoC5/USBFS_std.c ****             else    /* Continue armed transfer */
1098:.\Generated_Source\PSoC5/USBFS_std.c ****             {
1099:.\Generated_Source\PSoC5/USBFS_std.c ****                 CY_SET_REG8(&USBFS_SIE_EP1_CR0_PTR[ri], USBFS_MODE_ACK_IN);
 2453              		.loc 1 1099 0
 2454 0148 2CE0     		b	.L125
 2455              	.L123:
 2456 014a BA79     		ldrb	r2, [r7, #6]	@ zero_extendqisi2
 2457 014c 46F20E03 		movw	r3, #:lower16:1073766414
 2458 0150 C4F20003 		movt	r3, #:upper16:1073766414
 2459 0154 1344     		add	r3, r2, r3
 2460 0156 4FF00D02 		mov	r2, #13
 2461 015a 1A70     		strb	r2, [r3, #0]
 2462 015c 22E0     		b	.L125
 2463              	.L122:
1100:.\Generated_Source\PSoC5/USBFS_std.c ****             }
1101:.\Generated_Source\PSoC5/USBFS_std.c ****         }
1102:.\Generated_Source\PSoC5/USBFS_std.c ****         else
1103:.\Generated_Source\PSoC5/USBFS_std.c ****         {
1104:.\Generated_Source\PSoC5/USBFS_std.c ****             /* OUT Endpoint */
1105:.\Generated_Source\PSoC5/USBFS_std.c ****             if(USBFS_EP[ep].apiEpState == USBFS_OUT_BUFFER_FULL)
 2464              		.loc 1 1105 0
 2465 015e 7979     		ldrb	r1, [r7, #5]	@ zero_extendqisi2
 2466 0160 40F20002 		movw	r2, #:lower16:USBFS_EP
 2467 0164 C0F20002 		movt	r2, #:upper16:USBFS_EP
 2468 0168 0B46     		mov	r3, r1
 2469 016a 4FEA4303 		lsl	r3, r3, #1
 2470 016e 0B44     		add	r3, r3, r1
 2471 0170 4FEA8303 		lsl	r3, r3, #2
 2472 0174 1344     		add	r3, r3, r2
 2473 0176 5B78     		ldrb	r3, [r3, #1]
 2474 0178 DBB2     		uxtb	r3, r3
 2475 017a 012B     		cmp	r3, #1
 2476 017c 09D1     		bne	.L126
1106:.\Generated_Source\PSoC5/USBFS_std.c ****             {       /* Allow application to read full buffer */
1107:.\Generated_Source\PSoC5/USBFS_std.c ****                 CY_SET_REG8(&USBFS_SIE_EP1_CR0_PTR[ri], USBFS_MODE_NAK_OUT);
ARM GAS  C:\DOCUME~1\ADMINI~1\LOCALS~1\Temp\ccmk5fwz.s 			page 64


 2477              		.loc 1 1107 0
 2478 017e BA79     		ldrb	r2, [r7, #6]	@ zero_extendqisi2
 2479 0180 46F20E03 		movw	r3, #:lower16:1073766414
 2480 0184 C4F20003 		movt	r3, #:upper16:1073766414
 2481 0188 1344     		add	r3, r2, r3
 2482 018a 4FF00802 		mov	r2, #8
 2483 018e 1A70     		strb	r2, [r3, #0]
 2484 0190 08E0     		b	.L125
 2485              	.L126:
1108:.\Generated_Source\PSoC5/USBFS_std.c ****             }
1109:.\Generated_Source\PSoC5/USBFS_std.c ****             else    /* Mark endpoint as empty, so it will be reloaded */
1110:.\Generated_Source\PSoC5/USBFS_std.c ****             {
1111:.\Generated_Source\PSoC5/USBFS_std.c ****                 CY_SET_REG8(&USBFS_SIE_EP1_CR0_PTR[ri], USBFS_MODE_ACK_OUT);
 2486              		.loc 1 1111 0
 2487 0192 BA79     		ldrb	r2, [r7, #6]	@ zero_extendqisi2
 2488 0194 46F20E03 		movw	r3, #:lower16:1073766414
 2489 0198 C4F20003 		movt	r3, #:upper16:1073766414
 2490 019c 1344     		add	r3, r2, r3
 2491 019e 4FF00902 		mov	r2, #9
 2492 01a2 1A70     		strb	r2, [r3, #0]
 2493              	.L125:
1112:.\Generated_Source\PSoC5/USBFS_std.c ****             }
1113:.\Generated_Source\PSoC5/USBFS_std.c ****         }
1114:.\Generated_Source\PSoC5/USBFS_std.c ****         requestHandled = USBFS_InitNoDataControlTransfer();
 2494              		.loc 1 1114 0
 2495 01a4 FFF7FEFF 		bl	USBFS_InitNoDataControlTransfer
 2496 01a8 0346     		mov	r3, r0
 2497 01aa FB71     		strb	r3, [r7, #7]
 2498              	.L121:
1115:.\Generated_Source\PSoC5/USBFS_std.c ****     }
1116:.\Generated_Source\PSoC5/USBFS_std.c **** 
1117:.\Generated_Source\PSoC5/USBFS_std.c ****     return(requestHandled);
 2499              		.loc 1 1117 0
 2500 01ac FB79     		ldrb	r3, [r7, #7]	@ zero_extendqisi2
1118:.\Generated_Source\PSoC5/USBFS_std.c **** }
 2501              		.loc 1 1118 0
 2502 01ae 1846     		mov	r0, r3
 2503 01b0 07F10807 		add	r7, r7, #8
 2504 01b4 BD46     		mov	sp, r7
 2505 01b6 80BD     		pop	{r7, pc}
 2506              		.cfi_endproc
 2507              	.LFE11:
 2508              		.size	USBFS_ClearEndpointHalt, .-USBFS_ClearEndpointHalt
 2509              		.section	.text.USBFS_ValidateAlternateSetting,"ax",%progbits
 2510              		.align	2
 2511              		.global	USBFS_ValidateAlternateSetting
 2512              		.thumb
 2513              		.thumb_func
 2514              		.type	USBFS_ValidateAlternateSetting, %function
 2515              	USBFS_ValidateAlternateSetting:
 2516              	.LFB12:
1119:.\Generated_Source\PSoC5/USBFS_std.c **** 
1120:.\Generated_Source\PSoC5/USBFS_std.c **** 
1121:.\Generated_Source\PSoC5/USBFS_std.c **** /*******************************************************************************
1122:.\Generated_Source\PSoC5/USBFS_std.c **** * Function Name: USBFS_ValidateAlternateSetting
1123:.\Generated_Source\PSoC5/USBFS_std.c **** ********************************************************************************
1124:.\Generated_Source\PSoC5/USBFS_std.c **** *
ARM GAS  C:\DOCUME~1\ADMINI~1\LOCALS~1\Temp\ccmk5fwz.s 			page 65


1125:.\Generated_Source\PSoC5/USBFS_std.c **** * Summary:
1126:.\Generated_Source\PSoC5/USBFS_std.c **** *  Validates (and records) a SET INTERFACE request.
1127:.\Generated_Source\PSoC5/USBFS_std.c **** *
1128:.\Generated_Source\PSoC5/USBFS_std.c **** * Parameters:
1129:.\Generated_Source\PSoC5/USBFS_std.c **** *  None.
1130:.\Generated_Source\PSoC5/USBFS_std.c **** *
1131:.\Generated_Source\PSoC5/USBFS_std.c **** * Return:
1132:.\Generated_Source\PSoC5/USBFS_std.c **** *  requestHandled.
1133:.\Generated_Source\PSoC5/USBFS_std.c **** *
1134:.\Generated_Source\PSoC5/USBFS_std.c **** * Reentrant:
1135:.\Generated_Source\PSoC5/USBFS_std.c **** *  No.
1136:.\Generated_Source\PSoC5/USBFS_std.c **** *
1137:.\Generated_Source\PSoC5/USBFS_std.c **** *******************************************************************************/
1138:.\Generated_Source\PSoC5/USBFS_std.c **** uint8 USBFS_ValidateAlternateSetting(void) 
1139:.\Generated_Source\PSoC5/USBFS_std.c **** {
 2517              		.loc 1 1139 0
 2518              		.cfi_startproc
 2519              		@ args = 0, pretend = 0, frame = 16
 2520              		@ frame_needed = 1, uses_anonymous_args = 0
 2521 0000 80B5     		push	{r7, lr}
 2522              	.LCFI35:
 2523              		.cfi_def_cfa_offset 8
 2524 0002 84B0     		sub	sp, sp, #16
 2525              	.LCFI36:
 2526              		.cfi_def_cfa_offset 24
 2527 0004 00AF     		add	r7, sp, #0
 2528              		.cfi_offset 14, -4
 2529              		.cfi_offset 7, -8
 2530              	.LCFI37:
 2531              		.cfi_def_cfa_register 7
1140:.\Generated_Source\PSoC5/USBFS_std.c ****     uint8 requestHandled = USBFS_TRUE;
 2532              		.loc 1 1140 0
 2533 0006 4FF00103 		mov	r3, #1
 2534 000a BB71     		strb	r3, [r7, #6]
1141:.\Generated_Source\PSoC5/USBFS_std.c ****     uint8 interfaceNum;
1142:.\Generated_Source\PSoC5/USBFS_std.c ****     T_USBFS_LUT *pTmp;
1143:.\Generated_Source\PSoC5/USBFS_std.c ****     uint8 currentInterfacesNum;
1144:.\Generated_Source\PSoC5/USBFS_std.c **** 
1145:.\Generated_Source\PSoC5/USBFS_std.c ****     interfaceNum = CY_GET_REG8(USBFS_wIndexLo);
 2535              		.loc 1 1145 0
 2536 000c 46F20403 		movw	r3, #:lower16:1073766404
 2537 0010 C4F20003 		movt	r3, #:upper16:1073766404
 2538 0014 1B78     		ldrb	r3, [r3, #0]
 2539 0016 FB71     		strb	r3, [r7, #7]
1146:.\Generated_Source\PSoC5/USBFS_std.c ****     /* Validate interface setting, stall if invalid. */
1147:.\Generated_Source\PSoC5/USBFS_std.c ****     pTmp = USBFS_GetConfigTablePtr(USBFS_configuration - 1u);
 2540              		.loc 1 1147 0
 2541 0018 40F20003 		movw	r3, #:lower16:USBFS_configuration
 2542 001c C0F20003 		movt	r3, #:upper16:USBFS_configuration
 2543 0020 1B78     		ldrb	r3, [r3, #0]
 2544 0022 DBB2     		uxtb	r3, r3
 2545 0024 03F1FF33 		add	r3, r3, #-1
 2546 0028 DBB2     		uxtb	r3, r3
 2547 002a 1846     		mov	r0, r3
 2548 002c FFF7FEFF 		bl	USBFS_GetConfigTablePtr
 2549 0030 0346     		mov	r3, r0
 2550 0032 BB60     		str	r3, [r7, #8]
ARM GAS  C:\DOCUME~1\ADMINI~1\LOCALS~1\Temp\ccmk5fwz.s 			page 66


1148:.\Generated_Source\PSoC5/USBFS_std.c ****     currentInterfacesNum  = ((uint8 *) pTmp->p_list)[USBFS_CONFIG_DESCR_NUM_INTERFACES];
 2551              		.loc 1 1148 0
 2552 0034 BB68     		ldr	r3, [r7, #8]
 2553 0036 5B68     		ldr	r3, [r3, #4]
 2554 0038 03F10403 		add	r3, r3, #4
 2555 003c 1B78     		ldrb	r3, [r3, #0]
 2556 003e FB73     		strb	r3, [r7, #15]
1149:.\Generated_Source\PSoC5/USBFS_std.c **** 
1150:.\Generated_Source\PSoC5/USBFS_std.c ****     if((interfaceNum >= currentInterfacesNum) || (interfaceNum >= USBFS_MAX_INTERFACES_NUMBER))
 2557              		.loc 1 1150 0
 2558 0040 FA79     		ldrb	r2, [r7, #7]	@ zero_extendqisi2
 2559 0042 FB7B     		ldrb	r3, [r7, #15]	@ zero_extendqisi2
 2560 0044 9A42     		cmp	r2, r3
 2561 0046 02D2     		bcs	.L129
 2562 0048 FB79     		ldrb	r3, [r7, #7]	@ zero_extendqisi2
 2563 004a 032B     		cmp	r3, #3
 2564 004c 03D9     		bls	.L130
 2565              	.L129:
1151:.\Generated_Source\PSoC5/USBFS_std.c ****     {   /* wrong interface number */
1152:.\Generated_Source\PSoC5/USBFS_std.c ****         requestHandled = USBFS_FALSE;
 2566              		.loc 1 1152 0
 2567 004e 4FF00003 		mov	r3, #0
 2568 0052 BB71     		strb	r3, [r7, #6]
 2569              		.loc 1 1150 0
 2570 0054 18E0     		b	.L131
 2571              	.L130:
1153:.\Generated_Source\PSoC5/USBFS_std.c ****     }
1154:.\Generated_Source\PSoC5/USBFS_std.c ****     else
1155:.\Generated_Source\PSoC5/USBFS_std.c ****     {
1156:.\Generated_Source\PSoC5/USBFS_std.c ****         /* save current Alt setting to find out the difference in Config() function */
1157:.\Generated_Source\PSoC5/USBFS_std.c ****         USBFS_interfaceSetting_last[interfaceNum] = USBFS_interfaceSetting[interfaceNum];
 2572              		.loc 1 1157 0
 2573 0056 FA79     		ldrb	r2, [r7, #7]	@ zero_extendqisi2
 2574 0058 F979     		ldrb	r1, [r7, #7]	@ zero_extendqisi2
 2575 005a 40F20003 		movw	r3, #:lower16:USBFS_interfaceSetting
 2576 005e C0F20003 		movt	r3, #:upper16:USBFS_interfaceSetting
 2577 0062 5B5C     		ldrb	r3, [r3, r1]
 2578 0064 D9B2     		uxtb	r1, r3
 2579 0066 40F20003 		movw	r3, #:lower16:USBFS_interfaceSetting_last
 2580 006a C0F20003 		movt	r3, #:upper16:USBFS_interfaceSetting_last
 2581 006e 9954     		strb	r1, [r3, r2]
1158:.\Generated_Source\PSoC5/USBFS_std.c ****         USBFS_interfaceSetting[interfaceNum] = CY_GET_REG8(USBFS_wValueLo);
 2582              		.loc 1 1158 0
 2583 0070 FA79     		ldrb	r2, [r7, #7]	@ zero_extendqisi2
 2584 0072 46F20203 		movw	r3, #:lower16:1073766402
 2585 0076 C4F20003 		movt	r3, #:upper16:1073766402
 2586 007a 1B78     		ldrb	r3, [r3, #0]
 2587 007c D9B2     		uxtb	r1, r3
 2588 007e 40F20003 		movw	r3, #:lower16:USBFS_interfaceSetting
 2589 0082 C0F20003 		movt	r3, #:upper16:USBFS_interfaceSetting
 2590 0086 9954     		strb	r1, [r3, r2]
 2591              	.L131:
1159:.\Generated_Source\PSoC5/USBFS_std.c ****     }
1160:.\Generated_Source\PSoC5/USBFS_std.c **** 
1161:.\Generated_Source\PSoC5/USBFS_std.c ****     return (requestHandled);
 2592              		.loc 1 1161 0
 2593 0088 BB79     		ldrb	r3, [r7, #6]	@ zero_extendqisi2
ARM GAS  C:\DOCUME~1\ADMINI~1\LOCALS~1\Temp\ccmk5fwz.s 			page 67


1162:.\Generated_Source\PSoC5/USBFS_std.c **** }
 2594              		.loc 1 1162 0
 2595 008a 1846     		mov	r0, r3
 2596 008c 07F11007 		add	r7, r7, #16
 2597 0090 BD46     		mov	sp, r7
 2598 0092 80BD     		pop	{r7, pc}
 2599              		.cfi_endproc
 2600              	.LFE12:
 2601              		.size	USBFS_ValidateAlternateSetting, .-USBFS_ValidateAlternateSetting
 2602              		.section	.rodata
 2603              		.align	2
 2604              		.type	hex.2332, %object
 2605              		.size	hex.2332, 16
 2606              	hex.2332:
 2607 0000 30313233 		.ascii	"0123456789ABCDEF"
 2607      34353637 
 2607      38394142 
 2607      43444546 
 2608              		.text
 2609              	.Letext0:
 2610              		.section	.debug_loc,"",%progbits
 2611              	.Ldebug_loc0:
 2612              	.LLST0:
 2613 0000 00000000 		.4byte	.LFB0
 2614 0004 02000000 		.4byte	.LCFI0
 2615 0008 0100     		.2byte	0x1
 2616 000a 5D       		.byte	0x5d
 2617 000b 02000000 		.4byte	.LCFI0
 2618 000f 04000000 		.4byte	.LCFI1
 2619 0013 0200     		.2byte	0x2
 2620 0015 7D       		.byte	0x7d
 2621 0016 04       		.sleb128 4
 2622 0017 04000000 		.4byte	.LCFI1
 2623 001b 06000000 		.4byte	.LCFI2
 2624 001f 0200     		.2byte	0x2
 2625 0021 7D       		.byte	0x7d
 2626 0022 10       		.sleb128 16
 2627 0023 06000000 		.4byte	.LCFI2
 2628 0027 12000000 		.4byte	.LFE0
 2629 002b 0200     		.2byte	0x2
 2630 002d 77       		.byte	0x77
 2631 002e 10       		.sleb128 16
 2632 002f 00000000 		.4byte	0x0
 2633 0033 00000000 		.4byte	0x0
 2634              	.LLST1:
 2635 0037 00000000 		.4byte	.LFB1
 2636 003b 02000000 		.4byte	.LCFI3
 2637 003f 0100     		.2byte	0x1
 2638 0041 5D       		.byte	0x5d
 2639 0042 02000000 		.4byte	.LCFI3
 2640 0046 04000000 		.4byte	.LCFI4
 2641 004a 0200     		.2byte	0x2
 2642 004c 7D       		.byte	0x7d
 2643 004d 08       		.sleb128 8
 2644 004e 04000000 		.4byte	.LCFI4
 2645 0052 06000000 		.4byte	.LCFI5
 2646 0056 0200     		.2byte	0x2
ARM GAS  C:\DOCUME~1\ADMINI~1\LOCALS~1\Temp\ccmk5fwz.s 			page 68


 2647 0058 7D       		.byte	0x7d
 2648 0059 18       		.sleb128 24
 2649 005a 06000000 		.4byte	.LCFI5
 2650 005e 36060000 		.4byte	.LFE1
 2651 0062 0200     		.2byte	0x2
 2652 0064 77       		.byte	0x77
 2653 0065 18       		.sleb128 24
 2654 0066 00000000 		.4byte	0x0
 2655 006a 00000000 		.4byte	0x0
 2656              	.LLST2:
 2657 006e 00000000 		.4byte	.LFB2
 2658 0072 02000000 		.4byte	.LCFI6
 2659 0076 0100     		.2byte	0x1
 2660 0078 5D       		.byte	0x5d
 2661 0079 02000000 		.4byte	.LCFI6
 2662 007d 04000000 		.4byte	.LCFI7
 2663 0081 0200     		.2byte	0x2
 2664 0083 7D       		.byte	0x7d
 2665 0084 04       		.sleb128 4
 2666 0085 04000000 		.4byte	.LCFI7
 2667 0089 06000000 		.4byte	.LCFI8
 2668 008d 0200     		.2byte	0x2
 2669 008f 7D       		.byte	0x7d
 2670 0090 18       		.sleb128 24
 2671 0091 06000000 		.4byte	.LCFI8
 2672 0095 98000000 		.4byte	.LFE2
 2673 0099 0200     		.2byte	0x2
 2674 009b 77       		.byte	0x77
 2675 009c 18       		.sleb128 24
 2676 009d 00000000 		.4byte	0x0
 2677 00a1 00000000 		.4byte	0x0
 2678              	.LLST3:
 2679 00a5 00000000 		.4byte	.LFB3
 2680 00a9 02000000 		.4byte	.LCFI9
 2681 00ad 0100     		.2byte	0x1
 2682 00af 5D       		.byte	0x5d
 2683 00b0 02000000 		.4byte	.LCFI9
 2684 00b4 04000000 		.4byte	.LCFI10
 2685 00b8 0200     		.2byte	0x2
 2686 00ba 7D       		.byte	0x7d
 2687 00bb 04       		.sleb128 4
 2688 00bc 04000000 		.4byte	.LCFI10
 2689 00c0 06000000 		.4byte	.LCFI11
 2690 00c4 0200     		.2byte	0x2
 2691 00c6 7D       		.byte	0x7d
 2692 00c7 10       		.sleb128 16
 2693 00c8 06000000 		.4byte	.LCFI11
 2694 00cc 62010000 		.4byte	.LFE3
 2695 00d0 0200     		.2byte	0x2
 2696 00d2 77       		.byte	0x77
 2697 00d3 10       		.sleb128 16
 2698 00d4 00000000 		.4byte	0x0
 2699 00d8 00000000 		.4byte	0x0
 2700              	.LLST4:
 2701 00dc 00000000 		.4byte	.LFB4
 2702 00e0 02000000 		.4byte	.LCFI12
 2703 00e4 0100     		.2byte	0x1
ARM GAS  C:\DOCUME~1\ADMINI~1\LOCALS~1\Temp\ccmk5fwz.s 			page 69


 2704 00e6 5D       		.byte	0x5d
 2705 00e7 02000000 		.4byte	.LCFI12
 2706 00eb 04000000 		.4byte	.LCFI13
 2707 00ef 0200     		.2byte	0x2
 2708 00f1 7D       		.byte	0x7d
 2709 00f2 08       		.sleb128 8
 2710 00f3 04000000 		.4byte	.LCFI13
 2711 00f7 06000000 		.4byte	.LCFI14
 2712 00fb 0200     		.2byte	0x2
 2713 00fd 7D       		.byte	0x7d
 2714 00fe 20       		.sleb128 32
 2715 00ff 06000000 		.4byte	.LCFI14
 2716 0103 D8030000 		.4byte	.LFE4
 2717 0107 0200     		.2byte	0x2
 2718 0109 77       		.byte	0x77
 2719 010a 20       		.sleb128 32
 2720 010b 00000000 		.4byte	0x0
 2721 010f 00000000 		.4byte	0x0
 2722              	.LLST5:
 2723 0113 00000000 		.4byte	.LFB5
 2724 0117 02000000 		.4byte	.LCFI15
 2725 011b 0100     		.2byte	0x1
 2726 011d 5D       		.byte	0x5d
 2727 011e 02000000 		.4byte	.LCFI15
 2728 0122 04000000 		.4byte	.LCFI16
 2729 0126 0200     		.2byte	0x2
 2730 0128 7D       		.byte	0x7d
 2731 0129 08       		.sleb128 8
 2732 012a 04000000 		.4byte	.LCFI16
 2733 012e 06000000 		.4byte	.LCFI17
 2734 0132 0200     		.2byte	0x2
 2735 0134 7D       		.byte	0x7d
 2736 0135 18       		.sleb128 24
 2737 0136 06000000 		.4byte	.LCFI17
 2738 013a 1A030000 		.4byte	.LFE5
 2739 013e 0200     		.2byte	0x2
 2740 0140 77       		.byte	0x77
 2741 0141 18       		.sleb128 24
 2742 0142 00000000 		.4byte	0x0
 2743 0146 00000000 		.4byte	0x0
 2744              	.LLST6:
 2745 014a 00000000 		.4byte	.LFB6
 2746 014e 02000000 		.4byte	.LCFI18
 2747 0152 0100     		.2byte	0x1
 2748 0154 5D       		.byte	0x5d
 2749 0155 02000000 		.4byte	.LCFI18
 2750 0159 04000000 		.4byte	.LCFI19
 2751 015d 0200     		.2byte	0x2
 2752 015f 7D       		.byte	0x7d
 2753 0160 08       		.sleb128 8
 2754 0161 04000000 		.4byte	.LCFI19
 2755 0165 06000000 		.4byte	.LCFI20
 2756 0169 0200     		.2byte	0x2
 2757 016b 7D       		.byte	0x7d
 2758 016c 18       		.sleb128 24
 2759 016d 06000000 		.4byte	.LCFI20
 2760 0171 2C000000 		.4byte	.LFE6
ARM GAS  C:\DOCUME~1\ADMINI~1\LOCALS~1\Temp\ccmk5fwz.s 			page 70


 2761 0175 0200     		.2byte	0x2
 2762 0177 77       		.byte	0x77
 2763 0178 18       		.sleb128 24
 2764 0179 00000000 		.4byte	0x0
 2765 017d 00000000 		.4byte	0x0
 2766              	.LLST7:
 2767 0181 00000000 		.4byte	.LFB7
 2768 0185 02000000 		.4byte	.LCFI21
 2769 0189 0100     		.2byte	0x1
 2770 018b 5D       		.byte	0x5d
 2771 018c 02000000 		.4byte	.LCFI21
 2772 0190 04000000 		.4byte	.LCFI22
 2773 0194 0200     		.2byte	0x2
 2774 0196 7D       		.byte	0x7d
 2775 0197 04       		.sleb128 4
 2776 0198 04000000 		.4byte	.LCFI22
 2777 019c 28000000 		.4byte	.LFE7
 2778 01a0 0200     		.2byte	0x2
 2779 01a2 77       		.byte	0x77
 2780 01a3 04       		.sleb128 4
 2781 01a4 00000000 		.4byte	0x0
 2782 01a8 00000000 		.4byte	0x0
 2783              	.LLST8:
 2784 01ac 00000000 		.4byte	.LFB8
 2785 01b0 02000000 		.4byte	.LCFI23
 2786 01b4 0100     		.2byte	0x1
 2787 01b6 5D       		.byte	0x5d
 2788 01b7 02000000 		.4byte	.LCFI23
 2789 01bb 04000000 		.4byte	.LCFI24
 2790 01bf 0200     		.2byte	0x2
 2791 01c1 7D       		.byte	0x7d
 2792 01c2 08       		.sleb128 8
 2793 01c3 04000000 		.4byte	.LCFI24
 2794 01c7 06000000 		.4byte	.LCFI25
 2795 01cb 0200     		.2byte	0x2
 2796 01cd 7D       		.byte	0x7d
 2797 01ce 10       		.sleb128 16
 2798 01cf 06000000 		.4byte	.LCFI25
 2799 01d3 50000000 		.4byte	.LFE8
 2800 01d7 0200     		.2byte	0x2
 2801 01d9 77       		.byte	0x77
 2802 01da 10       		.sleb128 16
 2803 01db 00000000 		.4byte	0x0
 2804 01df 00000000 		.4byte	0x0
 2805              	.LLST9:
 2806 01e3 00000000 		.4byte	.LFB9
 2807 01e7 02000000 		.4byte	.LCFI26
 2808 01eb 0100     		.2byte	0x1
 2809 01ed 5D       		.byte	0x5d
 2810 01ee 02000000 		.4byte	.LCFI26
 2811 01f2 04000000 		.4byte	.LCFI27
 2812 01f6 0200     		.2byte	0x2
 2813 01f8 7D       		.byte	0x7d
 2814 01f9 04       		.sleb128 4
 2815 01fa 04000000 		.4byte	.LCFI27
 2816 01fe 06000000 		.4byte	.LCFI28
 2817 0202 0200     		.2byte	0x2
ARM GAS  C:\DOCUME~1\ADMINI~1\LOCALS~1\Temp\ccmk5fwz.s 			page 71


 2818 0204 7D       		.byte	0x7d
 2819 0205 18       		.sleb128 24
 2820 0206 06000000 		.4byte	.LCFI28
 2821 020a F8000000 		.4byte	.LFE9
 2822 020e 0200     		.2byte	0x2
 2823 0210 77       		.byte	0x77
 2824 0211 18       		.sleb128 24
 2825 0212 00000000 		.4byte	0x0
 2826 0216 00000000 		.4byte	0x0
 2827              	.LLST10:
 2828 021a 00000000 		.4byte	.LFB10
 2829 021e 02000000 		.4byte	.LCFI29
 2830 0222 0100     		.2byte	0x1
 2831 0224 5D       		.byte	0x5d
 2832 0225 02000000 		.4byte	.LCFI29
 2833 0229 04000000 		.4byte	.LCFI30
 2834 022d 0200     		.2byte	0x2
 2835 022f 7D       		.byte	0x7d
 2836 0230 08       		.sleb128 8
 2837 0231 04000000 		.4byte	.LCFI30
 2838 0235 06000000 		.4byte	.LCFI31
 2839 0239 0200     		.2byte	0x2
 2840 023b 7D       		.byte	0x7d
 2841 023c 10       		.sleb128 16
 2842 023d 06000000 		.4byte	.LCFI31
 2843 0241 2E010000 		.4byte	.LFE10
 2844 0245 0200     		.2byte	0x2
 2845 0247 77       		.byte	0x77
 2846 0248 10       		.sleb128 16
 2847 0249 00000000 		.4byte	0x0
 2848 024d 00000000 		.4byte	0x0
 2849              	.LLST11:
 2850 0251 00000000 		.4byte	.LFB11
 2851 0255 02000000 		.4byte	.LCFI32
 2852 0259 0100     		.2byte	0x1
 2853 025b 5D       		.byte	0x5d
 2854 025c 02000000 		.4byte	.LCFI32
 2855 0260 04000000 		.4byte	.LCFI33
 2856 0264 0200     		.2byte	0x2
 2857 0266 7D       		.byte	0x7d
 2858 0267 08       		.sleb128 8
 2859 0268 04000000 		.4byte	.LCFI33
 2860 026c 06000000 		.4byte	.LCFI34
 2861 0270 0200     		.2byte	0x2
 2862 0272 7D       		.byte	0x7d
 2863 0273 10       		.sleb128 16
 2864 0274 06000000 		.4byte	.LCFI34
 2865 0278 B8010000 		.4byte	.LFE11
 2866 027c 0200     		.2byte	0x2
 2867 027e 77       		.byte	0x77
 2868 027f 10       		.sleb128 16
 2869 0280 00000000 		.4byte	0x0
 2870 0284 00000000 		.4byte	0x0
 2871              	.LLST12:
 2872 0288 00000000 		.4byte	.LFB12
 2873 028c 02000000 		.4byte	.LCFI35
 2874 0290 0100     		.2byte	0x1
ARM GAS  C:\DOCUME~1\ADMINI~1\LOCALS~1\Temp\ccmk5fwz.s 			page 72


 2875 0292 5D       		.byte	0x5d
 2876 0293 02000000 		.4byte	.LCFI35
 2877 0297 04000000 		.4byte	.LCFI36
 2878 029b 0200     		.2byte	0x2
 2879 029d 7D       		.byte	0x7d
 2880 029e 08       		.sleb128 8
 2881 029f 04000000 		.4byte	.LCFI36
 2882 02a3 06000000 		.4byte	.LCFI37
 2883 02a7 0200     		.2byte	0x2
 2884 02a9 7D       		.byte	0x7d
 2885 02aa 18       		.sleb128 24
 2886 02ab 06000000 		.4byte	.LCFI37
 2887 02af 94000000 		.4byte	.LFE12
 2888 02b3 0200     		.2byte	0x2
 2889 02b5 77       		.byte	0x77
 2890 02b6 18       		.sleb128 24
 2891 02b7 00000000 		.4byte	0x0
 2892 02bb 00000000 		.4byte	0x0
 2893              		.file 2 ".\\Generated_Source\\PSoC5\\/cytypes.h"
 2894              		.file 3 ".\\Generated_Source\\PSoC5\\/USBFS.h"
 2895              		.section	.debug_info
 2896 0000 12080000 		.4byte	0x812
 2897 0004 0200     		.2byte	0x2
 2898 0006 00000000 		.4byte	.Ldebug_abbrev0
 2899 000a 04       		.byte	0x4
 2900 000b 01       		.uleb128 0x1
 2901 000c 58000000 		.4byte	.LASF88
 2902 0010 01       		.byte	0x1
 2903 0011 B4030000 		.4byte	.LASF89
 2904 0015 6D050000 		.4byte	.LASF90
 2905 0019 00000000 		.4byte	0x0
 2906 001d 00000000 		.4byte	0x0
 2907 0021 00000000 		.4byte	.Ldebug_ranges0+0x0
 2908 0025 00000000 		.4byte	.Ldebug_line0
 2909 0029 02       		.uleb128 0x2
 2910 002a 01       		.byte	0x1
 2911 002b 06       		.byte	0x6
 2912 002c 96000000 		.4byte	.LASF0
 2913 0030 02       		.uleb128 0x2
 2914 0031 01       		.byte	0x1
 2915 0032 08       		.byte	0x8
 2916 0033 63030000 		.4byte	.LASF1
 2917 0037 02       		.uleb128 0x2
 2918 0038 02       		.byte	0x2
 2919 0039 05       		.byte	0x5
 2920 003a 88030000 		.4byte	.LASF2
 2921 003e 02       		.uleb128 0x2
 2922 003f 02       		.byte	0x2
 2923 0040 07       		.byte	0x7
 2924 0041 C6010000 		.4byte	.LASF3
 2925 0045 02       		.uleb128 0x2
 2926 0046 04       		.byte	0x4
 2927 0047 05       		.byte	0x5
 2928 0048 11010000 		.4byte	.LASF4
 2929 004c 02       		.uleb128 0x2
 2930 004d 04       		.byte	0x4
 2931 004e 07       		.byte	0x7
ARM GAS  C:\DOCUME~1\ADMINI~1\LOCALS~1\Temp\ccmk5fwz.s 			page 73


 2932 004f 94010000 		.4byte	.LASF5
 2933 0053 02       		.uleb128 0x2
 2934 0054 08       		.byte	0x8
 2935 0055 05       		.byte	0x5
 2936 0056 88000000 		.4byte	.LASF6
 2937 005a 02       		.uleb128 0x2
 2938 005b 08       		.byte	0x8
 2939 005c 07       		.byte	0x7
 2940 005d 3C000000 		.4byte	.LASF7
 2941 0061 03       		.uleb128 0x3
 2942 0062 04       		.byte	0x4
 2943 0063 05       		.byte	0x5
 2944 0064 696E7400 		.ascii	"int\000"
 2945 0068 02       		.uleb128 0x2
 2946 0069 04       		.byte	0x4
 2947 006a 07       		.byte	0x7
 2948 006b 87010000 		.4byte	.LASF8
 2949 006f 04       		.uleb128 0x4
 2950 0070 1A010000 		.4byte	.LASF9
 2951 0074 02       		.byte	0x2
 2952 0075 4C       		.byte	0x4c
 2953 0076 30000000 		.4byte	0x30
 2954 007a 04       		.uleb128 0x4
 2955 007b 13000000 		.4byte	.LASF10
 2956 007f 02       		.byte	0x2
 2957 0080 4D       		.byte	0x4d
 2958 0081 3E000000 		.4byte	0x3e
 2959 0085 02       		.uleb128 0x2
 2960 0086 04       		.byte	0x4
 2961 0087 04       		.byte	0x4
 2962 0088 26030000 		.4byte	.LASF11
 2963 008c 02       		.uleb128 0x2
 2964 008d 08       		.byte	0x8
 2965 008e 04       		.byte	0x4
 2966 008f 29010000 		.4byte	.LASF12
 2967 0093 04       		.uleb128 0x4
 2968 0094 6A040000 		.4byte	.LASF13
 2969 0098 02       		.byte	0x2
 2970 0099 5D       		.byte	0x5d
 2971 009a 9E000000 		.4byte	0x9e
 2972 009e 02       		.uleb128 0x2
 2973 009f 01       		.byte	0x1
 2974 00a0 08       		.byte	0x8
 2975 00a1 40040000 		.4byte	.LASF14
 2976 00a5 05       		.uleb128 0x5
 2977 00a6 6F000000 		.4byte	0x6f
 2978 00aa 06       		.uleb128 0x6
 2979 00ab 04       		.byte	0x4
 2980 00ac 07       		.byte	0x7
 2981 00ad 07       		.uleb128 0x7
 2982 00ae 04       		.byte	0x4
 2983 00af 08       		.uleb128 0x8
 2984 00b0 77040000 		.4byte	.LASF25
 2985 00b4 0C       		.byte	0xc
 2986 00b5 03       		.byte	0x3
 2987 00b6 7A       		.byte	0x7a
 2988 00b7 3A010000 		.4byte	0x13a
ARM GAS  C:\DOCUME~1\ADMINI~1\LOCALS~1\Temp\ccmk5fwz.s 			page 74


 2989 00bb 09       		.uleb128 0x9
 2990 00bc 91020000 		.4byte	.LASF15
 2991 00c0 03       		.byte	0x3
 2992 00c1 7B       		.byte	0x7b
 2993 00c2 6F000000 		.4byte	0x6f
 2994 00c6 02       		.byte	0x2
 2995 00c7 23       		.byte	0x23
 2996 00c8 00       		.uleb128 0x0
 2997 00c9 09       		.uleb128 0x9
 2998 00ca 44030000 		.4byte	.LASF16
 2999 00ce 03       		.byte	0x3
 3000 00cf 7C       		.byte	0x7c
 3001 00d0 6F000000 		.4byte	0x6f
 3002 00d4 02       		.byte	0x2
 3003 00d5 23       		.byte	0x23
 3004 00d6 01       		.uleb128 0x1
 3005 00d7 09       		.uleb128 0x9
 3006 00d8 7B020000 		.4byte	.LASF17
 3007 00dc 03       		.byte	0x3
 3008 00dd 7D       		.byte	0x7d
 3009 00de 6F000000 		.4byte	0x6f
 3010 00e2 02       		.byte	0x2
 3011 00e3 23       		.byte	0x23
 3012 00e4 02       		.uleb128 0x2
 3013 00e5 09       		.uleb128 0x9
 3014 00e6 20010000 		.4byte	.LASF18
 3015 00ea 03       		.byte	0x3
 3016 00eb 7E       		.byte	0x7e
 3017 00ec 6F000000 		.4byte	0x6f
 3018 00f0 02       		.byte	0x2
 3019 00f1 23       		.byte	0x23
 3020 00f2 03       		.uleb128 0x3
 3021 00f3 09       		.uleb128 0x9
 3022 00f4 53000000 		.4byte	.LASF19
 3023 00f8 03       		.byte	0x3
 3024 00f9 7F       		.byte	0x7f
 3025 00fa 6F000000 		.4byte	0x6f
 3026 00fe 02       		.byte	0x2
 3027 00ff 23       		.byte	0x23
 3028 0100 04       		.uleb128 0x4
 3029 0101 09       		.uleb128 0x9
 3030 0102 7A010000 		.4byte	.LASF20
 3031 0106 03       		.byte	0x3
 3032 0107 80       		.byte	0x80
 3033 0108 6F000000 		.4byte	0x6f
 3034 010c 02       		.byte	0x2
 3035 010d 23       		.byte	0x23
 3036 010e 05       		.uleb128 0x5
 3037 010f 09       		.uleb128 0x9
 3038 0110 5F040000 		.4byte	.LASF21
 3039 0114 03       		.byte	0x3
 3040 0115 81       		.byte	0x81
 3041 0116 7A000000 		.4byte	0x7a
 3042 011a 02       		.byte	0x2
 3043 011b 23       		.byte	0x23
 3044 011c 06       		.uleb128 0x6
 3045 011d 09       		.uleb128 0x9
ARM GAS  C:\DOCUME~1\ADMINI~1\LOCALS~1\Temp\ccmk5fwz.s 			page 75


 3046 011e 45040000 		.4byte	.LASF22
 3047 0122 03       		.byte	0x3
 3048 0123 82       		.byte	0x82
 3049 0124 7A000000 		.4byte	0x7a
 3050 0128 02       		.byte	0x2
 3051 0129 23       		.byte	0x23
 3052 012a 08       		.uleb128 0x8
 3053 012b 09       		.uleb128 0x9
 3054 012c E4010000 		.4byte	.LASF23
 3055 0130 03       		.byte	0x3
 3056 0131 83       		.byte	0x83
 3057 0132 6F000000 		.4byte	0x6f
 3058 0136 02       		.byte	0x2
 3059 0137 23       		.byte	0x23
 3060 0138 0A       		.uleb128 0xa
 3061 0139 00       		.byte	0x0
 3062 013a 04       		.uleb128 0x4
 3063 013b F0030000 		.4byte	.LASF24
 3064 013f 03       		.byte	0x3
 3065 0140 84       		.byte	0x84
 3066 0141 AF000000 		.4byte	0xaf
 3067 0145 08       		.uleb128 0x8
 3068 0146 71030000 		.4byte	.LASF26
 3069 014a 08       		.byte	0x8
 3070 014b 03       		.byte	0x3
 3071 014c 87       		.byte	0x87
 3072 014d A6010000 		.4byte	0x1a6
 3073 0151 09       		.uleb128 0x9
 3074 0152 E4010000 		.4byte	.LASF23
 3075 0156 03       		.byte	0x3
 3076 0157 88       		.byte	0x88
 3077 0158 6F000000 		.4byte	0x6f
 3078 015c 02       		.byte	0x2
 3079 015d 23       		.byte	0x23
 3080 015e 00       		.uleb128 0x0
 3081 015f 09       		.uleb128 0x9
 3082 0160 35040000 		.4byte	.LASF27
 3083 0164 03       		.byte	0x3
 3084 0165 89       		.byte	0x89
 3085 0166 6F000000 		.4byte	0x6f
 3086 016a 02       		.byte	0x2
 3087 016b 23       		.byte	0x23
 3088 016c 01       		.uleb128 0x1
 3089 016d 09       		.uleb128 0x9
 3090 016e 53000000 		.4byte	.LASF19
 3091 0172 03       		.byte	0x3
 3092 0173 8A       		.byte	0x8a
 3093 0174 6F000000 		.4byte	0x6f
 3094 0178 02       		.byte	0x2
 3095 0179 23       		.byte	0x23
 3096 017a 02       		.uleb128 0x2
 3097 017b 09       		.uleb128 0x9
 3098 017c 12040000 		.4byte	.LASF28
 3099 0180 03       		.byte	0x3
 3100 0181 8B       		.byte	0x8b
 3101 0182 6F000000 		.4byte	0x6f
 3102 0186 02       		.byte	0x2
ARM GAS  C:\DOCUME~1\ADMINI~1\LOCALS~1\Temp\ccmk5fwz.s 			page 76


 3103 0187 23       		.byte	0x23
 3104 0188 03       		.uleb128 0x3
 3105 0189 09       		.uleb128 0x9
 3106 018a 45040000 		.4byte	.LASF22
 3107 018e 03       		.byte	0x3
 3108 018f 8C       		.byte	0x8c
 3109 0190 7A000000 		.4byte	0x7a
 3110 0194 02       		.byte	0x2
 3111 0195 23       		.byte	0x23
 3112 0196 04       		.uleb128 0x4
 3113 0197 09       		.uleb128 0x9
 3114 0198 FF040000 		.4byte	.LASF29
 3115 019c 03       		.byte	0x3
 3116 019d 8D       		.byte	0x8d
 3117 019e 6F000000 		.4byte	0x6f
 3118 01a2 02       		.byte	0x2
 3119 01a3 23       		.byte	0x23
 3120 01a4 06       		.uleb128 0x6
 3121 01a5 00       		.byte	0x0
 3122 01a6 04       		.uleb128 0x4
 3123 01a7 30010000 		.4byte	.LASF30
 3124 01ab 03       		.byte	0x3
 3125 01ac 8E       		.byte	0x8e
 3126 01ad 45010000 		.4byte	0x145
 3127 01b1 08       		.uleb128 0x8
 3128 01b2 9D030000 		.4byte	.LASF31
 3129 01b6 04       		.byte	0x4
 3130 01b7 03       		.byte	0x3
 3131 01b8 91       		.byte	0x91
 3132 01b9 DA010000 		.4byte	0x1da
 3133 01bd 09       		.uleb128 0x9
 3134 01be F8040000 		.4byte	.LASF32
 3135 01c2 03       		.byte	0x3
 3136 01c3 92       		.byte	0x92
 3137 01c4 6F000000 		.4byte	0x6f
 3138 01c8 02       		.byte	0x2
 3139 01c9 23       		.byte	0x23
 3140 01ca 00       		.uleb128 0x0
 3141 01cb 09       		.uleb128 0x9
 3142 01cc B8040000 		.4byte	.LASF33
 3143 01d0 03       		.byte	0x3
 3144 01d1 93       		.byte	0x93
 3145 01d2 7A000000 		.4byte	0x7a
 3146 01d6 02       		.byte	0x2
 3147 01d7 23       		.byte	0x23
 3148 01d8 02       		.uleb128 0x2
 3149 01d9 00       		.byte	0x0
 3150 01da 04       		.uleb128 0x4
 3151 01db EB020000 		.4byte	.LASF34
 3152 01df 03       		.byte	0x3
 3153 01e0 94       		.byte	0x94
 3154 01e1 B1010000 		.4byte	0x1b1
 3155 01e5 08       		.uleb128 0x8
 3156 01e6 41050000 		.4byte	.LASF35
 3157 01ea 0C       		.byte	0xc
 3158 01eb 03       		.byte	0x3
 3159 01ec 97       		.byte	0x97
ARM GAS  C:\DOCUME~1\ADMINI~1\LOCALS~1\Temp\ccmk5fwz.s 			page 77


 3160 01ed 1C020000 		.4byte	0x21c
 3161 01f1 09       		.uleb128 0x9
 3162 01f2 0D000000 		.4byte	.LASF36
 3163 01f6 03       		.byte	0x3
 3164 01f7 98       		.byte	0x98
 3165 01f8 7A000000 		.4byte	0x7a
 3166 01fc 02       		.byte	0x2
 3167 01fd 23       		.byte	0x23
 3168 01fe 00       		.uleb128 0x0
 3169 01ff 09       		.uleb128 0x9
 3170 0200 60010000 		.4byte	.LASF37
 3171 0204 03       		.byte	0x3
 3172 0205 99       		.byte	0x99
 3173 0206 1C020000 		.4byte	0x21c
 3174 020a 02       		.byte	0x2
 3175 020b 23       		.byte	0x23
 3176 020c 04       		.uleb128 0x4
 3177 020d 09       		.uleb128 0x9
 3178 020e 00000000 		.4byte	.LASF38
 3179 0212 03       		.byte	0x3
 3180 0213 9A       		.byte	0x9a
 3181 0214 22020000 		.4byte	0x222
 3182 0218 02       		.byte	0x2
 3183 0219 23       		.byte	0x23
 3184 021a 08       		.uleb128 0x8
 3185 021b 00       		.byte	0x0
 3186 021c 0A       		.uleb128 0xa
 3187 021d 04       		.byte	0x4
 3188 021e A5000000 		.4byte	0xa5
 3189 0222 0A       		.uleb128 0xa
 3190 0223 04       		.byte	0x4
 3191 0224 DA010000 		.4byte	0x1da
 3192 0228 04       		.uleb128 0x4
 3193 0229 92030000 		.4byte	.LASF39
 3194 022d 03       		.byte	0x3
 3195 022e 9B       		.byte	0x9b
 3196 022f E5010000 		.4byte	0x1e5
 3197 0233 08       		.uleb128 0x8
 3198 0234 D9010000 		.4byte	.LASF40
 3199 0238 08       		.byte	0x8
 3200 0239 03       		.byte	0x3
 3201 023a 9E       		.byte	0x9e
 3202 023b 5A020000 		.4byte	0x25a
 3203 023f 0B       		.uleb128 0xb
 3204 0240 6300     		.ascii	"c\000"
 3205 0242 03       		.byte	0x3
 3206 0243 9F       		.byte	0x9f
 3207 0244 6F000000 		.4byte	0x6f
 3208 0248 02       		.byte	0x2
 3209 0249 23       		.byte	0x23
 3210 024a 00       		.uleb128 0x0
 3211 024b 09       		.uleb128 0x9
 3212 024c 8A020000 		.4byte	.LASF41
 3213 0250 03       		.byte	0x3
 3214 0251 A0       		.byte	0xa0
 3215 0252 AD000000 		.4byte	0xad
 3216 0256 02       		.byte	0x2
ARM GAS  C:\DOCUME~1\ADMINI~1\LOCALS~1\Temp\ccmk5fwz.s 			page 78


 3217 0257 23       		.byte	0x23
 3218 0258 04       		.uleb128 0x4
 3219 0259 00       		.byte	0x0
 3220 025a 04       		.uleb128 0x4
 3221 025b E2050000 		.4byte	.LASF42
 3222 025f 03       		.byte	0x3
 3223 0260 A1       		.byte	0xa1
 3224 0261 33020000 		.4byte	0x233
 3225 0265 0C       		.uleb128 0xc
 3226 0266 01       		.byte	0x1
 3227 0267 72000000 		.4byte	.LASF47
 3228 026b 01       		.byte	0x1
 3229 026c 71       		.byte	0x71
 3230 026d 01       		.byte	0x1
 3231 026e 00000000 		.4byte	.LFB0
 3232 0272 12000000 		.4byte	.LFE0
 3233 0276 00000000 		.4byte	.LLST0
 3234 027a 8D020000 		.4byte	0x28d
 3235 027e 0D       		.uleb128 0xd
 3236 027f 64050000 		.4byte	.LASF49
 3237 0283 01       		.byte	0x1
 3238 0284 71       		.byte	0x71
 3239 0285 8D020000 		.4byte	0x28d
 3240 0289 02       		.byte	0x2
 3241 028a 91       		.byte	0x91
 3242 028b 74       		.sleb128 -12
 3243 028c 00       		.byte	0x0
 3244 028d 0A       		.uleb128 0xa
 3245 028e 04       		.byte	0x4
 3246 028f 6F000000 		.4byte	0x6f
 3247 0293 0E       		.uleb128 0xe
 3248 0294 01       		.byte	0x1
 3249 0295 4B050000 		.4byte	.LASF59
 3250 0299 01       		.byte	0x1
 3251 029a 96       		.byte	0x96
 3252 029b 01       		.byte	0x1
 3253 029c 6F000000 		.4byte	0x6f
 3254 02a0 00000000 		.4byte	.LFB1
 3255 02a4 36060000 		.4byte	.LFE1
 3256 02a8 37000000 		.4byte	.LLST1
 3257 02ac F7020000 		.4byte	0x2f7
 3258 02b0 0F       		.uleb128 0xf
 3259 02b1 50040000 		.4byte	.LASF43
 3260 02b5 01       		.byte	0x1
 3261 02b6 98       		.byte	0x98
 3262 02b7 6F000000 		.4byte	0x6f
 3263 02bb 02       		.byte	0x2
 3264 02bc 91       		.byte	0x91
 3265 02bd 6B       		.sleb128 -21
 3266 02be 0F       		.uleb128 0xf
 3267 02bf 58030000 		.4byte	.LASF44
 3268 02c3 01       		.byte	0x1
 3269 02c4 9A       		.byte	0x9a
 3270 02c5 1C020000 		.4byte	0x21c
 3271 02c9 02       		.byte	0x2
 3272 02ca 91       		.byte	0x91
 3273 02cb 6C       		.sleb128 -20
ARM GAS  C:\DOCUME~1\ADMINI~1\LOCALS~1\Temp\ccmk5fwz.s 			page 79


 3274 02cc 0F       		.uleb128 0xf
 3275 02cd BF040000 		.4byte	.LASF45
 3276 02d1 01       		.byte	0x1
 3277 02d2 9C       		.byte	0x9c
 3278 02d3 6F000000 		.4byte	0x6f
 3279 02d7 02       		.byte	0x2
 3280 02d8 91       		.byte	0x91
 3281 02d9 71       		.sleb128 -15
 3282 02da 0F       		.uleb128 0xf
 3283 02db 0D000000 		.4byte	.LASF36
 3284 02df 01       		.byte	0x1
 3285 02e0 9F       		.byte	0x9f
 3286 02e1 7A000000 		.4byte	0x7a
 3287 02e5 02       		.byte	0x2
 3288 02e6 91       		.byte	0x91
 3289 02e7 72       		.sleb128 -14
 3290 02e8 0F       		.uleb128 0xf
 3291 02e9 85020000 		.4byte	.LASF46
 3292 02ed 01       		.byte	0x1
 3293 02ee A1       		.byte	0xa1
 3294 02ef F7020000 		.4byte	0x2f7
 3295 02f3 02       		.byte	0x2
 3296 02f4 91       		.byte	0x91
 3297 02f5 74       		.sleb128 -12
 3298 02f6 00       		.byte	0x0
 3299 02f7 0A       		.uleb128 0xa
 3300 02f8 04       		.byte	0x4
 3301 02f9 5A020000 		.4byte	0x25a
 3302 02fd 10       		.uleb128 0x10
 3303 02fe 01       		.byte	0x1
 3304 02ff 31050000 		.4byte	.LASF48
 3305 0303 01       		.byte	0x1
 3306 0304 8901     		.2byte	0x189
 3307 0306 01       		.byte	0x1
 3308 0307 00000000 		.4byte	.LFB2
 3309 030b 98000000 		.4byte	.LFE2
 3310 030f 6E000000 		.4byte	.LLST2
 3311 0313 62030000 		.4byte	0x362
 3312 0317 11       		.uleb128 0x11
 3313 0318 5D030000 		.4byte	.LASF50
 3314 031c 01       		.byte	0x1
 3315 031d 8901     		.2byte	0x189
 3316 031f 8D020000 		.4byte	0x28d
 3317 0323 02       		.byte	0x2
 3318 0324 91       		.byte	0x91
 3319 0325 6C       		.sleb128 -20
 3320 0326 12       		.uleb128 0x12
 3321 0327 6900     		.ascii	"i\000"
 3322 0329 01       		.byte	0x1
 3323 032a 8B01     		.2byte	0x18b
 3324 032c 6F000000 		.4byte	0x6f
 3325 0330 02       		.byte	0x2
 3326 0331 91       		.byte	0x91
 3327 0332 75       		.sleb128 -11
 3328 0333 12       		.uleb128 0x12
 3329 0334 6A00     		.ascii	"j\000"
 3330 0336 01       		.byte	0x1
ARM GAS  C:\DOCUME~1\ADMINI~1\LOCALS~1\Temp\ccmk5fwz.s 			page 80


 3331 0337 8B01     		.2byte	0x18b
 3332 0339 6F000000 		.4byte	0x6f
 3333 033d 02       		.byte	0x2
 3334 033e 91       		.byte	0x91
 3335 033f 76       		.sleb128 -10
 3336 0340 13       		.uleb128 0x13
 3337 0341 81010000 		.4byte	.LASF51
 3338 0345 01       		.byte	0x1
 3339 0346 8C01     		.2byte	0x18c
 3340 0348 6F000000 		.4byte	0x6f
 3341 034c 02       		.byte	0x2
 3342 034d 91       		.byte	0x91
 3343 034e 77       		.sleb128 -9
 3344 034f 12       		.uleb128 0x12
 3345 0350 68657800 		.ascii	"hex\000"
 3346 0354 01       		.byte	0x1
 3347 0355 8D01     		.2byte	0x18d
 3348 0357 72030000 		.4byte	0x372
 3349 035b 05       		.byte	0x5
 3350 035c 03       		.byte	0x3
 3351 035d 00000000 		.4byte	hex.2332
 3352 0361 00       		.byte	0x0
 3353 0362 14       		.uleb128 0x14
 3354 0363 93000000 		.4byte	0x93
 3355 0367 72030000 		.4byte	0x372
 3356 036b 15       		.uleb128 0x15
 3357 036c AA000000 		.4byte	0xaa
 3358 0370 0F       		.byte	0xf
 3359 0371 00       		.byte	0x0
 3360 0372 16       		.uleb128 0x16
 3361 0373 62030000 		.4byte	0x362
 3362 0377 10       		.uleb128 0x10
 3363 0378 01       		.byte	0x1
 3364 0379 01010000 		.4byte	.LASF52
 3365 037d 01       		.byte	0x1
 3366 037e B001     		.2byte	0x1b0
 3367 0380 01       		.byte	0x1
 3368 0381 00000000 		.4byte	.LFB3
 3369 0385 62010000 		.4byte	.LFE3
 3370 0389 A5000000 		.4byte	.LLST3
 3371 038d BC030000 		.4byte	0x3bc
 3372 0391 12       		.uleb128 0x12
 3373 0392 657000   		.ascii	"ep\000"
 3374 0395 01       		.byte	0x1
 3375 0396 B201     		.2byte	0x1b2
 3376 0398 6F000000 		.4byte	0x6f
 3377 039c 02       		.byte	0x2
 3378 039d 91       		.byte	0x91
 3379 039e 75       		.sleb128 -11
 3380 039f 12       		.uleb128 0x12
 3381 03a0 6900     		.ascii	"i\000"
 3382 03a2 01       		.byte	0x1
 3383 03a3 B301     		.2byte	0x1b3
 3384 03a5 6F000000 		.4byte	0x6f
 3385 03a9 02       		.byte	0x2
 3386 03aa 91       		.byte	0x91
 3387 03ab 76       		.sleb128 -10
ARM GAS  C:\DOCUME~1\ADMINI~1\LOCALS~1\Temp\ccmk5fwz.s 			page 81


 3388 03ac 13       		.uleb128 0x13
 3389 03ad C4040000 		.4byte	.LASF53
 3390 03b1 01       		.byte	0x1
 3391 03b2 B501     		.2byte	0x1b5
 3392 03b4 6F000000 		.4byte	0x6f
 3393 03b8 02       		.byte	0x2
 3394 03b9 91       		.byte	0x91
 3395 03ba 77       		.sleb128 -9
 3396 03bb 00       		.byte	0x0
 3397 03bc 10       		.uleb128 0x10
 3398 03bd 01       		.byte	0x1
 3399 03be F4000000 		.4byte	.LASF54
 3400 03c2 01       		.byte	0x1
 3401 03c3 0D02     		.2byte	0x20d
 3402 03c5 01       		.byte	0x1
 3403 03c6 00000000 		.4byte	.LFB4
 3404 03ca D8030000 		.4byte	.LFE4
 3405 03ce DC000000 		.4byte	.LLST4
 3406 03d2 4C040000 		.4byte	0x44c
 3407 03d6 11       		.uleb128 0x11
 3408 03d7 A2000000 		.4byte	.LASF55
 3409 03db 01       		.byte	0x1
 3410 03dc 0D02     		.2byte	0x20d
 3411 03de 6F000000 		.4byte	0x6f
 3412 03e2 02       		.byte	0x2
 3413 03e3 91       		.byte	0x91
 3414 03e4 67       		.sleb128 -25
 3415 03e5 12       		.uleb128 0x12
 3416 03e6 657000   		.ascii	"ep\000"
 3417 03e9 01       		.byte	0x1
 3418 03ea 0F02     		.2byte	0x20f
 3419 03ec 6F000000 		.4byte	0x6f
 3420 03f0 02       		.byte	0x2
 3421 03f1 91       		.byte	0x91
 3422 03f2 68       		.sleb128 -24
 3423 03f3 13       		.uleb128 0x13
 3424 03f4 CC040000 		.4byte	.LASF56
 3425 03f8 01       		.byte	0x1
 3426 03f9 1002     		.2byte	0x210
 3427 03fb 6F000000 		.4byte	0x6f
 3428 03ff 02       		.byte	0x2
 3429 0400 91       		.byte	0x91
 3430 0401 69       		.sleb128 -23
 3431 0402 12       		.uleb128 0x12
 3432 0403 6900     		.ascii	"i\000"
 3433 0405 01       		.byte	0x1
 3434 0406 1102     		.2byte	0x211
 3435 0408 6F000000 		.4byte	0x6f
 3436 040c 02       		.byte	0x2
 3437 040d 91       		.byte	0x91
 3438 040e 6A       		.sleb128 -22
 3439 040f 12       		.uleb128 0x12
 3440 0410 69736F00 		.ascii	"iso\000"
 3441 0414 01       		.byte	0x1
 3442 0415 1202     		.2byte	0x212
 3443 0417 6F000000 		.4byte	0x6f
 3444 041b 02       		.byte	0x2
ARM GAS  C:\DOCUME~1\ADMINI~1\LOCALS~1\Temp\ccmk5fwz.s 			page 82


 3445 041c 91       		.byte	0x91
 3446 041d 6B       		.sleb128 -21
 3447 041e 13       		.uleb128 0x13
 3448 041f 70040000 		.4byte	.LASF57
 3449 0423 01       		.byte	0x1
 3450 0424 1302     		.2byte	0x213
 3451 0426 8D020000 		.4byte	0x28d
 3452 042a 02       		.byte	0x2
 3453 042b 91       		.byte	0x91
 3454 042c 6C       		.sleb128 -20
 3455 042d 13       		.uleb128 0x13
 3456 042e 85020000 		.4byte	.LASF46
 3457 0432 01       		.byte	0x1
 3458 0433 1802     		.2byte	0x218
 3459 0435 F7020000 		.4byte	0x2f7
 3460 0439 02       		.byte	0x2
 3461 043a 91       		.byte	0x91
 3462 043b 70       		.sleb128 -16
 3463 043c 12       		.uleb128 0x12
 3464 043d 70455000 		.ascii	"pEP\000"
 3465 0441 01       		.byte	0x1
 3466 0442 1902     		.2byte	0x219
 3467 0444 4C040000 		.4byte	0x44c
 3468 0448 02       		.byte	0x2
 3469 0449 91       		.byte	0x91
 3470 044a 74       		.sleb128 -12
 3471 044b 00       		.byte	0x0
 3472 044c 0A       		.uleb128 0xa
 3473 044d 04       		.byte	0x4
 3474 044e A6010000 		.4byte	0x1a6
 3475 0452 10       		.uleb128 0x10
 3476 0453 01       		.byte	0x1
 3477 0454 D4020000 		.4byte	.LASF58
 3478 0458 01       		.byte	0x1
 3479 0459 0103     		.2byte	0x301
 3480 045b 01       		.byte	0x1
 3481 045c 00000000 		.4byte	.LFB5
 3482 0460 1A030000 		.4byte	.LFE5
 3483 0464 13010000 		.4byte	.LLST5
 3484 0468 D2040000 		.4byte	0x4d2
 3485 046c 12       		.uleb128 0x12
 3486 046d 657000   		.ascii	"ep\000"
 3487 0470 01       		.byte	0x1
 3488 0471 0303     		.2byte	0x303
 3489 0473 6F000000 		.4byte	0x6f
 3490 0477 02       		.byte	0x2
 3491 0478 91       		.byte	0x91
 3492 0479 6B       		.sleb128 -21
 3493 047a 13       		.uleb128 0x13
 3494 047b CC040000 		.4byte	.LASF56
 3495 047f 01       		.byte	0x1
 3496 0480 0303     		.2byte	0x303
 3497 0482 6F000000 		.4byte	0x6f
 3498 0486 02       		.byte	0x2
 3499 0487 91       		.byte	0x91
 3500 0488 6C       		.sleb128 -20
 3501 0489 12       		.uleb128 0x12
ARM GAS  C:\DOCUME~1\ADMINI~1\LOCALS~1\Temp\ccmk5fwz.s 			page 83


 3502 048a 6900     		.ascii	"i\000"
 3503 048c 01       		.byte	0x1
 3504 048d 0303     		.2byte	0x303
 3505 048f 6F000000 		.4byte	0x6f
 3506 0493 02       		.byte	0x2
 3507 0494 91       		.byte	0x91
 3508 0495 6D       		.sleb128 -19
 3509 0496 12       		.uleb128 0x12
 3510 0497 69736F00 		.ascii	"iso\000"
 3511 049b 01       		.byte	0x1
 3512 049c 0403     		.2byte	0x304
 3513 049e 6F000000 		.4byte	0x6f
 3514 04a2 02       		.byte	0x2
 3515 04a3 91       		.byte	0x91
 3516 04a4 6E       		.sleb128 -18
 3517 04a5 12       		.uleb128 0x12
 3518 04a6 726900   		.ascii	"ri\000"
 3519 04a9 01       		.byte	0x1
 3520 04aa 0503     		.2byte	0x305
 3521 04ac 6F000000 		.4byte	0x6f
 3522 04b0 02       		.byte	0x2
 3523 04b1 91       		.byte	0x91
 3524 04b2 6F       		.sleb128 -17
 3525 04b3 13       		.uleb128 0x13
 3526 04b4 85020000 		.4byte	.LASF46
 3527 04b8 01       		.byte	0x1
 3528 04b9 0703     		.2byte	0x307
 3529 04bb F7020000 		.4byte	0x2f7
 3530 04bf 02       		.byte	0x2
 3531 04c0 91       		.byte	0x91
 3532 04c1 70       		.sleb128 -16
 3533 04c2 12       		.uleb128 0x12
 3534 04c3 70455000 		.ascii	"pEP\000"
 3535 04c7 01       		.byte	0x1
 3536 04c8 0803     		.2byte	0x308
 3537 04ca 4C040000 		.4byte	0x44c
 3538 04ce 02       		.byte	0x2
 3539 04cf 91       		.byte	0x91
 3540 04d0 74       		.sleb128 -12
 3541 04d1 00       		.byte	0x0
 3542 04d2 17       		.uleb128 0x17
 3543 04d3 01       		.byte	0x1
 3544 04d4 2C030000 		.4byte	.LASF60
 3545 04d8 01       		.byte	0x1
 3546 04d9 7303     		.2byte	0x373
 3547 04db 01       		.byte	0x1
 3548 04dc F7020000 		.4byte	0x2f7
 3549 04e0 00000000 		.4byte	.LFB6
 3550 04e4 2C000000 		.4byte	.LFE6
 3551 04e8 4A010000 		.4byte	.LLST6
 3552 04ec 0D050000 		.4byte	0x50d
 3553 04f0 18       		.uleb128 0x18
 3554 04f1 6300     		.ascii	"c\000"
 3555 04f3 01       		.byte	0x1
 3556 04f4 7303     		.2byte	0x373
 3557 04f6 6F000000 		.4byte	0x6f
 3558 04fa 02       		.byte	0x2
ARM GAS  C:\DOCUME~1\ADMINI~1\LOCALS~1\Temp\ccmk5fwz.s 			page 84


 3559 04fb 91       		.byte	0x91
 3560 04fc 6F       		.sleb128 -17
 3561 04fd 13       		.uleb128 0x13
 3562 04fe 85020000 		.4byte	.LASF46
 3563 0502 01       		.byte	0x1
 3564 0503 7703     		.2byte	0x377
 3565 0505 F7020000 		.4byte	0x2f7
 3566 0509 02       		.byte	0x2
 3567 050a 91       		.byte	0x91
 3568 050b 74       		.sleb128 -12
 3569 050c 00       		.byte	0x0
 3570 050d 19       		.uleb128 0x19
 3571 050e 01       		.byte	0x1
 3572 050f 1D040000 		.4byte	.LASF91
 3573 0513 01       		.byte	0x1
 3574 0514 8F03     		.2byte	0x38f
 3575 0516 01       		.byte	0x1
 3576 0517 F7020000 		.4byte	0x2f7
 3577 051b 00000000 		.4byte	.LFB7
 3578 051f 28000000 		.4byte	.LFE7
 3579 0523 81010000 		.4byte	.LLST7
 3580 0527 17       		.uleb128 0x17
 3581 0528 01       		.byte	0x1
 3582 0529 A6010000 		.4byte	.LASF61
 3583 052d 01       		.byte	0x1
 3584 052e A503     		.2byte	0x3a5
 3585 0530 01       		.byte	0x1
 3586 0531 8D020000 		.4byte	0x28d
 3587 0535 00000000 		.4byte	.LFB8
 3588 0539 50000000 		.4byte	.LFE8
 3589 053d AC010000 		.4byte	.LLST8
 3590 0541 64050000 		.4byte	0x564
 3591 0545 13       		.uleb128 0x13
 3592 0546 85020000 		.4byte	.LASF46
 3593 054a 01       		.byte	0x1
 3594 054b A803     		.2byte	0x3a8
 3595 054d F7020000 		.4byte	0x2f7
 3596 0551 02       		.byte	0x2
 3597 0552 91       		.byte	0x91
 3598 0553 70       		.sleb128 -16
 3599 0554 13       		.uleb128 0x13
 3600 0555 BF020000 		.4byte	.LASF62
 3601 0559 01       		.byte	0x1
 3602 055a A903     		.2byte	0x3a9
 3603 055c 6F000000 		.4byte	0x6f
 3604 0560 02       		.byte	0x2
 3605 0561 91       		.byte	0x91
 3606 0562 77       		.sleb128 -9
 3607 0563 00       		.byte	0x0
 3608 0564 10       		.uleb128 0x10
 3609 0565 01       		.byte	0x1
 3610 0566 1A000000 		.4byte	.LASF63
 3611 056a 01       		.byte	0x1
 3612 056b C703     		.2byte	0x3c7
 3613 056d 01       		.byte	0x1
 3614 056e 00000000 		.4byte	.LFB9
 3615 0572 F8000000 		.4byte	.LFE9
ARM GAS  C:\DOCUME~1\ADMINI~1\LOCALS~1\Temp\ccmk5fwz.s 			page 85


 3616 0576 E3010000 		.4byte	.LLST9
 3617 057a 9B050000 		.4byte	0x59b
 3618 057e 18       		.uleb128 0x18
 3619 057f 657000   		.ascii	"ep\000"
 3620 0582 01       		.byte	0x1
 3621 0583 C703     		.2byte	0x3c7
 3622 0585 6F000000 		.4byte	0x6f
 3623 0589 02       		.byte	0x2
 3624 058a 91       		.byte	0x91
 3625 058b 6F       		.sleb128 -17
 3626 058c 12       		.uleb128 0x12
 3627 058d 726900   		.ascii	"ri\000"
 3628 0590 01       		.byte	0x1
 3629 0591 C903     		.2byte	0x3c9
 3630 0593 6F000000 		.4byte	0x6f
 3631 0597 02       		.byte	0x2
 3632 0598 91       		.byte	0x91
 3633 0599 77       		.sleb128 -9
 3634 059a 00       		.byte	0x0
 3635 059b 17       		.uleb128 0x17
 3636 059c 01       		.byte	0x1
 3637 059d 4A010000 		.4byte	.LASF64
 3638 05a1 01       		.byte	0x1
 3639 05a2 F603     		.2byte	0x3f6
 3640 05a4 01       		.byte	0x1
 3641 05a5 6F000000 		.4byte	0x6f
 3642 05a9 00000000 		.4byte	.LFB10
 3643 05ad 2E010000 		.4byte	.LFE10
 3644 05b1 1A020000 		.4byte	.LLST10
 3645 05b5 E5050000 		.4byte	0x5e5
 3646 05b9 12       		.uleb128 0x12
 3647 05ba 657000   		.ascii	"ep\000"
 3648 05bd 01       		.byte	0x1
 3649 05be F803     		.2byte	0x3f8
 3650 05c0 6F000000 		.4byte	0x6f
 3651 05c4 02       		.byte	0x2
 3652 05c5 91       		.byte	0x91
 3653 05c6 75       		.sleb128 -11
 3654 05c7 12       		.uleb128 0x12
 3655 05c8 726900   		.ascii	"ri\000"
 3656 05cb 01       		.byte	0x1
 3657 05cc F803     		.2byte	0x3f8
 3658 05ce 6F000000 		.4byte	0x6f
 3659 05d2 02       		.byte	0x2
 3660 05d3 91       		.byte	0x91
 3661 05d4 76       		.sleb128 -10
 3662 05d5 13       		.uleb128 0x13
 3663 05d6 50040000 		.4byte	.LASF43
 3664 05da 01       		.byte	0x1
 3665 05db F903     		.2byte	0x3f9
 3666 05dd 6F000000 		.4byte	0x6f
 3667 05e1 02       		.byte	0x2
 3668 05e2 91       		.byte	0x91
 3669 05e3 77       		.sleb128 -9
 3670 05e4 00       		.byte	0x0
 3671 05e5 17       		.uleb128 0x17
 3672 05e6 01       		.byte	0x1
ARM GAS  C:\DOCUME~1\ADMINI~1\LOCALS~1\Temp\ccmk5fwz.s 			page 86


 3673 05e7 C6000000 		.4byte	.LASF65
 3674 05eb 01       		.byte	0x1
 3675 05ec 2C04     		.2byte	0x42c
 3676 05ee 01       		.byte	0x1
 3677 05ef 6F000000 		.4byte	0x6f
 3678 05f3 00000000 		.4byte	.LFB11
 3679 05f7 B8010000 		.4byte	.LFE11
 3680 05fb 51020000 		.4byte	.LLST11
 3681 05ff 2F060000 		.4byte	0x62f
 3682 0603 12       		.uleb128 0x12
 3683 0604 657000   		.ascii	"ep\000"
 3684 0607 01       		.byte	0x1
 3685 0608 2E04     		.2byte	0x42e
 3686 060a 6F000000 		.4byte	0x6f
 3687 060e 02       		.byte	0x2
 3688 060f 91       		.byte	0x91
 3689 0610 75       		.sleb128 -11
 3690 0611 12       		.uleb128 0x12
 3691 0612 726900   		.ascii	"ri\000"
 3692 0615 01       		.byte	0x1
 3693 0616 2E04     		.2byte	0x42e
 3694 0618 6F000000 		.4byte	0x6f
 3695 061c 02       		.byte	0x2
 3696 061d 91       		.byte	0x91
 3697 061e 76       		.sleb128 -10
 3698 061f 13       		.uleb128 0x13
 3699 0620 50040000 		.4byte	.LASF43
 3700 0624 01       		.byte	0x1
 3701 0625 2F04     		.2byte	0x42f
 3702 0627 6F000000 		.4byte	0x6f
 3703 062b 02       		.byte	0x2
 3704 062c 91       		.byte	0x91
 3705 062d 77       		.sleb128 -9
 3706 062e 00       		.byte	0x0
 3707 062f 17       		.uleb128 0x17
 3708 0630 01       		.byte	0x1
 3709 0631 EE010000 		.4byte	.LASF66
 3710 0635 01       		.byte	0x1
 3711 0636 7204     		.2byte	0x472
 3712 0638 01       		.byte	0x1
 3713 0639 6F000000 		.4byte	0x6f
 3714 063d 00000000 		.4byte	.LFB12
 3715 0641 94000000 		.4byte	.LFE12
 3716 0645 88020000 		.4byte	.LLST12
 3717 0649 8A060000 		.4byte	0x68a
 3718 064d 13       		.uleb128 0x13
 3719 064e 50040000 		.4byte	.LASF43
 3720 0652 01       		.byte	0x1
 3721 0653 7404     		.2byte	0x474
 3722 0655 6F000000 		.4byte	0x6f
 3723 0659 02       		.byte	0x2
 3724 065a 91       		.byte	0x91
 3725 065b 6E       		.sleb128 -18
 3726 065c 13       		.uleb128 0x13
 3727 065d 05030000 		.4byte	.LASF67
 3728 0661 01       		.byte	0x1
 3729 0662 7504     		.2byte	0x475
ARM GAS  C:\DOCUME~1\ADMINI~1\LOCALS~1\Temp\ccmk5fwz.s 			page 87


 3730 0664 6F000000 		.4byte	0x6f
 3731 0668 02       		.byte	0x2
 3732 0669 91       		.byte	0x91
 3733 066a 6F       		.sleb128 -17
 3734 066b 13       		.uleb128 0x13
 3735 066c 85020000 		.4byte	.LASF46
 3736 0670 01       		.byte	0x1
 3737 0671 7604     		.2byte	0x476
 3738 0673 F7020000 		.4byte	0x2f7
 3739 0677 02       		.byte	0x2
 3740 0678 91       		.byte	0x91
 3741 0679 70       		.sleb128 -16
 3742 067a 13       		.uleb128 0x13
 3743 067b BF020000 		.4byte	.LASF62
 3744 067f 01       		.byte	0x1
 3745 0680 7704     		.2byte	0x477
 3746 0682 6F000000 		.4byte	0x6f
 3747 0686 02       		.byte	0x2
 3748 0687 91       		.byte	0x91
 3749 0688 77       		.sleb128 -9
 3750 0689 00       		.byte	0x0
 3751 068a 14       		.uleb128 0x14
 3752 068b 6F000000 		.4byte	0x6f
 3753 068f 95060000 		.4byte	0x695
 3754 0693 1A       		.uleb128 0x1a
 3755 0694 00       		.byte	0x0
 3756 0695 1B       		.uleb128 0x1b
 3757 0696 12030000 		.4byte	.LASF68
 3758 069a 01       		.byte	0x1
 3759 069b 18       		.byte	0x18
 3760 069c A2060000 		.4byte	0x6a2
 3761 06a0 01       		.byte	0x1
 3762 06a1 01       		.byte	0x1
 3763 06a2 16       		.uleb128 0x16
 3764 06a3 8A060000 		.4byte	0x68a
 3765 06a7 1B       		.uleb128 0x1b
 3766 06a8 3D020000 		.4byte	.LASF69
 3767 06ac 01       		.byte	0x1
 3768 06ad 1A       		.byte	0x1a
 3769 06ae B4060000 		.4byte	0x6b4
 3770 06b2 01       		.byte	0x1
 3771 06b3 01       		.byte	0x1
 3772 06b4 16       		.uleb128 0x16
 3773 06b5 8A060000 		.4byte	0x68a
 3774 06b9 1B       		.uleb128 0x1b
 3775 06ba A4020000 		.4byte	.LASF70
 3776 06be 01       		.byte	0x1
 3777 06bf 1C       		.byte	0x1c
 3778 06c0 C6060000 		.4byte	0x6c6
 3779 06c4 01       		.byte	0x1
 3780 06c5 01       		.byte	0x1
 3781 06c6 16       		.uleb128 0x16
 3782 06c7 8A060000 		.4byte	0x68a
 3783 06cb 1B       		.uleb128 0x1b
 3784 06cc 05040000 		.4byte	.LASF71
 3785 06d0 01       		.byte	0x1
 3786 06d1 1E       		.byte	0x1e
ARM GAS  C:\DOCUME~1\ADMINI~1\LOCALS~1\Temp\ccmk5fwz.s 			page 88


 3787 06d2 A5000000 		.4byte	0xa5
 3788 06d6 01       		.byte	0x1
 3789 06d7 01       		.byte	0x1
 3790 06d8 1B       		.uleb128 0x1b
 3791 06d9 66010000 		.4byte	.LASF72
 3792 06dd 01       		.byte	0x1
 3793 06de 1F       		.byte	0x1f
 3794 06df A5000000 		.4byte	0xa5
 3795 06e3 01       		.byte	0x1
 3796 06e4 01       		.byte	0x1
 3797 06e5 1B       		.uleb128 0x1b
 3798 06e6 0D020000 		.4byte	.LASF73
 3799 06ea 01       		.byte	0x1
 3800 06eb 20       		.byte	0x20
 3801 06ec A5000000 		.4byte	0xa5
 3802 06f0 01       		.byte	0x1
 3803 06f1 01       		.byte	0x1
 3804 06f2 1B       		.uleb128 0x1b
 3805 06f3 DE000000 		.4byte	.LASF74
 3806 06f7 01       		.byte	0x1
 3807 06f8 21       		.byte	0x21
 3808 06f9 A5000000 		.4byte	0xa5
 3809 06fd 01       		.byte	0x1
 3810 06fe 01       		.byte	0x1
 3811 06ff 1B       		.uleb128 0x1b
 3812 0700 D9030000 		.4byte	.LASF75
 3813 0704 01       		.byte	0x1
 3814 0705 22       		.byte	0x22
 3815 0706 0C070000 		.4byte	0x70c
 3816 070a 01       		.byte	0x1
 3817 070b 01       		.byte	0x1
 3818 070c 05       		.uleb128 0x5
 3819 070d 8A060000 		.4byte	0x68a
 3820 0711 1B       		.uleb128 0x1b
 3821 0712 9C040000 		.4byte	.LASF76
 3822 0716 01       		.byte	0x1
 3823 0717 23       		.byte	0x23
 3824 0718 1E070000 		.4byte	0x71e
 3825 071c 01       		.byte	0x1
 3826 071d 01       		.byte	0x1
 3827 071e 05       		.uleb128 0x5
 3828 071f 8A060000 		.4byte	0x68a
 3829 0723 1B       		.uleb128 0x1b
 3830 0724 B2000000 		.4byte	.LASF77
 3831 0728 01       		.byte	0x1
 3832 0729 24       		.byte	0x24
 3833 072a A5000000 		.4byte	0xa5
 3834 072e 01       		.byte	0x1
 3835 072f 01       		.byte	0x1
 3836 0730 1B       		.uleb128 0x1b
 3837 0731 89040000 		.4byte	.LASF78
 3838 0735 01       		.byte	0x1
 3839 0736 25       		.byte	0x25
 3840 0737 A5000000 		.4byte	0xa5
 3841 073b 01       		.byte	0x1
 3842 073c 01       		.byte	0x1
 3843 073d 1B       		.uleb128 0x1b
ARM GAS  C:\DOCUME~1\ADMINI~1\LOCALS~1\Temp\ccmk5fwz.s 			page 89


 3844 073e 1B050000 		.4byte	.LASF79
 3845 0742 01       		.byte	0x1
 3846 0743 26       		.byte	0x26
 3847 0744 4A070000 		.4byte	0x74a
 3848 0748 01       		.byte	0x1
 3849 0749 01       		.byte	0x1
 3850 074a 05       		.uleb128 0x5
 3851 074b 8A060000 		.4byte	0x68a
 3852 074f 1B       		.uleb128 0x1b
 3853 0750 28020000 		.4byte	.LASF80
 3854 0754 01       		.byte	0x1
 3855 0755 27       		.byte	0x27
 3856 0756 8D020000 		.4byte	0x28d
 3857 075a 01       		.byte	0x1
 3858 075b 01       		.byte	0x1
 3859 075c 14       		.uleb128 0x14
 3860 075d 5A020000 		.4byte	0x25a
 3861 0761 67070000 		.4byte	0x767
 3862 0765 1A       		.uleb128 0x1a
 3863 0766 00       		.byte	0x0
 3864 0767 1B       		.uleb128 0x1b
 3865 0768 98020000 		.4byte	.LASF81
 3866 076c 01       		.byte	0x1
 3867 076d 28       		.byte	0x28
 3868 076e 74070000 		.4byte	0x774
 3869 0772 01       		.byte	0x1
 3870 0773 01       		.byte	0x1
 3871 0774 16       		.uleb128 0x16
 3872 0775 5C070000 		.4byte	0x75c
 3873 0779 14       		.uleb128 0x14
 3874 077a 3A010000 		.4byte	0x13a
 3875 077e 84070000 		.4byte	0x784
 3876 0782 1A       		.uleb128 0x1a
 3877 0783 00       		.byte	0x0
 3878 0784 1B       		.uleb128 0x1b
 3879 0785 4F030000 		.4byte	.LASF82
 3880 0789 01       		.byte	0x1
 3881 078a 29       		.byte	0x29
 3882 078b 91070000 		.4byte	0x791
 3883 078f 01       		.byte	0x1
 3884 0790 01       		.byte	0x1
 3885 0791 05       		.uleb128 0x5
 3886 0792 79070000 		.4byte	0x779
 3887 0796 1B       		.uleb128 0x1b
 3888 0797 2C000000 		.4byte	.LASF83
 3889 079b 01       		.byte	0x1
 3890 079c 2A       		.byte	0x2a
 3891 079d A3070000 		.4byte	0x7a3
 3892 07a1 01       		.byte	0x1
 3893 07a2 01       		.byte	0x1
 3894 07a3 05       		.uleb128 0x5
 3895 07a4 28020000 		.4byte	0x228
 3896 07a8 14       		.uleb128 0x14
 3897 07a9 6F000000 		.4byte	0x6f
 3898 07ad B8070000 		.4byte	0x7b8
 3899 07b1 15       		.uleb128 0x15
 3900 07b2 AA000000 		.4byte	0xaa
ARM GAS  C:\DOCUME~1\ADMINI~1\LOCALS~1\Temp\ccmk5fwz.s 			page 90


 3901 07b6 21       		.byte	0x21
 3902 07b7 00       		.byte	0x0
 3903 07b8 1C       		.uleb128 0x1c
 3904 07b9 D3040000 		.4byte	.LASF84
 3905 07bd 01       		.byte	0x1
 3906 07be 4B       		.byte	0x4b
 3907 07bf A8070000 		.4byte	0x7a8
 3908 07c3 01       		.byte	0x1
 3909 07c4 05       		.byte	0x5
 3910 07c5 03       		.byte	0x3
 3911 07c6 00000000 		.4byte	USBFS_idSerialNumberStringDescriptor
 3912 07ca 14       		.uleb128 0x14
 3913 07cb 6F000000 		.4byte	0x6f
 3914 07cf DA070000 		.4byte	0x7da
 3915 07d3 15       		.uleb128 0x15
 3916 07d4 AA000000 		.4byte	0xaa
 3917 07d8 01       		.byte	0x1
 3918 07d9 00       		.byte	0x0
 3919 07da 1C       		.uleb128 0x1c
 3920 07db 64000000 		.4byte	.LASF85
 3921 07df 01       		.byte	0x1
 3922 07e0 59       		.byte	0x59
 3923 07e1 EC070000 		.4byte	0x7ec
 3924 07e5 01       		.byte	0x1
 3925 07e6 05       		.byte	0x5
 3926 07e7 03       		.byte	0x3
 3927 07e8 00000000 		.4byte	USBFS_tBuffer
 3928 07ec 05       		.uleb128 0x5
 3929 07ed CA070000 		.4byte	0x7ca
 3930 07f1 1C       		.uleb128 0x1c
 3931 07f2 56020000 		.4byte	.LASF86
 3932 07f6 01       		.byte	0x1
 3933 07f7 5B       		.byte	0x5b
 3934 07f8 1C020000 		.4byte	0x21c
 3935 07fc 01       		.byte	0x1
 3936 07fd 05       		.byte	0x5
 3937 07fe 03       		.byte	0x3
 3938 07ff 00000000 		.4byte	USBFS_fwSerialNumberStringDescriptor
 3939 0803 1C       		.uleb128 0x1c
 3940 0804 05050000 		.4byte	.LASF87
 3941 0808 01       		.byte	0x1
 3942 0809 5C       		.byte	0x5c
 3943 080a A5000000 		.4byte	0xa5
 3944 080e 01       		.byte	0x1
 3945 080f 05       		.byte	0x5
 3946 0810 03       		.byte	0x3
 3947 0811 00000000 		.4byte	USBFS_snStringConfirm
 3948 0815 00       		.byte	0x0
 3949              		.section	.debug_abbrev
 3950 0000 01       		.uleb128 0x1
 3951 0001 11       		.uleb128 0x11
 3952 0002 01       		.byte	0x1
 3953 0003 25       		.uleb128 0x25
 3954 0004 0E       		.uleb128 0xe
 3955 0005 13       		.uleb128 0x13
 3956 0006 0B       		.uleb128 0xb
 3957 0007 03       		.uleb128 0x3
ARM GAS  C:\DOCUME~1\ADMINI~1\LOCALS~1\Temp\ccmk5fwz.s 			page 91


 3958 0008 0E       		.uleb128 0xe
 3959 0009 1B       		.uleb128 0x1b
 3960 000a 0E       		.uleb128 0xe
 3961 000b 11       		.uleb128 0x11
 3962 000c 01       		.uleb128 0x1
 3963 000d 52       		.uleb128 0x52
 3964 000e 01       		.uleb128 0x1
 3965 000f 55       		.uleb128 0x55
 3966 0010 06       		.uleb128 0x6
 3967 0011 10       		.uleb128 0x10
 3968 0012 06       		.uleb128 0x6
 3969 0013 00       		.byte	0x0
 3970 0014 00       		.byte	0x0
 3971 0015 02       		.uleb128 0x2
 3972 0016 24       		.uleb128 0x24
 3973 0017 00       		.byte	0x0
 3974 0018 0B       		.uleb128 0xb
 3975 0019 0B       		.uleb128 0xb
 3976 001a 3E       		.uleb128 0x3e
 3977 001b 0B       		.uleb128 0xb
 3978 001c 03       		.uleb128 0x3
 3979 001d 0E       		.uleb128 0xe
 3980 001e 00       		.byte	0x0
 3981 001f 00       		.byte	0x0
 3982 0020 03       		.uleb128 0x3
 3983 0021 24       		.uleb128 0x24
 3984 0022 00       		.byte	0x0
 3985 0023 0B       		.uleb128 0xb
 3986 0024 0B       		.uleb128 0xb
 3987 0025 3E       		.uleb128 0x3e
 3988 0026 0B       		.uleb128 0xb
 3989 0027 03       		.uleb128 0x3
 3990 0028 08       		.uleb128 0x8
 3991 0029 00       		.byte	0x0
 3992 002a 00       		.byte	0x0
 3993 002b 04       		.uleb128 0x4
 3994 002c 16       		.uleb128 0x16
 3995 002d 00       		.byte	0x0
 3996 002e 03       		.uleb128 0x3
 3997 002f 0E       		.uleb128 0xe
 3998 0030 3A       		.uleb128 0x3a
 3999 0031 0B       		.uleb128 0xb
 4000 0032 3B       		.uleb128 0x3b
 4001 0033 0B       		.uleb128 0xb
 4002 0034 49       		.uleb128 0x49
 4003 0035 13       		.uleb128 0x13
 4004 0036 00       		.byte	0x0
 4005 0037 00       		.byte	0x0
 4006 0038 05       		.uleb128 0x5
 4007 0039 35       		.uleb128 0x35
 4008 003a 00       		.byte	0x0
 4009 003b 49       		.uleb128 0x49
 4010 003c 13       		.uleb128 0x13
 4011 003d 00       		.byte	0x0
 4012 003e 00       		.byte	0x0
 4013 003f 06       		.uleb128 0x6
 4014 0040 24       		.uleb128 0x24
ARM GAS  C:\DOCUME~1\ADMINI~1\LOCALS~1\Temp\ccmk5fwz.s 			page 92


 4015 0041 00       		.byte	0x0
 4016 0042 0B       		.uleb128 0xb
 4017 0043 0B       		.uleb128 0xb
 4018 0044 3E       		.uleb128 0x3e
 4019 0045 0B       		.uleb128 0xb
 4020 0046 00       		.byte	0x0
 4021 0047 00       		.byte	0x0
 4022 0048 07       		.uleb128 0x7
 4023 0049 0F       		.uleb128 0xf
 4024 004a 00       		.byte	0x0
 4025 004b 0B       		.uleb128 0xb
 4026 004c 0B       		.uleb128 0xb
 4027 004d 00       		.byte	0x0
 4028 004e 00       		.byte	0x0
 4029 004f 08       		.uleb128 0x8
 4030 0050 13       		.uleb128 0x13
 4031 0051 01       		.byte	0x1
 4032 0052 03       		.uleb128 0x3
 4033 0053 0E       		.uleb128 0xe
 4034 0054 0B       		.uleb128 0xb
 4035 0055 0B       		.uleb128 0xb
 4036 0056 3A       		.uleb128 0x3a
 4037 0057 0B       		.uleb128 0xb
 4038 0058 3B       		.uleb128 0x3b
 4039 0059 0B       		.uleb128 0xb
 4040 005a 01       		.uleb128 0x1
 4041 005b 13       		.uleb128 0x13
 4042 005c 00       		.byte	0x0
 4043 005d 00       		.byte	0x0
 4044 005e 09       		.uleb128 0x9
 4045 005f 0D       		.uleb128 0xd
 4046 0060 00       		.byte	0x0
 4047 0061 03       		.uleb128 0x3
 4048 0062 0E       		.uleb128 0xe
 4049 0063 3A       		.uleb128 0x3a
 4050 0064 0B       		.uleb128 0xb
 4051 0065 3B       		.uleb128 0x3b
 4052 0066 0B       		.uleb128 0xb
 4053 0067 49       		.uleb128 0x49
 4054 0068 13       		.uleb128 0x13
 4055 0069 38       		.uleb128 0x38
 4056 006a 0A       		.uleb128 0xa
 4057 006b 00       		.byte	0x0
 4058 006c 00       		.byte	0x0
 4059 006d 0A       		.uleb128 0xa
 4060 006e 0F       		.uleb128 0xf
 4061 006f 00       		.byte	0x0
 4062 0070 0B       		.uleb128 0xb
 4063 0071 0B       		.uleb128 0xb
 4064 0072 49       		.uleb128 0x49
 4065 0073 13       		.uleb128 0x13
 4066 0074 00       		.byte	0x0
 4067 0075 00       		.byte	0x0
 4068 0076 0B       		.uleb128 0xb
 4069 0077 0D       		.uleb128 0xd
 4070 0078 00       		.byte	0x0
 4071 0079 03       		.uleb128 0x3
ARM GAS  C:\DOCUME~1\ADMINI~1\LOCALS~1\Temp\ccmk5fwz.s 			page 93


 4072 007a 08       		.uleb128 0x8
 4073 007b 3A       		.uleb128 0x3a
 4074 007c 0B       		.uleb128 0xb
 4075 007d 3B       		.uleb128 0x3b
 4076 007e 0B       		.uleb128 0xb
 4077 007f 49       		.uleb128 0x49
 4078 0080 13       		.uleb128 0x13
 4079 0081 38       		.uleb128 0x38
 4080 0082 0A       		.uleb128 0xa
 4081 0083 00       		.byte	0x0
 4082 0084 00       		.byte	0x0
 4083 0085 0C       		.uleb128 0xc
 4084 0086 2E       		.uleb128 0x2e
 4085 0087 01       		.byte	0x1
 4086 0088 3F       		.uleb128 0x3f
 4087 0089 0C       		.uleb128 0xc
 4088 008a 03       		.uleb128 0x3
 4089 008b 0E       		.uleb128 0xe
 4090 008c 3A       		.uleb128 0x3a
 4091 008d 0B       		.uleb128 0xb
 4092 008e 3B       		.uleb128 0x3b
 4093 008f 0B       		.uleb128 0xb
 4094 0090 27       		.uleb128 0x27
 4095 0091 0C       		.uleb128 0xc
 4096 0092 11       		.uleb128 0x11
 4097 0093 01       		.uleb128 0x1
 4098 0094 12       		.uleb128 0x12
 4099 0095 01       		.uleb128 0x1
 4100 0096 40       		.uleb128 0x40
 4101 0097 06       		.uleb128 0x6
 4102 0098 01       		.uleb128 0x1
 4103 0099 13       		.uleb128 0x13
 4104 009a 00       		.byte	0x0
 4105 009b 00       		.byte	0x0
 4106 009c 0D       		.uleb128 0xd
 4107 009d 05       		.uleb128 0x5
 4108 009e 00       		.byte	0x0
 4109 009f 03       		.uleb128 0x3
 4110 00a0 0E       		.uleb128 0xe
 4111 00a1 3A       		.uleb128 0x3a
 4112 00a2 0B       		.uleb128 0xb
 4113 00a3 3B       		.uleb128 0x3b
 4114 00a4 0B       		.uleb128 0xb
 4115 00a5 49       		.uleb128 0x49
 4116 00a6 13       		.uleb128 0x13
 4117 00a7 02       		.uleb128 0x2
 4118 00a8 0A       		.uleb128 0xa
 4119 00a9 00       		.byte	0x0
 4120 00aa 00       		.byte	0x0
 4121 00ab 0E       		.uleb128 0xe
 4122 00ac 2E       		.uleb128 0x2e
 4123 00ad 01       		.byte	0x1
 4124 00ae 3F       		.uleb128 0x3f
 4125 00af 0C       		.uleb128 0xc
 4126 00b0 03       		.uleb128 0x3
 4127 00b1 0E       		.uleb128 0xe
 4128 00b2 3A       		.uleb128 0x3a
ARM GAS  C:\DOCUME~1\ADMINI~1\LOCALS~1\Temp\ccmk5fwz.s 			page 94


 4129 00b3 0B       		.uleb128 0xb
 4130 00b4 3B       		.uleb128 0x3b
 4131 00b5 0B       		.uleb128 0xb
 4132 00b6 27       		.uleb128 0x27
 4133 00b7 0C       		.uleb128 0xc
 4134 00b8 49       		.uleb128 0x49
 4135 00b9 13       		.uleb128 0x13
 4136 00ba 11       		.uleb128 0x11
 4137 00bb 01       		.uleb128 0x1
 4138 00bc 12       		.uleb128 0x12
 4139 00bd 01       		.uleb128 0x1
 4140 00be 40       		.uleb128 0x40
 4141 00bf 06       		.uleb128 0x6
 4142 00c0 01       		.uleb128 0x1
 4143 00c1 13       		.uleb128 0x13
 4144 00c2 00       		.byte	0x0
 4145 00c3 00       		.byte	0x0
 4146 00c4 0F       		.uleb128 0xf
 4147 00c5 34       		.uleb128 0x34
 4148 00c6 00       		.byte	0x0
 4149 00c7 03       		.uleb128 0x3
 4150 00c8 0E       		.uleb128 0xe
 4151 00c9 3A       		.uleb128 0x3a
 4152 00ca 0B       		.uleb128 0xb
 4153 00cb 3B       		.uleb128 0x3b
 4154 00cc 0B       		.uleb128 0xb
 4155 00cd 49       		.uleb128 0x49
 4156 00ce 13       		.uleb128 0x13
 4157 00cf 02       		.uleb128 0x2
 4158 00d0 0A       		.uleb128 0xa
 4159 00d1 00       		.byte	0x0
 4160 00d2 00       		.byte	0x0
 4161 00d3 10       		.uleb128 0x10
 4162 00d4 2E       		.uleb128 0x2e
 4163 00d5 01       		.byte	0x1
 4164 00d6 3F       		.uleb128 0x3f
 4165 00d7 0C       		.uleb128 0xc
 4166 00d8 03       		.uleb128 0x3
 4167 00d9 0E       		.uleb128 0xe
 4168 00da 3A       		.uleb128 0x3a
 4169 00db 0B       		.uleb128 0xb
 4170 00dc 3B       		.uleb128 0x3b
 4171 00dd 05       		.uleb128 0x5
 4172 00de 27       		.uleb128 0x27
 4173 00df 0C       		.uleb128 0xc
 4174 00e0 11       		.uleb128 0x11
 4175 00e1 01       		.uleb128 0x1
 4176 00e2 12       		.uleb128 0x12
 4177 00e3 01       		.uleb128 0x1
 4178 00e4 40       		.uleb128 0x40
 4179 00e5 06       		.uleb128 0x6
 4180 00e6 01       		.uleb128 0x1
 4181 00e7 13       		.uleb128 0x13
 4182 00e8 00       		.byte	0x0
 4183 00e9 00       		.byte	0x0
 4184 00ea 11       		.uleb128 0x11
 4185 00eb 05       		.uleb128 0x5
ARM GAS  C:\DOCUME~1\ADMINI~1\LOCALS~1\Temp\ccmk5fwz.s 			page 95


 4186 00ec 00       		.byte	0x0
 4187 00ed 03       		.uleb128 0x3
 4188 00ee 0E       		.uleb128 0xe
 4189 00ef 3A       		.uleb128 0x3a
 4190 00f0 0B       		.uleb128 0xb
 4191 00f1 3B       		.uleb128 0x3b
 4192 00f2 05       		.uleb128 0x5
 4193 00f3 49       		.uleb128 0x49
 4194 00f4 13       		.uleb128 0x13
 4195 00f5 02       		.uleb128 0x2
 4196 00f6 0A       		.uleb128 0xa
 4197 00f7 00       		.byte	0x0
 4198 00f8 00       		.byte	0x0
 4199 00f9 12       		.uleb128 0x12
 4200 00fa 34       		.uleb128 0x34
 4201 00fb 00       		.byte	0x0
 4202 00fc 03       		.uleb128 0x3
 4203 00fd 08       		.uleb128 0x8
 4204 00fe 3A       		.uleb128 0x3a
 4205 00ff 0B       		.uleb128 0xb
 4206 0100 3B       		.uleb128 0x3b
 4207 0101 05       		.uleb128 0x5
 4208 0102 49       		.uleb128 0x49
 4209 0103 13       		.uleb128 0x13
 4210 0104 02       		.uleb128 0x2
 4211 0105 0A       		.uleb128 0xa
 4212 0106 00       		.byte	0x0
 4213 0107 00       		.byte	0x0
 4214 0108 13       		.uleb128 0x13
 4215 0109 34       		.uleb128 0x34
 4216 010a 00       		.byte	0x0
 4217 010b 03       		.uleb128 0x3
 4218 010c 0E       		.uleb128 0xe
 4219 010d 3A       		.uleb128 0x3a
 4220 010e 0B       		.uleb128 0xb
 4221 010f 3B       		.uleb128 0x3b
 4222 0110 05       		.uleb128 0x5
 4223 0111 49       		.uleb128 0x49
 4224 0112 13       		.uleb128 0x13
 4225 0113 02       		.uleb128 0x2
 4226 0114 0A       		.uleb128 0xa
 4227 0115 00       		.byte	0x0
 4228 0116 00       		.byte	0x0
 4229 0117 14       		.uleb128 0x14
 4230 0118 01       		.uleb128 0x1
 4231 0119 01       		.byte	0x1
 4232 011a 49       		.uleb128 0x49
 4233 011b 13       		.uleb128 0x13
 4234 011c 01       		.uleb128 0x1
 4235 011d 13       		.uleb128 0x13
 4236 011e 00       		.byte	0x0
 4237 011f 00       		.byte	0x0
 4238 0120 15       		.uleb128 0x15
 4239 0121 21       		.uleb128 0x21
 4240 0122 00       		.byte	0x0
 4241 0123 49       		.uleb128 0x49
 4242 0124 13       		.uleb128 0x13
ARM GAS  C:\DOCUME~1\ADMINI~1\LOCALS~1\Temp\ccmk5fwz.s 			page 96


 4243 0125 2F       		.uleb128 0x2f
 4244 0126 0B       		.uleb128 0xb
 4245 0127 00       		.byte	0x0
 4246 0128 00       		.byte	0x0
 4247 0129 16       		.uleb128 0x16
 4248 012a 26       		.uleb128 0x26
 4249 012b 00       		.byte	0x0
 4250 012c 49       		.uleb128 0x49
 4251 012d 13       		.uleb128 0x13
 4252 012e 00       		.byte	0x0
 4253 012f 00       		.byte	0x0
 4254 0130 17       		.uleb128 0x17
 4255 0131 2E       		.uleb128 0x2e
 4256 0132 01       		.byte	0x1
 4257 0133 3F       		.uleb128 0x3f
 4258 0134 0C       		.uleb128 0xc
 4259 0135 03       		.uleb128 0x3
 4260 0136 0E       		.uleb128 0xe
 4261 0137 3A       		.uleb128 0x3a
 4262 0138 0B       		.uleb128 0xb
 4263 0139 3B       		.uleb128 0x3b
 4264 013a 05       		.uleb128 0x5
 4265 013b 27       		.uleb128 0x27
 4266 013c 0C       		.uleb128 0xc
 4267 013d 49       		.uleb128 0x49
 4268 013e 13       		.uleb128 0x13
 4269 013f 11       		.uleb128 0x11
 4270 0140 01       		.uleb128 0x1
 4271 0141 12       		.uleb128 0x12
 4272 0142 01       		.uleb128 0x1
 4273 0143 40       		.uleb128 0x40
 4274 0144 06       		.uleb128 0x6
 4275 0145 01       		.uleb128 0x1
 4276 0146 13       		.uleb128 0x13
 4277 0147 00       		.byte	0x0
 4278 0148 00       		.byte	0x0
 4279 0149 18       		.uleb128 0x18
 4280 014a 05       		.uleb128 0x5
 4281 014b 00       		.byte	0x0
 4282 014c 03       		.uleb128 0x3
 4283 014d 08       		.uleb128 0x8
 4284 014e 3A       		.uleb128 0x3a
 4285 014f 0B       		.uleb128 0xb
 4286 0150 3B       		.uleb128 0x3b
 4287 0151 05       		.uleb128 0x5
 4288 0152 49       		.uleb128 0x49
 4289 0153 13       		.uleb128 0x13
 4290 0154 02       		.uleb128 0x2
 4291 0155 0A       		.uleb128 0xa
 4292 0156 00       		.byte	0x0
 4293 0157 00       		.byte	0x0
 4294 0158 19       		.uleb128 0x19
 4295 0159 2E       		.uleb128 0x2e
 4296 015a 00       		.byte	0x0
 4297 015b 3F       		.uleb128 0x3f
 4298 015c 0C       		.uleb128 0xc
 4299 015d 03       		.uleb128 0x3
ARM GAS  C:\DOCUME~1\ADMINI~1\LOCALS~1\Temp\ccmk5fwz.s 			page 97


 4300 015e 0E       		.uleb128 0xe
 4301 015f 3A       		.uleb128 0x3a
 4302 0160 0B       		.uleb128 0xb
 4303 0161 3B       		.uleb128 0x3b
 4304 0162 05       		.uleb128 0x5
 4305 0163 27       		.uleb128 0x27
 4306 0164 0C       		.uleb128 0xc
 4307 0165 49       		.uleb128 0x49
 4308 0166 13       		.uleb128 0x13
 4309 0167 11       		.uleb128 0x11
 4310 0168 01       		.uleb128 0x1
 4311 0169 12       		.uleb128 0x12
 4312 016a 01       		.uleb128 0x1
 4313 016b 40       		.uleb128 0x40
 4314 016c 06       		.uleb128 0x6
 4315 016d 00       		.byte	0x0
 4316 016e 00       		.byte	0x0
 4317 016f 1A       		.uleb128 0x1a
 4318 0170 21       		.uleb128 0x21
 4319 0171 00       		.byte	0x0
 4320 0172 00       		.byte	0x0
 4321 0173 00       		.byte	0x0
 4322 0174 1B       		.uleb128 0x1b
 4323 0175 34       		.uleb128 0x34
 4324 0176 00       		.byte	0x0
 4325 0177 03       		.uleb128 0x3
 4326 0178 0E       		.uleb128 0xe
 4327 0179 3A       		.uleb128 0x3a
 4328 017a 0B       		.uleb128 0xb
 4329 017b 3B       		.uleb128 0x3b
 4330 017c 0B       		.uleb128 0xb
 4331 017d 49       		.uleb128 0x49
 4332 017e 13       		.uleb128 0x13
 4333 017f 3F       		.uleb128 0x3f
 4334 0180 0C       		.uleb128 0xc
 4335 0181 3C       		.uleb128 0x3c
 4336 0182 0C       		.uleb128 0xc
 4337 0183 00       		.byte	0x0
 4338 0184 00       		.byte	0x0
 4339 0185 1C       		.uleb128 0x1c
 4340 0186 34       		.uleb128 0x34
 4341 0187 00       		.byte	0x0
 4342 0188 03       		.uleb128 0x3
 4343 0189 0E       		.uleb128 0xe
 4344 018a 3A       		.uleb128 0x3a
 4345 018b 0B       		.uleb128 0xb
 4346 018c 3B       		.uleb128 0x3b
 4347 018d 0B       		.uleb128 0xb
 4348 018e 49       		.uleb128 0x49
 4349 018f 13       		.uleb128 0x13
 4350 0190 3F       		.uleb128 0x3f
 4351 0191 0C       		.uleb128 0xc
 4352 0192 02       		.uleb128 0x2
 4353 0193 0A       		.uleb128 0xa
 4354 0194 00       		.byte	0x0
 4355 0195 00       		.byte	0x0
 4356 0196 00       		.byte	0x0
ARM GAS  C:\DOCUME~1\ADMINI~1\LOCALS~1\Temp\ccmk5fwz.s 			page 98


 4357              		.section	.debug_pubnames,"",%progbits
 4358 0000 E2010000 		.4byte	0x1e2
 4359 0004 0200     		.2byte	0x2
 4360 0006 00000000 		.4byte	.Ldebug_info0
 4361 000a 16080000 		.4byte	0x816
 4362 000e 65020000 		.4byte	0x265
 4363 0012 55534246 		.ascii	"USBFS_SerialNumString\000"
 4363      535F5365 
 4363      7269616C 
 4363      4E756D53 
 4363      7472696E 
 4364 0028 93020000 		.4byte	0x293
 4365 002c 55534246 		.ascii	"USBFS_HandleStandardRqst\000"
 4365      535F4861 
 4365      6E646C65 
 4365      5374616E 
 4365      64617264 
 4366 0045 FD020000 		.4byte	0x2fd
 4367 0049 55534246 		.ascii	"USBFS_ReadDieID\000"
 4367      535F5265 
 4367      61644469 
 4367      65494400 
 4368 0059 77030000 		.4byte	0x377
 4369 005d 55534246 		.ascii	"USBFS_ConfigReg\000"
 4369      535F436F 
 4369      6E666967 
 4369      52656700 
 4370 006d BC030000 		.4byte	0x3bc
 4371 0071 55534246 		.ascii	"USBFS_Config\000"
 4371      535F436F 
 4371      6E666967 
 4371      00
 4372 007e 52040000 		.4byte	0x452
 4373 0082 55534246 		.ascii	"USBFS_ConfigAltChanged\000"
 4373      535F436F 
 4373      6E666967 
 4373      416C7443 
 4373      68616E67 
 4374 0099 D2040000 		.4byte	0x4d2
 4375 009d 55534246 		.ascii	"USBFS_GetConfigTablePtr\000"
 4375      535F4765 
 4375      74436F6E 
 4375      66696754 
 4375      61626C65 
 4376 00b5 0D050000 		.4byte	0x50d
 4377 00b9 55534246 		.ascii	"USBFS_GetDeviceTablePtr\000"
 4377      535F4765 
 4377      74446576 
 4377      69636554 
 4377      61626C65 
 4378 00d1 27050000 		.4byte	0x527
 4379 00d5 55534246 		.ascii	"USBFS_GetInterfaceClassTablePtr\000"
 4379      535F4765 
 4379      74496E74 
 4379      65726661 
 4379      6365436C 
 4380 00f5 64050000 		.4byte	0x564
ARM GAS  C:\DOCUME~1\ADMINI~1\LOCALS~1\Temp\ccmk5fwz.s 			page 99


 4381 00f9 55534246 		.ascii	"USBFS_TerminateEP\000"
 4381      535F5465 
 4381      726D696E 
 4381      61746545 
 4381      5000
 4382 010b 9B050000 		.4byte	0x59b
 4383 010f 55534246 		.ascii	"USBFS_SetEndpointHalt\000"
 4383      535F5365 
 4383      74456E64 
 4383      706F696E 
 4383      7448616C 
 4384 0125 E5050000 		.4byte	0x5e5
 4385 0129 55534246 		.ascii	"USBFS_ClearEndpointHalt\000"
 4385      535F436C 
 4385      65617245 
 4385      6E64706F 
 4385      696E7448 
 4386 0141 2F060000 		.4byte	0x62f
 4387 0145 55534246 		.ascii	"USBFS_ValidateAlternateSetting\000"
 4387      535F5661 
 4387      6C696461 
 4387      7465416C 
 4387      7465726E 
 4388 0164 B8070000 		.4byte	0x7b8
 4389 0168 55534246 		.ascii	"USBFS_idSerialNumberStringDescriptor\000"
 4389      535F6964 
 4389      53657269 
 4389      616C4E75 
 4389      6D626572 
 4390 018d DA070000 		.4byte	0x7da
 4391 0191 55534246 		.ascii	"USBFS_tBuffer\000"
 4391      535F7442 
 4391      75666665 
 4391      7200
 4392 019f F1070000 		.4byte	0x7f1
 4393 01a3 55534246 		.ascii	"USBFS_fwSerialNumberStringDescriptor\000"
 4393      535F6677 
 4393      53657269 
 4393      616C4E75 
 4393      6D626572 
 4394 01c8 03080000 		.4byte	0x803
 4395 01cc 55534246 		.ascii	"USBFS_snStringConfirm\000"
 4395      535F736E 
 4395      53747269 
 4395      6E67436F 
 4395      6E666972 
 4396 01e2 00000000 		.4byte	0x0
 4397              		.section	.debug_aranges,"",%progbits
 4398 0000 7C000000 		.4byte	0x7c
 4399 0004 0200     		.2byte	0x2
 4400 0006 00000000 		.4byte	.Ldebug_info0
 4401 000a 04       		.byte	0x4
 4402 000b 00       		.byte	0x0
 4403 000c 0000     		.2byte	0x0
 4404 000e 0000     		.2byte	0x0
 4405 0010 00000000 		.4byte	.LFB0
 4406 0014 12000000 		.4byte	.LFE0-.LFB0
ARM GAS  C:\DOCUME~1\ADMINI~1\LOCALS~1\Temp\ccmk5fwz.s 			page 100


 4407 0018 00000000 		.4byte	.LFB1
 4408 001c 36060000 		.4byte	.LFE1-.LFB1
 4409 0020 00000000 		.4byte	.LFB2
 4410 0024 98000000 		.4byte	.LFE2-.LFB2
 4411 0028 00000000 		.4byte	.LFB3
 4412 002c 62010000 		.4byte	.LFE3-.LFB3
 4413 0030 00000000 		.4byte	.LFB4
 4414 0034 D8030000 		.4byte	.LFE4-.LFB4
 4415 0038 00000000 		.4byte	.LFB5
 4416 003c 1A030000 		.4byte	.LFE5-.LFB5
 4417 0040 00000000 		.4byte	.LFB6
 4418 0044 2C000000 		.4byte	.LFE6-.LFB6
 4419 0048 00000000 		.4byte	.LFB7
 4420 004c 28000000 		.4byte	.LFE7-.LFB7
 4421 0050 00000000 		.4byte	.LFB8
 4422 0054 50000000 		.4byte	.LFE8-.LFB8
 4423 0058 00000000 		.4byte	.LFB9
 4424 005c F8000000 		.4byte	.LFE9-.LFB9
 4425 0060 00000000 		.4byte	.LFB10
 4426 0064 2E010000 		.4byte	.LFE10-.LFB10
 4427 0068 00000000 		.4byte	.LFB11
 4428 006c B8010000 		.4byte	.LFE11-.LFB11
 4429 0070 00000000 		.4byte	.LFB12
 4430 0074 94000000 		.4byte	.LFE12-.LFB12
 4431 0078 00000000 		.4byte	0x0
 4432 007c 00000000 		.4byte	0x0
 4433              		.section	.debug_ranges,"",%progbits
 4434              	.Ldebug_ranges0:
 4435 0000 00000000 		.4byte	.Ltext0
 4436 0004 00000000 		.4byte	.Letext0
 4437 0008 00000000 		.4byte	.LFB0
 4438 000c 12000000 		.4byte	.LFE0
 4439 0010 00000000 		.4byte	.LFB1
 4440 0014 36060000 		.4byte	.LFE1
 4441 0018 00000000 		.4byte	.LFB2
 4442 001c 98000000 		.4byte	.LFE2
 4443 0020 00000000 		.4byte	.LFB3
 4444 0024 62010000 		.4byte	.LFE3
 4445 0028 00000000 		.4byte	.LFB4
 4446 002c D8030000 		.4byte	.LFE4
 4447 0030 00000000 		.4byte	.LFB5
 4448 0034 1A030000 		.4byte	.LFE5
 4449 0038 00000000 		.4byte	.LFB6
 4450 003c 2C000000 		.4byte	.LFE6
 4451 0040 00000000 		.4byte	.LFB7
 4452 0044 28000000 		.4byte	.LFE7
 4453 0048 00000000 		.4byte	.LFB8
 4454 004c 50000000 		.4byte	.LFE8
 4455 0050 00000000 		.4byte	.LFB9
 4456 0054 F8000000 		.4byte	.LFE9
 4457 0058 00000000 		.4byte	.LFB10
 4458 005c 2E010000 		.4byte	.LFE10
 4459 0060 00000000 		.4byte	.LFB11
 4460 0064 B8010000 		.4byte	.LFE11
 4461 0068 00000000 		.4byte	.LFB12
 4462 006c 94000000 		.4byte	.LFE12
 4463 0070 00000000 		.4byte	0x0
ARM GAS  C:\DOCUME~1\ADMINI~1\LOCALS~1\Temp\ccmk5fwz.s 			page 101


 4464 0074 00000000 		.4byte	0x0
 4465              		.section	.debug_str,"MS",%progbits,1
 4466              	.LASF38:
 4467 0000 70537461 		.ascii	"pStatusBlock\000"
 4467      74757342 
 4467      6C6F636B 
 4467      00
 4468              	.LASF36:
 4469 000d 636F756E 		.ascii	"count\000"
 4469      7400
 4470              	.LASF10:
 4471 0013 75696E74 		.ascii	"uint16\000"
 4471      313600
 4472              	.LASF63:
 4473 001a 55534246 		.ascii	"USBFS_TerminateEP\000"
 4473      535F5465 
 4473      726D696E 
 4473      61746545 
 4473      5000
 4474              	.LASF83:
 4475 002c 55534246 		.ascii	"USBFS_currentTD\000"
 4475      535F6375 
 4475      7272656E 
 4475      74544400 
 4476              	.LASF7:
 4477 003c 6C6F6E67 		.ascii	"long long unsigned int\000"
 4477      206C6F6E 
 4477      6720756E 
 4477      7369676E 
 4477      65642069 
 4478              	.LASF19:
 4479 0053 61646472 		.ascii	"addr\000"
 4479      00
 4480              	.LASF88:
 4481 0058 474E5520 		.ascii	"GNU C 4.4.1\000"
 4481      4320342E 
 4481      342E3100 
 4482              	.LASF85:
 4483 0064 55534246 		.ascii	"USBFS_tBuffer\000"
 4483      535F7442 
 4483      75666665 
 4483      7200
 4484              	.LASF47:
 4485 0072 55534246 		.ascii	"USBFS_SerialNumString\000"
 4485      535F5365 
 4485      7269616C 
 4485      4E756D53 
 4485      7472696E 
 4486              	.LASF6:
 4487 0088 6C6F6E67 		.ascii	"long long int\000"
 4487      206C6F6E 
 4487      6720696E 
 4487      7400
 4488              	.LASF0:
 4489 0096 7369676E 		.ascii	"signed char\000"
 4489      65642063 
 4489      68617200 
ARM GAS  C:\DOCUME~1\ADMINI~1\LOCALS~1\Temp\ccmk5fwz.s 			page 102


 4490              	.LASF55:
 4491 00a2 636C6561 		.ascii	"clearAltSetting\000"
 4491      72416C74 
 4491      53657474 
 4491      696E6700 
 4492              	.LASF77:
 4493 00b2 55534246 		.ascii	"USBFS_deviceAddress\000"
 4493      535F6465 
 4493      76696365 
 4493      41646472 
 4493      65737300 
 4494              	.LASF65:
 4495 00c6 55534246 		.ascii	"USBFS_ClearEndpointHalt\000"
 4495      535F436C 
 4495      65617245 
 4495      6E64706F 
 4495      696E7448 
 4496              	.LASF74:
 4497 00de 55534246 		.ascii	"USBFS_interfaceNumber\000"
 4497      535F696E 
 4497      74657266 
 4497      6163654E 
 4497      756D6265 
 4498              	.LASF54:
 4499 00f4 55534246 		.ascii	"USBFS_Config\000"
 4499      535F436F 
 4499      6E666967 
 4499      00
 4500              	.LASF52:
 4501 0101 55534246 		.ascii	"USBFS_ConfigReg\000"
 4501      535F436F 
 4501      6E666967 
 4501      52656700 
 4502              	.LASF4:
 4503 0111 6C6F6E67 		.ascii	"long int\000"
 4503      20696E74 
 4503      00
 4504              	.LASF9:
 4505 011a 75696E74 		.ascii	"uint8\000"
 4505      3800
 4506              	.LASF18:
 4507 0120 6570546F 		.ascii	"epToggle\000"
 4507      67676C65 
 4507      00
 4508              	.LASF12:
 4509 0129 646F7562 		.ascii	"double\000"
 4509      6C6500
 4510              	.LASF30:
 4511 0130 545F5553 		.ascii	"T_USBFS_EP_SETTINGS_BLOCK\000"
 4511      4246535F 
 4511      45505F53 
 4511      45545449 
 4511      4E47535F 
 4512              	.LASF64:
 4513 014a 55534246 		.ascii	"USBFS_SetEndpointHalt\000"
 4513      535F5365 
 4513      74456E64 
ARM GAS  C:\DOCUME~1\ADMINI~1\LOCALS~1\Temp\ccmk5fwz.s 			page 103


 4513      706F696E 
 4513      7448616C 
 4514              	.LASF37:
 4515 0160 70446174 		.ascii	"pData\000"
 4515      6100
 4516              	.LASF72:
 4517 0166 55534246 		.ascii	"USBFS_configuration\000"
 4517      535F636F 
 4517      6E666967 
 4517      75726174 
 4517      696F6E00 
 4518              	.LASF20:
 4519 017a 65704D6F 		.ascii	"epMode\000"
 4519      646500
 4520              	.LASF51:
 4521 0181 76616C75 		.ascii	"value\000"
 4521      6500
 4522              	.LASF8:
 4523 0187 756E7369 		.ascii	"unsigned int\000"
 4523      676E6564 
 4523      20696E74 
 4523      00
 4524              	.LASF5:
 4525 0194 6C6F6E67 		.ascii	"long unsigned int\000"
 4525      20756E73 
 4525      69676E65 
 4525      6420696E 
 4525      7400
 4526              	.LASF61:
 4527 01a6 55534246 		.ascii	"USBFS_GetInterfaceClassTablePtr\000"
 4527      535F4765 
 4527      74496E74 
 4527      65726661 
 4527      6365436C 
 4528              	.LASF3:
 4529 01c6 73686F72 		.ascii	"short unsigned int\000"
 4529      7420756E 
 4529      7369676E 
 4529      65642069 
 4529      6E7400
 4530              	.LASF40:
 4531 01d9 5F555342 		.ascii	"_USBFS_Lut\000"
 4531      46535F4C 
 4531      757400
 4532              	.LASF23:
 4533 01e4 696E7465 		.ascii	"interface\000"
 4533      72666163 
 4533      6500
 4534              	.LASF66:
 4535 01ee 55534246 		.ascii	"USBFS_ValidateAlternateSetting\000"
 4535      535F5661 
 4535      6C696461 
 4535      7465416C 
 4535      7465726E 
 4536              	.LASF73:
 4537 020d 55534246 		.ascii	"USBFS_configurationChanged\000"
 4537      535F636F 
ARM GAS  C:\DOCUME~1\ADMINI~1\LOCALS~1\Temp\ccmk5fwz.s 			page 104


 4537      6E666967 
 4537      75726174 
 4537      696F6E43 
 4538              	.LASF80:
 4539 0228 55534246 		.ascii	"USBFS_interfaceClass\000"
 4539      535F696E 
 4539      74657266 
 4539      61636543 
 4539      6C617373 
 4540              	.LASF69:
 4541 023d 55534246 		.ascii	"USBFS_STRING_DESCRIPTORS\000"
 4541      535F5354 
 4541      52494E47 
 4541      5F444553 
 4541      43524950 
 4542              	.LASF86:
 4543 0256 55534246 		.ascii	"USBFS_fwSerialNumberStringDescriptor\000"
 4543      535F6677 
 4543      53657269 
 4543      616C4E75 
 4543      6D626572 
 4544              	.LASF17:
 4545 027b 68774570 		.ascii	"hwEpState\000"
 4545      53746174 
 4545      6500
 4546              	.LASF46:
 4547 0285 70546D70 		.ascii	"pTmp\000"
 4547      00
 4548              	.LASF41:
 4549 028a 705F6C69 		.ascii	"p_list\000"
 4549      737400
 4550              	.LASF15:
 4551 0291 61747472 		.ascii	"attrib\000"
 4551      696200
 4552              	.LASF81:
 4553 0298 55534246 		.ascii	"USBFS_TABLE\000"
 4553      535F5441 
 4553      424C4500 
 4554              	.LASF70:
 4555 02a4 55534246 		.ascii	"USBFS_SN_STRING_DESCRIPTOR\000"
 4555      535F534E 
 4555      5F535452 
 4555      494E475F 
 4555      44455343 
 4556              	.LASF62:
 4557 02bf 63757272 		.ascii	"currentInterfacesNum\000"
 4557      656E7449 
 4557      6E746572 
 4557      66616365 
 4557      734E756D 
 4558              	.LASF58:
 4559 02d4 55534246 		.ascii	"USBFS_ConfigAltChanged\000"
 4559      535F436F 
 4559      6E666967 
 4559      416C7443 
 4559      68616E67 
 4560              	.LASF34:
ARM GAS  C:\DOCUME~1\ADMINI~1\LOCALS~1\Temp\ccmk5fwz.s 			page 105


 4561 02eb 545F5553 		.ascii	"T_USBFS_XFER_STATUS_BLOCK\000"
 4561      4246535F 
 4561      58464552 
 4561      5F535441 
 4561      5455535F 
 4562              	.LASF67:
 4563 0305 696E7465 		.ascii	"interfaceNum\000"
 4563      72666163 
 4563      654E756D 
 4563      00
 4564              	.LASF68:
 4565 0312 55534246 		.ascii	"USBFS_DEVICE0_DESCR\000"
 4565      535F4445 
 4565      56494345 
 4565      305F4445 
 4565      53435200 
 4566              	.LASF11:
 4567 0326 666C6F61 		.ascii	"float\000"
 4567      7400
 4568              	.LASF60:
 4569 032c 55534246 		.ascii	"USBFS_GetConfigTablePtr\000"
 4569      535F4765 
 4569      74436F6E 
 4569      66696754 
 4569      61626C65 
 4570              	.LASF16:
 4571 0344 61706945 		.ascii	"apiEpState\000"
 4571      70537461 
 4571      746500
 4572              	.LASF82:
 4573 034f 55534246 		.ascii	"USBFS_EP\000"
 4573      535F4550 
 4573      00
 4574              	.LASF44:
 4575 0358 70537472 		.ascii	"pStr\000"
 4575      00
 4576              	.LASF50:
 4577 035d 64657363 		.ascii	"descr\000"
 4577      7200
 4578              	.LASF1:
 4579 0363 756E7369 		.ascii	"unsigned char\000"
 4579      676E6564 
 4579      20636861 
 4579      7200
 4580              	.LASF26:
 4581 0371 5F555342 		.ascii	"_USBFS_EpSettingsBlock\000"
 4581      46535F45 
 4581      70536574 
 4581      74696E67 
 4581      73426C6F 
 4582              	.LASF2:
 4583 0388 73686F72 		.ascii	"short int\000"
 4583      7420696E 
 4583      7400
 4584              	.LASF39:
 4585 0392 545F5553 		.ascii	"T_USBFS_TD\000"
 4585      4246535F 
ARM GAS  C:\DOCUME~1\ADMINI~1\LOCALS~1\Temp\ccmk5fwz.s 			page 106


 4585      544400
 4586              	.LASF31:
 4587 039d 5F555342 		.ascii	"_USBFS_XferStatusBlock\000"
 4587      46535F58 
 4587      66657253 
 4587      74617475 
 4587      73426C6F 
 4588              	.LASF89:
 4589 03b4 2E5C4765 		.ascii	".\\Generated_Source\\PSoC5\\USBFS_std.c\000"
 4589      6E657261 
 4589      7465645F 
 4589      536F7572 
 4589      63655C50 
 4590              	.LASF75:
 4591 03d9 55534246 		.ascii	"USBFS_interfaceSetting\000"
 4591      535F696E 
 4591      74657266 
 4591      61636553 
 4591      65747469 
 4592              	.LASF24:
 4593 03f0 545F5553 		.ascii	"T_USBFS_EP_CTL_BLOCK\000"
 4593      4246535F 
 4593      45505F43 
 4593      544C5F42 
 4593      4C4F434B 
 4594              	.LASF71:
 4595 0405 55534246 		.ascii	"USBFS_device\000"
 4595      535F6465 
 4595      76696365 
 4595      00
 4596              	.LASF28:
 4597 0412 61747472 		.ascii	"attributes\000"
 4597      69627574 
 4597      657300
 4598              	.LASF91:
 4599 041d 55534246 		.ascii	"USBFS_GetDeviceTablePtr\000"
 4599      535F4765 
 4599      74446576 
 4599      69636554 
 4599      61626C65 
 4600              	.LASF27:
 4601 0435 616C7453 		.ascii	"altSetting\000"
 4601      65747469 
 4601      6E6700
 4602              	.LASF14:
 4603 0440 63686172 		.ascii	"char\000"
 4603      00
 4604              	.LASF22:
 4605 0445 62756666 		.ascii	"bufferSize\000"
 4605      65725369 
 4605      7A6500
 4606              	.LASF43:
 4607 0450 72657175 		.ascii	"requestHandled\000"
 4607      65737448 
 4607      616E646C 
 4607      656400
 4608              	.LASF21:
ARM GAS  C:\DOCUME~1\ADMINI~1\LOCALS~1\Temp\ccmk5fwz.s 			page 107


 4609 045f 62756666 		.ascii	"buffOffset\000"
 4609      4F666673 
 4609      657400
 4610              	.LASF13:
 4611 046a 63686172 		.ascii	"char8\000"
 4611      3800
 4612              	.LASF57:
 4613 0470 70446573 		.ascii	"pDescr\000"
 4613      637200
 4614              	.LASF25:
 4615 0477 5F555342 		.ascii	"_USBFS_EpCtlBlock\000"
 4615      46535F45 
 4615      7043746C 
 4615      426C6F63 
 4615      6B00
 4616              	.LASF78:
 4617 0489 55534246 		.ascii	"USBFS_deviceStatus\000"
 4617      535F6465 
 4617      76696365 
 4617      53746174 
 4617      757300
 4618              	.LASF76:
 4619 049c 55534246 		.ascii	"USBFS_interfaceSetting_last\000"
 4619      535F696E 
 4619      74657266 
 4619      61636553 
 4619      65747469 
 4620              	.LASF33:
 4621 04b8 6C656E67 		.ascii	"length\000"
 4621      746800
 4622              	.LASF45:
 4623 04bf 6E537472 		.ascii	"nStr\000"
 4623      00
 4624              	.LASF53:
 4625 04c4 65705F74 		.ascii	"ep_type\000"
 4625      79706500 
 4626              	.LASF56:
 4627 04cc 6375725F 		.ascii	"cur_ep\000"
 4627      657000
 4628              	.LASF84:
 4629 04d3 55534246 		.ascii	"USBFS_idSerialNumberStringDescriptor\000"
 4629      535F6964 
 4629      53657269 
 4629      616C4E75 
 4629      6D626572 
 4630              	.LASF32:
 4631 04f8 73746174 		.ascii	"status\000"
 4631      757300
 4632              	.LASF29:
 4633 04ff 624D6973 		.ascii	"bMisc\000"
 4633      6300
 4634              	.LASF87:
 4635 0505 55534246 		.ascii	"USBFS_snStringConfirm\000"
 4635      535F736E 
 4635      53747269 
 4635      6E67436F 
 4635      6E666972 
ARM GAS  C:\DOCUME~1\ADMINI~1\LOCALS~1\Temp\ccmk5fwz.s 			page 108


 4636              	.LASF79:
 4637 051b 55534246 		.ascii	"USBFS_interfaceStatus\000"
 4637      535F696E 
 4637      74657266 
 4637      61636553 
 4637      74617475 
 4638              	.LASF48:
 4639 0531 55534246 		.ascii	"USBFS_ReadDieID\000"
 4639      535F5265 
 4639      61644469 
 4639      65494400 
 4640              	.LASF35:
 4641 0541 5F555342 		.ascii	"_USBFS_Td\000"
 4641      46535F54 
 4641      6400
 4642              	.LASF59:
 4643 054b 55534246 		.ascii	"USBFS_HandleStandardRqst\000"
 4643      535F4861 
 4643      6E646C65 
 4643      5374616E 
 4643      64617264 
 4644              	.LASF49:
 4645 0564 736E5374 		.ascii	"snString\000"
 4645      72696E67 
 4645      00
 4646              	.LASF90:
 4647 056d 5C5C7073 		.ascii	"\\\\psf\\Home\\Desktop\\PSOC5LP dev\\non-boot-bit-s"
 4647      665C486F 
 4647      6D655C44 
 4647      65736B74 
 4647      6F705C50 
 4648 059a 68696674 		.ascii	"hift-CY8C5667\\PioneerKit_P5LP_USB_Audio\\PioneerKi"
 4648      2D435938 
 4648      43353636 
 4648      375C5069 
 4648      6F6E6565 
 4649 05cb 745F5035 		.ascii	"t_P5LP_USB_Audio.cydsn\000"
 4649      4C505F55 
 4649      53425F41 
 4649      7564696F 
 4649      2E637964 
 4650              	.LASF42:
 4651 05e2 545F5553 		.ascii	"T_USBFS_LUT\000"
 4651      4246535F 
 4651      4C555400 
 4652              		.ident	"GCC: (Sourcery G++ Lite 2010q1-188) 4.4.1"
