ARM GAS  C:\DOCUME~1\ADMINI~1\LOCALS~1\Temp\ccFLSOvL.s 			page 1


   1              		.syntax unified
   2              		.cpu cortex-m3
   3              		.fpu softvfp
   4              		.eabi_attribute 20, 1
   5              		.eabi_attribute 21, 1
   6              		.eabi_attribute 23, 3
   7              		.eabi_attribute 24, 1
   8              		.eabi_attribute 25, 1
   9              		.eabi_attribute 26, 1
  10              		.eabi_attribute 30, 6
  11              		.eabi_attribute 18, 4
  12              		.thumb
  13              		.file	"USBInterface.c"
  20 0000 E1000000 		.text
  20      02005B00 
  20      00000201 
  20      FB0E0D00 
  20      01010101 
  21              	.Ltext0:
  22              		.cfi_sections	.debug_frame
  23              		.global	usbActivityCounter
  24              		.bss
  25              		.type	usbActivityCounter, %object
  26              		.size	usbActivityCounter, 1
  27              	usbActivityCounter:
  28 0000 00       		.space	1
  29              		.global	usbMiniBActive
  30              		.type	usbMiniBActive, %object
  31              		.size	usbMiniBActive, 1
  32              	usbMiniBActive:
  33 0001 00       		.space	1
  34              		.global	USBDeviceState
  35              		.type	USBDeviceState, %object
  36              		.size	USBDeviceState, 1
  37              	USBDeviceState:
  38 0002 00       		.space	1
  39              		.comm	outRam,288,4
  40              		.comm	inRam,192,4
  41              		.comm	inCnt,2,2
  42              		.global	altSetting
  43              		.data
  44              		.align	2
  45              		.type	altSetting, %object
  46              		.size	altSetting, 2
  47              	altSetting:
  48 0000 FF       		.byte	-1
  49 0001 FF       		.byte	-1
  50 0002 0000     		.section	.text.ServiceUSB,"ax",%progbits
  51              		.align	2
  52              		.global	ServiceUSB
  53              		.thumb
ARM GAS  C:\DOCUME~1\ADMINI~1\LOCALS~1\Temp\ccFLSOvL.s 			page 2


  54              		.thumb_func
  55              		.type	ServiceUSB, %function
  56              	ServiceUSB:
  57              	.LFB29:
  58              		.file 1 ".\\USBInterface.c"
   1:.\USBInterface.c **** /*******************************************************************************
   2:.\USBInterface.c **** * File Name: USBInterface.c
   3:.\USBInterface.c **** *
   4:.\USBInterface.c **** * Version 1.0
   5:.\USBInterface.c **** *
   6:.\USBInterface.c **** * Description: This file contains routines for handling PC/Mac/any USB Host
   7:.\USBInterface.c **** *              USB interface requests.
   8:.\USBInterface.c **** *
   9:.\USBInterface.c **** ********************************************************************************
  10:.\USBInterface.c **** * Copyright (2008-2013), Cypress Semiconductor Corporation.
  11:.\USBInterface.c **** ********************************************************************************
  12:.\USBInterface.c **** * This software is owned by Cypress Semiconductor Corporation (Cypress) and is
  13:.\USBInterface.c **** * protected by and subject to worldwide patent protection (United States and
  14:.\USBInterface.c **** * foreign), United States copyright laws and international treaty provisions.
  15:.\USBInterface.c **** * Cypress hereby grants to licensee a personal, non-exclusive, non-transferable
  16:.\USBInterface.c **** * license to copy, use, modify, create derivative works of, and compile the
  17:.\USBInterface.c **** * Cypress Source Code and derivative works for the sole purpose of creating
  18:.\USBInterface.c **** * custom software in support of licensee product to be used only in conjunction
  19:.\USBInterface.c **** * with a Cypress integrated circuit as specified in the applicable agreement.
  20:.\USBInterface.c **** * Any reproduction, modification, translation, compilation, or representation of
  21:.\USBInterface.c **** * this software except as specified above is prohibited without the express
  22:.\USBInterface.c **** * written permission of Cypress.
  23:.\USBInterface.c **** *
  24:.\USBInterface.c **** * Disclaimer: CYPRESS MAKES NO WARRANTY OF ANY KIND, EXPRESS OR IMPLIED, WITH
  25:.\USBInterface.c **** * REGARD TO THIS MATERIAL, INCLUDING, BUT NOT LIMITED TO, THE IMPLIED
  26:.\USBInterface.c **** * WARRANTIES OF MERCHANTABILITY AND FITNESS FOR A PARTICULAR PURPOSE.
  27:.\USBInterface.c **** * Cypress reserves the right to make changes without further notice to the
  28:.\USBInterface.c **** * materials described herein. Cypress does not assume any liability arising out
  29:.\USBInterface.c **** * of the application or use of any product or circuit described herein. Cypress
  30:.\USBInterface.c **** * does not authorize its products for use as critical components in life-support
  31:.\USBInterface.c **** * systems where a malfunction or failure may reasonably be expected to result in
  32:.\USBInterface.c **** * significant injury to the user. The inclusion of Cypress' product in a life-
  33:.\USBInterface.c **** * support systems application implies that the manufacturer assumes all risk of
  34:.\USBInterface.c **** * such use and in doing so indemnifies Cypress against all charges. Use may be
  35:.\USBInterface.c **** * limited by and subject to the applicable Cypress software license agreement.
  36:.\USBInterface.c **** *******************************************************************************/
  37:.\USBInterface.c **** #include <Application.h>
  38:.\USBInterface.c **** #include <AudioControl.h>
  39:.\USBInterface.c **** #include <Configuration.h>
  40:.\USBInterface.c **** #include <device.h>
  41:.\USBInterface.c **** #include <USBInterface.h>
  42:.\USBInterface.c **** extern volatile uint8 USBFS_interfaceSetting[];
  43:.\USBInterface.c **** extern CYBIT lowPowerIdle;
  44:.\USBInterface.c **** 
  45:.\USBInterface.c **** extern uint8 USBFS_initVar;
  46:.\USBInterface.c **** extern uint8 playlistControlReport;
  47:.\USBInterface.c **** extern CYBIT outPlaying;
  48:.\USBInterface.c **** extern CYBIT inPlaying;
  49:.\USBInterface.c **** 
  50:.\USBInterface.c **** #ifdef WINDOWS7_WORKAROUND
  51:.\USBInterface.c **** extern volatile uint8 USBFS_configurationChanged;
  52:.\USBInterface.c **** void USBFS_Config(uint8 clearAltSetting) CYREENTRANT;
ARM GAS  C:\DOCUME~1\ADMINI~1\LOCALS~1\Temp\ccFLSOvL.s 			page 3


  53:.\USBInterface.c **** #endif
  54:.\USBInterface.c **** 
  55:.\USBInterface.c **** extern CYBIT codecInit;  
  56:.\USBInterface.c **** 
  57:.\USBInterface.c **** uint8 usbActivityCounter = 0;
  58:.\USBInterface.c **** CYBIT usbMiniBActive = FALSE;
  59:.\USBInterface.c **** uint8 USBDeviceState = USB_INTERFACE_INACTIVE;
  60:.\USBInterface.c **** 
  61:.\USBInterface.c **** #if(USBFS_EP_MM == USBFS__EP_DMAAUTO) 
  62:.\USBInterface.c ****     #ifndef ENABLE_DIGITAL_AUDIO_IN_ONLY
  63:.\USBInterface.c ****     uint8 outRam[OUT_AUDIOMAXPKT];
  64:.\USBInterface.c ****     #endif
  65:.\USBInterface.c ****   
  66:.\USBInterface.c ****     #ifndef ENABLE_DIGITAL_AUDIO_OUT_ONLY
  67:.\USBInterface.c ****     uint8 inRam[IN_AUDIOMAXPKT];
  68:.\USBInterface.c ****     uint16 inCnt;
  69:.\USBInterface.c ****     #endif
  70:.\USBInterface.c **** #endif
  71:.\USBInterface.c **** 
  72:.\USBInterface.c **** uint8 altSetting[NO_OF_AUDIO_STREAM_INTERFACE] = {0xFF, 0xFF};
  73:.\USBInterface.c **** 
  74:.\USBInterface.c **** /*******************************************************************************
  75:.\USBInterface.c **** * Function Name: ServiceUSB
  76:.\USBInterface.c **** ********************************************************************************
  77:.\USBInterface.c **** * Summary: This routine performs tasks that should be done soon after USB 
  78:.\USBInterface.c **** *          enumeration is completed (configure DMA, initialize state machine etc).
  79:.\USBInterface.c **** *          When the USB configuration is changed, this routine reinitializes all
  80:.\USBInterface.c **** *          the USB endpoints as required by the application.       
  81:.\USBInterface.c **** *
  82:.\USBInterface.c **** * Parameters:
  83:.\USBInterface.c **** *  void
  84:.\USBInterface.c **** *
  85:.\USBInterface.c **** * Return:
  86:.\USBInterface.c **** *  void
  87:.\USBInterface.c **** *
  88:.\USBInterface.c **** *******************************************************************************/
  89:.\USBInterface.c **** void ServiceUSB(void)
  90:.\USBInterface.c **** {
  59              		.loc 1 90 0
  60              		.cfi_startproc
  61              		@ args = 0, pretend = 0, frame = 8
  62              		@ frame_needed = 1, uses_anonymous_args = 0
  63 0000 90B5     		push	{r4, r7, lr}
  64              	.LCFI0:
  65              		.cfi_def_cfa_offset 12
  66 0002 83B0     		sub	sp, sp, #12
  67              	.LCFI1:
  68              		.cfi_def_cfa_offset 24
  69 0004 00AF     		add	r7, sp, #0
  70              		.cfi_offset 14, -4
  71              		.cfi_offset 7, -8
  72              		.cfi_offset 4, -12
  73              	.LCFI2:
  74              		.cfi_def_cfa_register 7
  91:.\USBInterface.c ****     
  92:.\USBInterface.c **** 	if(USB_INTERFACE_INACTIVE == USBDeviceState)
  75              		.loc 1 92 0
ARM GAS  C:\DOCUME~1\ADMINI~1\LOCALS~1\Temp\ccFLSOvL.s 			page 4


  76 0006 40F20003 		movw	r3, #:lower16:USBDeviceState
  77 000a C0F20003 		movt	r3, #:upper16:USBDeviceState
  78 000e 1B78     		ldrb	r3, [r3, #0]	@ zero_extendqisi2
  79 0010 002B     		cmp	r3, #0
  80 0012 06D1     		bne	.L2
  93:.\USBInterface.c ****     {
  94:.\USBInterface.c ****         USBDeviceState = USB_INIT_AFTER_ENUMERATION_REQUIRED;
  81              		.loc 1 94 0
  82 0014 40F20003 		movw	r3, #:lower16:USBDeviceState
  83 0018 C0F20003 		movt	r3, #:upper16:USBDeviceState
  84 001c 4FF00102 		mov	r2, #1
  85 0020 1A70     		strb	r2, [r3, #0]
  86              	.L2:
  95:.\USBInterface.c ****     }
  96:.\USBInterface.c **** 	
  97:.\USBInterface.c **** 	/* Initialization sequence for every USB host enumeration event */
  98:.\USBInterface.c ****     if(USBDeviceState == USB_INIT_AFTER_ENUMERATION_REQUIRED)
  87              		.loc 1 98 0
  88 0022 40F20003 		movw	r3, #:lower16:USBDeviceState
  89 0026 C0F20003 		movt	r3, #:upper16:USBDeviceState
  90 002a 1B78     		ldrb	r3, [r3, #0]	@ zero_extendqisi2
  91 002c 012B     		cmp	r3, #1
  92 002e 38D1     		bne	.L3
  93              	.LBB2:
  99:.\USBInterface.c ****     {
 100:.\USBInterface.c ****         uint16 index = 0;
  94              		.loc 1 100 0
  95 0030 4FF00003 		mov	r3, #0
  96 0034 FB80     		strh	r3, [r7, #6]	@ movhi
 101:.\USBInterface.c ****         
 102:.\USBInterface.c ****         USBDeviceState = USB_INIT_AFTER_ENUMERATION_COMPLETED;
  97              		.loc 1 102 0
  98 0036 40F20003 		movw	r3, #:lower16:USBDeviceState
  99 003a C0F20003 		movt	r3, #:upper16:USBDeviceState
 100 003e 4FF00202 		mov	r2, #2
 101 0042 1A70     		strb	r2, [r3, #0]
 103:.\USBInterface.c ****         
 104:.\USBInterface.c ****         #if(USBFS_EP_MM == USBFS__EP_DMAAUTO)
 105:.\USBInterface.c ****             
 106:.\USBInterface.c **** 			for(index=0; index< OUT_AUDIOMAXPKT; index++)
 102              		.loc 1 106 0
 103 0044 4FF00003 		mov	r3, #0
 104 0048 FB80     		strh	r3, [r7, #6]	@ movhi
 105 004a 0BE0     		b	.L4
 106              	.L5:
 107:.\USBInterface.c ****             {
 108:.\USBInterface.c ****                 #ifndef ENABLE_DIGITAL_AUDIO_IN_ONLY
 109:.\USBInterface.c ****                 outRam[index] = 0;
 107              		.loc 1 109 0
 108 004c FA88     		ldrh	r2, [r7, #6]
 109 004e 40F20003 		movw	r3, #:lower16:outRam
 110 0052 C0F20003 		movt	r3, #:upper16:outRam
 111 0056 4FF00001 		mov	r1, #0
 112 005a 9954     		strb	r1, [r3, r2]
 113              		.loc 1 106 0
 114 005c FB88     		ldrh	r3, [r7, #6]	@ movhi
 115 005e 03F10103 		add	r3, r3, #1
ARM GAS  C:\DOCUME~1\ADMINI~1\LOCALS~1\Temp\ccFLSOvL.s 			page 5


 116 0062 FB80     		strh	r3, [r7, #6]	@ movhi
 117              	.L4:
 118 0064 FA88     		ldrh	r2, [r7, #6]
 119 0066 40F21F13 		movw	r3, #287
 120 006a 9A42     		cmp	r2, r3
 121 006c EED9     		bls	.L5
 110:.\USBInterface.c ****                 #endif
 111:.\USBInterface.c ****             }
 112:.\USBInterface.c **** 			
 113:.\USBInterface.c **** 			for(index=0; index< IN_AUDIOMAXPKT; index++)
 122              		.loc 1 113 0
 123 006e 4FF00003 		mov	r3, #0
 124 0072 FB80     		strh	r3, [r7, #6]	@ movhi
 125 0074 0BE0     		b	.L6
 126              	.L7:
 114:.\USBInterface.c ****             {
 115:.\USBInterface.c ****                 #ifndef ENABLE_DIGITAL_AUDIO_OUT_ONLY
 116:.\USBInterface.c ****                 inRam[index] = 0;
 127              		.loc 1 116 0
 128 0076 FA88     		ldrh	r2, [r7, #6]
 129 0078 40F20003 		movw	r3, #:lower16:inRam
 130 007c C0F20003 		movt	r3, #:upper16:inRam
 131 0080 4FF00001 		mov	r1, #0
 132 0084 9954     		strb	r1, [r3, r2]
 133              		.loc 1 113 0
 134 0086 FB88     		ldrh	r3, [r7, #6]	@ movhi
 135 0088 03F10103 		add	r3, r3, #1
 136 008c FB80     		strh	r3, [r7, #6]	@ movhi
 137              	.L6:
 138 008e FB88     		ldrh	r3, [r7, #6]
 139 0090 BF2B     		cmp	r3, #191
 140 0092 F0D9     		bls	.L7
 117:.\USBInterface.c ****                 #endif                
 118:.\USBInterface.c ****             }
 119:.\USBInterface.c ****             
 120:.\USBInterface.c **** 			#ifndef ENABLE_DIGITAL_AUDIO_OUT_ONLY
 121:.\USBInterface.c ****             inCnt = IN_AUDIOMAXPKT;
 141              		.loc 1 121 0
 142 0094 40F20003 		movw	r3, #:lower16:inCnt
 143 0098 C0F20003 		movt	r3, #:upper16:inCnt
 144 009c 4FF0C002 		mov	r2, #192
 145 00a0 1A80     		strh	r2, [r3, #0]	@ movhi
 146              	.L3:
 147              	.LBE2:
 122:.\USBInterface.c ****             #endif
 123:.\USBInterface.c ****         #endif
 124:.\USBInterface.c ****         
 125:.\USBInterface.c **** 		/* USER_CODE: [USB enumeration] placeholder for initializing custom user code after the USB host 
 126:.\USBInterface.c ****          * accessory. This routine will be called once per accessory connection after the host issu
 127:.\USBInterface.c ****          * request */
 128:.\USBInterface.c ****     }
 129:.\USBInterface.c ****     
 130:.\USBInterface.c ****    
 131:.\USBInterface.c ****     /* USBFS_IsConfigurationChanged() is a clear on read status update therefore, only one read of 
 132:.\USBInterface.c ****      * USBFS_IsConfigurationChanged() should ever exist in user code */
 133:.\USBInterface.c ****     if(USBFS_IsConfigurationChanged())
 148              		.loc 1 133 0
ARM GAS  C:\DOCUME~1\ADMINI~1\LOCALS~1\Temp\ccFLSOvL.s 			page 6


 149 00a2 FFF7FEFF 		bl	USBFS_IsConfigurationChanged
 150 00a6 0346     		mov	r3, r0
 151 00a8 002B     		cmp	r3, #0
 152 00aa 00F0A780 		beq	.L13
 134:.\USBInterface.c ****     {
 135:.\USBInterface.c ****         
 136:.\USBInterface.c **** 		#ifndef ENABLE_DIGITAL_AUDIO_IN_ONLY    
 137:.\USBInterface.c ****         /* Get Alternate setting */
 138:.\USBInterface.c ****         altSetting[AUDIO_OUT_INTERFACE_INDEX] = USBFS_GetInterfaceSetting(1); 
 153              		.loc 1 138 0
 154 00ae 4FF00100 		mov	r0, #1
 155 00b2 FFF7FEFF 		bl	USBFS_GetInterfaceSetting
 156 00b6 0346     		mov	r3, r0
 157 00b8 1A46     		mov	r2, r3
 158 00ba 40F20003 		movw	r3, #:lower16:altSetting
 159 00be C0F20003 		movt	r3, #:upper16:altSetting
 160 00c2 1A70     		strb	r2, [r3, #0]
 139:.\USBInterface.c ****         
 140:.\USBInterface.c ****         /* ByteSwap control register bit is set to 1 if alt setting 2 is selected so that  
 141:.\USBInterface.c ****          * Byte swap digital logic processes data as 16 bits. ByteSwap control register is set to 0
 142:.\USBInterface.c ****          * if alt setting 1 is selected and byte swap processes data as 24 bits */
 143:.\USBInterface.c ****         if (altSetting[AUDIO_OUT_INTERFACE_INDEX]==ALT_SETTING_ACTIVE_24_BIT)
 161              		.loc 1 143 0
 162 00c4 40F20003 		movw	r3, #:lower16:altSetting
 163 00c8 C0F20003 		movt	r3, #:upper16:altSetting
 164 00cc 1B78     		ldrb	r3, [r3, #0]	@ zero_extendqisi2
 165 00ce 022B     		cmp	r3, #2
 166 00d0 0DD1     		bne	.L9
 144:.\USBInterface.c ****         {
 145:.\USBInterface.c ****             
 146:.\USBInterface.c ****             ByteSwap_Tx_CONTROL_REG = ByteSwap_Tx_CONTROL_REG & (~ByteSwap_Tx_RES_CTRL_16);  
 167              		.loc 1 146 0
 168 00d2 46F27B53 		movw	r3, #:lower16:1073767803
 169 00d6 C4F20003 		movt	r3, #:upper16:1073767803
 170 00da 46F27B52 		movw	r2, #:lower16:1073767803
 171 00de C4F20002 		movt	r2, #:upper16:1073767803
 172 00e2 1278     		ldrb	r2, [r2, #0]
 173 00e4 D2B2     		uxtb	r2, r2
 174 00e6 02F0FD02 		and	r2, r2, #253
 175 00ea 1A70     		strb	r2, [r3, #0]
 176 00ec 14E0     		b	.L10
 177              	.L9:
 147:.\USBInterface.c ****         }
 148:.\USBInterface.c ****         else if (altSetting[AUDIO_OUT_INTERFACE_INDEX]==ALT_SETTING_ACTIVE_16_BIT)
 178              		.loc 1 148 0
 179 00ee 40F20003 		movw	r3, #:lower16:altSetting
 180 00f2 C0F20003 		movt	r3, #:upper16:altSetting
 181 00f6 1B78     		ldrb	r3, [r3, #0]	@ zero_extendqisi2
 182 00f8 012B     		cmp	r3, #1
 183 00fa 0DD1     		bne	.L10
 149:.\USBInterface.c ****         {
 150:.\USBInterface.c ****             
 151:.\USBInterface.c ****             ByteSwap_Tx_CONTROL_REG = ByteSwap_Tx_CONTROL_REG | ByteSwap_Tx_RES_CTRL_16;           
 184              		.loc 1 151 0
 185 00fc 46F27B53 		movw	r3, #:lower16:1073767803
 186 0100 C4F20003 		movt	r3, #:upper16:1073767803
 187 0104 46F27B52 		movw	r2, #:lower16:1073767803
ARM GAS  C:\DOCUME~1\ADMINI~1\LOCALS~1\Temp\ccFLSOvL.s 			page 7


 188 0108 C4F20002 		movt	r2, #:upper16:1073767803
 189 010c 1278     		ldrb	r2, [r2, #0]
 190 010e D2B2     		uxtb	r2, r2
 191 0110 42F00202 		orr	r2, r2, #2
 192 0114 D2B2     		uxtb	r2, r2
 193 0116 1A70     		strb	r2, [r3, #0]
 194              	.L10:
 152:.\USBInterface.c ****         }
 153:.\USBInterface.c ****         
 154:.\USBInterface.c ****         /* Arming the audio out EP if it is not zero bandwidth alt setting */
 155:.\USBInterface.c ****         if (altSetting[AUDIO_OUT_INTERFACE_INDEX]!= ALT_SETTING_ZERO_BANDWIDTH && 
 195              		.loc 1 155 0
 196 0118 40F20003 		movw	r3, #:lower16:altSetting
 197 011c C0F20003 		movt	r3, #:upper16:altSetting
 198 0120 1B78     		ldrb	r3, [r3, #0]	@ zero_extendqisi2
 199 0122 002B     		cmp	r3, #0
 200 0124 17D0     		beq	.L11
 156:.\USBInterface.c ****             (CY_GET_REG8(USBFS_SIE_EP1_CR0_PTR + ((AUDIO_OUT_ENDPOINT - USBFS_EP1) << USBFS_EPX_CNT
 201              		.loc 1 156 0
 202 0126 46F20E03 		movw	r3, #:lower16:1073766414
 203 012a C4F20003 		movt	r3, #:upper16:1073766414
 204 012e 1B78     		ldrb	r3, [r3, #0]
 205 0130 DBB2     		uxtb	r3, r3
 206 0132 03F00F03 		and	r3, r3, #15
 207              		.loc 1 155 0
 208 0136 012B     		cmp	r3, #1
 209 0138 0DD1     		bne	.L11
 157:.\USBInterface.c ****                                                                                     == USBFS_MODE_N
 158:.\USBInterface.c ****         {
 159:.\USBInterface.c ****             /* Init DMA configurations for audio OUT EP */
 160:.\USBInterface.c ****             USBFS_ReadOutEP(AUDIO_OUT_ENDPOINT, &outRam[0], OUT_AUDIOMAXPKT);
 210              		.loc 1 160 0
 211 013a 4FF00100 		mov	r0, #1
 212 013e 40F20001 		movw	r1, #:lower16:outRam
 213 0142 C0F20001 		movt	r1, #:upper16:outRam
 214 0146 4FF49072 		mov	r2, #288
 215 014a FFF7FEFF 		bl	USBFS_ReadOutEP
 161:.\USBInterface.c ****             USBFS_EnableOutEP(AUDIO_OUT_ENDPOINT);
 216              		.loc 1 161 0
 217 014e 4FF00100 		mov	r0, #1
 218 0152 FFF7FEFF 		bl	USBFS_EnableOutEP
 219              	.L11:
 162:.\USBInterface.c ****         }
 163:.\USBInterface.c ****         #endif
 164:.\USBInterface.c ****         
 165:.\USBInterface.c ****         #ifndef ENABLE_DIGITAL_AUDIO_OUT_ONLY
 166:.\USBInterface.c ****             #ifndef ENABLE_DIGITAL_AUDIO_IN_ONLY 
 167:.\USBInterface.c ****             if(altSetting[AUDIO_IN_INTERFACE_INDEX] != USBFS_GetInterfaceSetting(2))
 220              		.loc 1 167 0
 221 0156 40F20003 		movw	r3, #:lower16:altSetting
 222 015a C0F20003 		movt	r3, #:upper16:altSetting
 223 015e 5C78     		ldrb	r4, [r3, #1]	@ zero_extendqisi2
 224 0160 4FF00200 		mov	r0, #2
 225 0164 FFF7FEFF 		bl	USBFS_GetInterfaceSetting
 226 0168 0346     		mov	r3, r0
 227 016a 9C42     		cmp	r4, r3
 228 016c 3CD0     		beq	.L12
ARM GAS  C:\DOCUME~1\ADMINI~1\LOCALS~1\Temp\ccFLSOvL.s 			page 8


 168:.\USBInterface.c ****         {
 169:.\USBInterface.c ****                   altSetting[AUDIO_IN_INTERFACE_INDEX] = USBFS_GetInterfaceSetting(2);
 229              		.loc 1 169 0
 230 016e 4FF00200 		mov	r0, #2
 231 0172 FFF7FEFF 		bl	USBFS_GetInterfaceSetting
 232 0176 0346     		mov	r3, r0
 233 0178 1A46     		mov	r2, r3
 234 017a 40F20003 		movw	r3, #:lower16:altSetting
 235 017e C0F20003 		movt	r3, #:upper16:altSetting
 236 0182 5A70     		strb	r2, [r3, #1]
 170:.\USBInterface.c ****             #else
 171:.\USBInterface.c ****             if(altSetting[AUDIO_IN_INTERFACE_INDEX] != USBFS_GetInterfaceSetting(1))	
 172:.\USBInterface.c ****         {
 173:.\USBInterface.c ****                   altSetting[AUDIO_IN_INTERFACE_INDEX] = USBFS_GetInterfaceSetting(1);	
 174:.\USBInterface.c ****             #endif
 175:.\USBInterface.c ****             
 176:.\USBInterface.c ****             /* Arming the audio in EP if it is not zero bandwidth alt setting */
 177:.\USBInterface.c ****             if (altSetting[AUDIO_IN_INTERFACE_INDEX]!= ALT_SETTING_ZERO_BANDWIDTH &&
 237              		.loc 1 177 0
 238 0184 40F20003 		movw	r3, #:lower16:altSetting
 239 0188 C0F20003 		movt	r3, #:upper16:altSetting
 240 018c 5B78     		ldrb	r3, [r3, #1]	@ zero_extendqisi2
 241 018e 002B     		cmp	r3, #0
 242 0190 2AD0     		beq	.L12
 178:.\USBInterface.c ****                 (CY_GET_REG8(USBFS_SIE_EP1_CR0_PTR + ((AUDIO_IN_ENDPOINT - USBFS_EP1) << USBFS_EPX_
 243              		.loc 1 178 0
 244 0192 46F21E03 		movw	r3, #:lower16:1073766430
 245 0196 C4F20003 		movt	r3, #:upper16:1073766430
 246 019a 1B78     		ldrb	r3, [r3, #0]
 247 019c DBB2     		uxtb	r3, r3
 248 019e 03F00F03 		and	r3, r3, #15
 249              		.loc 1 177 0
 250 01a2 012B     		cmp	r3, #1
 251 01a4 20D1     		bne	.L12
 179:.\USBInterface.c ****                                                                                         == USBFS_MO
 180:.\USBInterface.c ****             {
 181:.\USBInterface.c ****                 /* Init DMA configurations for audio IN EP */  
 182:.\USBInterface.c ****                 inCnt = IN_AUDIOMAXPKT;
 252              		.loc 1 182 0
 253 01a6 40F20003 		movw	r3, #:lower16:inCnt
 254 01aa C0F20003 		movt	r3, #:upper16:inCnt
 255 01ae 4FF0C002 		mov	r2, #192
 256 01b2 1A80     		strh	r2, [r3, #0]	@ movhi
 183:.\USBInterface.c ****                 USBFS_LoadInEP(AUDIO_IN_ENDPOINT, &inRam[0], inCnt);
 257              		.loc 1 183 0
 258 01b4 40F20003 		movw	r3, #:lower16:inCnt
 259 01b8 C0F20003 		movt	r3, #:upper16:inCnt
 260 01bc 1B88     		ldrh	r3, [r3, #0]
 261 01be 4FF00200 		mov	r0, #2
 262 01c2 40F20001 		movw	r1, #:lower16:inRam
 263 01c6 C0F20001 		movt	r1, #:upper16:inRam
 264 01ca 1A46     		mov	r2, r3
 265 01cc FFF7FEFF 		bl	USBFS_LoadInEP
 184:.\USBInterface.c ****                 /* Pre-arm first audio IN request */
 185:.\USBInterface.c ****                 USBFS_LoadInEP(AUDIO_IN_ENDPOINT, USBFS_NULL, inCnt);
 266              		.loc 1 185 0
 267 01d0 40F20003 		movw	r3, #:lower16:inCnt
ARM GAS  C:\DOCUME~1\ADMINI~1\LOCALS~1\Temp\ccFLSOvL.s 			page 9


 268 01d4 C0F20003 		movt	r3, #:upper16:inCnt
 269 01d8 1B88     		ldrh	r3, [r3, #0]
 270 01da 4FF00200 		mov	r0, #2
 271 01de 4FF00001 		mov	r1, #0
 272 01e2 1A46     		mov	r2, r3
 273 01e4 FFF7FEFF 		bl	USBFS_LoadInEP
 274              	.L12:
 186:.\USBInterface.c ****             }
 187:.\USBInterface.c ****         }
 188:.\USBInterface.c ****         #endif
 189:.\USBInterface.c ****         
 190:.\USBInterface.c ****         /* Configure the HID input endpoint buffer for Mac/PC playlist control */
 191:.\USBInterface.c ****         USBFS_LoadInEP(MAC_PC_HID_CONTROL_ENDPOINT, &playlistControlReport, sizeof(playlistControlR
 275              		.loc 1 191 0
 276 01e8 4FF00400 		mov	r0, #4
 277 01ec 40F20001 		movw	r1, #:lower16:playlistControlReport
 278 01f0 C0F20001 		movt	r1, #:upper16:playlistControlReport
 279 01f4 4FF00102 		mov	r2, #1
 280 01f8 FFF7FEFF 		bl	USBFS_LoadInEP
 281              	.L13:
 192:.\USBInterface.c ****         
 193:.\USBInterface.c ****         /* USER_CODE: [USB configuration changed] Placeholder for adding additional USB endpoint in
 194:.\USBInterface.c ****          * when the host issues either a SET_INTERFACE or SET_CONFIGURATION request to the accessor
 195:.\USBInterface.c ****          * a SET_INTERFACE request from the host, the endpoint belonging to the alternate setting b
 196:.\USBInterface.c ****          * by the USB host is reset and must be reinitialized here for proper operation of the USB 
 197:.\USBInterface.c ****     }
 198:.\USBInterface.c **** }
 282              		.loc 1 198 0
 283 01fc 07F10C07 		add	r7, r7, #12
 284 0200 BD46     		mov	sp, r7
 285 0202 90BD     		pop	{r4, r7, pc}
 286              		.cfi_endproc
 287              	.LFE29:
 288              		.size	ServiceUSB, .-ServiceUSB
 289              		.section	.text.ServiceUSBSuspend,"ax",%progbits
 290              		.align	2
 291              		.global	ServiceUSBSuspend
 292              		.thumb
 293              		.thumb_func
 294              		.type	ServiceUSBSuspend, %function
 295              	ServiceUSBSuspend:
 296              	.LFB30:
 199:.\USBInterface.c **** 
 200:.\USBInterface.c **** /*******************************************************************************
 201:.\USBInterface.c **** * Function Name: ServiceUSBSuspend
 202:.\USBInterface.c **** ********************************************************************************
 203:.\USBInterface.c **** * Summary:
 204:.\USBInterface.c **** *       This function handles USB suspend event from USB host and forces PSoC 5LP 
 205:.\USBInterface.c **** *       to enter low power mode. Once the USB resume event is detected, PSoC 5LP 
 206:.\USBInterface.c **** *       wakes up and starts operating in normal mode.
 207:.\USBInterface.c **** *
 208:.\USBInterface.c **** * Parameters:
 209:.\USBInterface.c **** *  void
 210:.\USBInterface.c **** *
 211:.\USBInterface.c **** * Return:
 212:.\USBInterface.c **** *  void
 213:.\USBInterface.c **** *
ARM GAS  C:\DOCUME~1\ADMINI~1\LOCALS~1\Temp\ccFLSOvL.s 			page 10


 214:.\USBInterface.c **** *******************************************************************************/
 215:.\USBInterface.c **** #ifdef  HANDLE_USB_SUSPEND
 216:.\USBInterface.c **** void ServiceUSBSuspend(void)
 217:.\USBInterface.c **** {
 297              		.loc 1 217 0
 298              		.cfi_startproc
 299              		@ args = 0, pretend = 0, frame = 8
 300              		@ frame_needed = 1, uses_anonymous_args = 0
 301 0000 80B5     		push	{r7, lr}
 302              	.LCFI3:
 303              		.cfi_def_cfa_offset 8
 304 0002 82B0     		sub	sp, sp, #8
 305              	.LCFI4:
 306              		.cfi_def_cfa_offset 16
 307 0004 00AF     		add	r7, sp, #0
 308              		.cfi_offset 14, -4
 309              		.cfi_offset 7, -8
 310              	.LCFI5:
 311              		.cfi_def_cfa_register 7
 218:.\USBInterface.c ****     uint8 ledBlinkCnt = STATUS_LED_BLINK_COUNT;	
 312              		.loc 1 218 0
 313 0006 4FF00403 		mov	r3, #4
 314 000a FB71     		strb	r3, [r7, #7]
 219:.\USBInterface.c **** 	
 220:.\USBInterface.c **** 	if(! USBFS_initVar)
 315              		.loc 1 220 0
 316 000c 40F20003 		movw	r3, #:lower16:USBFS_initVar
 317 0010 C0F20003 		movt	r3, #:upper16:USBFS_initVar
 318 0014 1B78     		ldrb	r3, [r3, #0]	@ zero_extendqisi2
 319 0016 002B     		cmp	r3, #0
 320 0018 78D0     		beq	.L24
 321              	.L15:
 221:.\USBInterface.c ****     {
 222:.\USBInterface.c ****       return;
 223:.\USBInterface.c ****     }
 224:.\USBInterface.c ****   
 225:.\USBInterface.c ****     /* Check if the host is active */
 226:.\USBInterface.c ****     if(USBFS_bCheckActivity() != 0 ) 
 322              		.loc 1 226 0
 323 001a FFF7FEFF 		bl	USBFS_CheckActivity
 324 001e 0346     		mov	r3, r0
 325 0020 002B     		cmp	r3, #0
 326 0022 07D0     		beq	.L17
 227:.\USBInterface.c ****     {
 228:.\USBInterface.c ****       usbActivityCounter = 0;
 327              		.loc 1 228 0
 328 0024 40F20003 		movw	r3, #:lower16:usbActivityCounter
 329 0028 C0F20003 		movt	r3, #:upper16:usbActivityCounter
 330 002c 4FF00002 		mov	r2, #0
 331 0030 1A70     		strb	r2, [r3, #0]
 332 0032 0CE0     		b	.L18
 333              	.L17:
 229:.\USBInterface.c ****     } 
 230:.\USBInterface.c ****     else 
 231:.\USBInterface.c ****     {
 232:.\USBInterface.c ****       usbActivityCounter++;
 334              		.loc 1 232 0
ARM GAS  C:\DOCUME~1\ADMINI~1\LOCALS~1\Temp\ccFLSOvL.s 			page 11


 335 0034 40F20003 		movw	r3, #:lower16:usbActivityCounter
 336 0038 C0F20003 		movt	r3, #:upper16:usbActivityCounter
 337 003c 1B78     		ldrb	r3, [r3, #0]	@ zero_extendqisi2
 338 003e 03F10103 		add	r3, r3, #1
 339 0042 DAB2     		uxtb	r2, r3
 340 0044 40F20003 		movw	r3, #:lower16:usbActivityCounter
 341 0048 C0F20003 		movt	r3, #:upper16:usbActivityCounter
 342 004c 1A70     		strb	r2, [r3, #0]
 343              	.L18:
 233:.\USBInterface.c ****     }
 234:.\USBInterface.c ****         
 235:.\USBInterface.c ****     /* USB Suspend event is lack of greater than 3 consecutive SOF's */
 236:.\USBInterface.c ****     if(usbActivityCounter > USB_SUSPEND_TIME_TICKS )
 344              		.loc 1 236 0
 345 004e 40F20003 		movw	r3, #:lower16:usbActivityCounter
 346 0052 C0F20003 		movt	r3, #:upper16:usbActivityCounter
 347 0056 1B78     		ldrb	r3, [r3, #0]	@ zero_extendqisi2
 348 0058 052B     		cmp	r3, #5
 349 005a 58D9     		bls	.L23
 237:.\USBInterface.c ****     {
 238:.\USBInterface.c ****         /* The debounce delay is taken care by increasing the suspend time to 40ms (5 * 8ms) */    
 239:.\USBInterface.c ****         if(IsUSBConfigured()) 
 350              		.loc 1 239 0
 351 005c FFF7FEFF 		bl	USBFS_GetConfiguration
 352 0060 0346     		mov	r3, r0
 353 0062 002B     		cmp	r3, #0
 354 0064 4AD0     		beq	.L19
 240:.\USBInterface.c ****         {  
 241:.\USBInterface.c ****             /* USER_CODE: [USB suspend] Placeholder for configuring ALL the additional components a
 242:.\USBInterface.c ****              * sleep mode before calling USB suspend/PSoC 3 sleep API */
 243:.\USBInterface.c ****                       
 244:.\USBInterface.c ****             /* If the accessory is not in low power mode, enter low power mode on seeing a USB susp
 245:.\USBInterface.c ****             if(!lowPowerIdle) 
 355              		.loc 1 245 0
 356 0066 40F20003 		movw	r3, #:lower16:lowPowerIdle
 357 006a C0F20003 		movt	r3, #:upper16:lowPowerIdle
 358 006e 1B78     		ldrb	r3, [r3, #0]	@ zero_extendqisi2
 359 0070 002B     		cmp	r3, #0
 360 0072 08D1     		bne	.L20
 246:.\USBInterface.c ****             {
 247:.\USBInterface.c ****                 lowPowerIdle = TRUE;
 361              		.loc 1 247 0
 362 0074 40F20003 		movw	r3, #:lower16:lowPowerIdle
 363 0078 C0F20003 		movt	r3, #:upper16:lowPowerIdle
 364 007c 4FF00102 		mov	r2, #1
 365 0080 1A70     		strb	r2, [r3, #0]
 248:.\USBInterface.c ****                 StopAudioComponents();             /* Changes to 24 MHz IMO for USB */             
 366              		.loc 1 248 0
 367 0082 FFF7FEFF 		bl	StopAudioComponents
 368              	.L20:
 249:.\USBInterface.c ****             }
 250:.\USBInterface.c ****             
 251:.\USBInterface.c **** 			#ifdef ENABLE_PDM 	
 252:.\USBInterface.c **** 		        PDM_CIC_Sleep();
 369              		.loc 1 252 0
 370 0086 FFF7FEFF 		bl	PDM_CIC_Sleep
 253:.\USBInterface.c **** 				Droop_Filter_ModifiedSleep();	
ARM GAS  C:\DOCUME~1\ADMINI~1\LOCALS~1\Temp\ccFLSOvL.s 			page 12


 371              		.loc 1 253 0
 372 008a FFF7FEFF 		bl	Droop_Filter_ModifiedSleep
 254:.\USBInterface.c **** 			#endif
 255:.\USBInterface.c **** 			
 256:.\USBInterface.c **** 			/* Blink the STATUS LED twice before entering suspend mode */
 257:.\USBInterface.c **** 			while(ledBlinkCnt)					   		
 373              		.loc 1 257 0
 374 008e 10E0     		b	.L21
 375              	.L22:
 258:.\USBInterface.c **** 			{
 259:.\USBInterface.c **** 				CyDelay(100);
 376              		.loc 1 259 0
 377 0090 4FF06400 		mov	r0, #100
 378 0094 FFF7FEFF 		bl	CyDelay
 260:.\USBInterface.c **** 				PSOC_STATUS_LED_Write(~PSOC_STATUS_LED_Read());
 379              		.loc 1 260 0
 380 0098 FFF7FEFF 		bl	PSOC_STATUS_LED_Read
 381 009c 0346     		mov	r3, r0
 382 009e 6FEA0303 		mvn	r3, r3
 383 00a2 DBB2     		uxtb	r3, r3
 384 00a4 1846     		mov	r0, r3
 385 00a6 FFF7FEFF 		bl	PSOC_STATUS_LED_Write
 261:.\USBInterface.c **** 				ledBlinkCnt--;
 386              		.loc 1 261 0
 387 00aa FB79     		ldrb	r3, [r7, #7]
 388 00ac 03F1FF33 		add	r3, r3, #-1
 389 00b0 FB71     		strb	r3, [r7, #7]
 390              	.L21:
 391              		.loc 1 257 0
 392 00b2 FB79     		ldrb	r3, [r7, #7]	@ zero_extendqisi2
 393 00b4 002B     		cmp	r3, #0
 394 00b6 EBD1     		bne	.L22
 262:.\USBInterface.c **** 			}
 263:.\USBInterface.c **** 			
 264:.\USBInterface.c **** 			/* Turn off the regulator to reduce suspend mode current */    
 265:.\USBInterface.c **** //            CyPins_ClearPin(PSOC_CODEC_PWR_0);     /* Uncomment this line only if PSOC_CODEC_PWR 
 266:.\USBInterface.c ****    						
 267:.\USBInterface.c ****             USBFS_Suspend();
 395              		.loc 1 267 0
 396 00b8 FFF7FEFF 		bl	USBFS_Suspend
 268:.\USBInterface.c **** 			
 269:.\USBInterface.c **** 			#ifdef CODEC_I2C_SUPPORTED
 270:.\USBInterface.c **** 			I2C_Master_Sleep();                /* Configure I2C master block in sleep mode */ 
 271:.\USBInterface.c ****             #endif
 272:.\USBInterface.c **** 			
 273:.\USBInterface.c ****             CyPmSaveClocks();            
 397              		.loc 1 273 0
 398 00bc FFF7FEFF 		bl	CyPmSaveClocks
 274:.\USBInterface.c ****             CyPmSleep(PM_SLEEP_TIME_NONE, PM_SLEEP_SRC_PICU); /* PSoC 3 is in sleep mode */
 399              		.loc 1 274 0
 400 00c0 4FF00000 		mov	r0, #0
 401 00c4 4FF04001 		mov	r1, #64
 402 00c8 FFF7FEFF 		bl	CyPmSleep
 275:.\USBInterface.c ****             CyPmRestoreClocks();
 403              		.loc 1 275 0
 404 00cc FFF7FEFF 		bl	CyPmRestoreClocks
 276:.\USBInterface.c **** 			
ARM GAS  C:\DOCUME~1\ADMINI~1\LOCALS~1\Temp\ccFLSOvL.s 			page 13


 277:.\USBInterface.c **** 			USBFS_Resume();
 405              		.loc 1 277 0
 406 00d0 FFF7FEFF 		bl	USBFS_Resume
 278:.\USBInterface.c **** 			
 279:.\USBInterface.c **** 			#ifdef ENABLE_PDM 		
 280:.\USBInterface.c **** 		    	PDM_CIC_Wakeup();
 407              		.loc 1 280 0
 408 00d4 FFF7FEFF 		bl	PDM_CIC_Wakeup
 281:.\USBInterface.c **** 				Droop_Filter_ModifiedWakeup();
 409              		.loc 1 281 0
 410 00d8 FFF7FEFF 		bl	Droop_Filter_ModifiedWakeup
 282:.\USBInterface.c **** 			#endif
 283:.\USBInterface.c **** 			
 284:.\USBInterface.c **** 			#ifdef CODEC_I2C_SUPPORTED
 285:.\USBInterface.c **** 			I2C_Master_Wakeup();
 286:.\USBInterface.c **** 			#endif
 287:.\USBInterface.c **** 			
 288:.\USBInterface.c **** 			/* Turn ON the CODEC regulator after wake up */	
 289:.\USBInterface.c **** //            CyPins_SetPin(PSOC_CODEC_PWR_0);      /* Uncomment this line only if PSOC_CODEC_PWR p
 290:.\USBInterface.c ****            
 291:.\USBInterface.c ****             #ifdef WINDOWS7_WORKAROUND		
 292:.\USBInterface.c ****             if(USBFS_GetConfiguration() != 0)
 411              		.loc 1 292 0
 412 00dc FFF7FEFF 		bl	USBFS_GetConfiguration
 413 00e0 0346     		mov	r3, r0
 414 00e2 002B     		cmp	r3, #0
 415 00e4 0AD0     		beq	.L19
 293:.\USBInterface.c ****             {
 294:.\USBInterface.c ****                 USBFS_configurationChanged = USBFS_TRUE;
 416              		.loc 1 294 0
 417 00e6 40F20003 		movw	r3, #:lower16:USBFS_configurationChanged
 418 00ea C0F20003 		movt	r3, #:upper16:USBFS_configurationChanged
 419 00ee 4FF00102 		mov	r2, #1
 420 00f2 1A70     		strb	r2, [r3, #0]
 295:.\USBInterface.c ****                 USBFS_Config(USBFS_FALSE);
 421              		.loc 1 295 0
 422 00f4 4FF00000 		mov	r0, #0
 423 00f8 FFF7FEFF 		bl	USBFS_Config
 424              	.L19:
 296:.\USBInterface.c ****             }
 297:.\USBInterface.c ****             #endif
 298:.\USBInterface.c ****      
 299:.\USBInterface.c ****             /* USER_CODE: [USB wakeup] Placeholder for re-configuring ALL the additional components
 300:.\USBInterface.c ****              * wakeup mode after calling USB wakeup */
 301:.\USBInterface.c ****         }
 302:.\USBInterface.c ****         usbActivityCounter = 0;
 425              		.loc 1 302 0
 426 00fc 40F20003 		movw	r3, #:lower16:usbActivityCounter
 427 0100 C0F20003 		movt	r3, #:upper16:usbActivityCounter
 428 0104 4FF00002 		mov	r2, #0
 429 0108 1A70     		strb	r2, [r3, #0]
 430 010a 00E0     		b	.L23
 431              	.L24:
 432              		.loc 1 222 0
 433 010c 00BF     		nop
 434              	.L23:
 303:.\USBInterface.c **** 		/* After coming out of USB suspend, MIDI end point should be re-initialized */
ARM GAS  C:\DOCUME~1\ADMINI~1\LOCALS~1\Temp\ccFLSOvL.s 			page 14


 304:.\USBInterface.c ****     }
 305:.\USBInterface.c **** }
 435              		.loc 1 305 0
 436 010e 07F10807 		add	r7, r7, #8
 437 0112 BD46     		mov	sp, r7
 438 0114 80BD     		pop	{r7, pc}
 439              		.cfi_endproc
 440              	.LFE30:
 441              		.size	ServiceUSBSuspend, .-ServiceUSBSuspend
 442 0116 00BF     		.section	.text.HandleUSBHostInterface,"ax",%progbits
 443              		.align	2
 444              		.global	HandleUSBHostInterface
 445              		.thumb
 446              		.thumb_func
 447              		.type	HandleUSBHostInterface, %function
 448              	HandleUSBHostInterface:
 449              	.LFB31:
 306:.\USBInterface.c **** #endif
 307:.\USBInterface.c **** 
 308:.\USBInterface.c **** /****************f***************************************************************
 309:.\USBInterface.c **** * Function Name: HandleUSBHostInterface
 310:.\USBInterface.c **** ********************************************************************************
 311:.\USBInterface.c **** * Summary: Checks if USB Host is connected/disconnected and start the USB component
 312:.\USBInterface.c **** *
 313:.\USBInterface.c **** * Parameters:
 314:.\USBInterface.c **** *  void
 315:.\USBInterface.c **** *
 316:.\USBInterface.c **** * Return:
 317:.\USBInterface.c **** *  void
 318:.\USBInterface.c **** *
 319:.\USBInterface.c **** *******************************************************************************/
 320:.\USBInterface.c **** void HandleUSBHostInterface(void)
 321:.\USBInterface.c **** {
 450              		.loc 1 321 0
 451              		.cfi_startproc
 452              		@ args = 0, pretend = 0, frame = 0
 453              		@ frame_needed = 1, uses_anonymous_args = 0
 454 0000 80B5     		push	{r7, lr}
 455              	.LCFI6:
 456              		.cfi_def_cfa_offset 8
 457 0002 00AF     		add	r7, sp, #0
 458              		.cfi_offset 14, -4
 459              		.cfi_offset 7, -8
 460              	.LCFI7:
 461              		.cfi_def_cfa_register 7
 322:.\USBInterface.c ****     
 323:.\USBInterface.c ****     if(!USBFS_initVar)
 462              		.loc 1 323 0
 463 0004 40F20003 		movw	r3, #:lower16:USBFS_initVar
 464 0008 C0F20003 		movt	r3, #:upper16:USBFS_initVar
 465 000c 1B78     		ldrb	r3, [r3, #0]	@ zero_extendqisi2
 466 000e 002B     		cmp	r3, #0
 467 0010 13D1     		bne	.L27
 324:.\USBInterface.c ****     {  
 325:.\USBInterface.c ****         
 326:.\USBInterface.c **** 		/* Start the USB component when PC/Mac is connected */
 327:.\USBInterface.c ****         USBFS_Start(PC_MAC_AUDIO_WITH_VOLUME_DEVICE, USBFS_DWR_VDDD_OPERATION);
ARM GAS  C:\DOCUME~1\ADMINI~1\LOCALS~1\Temp\ccFLSOvL.s 			page 15


 468              		.loc 1 327 0
 469 0012 4FF00000 		mov	r0, #0
 470 0016 4FF00201 		mov	r1, #2
 471 001a FFF7FEFF 		bl	USBFS_Start
 328:.\USBInterface.c ****         USBDeviceState = USB_INIT_AFTER_ENUMERATION_REQUIRED;
 472              		.loc 1 328 0
 473 001e 40F20003 		movw	r3, #:lower16:USBDeviceState
 474 0022 C0F20003 		movt	r3, #:upper16:USBDeviceState
 475 0026 4FF00102 		mov	r2, #1
 476 002a 1A70     		strb	r2, [r3, #0]
 329:.\USBInterface.c ****         usbMiniBActive = TRUE;
 477              		.loc 1 329 0
 478 002c 40F20003 		movw	r3, #:lower16:usbMiniBActive
 479 0030 C0F20003 		movt	r3, #:upper16:usbMiniBActive
 480 0034 4FF00102 		mov	r2, #1
 481 0038 1A70     		strb	r2, [r3, #0]
 482              	.L27:
 330:.\USBInterface.c ****         
 331:.\USBInterface.c ****         /* USER_CODE: [USB Host connection] Placeholder for initializing components or external per
 332:.\USBInterface.c ****          * accessory is plugged into a USB Host (USB VBus = High) */
 333:.\USBInterface.c ****     }
 334:.\USBInterface.c **** 	
 335:.\USBInterface.c **** 		
 336:.\USBInterface.c **** }
 483              		.loc 1 336 0
 484 003a 80BD     		pop	{r7, pc}
 485              		.cfi_endproc
 486              	.LFE31:
 487              		.size	HandleUSBHostInterface, .-HandleUSBHostInterface
 488              		.text
 489              	.Letext0: