ARM GAS  C:\DOCUME~1\ADMINI~1\LOCALS~1\Temp\ccFLSOvL.s 			page 1


   1              		.syntax unified
   2              		.cpu cortex-m3
   3              		.fpu softvfp
   4              		.eabi_attribute 20, 1
   5              		.eabi_attribute 21, 1
   6              		.eabi_attribute 23, 3
   7              		.eabi_attribute 24, 1
   8              		.eabi_attribute 25, 1
   9              		.eabi_attribute 26, 1
  10              		.eabi_attribute 30, 6
  11              		.eabi_attribute 18, 4
  12              		.thumb
  13              		.file	"USBInterface.c"
  14              		.section	.debug_abbrev,"",%progbits
  15              	.Ldebug_abbrev0:
  16              		.section	.debug_info,"",%progbits
  17              	.Ldebug_info0:
  18              		.section	.debug_line,"",%progbits
  19              	.Ldebug_line0:
  20 0000 E1000000 		.text
  20      02005B00 
  20      00000201 
  20      FB0E0D00 
  20      01010101 
  21              	.Ltext0:
  22              		.cfi_sections	.debug_frame
  23              		.global	usbActivityCounter
  24              		.bss
  25              		.type	usbActivityCounter, %object
  26              		.size	usbActivityCounter, 1
  27              	usbActivityCounter:
  28 0000 00       		.space	1
  29              		.global	usbMiniBActive
  30              		.type	usbMiniBActive, %object
  31              		.size	usbMiniBActive, 1
  32              	usbMiniBActive:
  33 0001 00       		.space	1
  34              		.global	USBDeviceState
  35              		.type	USBDeviceState, %object
  36              		.size	USBDeviceState, 1
  37              	USBDeviceState:
  38 0002 00       		.space	1
  39              		.comm	outRam,288,4
  40              		.comm	inRam,192,4
  41              		.comm	inCnt,2,2
  42              		.global	altSetting
  43              		.data
  44              		.align	2
  45              		.type	altSetting, %object
  46              		.size	altSetting, 2
  47              	altSetting:
  48 0000 FF       		.byte	-1
  49 0001 FF       		.byte	-1
  50 0002 0000     		.section	.text.ServiceUSB,"ax",%progbits
  51              		.align	2
  52              		.global	ServiceUSB
  53              		.thumb
ARM GAS  C:\DOCUME~1\ADMINI~1\LOCALS~1\Temp\ccFLSOvL.s 			page 2


  54              		.thumb_func
  55              		.type	ServiceUSB, %function
  56              	ServiceUSB:
  57              	.LFB29:
  58              		.file 1 ".\\USBInterface.c"
   1:.\USBInterface.c **** /*******************************************************************************
   2:.\USBInterface.c **** * File Name: USBInterface.c
   3:.\USBInterface.c **** *
   4:.\USBInterface.c **** * Version 1.0
   5:.\USBInterface.c **** *
   6:.\USBInterface.c **** * Description: This file contains routines for handling PC/Mac/any USB Host
   7:.\USBInterface.c **** *              USB interface requests.
   8:.\USBInterface.c **** *
   9:.\USBInterface.c **** ********************************************************************************
  10:.\USBInterface.c **** * Copyright (2008-2013), Cypress Semiconductor Corporation.
  11:.\USBInterface.c **** ********************************************************************************
  12:.\USBInterface.c **** * This software is owned by Cypress Semiconductor Corporation (Cypress) and is
  13:.\USBInterface.c **** * protected by and subject to worldwide patent protection (United States and
  14:.\USBInterface.c **** * foreign), United States copyright laws and international treaty provisions.
  15:.\USBInterface.c **** * Cypress hereby grants to licensee a personal, non-exclusive, non-transferable
  16:.\USBInterface.c **** * license to copy, use, modify, create derivative works of, and compile the
  17:.\USBInterface.c **** * Cypress Source Code and derivative works for the sole purpose of creating
  18:.\USBInterface.c **** * custom software in support of licensee product to be used only in conjunction
  19:.\USBInterface.c **** * with a Cypress integrated circuit as specified in the applicable agreement.
  20:.\USBInterface.c **** * Any reproduction, modification, translation, compilation, or representation of
  21:.\USBInterface.c **** * this software except as specified above is prohibited without the express
  22:.\USBInterface.c **** * written permission of Cypress.
  23:.\USBInterface.c **** *
  24:.\USBInterface.c **** * Disclaimer: CYPRESS MAKES NO WARRANTY OF ANY KIND, EXPRESS OR IMPLIED, WITH
  25:.\USBInterface.c **** * REGARD TO THIS MATERIAL, INCLUDING, BUT NOT LIMITED TO, THE IMPLIED
  26:.\USBInterface.c **** * WARRANTIES OF MERCHANTABILITY AND FITNESS FOR A PARTICULAR PURPOSE.
  27:.\USBInterface.c **** * Cypress reserves the right to make changes without further notice to the
  28:.\USBInterface.c **** * materials described herein. Cypress does not assume any liability arising out
  29:.\USBInterface.c **** * of the application or use of any product or circuit described herein. Cypress
  30:.\USBInterface.c **** * does not authorize its products for use as critical components in life-support
  31:.\USBInterface.c **** * systems where a malfunction or failure may reasonably be expected to result in
  32:.\USBInterface.c **** * significant injury to the user. The inclusion of Cypress' product in a life-
  33:.\USBInterface.c **** * support systems application implies that the manufacturer assumes all risk of
  34:.\USBInterface.c **** * such use and in doing so indemnifies Cypress against all charges. Use may be
  35:.\USBInterface.c **** * limited by and subject to the applicable Cypress software license agreement.
  36:.\USBInterface.c **** *******************************************************************************/
  37:.\USBInterface.c **** #include <Application.h>
  38:.\USBInterface.c **** #include <AudioControl.h>
  39:.\USBInterface.c **** #include <Configuration.h>
  40:.\USBInterface.c **** #include <device.h>
  41:.\USBInterface.c **** #include <USBInterface.h>
  42:.\USBInterface.c **** extern volatile uint8 USBFS_interfaceSetting[];
  43:.\USBInterface.c **** extern CYBIT lowPowerIdle;
  44:.\USBInterface.c **** 
  45:.\USBInterface.c **** extern uint8 USBFS_initVar;
  46:.\USBInterface.c **** extern uint8 playlistControlReport;
  47:.\USBInterface.c **** extern CYBIT outPlaying;
  48:.\USBInterface.c **** extern CYBIT inPlaying;
  49:.\USBInterface.c **** 
  50:.\USBInterface.c **** #ifdef WINDOWS7_WORKAROUND
  51:.\USBInterface.c **** extern volatile uint8 USBFS_configurationChanged;
  52:.\USBInterface.c **** void USBFS_Config(uint8 clearAltSetting) CYREENTRANT;
ARM GAS  C:\DOCUME~1\ADMINI~1\LOCALS~1\Temp\ccFLSOvL.s 			page 3


  53:.\USBInterface.c **** #endif
  54:.\USBInterface.c **** 
  55:.\USBInterface.c **** extern CYBIT codecInit;  
  56:.\USBInterface.c **** 
  57:.\USBInterface.c **** uint8 usbActivityCounter = 0;
  58:.\USBInterface.c **** CYBIT usbMiniBActive = FALSE;
  59:.\USBInterface.c **** uint8 USBDeviceState = USB_INTERFACE_INACTIVE;
  60:.\USBInterface.c **** 
  61:.\USBInterface.c **** #if(USBFS_EP_MM == USBFS__EP_DMAAUTO) 
  62:.\USBInterface.c ****     #ifndef ENABLE_DIGITAL_AUDIO_IN_ONLY
  63:.\USBInterface.c ****     uint8 outRam[OUT_AUDIOMAXPKT];
  64:.\USBInterface.c ****     #endif
  65:.\USBInterface.c ****   
  66:.\USBInterface.c ****     #ifndef ENABLE_DIGITAL_AUDIO_OUT_ONLY
  67:.\USBInterface.c ****     uint8 inRam[IN_AUDIOMAXPKT];
  68:.\USBInterface.c ****     uint16 inCnt;
  69:.\USBInterface.c ****     #endif
  70:.\USBInterface.c **** #endif
  71:.\USBInterface.c **** 
  72:.\USBInterface.c **** uint8 altSetting[NO_OF_AUDIO_STREAM_INTERFACE] = {0xFF, 0xFF};
  73:.\USBInterface.c **** 
  74:.\USBInterface.c **** /*******************************************************************************
  75:.\USBInterface.c **** * Function Name: ServiceUSB
  76:.\USBInterface.c **** ********************************************************************************
  77:.\USBInterface.c **** * Summary: This routine performs tasks that should be done soon after USB 
  78:.\USBInterface.c **** *          enumeration is completed (configure DMA, initialize state machine etc).
  79:.\USBInterface.c **** *          When the USB configuration is changed, this routine reinitializes all
  80:.\USBInterface.c **** *          the USB endpoints as required by the application.       
  81:.\USBInterface.c **** *
  82:.\USBInterface.c **** * Parameters:
  83:.\USBInterface.c **** *  void
  84:.\USBInterface.c **** *
  85:.\USBInterface.c **** * Return:
  86:.\USBInterface.c **** *  void
  87:.\USBInterface.c **** *
  88:.\USBInterface.c **** *******************************************************************************/
  89:.\USBInterface.c **** void ServiceUSB(void)
  90:.\USBInterface.c **** {
  59              		.loc 1 90 0
  60              		.cfi_startproc
  61              		@ args = 0, pretend = 0, frame = 8
  62              		@ frame_needed = 1, uses_anonymous_args = 0
  63 0000 90B5     		push	{r4, r7, lr}
  64              	.LCFI0:
  65              		.cfi_def_cfa_offset 12
  66 0002 83B0     		sub	sp, sp, #12
  67              	.LCFI1:
  68              		.cfi_def_cfa_offset 24
  69 0004 00AF     		add	r7, sp, #0
  70              		.cfi_offset 14, -4
  71              		.cfi_offset 7, -8
  72              		.cfi_offset 4, -12
  73              	.LCFI2:
  74              		.cfi_def_cfa_register 7
  91:.\USBInterface.c ****     
  92:.\USBInterface.c **** 	if(USB_INTERFACE_INACTIVE == USBDeviceState)
  75              		.loc 1 92 0
ARM GAS  C:\DOCUME~1\ADMINI~1\LOCALS~1\Temp\ccFLSOvL.s 			page 4


  76 0006 40F20003 		movw	r3, #:lower16:USBDeviceState
  77 000a C0F20003 		movt	r3, #:upper16:USBDeviceState
  78 000e 1B78     		ldrb	r3, [r3, #0]	@ zero_extendqisi2
  79 0010 002B     		cmp	r3, #0
  80 0012 06D1     		bne	.L2
  93:.\USBInterface.c ****     {
  94:.\USBInterface.c ****         USBDeviceState = USB_INIT_AFTER_ENUMERATION_REQUIRED;
  81              		.loc 1 94 0
  82 0014 40F20003 		movw	r3, #:lower16:USBDeviceState
  83 0018 C0F20003 		movt	r3, #:upper16:USBDeviceState
  84 001c 4FF00102 		mov	r2, #1
  85 0020 1A70     		strb	r2, [r3, #0]
  86              	.L2:
  95:.\USBInterface.c ****     }
  96:.\USBInterface.c **** 	
  97:.\USBInterface.c **** 	/* Initialization sequence for every USB host enumeration event */
  98:.\USBInterface.c ****     if(USBDeviceState == USB_INIT_AFTER_ENUMERATION_REQUIRED)
  87              		.loc 1 98 0
  88 0022 40F20003 		movw	r3, #:lower16:USBDeviceState
  89 0026 C0F20003 		movt	r3, #:upper16:USBDeviceState
  90 002a 1B78     		ldrb	r3, [r3, #0]	@ zero_extendqisi2
  91 002c 012B     		cmp	r3, #1
  92 002e 38D1     		bne	.L3
  93              	.LBB2:
  99:.\USBInterface.c ****     {
 100:.\USBInterface.c ****         uint16 index = 0;
  94              		.loc 1 100 0
  95 0030 4FF00003 		mov	r3, #0
  96 0034 FB80     		strh	r3, [r7, #6]	@ movhi
 101:.\USBInterface.c ****         
 102:.\USBInterface.c ****         USBDeviceState = USB_INIT_AFTER_ENUMERATION_COMPLETED;
  97              		.loc 1 102 0
  98 0036 40F20003 		movw	r3, #:lower16:USBDeviceState
  99 003a C0F20003 		movt	r3, #:upper16:USBDeviceState
 100 003e 4FF00202 		mov	r2, #2
 101 0042 1A70     		strb	r2, [r3, #0]
 103:.\USBInterface.c ****         
 104:.\USBInterface.c ****         #if(USBFS_EP_MM == USBFS__EP_DMAAUTO)
 105:.\USBInterface.c ****             
 106:.\USBInterface.c **** 			for(index=0; index< OUT_AUDIOMAXPKT; index++)
 102              		.loc 1 106 0
 103 0044 4FF00003 		mov	r3, #0
 104 0048 FB80     		strh	r3, [r7, #6]	@ movhi
 105 004a 0BE0     		b	.L4
 106              	.L5:
 107:.\USBInterface.c ****             {
 108:.\USBInterface.c ****                 #ifndef ENABLE_DIGITAL_AUDIO_IN_ONLY
 109:.\USBInterface.c ****                 outRam[index] = 0;
 107              		.loc 1 109 0
 108 004c FA88     		ldrh	r2, [r7, #6]
 109 004e 40F20003 		movw	r3, #:lower16:outRam
 110 0052 C0F20003 		movt	r3, #:upper16:outRam
 111 0056 4FF00001 		mov	r1, #0
 112 005a 9954     		strb	r1, [r3, r2]
 113              		.loc 1 106 0
 114 005c FB88     		ldrh	r3, [r7, #6]	@ movhi
 115 005e 03F10103 		add	r3, r3, #1
ARM GAS  C:\DOCUME~1\ADMINI~1\LOCALS~1\Temp\ccFLSOvL.s 			page 5


 116 0062 FB80     		strh	r3, [r7, #6]	@ movhi
 117              	.L4:
 118 0064 FA88     		ldrh	r2, [r7, #6]
 119 0066 40F21F13 		movw	r3, #287
 120 006a 9A42     		cmp	r2, r3
 121 006c EED9     		bls	.L5
 110:.\USBInterface.c ****                 #endif
 111:.\USBInterface.c ****             }
 112:.\USBInterface.c **** 			
 113:.\USBInterface.c **** 			for(index=0; index< IN_AUDIOMAXPKT; index++)
 122              		.loc 1 113 0
 123 006e 4FF00003 		mov	r3, #0
 124 0072 FB80     		strh	r3, [r7, #6]	@ movhi
 125 0074 0BE0     		b	.L6
 126              	.L7:
 114:.\USBInterface.c ****             {
 115:.\USBInterface.c ****                 #ifndef ENABLE_DIGITAL_AUDIO_OUT_ONLY
 116:.\USBInterface.c ****                 inRam[index] = 0;
 127              		.loc 1 116 0
 128 0076 FA88     		ldrh	r2, [r7, #6]
 129 0078 40F20003 		movw	r3, #:lower16:inRam
 130 007c C0F20003 		movt	r3, #:upper16:inRam
 131 0080 4FF00001 		mov	r1, #0
 132 0084 9954     		strb	r1, [r3, r2]
 133              		.loc 1 113 0
 134 0086 FB88     		ldrh	r3, [r7, #6]	@ movhi
 135 0088 03F10103 		add	r3, r3, #1
 136 008c FB80     		strh	r3, [r7, #6]	@ movhi
 137              	.L6:
 138 008e FB88     		ldrh	r3, [r7, #6]
 139 0090 BF2B     		cmp	r3, #191
 140 0092 F0D9     		bls	.L7
 117:.\USBInterface.c ****                 #endif                
 118:.\USBInterface.c ****             }
 119:.\USBInterface.c ****             
 120:.\USBInterface.c **** 			#ifndef ENABLE_DIGITAL_AUDIO_OUT_ONLY
 121:.\USBInterface.c ****             inCnt = IN_AUDIOMAXPKT;
 141              		.loc 1 121 0
 142 0094 40F20003 		movw	r3, #:lower16:inCnt
 143 0098 C0F20003 		movt	r3, #:upper16:inCnt
 144 009c 4FF0C002 		mov	r2, #192
 145 00a0 1A80     		strh	r2, [r3, #0]	@ movhi
 146              	.L3:
 147              	.LBE2:
 122:.\USBInterface.c ****             #endif
 123:.\USBInterface.c ****         #endif
 124:.\USBInterface.c ****         
 125:.\USBInterface.c **** 		/* USER_CODE: [USB enumeration] placeholder for initializing custom user code after the USB host 
 126:.\USBInterface.c ****          * accessory. This routine will be called once per accessory connection after the host issu
 127:.\USBInterface.c ****          * request */
 128:.\USBInterface.c ****     }
 129:.\USBInterface.c ****     
 130:.\USBInterface.c ****    
 131:.\USBInterface.c ****     /* USBFS_IsConfigurationChanged() is a clear on read status update therefore, only one read of 
 132:.\USBInterface.c ****      * USBFS_IsConfigurationChanged() should ever exist in user code */
 133:.\USBInterface.c ****     if(USBFS_IsConfigurationChanged())
 148              		.loc 1 133 0
ARM GAS  C:\DOCUME~1\ADMINI~1\LOCALS~1\Temp\ccFLSOvL.s 			page 6


 149 00a2 FFF7FEFF 		bl	USBFS_IsConfigurationChanged
 150 00a6 0346     		mov	r3, r0
 151 00a8 002B     		cmp	r3, #0
 152 00aa 00F0A780 		beq	.L13
 134:.\USBInterface.c ****     {
 135:.\USBInterface.c ****         
 136:.\USBInterface.c **** 		#ifndef ENABLE_DIGITAL_AUDIO_IN_ONLY    
 137:.\USBInterface.c ****         /* Get Alternate setting */
 138:.\USBInterface.c ****         altSetting[AUDIO_OUT_INTERFACE_INDEX] = USBFS_GetInterfaceSetting(1); 
 153              		.loc 1 138 0
 154 00ae 4FF00100 		mov	r0, #1
 155 00b2 FFF7FEFF 		bl	USBFS_GetInterfaceSetting
 156 00b6 0346     		mov	r3, r0
 157 00b8 1A46     		mov	r2, r3
 158 00ba 40F20003 		movw	r3, #:lower16:altSetting
 159 00be C0F20003 		movt	r3, #:upper16:altSetting
 160 00c2 1A70     		strb	r2, [r3, #0]
 139:.\USBInterface.c ****         
 140:.\USBInterface.c ****         /* ByteSwap control register bit is set to 1 if alt setting 2 is selected so that  
 141:.\USBInterface.c ****          * Byte swap digital logic processes data as 16 bits. ByteSwap control register is set to 0
 142:.\USBInterface.c ****          * if alt setting 1 is selected and byte swap processes data as 24 bits */
 143:.\USBInterface.c ****         if (altSetting[AUDIO_OUT_INTERFACE_INDEX]==ALT_SETTING_ACTIVE_24_BIT)
 161              		.loc 1 143 0
 162 00c4 40F20003 		movw	r3, #:lower16:altSetting
 163 00c8 C0F20003 		movt	r3, #:upper16:altSetting
 164 00cc 1B78     		ldrb	r3, [r3, #0]	@ zero_extendqisi2
 165 00ce 022B     		cmp	r3, #2
 166 00d0 0DD1     		bne	.L9
 144:.\USBInterface.c ****         {
 145:.\USBInterface.c ****             
 146:.\USBInterface.c ****             ByteSwap_Tx_CONTROL_REG = ByteSwap_Tx_CONTROL_REG & (~ByteSwap_Tx_RES_CTRL_16);  
 167              		.loc 1 146 0
 168 00d2 46F27B53 		movw	r3, #:lower16:1073767803
 169 00d6 C4F20003 		movt	r3, #:upper16:1073767803
 170 00da 46F27B52 		movw	r2, #:lower16:1073767803
 171 00de C4F20002 		movt	r2, #:upper16:1073767803
 172 00e2 1278     		ldrb	r2, [r2, #0]
 173 00e4 D2B2     		uxtb	r2, r2
 174 00e6 02F0FD02 		and	r2, r2, #253
 175 00ea 1A70     		strb	r2, [r3, #0]
 176 00ec 14E0     		b	.L10
 177              	.L9:
 147:.\USBInterface.c ****         }
 148:.\USBInterface.c ****         else if (altSetting[AUDIO_OUT_INTERFACE_INDEX]==ALT_SETTING_ACTIVE_16_BIT)
 178              		.loc 1 148 0
 179 00ee 40F20003 		movw	r3, #:lower16:altSetting
 180 00f2 C0F20003 		movt	r3, #:upper16:altSetting
 181 00f6 1B78     		ldrb	r3, [r3, #0]	@ zero_extendqisi2
 182 00f8 012B     		cmp	r3, #1
 183 00fa 0DD1     		bne	.L10
 149:.\USBInterface.c ****         {
 150:.\USBInterface.c ****             
 151:.\USBInterface.c ****             ByteSwap_Tx_CONTROL_REG = ByteSwap_Tx_CONTROL_REG | ByteSwap_Tx_RES_CTRL_16;           
 184              		.loc 1 151 0
 185 00fc 46F27B53 		movw	r3, #:lower16:1073767803
 186 0100 C4F20003 		movt	r3, #:upper16:1073767803
 187 0104 46F27B52 		movw	r2, #:lower16:1073767803
ARM GAS  C:\DOCUME~1\ADMINI~1\LOCALS~1\Temp\ccFLSOvL.s 			page 7


 188 0108 C4F20002 		movt	r2, #:upper16:1073767803
 189 010c 1278     		ldrb	r2, [r2, #0]
 190 010e D2B2     		uxtb	r2, r2
 191 0110 42F00202 		orr	r2, r2, #2
 192 0114 D2B2     		uxtb	r2, r2
 193 0116 1A70     		strb	r2, [r3, #0]
 194              	.L10:
 152:.\USBInterface.c ****         }
 153:.\USBInterface.c ****         
 154:.\USBInterface.c ****         /* Arming the audio out EP if it is not zero bandwidth alt setting */
 155:.\USBInterface.c ****         if (altSetting[AUDIO_OUT_INTERFACE_INDEX]!= ALT_SETTING_ZERO_BANDWIDTH && 
 195              		.loc 1 155 0
 196 0118 40F20003 		movw	r3, #:lower16:altSetting
 197 011c C0F20003 		movt	r3, #:upper16:altSetting
 198 0120 1B78     		ldrb	r3, [r3, #0]	@ zero_extendqisi2
 199 0122 002B     		cmp	r3, #0
 200 0124 17D0     		beq	.L11
 156:.\USBInterface.c ****             (CY_GET_REG8(USBFS_SIE_EP1_CR0_PTR + ((AUDIO_OUT_ENDPOINT - USBFS_EP1) << USBFS_EPX_CNT
 201              		.loc 1 156 0
 202 0126 46F20E03 		movw	r3, #:lower16:1073766414
 203 012a C4F20003 		movt	r3, #:upper16:1073766414
 204 012e 1B78     		ldrb	r3, [r3, #0]
 205 0130 DBB2     		uxtb	r3, r3
 206 0132 03F00F03 		and	r3, r3, #15
 207              		.loc 1 155 0
 208 0136 012B     		cmp	r3, #1
 209 0138 0DD1     		bne	.L11
 157:.\USBInterface.c ****                                                                                     == USBFS_MODE_N
 158:.\USBInterface.c ****         {
 159:.\USBInterface.c ****             /* Init DMA configurations for audio OUT EP */
 160:.\USBInterface.c ****             USBFS_ReadOutEP(AUDIO_OUT_ENDPOINT, &outRam[0], OUT_AUDIOMAXPKT);
 210              		.loc 1 160 0
 211 013a 4FF00100 		mov	r0, #1
 212 013e 40F20001 		movw	r1, #:lower16:outRam
 213 0142 C0F20001 		movt	r1, #:upper16:outRam
 214 0146 4FF49072 		mov	r2, #288
 215 014a FFF7FEFF 		bl	USBFS_ReadOutEP
 161:.\USBInterface.c ****             USBFS_EnableOutEP(AUDIO_OUT_ENDPOINT);
 216              		.loc 1 161 0
 217 014e 4FF00100 		mov	r0, #1
 218 0152 FFF7FEFF 		bl	USBFS_EnableOutEP
 219              	.L11:
 162:.\USBInterface.c ****         }
 163:.\USBInterface.c ****         #endif
 164:.\USBInterface.c ****         
 165:.\USBInterface.c ****         #ifndef ENABLE_DIGITAL_AUDIO_OUT_ONLY
 166:.\USBInterface.c ****             #ifndef ENABLE_DIGITAL_AUDIO_IN_ONLY 
 167:.\USBInterface.c ****             if(altSetting[AUDIO_IN_INTERFACE_INDEX] != USBFS_GetInterfaceSetting(2))
 220              		.loc 1 167 0
 221 0156 40F20003 		movw	r3, #:lower16:altSetting
 222 015a C0F20003 		movt	r3, #:upper16:altSetting
 223 015e 5C78     		ldrb	r4, [r3, #1]	@ zero_extendqisi2
 224 0160 4FF00200 		mov	r0, #2
 225 0164 FFF7FEFF 		bl	USBFS_GetInterfaceSetting
 226 0168 0346     		mov	r3, r0
 227 016a 9C42     		cmp	r4, r3
 228 016c 3CD0     		beq	.L12
ARM GAS  C:\DOCUME~1\ADMINI~1\LOCALS~1\Temp\ccFLSOvL.s 			page 8


 168:.\USBInterface.c ****         {
 169:.\USBInterface.c ****                   altSetting[AUDIO_IN_INTERFACE_INDEX] = USBFS_GetInterfaceSetting(2);
 229              		.loc 1 169 0
 230 016e 4FF00200 		mov	r0, #2
 231 0172 FFF7FEFF 		bl	USBFS_GetInterfaceSetting
 232 0176 0346     		mov	r3, r0
 233 0178 1A46     		mov	r2, r3
 234 017a 40F20003 		movw	r3, #:lower16:altSetting
 235 017e C0F20003 		movt	r3, #:upper16:altSetting
 236 0182 5A70     		strb	r2, [r3, #1]
 170:.\USBInterface.c ****             #else
 171:.\USBInterface.c ****             if(altSetting[AUDIO_IN_INTERFACE_INDEX] != USBFS_GetInterfaceSetting(1))	
 172:.\USBInterface.c ****         {
 173:.\USBInterface.c ****                   altSetting[AUDIO_IN_INTERFACE_INDEX] = USBFS_GetInterfaceSetting(1);	
 174:.\USBInterface.c ****             #endif
 175:.\USBInterface.c ****             
 176:.\USBInterface.c ****             /* Arming the audio in EP if it is not zero bandwidth alt setting */
 177:.\USBInterface.c ****             if (altSetting[AUDIO_IN_INTERFACE_INDEX]!= ALT_SETTING_ZERO_BANDWIDTH &&
 237              		.loc 1 177 0
 238 0184 40F20003 		movw	r3, #:lower16:altSetting
 239 0188 C0F20003 		movt	r3, #:upper16:altSetting
 240 018c 5B78     		ldrb	r3, [r3, #1]	@ zero_extendqisi2
 241 018e 002B     		cmp	r3, #0
 242 0190 2AD0     		beq	.L12
 178:.\USBInterface.c ****                 (CY_GET_REG8(USBFS_SIE_EP1_CR0_PTR + ((AUDIO_IN_ENDPOINT - USBFS_EP1) << USBFS_EPX_
 243              		.loc 1 178 0
 244 0192 46F21E03 		movw	r3, #:lower16:1073766430
 245 0196 C4F20003 		movt	r3, #:upper16:1073766430
 246 019a 1B78     		ldrb	r3, [r3, #0]
 247 019c DBB2     		uxtb	r3, r3
 248 019e 03F00F03 		and	r3, r3, #15
 249              		.loc 1 177 0
 250 01a2 012B     		cmp	r3, #1
 251 01a4 20D1     		bne	.L12
 179:.\USBInterface.c ****                                                                                         == USBFS_MO
 180:.\USBInterface.c ****             {
 181:.\USBInterface.c ****                 /* Init DMA configurations for audio IN EP */  
 182:.\USBInterface.c ****                 inCnt = IN_AUDIOMAXPKT;
 252              		.loc 1 182 0
 253 01a6 40F20003 		movw	r3, #:lower16:inCnt
 254 01aa C0F20003 		movt	r3, #:upper16:inCnt
 255 01ae 4FF0C002 		mov	r2, #192
 256 01b2 1A80     		strh	r2, [r3, #0]	@ movhi
 183:.\USBInterface.c ****                 USBFS_LoadInEP(AUDIO_IN_ENDPOINT, &inRam[0], inCnt);
 257              		.loc 1 183 0
 258 01b4 40F20003 		movw	r3, #:lower16:inCnt
 259 01b8 C0F20003 		movt	r3, #:upper16:inCnt
 260 01bc 1B88     		ldrh	r3, [r3, #0]
 261 01be 4FF00200 		mov	r0, #2
 262 01c2 40F20001 		movw	r1, #:lower16:inRam
 263 01c6 C0F20001 		movt	r1, #:upper16:inRam
 264 01ca 1A46     		mov	r2, r3
 265 01cc FFF7FEFF 		bl	USBFS_LoadInEP
 184:.\USBInterface.c ****                 /* Pre-arm first audio IN request */
 185:.\USBInterface.c ****                 USBFS_LoadInEP(AUDIO_IN_ENDPOINT, USBFS_NULL, inCnt);
 266              		.loc 1 185 0
 267 01d0 40F20003 		movw	r3, #:lower16:inCnt
ARM GAS  C:\DOCUME~1\ADMINI~1\LOCALS~1\Temp\ccFLSOvL.s 			page 9


 268 01d4 C0F20003 		movt	r3, #:upper16:inCnt
 269 01d8 1B88     		ldrh	r3, [r3, #0]
 270 01da 4FF00200 		mov	r0, #2
 271 01de 4FF00001 		mov	r1, #0
 272 01e2 1A46     		mov	r2, r3
 273 01e4 FFF7FEFF 		bl	USBFS_LoadInEP
 274              	.L12:
 186:.\USBInterface.c ****             }
 187:.\USBInterface.c ****         }
 188:.\USBInterface.c ****         #endif
 189:.\USBInterface.c ****         
 190:.\USBInterface.c ****         /* Configure the HID input endpoint buffer for Mac/PC playlist control */
 191:.\USBInterface.c ****         USBFS_LoadInEP(MAC_PC_HID_CONTROL_ENDPOINT, &playlistControlReport, sizeof(playlistControlR
 275              		.loc 1 191 0
 276 01e8 4FF00400 		mov	r0, #4
 277 01ec 40F20001 		movw	r1, #:lower16:playlistControlReport
 278 01f0 C0F20001 		movt	r1, #:upper16:playlistControlReport
 279 01f4 4FF00102 		mov	r2, #1
 280 01f8 FFF7FEFF 		bl	USBFS_LoadInEP
 281              	.L13:
 192:.\USBInterface.c ****         
 193:.\USBInterface.c ****         /* USER_CODE: [USB configuration changed] Placeholder for adding additional USB endpoint in
 194:.\USBInterface.c ****          * when the host issues either a SET_INTERFACE or SET_CONFIGURATION request to the accessor
 195:.\USBInterface.c ****          * a SET_INTERFACE request from the host, the endpoint belonging to the alternate setting b
 196:.\USBInterface.c ****          * by the USB host is reset and must be reinitialized here for proper operation of the USB 
 197:.\USBInterface.c ****     }
 198:.\USBInterface.c **** }
 282              		.loc 1 198 0
 283 01fc 07F10C07 		add	r7, r7, #12
 284 0200 BD46     		mov	sp, r7
 285 0202 90BD     		pop	{r4, r7, pc}
 286              		.cfi_endproc
 287              	.LFE29:
 288              		.size	ServiceUSB, .-ServiceUSB
 289              		.section	.text.ServiceUSBSuspend,"ax",%progbits
 290              		.align	2
 291              		.global	ServiceUSBSuspend
 292              		.thumb
 293              		.thumb_func
 294              		.type	ServiceUSBSuspend, %function
 295              	ServiceUSBSuspend:
 296              	.LFB30:
 199:.\USBInterface.c **** 
 200:.\USBInterface.c **** /*******************************************************************************
 201:.\USBInterface.c **** * Function Name: ServiceUSBSuspend
 202:.\USBInterface.c **** ********************************************************************************
 203:.\USBInterface.c **** * Summary:
 204:.\USBInterface.c **** *       This function handles USB suspend event from USB host and forces PSoC 5LP 
 205:.\USBInterface.c **** *       to enter low power mode. Once the USB resume event is detected, PSoC 5LP 
 206:.\USBInterface.c **** *       wakes up and starts operating in normal mode.
 207:.\USBInterface.c **** *
 208:.\USBInterface.c **** * Parameters:
 209:.\USBInterface.c **** *  void
 210:.\USBInterface.c **** *
 211:.\USBInterface.c **** * Return:
 212:.\USBInterface.c **** *  void
 213:.\USBInterface.c **** *
ARM GAS  C:\DOCUME~1\ADMINI~1\LOCALS~1\Temp\ccFLSOvL.s 			page 10


 214:.\USBInterface.c **** *******************************************************************************/
 215:.\USBInterface.c **** #ifdef  HANDLE_USB_SUSPEND
 216:.\USBInterface.c **** void ServiceUSBSuspend(void)
 217:.\USBInterface.c **** {
 297              		.loc 1 217 0
 298              		.cfi_startproc
 299              		@ args = 0, pretend = 0, frame = 8
 300              		@ frame_needed = 1, uses_anonymous_args = 0
 301 0000 80B5     		push	{r7, lr}
 302              	.LCFI3:
 303              		.cfi_def_cfa_offset 8
 304 0002 82B0     		sub	sp, sp, #8
 305              	.LCFI4:
 306              		.cfi_def_cfa_offset 16
 307 0004 00AF     		add	r7, sp, #0
 308              		.cfi_offset 14, -4
 309              		.cfi_offset 7, -8
 310              	.LCFI5:
 311              		.cfi_def_cfa_register 7
 218:.\USBInterface.c ****     uint8 ledBlinkCnt = STATUS_LED_BLINK_COUNT;	
 312              		.loc 1 218 0
 313 0006 4FF00403 		mov	r3, #4
 314 000a FB71     		strb	r3, [r7, #7]
 219:.\USBInterface.c **** 	
 220:.\USBInterface.c **** 	if(! USBFS_initVar)
 315              		.loc 1 220 0
 316 000c 40F20003 		movw	r3, #:lower16:USBFS_initVar
 317 0010 C0F20003 		movt	r3, #:upper16:USBFS_initVar
 318 0014 1B78     		ldrb	r3, [r3, #0]	@ zero_extendqisi2
 319 0016 002B     		cmp	r3, #0
 320 0018 78D0     		beq	.L24
 321              	.L15:
 221:.\USBInterface.c ****     {
 222:.\USBInterface.c ****       return;
 223:.\USBInterface.c ****     }
 224:.\USBInterface.c ****   
 225:.\USBInterface.c ****     /* Check if the host is active */
 226:.\USBInterface.c ****     if(USBFS_bCheckActivity() != 0 ) 
 322              		.loc 1 226 0
 323 001a FFF7FEFF 		bl	USBFS_CheckActivity
 324 001e 0346     		mov	r3, r0
 325 0020 002B     		cmp	r3, #0
 326 0022 07D0     		beq	.L17
 227:.\USBInterface.c ****     {
 228:.\USBInterface.c ****       usbActivityCounter = 0;
 327              		.loc 1 228 0
 328 0024 40F20003 		movw	r3, #:lower16:usbActivityCounter
 329 0028 C0F20003 		movt	r3, #:upper16:usbActivityCounter
 330 002c 4FF00002 		mov	r2, #0
 331 0030 1A70     		strb	r2, [r3, #0]
 332 0032 0CE0     		b	.L18
 333              	.L17:
 229:.\USBInterface.c ****     } 
 230:.\USBInterface.c ****     else 
 231:.\USBInterface.c ****     {
 232:.\USBInterface.c ****       usbActivityCounter++;
 334              		.loc 1 232 0
ARM GAS  C:\DOCUME~1\ADMINI~1\LOCALS~1\Temp\ccFLSOvL.s 			page 11


 335 0034 40F20003 		movw	r3, #:lower16:usbActivityCounter
 336 0038 C0F20003 		movt	r3, #:upper16:usbActivityCounter
 337 003c 1B78     		ldrb	r3, [r3, #0]	@ zero_extendqisi2
 338 003e 03F10103 		add	r3, r3, #1
 339 0042 DAB2     		uxtb	r2, r3
 340 0044 40F20003 		movw	r3, #:lower16:usbActivityCounter
 341 0048 C0F20003 		movt	r3, #:upper16:usbActivityCounter
 342 004c 1A70     		strb	r2, [r3, #0]
 343              	.L18:
 233:.\USBInterface.c ****     }
 234:.\USBInterface.c ****         
 235:.\USBInterface.c ****     /* USB Suspend event is lack of greater than 3 consecutive SOF's */
 236:.\USBInterface.c ****     if(usbActivityCounter > USB_SUSPEND_TIME_TICKS )
 344              		.loc 1 236 0
 345 004e 40F20003 		movw	r3, #:lower16:usbActivityCounter
 346 0052 C0F20003 		movt	r3, #:upper16:usbActivityCounter
 347 0056 1B78     		ldrb	r3, [r3, #0]	@ zero_extendqisi2
 348 0058 052B     		cmp	r3, #5
 349 005a 58D9     		bls	.L23
 237:.\USBInterface.c ****     {
 238:.\USBInterface.c ****         /* The debounce delay is taken care by increasing the suspend time to 40ms (5 * 8ms) */    
 239:.\USBInterface.c ****         if(IsUSBConfigured()) 
 350              		.loc 1 239 0
 351 005c FFF7FEFF 		bl	USBFS_GetConfiguration
 352 0060 0346     		mov	r3, r0
 353 0062 002B     		cmp	r3, #0
 354 0064 4AD0     		beq	.L19
 240:.\USBInterface.c ****         {  
 241:.\USBInterface.c ****             /* USER_CODE: [USB suspend] Placeholder for configuring ALL the additional components a
 242:.\USBInterface.c ****              * sleep mode before calling USB suspend/PSoC 3 sleep API */
 243:.\USBInterface.c ****                       
 244:.\USBInterface.c ****             /* If the accessory is not in low power mode, enter low power mode on seeing a USB susp
 245:.\USBInterface.c ****             if(!lowPowerIdle) 
 355              		.loc 1 245 0
 356 0066 40F20003 		movw	r3, #:lower16:lowPowerIdle
 357 006a C0F20003 		movt	r3, #:upper16:lowPowerIdle
 358 006e 1B78     		ldrb	r3, [r3, #0]	@ zero_extendqisi2
 359 0070 002B     		cmp	r3, #0
 360 0072 08D1     		bne	.L20
 246:.\USBInterface.c ****             {
 247:.\USBInterface.c ****                 lowPowerIdle = TRUE;
 361              		.loc 1 247 0
 362 0074 40F20003 		movw	r3, #:lower16:lowPowerIdle
 363 0078 C0F20003 		movt	r3, #:upper16:lowPowerIdle
 364 007c 4FF00102 		mov	r2, #1
 365 0080 1A70     		strb	r2, [r3, #0]
 248:.\USBInterface.c ****                 StopAudioComponents();             /* Changes to 24 MHz IMO for USB */             
 366              		.loc 1 248 0
 367 0082 FFF7FEFF 		bl	StopAudioComponents
 368              	.L20:
 249:.\USBInterface.c ****             }
 250:.\USBInterface.c ****             
 251:.\USBInterface.c **** 			#ifdef ENABLE_PDM 	
 252:.\USBInterface.c **** 		        PDM_CIC_Sleep();
 369              		.loc 1 252 0
 370 0086 FFF7FEFF 		bl	PDM_CIC_Sleep
 253:.\USBInterface.c **** 				Droop_Filter_ModifiedSleep();	
ARM GAS  C:\DOCUME~1\ADMINI~1\LOCALS~1\Temp\ccFLSOvL.s 			page 12


 371              		.loc 1 253 0
 372 008a FFF7FEFF 		bl	Droop_Filter_ModifiedSleep
 254:.\USBInterface.c **** 			#endif
 255:.\USBInterface.c **** 			
 256:.\USBInterface.c **** 			/* Blink the STATUS LED twice before entering suspend mode */
 257:.\USBInterface.c **** 			while(ledBlinkCnt)					   		
 373              		.loc 1 257 0
 374 008e 10E0     		b	.L21
 375              	.L22:
 258:.\USBInterface.c **** 			{
 259:.\USBInterface.c **** 				CyDelay(100);
 376              		.loc 1 259 0
 377 0090 4FF06400 		mov	r0, #100
 378 0094 FFF7FEFF 		bl	CyDelay
 260:.\USBInterface.c **** 				PSOC_STATUS_LED_Write(~PSOC_STATUS_LED_Read());
 379              		.loc 1 260 0
 380 0098 FFF7FEFF 		bl	PSOC_STATUS_LED_Read
 381 009c 0346     		mov	r3, r0
 382 009e 6FEA0303 		mvn	r3, r3
 383 00a2 DBB2     		uxtb	r3, r3
 384 00a4 1846     		mov	r0, r3
 385 00a6 FFF7FEFF 		bl	PSOC_STATUS_LED_Write
 261:.\USBInterface.c **** 				ledBlinkCnt--;
 386              		.loc 1 261 0
 387 00aa FB79     		ldrb	r3, [r7, #7]
 388 00ac 03F1FF33 		add	r3, r3, #-1
 389 00b0 FB71     		strb	r3, [r7, #7]
 390              	.L21:
 391              		.loc 1 257 0
 392 00b2 FB79     		ldrb	r3, [r7, #7]	@ zero_extendqisi2
 393 00b4 002B     		cmp	r3, #0
 394 00b6 EBD1     		bne	.L22
 262:.\USBInterface.c **** 			}
 263:.\USBInterface.c **** 			
 264:.\USBInterface.c **** 			/* Turn off the regulator to reduce suspend mode current */    
 265:.\USBInterface.c **** //            CyPins_ClearPin(PSOC_CODEC_PWR_0);     /* Uncomment this line only if PSOC_CODEC_PWR 
 266:.\USBInterface.c ****    						
 267:.\USBInterface.c ****             USBFS_Suspend();
 395              		.loc 1 267 0
 396 00b8 FFF7FEFF 		bl	USBFS_Suspend
 268:.\USBInterface.c **** 			
 269:.\USBInterface.c **** 			#ifdef CODEC_I2C_SUPPORTED
 270:.\USBInterface.c **** 			I2C_Master_Sleep();                /* Configure I2C master block in sleep mode */ 
 271:.\USBInterface.c ****             #endif
 272:.\USBInterface.c **** 			
 273:.\USBInterface.c ****             CyPmSaveClocks();            
 397              		.loc 1 273 0
 398 00bc FFF7FEFF 		bl	CyPmSaveClocks
 274:.\USBInterface.c ****             CyPmSleep(PM_SLEEP_TIME_NONE, PM_SLEEP_SRC_PICU); /* PSoC 3 is in sleep mode */
 399              		.loc 1 274 0
 400 00c0 4FF00000 		mov	r0, #0
 401 00c4 4FF04001 		mov	r1, #64
 402 00c8 FFF7FEFF 		bl	CyPmSleep
 275:.\USBInterface.c ****             CyPmRestoreClocks();
 403              		.loc 1 275 0
 404 00cc FFF7FEFF 		bl	CyPmRestoreClocks
 276:.\USBInterface.c **** 			
ARM GAS  C:\DOCUME~1\ADMINI~1\LOCALS~1\Temp\ccFLSOvL.s 			page 13


 277:.\USBInterface.c **** 			USBFS_Resume();
 405              		.loc 1 277 0
 406 00d0 FFF7FEFF 		bl	USBFS_Resume
 278:.\USBInterface.c **** 			
 279:.\USBInterface.c **** 			#ifdef ENABLE_PDM 		
 280:.\USBInterface.c **** 		    	PDM_CIC_Wakeup();
 407              		.loc 1 280 0
 408 00d4 FFF7FEFF 		bl	PDM_CIC_Wakeup
 281:.\USBInterface.c **** 				Droop_Filter_ModifiedWakeup();
 409              		.loc 1 281 0
 410 00d8 FFF7FEFF 		bl	Droop_Filter_ModifiedWakeup
 282:.\USBInterface.c **** 			#endif
 283:.\USBInterface.c **** 			
 284:.\USBInterface.c **** 			#ifdef CODEC_I2C_SUPPORTED
 285:.\USBInterface.c **** 			I2C_Master_Wakeup();
 286:.\USBInterface.c **** 			#endif
 287:.\USBInterface.c **** 			
 288:.\USBInterface.c **** 			/* Turn ON the CODEC regulator after wake up */	
 289:.\USBInterface.c **** //            CyPins_SetPin(PSOC_CODEC_PWR_0);      /* Uncomment this line only if PSOC_CODEC_PWR p
 290:.\USBInterface.c ****            
 291:.\USBInterface.c ****             #ifdef WINDOWS7_WORKAROUND		
 292:.\USBInterface.c ****             if(USBFS_GetConfiguration() != 0)
 411              		.loc 1 292 0
 412 00dc FFF7FEFF 		bl	USBFS_GetConfiguration
 413 00e0 0346     		mov	r3, r0
 414 00e2 002B     		cmp	r3, #0
 415 00e4 0AD0     		beq	.L19
 293:.\USBInterface.c ****             {
 294:.\USBInterface.c ****                 USBFS_configurationChanged = USBFS_TRUE;
 416              		.loc 1 294 0
 417 00e6 40F20003 		movw	r3, #:lower16:USBFS_configurationChanged
 418 00ea C0F20003 		movt	r3, #:upper16:USBFS_configurationChanged
 419 00ee 4FF00102 		mov	r2, #1
 420 00f2 1A70     		strb	r2, [r3, #0]
 295:.\USBInterface.c ****                 USBFS_Config(USBFS_FALSE);
 421              		.loc 1 295 0
 422 00f4 4FF00000 		mov	r0, #0
 423 00f8 FFF7FEFF 		bl	USBFS_Config
 424              	.L19:
 296:.\USBInterface.c ****             }
 297:.\USBInterface.c ****             #endif
 298:.\USBInterface.c ****      
 299:.\USBInterface.c ****             /* USER_CODE: [USB wakeup] Placeholder for re-configuring ALL the additional components
 300:.\USBInterface.c ****              * wakeup mode after calling USB wakeup */
 301:.\USBInterface.c ****         }
 302:.\USBInterface.c ****         usbActivityCounter = 0;
 425              		.loc 1 302 0
 426 00fc 40F20003 		movw	r3, #:lower16:usbActivityCounter
 427 0100 C0F20003 		movt	r3, #:upper16:usbActivityCounter
 428 0104 4FF00002 		mov	r2, #0
 429 0108 1A70     		strb	r2, [r3, #0]
 430 010a 00E0     		b	.L23
 431              	.L24:
 432              		.loc 1 222 0
 433 010c 00BF     		nop
 434              	.L23:
 303:.\USBInterface.c **** 		/* After coming out of USB suspend, MIDI end point should be re-initialized */
ARM GAS  C:\DOCUME~1\ADMINI~1\LOCALS~1\Temp\ccFLSOvL.s 			page 14


 304:.\USBInterface.c ****     }
 305:.\USBInterface.c **** }
 435              		.loc 1 305 0
 436 010e 07F10807 		add	r7, r7, #8
 437 0112 BD46     		mov	sp, r7
 438 0114 80BD     		pop	{r7, pc}
 439              		.cfi_endproc
 440              	.LFE30:
 441              		.size	ServiceUSBSuspend, .-ServiceUSBSuspend
 442 0116 00BF     		.section	.text.HandleUSBHostInterface,"ax",%progbits
 443              		.align	2
 444              		.global	HandleUSBHostInterface
 445              		.thumb
 446              		.thumb_func
 447              		.type	HandleUSBHostInterface, %function
 448              	HandleUSBHostInterface:
 449              	.LFB31:
 306:.\USBInterface.c **** #endif
 307:.\USBInterface.c **** 
 308:.\USBInterface.c **** /****************f***************************************************************
 309:.\USBInterface.c **** * Function Name: HandleUSBHostInterface
 310:.\USBInterface.c **** ********************************************************************************
 311:.\USBInterface.c **** * Summary: Checks if USB Host is connected/disconnected and start the USB component
 312:.\USBInterface.c **** *
 313:.\USBInterface.c **** * Parameters:
 314:.\USBInterface.c **** *  void
 315:.\USBInterface.c **** *
 316:.\USBInterface.c **** * Return:
 317:.\USBInterface.c **** *  void
 318:.\USBInterface.c **** *
 319:.\USBInterface.c **** *******************************************************************************/
 320:.\USBInterface.c **** void HandleUSBHostInterface(void)
 321:.\USBInterface.c **** {
 450              		.loc 1 321 0
 451              		.cfi_startproc
 452              		@ args = 0, pretend = 0, frame = 0
 453              		@ frame_needed = 1, uses_anonymous_args = 0
 454 0000 80B5     		push	{r7, lr}
 455              	.LCFI6:
 456              		.cfi_def_cfa_offset 8
 457 0002 00AF     		add	r7, sp, #0
 458              		.cfi_offset 14, -4
 459              		.cfi_offset 7, -8
 460              	.LCFI7:
 461              		.cfi_def_cfa_register 7
 322:.\USBInterface.c ****     
 323:.\USBInterface.c ****     if(!USBFS_initVar)
 462              		.loc 1 323 0
 463 0004 40F20003 		movw	r3, #:lower16:USBFS_initVar
 464 0008 C0F20003 		movt	r3, #:upper16:USBFS_initVar
 465 000c 1B78     		ldrb	r3, [r3, #0]	@ zero_extendqisi2
 466 000e 002B     		cmp	r3, #0
 467 0010 13D1     		bne	.L27
 324:.\USBInterface.c ****     {  
 325:.\USBInterface.c ****         
 326:.\USBInterface.c **** 		/* Start the USB component when PC/Mac is connected */
 327:.\USBInterface.c ****         USBFS_Start(PC_MAC_AUDIO_WITH_VOLUME_DEVICE, USBFS_DWR_VDDD_OPERATION);
ARM GAS  C:\DOCUME~1\ADMINI~1\LOCALS~1\Temp\ccFLSOvL.s 			page 15


 468              		.loc 1 327 0
 469 0012 4FF00000 		mov	r0, #0
 470 0016 4FF00201 		mov	r1, #2
 471 001a FFF7FEFF 		bl	USBFS_Start
 328:.\USBInterface.c ****         USBDeviceState = USB_INIT_AFTER_ENUMERATION_REQUIRED;
 472              		.loc 1 328 0
 473 001e 40F20003 		movw	r3, #:lower16:USBDeviceState
 474 0022 C0F20003 		movt	r3, #:upper16:USBDeviceState
 475 0026 4FF00102 		mov	r2, #1
 476 002a 1A70     		strb	r2, [r3, #0]
 329:.\USBInterface.c ****         usbMiniBActive = TRUE;
 477              		.loc 1 329 0
 478 002c 40F20003 		movw	r3, #:lower16:usbMiniBActive
 479 0030 C0F20003 		movt	r3, #:upper16:usbMiniBActive
 480 0034 4FF00102 		mov	r2, #1
 481 0038 1A70     		strb	r2, [r3, #0]
 482              	.L27:
 330:.\USBInterface.c ****         
 331:.\USBInterface.c ****         /* USER_CODE: [USB Host connection] Placeholder for initializing components or external per
 332:.\USBInterface.c ****          * accessory is plugged into a USB Host (USB VBus = High) */
 333:.\USBInterface.c ****     }
 334:.\USBInterface.c **** 	
 335:.\USBInterface.c **** 		
 336:.\USBInterface.c **** }
 483              		.loc 1 336 0
 484 003a 80BD     		pop	{r7, pc}
 485              		.cfi_endproc
 486              	.LFE31:
 487              		.size	HandleUSBHostInterface, .-HandleUSBHostInterface
 488              		.text
 489              	.Letext0:
 490              		.section	.debug_loc,"",%progbits
 491              	.Ldebug_loc0:
 492              	.LLST0:
 493 0000 00000000 		.4byte	.LFB29
 494 0004 02000000 		.4byte	.LCFI0
 495 0008 0100     		.2byte	0x1
 496 000a 5D       		.byte	0x5d
 497 000b 02000000 		.4byte	.LCFI0
 498 000f 04000000 		.4byte	.LCFI1
 499 0013 0200     		.2byte	0x2
 500 0015 7D       		.byte	0x7d
 501 0016 0C       		.sleb128 12
 502 0017 04000000 		.4byte	.LCFI1
 503 001b 06000000 		.4byte	.LCFI2
 504 001f 0200     		.2byte	0x2
 505 0021 7D       		.byte	0x7d
 506 0022 18       		.sleb128 24
 507 0023 06000000 		.4byte	.LCFI2
 508 0027 04020000 		.4byte	.LFE29
 509 002b 0200     		.2byte	0x2
 510 002d 77       		.byte	0x77
 511 002e 18       		.sleb128 24
 512 002f 00000000 		.4byte	0x0
 513 0033 00000000 		.4byte	0x0
 514              	.LLST1:
 515 0037 00000000 		.4byte	.LFB30
ARM GAS  C:\DOCUME~1\ADMINI~1\LOCALS~1\Temp\ccFLSOvL.s 			page 16


 516 003b 02000000 		.4byte	.LCFI3
 517 003f 0100     		.2byte	0x1
 518 0041 5D       		.byte	0x5d
 519 0042 02000000 		.4byte	.LCFI3
 520 0046 04000000 		.4byte	.LCFI4
 521 004a 0200     		.2byte	0x2
 522 004c 7D       		.byte	0x7d
 523 004d 08       		.sleb128 8
 524 004e 04000000 		.4byte	.LCFI4
 525 0052 06000000 		.4byte	.LCFI5
 526 0056 0200     		.2byte	0x2
 527 0058 7D       		.byte	0x7d
 528 0059 10       		.sleb128 16
 529 005a 06000000 		.4byte	.LCFI5
 530 005e 16010000 		.4byte	.LFE30
 531 0062 0200     		.2byte	0x2
 532 0064 77       		.byte	0x77
 533 0065 10       		.sleb128 16
 534 0066 00000000 		.4byte	0x0
 535 006a 00000000 		.4byte	0x0
 536              	.LLST2:
 537 006e 00000000 		.4byte	.LFB31
 538 0072 02000000 		.4byte	.LCFI6
 539 0076 0100     		.2byte	0x1
 540 0078 5D       		.byte	0x5d
 541 0079 02000000 		.4byte	.LCFI6
 542 007d 04000000 		.4byte	.LCFI7
 543 0081 0200     		.2byte	0x2
 544 0083 7D       		.byte	0x7d
 545 0084 08       		.sleb128 8
 546 0085 04000000 		.4byte	.LCFI7
 547 0089 3C000000 		.4byte	.LFE31
 548 008d 0200     		.2byte	0x2
 549 008f 77       		.byte	0x77
 550 0090 08       		.sleb128 8
 551 0091 00000000 		.4byte	0x0
 552 0095 00000000 		.4byte	0x0
 553              		.file 2 "./Generated_Source/PSoC5/cytypes.h"
 554              		.file 3 "./Generated_Source/PSoC5/core_cm3.h"
 555              		.section	.debug_info
 556 0000 05020000 		.4byte	0x205
 557 0004 0200     		.2byte	0x2
 558 0006 00000000 		.4byte	.Ldebug_abbrev0
 559 000a 04       		.byte	0x4
 560 000b 01       		.uleb128 0x1
 561 000c 2B010000 		.4byte	.LASF30
 562 0010 01       		.byte	0x1
 563 0011 68000000 		.4byte	.LASF31
 564 0015 99010000 		.4byte	.LASF32
 565 0019 00000000 		.4byte	0x0
 566 001d 00000000 		.4byte	0x0
 567 0021 00000000 		.4byte	.Ldebug_ranges0+0x0
 568 0025 00000000 		.4byte	.Ldebug_line0
 569 0029 02       		.uleb128 0x2
 570 002a 01       		.byte	0x1
 571 002b 06       		.byte	0x6
 572 002c 17020000 		.4byte	.LASF0
ARM GAS  C:\DOCUME~1\ADMINI~1\LOCALS~1\Temp\ccFLSOvL.s 			page 17


 573 0030 02       		.uleb128 0x2
 574 0031 01       		.byte	0x1
 575 0032 08       		.byte	0x8
 576 0033 84000000 		.4byte	.LASF1
 577 0037 02       		.uleb128 0x2
 578 0038 02       		.byte	0x2
 579 0039 05       		.byte	0x5
 580 003a 72010000 		.4byte	.LASF2
 581 003e 02       		.uleb128 0x2
 582 003f 02       		.byte	0x2
 583 0040 07       		.byte	0x7
 584 0041 AA000000 		.4byte	.LASF3
 585 0045 02       		.uleb128 0x2
 586 0046 04       		.byte	0x4
 587 0047 05       		.byte	0x5
 588 0048 0E020000 		.4byte	.LASF4
 589 004c 02       		.uleb128 0x2
 590 004d 04       		.byte	0x4
 591 004e 07       		.byte	0x7
 592 004f 98000000 		.4byte	.LASF5
 593 0053 02       		.uleb128 0x2
 594 0054 08       		.byte	0x8
 595 0055 05       		.byte	0x5
 596 0056 00000000 		.4byte	.LASF6
 597 005a 02       		.uleb128 0x2
 598 005b 08       		.byte	0x8
 599 005c 07       		.byte	0x7
 600 005d 14010000 		.4byte	.LASF7
 601 0061 03       		.uleb128 0x3
 602 0062 04       		.byte	0x4
 603 0063 05       		.byte	0x5
 604 0064 696E7400 		.ascii	"int\000"
 605 0068 02       		.uleb128 0x2
 606 0069 04       		.byte	0x4
 607 006a 07       		.byte	0x7
 608 006b FB000000 		.4byte	.LASF8
 609 006f 04       		.uleb128 0x4
 610 0070 93010000 		.4byte	.LASF9
 611 0074 02       		.byte	0x2
 612 0075 4C       		.byte	0x4c
 613 0076 30000000 		.4byte	0x30
 614 007a 04       		.uleb128 0x4
 615 007b F4000000 		.4byte	.LASF10
 616 007f 02       		.byte	0x2
 617 0080 4D       		.byte	0x4d
 618 0081 3E000000 		.4byte	0x3e
 619 0085 02       		.uleb128 0x2
 620 0086 04       		.byte	0x4
 621 0087 04       		.byte	0x4
 622 0088 62000000 		.4byte	.LASF11
 623 008c 02       		.uleb128 0x2
 624 008d 08       		.byte	0x8
 625 008e 04       		.byte	0x4
 626 008f 3E000000 		.4byte	.LASF12
 627 0093 02       		.uleb128 0x2
 628 0094 01       		.byte	0x1
 629 0095 08       		.byte	0x8
ARM GAS  C:\DOCUME~1\ADMINI~1\LOCALS~1\Temp\ccFLSOvL.s 			page 18


 630 0096 4A010000 		.4byte	.LASF13
 631 009a 05       		.uleb128 0x5
 632 009b 6F000000 		.4byte	0x6f
 633 009f 06       		.uleb128 0x6
 634 00a0 04       		.byte	0x4
 635 00a1 07       		.byte	0x7
 636 00a2 07       		.uleb128 0x7
 637 00a3 01       		.byte	0x1
 638 00a4 DC000000 		.4byte	.LASF14
 639 00a8 01       		.byte	0x1
 640 00a9 59       		.byte	0x59
 641 00aa 01       		.byte	0x1
 642 00ab 00000000 		.4byte	.LFB29
 643 00af 04020000 		.4byte	.LFE29
 644 00b3 00000000 		.4byte	.LLST0
 645 00b7 D4000000 		.4byte	0xd4
 646 00bb 08       		.uleb128 0x8
 647 00bc 30000000 		.4byte	.LBB2
 648 00c0 A2000000 		.4byte	.LBE2
 649 00c4 09       		.uleb128 0x9
 650 00c5 4F010000 		.4byte	.LASF16
 651 00c9 01       		.byte	0x1
 652 00ca 64       		.byte	0x64
 653 00cb 7A000000 		.4byte	0x7a
 654 00cf 02       		.byte	0x2
 655 00d0 91       		.byte	0x91
 656 00d1 6E       		.sleb128 -18
 657 00d2 00       		.byte	0x0
 658 00d3 00       		.byte	0x0
 659 00d4 07       		.uleb128 0x7
 660 00d5 01       		.byte	0x1
 661 00d6 CA000000 		.4byte	.LASF15
 662 00da 01       		.byte	0x1
 663 00db D8       		.byte	0xd8
 664 00dc 01       		.byte	0x1
 665 00dd 00000000 		.4byte	.LFB30
 666 00e1 16010000 		.4byte	.LFE30
 667 00e5 37000000 		.4byte	.LLST1
 668 00e9 FC000000 		.4byte	0xfc
 669 00ed 09       		.uleb128 0x9
 670 00ee 08010000 		.4byte	.LASF17
 671 00f2 01       		.byte	0x1
 672 00f3 DA       		.byte	0xda
 673 00f4 6F000000 		.4byte	0x6f
 674 00f8 02       		.byte	0x2
 675 00f9 91       		.byte	0x91
 676 00fa 77       		.sleb128 -9
 677 00fb 00       		.byte	0x0
 678 00fc 0A       		.uleb128 0xa
 679 00fd 01       		.byte	0x1
 680 00fe 7C010000 		.4byte	.LASF33
 681 0102 01       		.byte	0x1
 682 0103 4001     		.2byte	0x140
 683 0105 01       		.byte	0x1
 684 0106 00000000 		.4byte	.LFB31
 685 010a 3C000000 		.4byte	.LFE31
 686 010e 6E000000 		.4byte	.LLST2
ARM GAS  C:\DOCUME~1\ADMINI~1\LOCALS~1\Temp\ccFLSOvL.s 			page 19


 687 0112 0B       		.uleb128 0xb
 688 0113 BD000000 		.4byte	.LASF18
 689 0117 03       		.byte	0x3
 690 0118 CE06     		.2byte	0x6ce
 691 011a 20010000 		.4byte	0x120
 692 011e 01       		.byte	0x1
 693 011f 01       		.byte	0x1
 694 0120 05       		.uleb128 0x5
 695 0121 61000000 		.4byte	0x61
 696 0125 0C       		.uleb128 0xc
 697 0126 53000000 		.4byte	.LASF19
 698 012a 01       		.byte	0x1
 699 012b 3A       		.byte	0x3a
 700 012c 6F000000 		.4byte	0x6f
 701 0130 01       		.byte	0x1
 702 0131 05       		.byte	0x5
 703 0132 03       		.byte	0x3
 704 0133 00000000 		.4byte	usbMiniBActive
 705 0137 0C       		.uleb128 0xc
 706 0138 14000000 		.4byte	.LASF20
 707 013c 01       		.byte	0x1
 708 013d 3B       		.byte	0x3b
 709 013e 6F000000 		.4byte	0x6f
 710 0142 01       		.byte	0x1
 711 0143 05       		.byte	0x5
 712 0144 03       		.byte	0x3
 713 0145 00000000 		.4byte	USBDeviceState
 714 0149 0D       		.uleb128 0xd
 715 014a E7000000 		.4byte	.LASF21
 716 014e 01       		.byte	0x1
 717 014f 2B       		.byte	0x2b
 718 0150 6F000000 		.4byte	0x6f
 719 0154 01       		.byte	0x1
 720 0155 01       		.byte	0x1
 721 0156 0D       		.uleb128 0xd
 722 0157 45000000 		.4byte	.LASF22
 723 015b 01       		.byte	0x1
 724 015c 2D       		.byte	0x2d
 725 015d 6F000000 		.4byte	0x6f
 726 0161 01       		.byte	0x1
 727 0162 01       		.byte	0x1
 728 0163 0D       		.uleb128 0xd
 729 0164 5C010000 		.4byte	.LASF23
 730 0168 01       		.byte	0x1
 731 0169 2E       		.byte	0x2e
 732 016a 6F000000 		.4byte	0x6f
 733 016e 01       		.byte	0x1
 734 016f 01       		.byte	0x1
 735 0170 0D       		.uleb128 0xd
 736 0171 23000000 		.4byte	.LASF24
 737 0175 01       		.byte	0x1
 738 0176 33       		.byte	0x33
 739 0177 9A000000 		.4byte	0x9a
 740 017b 01       		.byte	0x1
 741 017c 01       		.byte	0x1
 742 017d 0C       		.uleb128 0xc
 743 017e 37010000 		.4byte	.LASF25
ARM GAS  C:\DOCUME~1\ADMINI~1\LOCALS~1\Temp\ccFLSOvL.s 			page 20


 744 0182 01       		.byte	0x1
 745 0183 39       		.byte	0x39
 746 0184 6F000000 		.4byte	0x6f
 747 0188 01       		.byte	0x1
 748 0189 05       		.byte	0x5
 749 018a 03       		.byte	0x3
 750 018b 00000000 		.4byte	usbActivityCounter
 751 018f 0E       		.uleb128 0xe
 752 0190 6F000000 		.4byte	0x6f
 753 0194 A0010000 		.4byte	0x1a0
 754 0198 0F       		.uleb128 0xf
 755 0199 9F000000 		.4byte	0x9f
 756 019d 1F01     		.2byte	0x11f
 757 019f 00       		.byte	0x0
 758 01a0 0C       		.uleb128 0xc
 759 01a1 55010000 		.4byte	.LASF26
 760 01a5 01       		.byte	0x1
 761 01a6 3F       		.byte	0x3f
 762 01a7 8F010000 		.4byte	0x18f
 763 01ab 01       		.byte	0x1
 764 01ac 05       		.byte	0x5
 765 01ad 03       		.byte	0x3
 766 01ae 00000000 		.4byte	outRam
 767 01b2 0E       		.uleb128 0xe
 768 01b3 6F000000 		.4byte	0x6f
 769 01b7 C2010000 		.4byte	0x1c2
 770 01bb 10       		.uleb128 0x10
 771 01bc 9F000000 		.4byte	0x9f
 772 01c0 BF       		.byte	0xbf
 773 01c1 00       		.byte	0x0
 774 01c2 0C       		.uleb128 0xc
 775 01c3 92000000 		.4byte	.LASF27
 776 01c7 01       		.byte	0x1
 777 01c8 43       		.byte	0x43
 778 01c9 B2010000 		.4byte	0x1b2
 779 01cd 01       		.byte	0x1
 780 01ce 05       		.byte	0x5
 781 01cf 03       		.byte	0x3
 782 01d0 00000000 		.4byte	inRam
 783 01d4 0C       		.uleb128 0xc
 784 01d5 0E000000 		.4byte	.LASF28
 785 01d9 01       		.byte	0x1
 786 01da 44       		.byte	0x44
 787 01db 7A000000 		.4byte	0x7a
 788 01df 01       		.byte	0x1
 789 01e0 05       		.byte	0x5
 790 01e1 03       		.byte	0x3
 791 01e2 00000000 		.4byte	inCnt
 792 01e6 0E       		.uleb128 0xe
 793 01e7 6F000000 		.4byte	0x6f
 794 01eb F6010000 		.4byte	0x1f6
 795 01ef 10       		.uleb128 0x10
 796 01f0 9F000000 		.4byte	0x9f
 797 01f4 01       		.byte	0x1
 798 01f5 00       		.byte	0x0
 799 01f6 0C       		.uleb128 0xc
 800 01f7 79000000 		.4byte	.LASF29
ARM GAS  C:\DOCUME~1\ADMINI~1\LOCALS~1\Temp\ccFLSOvL.s 			page 21


 801 01fb 01       		.byte	0x1
 802 01fc 48       		.byte	0x48
 803 01fd E6010000 		.4byte	0x1e6
 804 0201 01       		.byte	0x1
 805 0202 05       		.byte	0x5
 806 0203 03       		.byte	0x3
 807 0204 00000000 		.4byte	altSetting
 808 0208 00       		.byte	0x0
 809              		.section	.debug_abbrev
 810 0000 01       		.uleb128 0x1
 811 0001 11       		.uleb128 0x11
 812 0002 01       		.byte	0x1
 813 0003 25       		.uleb128 0x25
 814 0004 0E       		.uleb128 0xe
 815 0005 13       		.uleb128 0x13
 816 0006 0B       		.uleb128 0xb
 817 0007 03       		.uleb128 0x3
 818 0008 0E       		.uleb128 0xe
 819 0009 1B       		.uleb128 0x1b
 820 000a 0E       		.uleb128 0xe
 821 000b 11       		.uleb128 0x11
 822 000c 01       		.uleb128 0x1
 823 000d 52       		.uleb128 0x52
 824 000e 01       		.uleb128 0x1
 825 000f 55       		.uleb128 0x55
 826 0010 06       		.uleb128 0x6
 827 0011 10       		.uleb128 0x10
 828 0012 06       		.uleb128 0x6
 829 0013 00       		.byte	0x0
 830 0014 00       		.byte	0x0
 831 0015 02       		.uleb128 0x2
 832 0016 24       		.uleb128 0x24
 833 0017 00       		.byte	0x0
 834 0018 0B       		.uleb128 0xb
 835 0019 0B       		.uleb128 0xb
 836 001a 3E       		.uleb128 0x3e
 837 001b 0B       		.uleb128 0xb
 838 001c 03       		.uleb128 0x3
 839 001d 0E       		.uleb128 0xe
 840 001e 00       		.byte	0x0
 841 001f 00       		.byte	0x0
 842 0020 03       		.uleb128 0x3
 843 0021 24       		.uleb128 0x24
 844 0022 00       		.byte	0x0
 845 0023 0B       		.uleb128 0xb
 846 0024 0B       		.uleb128 0xb
 847 0025 3E       		.uleb128 0x3e
 848 0026 0B       		.uleb128 0xb
 849 0027 03       		.uleb128 0x3
 850 0028 08       		.uleb128 0x8
 851 0029 00       		.byte	0x0
 852 002a 00       		.byte	0x0
 853 002b 04       		.uleb128 0x4
 854 002c 16       		.uleb128 0x16
 855 002d 00       		.byte	0x0
 856 002e 03       		.uleb128 0x3
 857 002f 0E       		.uleb128 0xe
ARM GAS  C:\DOCUME~1\ADMINI~1\LOCALS~1\Temp\ccFLSOvL.s 			page 22


 858 0030 3A       		.uleb128 0x3a
 859 0031 0B       		.uleb128 0xb
 860 0032 3B       		.uleb128 0x3b
 861 0033 0B       		.uleb128 0xb
 862 0034 49       		.uleb128 0x49
 863 0035 13       		.uleb128 0x13
 864 0036 00       		.byte	0x0
 865 0037 00       		.byte	0x0
 866 0038 05       		.uleb128 0x5
 867 0039 35       		.uleb128 0x35
 868 003a 00       		.byte	0x0
 869 003b 49       		.uleb128 0x49
 870 003c 13       		.uleb128 0x13
 871 003d 00       		.byte	0x0
 872 003e 00       		.byte	0x0
 873 003f 06       		.uleb128 0x6
 874 0040 24       		.uleb128 0x24
 875 0041 00       		.byte	0x0
 876 0042 0B       		.uleb128 0xb
 877 0043 0B       		.uleb128 0xb
 878 0044 3E       		.uleb128 0x3e
 879 0045 0B       		.uleb128 0xb
 880 0046 00       		.byte	0x0
 881 0047 00       		.byte	0x0
 882 0048 07       		.uleb128 0x7
 883 0049 2E       		.uleb128 0x2e
 884 004a 01       		.byte	0x1
 885 004b 3F       		.uleb128 0x3f
 886 004c 0C       		.uleb128 0xc
 887 004d 03       		.uleb128 0x3
 888 004e 0E       		.uleb128 0xe
 889 004f 3A       		.uleb128 0x3a
 890 0050 0B       		.uleb128 0xb
 891 0051 3B       		.uleb128 0x3b
 892 0052 0B       		.uleb128 0xb
 893 0053 27       		.uleb128 0x27
 894 0054 0C       		.uleb128 0xc
 895 0055 11       		.uleb128 0x11
 896 0056 01       		.uleb128 0x1
 897 0057 12       		.uleb128 0x12
 898 0058 01       		.uleb128 0x1
 899 0059 40       		.uleb128 0x40
 900 005a 06       		.uleb128 0x6
 901 005b 01       		.uleb128 0x1
 902 005c 13       		.uleb128 0x13
 903 005d 00       		.byte	0x0
 904 005e 00       		.byte	0x0
 905 005f 08       		.uleb128 0x8
 906 0060 0B       		.uleb128 0xb
 907 0061 01       		.byte	0x1
 908 0062 11       		.uleb128 0x11
 909 0063 01       		.uleb128 0x1
 910 0064 12       		.uleb128 0x12
 911 0065 01       		.uleb128 0x1
 912 0066 00       		.byte	0x0
 913 0067 00       		.byte	0x0
 914 0068 09       		.uleb128 0x9
ARM GAS  C:\DOCUME~1\ADMINI~1\LOCALS~1\Temp\ccFLSOvL.s 			page 23


 915 0069 34       		.uleb128 0x34
 916 006a 00       		.byte	0x0
 917 006b 03       		.uleb128 0x3
 918 006c 0E       		.uleb128 0xe
 919 006d 3A       		.uleb128 0x3a
 920 006e 0B       		.uleb128 0xb
 921 006f 3B       		.uleb128 0x3b
 922 0070 0B       		.uleb128 0xb
 923 0071 49       		.uleb128 0x49
 924 0072 13       		.uleb128 0x13
 925 0073 02       		.uleb128 0x2
 926 0074 0A       		.uleb128 0xa
 927 0075 00       		.byte	0x0
 928 0076 00       		.byte	0x0
 929 0077 0A       		.uleb128 0xa
 930 0078 2E       		.uleb128 0x2e
 931 0079 00       		.byte	0x0
 932 007a 3F       		.uleb128 0x3f
 933 007b 0C       		.uleb128 0xc
 934 007c 03       		.uleb128 0x3
 935 007d 0E       		.uleb128 0xe
 936 007e 3A       		.uleb128 0x3a
 937 007f 0B       		.uleb128 0xb
 938 0080 3B       		.uleb128 0x3b
 939 0081 05       		.uleb128 0x5
 940 0082 27       		.uleb128 0x27
 941 0083 0C       		.uleb128 0xc
 942 0084 11       		.uleb128 0x11
 943 0085 01       		.uleb128 0x1
 944 0086 12       		.uleb128 0x12
 945 0087 01       		.uleb128 0x1
 946 0088 40       		.uleb128 0x40
 947 0089 06       		.uleb128 0x6
 948 008a 00       		.byte	0x0
 949 008b 00       		.byte	0x0
 950 008c 0B       		.uleb128 0xb
 951 008d 34       		.uleb128 0x34
 952 008e 00       		.byte	0x0
 953 008f 03       		.uleb128 0x3
 954 0090 0E       		.uleb128 0xe
 955 0091 3A       		.uleb128 0x3a
 956 0092 0B       		.uleb128 0xb
 957 0093 3B       		.uleb128 0x3b
 958 0094 05       		.uleb128 0x5
 959 0095 49       		.uleb128 0x49
 960 0096 13       		.uleb128 0x13
 961 0097 3F       		.uleb128 0x3f
 962 0098 0C       		.uleb128 0xc
 963 0099 3C       		.uleb128 0x3c
 964 009a 0C       		.uleb128 0xc
 965 009b 00       		.byte	0x0
 966 009c 00       		.byte	0x0
 967 009d 0C       		.uleb128 0xc
 968 009e 34       		.uleb128 0x34
 969 009f 00       		.byte	0x0
 970 00a0 03       		.uleb128 0x3
 971 00a1 0E       		.uleb128 0xe
ARM GAS  C:\DOCUME~1\ADMINI~1\LOCALS~1\Temp\ccFLSOvL.s 			page 24


 972 00a2 3A       		.uleb128 0x3a
 973 00a3 0B       		.uleb128 0xb
 974 00a4 3B       		.uleb128 0x3b
 975 00a5 0B       		.uleb128 0xb
 976 00a6 49       		.uleb128 0x49
 977 00a7 13       		.uleb128 0x13
 978 00a8 3F       		.uleb128 0x3f
 979 00a9 0C       		.uleb128 0xc
 980 00aa 02       		.uleb128 0x2
 981 00ab 0A       		.uleb128 0xa
 982 00ac 00       		.byte	0x0
 983 00ad 00       		.byte	0x0
 984 00ae 0D       		.uleb128 0xd
 985 00af 34       		.uleb128 0x34
 986 00b0 00       		.byte	0x0
 987 00b1 03       		.uleb128 0x3
 988 00b2 0E       		.uleb128 0xe
 989 00b3 3A       		.uleb128 0x3a
 990 00b4 0B       		.uleb128 0xb
 991 00b5 3B       		.uleb128 0x3b
 992 00b6 0B       		.uleb128 0xb
 993 00b7 49       		.uleb128 0x49
 994 00b8 13       		.uleb128 0x13
 995 00b9 3F       		.uleb128 0x3f
 996 00ba 0C       		.uleb128 0xc
 997 00bb 3C       		.uleb128 0x3c
 998 00bc 0C       		.uleb128 0xc
 999 00bd 00       		.byte	0x0
 1000 00be 00       		.byte	0x0
 1001 00bf 0E       		.uleb128 0xe
 1002 00c0 01       		.uleb128 0x1
 1003 00c1 01       		.byte	0x1
 1004 00c2 49       		.uleb128 0x49
 1005 00c3 13       		.uleb128 0x13
 1006 00c4 01       		.uleb128 0x1
 1007 00c5 13       		.uleb128 0x13
 1008 00c6 00       		.byte	0x0
 1009 00c7 00       		.byte	0x0
 1010 00c8 0F       		.uleb128 0xf
 1011 00c9 21       		.uleb128 0x21
 1012 00ca 00       		.byte	0x0
 1013 00cb 49       		.uleb128 0x49
 1014 00cc 13       		.uleb128 0x13
 1015 00cd 2F       		.uleb128 0x2f
 1016 00ce 05       		.uleb128 0x5
 1017 00cf 00       		.byte	0x0
 1018 00d0 00       		.byte	0x0
 1019 00d1 10       		.uleb128 0x10
 1020 00d2 21       		.uleb128 0x21
 1021 00d3 00       		.byte	0x0
 1022 00d4 49       		.uleb128 0x49
 1023 00d5 13       		.uleb128 0x13
 1024 00d6 2F       		.uleb128 0x2f
 1025 00d7 0B       		.uleb128 0xb
 1026 00d8 00       		.byte	0x0
 1027 00d9 00       		.byte	0x0
 1028 00da 00       		.byte	0x0
ARM GAS  C:\DOCUME~1\ADMINI~1\LOCALS~1\Temp\ccFLSOvL.s 			page 25


 1029              		.section	.debug_pubnames,"",%progbits
 1030 0000 B9000000 		.4byte	0xb9
 1031 0004 0200     		.2byte	0x2
 1032 0006 00000000 		.4byte	.Ldebug_info0
 1033 000a 09020000 		.4byte	0x209
 1034 000e A2000000 		.4byte	0xa2
 1035 0012 53657276 		.ascii	"ServiceUSB\000"
 1035      69636555 
 1035      534200
 1036 001d D4000000 		.4byte	0xd4
 1037 0021 53657276 		.ascii	"ServiceUSBSuspend\000"
 1037      69636555 
 1037      53425375 
 1037      7370656E 
 1037      6400
 1038 0033 FC000000 		.4byte	0xfc
 1039 0037 48616E64 		.ascii	"HandleUSBHostInterface\000"
 1039      6C655553 
 1039      42486F73 
 1039      74496E74 
 1039      65726661 
 1040 004e 25010000 		.4byte	0x125
 1041 0052 7573624D 		.ascii	"usbMiniBActive\000"
 1041      696E6942 
 1041      41637469 
 1041      766500
 1042 0061 37010000 		.4byte	0x137
 1043 0065 55534244 		.ascii	"USBDeviceState\000"
 1043      65766963 
 1043      65537461 
 1043      746500
 1044 0074 7D010000 		.4byte	0x17d
 1045 0078 75736241 		.ascii	"usbActivityCounter\000"
 1045      63746976 
 1045      69747943 
 1045      6F756E74 
 1045      657200
 1046 008b A0010000 		.4byte	0x1a0
 1047 008f 6F757452 		.ascii	"outRam\000"
 1047      616D00
 1048 0096 C2010000 		.4byte	0x1c2
 1049 009a 696E5261 		.ascii	"inRam\000"
 1049      6D00
 1050 00a0 D4010000 		.4byte	0x1d4
 1051 00a4 696E436E 		.ascii	"inCnt\000"
 1051      7400
 1052 00aa F6010000 		.4byte	0x1f6
 1053 00ae 616C7453 		.ascii	"altSetting\000"
 1053      65747469 
 1053      6E6700
 1054 00b9 00000000 		.4byte	0x0
 1055              		.section	.debug_aranges,"",%progbits
 1056 0000 2C000000 		.4byte	0x2c
 1057 0004 0200     		.2byte	0x2
 1058 0006 00000000 		.4byte	.Ldebug_info0
 1059 000a 04       		.byte	0x4
 1060 000b 00       		.byte	0x0
ARM GAS  C:\DOCUME~1\ADMINI~1\LOCALS~1\Temp\ccFLSOvL.s 			page 26


 1061 000c 0000     		.2byte	0x0
 1062 000e 0000     		.2byte	0x0
 1063 0010 00000000 		.4byte	.LFB29
 1064 0014 04020000 		.4byte	.LFE29-.LFB29
 1065 0018 00000000 		.4byte	.LFB30
 1066 001c 16010000 		.4byte	.LFE30-.LFB30
 1067 0020 00000000 		.4byte	.LFB31
 1068 0024 3C000000 		.4byte	.LFE31-.LFB31
 1069 0028 00000000 		.4byte	0x0
 1070 002c 00000000 		.4byte	0x0
 1071              		.section	.debug_ranges,"",%progbits
 1072              	.Ldebug_ranges0:
 1073 0000 00000000 		.4byte	.Ltext0
 1074 0004 00000000 		.4byte	.Letext0
 1075 0008 00000000 		.4byte	.LFB29
 1076 000c 04020000 		.4byte	.LFE29
 1077 0010 00000000 		.4byte	.LFB30
 1078 0014 16010000 		.4byte	.LFE30
 1079 0018 00000000 		.4byte	.LFB31
 1080 001c 3C000000 		.4byte	.LFE31
 1081 0020 00000000 		.4byte	0x0
 1082 0024 00000000 		.4byte	0x0
 1083              		.section	.debug_str,"MS",%progbits,1
 1084              	.LASF6:
 1085 0000 6C6F6E67 		.ascii	"long long int\000"
 1085      206C6F6E 
 1085      6720696E 
 1085      7400
 1086              	.LASF28:
 1087 000e 696E436E 		.ascii	"inCnt\000"
 1087      7400
 1088              	.LASF20:
 1089 0014 55534244 		.ascii	"USBDeviceState\000"
 1089      65766963 
 1089      65537461 
 1089      746500
 1090              	.LASF24:
 1091 0023 55534246 		.ascii	"USBFS_configurationChanged\000"
 1091      535F636F 
 1091      6E666967 
 1091      75726174 
 1091      696F6E43 
 1092              	.LASF12:
 1093 003e 646F7562 		.ascii	"double\000"
 1093      6C6500
 1094              	.LASF22:
 1095 0045 55534246 		.ascii	"USBFS_initVar\000"
 1095      535F696E 
 1095      69745661 
 1095      7200
 1096              	.LASF19:
 1097 0053 7573624D 		.ascii	"usbMiniBActive\000"
 1097      696E6942 
 1097      41637469 
 1097      766500
 1098              	.LASF11:
 1099 0062 666C6F61 		.ascii	"float\000"
ARM GAS  C:\DOCUME~1\ADMINI~1\LOCALS~1\Temp\ccFLSOvL.s 			page 27


 1099      7400
 1100              	.LASF31:
 1101 0068 2E5C5553 		.ascii	".\\USBInterface.c\000"
 1101      42496E74 
 1101      65726661 
 1101      63652E63 
 1101      00
 1102              	.LASF29:
 1103 0079 616C7453 		.ascii	"altSetting\000"
 1103      65747469 
 1103      6E6700
 1104              	.LASF1:
 1105 0084 756E7369 		.ascii	"unsigned char\000"
 1105      676E6564 
 1105      20636861 
 1105      7200
 1106              	.LASF27:
 1107 0092 696E5261 		.ascii	"inRam\000"
 1107      6D00
 1108              	.LASF5:
 1109 0098 6C6F6E67 		.ascii	"long unsigned int\000"
 1109      20756E73 
 1109      69676E65 
 1109      6420696E 
 1109      7400
 1110              	.LASF3:
 1111 00aa 73686F72 		.ascii	"short unsigned int\000"
 1111      7420756E 
 1111      7369676E 
 1111      65642069 
 1111      6E7400
 1112              	.LASF18:
 1113 00bd 49544D5F 		.ascii	"ITM_RxBuffer\000"
 1113      52784275 
 1113      66666572 
 1113      00
 1114              	.LASF15:
 1115 00ca 53657276 		.ascii	"ServiceUSBSuspend\000"
 1115      69636555 
 1115      53425375 
 1115      7370656E 
 1115      6400
 1116              	.LASF14:
 1117 00dc 53657276 		.ascii	"ServiceUSB\000"
 1117      69636555 
 1117      534200
 1118              	.LASF21:
 1119 00e7 6C6F7750 		.ascii	"lowPowerIdle\000"
 1119      6F776572 
 1119      49646C65 
 1119      00
 1120              	.LASF10:
 1121 00f4 75696E74 		.ascii	"uint16\000"
 1121      313600
 1122              	.LASF8:
 1123 00fb 756E7369 		.ascii	"unsigned int\000"
 1123      676E6564 
ARM GAS  C:\DOCUME~1\ADMINI~1\LOCALS~1\Temp\ccFLSOvL.s 			page 28


 1123      20696E74 
 1123      00
 1124              	.LASF17:
 1125 0108 6C656442 		.ascii	"ledBlinkCnt\000"
 1125      6C696E6B 
 1125      436E7400 
 1126              	.LASF7:
 1127 0114 6C6F6E67 		.ascii	"long long unsigned int\000"
 1127      206C6F6E 
 1127      6720756E 
 1127      7369676E 
 1127      65642069 
 1128              	.LASF30:
 1129 012b 474E5520 		.ascii	"GNU C 4.4.1\000"
 1129      4320342E 
 1129      342E3100 
 1130              	.LASF25:
 1131 0137 75736241 		.ascii	"usbActivityCounter\000"
 1131      63746976 
 1131      69747943 
 1131      6F756E74 
 1131      657200
 1132              	.LASF13:
 1133 014a 63686172 		.ascii	"char\000"
 1133      00
 1134              	.LASF16:
 1135 014f 696E6465 		.ascii	"index\000"
 1135      7800
 1136              	.LASF26:
 1137 0155 6F757452 		.ascii	"outRam\000"
 1137      616D00
 1138              	.LASF23:
 1139 015c 706C6179 		.ascii	"playlistControlReport\000"
 1139      6C697374 
 1139      436F6E74 
 1139      726F6C52 
 1139      65706F72 
 1140              	.LASF2:
 1141 0172 73686F72 		.ascii	"short int\000"
 1141      7420696E 
 1141      7400
 1142              	.LASF33:
 1143 017c 48616E64 		.ascii	"HandleUSBHostInterface\000"
 1143      6C655553 
 1143      42486F73 
 1143      74496E74 
 1143      65726661 
 1144              	.LASF9:
 1145 0193 75696E74 		.ascii	"uint8\000"
 1145      3800
 1146              	.LASF32:
 1147 0199 5C5C7073 		.ascii	"\\\\psf\\Home\\Desktop\\PSOC5LP dev\\non-boot-bit-s"
 1147      665C486F 
 1147      6D655C44 
 1147      65736B74 
 1147      6F705C50 
 1148 01c6 68696674 		.ascii	"hift-CY8C5667\\PioneerKit_P5LP_USB_Audio\\PioneerKi"
ARM GAS  C:\DOCUME~1\ADMINI~1\LOCALS~1\Temp\ccFLSOvL.s 			page 29


 1148      2D435938 
 1148      43353636 
 1148      375C5069 
 1148      6F6E6565 
 1149 01f7 745F5035 		.ascii	"t_P5LP_USB_Audio.cydsn\000"
 1149      4C505F55 
 1149      53425F41 
 1149      7564696F 
 1149      2E637964 
 1150              	.LASF4:
 1151 020e 6C6F6E67 		.ascii	"long int\000"
 1151      20696E74 
 1151      00
 1152              	.LASF0:
 1153 0217 7369676E 		.ascii	"signed char\000"
 1153      65642063 
 1153      68617200 
 1154              		.ident	"GCC: (Sourcery G++ Lite 2010q1-188) 4.4.1"
