ARM GAS  C:\DOCUME~1\ADMINI~1\LOCALS~1\Temp\ccfNfb5I.s 			page 1


   1              		.syntax unified
   2              		.cpu cortex-m3
   3              		.fpu softvfp
   4              		.eabi_attribute 20, 1
   5              		.eabi_attribute 21, 1
   6              		.eabi_attribute 23, 3
   7              		.eabi_attribute 24, 1
   8              		.eabi_attribute 25, 1
   9              		.eabi_attribute 26, 1
  10              		.eabi_attribute 30, 6
  11              		.eabi_attribute 18, 4
  12              		.thumb
  13              		.file	"ADC_Voltage_Target.c"
  14              		.section	.debug_abbrev,"",%progbits
  15              	.Ldebug_abbrev0:
  16              		.section	.debug_info,"",%progbits
  17              	.Ldebug_info0:
  18              		.section	.debug_line,"",%progbits
  19              	.Ldebug_line0:
  20 0000 55030000 		.text
  20      02006B00 
  20      00000201 
  20      FB0E0D00 
  20      01010101 
  21              	.Ltext0:
  22              		.cfi_sections	.debug_frame
  23              		.global	ADC_Voltage_Target_convDone
  24              		.bss
  25              		.type	ADC_Voltage_Target_convDone, %object
  26              		.size	ADC_Voltage_Target_convDone, 1
  27              	ADC_Voltage_Target_convDone:
  28 0000 00       		.space	1
  29              		.global	ADC_Voltage_Target_stopConversion
  30              		.type	ADC_Voltage_Target_stopConversion, %object
  31              		.size	ADC_Voltage_Target_stopConversion, 1
  32              	ADC_Voltage_Target_stopConversion:
  33 0001 00       		.space	1
  34              		.global	ADC_Voltage_Target_initVar
  35              		.type	ADC_Voltage_Target_initVar, %object
  36              		.size	ADC_Voltage_Target_initVar, 1
  37              	ADC_Voltage_Target_initVar:
  38 0002 00       		.space	1
  39              		.global	ADC_Voltage_Target_started
  40              		.type	ADC_Voltage_Target_started, %object
  41              		.size	ADC_Voltage_Target_started, 1
  42              	ADC_Voltage_Target_started:
  43 0003 00       		.space	1
  44              		.global	ADC_Voltage_Target_Config
  45              		.data
  46              		.type	ADC_Voltage_Target_Config, %object
  47              		.size	ADC_Voltage_Target_Config, 1
  48              	ADC_Voltage_Target_Config:
  49 0000 01       		.byte	1
  50              		.global	ADC_Voltage_Target_Offset
  51              		.bss
  52              		.align	2
  53              		.type	ADC_Voltage_Target_Offset, %object
ARM GAS  C:\DOCUME~1\ADMINI~1\LOCALS~1\Temp\ccfNfb5I.s 			page 2


  54              		.size	ADC_Voltage_Target_Offset, 4
  55              	ADC_Voltage_Target_Offset:
  56 0004 00000000 		.space	4
  57              		.global	ADC_Voltage_Target_CountsPerVolt
  58              		.data
  59 0001 000000   		.align	2
  60              		.type	ADC_Voltage_Target_CountsPerVolt, %object
  61              		.size	ADC_Voltage_Target_CountsPerVolt, 4
  62              	ADC_Voltage_Target_CountsPerVolt:
  63 0004 33030000 		.word	819
  64              		.section	.text.ADC_Voltage_Target_Init,"ax",%progbits
  65              		.align	2
  66              		.global	ADC_Voltage_Target_Init
  67              		.thumb
  68              		.thumb_func
  69              		.type	ADC_Voltage_Target_Init, %function
  70              	ADC_Voltage_Target_Init:
  71              	.LFB0:
  72              		.file 1 ".\\Generated_Source\\PSoC5\\ADC_Voltage_Target.c"
   1:.\Generated_Source\PSoC5/ADC_Voltage_Target.c **** /*******************************************************************************
   2:.\Generated_Source\PSoC5/ADC_Voltage_Target.c **** * File Name: ADC_Voltage_Target.c  
   3:.\Generated_Source\PSoC5/ADC_Voltage_Target.c **** * Version 2.30
   4:.\Generated_Source\PSoC5/ADC_Voltage_Target.c **** *
   5:.\Generated_Source\PSoC5/ADC_Voltage_Target.c **** * Description:
   6:.\Generated_Source\PSoC5/ADC_Voltage_Target.c **** *  This file provides the source code to the API for the Delta-Sigma ADC
   7:.\Generated_Source\PSoC5/ADC_Voltage_Target.c **** *  Component.
   8:.\Generated_Source\PSoC5/ADC_Voltage_Target.c **** *
   9:.\Generated_Source\PSoC5/ADC_Voltage_Target.c **** * Note:
  10:.\Generated_Source\PSoC5/ADC_Voltage_Target.c **** *
  11:.\Generated_Source\PSoC5/ADC_Voltage_Target.c **** *******************************************************************************
  12:.\Generated_Source\PSoC5/ADC_Voltage_Target.c **** * Copyright 2008-2012, Cypress Semiconductor Corporation.  All rights reserved.
  13:.\Generated_Source\PSoC5/ADC_Voltage_Target.c **** * You may use this file only in accordance with the license, terms, conditions, 
  14:.\Generated_Source\PSoC5/ADC_Voltage_Target.c **** * disclaimers, and limitations in the end user license agreement accompanying 
  15:.\Generated_Source\PSoC5/ADC_Voltage_Target.c **** * the software package with which this file was provided.
  16:.\Generated_Source\PSoC5/ADC_Voltage_Target.c **** ********************************************************************************/
  17:.\Generated_Source\PSoC5/ADC_Voltage_Target.c **** 
  18:.\Generated_Source\PSoC5/ADC_Voltage_Target.c **** #include "ADC_Voltage_Target.h"
  19:.\Generated_Source\PSoC5/ADC_Voltage_Target.c **** 
  20:.\Generated_Source\PSoC5/ADC_Voltage_Target.c **** #if(ADC_Voltage_Target_DEFAULT_INTERNAL_CLK)
  21:.\Generated_Source\PSoC5/ADC_Voltage_Target.c ****     #include "ADC_Voltage_Target_theACLK.h"
  22:.\Generated_Source\PSoC5/ADC_Voltage_Target.c **** #endif /* ADC_Voltage_Target_DEFAULT_INTERNAL_CLK */
  23:.\Generated_Source\PSoC5/ADC_Voltage_Target.c **** 
  24:.\Generated_Source\PSoC5/ADC_Voltage_Target.c **** #include "ADC_Voltage_Target_Ext_CP_Clk.h"
  25:.\Generated_Source\PSoC5/ADC_Voltage_Target.c **** 
  26:.\Generated_Source\PSoC5/ADC_Voltage_Target.c **** #if(ADC_Voltage_Target_DEFAULT_INPUT_MODE)
  27:.\Generated_Source\PSoC5/ADC_Voltage_Target.c ****     #include "ADC_Voltage_Target_AMux.h"
  28:.\Generated_Source\PSoC5/ADC_Voltage_Target.c **** #endif /* ADC_Voltage_Target_DEFAULT_INPUT_MODE */
  29:.\Generated_Source\PSoC5/ADC_Voltage_Target.c **** 
  30:.\Generated_Source\PSoC5/ADC_Voltage_Target.c **** /* Software flag for checking conversion completed or not */
  31:.\Generated_Source\PSoC5/ADC_Voltage_Target.c **** volatile uint8 ADC_Voltage_Target_convDone = 0u;
  32:.\Generated_Source\PSoC5/ADC_Voltage_Target.c **** 
  33:.\Generated_Source\PSoC5/ADC_Voltage_Target.c **** /* Software flag to stop conversion for single sample conversion mode 
  34:.\Generated_Source\PSoC5/ADC_Voltage_Target.c ****    with resolution above 16 bits */
  35:.\Generated_Source\PSoC5/ADC_Voltage_Target.c **** volatile uint8 ADC_Voltage_Target_stopConversion = 0u;
  36:.\Generated_Source\PSoC5/ADC_Voltage_Target.c **** 
  37:.\Generated_Source\PSoC5/ADC_Voltage_Target.c **** /* To run the initialization block only at the start up */
  38:.\Generated_Source\PSoC5/ADC_Voltage_Target.c **** uint8 ADC_Voltage_Target_initVar = 0u;
ARM GAS  C:\DOCUME~1\ADMINI~1\LOCALS~1\Temp\ccfNfb5I.s 			page 3


  39:.\Generated_Source\PSoC5/ADC_Voltage_Target.c **** 
  40:.\Generated_Source\PSoC5/ADC_Voltage_Target.c **** /* To check whether ADC started or not before switching the configuration */
  41:.\Generated_Source\PSoC5/ADC_Voltage_Target.c **** volatile uint8 ADC_Voltage_Target_started = 0u;
  42:.\Generated_Source\PSoC5/ADC_Voltage_Target.c **** 
  43:.\Generated_Source\PSoC5/ADC_Voltage_Target.c **** /* Flag to hold ADC config number. By default active config is 1. */
  44:.\Generated_Source\PSoC5/ADC_Voltage_Target.c **** volatile uint8 ADC_Voltage_Target_Config = 1u;
  45:.\Generated_Source\PSoC5/ADC_Voltage_Target.c **** 
  46:.\Generated_Source\PSoC5/ADC_Voltage_Target.c **** volatile int32 ADC_Voltage_Target_Offset = 0u;
  47:.\Generated_Source\PSoC5/ADC_Voltage_Target.c **** volatile int32 ADC_Voltage_Target_CountsPerVolt = (uint32)ADC_Voltage_Target_CFG1_COUNTS_PER_VOLT;
  48:.\Generated_Source\PSoC5/ADC_Voltage_Target.c **** 
  49:.\Generated_Source\PSoC5/ADC_Voltage_Target.c **** /* Only valid for PSoC5A */
  50:.\Generated_Source\PSoC5/ADC_Voltage_Target.c **** /* Variable to decide whether or not to restore the register values from
  51:.\Generated_Source\PSoC5/ADC_Voltage_Target.c ****     backup structure */
  52:.\Generated_Source\PSoC5/ADC_Voltage_Target.c **** #if (CY_PSOC5A)
  53:.\Generated_Source\PSoC5/ADC_Voltage_Target.c ****     uint8 ADC_Voltage_Target_restoreReg = 0u;
  54:.\Generated_Source\PSoC5/ADC_Voltage_Target.c **** #endif /* CY_PSOC5A */
  55:.\Generated_Source\PSoC5/ADC_Voltage_Target.c **** 
  56:.\Generated_Source\PSoC5/ADC_Voltage_Target.c **** /* Valid only for PSoC5A silicon */
  57:.\Generated_Source\PSoC5/ADC_Voltage_Target.c **** #if (CY_PSOC5A)
  58:.\Generated_Source\PSoC5/ADC_Voltage_Target.c ****     /* Backup struct for power mode registers */
  59:.\Generated_Source\PSoC5/ADC_Voltage_Target.c ****     static ADC_Voltage_Target_POWERMODE_BACKUP_STRUCT ADC_Voltage_Target_powerModeBackup = 
  60:.\Generated_Source\PSoC5/ADC_Voltage_Target.c ****     {
  61:.\Generated_Source\PSoC5/ADC_Voltage_Target.c ****         /* Initializing the structure fields with power mode registers of 
  62:.\Generated_Source\PSoC5/ADC_Voltage_Target.c ****            config1 */
  63:.\Generated_Source\PSoC5/ADC_Voltage_Target.c ****         ADC_Voltage_Target_CFG1_DSM_CR14,
  64:.\Generated_Source\PSoC5/ADC_Voltage_Target.c ****         ADC_Voltage_Target_CFG1_DSM_CR15,
  65:.\Generated_Source\PSoC5/ADC_Voltage_Target.c ****         ADC_Voltage_Target_CFG1_DSM_CR16,
  66:.\Generated_Source\PSoC5/ADC_Voltage_Target.c ****         ADC_Voltage_Target_CFG1_DSM_CR17,
  67:.\Generated_Source\PSoC5/ADC_Voltage_Target.c ****         ADC_Voltage_Target_CFG1_DSM_REF0,
  68:.\Generated_Source\PSoC5/ADC_Voltage_Target.c ****         ADC_Voltage_Target_CFG1_DSM_BUF0,
  69:.\Generated_Source\PSoC5/ADC_Voltage_Target.c ****         ADC_Voltage_Target_CFG1_DSM_BUF1,
  70:.\Generated_Source\PSoC5/ADC_Voltage_Target.c ****         ADC_Voltage_Target_CFG1_DSM_CLK,
  71:.\Generated_Source\PSoC5/ADC_Voltage_Target.c ****         ADC_Voltage_Target_BYPASS_DISABLED
  72:.\Generated_Source\PSoC5/ADC_Voltage_Target.c ****     };
  73:.\Generated_Source\PSoC5/ADC_Voltage_Target.c **** #endif /* CY_PSOC5A */
  74:.\Generated_Source\PSoC5/ADC_Voltage_Target.c **** 
  75:.\Generated_Source\PSoC5/ADC_Voltage_Target.c **** 
  76:.\Generated_Source\PSoC5/ADC_Voltage_Target.c **** /****************************************************************************** 
  77:.\Generated_Source\PSoC5/ADC_Voltage_Target.c **** * Function Name: ADC_Voltage_Target_Init
  78:.\Generated_Source\PSoC5/ADC_Voltage_Target.c **** *******************************************************************************
  79:.\Generated_Source\PSoC5/ADC_Voltage_Target.c **** *
  80:.\Generated_Source\PSoC5/ADC_Voltage_Target.c **** * Summary:
  81:.\Generated_Source\PSoC5/ADC_Voltage_Target.c **** *  Initialize component's parameters to the parameters set by user in the 
  82:.\Generated_Source\PSoC5/ADC_Voltage_Target.c **** *  customizer of the component placed onto schematic. Usually called in 
  83:.\Generated_Source\PSoC5/ADC_Voltage_Target.c **** * ADC_Voltage_Target_Start().
  84:.\Generated_Source\PSoC5/ADC_Voltage_Target.c **** *  
  85:.\Generated_Source\PSoC5/ADC_Voltage_Target.c **** *
  86:.\Generated_Source\PSoC5/ADC_Voltage_Target.c **** * Parameters:  
  87:.\Generated_Source\PSoC5/ADC_Voltage_Target.c **** *  void
  88:.\Generated_Source\PSoC5/ADC_Voltage_Target.c **** *
  89:.\Generated_Source\PSoC5/ADC_Voltage_Target.c **** * Return: 
  90:.\Generated_Source\PSoC5/ADC_Voltage_Target.c **** *  void 
  91:.\Generated_Source\PSoC5/ADC_Voltage_Target.c **** *
  92:.\Generated_Source\PSoC5/ADC_Voltage_Target.c **** *******************************************************************************/
  93:.\Generated_Source\PSoC5/ADC_Voltage_Target.c **** void ADC_Voltage_Target_Init(void) 
  94:.\Generated_Source\PSoC5/ADC_Voltage_Target.c **** {
  73              		.loc 1 94 0
ARM GAS  C:\DOCUME~1\ADMINI~1\LOCALS~1\Temp\ccfNfb5I.s 			page 4


  74              		.cfi_startproc
  75              		@ args = 0, pretend = 0, frame = 0
  76              		@ frame_needed = 1, uses_anonymous_args = 0
  77 0000 80B5     		push	{r7, lr}
  78              	.LCFI0:
  79              		.cfi_def_cfa_offset 8
  80 0002 00AF     		add	r7, sp, #0
  81              		.cfi_offset 14, -4
  82              		.cfi_offset 7, -8
  83              	.LCFI1:
  84              		.cfi_def_cfa_register 7
  95:.\Generated_Source\PSoC5/ADC_Voltage_Target.c ****     /* Initialize the registers with default customizer settings for config1 */
  96:.\Generated_Source\PSoC5/ADC_Voltage_Target.c ****     ADC_Voltage_Target_InitConfig(1);
  85              		.loc 1 96 0
  86 0004 4FF00100 		mov	r0, #1
  87 0008 FFF7FEFF 		bl	ADC_Voltage_Target_InitConfig
  97:.\Generated_Source\PSoC5/ADC_Voltage_Target.c **** 
  98:.\Generated_Source\PSoC5/ADC_Voltage_Target.c ****     /* This is only valid if there is an internal clock */
  99:.\Generated_Source\PSoC5/ADC_Voltage_Target.c ****     #if(ADC_Voltage_Target_DEFAULT_INTERNAL_CLK)
 100:.\Generated_Source\PSoC5/ADC_Voltage_Target.c ****         ADC_Voltage_Target_theACLK_SetMode(CYCLK_DUTY);
  88              		.loc 1 100 0
  89 000c 4FF01000 		mov	r0, #16
  90 0010 FFF7FEFF 		bl	ADC_Voltage_Target_theACLK_SetModeRegister
 101:.\Generated_Source\PSoC5/ADC_Voltage_Target.c ****     #endif /* ADC_Voltage_Target_DEFAULT_INTERNAL_CLK */
 102:.\Generated_Source\PSoC5/ADC_Voltage_Target.c ****     
 103:.\Generated_Source\PSoC5/ADC_Voltage_Target.c ****     /* Set the duty cycle for charge pump clock */
 104:.\Generated_Source\PSoC5/ADC_Voltage_Target.c ****     ADC_Voltage_Target_Ext_CP_Clk_SetMode(CYCLK_DUTY);
  91              		.loc 1 104 0
  92 0014 4FF01000 		mov	r0, #16
  93 0018 FFF7FEFF 		bl	ADC_Voltage_Target_Ext_CP_Clk_SetModeRegister
 105:.\Generated_Source\PSoC5/ADC_Voltage_Target.c **** 
 106:.\Generated_Source\PSoC5/ADC_Voltage_Target.c ****     /* To perform ADC calibration */
 107:.\Generated_Source\PSoC5/ADC_Voltage_Target.c ****     ADC_Voltage_Target_GainCompensation(ADC_Voltage_Target_CFG1_RANGE, 
  94              		.loc 1 107 0
  95 001c 4FF00200 		mov	r0, #2
  96 0020 4FF41041 		mov	r1, #36864
  97 0024 4FF40042 		mov	r2, #32768
  98 0028 4FF00C03 		mov	r3, #12
  99 002c FFF7FEFF 		bl	ADC_Voltage_Target_GainCompensation
 108:.\Generated_Source\PSoC5/ADC_Voltage_Target.c ****                                       ADC_Voltage_Target_CFG1_IDEAL_DEC_GAIN, 
 109:.\Generated_Source\PSoC5/ADC_Voltage_Target.c ****                                       ADC_Voltage_Target_CFG1_IDEAL_ODDDEC_GAIN, 
 110:.\Generated_Source\PSoC5/ADC_Voltage_Target.c ****                                       ADC_Voltage_Target_CFG1_RESOLUTION);        
 111:.\Generated_Source\PSoC5/ADC_Voltage_Target.c **** }
 100              		.loc 1 111 0
 101 0030 80BD     		pop	{r7, pc}
 102              		.cfi_endproc
 103              	.LFE0:
 104              		.size	ADC_Voltage_Target_Init, .-ADC_Voltage_Target_Init
 105 0032 00BF     		.section	.text.ADC_Voltage_Target_Enable,"ax",%progbits
 106              		.align	2
 107              		.global	ADC_Voltage_Target_Enable
 108              		.thumb
 109              		.thumb_func
 110              		.type	ADC_Voltage_Target_Enable, %function
 111              	ADC_Voltage_Target_Enable:
 112              	.LFB1:
 112:.\Generated_Source\PSoC5/ADC_Voltage_Target.c **** 
ARM GAS  C:\DOCUME~1\ADMINI~1\LOCALS~1\Temp\ccfNfb5I.s 			page 5


 113:.\Generated_Source\PSoC5/ADC_Voltage_Target.c **** 
 114:.\Generated_Source\PSoC5/ADC_Voltage_Target.c **** /******************************************************************************
 115:.\Generated_Source\PSoC5/ADC_Voltage_Target.c **** * Function Name: ADC_Voltage_Target_Enable
 116:.\Generated_Source\PSoC5/ADC_Voltage_Target.c **** *******************************************************************************
 117:.\Generated_Source\PSoC5/ADC_Voltage_Target.c **** *
 118:.\Generated_Source\PSoC5/ADC_Voltage_Target.c **** * Summary: 
 119:.\Generated_Source\PSoC5/ADC_Voltage_Target.c **** *  Enables the ADC DelSig block operation.
 120:.\Generated_Source\PSoC5/ADC_Voltage_Target.c **** *  
 121:.\Generated_Source\PSoC5/ADC_Voltage_Target.c **** *
 122:.\Generated_Source\PSoC5/ADC_Voltage_Target.c **** * Parameters:  
 123:.\Generated_Source\PSoC5/ADC_Voltage_Target.c **** *  void
 124:.\Generated_Source\PSoC5/ADC_Voltage_Target.c **** *
 125:.\Generated_Source\PSoC5/ADC_Voltage_Target.c **** * Return: 
 126:.\Generated_Source\PSoC5/ADC_Voltage_Target.c **** *  void 
 127:.\Generated_Source\PSoC5/ADC_Voltage_Target.c **** *
 128:.\Generated_Source\PSoC5/ADC_Voltage_Target.c **** *******************************************************************************/
 129:.\Generated_Source\PSoC5/ADC_Voltage_Target.c **** void ADC_Voltage_Target_Enable(void) 
 130:.\Generated_Source\PSoC5/ADC_Voltage_Target.c **** {
 113              		.loc 1 130 0
 114              		.cfi_startproc
 115              		@ args = 0, pretend = 0, frame = 0
 116              		@ frame_needed = 1, uses_anonymous_args = 0
 117 0000 80B5     		push	{r7, lr}
 118              	.LCFI2:
 119              		.cfi_def_cfa_offset 8
 120 0002 00AF     		add	r7, sp, #0
 121              		.cfi_offset 14, -4
 122              		.cfi_offset 7, -8
 123              	.LCFI3:
 124              		.cfi_def_cfa_register 7
 131:.\Generated_Source\PSoC5/ADC_Voltage_Target.c ****     /* Restore the power registers if silicon used is PSoC5A */
 132:.\Generated_Source\PSoC5/ADC_Voltage_Target.c ****     #if (CY_PSOC5A)
 133:.\Generated_Source\PSoC5/ADC_Voltage_Target.c ****         if(ADC_Voltage_Target_restoreReg && 
 134:.\Generated_Source\PSoC5/ADC_Voltage_Target.c ****            (!(ADC_Voltage_Target_powerModeBackup.bypassRestore)))
 135:.\Generated_Source\PSoC5/ADC_Voltage_Target.c ****         {
 136:.\Generated_Source\PSoC5/ADC_Voltage_Target.c ****             ADC_Voltage_Target_RestorePowerRegisters();
 137:.\Generated_Source\PSoC5/ADC_Voltage_Target.c ****             ADC_Voltage_Target_restoreReg = 0u;
 138:.\Generated_Source\PSoC5/ADC_Voltage_Target.c ****         }
 139:.\Generated_Source\PSoC5/ADC_Voltage_Target.c ****         ADC_Voltage_Target_powerModeBackup.bypassRestore = ADC_Voltage_Target_BYPASS_DISABLED;
 140:.\Generated_Source\PSoC5/ADC_Voltage_Target.c ****     #endif /* CY_PSOC5A */
 141:.\Generated_Source\PSoC5/ADC_Voltage_Target.c **** 
 142:.\Generated_Source\PSoC5/ADC_Voltage_Target.c ****     /* Enable active mode power for ADC */
 143:.\Generated_Source\PSoC5/ADC_Voltage_Target.c ****     ADC_Voltage_Target_PWRMGR_DEC_REG |= ADC_Voltage_Target_ACT_PWR_DEC_EN;
 125              		.loc 1 143 0
 126 0004 44F2AA33 		movw	r3, #:lower16:1073759146
 127 0008 C4F20003 		movt	r3, #:upper16:1073759146
 128 000c 44F2AA32 		movw	r2, #:lower16:1073759146
 129 0010 C4F20002 		movt	r2, #:upper16:1073759146
 130 0014 1278     		ldrb	r2, [r2, #0]
 131 0016 D2B2     		uxtb	r2, r2
 132 0018 42F00102 		orr	r2, r2, #1
 133 001c D2B2     		uxtb	r2, r2
 134 001e 1A70     		strb	r2, [r3, #0]
 144:.\Generated_Source\PSoC5/ADC_Voltage_Target.c ****     ADC_Voltage_Target_PWRMGR_DSM_REG |= ADC_Voltage_Target_ACT_PWR_DSM_EN;
 135              		.loc 1 144 0
 136 0020 44F2AA33 		movw	r3, #:lower16:1073759146
 137 0024 C4F20003 		movt	r3, #:upper16:1073759146
ARM GAS  C:\DOCUME~1\ADMINI~1\LOCALS~1\Temp\ccfNfb5I.s 			page 6


 138 0028 44F2AA32 		movw	r2, #:lower16:1073759146
 139 002c C4F20002 		movt	r2, #:upper16:1073759146
 140 0030 1278     		ldrb	r2, [r2, #0]
 141 0032 D2B2     		uxtb	r2, r2
 142 0034 42F01002 		orr	r2, r2, #16
 143 0038 D2B2     		uxtb	r2, r2
 144 003a 1A70     		strb	r2, [r3, #0]
 145:.\Generated_Source\PSoC5/ADC_Voltage_Target.c ****     
 146:.\Generated_Source\PSoC5/ADC_Voltage_Target.c ****      /* Enable alternative active mode power for ADC */
 147:.\Generated_Source\PSoC5/ADC_Voltage_Target.c ****     ADC_Voltage_Target_STBY_PWRMGR_DEC_REG |= ADC_Voltage_Target_STBY_PWR_DEC_EN;
 145              		.loc 1 147 0
 146 003c 44F2BA33 		movw	r3, #:lower16:1073759162
 147 0040 C4F20003 		movt	r3, #:upper16:1073759162
 148 0044 44F2BA32 		movw	r2, #:lower16:1073759162
 149 0048 C4F20002 		movt	r2, #:upper16:1073759162
 150 004c 1278     		ldrb	r2, [r2, #0]
 151 004e D2B2     		uxtb	r2, r2
 152 0050 42F00102 		orr	r2, r2, #1
 153 0054 D2B2     		uxtb	r2, r2
 154 0056 1A70     		strb	r2, [r3, #0]
 148:.\Generated_Source\PSoC5/ADC_Voltage_Target.c ****     #if (CY_PSOC3 || CY_PSOC5LP)
 149:.\Generated_Source\PSoC5/ADC_Voltage_Target.c ****     ADC_Voltage_Target_STBY_PWRMGR_DSM_REG |= ADC_Voltage_Target_STBY_PWR_DSM_EN;
 155              		.loc 1 149 0
 156 0058 44F2BA33 		movw	r3, #:lower16:1073759162
 157 005c C4F20003 		movt	r3, #:upper16:1073759162
 158 0060 44F2BA32 		movw	r2, #:lower16:1073759162
 159 0064 C4F20002 		movt	r2, #:upper16:1073759162
 160 0068 1278     		ldrb	r2, [r2, #0]
 161 006a D2B2     		uxtb	r2, r2
 162 006c 42F01002 		orr	r2, r2, #16
 163 0070 D2B2     		uxtb	r2, r2
 164 0072 1A70     		strb	r2, [r3, #0]
 150:.\Generated_Source\PSoC5/ADC_Voltage_Target.c ****     #endif /* CY_PSOC3 || CY_PSOC5LP */
 151:.\Generated_Source\PSoC5/ADC_Voltage_Target.c **** 
 152:.\Generated_Source\PSoC5/ADC_Voltage_Target.c ****     /* Config selected is 1, then before enablign the REFBUF0, REFBUF1 and 
 153:.\Generated_Source\PSoC5/ADC_Voltage_Target.c **** 	   VCMBUF's enable and press circuit and then after a delay of 3
 154:.\Generated_Source\PSoC5/ADC_Voltage_Target.c **** 	   microseconds, disable the press circuit. */
 155:.\Generated_Source\PSoC5/ADC_Voltage_Target.c ****     if (ADC_Voltage_Target_Config == 1u)
 165              		.loc 1 155 0
 166 0074 40F20003 		movw	r3, #:lower16:ADC_Voltage_Target_Config
 167 0078 C0F20003 		movt	r3, #:upper16:ADC_Voltage_Target_Config
 168 007c 1B78     		ldrb	r3, [r3, #0]
 169 007e DBB2     		uxtb	r3, r3
 170 0080 012B     		cmp	r3, #1
 171 0082 47D1     		bne	.L4
 156:.\Generated_Source\PSoC5/ADC_Voltage_Target.c **** 	{
 157:.\Generated_Source\PSoC5/ADC_Voltage_Target.c **** 	    /* Disable PRES, Enable power to VCMBUF0, REFBUF0 and REFBUF1, enable 
 158:.\Generated_Source\PSoC5/ADC_Voltage_Target.c **** 	       PRES */
 159:.\Generated_Source\PSoC5/ADC_Voltage_Target.c **** 	    #if (CY_PSOC3 || CY_PSOC5LP)
 160:.\Generated_Source\PSoC5/ADC_Voltage_Target.c **** 	        ADC_Voltage_Target_RESET_CR4_REG |= ADC_Voltage_Target_IGNORE_PRESA1;
 172              		.loc 1 160 0
 173 0084 44F2F863 		movw	r3, #:lower16:1073759992
 174 0088 C4F20003 		movt	r3, #:upper16:1073759992
 175 008c 44F2F862 		movw	r2, #:lower16:1073759992
 176 0090 C4F20002 		movt	r2, #:upper16:1073759992
 177 0094 1278     		ldrb	r2, [r2, #0]
 178 0096 D2B2     		uxtb	r2, r2
ARM GAS  C:\DOCUME~1\ADMINI~1\LOCALS~1\Temp\ccfNfb5I.s 			page 7


 179 0098 42F00202 		orr	r2, r2, #2
 180 009c D2B2     		uxtb	r2, r2
 181 009e 1A70     		strb	r2, [r3, #0]
 161:.\Generated_Source\PSoC5/ADC_Voltage_Target.c **** 	        ADC_Voltage_Target_RESET_CR5_REG |= ADC_Voltage_Target_IGNORE_PRESA2;
 182              		.loc 1 161 0
 183 00a0 44F2F963 		movw	r3, #:lower16:1073759993
 184 00a4 C4F20003 		movt	r3, #:upper16:1073759993
 185 00a8 44F2F962 		movw	r2, #:lower16:1073759993
 186 00ac C4F20002 		movt	r2, #:upper16:1073759993
 187 00b0 1278     		ldrb	r2, [r2, #0]
 188 00b2 D2B2     		uxtb	r2, r2
 189 00b4 42F00202 		orr	r2, r2, #2
 190 00b8 D2B2     		uxtb	r2, r2
 191 00ba 1A70     		strb	r2, [r3, #0]
 162:.\Generated_Source\PSoC5/ADC_Voltage_Target.c **** 	    #elif (CY_PSOC5A)
 163:.\Generated_Source\PSoC5/ADC_Voltage_Target.c **** 	        ADC_Voltage_Target_RESET_CR1_REG |= ADC_Voltage_Target_DIS_PRES1;
 164:.\Generated_Source\PSoC5/ADC_Voltage_Target.c **** 	        ADC_Voltage_Target_RESET_CR3_REG |= ADC_Voltage_Target_DIS_PRES2;
 165:.\Generated_Source\PSoC5/ADC_Voltage_Target.c **** 	    #endif /* CY_PSOC5A */
 166:.\Generated_Source\PSoC5/ADC_Voltage_Target.c **** 	    
 167:.\Generated_Source\PSoC5/ADC_Voltage_Target.c **** 	    ADC_Voltage_Target_DSM_CR17_REG |= (ADC_Voltage_Target_DSM_EN_BUF_VREF | ADC_Voltage_Target_DS
 192              		.loc 1 167 0
 193 00bc 45F69103 		movw	r3, #:lower16:1073764497
 194 00c0 C4F20003 		movt	r3, #:upper16:1073764497
 195 00c4 45F69102 		movw	r2, #:lower16:1073764497
 196 00c8 C4F20002 		movt	r2, #:upper16:1073764497
 197 00cc 1278     		ldrb	r2, [r2, #0]
 198 00ce D2B2     		uxtb	r2, r2
 199 00d0 42F00302 		orr	r2, r2, #3
 200 00d4 D2B2     		uxtb	r2, r2
 201 00d6 1A70     		strb	r2, [r3, #0]
 168:.\Generated_Source\PSoC5/ADC_Voltage_Target.c **** 	    #if ((ADC_Voltage_Target_CFG1_REFERENCE == ADC_Voltage_Target_EXT_REF_ON_P03) || \
 169:.\Generated_Source\PSoC5/ADC_Voltage_Target.c **** 	         (ADC_Voltage_Target_CFG1_REFERENCE == ADC_Voltage_Target_EXT_REF_ON_P32))
 170:.\Generated_Source\PSoC5/ADC_Voltage_Target.c **** 	        ADC_Voltage_Target_DSM_CR17_REG &= ~ADC_Voltage_Target_DSM_EN_BUF_VREF;
 171:.\Generated_Source\PSoC5/ADC_Voltage_Target.c **** 	    #endif /* Check for exteranl reference option */
 172:.\Generated_Source\PSoC5/ADC_Voltage_Target.c **** 	    #if ((ADC_Voltage_Target_CFG1_RANGE == ADC_Voltage_Target_IR_VSSA_TO_2VREF) && \
 173:.\Generated_Source\PSoC5/ADC_Voltage_Target.c **** 	          (CY_PSOC3 || CY_PSOC5LP) && \
 174:.\Generated_Source\PSoC5/ADC_Voltage_Target.c **** 	          ((ADC_Voltage_Target_CFG1_REFERENCE != ADC_Voltage_Target_EXT_REF_ON_P03) && \
 175:.\Generated_Source\PSoC5/ADC_Voltage_Target.c **** 	         (ADC_Voltage_Target_CFG1_REFERENCE != ADC_Voltage_Target_EXT_REF_ON_P32)))
 176:.\Generated_Source\PSoC5/ADC_Voltage_Target.c **** 	        ADC_Voltage_Target_DSM_REF0_REG |= ADC_Voltage_Target_DSM_EN_BUF_VREF_INN;
 177:.\Generated_Source\PSoC5/ADC_Voltage_Target.c **** 	    #endif /* ADC_Voltage_Target_IR_VSSA_TO_2VREF */
 178:.\Generated_Source\PSoC5/ADC_Voltage_Target.c **** 	    
 179:.\Generated_Source\PSoC5/ADC_Voltage_Target.c **** 	        /* Wait for 3 microseconds */
 180:.\Generated_Source\PSoC5/ADC_Voltage_Target.c **** 	    CyDelayUs(3);
 202              		.loc 1 180 0
 203 00d8 4FF00300 		mov	r0, #3
 204 00dc FFF7FEFF 		bl	CyDelayUs
 181:.\Generated_Source\PSoC5/ADC_Voltage_Target.c ****         /* Enable the press circuit */
 182:.\Generated_Source\PSoC5/ADC_Voltage_Target.c **** 	    #if (CY_PSOC3 || CY_PSOC5LP)
 183:.\Generated_Source\PSoC5/ADC_Voltage_Target.c **** 	        ADC_Voltage_Target_RESET_CR4_REG &= ~ADC_Voltage_Target_IGNORE_PRESA1;
 205              		.loc 1 183 0
 206 00e0 44F2F863 		movw	r3, #:lower16:1073759992
 207 00e4 C4F20003 		movt	r3, #:upper16:1073759992
 208 00e8 44F2F862 		movw	r2, #:lower16:1073759992
 209 00ec C4F20002 		movt	r2, #:upper16:1073759992
 210 00f0 1278     		ldrb	r2, [r2, #0]
 211 00f2 D2B2     		uxtb	r2, r2
 212 00f4 02F0FD02 		and	r2, r2, #253
ARM GAS  C:\DOCUME~1\ADMINI~1\LOCALS~1\Temp\ccfNfb5I.s 			page 8


 213 00f8 1A70     		strb	r2, [r3, #0]
 184:.\Generated_Source\PSoC5/ADC_Voltage_Target.c **** 	        ADC_Voltage_Target_RESET_CR5_REG &= ~ADC_Voltage_Target_IGNORE_PRESA2;
 214              		.loc 1 184 0
 215 00fa 44F2F963 		movw	r3, #:lower16:1073759993
 216 00fe C4F20003 		movt	r3, #:upper16:1073759993
 217 0102 44F2F962 		movw	r2, #:lower16:1073759993
 218 0106 C4F20002 		movt	r2, #:upper16:1073759993
 219 010a 1278     		ldrb	r2, [r2, #0]
 220 010c D2B2     		uxtb	r2, r2
 221 010e 02F0FD02 		and	r2, r2, #253
 222 0112 1A70     		strb	r2, [r3, #0]
 223              	.L4:
 185:.\Generated_Source\PSoC5/ADC_Voltage_Target.c **** 	    #elif (CY_PSOC5A)
 186:.\Generated_Source\PSoC5/ADC_Voltage_Target.c **** 	        ADC_Voltage_Target_RESET_CR1_REG &= ~ADC_Voltage_Target_DIS_PRES1;
 187:.\Generated_Source\PSoC5/ADC_Voltage_Target.c **** 	        ADC_Voltage_Target_RESET_CR3_REG &= ~ADC_Voltage_Target_DIS_PRES2;
 188:.\Generated_Source\PSoC5/ADC_Voltage_Target.c **** 	    #endif /* CY_PSOC5A */
 189:.\Generated_Source\PSoC5/ADC_Voltage_Target.c **** 	}
 190:.\Generated_Source\PSoC5/ADC_Voltage_Target.c ****     
 191:.\Generated_Source\PSoC5/ADC_Voltage_Target.c ****     /* Enable negative pumps for DSM  */
 192:.\Generated_Source\PSoC5/ADC_Voltage_Target.c ****     ADC_Voltage_Target_PUMP_CR1_REG  |= ( ADC_Voltage_Target_PUMP_CR1_CLKSEL | ADC_Voltage_Target_P
 224              		.loc 1 192 0
 225 0114 45F67703 		movw	r3, #:lower16:1073764471
 226 0118 C4F20003 		movt	r3, #:upper16:1073764471
 227 011c 45F67702 		movw	r2, #:lower16:1073764471
 228 0120 C4F20002 		movt	r2, #:upper16:1073764471
 229 0124 1278     		ldrb	r2, [r2, #0]
 230 0126 D2B2     		uxtb	r2, r2
 231 0128 42F00602 		orr	r2, r2, #6
 232 012c D2B2     		uxtb	r2, r2
 233 012e 1A70     		strb	r2, [r3, #0]
 193:.\Generated_Source\PSoC5/ADC_Voltage_Target.c ****  
 194:.\Generated_Source\PSoC5/ADC_Voltage_Target.c ****     /* This is only valid if there is an internal clock */
 195:.\Generated_Source\PSoC5/ADC_Voltage_Target.c ****     #if(ADC_Voltage_Target_DEFAULT_INTERNAL_CLK)
 196:.\Generated_Source\PSoC5/ADC_Voltage_Target.c ****         ADC_Voltage_Target_PWRMGR_CLK_REG |= ADC_Voltage_Target_ACT_PWR_CLK_EN;        
 234              		.loc 1 196 0
 235 0130 44F2A133 		movw	r3, #:lower16:1073759137
 236 0134 C4F20003 		movt	r3, #:upper16:1073759137
 237 0138 44F2A132 		movw	r2, #:lower16:1073759137
 238 013c C4F20002 		movt	r2, #:upper16:1073759137
 239 0140 1278     		ldrb	r2, [r2, #0]
 240 0142 D2B2     		uxtb	r2, r2
 241 0144 42F00102 		orr	r2, r2, #1
 242 0148 D2B2     		uxtb	r2, r2
 243 014a 1A70     		strb	r2, [r3, #0]
 197:.\Generated_Source\PSoC5/ADC_Voltage_Target.c ****         ADC_Voltage_Target_STBY_PWRMGR_CLK_REG |= ADC_Voltage_Target_STBY_PWR_CLK_EN;
 244              		.loc 1 197 0
 245 014c 44F2B133 		movw	r3, #:lower16:1073759153
 246 0150 C4F20003 		movt	r3, #:upper16:1073759153
 247 0154 44F2B132 		movw	r2, #:lower16:1073759153
 248 0158 C4F20002 		movt	r2, #:upper16:1073759153
 249 015c 1278     		ldrb	r2, [r2, #0]
 250 015e D2B2     		uxtb	r2, r2
 251 0160 42F00102 		orr	r2, r2, #1
 252 0164 D2B2     		uxtb	r2, r2
 253 0166 1A70     		strb	r2, [r3, #0]
 198:.\Generated_Source\PSoC5/ADC_Voltage_Target.c ****     #endif /* ADC_Voltage_Target_DEFAULT_INTERNAL_CLK */
 199:.\Generated_Source\PSoC5/ADC_Voltage_Target.c ****     
ARM GAS  C:\DOCUME~1\ADMINI~1\LOCALS~1\Temp\ccfNfb5I.s 			page 9


 200:.\Generated_Source\PSoC5/ADC_Voltage_Target.c ****     /* Enable the active and alternate active power for charge pump clock */
 201:.\Generated_Source\PSoC5/ADC_Voltage_Target.c ****     ADC_Voltage_Target_PWRMGR_CHARGE_PUMP_CLK_REG |= ADC_Voltage_Target_ACT_PWR_CHARGE_PUMP_CLK_EN;
 254              		.loc 1 201 0
 255 0168 44F2A233 		movw	r3, #:lower16:1073759138
 256 016c C4F20003 		movt	r3, #:upper16:1073759138
 257 0170 44F2A232 		movw	r2, #:lower16:1073759138
 258 0174 C4F20002 		movt	r2, #:upper16:1073759138
 259 0178 1278     		ldrb	r2, [r2, #0]
 260 017a D2B2     		uxtb	r2, r2
 261 017c 42F00402 		orr	r2, r2, #4
 262 0180 D2B2     		uxtb	r2, r2
 263 0182 1A70     		strb	r2, [r3, #0]
 202:.\Generated_Source\PSoC5/ADC_Voltage_Target.c ****     ADC_Voltage_Target_STBY_PWRMGR_CHARGE_PUMP_CLK_REG |= ADC_Voltage_Target_STBY_PWR_CHARGE_PUMP_C
 264              		.loc 1 202 0
 265 0184 44F2B233 		movw	r3, #:lower16:1073759154
 266 0188 C4F20003 		movt	r3, #:upper16:1073759154
 267 018c 44F2B232 		movw	r2, #:lower16:1073759154
 268 0190 C4F20002 		movt	r2, #:upper16:1073759154
 269 0194 1278     		ldrb	r2, [r2, #0]
 270 0196 D2B2     		uxtb	r2, r2
 271 0198 42F00402 		orr	r2, r2, #4
 272 019c D2B2     		uxtb	r2, r2
 273 019e 1A70     		strb	r2, [r3, #0]
 203:.\Generated_Source\PSoC5/ADC_Voltage_Target.c ****         
 204:.\Generated_Source\PSoC5/ADC_Voltage_Target.c **** }
 274              		.loc 1 204 0
 275 01a0 80BD     		pop	{r7, pc}
 276              		.cfi_endproc
 277              	.LFE1:
 278              		.size	ADC_Voltage_Target_Enable, .-ADC_Voltage_Target_Enable
 279 01a2 00BF     		.section	.text.ADC_Voltage_Target_Start,"ax",%progbits
 280              		.align	2
 281              		.global	ADC_Voltage_Target_Start
 282              		.thumb
 283              		.thumb_func
 284              		.type	ADC_Voltage_Target_Start, %function
 285              	ADC_Voltage_Target_Start:
 286              	.LFB2:
 205:.\Generated_Source\PSoC5/ADC_Voltage_Target.c **** 
 206:.\Generated_Source\PSoC5/ADC_Voltage_Target.c **** 
 207:.\Generated_Source\PSoC5/ADC_Voltage_Target.c **** #if (CY_PSOC5A) /* valid only for PSoC5A silicon */
 208:.\Generated_Source\PSoC5/ADC_Voltage_Target.c ****     /******************************************************************************* 
 209:.\Generated_Source\PSoC5/ADC_Voltage_Target.c ****     * Function Name: ADC_Voltage_Target_RestorePowerRegisters
 210:.\Generated_Source\PSoC5/ADC_Voltage_Target.c ****     ********************************************************************************
 211:.\Generated_Source\PSoC5/ADC_Voltage_Target.c ****     *
 212:.\Generated_Source\PSoC5/ADC_Voltage_Target.c ****     * Summary: 
 213:.\Generated_Source\PSoC5/ADC_Voltage_Target.c ****     *  Restores the power registers on calling Start() API. This API is only 
 214:.\Generated_Source\PSoC5/ADC_Voltage_Target.c ****     *   for internal use and valid only for PSoC5A.
 215:.\Generated_Source\PSoC5/ADC_Voltage_Target.c ****     *  
 216:.\Generated_Source\PSoC5/ADC_Voltage_Target.c ****     *
 217:.\Generated_Source\PSoC5/ADC_Voltage_Target.c ****     * Parameters:  
 218:.\Generated_Source\PSoC5/ADC_Voltage_Target.c ****     *  void
 219:.\Generated_Source\PSoC5/ADC_Voltage_Target.c ****     *
 220:.\Generated_Source\PSoC5/ADC_Voltage_Target.c ****     * Return: 
 221:.\Generated_Source\PSoC5/ADC_Voltage_Target.c ****     *  void 
 222:.\Generated_Source\PSoC5/ADC_Voltage_Target.c ****     *
 223:.\Generated_Source\PSoC5/ADC_Voltage_Target.c ****     ***************************************************************************/
ARM GAS  C:\DOCUME~1\ADMINI~1\LOCALS~1\Temp\ccfNfb5I.s 			page 10


 224:.\Generated_Source\PSoC5/ADC_Voltage_Target.c ****     void ADC_Voltage_Target_RestorePowerRegisters(void) 
 225:.\Generated_Source\PSoC5/ADC_Voltage_Target.c ****     {
 226:.\Generated_Source\PSoC5/ADC_Voltage_Target.c ****         ADC_Voltage_Target_DSM_CR14_REG = ADC_Voltage_Target_powerModeBackup.DSM_CR_14;
 227:.\Generated_Source\PSoC5/ADC_Voltage_Target.c ****         ADC_Voltage_Target_DSM_CR15_REG = ADC_Voltage_Target_powerModeBackup.DSM_CR_15;
 228:.\Generated_Source\PSoC5/ADC_Voltage_Target.c ****         ADC_Voltage_Target_DSM_CR16_REG = ADC_Voltage_Target_powerModeBackup.DSM_CR_16;
 229:.\Generated_Source\PSoC5/ADC_Voltage_Target.c ****         ADC_Voltage_Target_DSM_CR17_REG = ADC_Voltage_Target_powerModeBackup.DSM_CR_17;
 230:.\Generated_Source\PSoC5/ADC_Voltage_Target.c ****         ADC_Voltage_Target_DSM_REF0_REG = ADC_Voltage_Target_powerModeBackup.DSM_REF0;
 231:.\Generated_Source\PSoC5/ADC_Voltage_Target.c ****         ADC_Voltage_Target_DSM_BUF0_REG = ADC_Voltage_Target_powerModeBackup.DSM_BUF0;
 232:.\Generated_Source\PSoC5/ADC_Voltage_Target.c ****         ADC_Voltage_Target_DSM_BUF1_REG = ADC_Voltage_Target_powerModeBackup.DSM_BUF1;
 233:.\Generated_Source\PSoC5/ADC_Voltage_Target.c ****         ADC_Voltage_Target_DSM_CLK_REG = ADC_Voltage_Target_powerModeBackup.DSM_CLK;
 234:.\Generated_Source\PSoC5/ADC_Voltage_Target.c ****     }
 235:.\Generated_Source\PSoC5/ADC_Voltage_Target.c **** 
 236:.\Generated_Source\PSoC5/ADC_Voltage_Target.c **** 
 237:.\Generated_Source\PSoC5/ADC_Voltage_Target.c ****     /************************************************************************** 
 238:.\Generated_Source\PSoC5/ADC_Voltage_Target.c ****     * Function Name: ADC_Voltage_Target_SavePowerRegisters
 239:.\Generated_Source\PSoC5/ADC_Voltage_Target.c ****     ***************************************************************************
 240:.\Generated_Source\PSoC5/ADC_Voltage_Target.c ****     *
 241:.\Generated_Source\PSoC5/ADC_Voltage_Target.c ****     * Summary: 
 242:.\Generated_Source\PSoC5/ADC_Voltage_Target.c ****     *  Save the power registers before stopping the block operation. This is 
 243:.\Generated_Source\PSoC5/ADC_Voltage_Target.c ****     *  called by Stop() API. This API is only for internal use and valid only 
 244:.\Generated_Source\PSoC5/ADC_Voltage_Target.c ****     *  for PSoC5A.
 245:.\Generated_Source\PSoC5/ADC_Voltage_Target.c ****     *  
 246:.\Generated_Source\PSoC5/ADC_Voltage_Target.c ****     *
 247:.\Generated_Source\PSoC5/ADC_Voltage_Target.c ****     * Parameters:  
 248:.\Generated_Source\PSoC5/ADC_Voltage_Target.c ****     *  void
 249:.\Generated_Source\PSoC5/ADC_Voltage_Target.c ****     *
 250:.\Generated_Source\PSoC5/ADC_Voltage_Target.c ****     * Return: 
 251:.\Generated_Source\PSoC5/ADC_Voltage_Target.c ****     *  void 
 252:.\Generated_Source\PSoC5/ADC_Voltage_Target.c ****     *
 253:.\Generated_Source\PSoC5/ADC_Voltage_Target.c ****     **************************************************************************/
 254:.\Generated_Source\PSoC5/ADC_Voltage_Target.c ****     void ADC_Voltage_Target_SavePowerRegisters(void) 
 255:.\Generated_Source\PSoC5/ADC_Voltage_Target.c ****     {
 256:.\Generated_Source\PSoC5/ADC_Voltage_Target.c ****         ADC_Voltage_Target_powerModeBackup.DSM_CR_14 = ADC_Voltage_Target_DSM_CR14_REG;
 257:.\Generated_Source\PSoC5/ADC_Voltage_Target.c ****         ADC_Voltage_Target_powerModeBackup.DSM_CR_15 = ADC_Voltage_Target_DSM_CR15_REG;
 258:.\Generated_Source\PSoC5/ADC_Voltage_Target.c ****         ADC_Voltage_Target_powerModeBackup.DSM_CR_16 = ADC_Voltage_Target_DSM_CR16_REG;
 259:.\Generated_Source\PSoC5/ADC_Voltage_Target.c ****         ADC_Voltage_Target_powerModeBackup.DSM_CR_17 = ADC_Voltage_Target_DSM_CR17_REG;
 260:.\Generated_Source\PSoC5/ADC_Voltage_Target.c ****         ADC_Voltage_Target_powerModeBackup.DSM_REF0 = ADC_Voltage_Target_DSM_REF0_REG;
 261:.\Generated_Source\PSoC5/ADC_Voltage_Target.c ****         ADC_Voltage_Target_powerModeBackup.DSM_BUF0 = ADC_Voltage_Target_DSM_BUF0_REG;
 262:.\Generated_Source\PSoC5/ADC_Voltage_Target.c ****         ADC_Voltage_Target_powerModeBackup.DSM_BUF1 = ADC_Voltage_Target_DSM_BUF1_REG;
 263:.\Generated_Source\PSoC5/ADC_Voltage_Target.c ****         ADC_Voltage_Target_powerModeBackup.DSM_CLK = ADC_Voltage_Target_DSM_CLK_REG;
 264:.\Generated_Source\PSoC5/ADC_Voltage_Target.c ****     }
 265:.\Generated_Source\PSoC5/ADC_Voltage_Target.c **** 
 266:.\Generated_Source\PSoC5/ADC_Voltage_Target.c **** 
 267:.\Generated_Source\PSoC5/ADC_Voltage_Target.c ****     /************************************************************************* 
 268:.\Generated_Source\PSoC5/ADC_Voltage_Target.c ****     * Function Name: ADC_Voltage_Target_SetLowPower
 269:.\Generated_Source\PSoC5/ADC_Voltage_Target.c ****     ***************************************************************************
 270:.\Generated_Source\PSoC5/ADC_Voltage_Target.c ****     *
 271:.\Generated_Source\PSoC5/ADC_Voltage_Target.c ****     * Summary: 
 272:.\Generated_Source\PSoC5/ADC_Voltage_Target.c ****     *  Set all the power registers of DSM block to low power mode. This API is
 273:.\Generated_Source\PSoC5/ADC_Voltage_Target.c ****     *   called by Stop() API. This API is only for internal use and valid for 
 274:.\Generated_Source\PSoC5/ADC_Voltage_Target.c ****     *   only PSoC5A.
 275:.\Generated_Source\PSoC5/ADC_Voltage_Target.c ****     *  
 276:.\Generated_Source\PSoC5/ADC_Voltage_Target.c ****     *
 277:.\Generated_Source\PSoC5/ADC_Voltage_Target.c ****     * Parameters:  
 278:.\Generated_Source\PSoC5/ADC_Voltage_Target.c ****     *  void
 279:.\Generated_Source\PSoC5/ADC_Voltage_Target.c ****     *
 280:.\Generated_Source\PSoC5/ADC_Voltage_Target.c ****     * Return: 
ARM GAS  C:\DOCUME~1\ADMINI~1\LOCALS~1\Temp\ccfNfb5I.s 			page 11


 281:.\Generated_Source\PSoC5/ADC_Voltage_Target.c ****     *  void 
 282:.\Generated_Source\PSoC5/ADC_Voltage_Target.c ****     *
 283:.\Generated_Source\PSoC5/ADC_Voltage_Target.c ****     ***************************************************************************/
 284:.\Generated_Source\PSoC5/ADC_Voltage_Target.c ****     void ADC_Voltage_Target_SetLowPower(void) 
 285:.\Generated_Source\PSoC5/ADC_Voltage_Target.c ****     {
 286:.\Generated_Source\PSoC5/ADC_Voltage_Target.c ****         ADC_Voltage_Target_DSM_CR14_REG &= ~ADC_Voltage_Target_DSM_POWER1_MASK;
 287:.\Generated_Source\PSoC5/ADC_Voltage_Target.c ****         ADC_Voltage_Target_DSM_CR14_REG |= ADC_Voltage_Target_DSM_POWER1_44UA;
 288:.\Generated_Source\PSoC5/ADC_Voltage_Target.c ****         
 289:.\Generated_Source\PSoC5/ADC_Voltage_Target.c ****         ADC_Voltage_Target_DSM_CR15_REG &= ~(ADC_Voltage_Target_DSM_POWER2_3_MASK | ADC_Voltage_Tar
 290:.\Generated_Source\PSoC5/ADC_Voltage_Target.c ****         ADC_Voltage_Target_DSM_CR15_REG |= (ADC_Voltage_Target_DSM_POWER2_3_LOW | ADC_Voltage_Targe
 291:.\Generated_Source\PSoC5/ADC_Voltage_Target.c ****         
 292:.\Generated_Source\PSoC5/ADC_Voltage_Target.c ****         ADC_Voltage_Target_DSM_CR16_REG &= ~(ADC_Voltage_Target_DSM_CP_PWRCTL_MASK | ADC_Voltage_Ta
 293:.\Generated_Source\PSoC5/ADC_Voltage_Target.c ****                                            ADC_Voltage_Target_DSM_CP_ENABLE);
 294:.\Generated_Source\PSoC5/ADC_Voltage_Target.c ****         ADC_Voltage_Target_DSM_CR16_REG |= (ADC_Voltage_Target_DSM_POWER_SUM_LOW | ADC_Voltage_Targ
 295:.\Generated_Source\PSoC5/ADC_Voltage_Target.c ****         
 296:.\Generated_Source\PSoC5/ADC_Voltage_Target.c ****         ADC_Voltage_Target_DSM_CR17_REG &= ~(ADC_Voltage_Target_DSM_EN_BUF_VREF | ADC_Voltage_Targe
 297:.\Generated_Source\PSoC5/ADC_Voltage_Target.c ****                                            ADC_Voltage_Target_DSM_PWR_CTRL_VREF_MASK | ADC_Voltage_
 298:.\Generated_Source\PSoC5/ADC_Voltage_Target.c ****                                            ADC_Voltage_Target_DSM_PWR_CTRL_VREF_INN_MASK);
 299:.\Generated_Source\PSoC5/ADC_Voltage_Target.c ****         ADC_Voltage_Target_DSM_CR17_REG |= (ADC_Voltage_Target_DSM_PWR_CTRL_VREF_0 | ADC_Voltage_Ta
 300:.\Generated_Source\PSoC5/ADC_Voltage_Target.c ****                                            ADC_Voltage_Target_DSM_PWR_CTRL_VREF_INN_0);
 301:.\Generated_Source\PSoC5/ADC_Voltage_Target.c ****         
 302:.\Generated_Source\PSoC5/ADC_Voltage_Target.c ****         /* Disable reference buffers */
 303:.\Generated_Source\PSoC5/ADC_Voltage_Target.c ****         ADC_Voltage_Target_DSM_REF0_REG &= ~(ADC_Voltage_Target_DSM_EN_BUF_VREF_INN | ADC_Voltage_T
 304:.\Generated_Source\PSoC5/ADC_Voltage_Target.c ****                                            ADC_Voltage_Target_DSM_VCM_RES_DIV_EN);
 305:.\Generated_Source\PSoC5/ADC_Voltage_Target.c ****             
 306:.\Generated_Source\PSoC5/ADC_Voltage_Target.c ****         /* Disable the positive input buffer */
 307:.\Generated_Source\PSoC5/ADC_Voltage_Target.c ****         ADC_Voltage_Target_DSM_BUF0_REG &= ~ADC_Voltage_Target_DSM_ENABLE_P;
 308:.\Generated_Source\PSoC5/ADC_Voltage_Target.c ****         /* Disable the negative input buffer */
 309:.\Generated_Source\PSoC5/ADC_Voltage_Target.c ****         ADC_Voltage_Target_DSM_BUF1_REG &= ~ADC_Voltage_Target_DSM_ENABLE_N;
 310:.\Generated_Source\PSoC5/ADC_Voltage_Target.c ****         /* Disable the clock to DSM */
 311:.\Generated_Source\PSoC5/ADC_Voltage_Target.c ****         ADC_Voltage_Target_DSM_CLK_REG &= ~(ADC_Voltage_Target_DSM_CLK_CLK_EN | ADC_Voltage_Target_
 312:.\Generated_Source\PSoC5/ADC_Voltage_Target.c ****     }
 313:.\Generated_Source\PSoC5/ADC_Voltage_Target.c **** #endif /* CY_PSOC5A */
 314:.\Generated_Source\PSoC5/ADC_Voltage_Target.c **** 
 315:.\Generated_Source\PSoC5/ADC_Voltage_Target.c **** 
 316:.\Generated_Source\PSoC5/ADC_Voltage_Target.c **** /******************************************************************************* 
 317:.\Generated_Source\PSoC5/ADC_Voltage_Target.c **** * Function Name: ADC_Voltage_Target_Start
 318:.\Generated_Source\PSoC5/ADC_Voltage_Target.c **** ********************************************************************************
 319:.\Generated_Source\PSoC5/ADC_Voltage_Target.c **** *
 320:.\Generated_Source\PSoC5/ADC_Voltage_Target.c **** * Summary:
 321:.\Generated_Source\PSoC5/ADC_Voltage_Target.c **** *  The start function initializes the Delta Sigma Modulator with the default  
 322:.\Generated_Source\PSoC5/ADC_Voltage_Target.c **** *  values, and sets the power to the given level.  A power level of 0, is the 
 323:.\Generated_Source\PSoC5/ADC_Voltage_Target.c **** *  same as executing the stop function.
 324:.\Generated_Source\PSoC5/ADC_Voltage_Target.c **** *
 325:.\Generated_Source\PSoC5/ADC_Voltage_Target.c **** * Parameters:  
 326:.\Generated_Source\PSoC5/ADC_Voltage_Target.c **** *  None
 327:.\Generated_Source\PSoC5/ADC_Voltage_Target.c **** *
 328:.\Generated_Source\PSoC5/ADC_Voltage_Target.c **** * Return: 
 329:.\Generated_Source\PSoC5/ADC_Voltage_Target.c **** *  void 
 330:.\Generated_Source\PSoC5/ADC_Voltage_Target.c **** *
 331:.\Generated_Source\PSoC5/ADC_Voltage_Target.c **** * Global variables:
 332:.\Generated_Source\PSoC5/ADC_Voltage_Target.c **** *  ADC_Voltage_Target_initVar:  Used to check the initial configuration,
 333:.\Generated_Source\PSoC5/ADC_Voltage_Target.c **** *  modified when this function is called for the first time.
 334:.\Generated_Source\PSoC5/ADC_Voltage_Target.c **** *
 335:.\Generated_Source\PSoC5/ADC_Voltage_Target.c **** *******************************************************************************/
 336:.\Generated_Source\PSoC5/ADC_Voltage_Target.c **** void ADC_Voltage_Target_Start() 
 337:.\Generated_Source\PSoC5/ADC_Voltage_Target.c **** {
ARM GAS  C:\DOCUME~1\ADMINI~1\LOCALS~1\Temp\ccfNfb5I.s 			page 12


 287              		.loc 1 337 0
 288              		.cfi_startproc
 289              		@ args = 0, pretend = 0, frame = 0
 290              		@ frame_needed = 1, uses_anonymous_args = 0
 291 0000 80B5     		push	{r7, lr}
 292              	.LCFI4:
 293              		.cfi_def_cfa_offset 8
 294 0002 00AF     		add	r7, sp, #0
 295              		.cfi_offset 14, -4
 296              		.cfi_offset 7, -8
 297              	.LCFI5:
 298              		.cfi_def_cfa_register 7
 338:.\Generated_Source\PSoC5/ADC_Voltage_Target.c ****     if(ADC_Voltage_Target_initVar == 0u)
 299              		.loc 1 338 0
 300 0004 40F20003 		movw	r3, #:lower16:ADC_Voltage_Target_initVar
 301 0008 C0F20003 		movt	r3, #:upper16:ADC_Voltage_Target_initVar
 302 000c 1B78     		ldrb	r3, [r3, #0]	@ zero_extendqisi2
 303 000e 002B     		cmp	r3, #0
 304 0010 10D1     		bne	.L7
 339:.\Generated_Source\PSoC5/ADC_Voltage_Target.c ****     {
 340:.\Generated_Source\PSoC5/ADC_Voltage_Target.c ****         if(!(ADC_Voltage_Target_started))
 305              		.loc 1 340 0
 306 0012 40F20003 		movw	r3, #:lower16:ADC_Voltage_Target_started
 307 0016 C0F20003 		movt	r3, #:upper16:ADC_Voltage_Target_started
 308 001a 1B78     		ldrb	r3, [r3, #0]
 309 001c DBB2     		uxtb	r3, r3
 310 001e 002B     		cmp	r3, #0
 311 0020 01D1     		bne	.L8
 341:.\Generated_Source\PSoC5/ADC_Voltage_Target.c ****         {
 342:.\Generated_Source\PSoC5/ADC_Voltage_Target.c ****             ADC_Voltage_Target_Init();
 312              		.loc 1 342 0
 313 0022 FFF7FEFF 		bl	ADC_Voltage_Target_Init
 314              	.L8:
 343:.\Generated_Source\PSoC5/ADC_Voltage_Target.c ****         }
 344:.\Generated_Source\PSoC5/ADC_Voltage_Target.c ****         ADC_Voltage_Target_initVar = 1u;
 315              		.loc 1 344 0
 316 0026 40F20003 		movw	r3, #:lower16:ADC_Voltage_Target_initVar
 317 002a C0F20003 		movt	r3, #:upper16:ADC_Voltage_Target_initVar
 318 002e 4FF00102 		mov	r2, #1
 319 0032 1A70     		strb	r2, [r3, #0]
 320              	.L7:
 345:.\Generated_Source\PSoC5/ADC_Voltage_Target.c ****     }
 346:.\Generated_Source\PSoC5/ADC_Voltage_Target.c **** 
 347:.\Generated_Source\PSoC5/ADC_Voltage_Target.c ****     /* Enable the ADC */
 348:.\Generated_Source\PSoC5/ADC_Voltage_Target.c ****     ADC_Voltage_Target_Enable();
 321              		.loc 1 348 0
 322 0034 FFF7FEFF 		bl	ADC_Voltage_Target_Enable
 349:.\Generated_Source\PSoC5/ADC_Voltage_Target.c **** }
 323              		.loc 1 349 0
 324 0038 80BD     		pop	{r7, pc}
 325              		.cfi_endproc
 326              	.LFE2:
 327              		.size	ADC_Voltage_Target_Start, .-ADC_Voltage_Target_Start
 328 003a 00BF     		.section	.text.ADC_Voltage_Target_Stop,"ax",%progbits
 329              		.align	2
 330              		.global	ADC_Voltage_Target_Stop
 331              		.thumb
ARM GAS  C:\DOCUME~1\ADMINI~1\LOCALS~1\Temp\ccfNfb5I.s 			page 13


 332              		.thumb_func
 333              		.type	ADC_Voltage_Target_Stop, %function
 334              	ADC_Voltage_Target_Stop:
 335              	.LFB3:
 350:.\Generated_Source\PSoC5/ADC_Voltage_Target.c **** 
 351:.\Generated_Source\PSoC5/ADC_Voltage_Target.c **** 
 352:.\Generated_Source\PSoC5/ADC_Voltage_Target.c **** /*******************************************************************************
 353:.\Generated_Source\PSoC5/ADC_Voltage_Target.c **** * Function Name: ADC_Voltage_Target_Stop
 354:.\Generated_Source\PSoC5/ADC_Voltage_Target.c **** ********************************************************************************
 355:.\Generated_Source\PSoC5/ADC_Voltage_Target.c **** *
 356:.\Generated_Source\PSoC5/ADC_Voltage_Target.c **** * Summary:
 357:.\Generated_Source\PSoC5/ADC_Voltage_Target.c **** *  Stops and powers down ADC to lowest power state.
 358:.\Generated_Source\PSoC5/ADC_Voltage_Target.c **** *
 359:.\Generated_Source\PSoC5/ADC_Voltage_Target.c **** * Parameters:  
 360:.\Generated_Source\PSoC5/ADC_Voltage_Target.c **** *  void
 361:.\Generated_Source\PSoC5/ADC_Voltage_Target.c **** *
 362:.\Generated_Source\PSoC5/ADC_Voltage_Target.c **** * Return: 
 363:.\Generated_Source\PSoC5/ADC_Voltage_Target.c **** *  void 
 364:.\Generated_Source\PSoC5/ADC_Voltage_Target.c **** *
 365:.\Generated_Source\PSoC5/ADC_Voltage_Target.c **** *******************************************************************************/
 366:.\Generated_Source\PSoC5/ADC_Voltage_Target.c **** void ADC_Voltage_Target_Stop(void) 
 367:.\Generated_Source\PSoC5/ADC_Voltage_Target.c **** {
 336              		.loc 1 367 0
 337              		.cfi_startproc
 338              		@ args = 0, pretend = 0, frame = 0
 339              		@ frame_needed = 1, uses_anonymous_args = 0
 340 0000 80B5     		push	{r7, lr}
 341              	.LCFI6:
 342              		.cfi_def_cfa_offset 8
 343 0002 00AF     		add	r7, sp, #0
 344              		.cfi_offset 14, -4
 345              		.cfi_offset 7, -8
 346              	.LCFI7:
 347              		.cfi_def_cfa_register 7
 368:.\Generated_Source\PSoC5/ADC_Voltage_Target.c ****     /* Stop conversions */
 369:.\Generated_Source\PSoC5/ADC_Voltage_Target.c ****     ADC_Voltage_Target_DEC_CR_REG &= ~ADC_Voltage_Target_DEC_START_CONV;
 348              		.loc 1 369 0
 349 0004 44F60063 		movw	r3, #:lower16:1073761792
 350 0008 C4F20003 		movt	r3, #:upper16:1073761792
 351 000c 44F60062 		movw	r2, #:lower16:1073761792
 352 0010 C4F20002 		movt	r2, #:upper16:1073761792
 353 0014 1278     		ldrb	r2, [r2, #0]
 354 0016 D2B2     		uxtb	r2, r2
 355 0018 02F0FE02 		and	r2, r2, #254
 356 001c 1A70     		strb	r2, [r3, #0]
 370:.\Generated_Source\PSoC5/ADC_Voltage_Target.c ****     ADC_Voltage_Target_DEC_SR_REG |=  ADC_Voltage_Target_DEC_INTR_CLEAR;
 357              		.loc 1 370 0
 358 001e 44F60163 		movw	r3, #:lower16:1073761793
 359 0022 C4F20003 		movt	r3, #:upper16:1073761793
 360 0026 44F60162 		movw	r2, #:lower16:1073761793
 361 002a C4F20002 		movt	r2, #:upper16:1073761793
 362 002e 1278     		ldrb	r2, [r2, #0]
 363 0030 D2B2     		uxtb	r2, r2
 364 0032 42F00402 		orr	r2, r2, #4
 365 0036 D2B2     		uxtb	r2, r2
 366 0038 1A70     		strb	r2, [r3, #0]
 371:.\Generated_Source\PSoC5/ADC_Voltage_Target.c ****     
ARM GAS  C:\DOCUME~1\ADMINI~1\LOCALS~1\Temp\ccfNfb5I.s 			page 14


 372:.\Generated_Source\PSoC5/ADC_Voltage_Target.c ****     /* Disable PRES, Disable power to VCMBUF0, REFBUF0 and REFBUF1, 
 373:.\Generated_Source\PSoC5/ADC_Voltage_Target.c ****        enable PRES */
 374:.\Generated_Source\PSoC5/ADC_Voltage_Target.c ****     #if (CY_PSOC3 || CY_PSOC5LP)
 375:.\Generated_Source\PSoC5/ADC_Voltage_Target.c ****         ADC_Voltage_Target_RESET_CR4_REG |= ADC_Voltage_Target_IGNORE_PRESA1;
 367              		.loc 1 375 0
 368 003a 44F2F863 		movw	r3, #:lower16:1073759992
 369 003e C4F20003 		movt	r3, #:upper16:1073759992
 370 0042 44F2F862 		movw	r2, #:lower16:1073759992
 371 0046 C4F20002 		movt	r2, #:upper16:1073759992
 372 004a 1278     		ldrb	r2, [r2, #0]
 373 004c D2B2     		uxtb	r2, r2
 374 004e 42F00202 		orr	r2, r2, #2
 375 0052 D2B2     		uxtb	r2, r2
 376 0054 1A70     		strb	r2, [r3, #0]
 376:.\Generated_Source\PSoC5/ADC_Voltage_Target.c ****         ADC_Voltage_Target_RESET_CR5_REG |= ADC_Voltage_Target_IGNORE_PRESA2;
 377              		.loc 1 376 0
 378 0056 44F2F963 		movw	r3, #:lower16:1073759993
 379 005a C4F20003 		movt	r3, #:upper16:1073759993
 380 005e 44F2F962 		movw	r2, #:lower16:1073759993
 381 0062 C4F20002 		movt	r2, #:upper16:1073759993
 382 0066 1278     		ldrb	r2, [r2, #0]
 383 0068 D2B2     		uxtb	r2, r2
 384 006a 42F00202 		orr	r2, r2, #2
 385 006e D2B2     		uxtb	r2, r2
 386 0070 1A70     		strb	r2, [r3, #0]
 377:.\Generated_Source\PSoC5/ADC_Voltage_Target.c ****     #elif (CY_PSOC5A)
 378:.\Generated_Source\PSoC5/ADC_Voltage_Target.c ****         ADC_Voltage_Target_RESET_CR1_REG |= ADC_Voltage_Target_DIS_PRES1;
 379:.\Generated_Source\PSoC5/ADC_Voltage_Target.c ****         ADC_Voltage_Target_RESET_CR3_REG |= ADC_Voltage_Target_DIS_PRES2;
 380:.\Generated_Source\PSoC5/ADC_Voltage_Target.c ****     #endif /* CY_PSOC5A */
 381:.\Generated_Source\PSoC5/ADC_Voltage_Target.c ****     
 382:.\Generated_Source\PSoC5/ADC_Voltage_Target.c ****     ADC_Voltage_Target_DSM_CR17_REG &= ~(ADC_Voltage_Target_DSM_EN_BUF_VREF | ADC_Voltage_Target_DS
 387              		.loc 1 382 0
 388 0072 45F69103 		movw	r3, #:lower16:1073764497
 389 0076 C4F20003 		movt	r3, #:upper16:1073764497
 390 007a 45F69102 		movw	r2, #:lower16:1073764497
 391 007e C4F20002 		movt	r2, #:upper16:1073764497
 392 0082 1278     		ldrb	r2, [r2, #0]
 393 0084 D2B2     		uxtb	r2, r2
 394 0086 02F0FC02 		and	r2, r2, #252
 395 008a 1A70     		strb	r2, [r3, #0]
 383:.\Generated_Source\PSoC5/ADC_Voltage_Target.c ****     ADC_Voltage_Target_DSM_REF0_REG &= ~ADC_Voltage_Target_DSM_EN_BUF_VREF_INN;
 396              		.loc 1 383 0
 397 008c 45F69203 		movw	r3, #:lower16:1073764498
 398 0090 C4F20003 		movt	r3, #:upper16:1073764498
 399 0094 45F69202 		movw	r2, #:lower16:1073764498
 400 0098 C4F20002 		movt	r2, #:upper16:1073764498
 401 009c 1278     		ldrb	r2, [r2, #0]
 402 009e D2B2     		uxtb	r2, r2
 403 00a0 02F0F702 		and	r2, r2, #247
 404 00a4 1A70     		strb	r2, [r3, #0]
 384:.\Generated_Source\PSoC5/ADC_Voltage_Target.c ****     
 385:.\Generated_Source\PSoC5/ADC_Voltage_Target.c ****     /* Wait for 3 microseconds. */
 386:.\Generated_Source\PSoC5/ADC_Voltage_Target.c ****     CyDelayUs(3);
 405              		.loc 1 386 0
 406 00a6 4FF00300 		mov	r0, #3
 407 00aa FFF7FEFF 		bl	CyDelayUs
 387:.\Generated_Source\PSoC5/ADC_Voltage_Target.c ****     
ARM GAS  C:\DOCUME~1\ADMINI~1\LOCALS~1\Temp\ccfNfb5I.s 			page 15


 388:.\Generated_Source\PSoC5/ADC_Voltage_Target.c **** 	/* Enable the press circuit */
 389:.\Generated_Source\PSoC5/ADC_Voltage_Target.c ****     #if (CY_PSOC3 || CY_PSOC5LP)
 390:.\Generated_Source\PSoC5/ADC_Voltage_Target.c ****         ADC_Voltage_Target_RESET_CR4_REG &= ~ADC_Voltage_Target_IGNORE_PRESA1;
 408              		.loc 1 390 0
 409 00ae 44F2F863 		movw	r3, #:lower16:1073759992
 410 00b2 C4F20003 		movt	r3, #:upper16:1073759992
 411 00b6 44F2F862 		movw	r2, #:lower16:1073759992
 412 00ba C4F20002 		movt	r2, #:upper16:1073759992
 413 00be 1278     		ldrb	r2, [r2, #0]
 414 00c0 D2B2     		uxtb	r2, r2
 415 00c2 02F0FD02 		and	r2, r2, #253
 416 00c6 1A70     		strb	r2, [r3, #0]
 391:.\Generated_Source\PSoC5/ADC_Voltage_Target.c ****         ADC_Voltage_Target_RESET_CR5_REG &= ~ADC_Voltage_Target_IGNORE_PRESA2;
 417              		.loc 1 391 0
 418 00c8 44F2F963 		movw	r3, #:lower16:1073759993
 419 00cc C4F20003 		movt	r3, #:upper16:1073759993
 420 00d0 44F2F962 		movw	r2, #:lower16:1073759993
 421 00d4 C4F20002 		movt	r2, #:upper16:1073759993
 422 00d8 1278     		ldrb	r2, [r2, #0]
 423 00da D2B2     		uxtb	r2, r2
 424 00dc 02F0FD02 		and	r2, r2, #253
 425 00e0 1A70     		strb	r2, [r3, #0]
 392:.\Generated_Source\PSoC5/ADC_Voltage_Target.c ****     #elif (CY_PSOC5A)
 393:.\Generated_Source\PSoC5/ADC_Voltage_Target.c ****         ADC_Voltage_Target_RESET_CR1_REG &= ~ADC_Voltage_Target_DIS_PRES1;
 394:.\Generated_Source\PSoC5/ADC_Voltage_Target.c ****         ADC_Voltage_Target_RESET_CR3_REG &= ~ADC_Voltage_Target_DIS_PRES2;
 395:.\Generated_Source\PSoC5/ADC_Voltage_Target.c ****     #endif /* CY_PSOC5A */
 396:.\Generated_Source\PSoC5/ADC_Voltage_Target.c ****     
 397:.\Generated_Source\PSoC5/ADC_Voltage_Target.c ****     /* If PSoC5A then don't disable the power instead put the block to  
 398:.\Generated_Source\PSoC5/ADC_Voltage_Target.c ****        low power mode. Also, save current state of all the power configuration 
 399:.\Generated_Source\PSoC5/ADC_Voltage_Target.c ****        registers before putting block to low power mode */
 400:.\Generated_Source\PSoC5/ADC_Voltage_Target.c ****     #if (CY_PSOC5A)
 401:.\Generated_Source\PSoC5/ADC_Voltage_Target.c ****         
 402:.\Generated_Source\PSoC5/ADC_Voltage_Target.c ****         /* set the flag */
 403:.\Generated_Source\PSoC5/ADC_Voltage_Target.c ****         ADC_Voltage_Target_restoreReg = 1u;
 404:.\Generated_Source\PSoC5/ADC_Voltage_Target.c ****         
 405:.\Generated_Source\PSoC5/ADC_Voltage_Target.c ****         ADC_Voltage_Target_SavePowerRegisters();
 406:.\Generated_Source\PSoC5/ADC_Voltage_Target.c ****         ADC_Voltage_Target_SetLowPower();
 407:.\Generated_Source\PSoC5/ADC_Voltage_Target.c ****     #else    
 408:.\Generated_Source\PSoC5/ADC_Voltage_Target.c ****         /* Disable power to the ADC */
 409:.\Generated_Source\PSoC5/ADC_Voltage_Target.c ****         ADC_Voltage_Target_PWRMGR_DSM_REG &= ~ADC_Voltage_Target_ACT_PWR_DSM_EN;
 426              		.loc 1 409 0
 427 00e2 44F2AA33 		movw	r3, #:lower16:1073759146
 428 00e6 C4F20003 		movt	r3, #:upper16:1073759146
 429 00ea 44F2AA32 		movw	r2, #:lower16:1073759146
 430 00ee C4F20002 		movt	r2, #:upper16:1073759146
 431 00f2 1278     		ldrb	r2, [r2, #0]
 432 00f4 D2B2     		uxtb	r2, r2
 433 00f6 02F0EF02 		and	r2, r2, #239
 434 00fa 1A70     		strb	r2, [r3, #0]
 410:.\Generated_Source\PSoC5/ADC_Voltage_Target.c ****     #endif /* CY_PSOC5A */
 411:.\Generated_Source\PSoC5/ADC_Voltage_Target.c ****     
 412:.\Generated_Source\PSoC5/ADC_Voltage_Target.c ****     /* Disable power to Decimator block */
 413:.\Generated_Source\PSoC5/ADC_Voltage_Target.c ****     ADC_Voltage_Target_PWRMGR_DEC_REG &= ~ADC_Voltage_Target_ACT_PWR_DEC_EN;
 435              		.loc 1 413 0
 436 00fc 44F2AA33 		movw	r3, #:lower16:1073759146
 437 0100 C4F20003 		movt	r3, #:upper16:1073759146
 438 0104 44F2AA32 		movw	r2, #:lower16:1073759146
ARM GAS  C:\DOCUME~1\ADMINI~1\LOCALS~1\Temp\ccfNfb5I.s 			page 16


 439 0108 C4F20002 		movt	r2, #:upper16:1073759146
 440 010c 1278     		ldrb	r2, [r2, #0]
 441 010e D2B2     		uxtb	r2, r2
 442 0110 02F0FE02 		and	r2, r2, #254
 443 0114 1A70     		strb	r2, [r3, #0]
 414:.\Generated_Source\PSoC5/ADC_Voltage_Target.c ****     
 415:.\Generated_Source\PSoC5/ADC_Voltage_Target.c ****     /* Disable alternative active power to the ADC */
 416:.\Generated_Source\PSoC5/ADC_Voltage_Target.c ****     ADC_Voltage_Target_STBY_PWRMGR_DEC_REG &= ~ADC_Voltage_Target_STBY_PWR_DEC_EN;
 444              		.loc 1 416 0
 445 0116 44F2BA33 		movw	r3, #:lower16:1073759162
 446 011a C4F20003 		movt	r3, #:upper16:1073759162
 447 011e 44F2BA32 		movw	r2, #:lower16:1073759162
 448 0122 C4F20002 		movt	r2, #:upper16:1073759162
 449 0126 1278     		ldrb	r2, [r2, #0]
 450 0128 D2B2     		uxtb	r2, r2
 451 012a 02F0FE02 		and	r2, r2, #254
 452 012e 1A70     		strb	r2, [r3, #0]
 417:.\Generated_Source\PSoC5/ADC_Voltage_Target.c ****     #if (CY_PSOC3 || CY_PSOC5LP)
 418:.\Generated_Source\PSoC5/ADC_Voltage_Target.c ****     ADC_Voltage_Target_STBY_PWRMGR_DSM_REG &= ~ADC_Voltage_Target_STBY_PWR_DSM_EN;
 453              		.loc 1 418 0
 454 0130 44F2BA33 		movw	r3, #:lower16:1073759162
 455 0134 C4F20003 		movt	r3, #:upper16:1073759162
 456 0138 44F2BA32 		movw	r2, #:lower16:1073759162
 457 013c C4F20002 		movt	r2, #:upper16:1073759162
 458 0140 1278     		ldrb	r2, [r2, #0]
 459 0142 D2B2     		uxtb	r2, r2
 460 0144 02F0EF02 		and	r2, r2, #239
 461 0148 1A70     		strb	r2, [r3, #0]
 419:.\Generated_Source\PSoC5/ADC_Voltage_Target.c ****     #endif /* CY_PSOC3 || CY_PSOC5LP */
 420:.\Generated_Source\PSoC5/ADC_Voltage_Target.c **** 
 421:.\Generated_Source\PSoC5/ADC_Voltage_Target.c ****    /* Disable negative pumps for DSM  */
 422:.\Generated_Source\PSoC5/ADC_Voltage_Target.c ****     ADC_Voltage_Target_PUMP_CR1_REG &= ~(ADC_Voltage_Target_PUMP_CR1_CLKSEL | ADC_Voltage_Target_PU
 462              		.loc 1 422 0
 463 014a 45F67703 		movw	r3, #:lower16:1073764471
 464 014e C4F20003 		movt	r3, #:upper16:1073764471
 465 0152 45F67702 		movw	r2, #:lower16:1073764471
 466 0156 C4F20002 		movt	r2, #:upper16:1073764471
 467 015a 1278     		ldrb	r2, [r2, #0]
 468 015c D2B2     		uxtb	r2, r2
 469 015e 02F0F902 		and	r2, r2, #249
 470 0162 1A70     		strb	r2, [r3, #0]
 423:.\Generated_Source\PSoC5/ADC_Voltage_Target.c ****     
 424:.\Generated_Source\PSoC5/ADC_Voltage_Target.c ****     /* This is only valid if there is an internal clock */
 425:.\Generated_Source\PSoC5/ADC_Voltage_Target.c ****     #if(ADC_Voltage_Target_DEFAULT_INTERNAL_CLK)
 426:.\Generated_Source\PSoC5/ADC_Voltage_Target.c ****         ADC_Voltage_Target_PWRMGR_CLK_REG &= ~ADC_Voltage_Target_ACT_PWR_CLK_EN;
 471              		.loc 1 426 0
 472 0164 44F2A133 		movw	r3, #:lower16:1073759137
 473 0168 C4F20003 		movt	r3, #:upper16:1073759137
 474 016c 44F2A132 		movw	r2, #:lower16:1073759137
 475 0170 C4F20002 		movt	r2, #:upper16:1073759137
 476 0174 1278     		ldrb	r2, [r2, #0]
 477 0176 D2B2     		uxtb	r2, r2
 478 0178 02F0FE02 		and	r2, r2, #254
 479 017c 1A70     		strb	r2, [r3, #0]
 427:.\Generated_Source\PSoC5/ADC_Voltage_Target.c ****         ADC_Voltage_Target_STBY_PWRMGR_CLK_REG &= ~ADC_Voltage_Target_STBY_PWR_CLK_EN;
 480              		.loc 1 427 0
 481 017e 44F2B133 		movw	r3, #:lower16:1073759153
ARM GAS  C:\DOCUME~1\ADMINI~1\LOCALS~1\Temp\ccfNfb5I.s 			page 17


 482 0182 C4F20003 		movt	r3, #:upper16:1073759153
 483 0186 44F2B132 		movw	r2, #:lower16:1073759153
 484 018a C4F20002 		movt	r2, #:upper16:1073759153
 485 018e 1278     		ldrb	r2, [r2, #0]
 486 0190 D2B2     		uxtb	r2, r2
 487 0192 02F0FE02 		and	r2, r2, #254
 488 0196 1A70     		strb	r2, [r3, #0]
 428:.\Generated_Source\PSoC5/ADC_Voltage_Target.c ****     #endif /* ADC_Voltage_Target_DEFAULT_INTERNAL_CLK */
 429:.\Generated_Source\PSoC5/ADC_Voltage_Target.c ****     
 430:.\Generated_Source\PSoC5/ADC_Voltage_Target.c ****     /* Disable power to charge pump clock */
 431:.\Generated_Source\PSoC5/ADC_Voltage_Target.c ****     ADC_Voltage_Target_PWRMGR_CHARGE_PUMP_CLK_REG &= ~ADC_Voltage_Target_ACT_PWR_CHARGE_PUMP_CLK_EN
 489              		.loc 1 431 0
 490 0198 44F2A233 		movw	r3, #:lower16:1073759138
 491 019c C4F20003 		movt	r3, #:upper16:1073759138
 492 01a0 44F2A232 		movw	r2, #:lower16:1073759138
 493 01a4 C4F20002 		movt	r2, #:upper16:1073759138
 494 01a8 1278     		ldrb	r2, [r2, #0]
 495 01aa D2B2     		uxtb	r2, r2
 496 01ac 02F0FB02 		and	r2, r2, #251
 497 01b0 1A70     		strb	r2, [r3, #0]
 432:.\Generated_Source\PSoC5/ADC_Voltage_Target.c ****     ADC_Voltage_Target_STBY_PWRMGR_CHARGE_PUMP_CLK_REG &= ~ADC_Voltage_Target_STBY_PWR_CHARGE_PUMP_
 498              		.loc 1 432 0
 499 01b2 44F2B233 		movw	r3, #:lower16:1073759154
 500 01b6 C4F20003 		movt	r3, #:upper16:1073759154
 501 01ba 44F2B232 		movw	r2, #:lower16:1073759154
 502 01be C4F20002 		movt	r2, #:upper16:1073759154
 503 01c2 1278     		ldrb	r2, [r2, #0]
 504 01c4 D2B2     		uxtb	r2, r2
 505 01c6 02F0FB02 		and	r2, r2, #251
 506 01ca 1A70     		strb	r2, [r3, #0]
 433:.\Generated_Source\PSoC5/ADC_Voltage_Target.c **** }
 507              		.loc 1 433 0
 508 01cc 80BD     		pop	{r7, pc}
 509              		.cfi_endproc
 510              	.LFE3:
 511              		.size	ADC_Voltage_Target_Stop, .-ADC_Voltage_Target_Stop
 512 01ce 00BF     		.section	.text.ADC_Voltage_Target_SetBufferGain,"ax",%progbits
 513              		.align	2
 514              		.global	ADC_Voltage_Target_SetBufferGain
 515              		.thumb
 516              		.thumb_func
 517              		.type	ADC_Voltage_Target_SetBufferGain, %function
 518              	ADC_Voltage_Target_SetBufferGain:
 519              	.LFB4:
 434:.\Generated_Source\PSoC5/ADC_Voltage_Target.c **** 
 435:.\Generated_Source\PSoC5/ADC_Voltage_Target.c **** 
 436:.\Generated_Source\PSoC5/ADC_Voltage_Target.c **** /*******************************************************************************
 437:.\Generated_Source\PSoC5/ADC_Voltage_Target.c **** * Function Name: ADC_Voltage_Target_SetBufferGain
 438:.\Generated_Source\PSoC5/ADC_Voltage_Target.c **** ********************************************************************************
 439:.\Generated_Source\PSoC5/ADC_Voltage_Target.c **** *
 440:.\Generated_Source\PSoC5/ADC_Voltage_Target.c **** * Summary:
 441:.\Generated_Source\PSoC5/ADC_Voltage_Target.c **** *  Set input buffer range.
 442:.\Generated_Source\PSoC5/ADC_Voltage_Target.c **** *
 443:.\Generated_Source\PSoC5/ADC_Voltage_Target.c **** * Parameters:  
 444:.\Generated_Source\PSoC5/ADC_Voltage_Target.c **** *  gain:  Two bit value to select a gain of 1, 2, 4, or 8.
 445:.\Generated_Source\PSoC5/ADC_Voltage_Target.c **** *
 446:.\Generated_Source\PSoC5/ADC_Voltage_Target.c **** * Return: 
ARM GAS  C:\DOCUME~1\ADMINI~1\LOCALS~1\Temp\ccfNfb5I.s 			page 18


 447:.\Generated_Source\PSoC5/ADC_Voltage_Target.c **** *  void
 448:.\Generated_Source\PSoC5/ADC_Voltage_Target.c **** *
 449:.\Generated_Source\PSoC5/ADC_Voltage_Target.c **** *******************************************************************************/
 450:.\Generated_Source\PSoC5/ADC_Voltage_Target.c **** void ADC_Voltage_Target_SetBufferGain(uint8 gain) 
 451:.\Generated_Source\PSoC5/ADC_Voltage_Target.c **** {
 520              		.loc 1 451 0
 521              		.cfi_startproc
 522              		@ args = 0, pretend = 0, frame = 16
 523              		@ frame_needed = 1, uses_anonymous_args = 0
 524              		@ link register save eliminated.
 525 0000 80B4     		push	{r7}
 526              	.LCFI8:
 527              		.cfi_def_cfa_offset 4
 528 0002 85B0     		sub	sp, sp, #20
 529              	.LCFI9:
 530              		.cfi_def_cfa_offset 24
 531 0004 00AF     		add	r7, sp, #0
 532              		.cfi_offset 7, -4
 533              	.LCFI10:
 534              		.cfi_def_cfa_register 7
 535 0006 0346     		mov	r3, r0
 536 0008 FB71     		strb	r3, [r7, #7]
 452:.\Generated_Source\PSoC5/ADC_Voltage_Target.c ****     uint8 tmpReg;
 453:.\Generated_Source\PSoC5/ADC_Voltage_Target.c ****     tmpReg = ADC_Voltage_Target_DSM_BUF1_REG & ~ADC_Voltage_Target_DSM_GAIN_MASK;
 537              		.loc 1 453 0
 538 000a 45F69B03 		movw	r3, #:lower16:1073764507
 539 000e C4F20003 		movt	r3, #:upper16:1073764507
 540 0012 1B78     		ldrb	r3, [r3, #0]
 541 0014 DBB2     		uxtb	r3, r3
 542 0016 23F00C03 		bic	r3, r3, #12
 543 001a FB73     		strb	r3, [r7, #15]
 454:.\Generated_Source\PSoC5/ADC_Voltage_Target.c ****     tmpReg |= (gain << 2);
 544              		.loc 1 454 0
 545 001c FB79     		ldrb	r3, [r7, #7]	@ zero_extendqisi2
 546 001e 4FEA8303 		lsl	r3, r3, #2
 547 0022 DAB2     		uxtb	r2, r3
 548 0024 FB7B     		ldrb	r3, [r7, #15]	@ zero_extendqisi2
 549 0026 42EA0303 		orr	r3, r2, r3
 550 002a DBB2     		uxtb	r3, r3
 551 002c FB73     		strb	r3, [r7, #15]
 455:.\Generated_Source\PSoC5/ADC_Voltage_Target.c ****     ADC_Voltage_Target_DSM_BUF1_REG = tmpReg;
 552              		.loc 1 455 0
 553 002e 45F69B03 		movw	r3, #:lower16:1073764507
 554 0032 C4F20003 		movt	r3, #:upper16:1073764507
 555 0036 FA7B     		ldrb	r2, [r7, #15]
 556 0038 1A70     		strb	r2, [r3, #0]
 456:.\Generated_Source\PSoC5/ADC_Voltage_Target.c **** }
 557              		.loc 1 456 0
 558 003a 07F11407 		add	r7, r7, #20
 559 003e BD46     		mov	sp, r7
 560 0040 80BC     		pop	{r7}
 561 0042 7047     		bx	lr
 562              		.cfi_endproc
 563              	.LFE4:
 564              		.size	ADC_Voltage_Target_SetBufferGain, .-ADC_Voltage_Target_SetBufferGain
 565              		.section	.text.ADC_Voltage_Target_SetCoherency,"ax",%progbits
 566              		.align	2
ARM GAS  C:\DOCUME~1\ADMINI~1\LOCALS~1\Temp\ccfNfb5I.s 			page 19


 567              		.global	ADC_Voltage_Target_SetCoherency
 568              		.thumb
 569              		.thumb_func
 570              		.type	ADC_Voltage_Target_SetCoherency, %function
 571              	ADC_Voltage_Target_SetCoherency:
 572              	.LFB5:
 457:.\Generated_Source\PSoC5/ADC_Voltage_Target.c **** 
 458:.\Generated_Source\PSoC5/ADC_Voltage_Target.c **** 
 459:.\Generated_Source\PSoC5/ADC_Voltage_Target.c **** /*******************************************************************************
 460:.\Generated_Source\PSoC5/ADC_Voltage_Target.c **** * Function Name: ADC_Voltage_Target_SetCoherency
 461:.\Generated_Source\PSoC5/ADC_Voltage_Target.c **** ********************************************************************************
 462:.\Generated_Source\PSoC5/ADC_Voltage_Target.c **** *
 463:.\Generated_Source\PSoC5/ADC_Voltage_Target.c **** * Summary:
 464:.\Generated_Source\PSoC5/ADC_Voltage_Target.c **** *  Sets the ADC output register coherency bit.
 465:.\Generated_Source\PSoC5/ADC_Voltage_Target.c **** *
 466:.\Generated_Source\PSoC5/ADC_Voltage_Target.c **** * Parameters:  
 467:.\Generated_Source\PSoC5/ADC_Voltage_Target.c **** *  gain:  Two bit value to set the coherency bit.
 468:.\Generated_Source\PSoC5/ADC_Voltage_Target.c ****           00-Coherency checking off
 469:.\Generated_Source\PSoC5/ADC_Voltage_Target.c ****           01-low byte is key byte
 470:.\Generated_Source\PSoC5/ADC_Voltage_Target.c ****           02-middle byte is the key byte
 471:.\Generated_Source\PSoC5/ADC_Voltage_Target.c ****           03-high byte is the key byte
 472:.\Generated_Source\PSoC5/ADC_Voltage_Target.c **** *
 473:.\Generated_Source\PSoC5/ADC_Voltage_Target.c **** * Return: 
 474:.\Generated_Source\PSoC5/ADC_Voltage_Target.c **** *  void
 475:.\Generated_Source\PSoC5/ADC_Voltage_Target.c **** *
 476:.\Generated_Source\PSoC5/ADC_Voltage_Target.c **** * Side Effects:  If the coherency is changed, for any reason, it should be 
 477:.\Generated_Source\PSoC5/ADC_Voltage_Target.c **** *                changed back to the LSB when the provided "GetResult" API 
 478:.\Generated_Source\PSoC5/ADC_Voltage_Target.c **** *                is used.
 479:.\Generated_Source\PSoC5/ADC_Voltage_Target.c **** *
 480:.\Generated_Source\PSoC5/ADC_Voltage_Target.c **** *******************************************************************************/
 481:.\Generated_Source\PSoC5/ADC_Voltage_Target.c **** void ADC_Voltage_Target_SetCoherency(uint8 coherency) 
 482:.\Generated_Source\PSoC5/ADC_Voltage_Target.c **** {
 573              		.loc 1 482 0
 574              		.cfi_startproc
 575              		@ args = 0, pretend = 0, frame = 16
 576              		@ frame_needed = 1, uses_anonymous_args = 0
 577              		@ link register save eliminated.
 578 0000 80B4     		push	{r7}
 579              	.LCFI11:
 580              		.cfi_def_cfa_offset 4
 581 0002 85B0     		sub	sp, sp, #20
 582              	.LCFI12:
 583              		.cfi_def_cfa_offset 24
 584 0004 00AF     		add	r7, sp, #0
 585              		.cfi_offset 7, -4
 586              	.LCFI13:
 587              		.cfi_def_cfa_register 7
 588 0006 0346     		mov	r3, r0
 589 0008 FB71     		strb	r3, [r7, #7]
 483:.\Generated_Source\PSoC5/ADC_Voltage_Target.c ****     uint8 tmpReg;    
 484:.\Generated_Source\PSoC5/ADC_Voltage_Target.c ****     tmpReg = ADC_Voltage_Target_DEC_COHER_REG & ~ADC_Voltage_Target_DEC_SAMP_KEY_MASK;
 590              		.loc 1 484 0
 591 000a 44F61463 		movw	r3, #:lower16:1073761812
 592 000e C4F20003 		movt	r3, #:upper16:1073761812
 593 0012 1B78     		ldrb	r3, [r3, #0]
 594 0014 DBB2     		uxtb	r3, r3
 595 0016 23F00303 		bic	r3, r3, #3
ARM GAS  C:\DOCUME~1\ADMINI~1\LOCALS~1\Temp\ccfNfb5I.s 			page 20


 596 001a FB73     		strb	r3, [r7, #15]
 485:.\Generated_Source\PSoC5/ADC_Voltage_Target.c ****     tmpReg |= coherency;
 597              		.loc 1 485 0
 598 001c FA7B     		ldrb	r2, [r7, #15]
 599 001e FB79     		ldrb	r3, [r7, #7]
 600 0020 42EA0303 		orr	r3, r2, r3
 601 0024 FB73     		strb	r3, [r7, #15]
 486:.\Generated_Source\PSoC5/ADC_Voltage_Target.c ****     ADC_Voltage_Target_DEC_COHER_REG = tmpReg;
 602              		.loc 1 486 0
 603 0026 44F61463 		movw	r3, #:lower16:1073761812
 604 002a C4F20003 		movt	r3, #:upper16:1073761812
 605 002e FA7B     		ldrb	r2, [r7, #15]
 606 0030 1A70     		strb	r2, [r3, #0]
 487:.\Generated_Source\PSoC5/ADC_Voltage_Target.c **** }
 607              		.loc 1 487 0
 608 0032 07F11407 		add	r7, r7, #20
 609 0036 BD46     		mov	sp, r7
 610 0038 80BC     		pop	{r7}
 611 003a 7047     		bx	lr
 612              		.cfi_endproc
 613              	.LFE5:
 614              		.size	ADC_Voltage_Target_SetCoherency, .-ADC_Voltage_Target_SetCoherency
 615              		.global	__aeabi_ui2f
 616              		.global	__aeabi_fdiv
 617              		.global	__aeabi_fmul
 618              		.global	__aeabi_f2d
 619              		.global	__aeabi_dcmpgt
 620              		.global	__aeabi_f2uiz
 621              		.section	.text.ADC_Voltage_Target_SetGCOR,"ax",%progbits
 622              		.align	2
 623              		.global	ADC_Voltage_Target_SetGCOR
 624              		.thumb
 625              		.thumb_func
 626              		.type	ADC_Voltage_Target_SetGCOR, %function
 627              	ADC_Voltage_Target_SetGCOR:
 628              	.LFB6:
 488:.\Generated_Source\PSoC5/ADC_Voltage_Target.c **** 
 489:.\Generated_Source\PSoC5/ADC_Voltage_Target.c **** 
 490:.\Generated_Source\PSoC5/ADC_Voltage_Target.c **** /*******************************************************************************
 491:.\Generated_Source\PSoC5/ADC_Voltage_Target.c **** * Function Name: ADC_Voltage_Target_SetGCOR
 492:.\Generated_Source\PSoC5/ADC_Voltage_Target.c **** ********************************************************************************
 493:.\Generated_Source\PSoC5/ADC_Voltage_Target.c **** *
 494:.\Generated_Source\PSoC5/ADC_Voltage_Target.c **** * Summary:
 495:.\Generated_Source\PSoC5/ADC_Voltage_Target.c **** *  Calculates a new GCOR value and writes it into the GCOR register.
 496:.\Generated_Source\PSoC5/ADC_Voltage_Target.c **** *
 497:.\Generated_Source\PSoC5/ADC_Voltage_Target.c **** * Parameters:  
 498:.\Generated_Source\PSoC5/ADC_Voltage_Target.c **** *  gainAdjust:  floating point value to set GCOR registers.
 499:.\Generated_Source\PSoC5/ADC_Voltage_Target.c **** *
 500:.\Generated_Source\PSoC5/ADC_Voltage_Target.c **** * Return: 
 501:.\Generated_Source\PSoC5/ADC_Voltage_Target.c **** *  uint8:  0-if GCOR value is within the expected range.
 502:.\Generated_Source\PSoC5/ADC_Voltage_Target.c ****            1- if GCOR is outside the expected range.
 503:.\Generated_Source\PSoC5/ADC_Voltage_Target.c **** *
 504:.\Generated_Source\PSoC5/ADC_Voltage_Target.c **** * Side Effects:  The GVAL register is set to the amount of valid bits in the
 505:.\Generated_Source\PSoC5/ADC_Voltage_Target.c **** *                GCOR  register minus one. If GVAL is 15 (0x0F), all 16 bits
 506:.\Generated_Source\PSoC5/ADC_Voltage_Target.c **** *                of the GCOR registers will be valid. If for example GVAL is 
 507:.\Generated_Source\PSoC5/ADC_Voltage_Target.c **** *                11 (0x0B) only 12 bits will be valid. The least 4 bits will
 508:.\Generated_Source\PSoC5/ADC_Voltage_Target.c **** *                be lost when the GCOR value is shifted 4 places to the right.
ARM GAS  C:\DOCUME~1\ADMINI~1\LOCALS~1\Temp\ccfNfb5I.s 			page 21


 509:.\Generated_Source\PSoC5/ADC_Voltage_Target.c **** *
 510:.\Generated_Source\PSoC5/ADC_Voltage_Target.c **** ******************************************************************************/
 511:.\Generated_Source\PSoC5/ADC_Voltage_Target.c **** uint8 ADC_Voltage_Target_SetGCOR(float gainAdjust) 
 512:.\Generated_Source\PSoC5/ADC_Voltage_Target.c **** {
 629              		.loc 1 512 0
 630              		.cfi_startproc
 631              		@ args = 0, pretend = 0, frame = 16
 632              		@ frame_needed = 1, uses_anonymous_args = 0
 633 0000 90B5     		push	{r4, r7, lr}
 634              	.LCFI14:
 635              		.cfi_def_cfa_offset 12
 636 0002 85B0     		sub	sp, sp, #20
 637              	.LCFI15:
 638              		.cfi_def_cfa_offset 32
 639 0004 00AF     		add	r7, sp, #0
 640              		.cfi_offset 14, -4
 641              		.cfi_offset 7, -8
 642              		.cfi_offset 4, -12
 643              	.LCFI16:
 644              		.cfi_def_cfa_register 7
 645 0006 7860     		str	r0, [r7, #4]	@ float
 513:.\Generated_Source\PSoC5/ADC_Voltage_Target.c ****     uint16 tmpReg;
 514:.\Generated_Source\PSoC5/ADC_Voltage_Target.c ****     uint8 status;
 515:.\Generated_Source\PSoC5/ADC_Voltage_Target.c ****     float tmpValue;
 516:.\Generated_Source\PSoC5/ADC_Voltage_Target.c ****     
 517:.\Generated_Source\PSoC5/ADC_Voltage_Target.c ****     tmpReg = ADC_Voltage_Target_DEC_GCORH_REG;
 646              		.loc 1 517 0
 647 0008 44F60D63 		movw	r3, #:lower16:1073761805
 648 000c C4F20003 		movt	r3, #:upper16:1073761805
 649 0010 1B78     		ldrb	r3, [r3, #0]
 650 0012 DBB2     		uxtb	r3, r3
 651 0014 3B81     		strh	r3, [r7, #8]	@ movhi
 518:.\Generated_Source\PSoC5/ADC_Voltage_Target.c ****     tmpReg = (tmpReg << 8) | ADC_Voltage_Target_DEC_GCOR_REG;
 652              		.loc 1 518 0
 653 0016 3B89     		ldrh	r3, [r7, #8]
 654 0018 4FEA0323 		lsl	r3, r3, #8
 655 001c 9AB2     		uxth	r2, r3
 656 001e 44F60C63 		movw	r3, #:lower16:1073761804
 657 0022 C4F20003 		movt	r3, #:upper16:1073761804
 658 0026 1B78     		ldrb	r3, [r3, #0]
 659 0028 DBB2     		uxtb	r3, r3
 660 002a 42EA0303 		orr	r3, r2, r3
 661 002e 9BB2     		uxth	r3, r3
 662 0030 3B81     		strh	r3, [r7, #8]	@ movhi
 519:.\Generated_Source\PSoC5/ADC_Voltage_Target.c ****     tmpValue = ((float)tmpReg / ADC_Voltage_Target_IDEAL_GAIN_CONST);
 663              		.loc 1 519 0
 664 0032 3B89     		ldrh	r3, [r7, #8]
 665 0034 1846     		mov	r0, r3
 666 0036 FFF7FEFF 		bl	__aeabi_ui2f
 667 003a 0346     		mov	r3, r0
 668 003c 1846     		mov	r0, r3
 669 003e 2849     		ldr	r1, .L22+8	@ float
 670 0040 FFF7FEFF 		bl	__aeabi_fdiv
 671 0044 0346     		mov	r3, r0
 672 0046 FB60     		str	r3, [r7, #12]	@ float
 520:.\Generated_Source\PSoC5/ADC_Voltage_Target.c ****     tmpValue = tmpValue * gainAdjust;
 673              		.loc 1 520 0
ARM GAS  C:\DOCUME~1\ADMINI~1\LOCALS~1\Temp\ccfNfb5I.s 			page 22


 674 0048 F868     		ldr	r0, [r7, #12]	@ float
 675 004a 7968     		ldr	r1, [r7, #4]	@ float
 676 004c FFF7FEFF 		bl	__aeabi_fmul
 677 0050 0346     		mov	r3, r0
 678 0052 FB60     		str	r3, [r7, #12]	@ float
 521:.\Generated_Source\PSoC5/ADC_Voltage_Target.c ****     
 522:.\Generated_Source\PSoC5/ADC_Voltage_Target.c ****     if (tmpValue > 1.9999)
 679              		.loc 1 522 0
 680 0054 F868     		ldr	r0, [r7, #12]	@ float
 681 0056 FFF7FEFF 		bl	__aeabi_f2d
 682 005a 0246     		mov	r2, r0
 683 005c 0B46     		mov	r3, r1
 684 005e 4FF00001 		mov	r1, #0
 685 0062 0C46     		mov	r4, r1
 686 0064 1046     		mov	r0, r2
 687 0066 1946     		mov	r1, r3
 688 0068 1BA3     		adr	r3, .L22
 689 006a D3E90023 		ldrd	r2, [r3]
 690 006e FFF7FEFF 		bl	__aeabi_dcmpgt
 691 0072 0346     		mov	r3, r0
 692 0074 002B     		cmp	r3, #0
 693 0076 02D0     		beq	.L17
 694              	.L18:
 695 0078 4FF00103 		mov	r3, #1
 696 007c 1C46     		mov	r4, r3
 697              	.L17:
 698 007e E3B2     		uxtb	r3, r4
 699 0080 002B     		cmp	r3, #0
 700 0082 03D0     		beq	.L19
 523:.\Generated_Source\PSoC5/ADC_Voltage_Target.c ****     {
 524:.\Generated_Source\PSoC5/ADC_Voltage_Target.c ****         status = 1;
 701              		.loc 1 524 0
 702 0084 4FF00103 		mov	r3, #1
 703 0088 FB72     		strb	r3, [r7, #11]
 704 008a 1DE0     		b	.L20
 705              	.L19:
 525:.\Generated_Source\PSoC5/ADC_Voltage_Target.c ****     }
 526:.\Generated_Source\PSoC5/ADC_Voltage_Target.c ****     else
 527:.\Generated_Source\PSoC5/ADC_Voltage_Target.c ****     {
 528:.\Generated_Source\PSoC5/ADC_Voltage_Target.c ****         tmpReg = (uint16)(tmpValue * ADC_Voltage_Target_IDEAL_GAIN_CONST);
 706              		.loc 1 528 0
 707 008c F868     		ldr	r0, [r7, #12]	@ float
 708 008e 1449     		ldr	r1, .L22+8	@ float
 709 0090 FFF7FEFF 		bl	__aeabi_fmul
 710 0094 0346     		mov	r3, r0
 711 0096 1846     		mov	r0, r3
 712 0098 FFF7FEFF 		bl	__aeabi_f2uiz
 713 009c 0346     		mov	r3, r0
 714 009e 3B81     		strh	r3, [r7, #8]	@ movhi
 529:.\Generated_Source\PSoC5/ADC_Voltage_Target.c ****         ADC_Voltage_Target_DEC_GCOR_REG = (uint8)tmpReg;
 715              		.loc 1 529 0
 716 00a0 44F60C63 		movw	r3, #:lower16:1073761804
 717 00a4 C4F20003 		movt	r3, #:upper16:1073761804
 718 00a8 3A89     		ldrh	r2, [r7, #8]	@ movhi
 719 00aa D2B2     		uxtb	r2, r2
 720 00ac 1A70     		strb	r2, [r3, #0]
 530:.\Generated_Source\PSoC5/ADC_Voltage_Target.c ****         ADC_Voltage_Target_DEC_GCORH_REG = (uint8) (tmpReg >> 8);
ARM GAS  C:\DOCUME~1\ADMINI~1\LOCALS~1\Temp\ccfNfb5I.s 			page 23


 721              		.loc 1 530 0
 722 00ae 44F60D63 		movw	r3, #:lower16:1073761805
 723 00b2 C4F20003 		movt	r3, #:upper16:1073761805
 724 00b6 3A89     		ldrh	r2, [r7, #8]
 725 00b8 4FEA1222 		lsr	r2, r2, #8
 726 00bc 92B2     		uxth	r2, r2
 727 00be D2B2     		uxtb	r2, r2
 728 00c0 1A70     		strb	r2, [r3, #0]
 531:.\Generated_Source\PSoC5/ADC_Voltage_Target.c ****         status = 0;
 729              		.loc 1 531 0
 730 00c2 4FF00003 		mov	r3, #0
 731 00c6 FB72     		strb	r3, [r7, #11]
 732              	.L20:
 532:.\Generated_Source\PSoC5/ADC_Voltage_Target.c ****     }
 533:.\Generated_Source\PSoC5/ADC_Voltage_Target.c ****     
 534:.\Generated_Source\PSoC5/ADC_Voltage_Target.c ****     return status;
 733              		.loc 1 534 0
 734 00c8 FB7A     		ldrb	r3, [r7, #11]	@ zero_extendqisi2
 535:.\Generated_Source\PSoC5/ADC_Voltage_Target.c **** }
 735              		.loc 1 535 0
 736 00ca 1846     		mov	r0, r3
 737 00cc 07F11407 		add	r7, r7, #20
 738 00d0 BD46     		mov	sp, r7
 739 00d2 90BD     		pop	{r4, r7, pc}
 740              	.L23:
 741 00d4 AFF30080 		.align	3
 742              	.L22:
 743 00d8 8F537424 		.word	611603343
 744 00dc 97FFFF3F 		.word	1073741719
 745 00e0 00000047 		.word	1191182336
 746              		.cfi_endproc
 747              	.LFE6:
 748              		.size	ADC_Voltage_Target_SetGCOR, .-ADC_Voltage_Target_SetGCOR
 749 00e4 AFF30080 		.section	.text.ADC_Voltage_Target_ReadGCOR,"ax",%progbits
 750              		.align	2
 751              		.global	ADC_Voltage_Target_ReadGCOR
 752              		.thumb
 753              		.thumb_func
 754              		.type	ADC_Voltage_Target_ReadGCOR, %function
 755              	ADC_Voltage_Target_ReadGCOR:
 756              	.LFB7:
 536:.\Generated_Source\PSoC5/ADC_Voltage_Target.c **** 
 537:.\Generated_Source\PSoC5/ADC_Voltage_Target.c **** 
 538:.\Generated_Source\PSoC5/ADC_Voltage_Target.c **** /******************************************************************************
 539:.\Generated_Source\PSoC5/ADC_Voltage_Target.c **** * Function Name: ADC_Voltage_Target_ReadGCOR
 540:.\Generated_Source\PSoC5/ADC_Voltage_Target.c **** *******************************************************************************
 541:.\Generated_Source\PSoC5/ADC_Voltage_Target.c **** *
 542:.\Generated_Source\PSoC5/ADC_Voltage_Target.c **** * Summary:
 543:.\Generated_Source\PSoC5/ADC_Voltage_Target.c **** *  This API returns the current GCOR register value, normalized based on the 
 544:.\Generated_Source\PSoC5/ADC_Voltage_Target.c **** *  GVAL register settings.
 545:.\Generated_Source\PSoC5/ADC_Voltage_Target.c **** *
 546:.\Generated_Source\PSoC5/ADC_Voltage_Target.c **** * Parameters:  
 547:.\Generated_Source\PSoC5/ADC_Voltage_Target.c **** *  void
 548:.\Generated_Source\PSoC5/ADC_Voltage_Target.c **** *
 549:.\Generated_Source\PSoC5/ADC_Voltage_Target.c **** * Return: 
 550:.\Generated_Source\PSoC5/ADC_Voltage_Target.c **** *  uint16:  Normalized GCOR value.
 551:.\Generated_Source\PSoC5/ADC_Voltage_Target.c **** *
ARM GAS  C:\DOCUME~1\ADMINI~1\LOCALS~1\Temp\ccfNfb5I.s 			page 24


 552:.\Generated_Source\PSoC5/ADC_Voltage_Target.c **** * Side Effects:  If the GVAL register is set to a value greater than 0x0F, then
 553:.\Generated_Source\PSoC5/ADC_Voltage_Target.c ****                  it gives unexpected value.
 554:.\Generated_Source\PSoC5/ADC_Voltage_Target.c **** *
 555:.\Generated_Source\PSoC5/ADC_Voltage_Target.c **** *******************************************************************************/
 556:.\Generated_Source\PSoC5/ADC_Voltage_Target.c **** uint16 ADC_Voltage_Target_ReadGCOR(void) 
 557:.\Generated_Source\PSoC5/ADC_Voltage_Target.c **** {
 757              		.loc 1 557 0
 758              		.cfi_startproc
 759              		@ args = 0, pretend = 0, frame = 8
 760              		@ frame_needed = 1, uses_anonymous_args = 0
 761              		@ link register save eliminated.
 762 0000 80B4     		push	{r7}
 763              	.LCFI17:
 764              		.cfi_def_cfa_offset 4
 765 0002 83B0     		sub	sp, sp, #12
 766              	.LCFI18:
 767              		.cfi_def_cfa_offset 16
 768 0004 00AF     		add	r7, sp, #0
 769              		.cfi_offset 7, -4
 770              	.LCFI19:
 771              		.cfi_def_cfa_register 7
 558:.\Generated_Source\PSoC5/ADC_Voltage_Target.c ****     uint8 gValue;
 559:.\Generated_Source\PSoC5/ADC_Voltage_Target.c ****     uint16 gcorValue, gcorRegValue;
 560:.\Generated_Source\PSoC5/ADC_Voltage_Target.c ****     
 561:.\Generated_Source\PSoC5/ADC_Voltage_Target.c ****     gValue = ADC_Voltage_Target_DEC_GVAL_REG;
 772              		.loc 1 561 0
 773 0006 44F60E63 		movw	r3, #:lower16:1073761806
 774 000a C4F20003 		movt	r3, #:upper16:1073761806
 775 000e 1B78     		ldrb	r3, [r3, #0]
 776 0010 FB70     		strb	r3, [r7, #3]
 562:.\Generated_Source\PSoC5/ADC_Voltage_Target.c ****     gcorRegValue = CY_GET_REG16(ADC_Voltage_Target_DEC_GCOR_PTR);
 777              		.loc 1 562 0
 778 0012 44F60C63 		movw	r3, #:lower16:1073761804
 779 0016 C4F20003 		movt	r3, #:upper16:1073761804
 780 001a 1B88     		ldrh	r3, [r3, #0]	@ movhi
 781 001c FB80     		strh	r3, [r7, #6]	@ movhi
 563:.\Generated_Source\PSoC5/ADC_Voltage_Target.c ****     
 564:.\Generated_Source\PSoC5/ADC_Voltage_Target.c ****     switch (gValue)
 782              		.loc 1 564 0
 783 001e FB78     		ldrb	r3, [r7, #3]	@ zero_extendqisi2
 784 0020 A3F10903 		sub	r3, r3, #9
 785 0024 052B     		cmp	r3, #5
 786 0026 3FD8     		bhi	.L25
 787 0028 01A2     		adr	r2, .L32
 788 002a 52F823F0 		ldr	pc, [r2, r3, lsl #2]
 789 002e 00BF     		.align	2
 790              	.L32:
 791 0030 49000000 		.word	.L26+1
 792 0034 59000000 		.word	.L27+1
 793 0038 69000000 		.word	.L28+1
 794 003c 79000000 		.word	.L29+1
 795 0040 89000000 		.word	.L30+1
 796 0044 99000000 		.word	.L31+1
 797              	.L26:
 565:.\Generated_Source\PSoC5/ADC_Voltage_Target.c ****     {
 566:.\Generated_Source\PSoC5/ADC_Voltage_Target.c ****         case ADC_Voltage_Target_GVAL_RESOLUTIN_8:
 567:.\Generated_Source\PSoC5/ADC_Voltage_Target.c ****             gcorValue = gcorRegValue << (ADC_Voltage_Target_MAX_GVAL - gValue);
ARM GAS  C:\DOCUME~1\ADMINI~1\LOCALS~1\Temp\ccfNfb5I.s 			page 25


 798              		.loc 1 567 0
 799 0048 FA88     		ldrh	r2, [r7, #6]
 800 004a FB78     		ldrb	r3, [r7, #3]	@ zero_extendqisi2
 801 004c C3F10F03 		rsb	r3, r3, #15
 802 0050 02FA03F3 		lsl	r3, r2, r3
 803 0054 BB80     		strh	r3, [r7, #4]	@ movhi
 568:.\Generated_Source\PSoC5/ADC_Voltage_Target.c ****             break;
 804              		.loc 1 568 0
 805 0056 29E0     		b	.L33
 806              	.L27:
 569:.\Generated_Source\PSoC5/ADC_Voltage_Target.c ****         
 570:.\Generated_Source\PSoC5/ADC_Voltage_Target.c ****         case ADC_Voltage_Target_GVAL_RESOLUTIN_9:
 571:.\Generated_Source\PSoC5/ADC_Voltage_Target.c ****             gcorValue = gcorRegValue << (ADC_Voltage_Target_MAX_GVAL - gValue);
 807              		.loc 1 571 0
 808 0058 FA88     		ldrh	r2, [r7, #6]
 809 005a FB78     		ldrb	r3, [r7, #3]	@ zero_extendqisi2
 810 005c C3F10F03 		rsb	r3, r3, #15
 811 0060 02FA03F3 		lsl	r3, r2, r3
 812 0064 BB80     		strh	r3, [r7, #4]	@ movhi
 572:.\Generated_Source\PSoC5/ADC_Voltage_Target.c ****             break;
 813              		.loc 1 572 0
 814 0066 21E0     		b	.L33
 815              	.L28:
 573:.\Generated_Source\PSoC5/ADC_Voltage_Target.c ****             
 574:.\Generated_Source\PSoC5/ADC_Voltage_Target.c ****         case ADC_Voltage_Target_GVAL_RESOLUTIN_10:
 575:.\Generated_Source\PSoC5/ADC_Voltage_Target.c ****             gcorValue = gcorRegValue << (ADC_Voltage_Target_MAX_GVAL - gValue);
 816              		.loc 1 575 0
 817 0068 FA88     		ldrh	r2, [r7, #6]
 818 006a FB78     		ldrb	r3, [r7, #3]	@ zero_extendqisi2
 819 006c C3F10F03 		rsb	r3, r3, #15
 820 0070 02FA03F3 		lsl	r3, r2, r3
 821 0074 BB80     		strh	r3, [r7, #4]	@ movhi
 576:.\Generated_Source\PSoC5/ADC_Voltage_Target.c ****             break;
 822              		.loc 1 576 0
 823 0076 19E0     		b	.L33
 824              	.L29:
 577:.\Generated_Source\PSoC5/ADC_Voltage_Target.c ****             
 578:.\Generated_Source\PSoC5/ADC_Voltage_Target.c ****         case ADC_Voltage_Target_GVAL_RESOLUTIN_11:
 579:.\Generated_Source\PSoC5/ADC_Voltage_Target.c ****             gcorValue = gcorRegValue << (ADC_Voltage_Target_MAX_GVAL - gValue);
 825              		.loc 1 579 0
 826 0078 FA88     		ldrh	r2, [r7, #6]
 827 007a FB78     		ldrb	r3, [r7, #3]	@ zero_extendqisi2
 828 007c C3F10F03 		rsb	r3, r3, #15
 829 0080 02FA03F3 		lsl	r3, r2, r3
 830 0084 BB80     		strh	r3, [r7, #4]	@ movhi
 580:.\Generated_Source\PSoC5/ADC_Voltage_Target.c ****             break;
 831              		.loc 1 580 0
 832 0086 11E0     		b	.L33
 833              	.L30:
 581:.\Generated_Source\PSoC5/ADC_Voltage_Target.c ****             
 582:.\Generated_Source\PSoC5/ADC_Voltage_Target.c ****         case ADC_Voltage_Target_GVAL_RESOLUTIN_12:
 583:.\Generated_Source\PSoC5/ADC_Voltage_Target.c ****             gcorValue = gcorRegValue << (ADC_Voltage_Target_MAX_GVAL - gValue);
 834              		.loc 1 583 0
 835 0088 FA88     		ldrh	r2, [r7, #6]
 836 008a FB78     		ldrb	r3, [r7, #3]	@ zero_extendqisi2
 837 008c C3F10F03 		rsb	r3, r3, #15
 838 0090 02FA03F3 		lsl	r3, r2, r3
ARM GAS  C:\DOCUME~1\ADMINI~1\LOCALS~1\Temp\ccfNfb5I.s 			page 26


 839 0094 BB80     		strh	r3, [r7, #4]	@ movhi
 584:.\Generated_Source\PSoC5/ADC_Voltage_Target.c ****             break;
 840              		.loc 1 584 0
 841 0096 09E0     		b	.L33
 842              	.L31:
 585:.\Generated_Source\PSoC5/ADC_Voltage_Target.c ****             
 586:.\Generated_Source\PSoC5/ADC_Voltage_Target.c ****         case ADC_Voltage_Target_GVAL_RESOLUTIN_13:
 587:.\Generated_Source\PSoC5/ADC_Voltage_Target.c ****             gcorValue = gcorRegValue << (ADC_Voltage_Target_MAX_GVAL - gValue);
 843              		.loc 1 587 0
 844 0098 FA88     		ldrh	r2, [r7, #6]
 845 009a FB78     		ldrb	r3, [r7, #3]	@ zero_extendqisi2
 846 009c C3F10F03 		rsb	r3, r3, #15
 847 00a0 02FA03F3 		lsl	r3, r2, r3
 848 00a4 BB80     		strh	r3, [r7, #4]	@ movhi
 588:.\Generated_Source\PSoC5/ADC_Voltage_Target.c ****             break;
 849              		.loc 1 588 0
 850 00a6 01E0     		b	.L33
 851              	.L25:
 589:.\Generated_Source\PSoC5/ADC_Voltage_Target.c ****             
 590:.\Generated_Source\PSoC5/ADC_Voltage_Target.c ****         default:
 591:.\Generated_Source\PSoC5/ADC_Voltage_Target.c ****             gcorValue = gcorRegValue;
 852              		.loc 1 591 0
 853 00a8 FB88     		ldrh	r3, [r7, #6]	@ movhi
 854 00aa BB80     		strh	r3, [r7, #4]	@ movhi
 855              	.L33:
 592:.\Generated_Source\PSoC5/ADC_Voltage_Target.c ****             break;
 593:.\Generated_Source\PSoC5/ADC_Voltage_Target.c ****     }
 594:.\Generated_Source\PSoC5/ADC_Voltage_Target.c ****         
 595:.\Generated_Source\PSoC5/ADC_Voltage_Target.c ****     return gcorValue;
 856              		.loc 1 595 0
 857 00ac BB88     		ldrh	r3, [r7, #4]
 596:.\Generated_Source\PSoC5/ADC_Voltage_Target.c **** }
 858              		.loc 1 596 0
 859 00ae 1846     		mov	r0, r3
 860 00b0 07F10C07 		add	r7, r7, #12
 861 00b4 BD46     		mov	sp, r7
 862 00b6 80BC     		pop	{r7}
 863 00b8 7047     		bx	lr
 864              		.cfi_endproc
 865              	.LFE7:
 866              		.size	ADC_Voltage_Target_ReadGCOR, .-ADC_Voltage_Target_ReadGCOR
 867 00ba 00BF     		.section	.text.ADC_Voltage_Target_SetBufferChop,"ax",%progbits
 868              		.align	2
 869              		.global	ADC_Voltage_Target_SetBufferChop
 870              		.thumb
 871              		.thumb_func
 872              		.type	ADC_Voltage_Target_SetBufferChop, %function
 873              	ADC_Voltage_Target_SetBufferChop:
 874              	.LFB8:
 597:.\Generated_Source\PSoC5/ADC_Voltage_Target.c **** 
 598:.\Generated_Source\PSoC5/ADC_Voltage_Target.c **** 
 599:.\Generated_Source\PSoC5/ADC_Voltage_Target.c **** /*******************************************************************************
 600:.\Generated_Source\PSoC5/ADC_Voltage_Target.c **** * Function Name: ADC_Voltage_Target_SetBufferChop
 601:.\Generated_Source\PSoC5/ADC_Voltage_Target.c **** ********************************************************************************
 602:.\Generated_Source\PSoC5/ADC_Voltage_Target.c **** *
 603:.\Generated_Source\PSoC5/ADC_Voltage_Target.c **** * Summary:
 604:.\Generated_Source\PSoC5/ADC_Voltage_Target.c **** *  Sets the Delta Sigma Modulator Buffer chopper mode.
ARM GAS  C:\DOCUME~1\ADMINI~1\LOCALS~1\Temp\ccfNfb5I.s 			page 27


 605:.\Generated_Source\PSoC5/ADC_Voltage_Target.c **** *
 606:.\Generated_Source\PSoC5/ADC_Voltage_Target.c **** * Parameters:  
 607:.\Generated_Source\PSoC5/ADC_Voltage_Target.c **** *  chopen:  If non-zero set the chopper mode.
 608:.\Generated_Source\PSoC5/ADC_Voltage_Target.c **** *  chopFreq:  Chop frequency value.
 609:.\Generated_Source\PSoC5/ADC_Voltage_Target.c **** *
 610:.\Generated_Source\PSoC5/ADC_Voltage_Target.c **** * Return: 
 611:.\Generated_Source\PSoC5/ADC_Voltage_Target.c **** *  void
 612:.\Generated_Source\PSoC5/ADC_Voltage_Target.c **** *
 613:.\Generated_Source\PSoC5/ADC_Voltage_Target.c **** *******************************************************************************/
 614:.\Generated_Source\PSoC5/ADC_Voltage_Target.c **** void ADC_Voltage_Target_SetBufferChop(uint8 chopen, uint8 chopFreq) 
 615:.\Generated_Source\PSoC5/ADC_Voltage_Target.c **** {
 875              		.loc 1 615 0
 876              		.cfi_startproc
 877              		@ args = 0, pretend = 0, frame = 8
 878              		@ frame_needed = 1, uses_anonymous_args = 0
 879              		@ link register save eliminated.
 880 0000 80B4     		push	{r7}
 881              	.LCFI20:
 882              		.cfi_def_cfa_offset 4
 883 0002 83B0     		sub	sp, sp, #12
 884              	.LCFI21:
 885              		.cfi_def_cfa_offset 16
 886 0004 00AF     		add	r7, sp, #0
 887              		.cfi_offset 7, -4
 888              	.LCFI22:
 889              		.cfi_def_cfa_register 7
 890 0006 0246     		mov	r2, r0
 891 0008 0B46     		mov	r3, r1
 892 000a FA71     		strb	r2, [r7, #7]
 893 000c BB71     		strb	r3, [r7, #6]
 616:.\Generated_Source\PSoC5/ADC_Voltage_Target.c ****     if(chopen != 0u)
 894              		.loc 1 616 0
 895 000e FB79     		ldrb	r3, [r7, #7]	@ zero_extendqisi2
 896 0010 002B     		cmp	r3, #0
 897 0012 0BD0     		beq	.L36
 617:.\Generated_Source\PSoC5/ADC_Voltage_Target.c ****     {
 618:.\Generated_Source\PSoC5/ADC_Voltage_Target.c ****         ADC_Voltage_Target_DSM_BUF2_REG = (ADC_Voltage_Target_DSM_BUF_FCHOP_MASK & chopFreq) | \
 898              		.loc 1 618 0
 899 0014 45F69C03 		movw	r3, #:lower16:1073764508
 900 0018 C4F20003 		movt	r3, #:upper16:1073764508
 901 001c BA79     		ldrb	r2, [r7, #6]	@ zero_extendqisi2
 902 001e 02F00702 		and	r2, r2, #7
 903 0022 42F00802 		orr	r2, r2, #8
 904 0026 D2B2     		uxtb	r2, r2
 905 0028 1A70     		strb	r2, [r3, #0]
 906 002a 06E0     		b	.L38
 907              	.L36:
 619:.\Generated_Source\PSoC5/ADC_Voltage_Target.c ****                                          ADC_Voltage_Target_DSM_BUF_CHOP_EN;
 620:.\Generated_Source\PSoC5/ADC_Voltage_Target.c ****     }
 621:.\Generated_Source\PSoC5/ADC_Voltage_Target.c ****     else
 622:.\Generated_Source\PSoC5/ADC_Voltage_Target.c ****     {
 623:.\Generated_Source\PSoC5/ADC_Voltage_Target.c ****         ADC_Voltage_Target_DSM_BUF2_REG = 0x00u;
 908              		.loc 1 623 0
 909 002c 45F69C03 		movw	r3, #:lower16:1073764508
 910 0030 C4F20003 		movt	r3, #:upper16:1073764508
 911 0034 4FF00002 		mov	r2, #0
 912 0038 1A70     		strb	r2, [r3, #0]
ARM GAS  C:\DOCUME~1\ADMINI~1\LOCALS~1\Temp\ccfNfb5I.s 			page 28


 913              	.L38:
 624:.\Generated_Source\PSoC5/ADC_Voltage_Target.c ****     }
 625:.\Generated_Source\PSoC5/ADC_Voltage_Target.c **** }
 914              		.loc 1 625 0
 915 003a 07F10C07 		add	r7, r7, #12
 916 003e BD46     		mov	sp, r7
 917 0040 80BC     		pop	{r7}
 918 0042 7047     		bx	lr
 919              		.cfi_endproc
 920              	.LFE8:
 921              		.size	ADC_Voltage_Target_SetBufferChop, .-ADC_Voltage_Target_SetBufferChop
 922              		.section	.text.ADC_Voltage_Target_StartConvert,"ax",%progbits
 923              		.align	2
 924              		.global	ADC_Voltage_Target_StartConvert
 925              		.thumb
 926              		.thumb_func
 927              		.type	ADC_Voltage_Target_StartConvert, %function
 928              	ADC_Voltage_Target_StartConvert:
 929              	.LFB9:
 626:.\Generated_Source\PSoC5/ADC_Voltage_Target.c **** 
 627:.\Generated_Source\PSoC5/ADC_Voltage_Target.c **** 
 628:.\Generated_Source\PSoC5/ADC_Voltage_Target.c **** /*******************************************************************************
 629:.\Generated_Source\PSoC5/ADC_Voltage_Target.c **** * Function Name: ADC_Voltage_Target_StartConvert
 630:.\Generated_Source\PSoC5/ADC_Voltage_Target.c **** ********************************************************************************
 631:.\Generated_Source\PSoC5/ADC_Voltage_Target.c **** *
 632:.\Generated_Source\PSoC5/ADC_Voltage_Target.c **** * Summary:
 633:.\Generated_Source\PSoC5/ADC_Voltage_Target.c **** *  Starts ADC conversion using the given mode.
 634:.\Generated_Source\PSoC5/ADC_Voltage_Target.c **** *
 635:.\Generated_Source\PSoC5/ADC_Voltage_Target.c **** * Parameters:  
 636:.\Generated_Source\PSoC5/ADC_Voltage_Target.c **** *  void
 637:.\Generated_Source\PSoC5/ADC_Voltage_Target.c **** *
 638:.\Generated_Source\PSoC5/ADC_Voltage_Target.c **** * Return: 
 639:.\Generated_Source\PSoC5/ADC_Voltage_Target.c **** *  void 
 640:.\Generated_Source\PSoC5/ADC_Voltage_Target.c **** *
 641:.\Generated_Source\PSoC5/ADC_Voltage_Target.c **** *******************************************************************************/
 642:.\Generated_Source\PSoC5/ADC_Voltage_Target.c **** void ADC_Voltage_Target_StartConvert(void) 
 643:.\Generated_Source\PSoC5/ADC_Voltage_Target.c **** {
 930              		.loc 1 643 0
 931              		.cfi_startproc
 932              		@ args = 0, pretend = 0, frame = 0
 933              		@ frame_needed = 1, uses_anonymous_args = 0
 934              		@ link register save eliminated.
 935 0000 80B4     		push	{r7}
 936              	.LCFI23:
 937              		.cfi_def_cfa_offset 4
 938 0002 00AF     		add	r7, sp, #0
 939              		.cfi_offset 7, -4
 940              	.LCFI24:
 941              		.cfi_def_cfa_register 7
 644:.\Generated_Source\PSoC5/ADC_Voltage_Target.c ****     /* Start the conversion */
 645:.\Generated_Source\PSoC5/ADC_Voltage_Target.c ****     ADC_Voltage_Target_DEC_CR_REG |= ADC_Voltage_Target_DEC_START_CONV;  
 942              		.loc 1 645 0
 943 0004 44F60063 		movw	r3, #:lower16:1073761792
 944 0008 C4F20003 		movt	r3, #:upper16:1073761792
 945 000c 44F60062 		movw	r2, #:lower16:1073761792
 946 0010 C4F20002 		movt	r2, #:upper16:1073761792
 947 0014 1278     		ldrb	r2, [r2, #0]
ARM GAS  C:\DOCUME~1\ADMINI~1\LOCALS~1\Temp\ccfNfb5I.s 			page 29


 948 0016 D2B2     		uxtb	r2, r2
 949 0018 42F00102 		orr	r2, r2, #1
 950 001c D2B2     		uxtb	r2, r2
 951 001e 1A70     		strb	r2, [r3, #0]
 646:.\Generated_Source\PSoC5/ADC_Voltage_Target.c **** }
 952              		.loc 1 646 0
 953 0020 BD46     		mov	sp, r7
 954 0022 80BC     		pop	{r7}
 955 0024 7047     		bx	lr
 956              		.cfi_endproc
 957              	.LFE9:
 958              		.size	ADC_Voltage_Target_StartConvert, .-ADC_Voltage_Target_StartConvert
 959 0026 00BF     		.section	.text.ADC_Voltage_Target_StopConvert,"ax",%progbits
 960              		.align	2
 961              		.global	ADC_Voltage_Target_StopConvert
 962              		.thumb
 963              		.thumb_func
 964              		.type	ADC_Voltage_Target_StopConvert, %function
 965              	ADC_Voltage_Target_StopConvert:
 966              	.LFB10:
 647:.\Generated_Source\PSoC5/ADC_Voltage_Target.c **** 
 648:.\Generated_Source\PSoC5/ADC_Voltage_Target.c **** 
 649:.\Generated_Source\PSoC5/ADC_Voltage_Target.c **** /*******************************************************************************
 650:.\Generated_Source\PSoC5/ADC_Voltage_Target.c **** * Function Name: ADC_Voltage_Target_StopConvert
 651:.\Generated_Source\PSoC5/ADC_Voltage_Target.c **** ********************************************************************************
 652:.\Generated_Source\PSoC5/ADC_Voltage_Target.c **** *
 653:.\Generated_Source\PSoC5/ADC_Voltage_Target.c **** * Summary:
 654:.\Generated_Source\PSoC5/ADC_Voltage_Target.c **** *  Starts ADC conversion using the given mode.
 655:.\Generated_Source\PSoC5/ADC_Voltage_Target.c **** *
 656:.\Generated_Source\PSoC5/ADC_Voltage_Target.c **** * Parameters:  
 657:.\Generated_Source\PSoC5/ADC_Voltage_Target.c **** *  void
 658:.\Generated_Source\PSoC5/ADC_Voltage_Target.c **** *
 659:.\Generated_Source\PSoC5/ADC_Voltage_Target.c **** * Return: 
 660:.\Generated_Source\PSoC5/ADC_Voltage_Target.c **** *  void
 661:.\Generated_Source\PSoC5/ADC_Voltage_Target.c **** *
 662:.\Generated_Source\PSoC5/ADC_Voltage_Target.c **** * Global variables:
 663:.\Generated_Source\PSoC5/ADC_Voltage_Target.c **** *  ADC_Voltage_Target_convDone:  Modified when conversion is complete for single
 664:.\Generated_Source\PSoC5/ADC_Voltage_Target.c **** *   sample mode with resolution is above 16.
 665:.\Generated_Source\PSoC5/ADC_Voltage_Target.c **** *
 666:.\Generated_Source\PSoC5/ADC_Voltage_Target.c **** *******************************************************************************/
 667:.\Generated_Source\PSoC5/ADC_Voltage_Target.c **** void ADC_Voltage_Target_StopConvert(void) 
 668:.\Generated_Source\PSoC5/ADC_Voltage_Target.c **** {
 967              		.loc 1 668 0
 968              		.cfi_startproc
 969              		@ args = 0, pretend = 0, frame = 0
 970              		@ frame_needed = 1, uses_anonymous_args = 0
 971              		@ link register save eliminated.
 972 0000 80B4     		push	{r7}
 973              	.LCFI25:
 974              		.cfi_def_cfa_offset 4
 975 0002 00AF     		add	r7, sp, #0
 976              		.cfi_offset 7, -4
 977              	.LCFI26:
 978              		.cfi_def_cfa_register 7
 669:.\Generated_Source\PSoC5/ADC_Voltage_Target.c ****     /* Stop all conversions */
 670:.\Generated_Source\PSoC5/ADC_Voltage_Target.c ****     ADC_Voltage_Target_DEC_CR_REG &= ~ADC_Voltage_Target_DEC_START_CONV; 
 979              		.loc 1 670 0
ARM GAS  C:\DOCUME~1\ADMINI~1\LOCALS~1\Temp\ccfNfb5I.s 			page 30


 980 0004 44F60063 		movw	r3, #:lower16:1073761792
 981 0008 C4F20003 		movt	r3, #:upper16:1073761792
 982 000c 44F60062 		movw	r2, #:lower16:1073761792
 983 0010 C4F20002 		movt	r2, #:upper16:1073761792
 984 0014 1278     		ldrb	r2, [r2, #0]
 985 0016 D2B2     		uxtb	r2, r2
 986 0018 02F0FE02 		and	r2, r2, #254
 987 001c 1A70     		strb	r2, [r3, #0]
 671:.\Generated_Source\PSoC5/ADC_Voltage_Target.c ****     
 672:.\Generated_Source\PSoC5/ADC_Voltage_Target.c ****     /* Software flag for checking conversion complete or not. Will be used when
 673:.\Generated_Source\PSoC5/ADC_Voltage_Target.c ****        resolution is above 16 bits and conversion mode is single sample */
 674:.\Generated_Source\PSoC5/ADC_Voltage_Target.c ****     ADC_Voltage_Target_convDone = 1u;
 988              		.loc 1 674 0
 989 001e 40F20003 		movw	r3, #:lower16:ADC_Voltage_Target_convDone
 990 0022 C0F20003 		movt	r3, #:upper16:ADC_Voltage_Target_convDone
 991 0026 4FF00102 		mov	r2, #1
 992 002a 1A70     		strb	r2, [r3, #0]
 675:.\Generated_Source\PSoC5/ADC_Voltage_Target.c **** }
 993              		.loc 1 675 0
 994 002c BD46     		mov	sp, r7
 995 002e 80BC     		pop	{r7}
 996 0030 7047     		bx	lr
 997              		.cfi_endproc
 998              	.LFE10:
 999              		.size	ADC_Voltage_Target_StopConvert, .-ADC_Voltage_Target_StopConvert
 1000 0032 00BF     		.section	.text.ADC_Voltage_Target_IsEndConversion,"ax",%progbits
 1001              		.align	2
 1002              		.global	ADC_Voltage_Target_IsEndConversion
 1003              		.thumb
 1004              		.thumb_func
 1005              		.type	ADC_Voltage_Target_IsEndConversion, %function
 1006              	ADC_Voltage_Target_IsEndConversion:
 1007              	.LFB11:
 676:.\Generated_Source\PSoC5/ADC_Voltage_Target.c **** 
 677:.\Generated_Source\PSoC5/ADC_Voltage_Target.c **** 
 678:.\Generated_Source\PSoC5/ADC_Voltage_Target.c **** /*******************************************************************************
 679:.\Generated_Source\PSoC5/ADC_Voltage_Target.c **** * Function Name: ADC_Voltage_Target_IsEndConversion
 680:.\Generated_Source\PSoC5/ADC_Voltage_Target.c **** ********************************************************************************
 681:.\Generated_Source\PSoC5/ADC_Voltage_Target.c **** *
 682:.\Generated_Source\PSoC5/ADC_Voltage_Target.c **** * Summary:
 683:.\Generated_Source\PSoC5/ADC_Voltage_Target.c **** *  Queries the ADC to see if conversion is complete
 684:.\Generated_Source\PSoC5/ADC_Voltage_Target.c **** *
 685:.\Generated_Source\PSoC5/ADC_Voltage_Target.c **** * Parameters:  
 686:.\Generated_Source\PSoC5/ADC_Voltage_Target.c **** *  wMode:  Wait mode, 0 if return with answer immediately.
 687:.\Generated_Source\PSoC5/ADC_Voltage_Target.c **** *                     1 if wait until conversion is complete, then return.
 688:.\Generated_Source\PSoC5/ADC_Voltage_Target.c **** *
 689:.\Generated_Source\PSoC5/ADC_Voltage_Target.c **** * Return: 
 690:.\Generated_Source\PSoC5/ADC_Voltage_Target.c **** *  uint8 status:  0 =>  Conversion not complete.
 691:.\Generated_Source\PSoC5/ADC_Voltage_Target.c **** *                 1 =>  Conversion complete.
 692:.\Generated_Source\PSoC5/ADC_Voltage_Target.c **** *
 693:.\Generated_Source\PSoC5/ADC_Voltage_Target.c **** * Global variables:
 694:.\Generated_Source\PSoC5/ADC_Voltage_Target.c **** *  ADC_Voltage_Target_convDone:  Used to check whether conversion is complete
 695:.\Generated_Source\PSoC5/ADC_Voltage_Target.c **** *  or not for single sample mode with resolution is above 16
 696:.\Generated_Source\PSoC5/ADC_Voltage_Target.c **** *
 697:.\Generated_Source\PSoC5/ADC_Voltage_Target.c **** *******************************************************************************/
 698:.\Generated_Source\PSoC5/ADC_Voltage_Target.c **** uint8 ADC_Voltage_Target_IsEndConversion(uint8 wMode) 
 699:.\Generated_Source\PSoC5/ADC_Voltage_Target.c **** {
ARM GAS  C:\DOCUME~1\ADMINI~1\LOCALS~1\Temp\ccfNfb5I.s 			page 31


 1008              		.loc 1 699 0
 1009              		.cfi_startproc
 1010              		@ args = 0, pretend = 0, frame = 16
 1011              		@ frame_needed = 1, uses_anonymous_args = 0
 1012              		@ link register save eliminated.
 1013 0000 80B4     		push	{r7}
 1014              	.LCFI27:
 1015              		.cfi_def_cfa_offset 4
 1016 0002 85B0     		sub	sp, sp, #20
 1017              	.LCFI28:
 1018              		.cfi_def_cfa_offset 24
 1019 0004 00AF     		add	r7, sp, #0
 1020              		.cfi_offset 7, -4
 1021              	.LCFI29:
 1022              		.cfi_def_cfa_register 7
 1023 0006 0346     		mov	r3, r0
 1024 0008 FB71     		strb	r3, [r7, #7]
 700:.\Generated_Source\PSoC5/ADC_Voltage_Target.c ****     uint8 status;
 701:.\Generated_Source\PSoC5/ADC_Voltage_Target.c ****         
 702:.\Generated_Source\PSoC5/ADC_Voltage_Target.c ****     /* Check for stop convert if conversion mode is Single Sample with 
 703:.\Generated_Source\PSoC5/ADC_Voltage_Target.c ****        resolution above 16 bit */
 704:.\Generated_Source\PSoC5/ADC_Voltage_Target.c ****     if(ADC_Voltage_Target_stopConversion == 1u)
 1025              		.loc 1 704 0
 1026 000a 40F20003 		movw	r3, #:lower16:ADC_Voltage_Target_stopConversion
 1027 000e C0F20003 		movt	r3, #:upper16:ADC_Voltage_Target_stopConversion
 1028 0012 1B78     		ldrb	r3, [r3, #0]
 1029 0014 DBB2     		uxtb	r3, r3
 1030 0016 012B     		cmp	r3, #1
 1031 0018 0CD1     		bne	.L44
 1032              	.L46:
 705:.\Generated_Source\PSoC5/ADC_Voltage_Target.c ****     {
 706:.\Generated_Source\PSoC5/ADC_Voltage_Target.c ****         do
 707:.\Generated_Source\PSoC5/ADC_Voltage_Target.c ****         {
 708:.\Generated_Source\PSoC5/ADC_Voltage_Target.c ****             status = ADC_Voltage_Target_convDone;
 1033              		.loc 1 708 0
 1034 001a 40F20003 		movw	r3, #:lower16:ADC_Voltage_Target_convDone
 1035 001e C0F20003 		movt	r3, #:upper16:ADC_Voltage_Target_convDone
 1036 0022 1B78     		ldrb	r3, [r3, #0]
 1037 0024 FB73     		strb	r3, [r7, #15]
 709:.\Generated_Source\PSoC5/ADC_Voltage_Target.c ****         } while((status != ADC_Voltage_Target_DEC_CONV_DONE) && (wMode == ADC_Voltage_Target_WAIT_F
 1038              		.loc 1 709 0
 1039 0026 FB7B     		ldrb	r3, [r7, #15]	@ zero_extendqisi2
 1040 0028 012B     		cmp	r3, #1
 1041 002a 12D0     		beq	.L47
 1042 002c FB79     		ldrb	r3, [r7, #7]	@ zero_extendqisi2
 1043 002e 002B     		cmp	r3, #0
 1044 0030 F3D0     		beq	.L46
 1045 0032 0EE0     		b	.L47
 1046              	.L44:
 710:.\Generated_Source\PSoC5/ADC_Voltage_Target.c ****     }
 711:.\Generated_Source\PSoC5/ADC_Voltage_Target.c ****     else
 712:.\Generated_Source\PSoC5/ADC_Voltage_Target.c ****     {
 713:.\Generated_Source\PSoC5/ADC_Voltage_Target.c ****         do 
 714:.\Generated_Source\PSoC5/ADC_Voltage_Target.c ****         {
 715:.\Generated_Source\PSoC5/ADC_Voltage_Target.c ****             status = ADC_Voltage_Target_DEC_SR_REG & ADC_Voltage_Target_DEC_CONV_DONE;
 1047              		.loc 1 715 0
 1048 0034 44F60163 		movw	r3, #:lower16:1073761793
ARM GAS  C:\DOCUME~1\ADMINI~1\LOCALS~1\Temp\ccfNfb5I.s 			page 32


 1049 0038 C4F20003 		movt	r3, #:upper16:1073761793
 1050 003c 1B78     		ldrb	r3, [r3, #0]
 1051 003e DBB2     		uxtb	r3, r3
 1052 0040 03F00103 		and	r3, r3, #1
 1053 0044 FB73     		strb	r3, [r7, #15]
 716:.\Generated_Source\PSoC5/ADC_Voltage_Target.c ****         } while((status != ADC_Voltage_Target_DEC_CONV_DONE) && (wMode == ADC_Voltage_Target_WAIT_F
 1054              		.loc 1 716 0
 1055 0046 FB7B     		ldrb	r3, [r7, #15]	@ zero_extendqisi2
 1056 0048 012B     		cmp	r3, #1
 1057 004a 02D0     		beq	.L47
 1058 004c FB79     		ldrb	r3, [r7, #7]	@ zero_extendqisi2
 1059 004e 002B     		cmp	r3, #0
 1060 0050 F0D0     		beq	.L44
 1061              	.L47:
 717:.\Generated_Source\PSoC5/ADC_Voltage_Target.c ****     }
 718:.\Generated_Source\PSoC5/ADC_Voltage_Target.c ****     return(status);
 1062              		.loc 1 718 0
 1063 0052 FB7B     		ldrb	r3, [r7, #15]	@ zero_extendqisi2
 719:.\Generated_Source\PSoC5/ADC_Voltage_Target.c **** }
 1064              		.loc 1 719 0
 1065 0054 1846     		mov	r0, r3
 1066 0056 07F11407 		add	r7, r7, #20
 1067 005a BD46     		mov	sp, r7
 1068 005c 80BC     		pop	{r7}
 1069 005e 7047     		bx	lr
 1070              		.cfi_endproc
 1071              	.LFE11:
 1072              		.size	ADC_Voltage_Target_IsEndConversion, .-ADC_Voltage_Target_IsEndConversion
 1073              		.section	.text.ADC_Voltage_Target_GetResult8,"ax",%progbits
 1074              		.align	2
 1075              		.global	ADC_Voltage_Target_GetResult8
 1076              		.thumb
 1077              		.thumb_func
 1078              		.type	ADC_Voltage_Target_GetResult8, %function
 1079              	ADC_Voltage_Target_GetResult8:
 1080              	.LFB12:
 720:.\Generated_Source\PSoC5/ADC_Voltage_Target.c **** 
 721:.\Generated_Source\PSoC5/ADC_Voltage_Target.c **** 
 722:.\Generated_Source\PSoC5/ADC_Voltage_Target.c **** /*******************************************************************************
 723:.\Generated_Source\PSoC5/ADC_Voltage_Target.c **** * Function Name: ADC_Voltage_Target_GetResult8
 724:.\Generated_Source\PSoC5/ADC_Voltage_Target.c **** ********************************************************************************
 725:.\Generated_Source\PSoC5/ADC_Voltage_Target.c **** *
 726:.\Generated_Source\PSoC5/ADC_Voltage_Target.c **** * Summary:
 727:.\Generated_Source\PSoC5/ADC_Voltage_Target.c **** *  Returns an 8-bit result or the LSB of the last conversion.
 728:.\Generated_Source\PSoC5/ADC_Voltage_Target.c **** *
 729:.\Generated_Source\PSoC5/ADC_Voltage_Target.c **** * Parameters:  
 730:.\Generated_Source\PSoC5/ADC_Voltage_Target.c **** *  void
 731:.\Generated_Source\PSoC5/ADC_Voltage_Target.c **** *
 732:.\Generated_Source\PSoC5/ADC_Voltage_Target.c **** * Return: 
 733:.\Generated_Source\PSoC5/ADC_Voltage_Target.c **** *  int8:  ADC result.
 734:.\Generated_Source\PSoC5/ADC_Voltage_Target.c **** *
 735:.\Generated_Source\PSoC5/ADC_Voltage_Target.c **** *******************************************************************************/
 736:.\Generated_Source\PSoC5/ADC_Voltage_Target.c **** int8 ADC_Voltage_Target_GetResult8( void ) 
 737:.\Generated_Source\PSoC5/ADC_Voltage_Target.c **** {
 1081              		.loc 1 737 0
 1082              		.cfi_startproc
 1083              		@ args = 0, pretend = 0, frame = 0
ARM GAS  C:\DOCUME~1\ADMINI~1\LOCALS~1\Temp\ccfNfb5I.s 			page 33


 1084              		@ frame_needed = 1, uses_anonymous_args = 0
 1085              		@ link register save eliminated.
 1086 0000 80B4     		push	{r7}
 1087              	.LCFI30:
 1088              		.cfi_def_cfa_offset 4
 1089 0002 00AF     		add	r7, sp, #0
 1090              		.cfi_offset 7, -4
 1091              	.LCFI31:
 1092              		.cfi_def_cfa_register 7
 738:.\Generated_Source\PSoC5/ADC_Voltage_Target.c ****      return( ADC_Voltage_Target_DEC_SAMP_REG );
 1093              		.loc 1 738 0
 1094 0004 44F61063 		movw	r3, #:lower16:1073761808
 1095 0008 C4F20003 		movt	r3, #:upper16:1073761808
 1096 000c 1B78     		ldrb	r3, [r3, #0]
 1097 000e DBB2     		uxtb	r3, r3
 1098 0010 5BB2     		sxtb	r3, r3
 739:.\Generated_Source\PSoC5/ADC_Voltage_Target.c **** }
 1099              		.loc 1 739 0
 1100 0012 1846     		mov	r0, r3
 1101 0014 BD46     		mov	sp, r7
 1102 0016 80BC     		pop	{r7}
 1103 0018 7047     		bx	lr
 1104              		.cfi_endproc
 1105              	.LFE12:
 1106              		.size	ADC_Voltage_Target_GetResult8, .-ADC_Voltage_Target_GetResult8
 1107 001a 00BF     		.section	.text.ADC_Voltage_Target_GetResult16,"ax",%progbits
 1108              		.align	2
 1109              		.global	ADC_Voltage_Target_GetResult16
 1110              		.thumb
 1111              		.thumb_func
 1112              		.type	ADC_Voltage_Target_GetResult16, %function
 1113              	ADC_Voltage_Target_GetResult16:
 1114              	.LFB13:
 740:.\Generated_Source\PSoC5/ADC_Voltage_Target.c **** 
 741:.\Generated_Source\PSoC5/ADC_Voltage_Target.c **** 
 742:.\Generated_Source\PSoC5/ADC_Voltage_Target.c **** /*******************************************************************************
 743:.\Generated_Source\PSoC5/ADC_Voltage_Target.c **** * Function Name: ADC_Voltage_Target_GetResult16
 744:.\Generated_Source\PSoC5/ADC_Voltage_Target.c **** ********************************************************************************
 745:.\Generated_Source\PSoC5/ADC_Voltage_Target.c **** *
 746:.\Generated_Source\PSoC5/ADC_Voltage_Target.c **** * Summary:
 747:.\Generated_Source\PSoC5/ADC_Voltage_Target.c **** *  Returns a 16-bit result from the last ADC conversion.
 748:.\Generated_Source\PSoC5/ADC_Voltage_Target.c **** *
 749:.\Generated_Source\PSoC5/ADC_Voltage_Target.c **** * Parameters:  
 750:.\Generated_Source\PSoC5/ADC_Voltage_Target.c **** *   void
 751:.\Generated_Source\PSoC5/ADC_Voltage_Target.c **** *
 752:.\Generated_Source\PSoC5/ADC_Voltage_Target.c **** * Return: 
 753:.\Generated_Source\PSoC5/ADC_Voltage_Target.c **** *  int16:  ADC result.
 754:.\Generated_Source\PSoC5/ADC_Voltage_Target.c **** *
 755:.\Generated_Source\PSoC5/ADC_Voltage_Target.c **** *******************************************************************************/
 756:.\Generated_Source\PSoC5/ADC_Voltage_Target.c **** int16 ADC_Voltage_Target_GetResult16(void) 
 757:.\Generated_Source\PSoC5/ADC_Voltage_Target.c **** {
 1115              		.loc 1 757 0
 1116              		.cfi_startproc
 1117              		@ args = 0, pretend = 0, frame = 8
 1118              		@ frame_needed = 1, uses_anonymous_args = 0
 1119              		@ link register save eliminated.
 1120 0000 80B4     		push	{r7}
ARM GAS  C:\DOCUME~1\ADMINI~1\LOCALS~1\Temp\ccfNfb5I.s 			page 34


 1121              	.LCFI32:
 1122              		.cfi_def_cfa_offset 4
 1123 0002 83B0     		sub	sp, sp, #12
 1124              	.LCFI33:
 1125              		.cfi_def_cfa_offset 16
 1126 0004 00AF     		add	r7, sp, #0
 1127              		.cfi_offset 7, -4
 1128              	.LCFI34:
 1129              		.cfi_def_cfa_register 7
 758:.\Generated_Source\PSoC5/ADC_Voltage_Target.c ****     uint16 result;
 759:.\Generated_Source\PSoC5/ADC_Voltage_Target.c ****     
 760:.\Generated_Source\PSoC5/ADC_Voltage_Target.c ****     #if (CY_PSOC3)
 761:.\Generated_Source\PSoC5/ADC_Voltage_Target.c ****         result = ADC_Voltage_Target_DEC_SAMPM_REG ;
 762:.\Generated_Source\PSoC5/ADC_Voltage_Target.c ****         result = (result << 8 ) | ADC_Voltage_Target_DEC_SAMP_REG;
 763:.\Generated_Source\PSoC5/ADC_Voltage_Target.c ****     #else
 764:.\Generated_Source\PSoC5/ADC_Voltage_Target.c ****         result = (CY_GET_REG16(ADC_Voltage_Target_DEC_SAMP_PTR));
 1130              		.loc 1 764 0
 1131 0006 44F61063 		movw	r3, #:lower16:1073761808
 1132 000a C4F20003 		movt	r3, #:upper16:1073761808
 1133 000e 1B88     		ldrh	r3, [r3, #0]	@ movhi
 1134 0010 FB80     		strh	r3, [r7, #6]	@ movhi
 765:.\Generated_Source\PSoC5/ADC_Voltage_Target.c ****     #endif /* CY_PSOC3 */
 766:.\Generated_Source\PSoC5/ADC_Voltage_Target.c ****     
 767:.\Generated_Source\PSoC5/ADC_Voltage_Target.c ****     return result;
 1135              		.loc 1 767 0
 1136 0012 FB88     		ldrh	r3, [r7, #6]
 1137 0014 1BB2     		sxth	r3, r3
 768:.\Generated_Source\PSoC5/ADC_Voltage_Target.c **** }
 1138              		.loc 1 768 0
 1139 0016 1846     		mov	r0, r3
 1140 0018 07F10C07 		add	r7, r7, #12
 1141 001c BD46     		mov	sp, r7
 1142 001e 80BC     		pop	{r7}
 1143 0020 7047     		bx	lr
 1144              		.cfi_endproc
 1145              	.LFE13:
 1146              		.size	ADC_Voltage_Target_GetResult16, .-ADC_Voltage_Target_GetResult16
 1147 0022 00BF     		.section	.text.ADC_Voltage_Target_GetResult32,"ax",%progbits
 1148              		.align	2
 1149              		.global	ADC_Voltage_Target_GetResult32
 1150              		.thumb
 1151              		.thumb_func
 1152              		.type	ADC_Voltage_Target_GetResult32, %function
 1153              	ADC_Voltage_Target_GetResult32:
 1154              	.LFB14:
 769:.\Generated_Source\PSoC5/ADC_Voltage_Target.c **** 
 770:.\Generated_Source\PSoC5/ADC_Voltage_Target.c **** 
 771:.\Generated_Source\PSoC5/ADC_Voltage_Target.c **** /*******************************************************************************
 772:.\Generated_Source\PSoC5/ADC_Voltage_Target.c **** * Function Name: ADC_Voltage_Target_GetResult32
 773:.\Generated_Source\PSoC5/ADC_Voltage_Target.c **** ********************************************************************************
 774:.\Generated_Source\PSoC5/ADC_Voltage_Target.c **** *
 775:.\Generated_Source\PSoC5/ADC_Voltage_Target.c **** * Summary:
 776:.\Generated_Source\PSoC5/ADC_Voltage_Target.c **** *  Returns an 32-bit result from ADC
 777:.\Generated_Source\PSoC5/ADC_Voltage_Target.c **** *
 778:.\Generated_Source\PSoC5/ADC_Voltage_Target.c **** * Parameters:  
 779:.\Generated_Source\PSoC5/ADC_Voltage_Target.c **** *  void
 780:.\Generated_Source\PSoC5/ADC_Voltage_Target.c **** *
ARM GAS  C:\DOCUME~1\ADMINI~1\LOCALS~1\Temp\ccfNfb5I.s 			page 35


 781:.\Generated_Source\PSoC5/ADC_Voltage_Target.c **** * Return: 
 782:.\Generated_Source\PSoC5/ADC_Voltage_Target.c **** *  int32:  ADC result.
 783:.\Generated_Source\PSoC5/ADC_Voltage_Target.c **** *
 784:.\Generated_Source\PSoC5/ADC_Voltage_Target.c **** *******************************************************************************/
 785:.\Generated_Source\PSoC5/ADC_Voltage_Target.c **** int32 ADC_Voltage_Target_GetResult32(void) 
 786:.\Generated_Source\PSoC5/ADC_Voltage_Target.c **** {
 1155              		.loc 1 786 0
 1156              		.cfi_startproc
 1157              		@ args = 0, pretend = 0, frame = 8
 1158              		@ frame_needed = 1, uses_anonymous_args = 0
 1159              		@ link register save eliminated.
 1160 0000 80B4     		push	{r7}
 1161              	.LCFI35:
 1162              		.cfi_def_cfa_offset 4
 1163 0002 83B0     		sub	sp, sp, #12
 1164              	.LCFI36:
 1165              		.cfi_def_cfa_offset 16
 1166 0004 00AF     		add	r7, sp, #0
 1167              		.cfi_offset 7, -4
 1168              	.LCFI37:
 1169              		.cfi_def_cfa_register 7
 787:.\Generated_Source\PSoC5/ADC_Voltage_Target.c ****     uint32 result;
 788:.\Generated_Source\PSoC5/ADC_Voltage_Target.c **** 
 789:.\Generated_Source\PSoC5/ADC_Voltage_Target.c ****     #if (CY_PSOC3)
 790:.\Generated_Source\PSoC5/ADC_Voltage_Target.c ****         /* to make upper bits fo result to 0 */
 791:.\Generated_Source\PSoC5/ADC_Voltage_Target.c ****         result = (int8) (0xff & ADC_Voltage_Target_DEC_SAMPH_REG); 
 792:.\Generated_Source\PSoC5/ADC_Voltage_Target.c ****         result = (result << 8) | ADC_Voltage_Target_DEC_SAMPM_REG;
 793:.\Generated_Source\PSoC5/ADC_Voltage_Target.c ****         result = (result << 8) | ADC_Voltage_Target_DEC_SAMP_REG;
 794:.\Generated_Source\PSoC5/ADC_Voltage_Target.c ****     #else
 795:.\Generated_Source\PSoC5/ADC_Voltage_Target.c ****         result = CY_GET_REG16(ADC_Voltage_Target_DEC_SAMPH_PTR);
 1170              		.loc 1 795 0
 1171 0006 44F61263 		movw	r3, #:lower16:1073761810
 1172 000a C4F20003 		movt	r3, #:upper16:1073761810
 1173 000e 1B88     		ldrh	r3, [r3, #0]	@ movhi
 1174 0010 9BB2     		uxth	r3, r3
 1175 0012 7B60     		str	r3, [r7, #4]
 796:.\Generated_Source\PSoC5/ADC_Voltage_Target.c ****         result = (result << 16) | (CY_GET_REG16(ADC_Voltage_Target_DEC_SAMP_PTR));
 1176              		.loc 1 796 0
 1177 0014 7B68     		ldr	r3, [r7, #4]
 1178 0016 4FEA0342 		lsl	r2, r3, #16
 1179 001a 44F61063 		movw	r3, #:lower16:1073761808
 1180 001e C4F20003 		movt	r3, #:upper16:1073761808
 1181 0022 1B88     		ldrh	r3, [r3, #0]	@ movhi
 1182 0024 9BB2     		uxth	r3, r3
 1183 0026 42EA0303 		orr	r3, r2, r3
 1184 002a 7B60     		str	r3, [r7, #4]
 797:.\Generated_Source\PSoC5/ADC_Voltage_Target.c ****     #endif /* CY_PSOC3 */
 798:.\Generated_Source\PSoC5/ADC_Voltage_Target.c ****     
 799:.\Generated_Source\PSoC5/ADC_Voltage_Target.c ****     return result;
 1185              		.loc 1 799 0
 1186 002c 7B68     		ldr	r3, [r7, #4]
 800:.\Generated_Source\PSoC5/ADC_Voltage_Target.c **** }
 1187              		.loc 1 800 0
 1188 002e 1846     		mov	r0, r3
 1189 0030 07F10C07 		add	r7, r7, #12
 1190 0034 BD46     		mov	sp, r7
 1191 0036 80BC     		pop	{r7}
ARM GAS  C:\DOCUME~1\ADMINI~1\LOCALS~1\Temp\ccfNfb5I.s 			page 36


 1192 0038 7047     		bx	lr
 1193              		.cfi_endproc
 1194              	.LFE14:
 1195              		.size	ADC_Voltage_Target_GetResult32, .-ADC_Voltage_Target_GetResult32
 1196 003a 00BF     		.section	.text.ADC_Voltage_Target_SetOffset,"ax",%progbits
 1197              		.align	2
 1198              		.global	ADC_Voltage_Target_SetOffset
 1199              		.thumb
 1200              		.thumb_func
 1201              		.type	ADC_Voltage_Target_SetOffset, %function
 1202              	ADC_Voltage_Target_SetOffset:
 1203              	.LFB15:
 801:.\Generated_Source\PSoC5/ADC_Voltage_Target.c **** 
 802:.\Generated_Source\PSoC5/ADC_Voltage_Target.c **** 
 803:.\Generated_Source\PSoC5/ADC_Voltage_Target.c **** /*******************************************************************************
 804:.\Generated_Source\PSoC5/ADC_Voltage_Target.c **** * Function Name: ADC_Voltage_Target_SetOffset
 805:.\Generated_Source\PSoC5/ADC_Voltage_Target.c **** ********************************************************************************
 806:.\Generated_Source\PSoC5/ADC_Voltage_Target.c **** *
 807:.\Generated_Source\PSoC5/ADC_Voltage_Target.c **** * Summary:
 808:.\Generated_Source\PSoC5/ADC_Voltage_Target.c **** *  This function sets the offset for voltage readings.
 809:.\Generated_Source\PSoC5/ADC_Voltage_Target.c **** *
 810:.\Generated_Source\PSoC5/ADC_Voltage_Target.c **** * Parameters:  
 811:.\Generated_Source\PSoC5/ADC_Voltage_Target.c **** *  int32:  offset  Offset in counts
 812:.\Generated_Source\PSoC5/ADC_Voltage_Target.c **** *
 813:.\Generated_Source\PSoC5/ADC_Voltage_Target.c **** * Return: 
 814:.\Generated_Source\PSoC5/ADC_Voltage_Target.c **** *  void
 815:.\Generated_Source\PSoC5/ADC_Voltage_Target.c **** *
 816:.\Generated_Source\PSoC5/ADC_Voltage_Target.c **** * Global variables:
 817:.\Generated_Source\PSoC5/ADC_Voltage_Target.c **** *  ADC_Voltage_Target_Offset:  Modified to set the user provided offset. This 
 818:.\Generated_Source\PSoC5/ADC_Voltage_Target.c **** *  variable is used for offset calibration purpose.
 819:.\Generated_Source\PSoC5/ADC_Voltage_Target.c **** *  Affects the ADC_Voltage_Target_CountsTo_Volts, 
 820:.\Generated_Source\PSoC5/ADC_Voltage_Target.c **** *  ADC_Voltage_Target_CountsTo_mVolts, ADC_Voltage_Target_CountsTo_uVolts functions 
 821:.\Generated_Source\PSoC5/ADC_Voltage_Target.c **** *  by subtracting the given offset. 
 822:.\Generated_Source\PSoC5/ADC_Voltage_Target.c **** *
 823:.\Generated_Source\PSoC5/ADC_Voltage_Target.c **** *******************************************************************************/
 824:.\Generated_Source\PSoC5/ADC_Voltage_Target.c **** void ADC_Voltage_Target_SetOffset(int32 offset) 
 825:.\Generated_Source\PSoC5/ADC_Voltage_Target.c **** {
 1204              		.loc 1 825 0
 1205              		.cfi_startproc
 1206              		@ args = 0, pretend = 0, frame = 8
 1207              		@ frame_needed = 1, uses_anonymous_args = 0
 1208              		@ link register save eliminated.
 1209 0000 80B4     		push	{r7}
 1210              	.LCFI38:
 1211              		.cfi_def_cfa_offset 4
 1212 0002 83B0     		sub	sp, sp, #12
 1213              	.LCFI39:
 1214              		.cfi_def_cfa_offset 16
 1215 0004 00AF     		add	r7, sp, #0
 1216              		.cfi_offset 7, -4
 1217              	.LCFI40:
 1218              		.cfi_def_cfa_register 7
 1219 0006 7860     		str	r0, [r7, #4]
 826:.\Generated_Source\PSoC5/ADC_Voltage_Target.c ****  
 827:.\Generated_Source\PSoC5/ADC_Voltage_Target.c ****     ADC_Voltage_Target_Offset = offset;
 1220              		.loc 1 827 0
 1221 0008 40F20003 		movw	r3, #:lower16:ADC_Voltage_Target_Offset
ARM GAS  C:\DOCUME~1\ADMINI~1\LOCALS~1\Temp\ccfNfb5I.s 			page 37


 1222 000c C0F20003 		movt	r3, #:upper16:ADC_Voltage_Target_Offset
 1223 0010 7A68     		ldr	r2, [r7, #4]
 1224 0012 1A60     		str	r2, [r3, #0]
 828:.\Generated_Source\PSoC5/ADC_Voltage_Target.c **** }
 1225              		.loc 1 828 0
 1226 0014 07F10C07 		add	r7, r7, #12
 1227 0018 BD46     		mov	sp, r7
 1228 001a 80BC     		pop	{r7}
 1229 001c 7047     		bx	lr
 1230              		.cfi_endproc
 1231              	.LFE15:
 1232              		.size	ADC_Voltage_Target_SetOffset, .-ADC_Voltage_Target_SetOffset
 1233 001e 00BF     		.section	.text.ADC_Voltage_Target_SetGain,"ax",%progbits
 1234              		.align	2
 1235              		.global	ADC_Voltage_Target_SetGain
 1236              		.thumb
 1237              		.thumb_func
 1238              		.type	ADC_Voltage_Target_SetGain, %function
 1239              	ADC_Voltage_Target_SetGain:
 1240              	.LFB16:
 829:.\Generated_Source\PSoC5/ADC_Voltage_Target.c **** 
 830:.\Generated_Source\PSoC5/ADC_Voltage_Target.c **** 
 831:.\Generated_Source\PSoC5/ADC_Voltage_Target.c **** /*******************************************************************************
 832:.\Generated_Source\PSoC5/ADC_Voltage_Target.c **** * Function Name: ADC_Voltage_Target_SetGain
 833:.\Generated_Source\PSoC5/ADC_Voltage_Target.c **** ********************************************************************************
 834:.\Generated_Source\PSoC5/ADC_Voltage_Target.c **** *
 835:.\Generated_Source\PSoC5/ADC_Voltage_Target.c **** * Summary:
 836:.\Generated_Source\PSoC5/ADC_Voltage_Target.c **** *  This function sets the ADC gain in counts per volt.
 837:.\Generated_Source\PSoC5/ADC_Voltage_Target.c **** *
 838:.\Generated_Source\PSoC5/ADC_Voltage_Target.c **** * Parameters:  
 839:.\Generated_Source\PSoC5/ADC_Voltage_Target.c **** *  int32:  offset  Offset in counts
 840:.\Generated_Source\PSoC5/ADC_Voltage_Target.c **** *
 841:.\Generated_Source\PSoC5/ADC_Voltage_Target.c **** * Return: 
 842:.\Generated_Source\PSoC5/ADC_Voltage_Target.c **** *  void 
 843:.\Generated_Source\PSoC5/ADC_Voltage_Target.c **** *
 844:.\Generated_Source\PSoC5/ADC_Voltage_Target.c **** * Global variables:
 845:.\Generated_Source\PSoC5/ADC_Voltage_Target.c **** *  ADC_Voltage_Target_CountsPerVolt:  modified to set the ADC gain in counts 
 846:.\Generated_Source\PSoC5/ADC_Voltage_Target.c **** *   per volt.
 847:.\Generated_Source\PSoC5/ADC_Voltage_Target.c **** *
 848:.\Generated_Source\PSoC5/ADC_Voltage_Target.c **** *******************************************************************************/
 849:.\Generated_Source\PSoC5/ADC_Voltage_Target.c **** void ADC_Voltage_Target_SetGain(int32 adcGain) 
 850:.\Generated_Source\PSoC5/ADC_Voltage_Target.c **** {
 1241              		.loc 1 850 0
 1242              		.cfi_startproc
 1243              		@ args = 0, pretend = 0, frame = 8
 1244              		@ frame_needed = 1, uses_anonymous_args = 0
 1245              		@ link register save eliminated.
 1246 0000 80B4     		push	{r7}
 1247              	.LCFI41:
 1248              		.cfi_def_cfa_offset 4
 1249 0002 83B0     		sub	sp, sp, #12
 1250              	.LCFI42:
 1251              		.cfi_def_cfa_offset 16
 1252 0004 00AF     		add	r7, sp, #0
 1253              		.cfi_offset 7, -4
 1254              	.LCFI43:
 1255              		.cfi_def_cfa_register 7
ARM GAS  C:\DOCUME~1\ADMINI~1\LOCALS~1\Temp\ccfNfb5I.s 			page 38


 1256 0006 7860     		str	r0, [r7, #4]
 851:.\Generated_Source\PSoC5/ADC_Voltage_Target.c ****  
 852:.\Generated_Source\PSoC5/ADC_Voltage_Target.c ****     ADC_Voltage_Target_CountsPerVolt = adcGain;
 1257              		.loc 1 852 0
 1258 0008 40F20003 		movw	r3, #:lower16:ADC_Voltage_Target_CountsPerVolt
 1259 000c C0F20003 		movt	r3, #:upper16:ADC_Voltage_Target_CountsPerVolt
 1260 0010 7A68     		ldr	r2, [r7, #4]
 1261 0012 1A60     		str	r2, [r3, #0]
 853:.\Generated_Source\PSoC5/ADC_Voltage_Target.c **** }
 1262              		.loc 1 853 0
 1263 0014 07F10C07 		add	r7, r7, #12
 1264 0018 BD46     		mov	sp, r7
 1265 001a 80BC     		pop	{r7}
 1266 001c 7047     		bx	lr
 1267              		.cfi_endproc
 1268              	.LFE16:
 1269              		.size	ADC_Voltage_Target_SetGain, .-ADC_Voltage_Target_SetGain
 1270 001e 00BF     		.section	.text.ADC_Voltage_Target_CountsTo_mVolts,"ax",%progbits
 1271              		.align	2
 1272              		.global	ADC_Voltage_Target_CountsTo_mVolts
 1273              		.thumb
 1274              		.thumb_func
 1275              		.type	ADC_Voltage_Target_CountsTo_mVolts, %function
 1276              	ADC_Voltage_Target_CountsTo_mVolts:
 1277              	.LFB17:
 854:.\Generated_Source\PSoC5/ADC_Voltage_Target.c **** 
 855:.\Generated_Source\PSoC5/ADC_Voltage_Target.c **** 
 856:.\Generated_Source\PSoC5/ADC_Voltage_Target.c **** /*******************************************************************************
 857:.\Generated_Source\PSoC5/ADC_Voltage_Target.c **** * Function Name: ADC_Voltage_Target_CountsTo_mVolts
 858:.\Generated_Source\PSoC5/ADC_Voltage_Target.c **** ********************************************************************************
 859:.\Generated_Source\PSoC5/ADC_Voltage_Target.c **** *
 860:.\Generated_Source\PSoC5/ADC_Voltage_Target.c **** * Summary:
 861:.\Generated_Source\PSoC5/ADC_Voltage_Target.c **** *  This function converts ADC counts to mVolts.
 862:.\Generated_Source\PSoC5/ADC_Voltage_Target.c **** *
 863:.\Generated_Source\PSoC5/ADC_Voltage_Target.c **** * Parameters:  
 864:.\Generated_Source\PSoC5/ADC_Voltage_Target.c **** *  int32:  adcCounts   Reading from ADC.
 865:.\Generated_Source\PSoC5/ADC_Voltage_Target.c **** *
 866:.\Generated_Source\PSoC5/ADC_Voltage_Target.c **** * Return: 
 867:.\Generated_Source\PSoC5/ADC_Voltage_Target.c **** *  int32:  Result in mVolts
 868:.\Generated_Source\PSoC5/ADC_Voltage_Target.c **** *
 869:.\Generated_Source\PSoC5/ADC_Voltage_Target.c **** * Global variables:
 870:.\Generated_Source\PSoC5/ADC_Voltage_Target.c **** *  ADC_Voltage_Target_CountsPerVolt:  used to convert ADC counts to mVolts.
 871:.\Generated_Source\PSoC5/ADC_Voltage_Target.c **** *  ADC_Voltage_Target_Offset:  Used as the offset while converting ADC counts 
 872:.\Generated_Source\PSoC5/ADC_Voltage_Target.c **** *   to mVolts.
 873:.\Generated_Source\PSoC5/ADC_Voltage_Target.c **** *
 874:.\Generated_Source\PSoC5/ADC_Voltage_Target.c **** *******************************************************************************/
 875:.\Generated_Source\PSoC5/ADC_Voltage_Target.c **** int16 ADC_Voltage_Target_CountsTo_mVolts( int32 adcCounts) 
 876:.\Generated_Source\PSoC5/ADC_Voltage_Target.c **** {
 1278              		.loc 1 876 0
 1279              		.cfi_startproc
 1280              		@ args = 0, pretend = 0, frame = 24
 1281              		@ frame_needed = 1, uses_anonymous_args = 0
 1282              		@ link register save eliminated.
 1283 0000 80B4     		push	{r7}
 1284              	.LCFI44:
 1285              		.cfi_def_cfa_offset 4
 1286 0002 87B0     		sub	sp, sp, #28
ARM GAS  C:\DOCUME~1\ADMINI~1\LOCALS~1\Temp\ccfNfb5I.s 			page 39


 1287              	.LCFI45:
 1288              		.cfi_def_cfa_offset 32
 1289 0004 00AF     		add	r7, sp, #0
 1290              		.cfi_offset 7, -4
 1291              	.LCFI46:
 1292              		.cfi_def_cfa_register 7
 1293 0006 7860     		str	r0, [r7, #4]
 877:.\Generated_Source\PSoC5/ADC_Voltage_Target.c **** 
 878:.\Generated_Source\PSoC5/ADC_Voltage_Target.c ****     int32 mVolts = 0;
 1294              		.loc 1 878 0
 1295 0008 4FF00003 		mov	r3, #0
 1296 000c BB60     		str	r3, [r7, #8]
 879:.\Generated_Source\PSoC5/ADC_Voltage_Target.c ****     int32 A, B;
 880:.\Generated_Source\PSoC5/ADC_Voltage_Target.c **** 	uint8 resolution = 16;
 1297              		.loc 1 880 0
 1298 000e 4FF01003 		mov	r3, #16
 1299 0012 FB75     		strb	r3, [r7, #23]
 881:.\Generated_Source\PSoC5/ADC_Voltage_Target.c **** 
 882:.\Generated_Source\PSoC5/ADC_Voltage_Target.c ****     /* Subtract ADC offset */
 883:.\Generated_Source\PSoC5/ADC_Voltage_Target.c ****     adcCounts -= ADC_Voltage_Target_Offset;
 1300              		.loc 1 883 0
 1301 0014 40F20003 		movw	r3, #:lower16:ADC_Voltage_Target_Offset
 1302 0018 C0F20003 		movt	r3, #:upper16:ADC_Voltage_Target_Offset
 1303 001c 1B68     		ldr	r3, [r3, #0]
 1304 001e 7A68     		ldr	r2, [r7, #4]
 1305 0020 C3EB0203 		rsb	r3, r3, r2
 1306 0024 7B60     		str	r3, [r7, #4]
 884:.\Generated_Source\PSoC5/ADC_Voltage_Target.c **** 	
 885:.\Generated_Source\PSoC5/ADC_Voltage_Target.c **** 	/* Set the resolution based on the configuration */
 886:.\Generated_Source\PSoC5/ADC_Voltage_Target.c **** 	if (ADC_Voltage_Target_Config == ADC_Voltage_Target_CFG1)
 1307              		.loc 1 886 0
 1308 0026 40F20003 		movw	r3, #:lower16:ADC_Voltage_Target_Config
 1309 002a C0F20003 		movt	r3, #:upper16:ADC_Voltage_Target_Config
 1310 002e 1B78     		ldrb	r3, [r3, #0]
 1311 0030 DBB2     		uxtb	r3, r3
 1312 0032 012B     		cmp	r3, #1
 1313 0034 03D1     		bne	.L60
 887:.\Generated_Source\PSoC5/ADC_Voltage_Target.c **** 	{
 888:.\Generated_Source\PSoC5/ADC_Voltage_Target.c ****         resolution = ADC_Voltage_Target_CFG1_RESOLUTION;
 1314              		.loc 1 888 0
 1315 0036 4FF00C03 		mov	r3, #12
 1316 003a FB75     		strb	r3, [r7, #23]
 1317 003c 1AE0     		b	.L61
 1318              	.L60:
 889:.\Generated_Source\PSoC5/ADC_Voltage_Target.c **** 	}	
 890:.\Generated_Source\PSoC5/ADC_Voltage_Target.c **** 	else if (ADC_Voltage_Target_Config == ADC_Voltage_Target_CFG2)
 1319              		.loc 1 890 0
 1320 003e 40F20003 		movw	r3, #:lower16:ADC_Voltage_Target_Config
 1321 0042 C0F20003 		movt	r3, #:upper16:ADC_Voltage_Target_Config
 1322 0046 1B78     		ldrb	r3, [r3, #0]
 1323 0048 DBB2     		uxtb	r3, r3
 1324 004a 022B     		cmp	r3, #2
 1325 004c 03D1     		bne	.L62
 891:.\Generated_Source\PSoC5/ADC_Voltage_Target.c **** 	{
 892:.\Generated_Source\PSoC5/ADC_Voltage_Target.c **** 	    resolution = ADC_Voltage_Target_CFG2_RESOLUTION;
 1326              		.loc 1 892 0
 1327 004e 4FF01003 		mov	r3, #16
ARM GAS  C:\DOCUME~1\ADMINI~1\LOCALS~1\Temp\ccfNfb5I.s 			page 40


 1328 0052 FB75     		strb	r3, [r7, #23]
 1329 0054 0EE0     		b	.L61
 1330              	.L62:
 893:.\Generated_Source\PSoC5/ADC_Voltage_Target.c **** 	}
 894:.\Generated_Source\PSoC5/ADC_Voltage_Target.c **** 	else if (ADC_Voltage_Target_Config == ADC_Voltage_Target_CFG3)
 1331              		.loc 1 894 0
 1332 0056 40F20003 		movw	r3, #:lower16:ADC_Voltage_Target_Config
 1333 005a C0F20003 		movt	r3, #:upper16:ADC_Voltage_Target_Config
 1334 005e 1B78     		ldrb	r3, [r3, #0]
 1335 0060 DBB2     		uxtb	r3, r3
 1336 0062 032B     		cmp	r3, #3
 1337 0064 03D1     		bne	.L63
 895:.\Generated_Source\PSoC5/ADC_Voltage_Target.c **** 	{
 896:.\Generated_Source\PSoC5/ADC_Voltage_Target.c **** 	    resolution = ADC_Voltage_Target_CFG3_RESOLUTION;
 1338              		.loc 1 896 0
 1339 0066 4FF01003 		mov	r3, #16
 1340 006a FB75     		strb	r3, [r7, #23]
 1341 006c 02E0     		b	.L61
 1342              	.L63:
 897:.\Generated_Source\PSoC5/ADC_Voltage_Target.c **** 	}
 898:.\Generated_Source\PSoC5/ADC_Voltage_Target.c **** 	else
 899:.\Generated_Source\PSoC5/ADC_Voltage_Target.c **** 	{
 900:.\Generated_Source\PSoC5/ADC_Voltage_Target.c **** 	    resolution = ADC_Voltage_Target_CFG4_RESOLUTION;
 1343              		.loc 1 900 0
 1344 006e 4FF01003 		mov	r3, #16
 1345 0072 FB75     		strb	r3, [r7, #23]
 1346              	.L61:
 901:.\Generated_Source\PSoC5/ADC_Voltage_Target.c **** 	}
 902:.\Generated_Source\PSoC5/ADC_Voltage_Target.c **** 	
 903:.\Generated_Source\PSoC5/ADC_Voltage_Target.c ****     if(resolution < 17)
 1347              		.loc 1 903 0
 1348 0074 FB7D     		ldrb	r3, [r7, #23]	@ zero_extendqisi2
 1349 0076 102B     		cmp	r3, #16
 1350 0078 06D8     		bhi	.L64
 904:.\Generated_Source\PSoC5/ADC_Voltage_Target.c ****     {
 905:.\Generated_Source\PSoC5/ADC_Voltage_Target.c ****         A = 1000;
 1351              		.loc 1 905 0
 1352 007a 4FF47A73 		mov	r3, #1000
 1353 007e FB60     		str	r3, [r7, #12]
 906:.\Generated_Source\PSoC5/ADC_Voltage_Target.c ****         B = 1;
 1354              		.loc 1 906 0
 1355 0080 4FF00103 		mov	r3, #1
 1356 0084 3B61     		str	r3, [r7, #16]
 1357 0086 05E0     		b	.L65
 1358              	.L64:
 907:.\Generated_Source\PSoC5/ADC_Voltage_Target.c ****     }
 908:.\Generated_Source\PSoC5/ADC_Voltage_Target.c ****     else
 909:.\Generated_Source\PSoC5/ADC_Voltage_Target.c ****     {
 910:.\Generated_Source\PSoC5/ADC_Voltage_Target.c ****         A = 100;
 1359              		.loc 1 910 0
 1360 0088 4FF06403 		mov	r3, #100
 1361 008c FB60     		str	r3, [r7, #12]
 911:.\Generated_Source\PSoC5/ADC_Voltage_Target.c ****         B = 10;
 1362              		.loc 1 911 0
 1363 008e 4FF00A03 		mov	r3, #10
 1364 0092 3B61     		str	r3, [r7, #16]
 1365              	.L65:
ARM GAS  C:\DOCUME~1\ADMINI~1\LOCALS~1\Temp\ccfNfb5I.s 			page 41


 912:.\Generated_Source\PSoC5/ADC_Voltage_Target.c ****     }
 913:.\Generated_Source\PSoC5/ADC_Voltage_Target.c **** 
 914:.\Generated_Source\PSoC5/ADC_Voltage_Target.c ****     mVolts = ((A * adcCounts) / ((int32)ADC_Voltage_Target_CountsPerVolt/B)) ;   
 1366              		.loc 1 914 0
 1367 0094 FB68     		ldr	r3, [r7, #12]
 1368 0096 7A68     		ldr	r2, [r7, #4]
 1369 0098 02FB03F2 		mul	r2, r2, r3
 1370 009c 40F20003 		movw	r3, #:lower16:ADC_Voltage_Target_CountsPerVolt
 1371 00a0 C0F20003 		movt	r3, #:upper16:ADC_Voltage_Target_CountsPerVolt
 1372 00a4 1968     		ldr	r1, [r3, #0]
 1373 00a6 3B69     		ldr	r3, [r7, #16]
 1374 00a8 91FBF3F3 		sdiv	r3, r1, r3
 1375 00ac 92FBF3F3 		sdiv	r3, r2, r3
 1376 00b0 BB60     		str	r3, [r7, #8]
 915:.\Generated_Source\PSoC5/ADC_Voltage_Target.c **** 
 916:.\Generated_Source\PSoC5/ADC_Voltage_Target.c ****     return( (int16)mVolts );
 1377              		.loc 1 916 0
 1378 00b2 BB68     		ldr	r3, [r7, #8]
 1379 00b4 9BB2     		uxth	r3, r3
 1380 00b6 1BB2     		sxth	r3, r3
 917:.\Generated_Source\PSoC5/ADC_Voltage_Target.c **** }
 1381              		.loc 1 917 0
 1382 00b8 1846     		mov	r0, r3
 1383 00ba 07F11C07 		add	r7, r7, #28
 1384 00be BD46     		mov	sp, r7
 1385 00c0 80BC     		pop	{r7}
 1386 00c2 7047     		bx	lr
 1387              		.cfi_endproc
 1388              	.LFE17:
 1389              		.size	ADC_Voltage_Target_CountsTo_mVolts, .-ADC_Voltage_Target_CountsTo_mVolts
 1390              		.global	__aeabi_i2f
 1391              		.section	.text.ADC_Voltage_Target_CountsTo_Volts,"ax",%progbits
 1392              		.align	2
 1393              		.global	ADC_Voltage_Target_CountsTo_Volts
 1394              		.thumb
 1395              		.thumb_func
 1396              		.type	ADC_Voltage_Target_CountsTo_Volts, %function
 1397              	ADC_Voltage_Target_CountsTo_Volts:
 1398              	.LFB18:
 918:.\Generated_Source\PSoC5/ADC_Voltage_Target.c **** 
 919:.\Generated_Source\PSoC5/ADC_Voltage_Target.c **** 
 920:.\Generated_Source\PSoC5/ADC_Voltage_Target.c **** /*******************************************************************************
 921:.\Generated_Source\PSoC5/ADC_Voltage_Target.c **** * Function Name: ADC_Voltage_Target_CountsTo_Volts
 922:.\Generated_Source\PSoC5/ADC_Voltage_Target.c **** ********************************************************************************
 923:.\Generated_Source\PSoC5/ADC_Voltage_Target.c **** *
 924:.\Generated_Source\PSoC5/ADC_Voltage_Target.c **** * Summary:
 925:.\Generated_Source\PSoC5/ADC_Voltage_Target.c **** *  This function converts ADC counts to Volts
 926:.\Generated_Source\PSoC5/ADC_Voltage_Target.c **** *
 927:.\Generated_Source\PSoC5/ADC_Voltage_Target.c **** * Parameters:  
 928:.\Generated_Source\PSoC5/ADC_Voltage_Target.c **** *  int32:  adcCounts   Reading from ADC.
 929:.\Generated_Source\PSoC5/ADC_Voltage_Target.c **** *
 930:.\Generated_Source\PSoC5/ADC_Voltage_Target.c **** * Return: 
 931:.\Generated_Source\PSoC5/ADC_Voltage_Target.c **** *  float:  Result in Volts
 932:.\Generated_Source\PSoC5/ADC_Voltage_Target.c **** *
 933:.\Generated_Source\PSoC5/ADC_Voltage_Target.c **** * Global variables:
 934:.\Generated_Source\PSoC5/ADC_Voltage_Target.c **** *  ADC_Voltage_Target_CountsPerVolt:  used to convert to Volts.
 935:.\Generated_Source\PSoC5/ADC_Voltage_Target.c **** *  ADC_Voltage_Target_Offset:  Used as the offset while converting ADC counts 
ARM GAS  C:\DOCUME~1\ADMINI~1\LOCALS~1\Temp\ccfNfb5I.s 			page 42


 936:.\Generated_Source\PSoC5/ADC_Voltage_Target.c **** *   to Volts.
 937:.\Generated_Source\PSoC5/ADC_Voltage_Target.c **** *
 938:.\Generated_Source\PSoC5/ADC_Voltage_Target.c **** *******************************************************************************/
 939:.\Generated_Source\PSoC5/ADC_Voltage_Target.c **** float ADC_Voltage_Target_CountsTo_Volts( int32 adcCounts) 
 940:.\Generated_Source\PSoC5/ADC_Voltage_Target.c **** {
 1399              		.loc 1 940 0
 1400              		.cfi_startproc
 1401              		@ args = 0, pretend = 0, frame = 16
 1402              		@ frame_needed = 1, uses_anonymous_args = 0
 1403 0000 90B5     		push	{r4, r7, lr}
 1404              	.LCFI47:
 1405              		.cfi_def_cfa_offset 12
 1406 0002 85B0     		sub	sp, sp, #20
 1407              	.LCFI48:
 1408              		.cfi_def_cfa_offset 32
 1409 0004 00AF     		add	r7, sp, #0
 1410              		.cfi_offset 14, -4
 1411              		.cfi_offset 7, -8
 1412              		.cfi_offset 4, -12
 1413              	.LCFI49:
 1414              		.cfi_def_cfa_register 7
 1415 0006 7860     		str	r0, [r7, #4]
 941:.\Generated_Source\PSoC5/ADC_Voltage_Target.c **** 
 942:.\Generated_Source\PSoC5/ADC_Voltage_Target.c ****     float Volts = 0;
 1416              		.loc 1 942 0
 1417 0008 114B     		ldr	r3, .L69	@ float
 1418 000a FB60     		str	r3, [r7, #12]	@ float
 943:.\Generated_Source\PSoC5/ADC_Voltage_Target.c **** 
 944:.\Generated_Source\PSoC5/ADC_Voltage_Target.c ****     /* Subtract ADC offset */
 945:.\Generated_Source\PSoC5/ADC_Voltage_Target.c ****     adcCounts -= ADC_Voltage_Target_Offset;
 1419              		.loc 1 945 0
 1420 000c 40F20003 		movw	r3, #:lower16:ADC_Voltage_Target_Offset
 1421 0010 C0F20003 		movt	r3, #:upper16:ADC_Voltage_Target_Offset
 1422 0014 1B68     		ldr	r3, [r3, #0]
 1423 0016 7A68     		ldr	r2, [r7, #4]
 1424 0018 C3EB0203 		rsb	r3, r3, r2
 1425 001c 7B60     		str	r3, [r7, #4]
 946:.\Generated_Source\PSoC5/ADC_Voltage_Target.c **** 
 947:.\Generated_Source\PSoC5/ADC_Voltage_Target.c ****     Volts = (float)adcCounts / (float)ADC_Voltage_Target_CountsPerVolt;   
 1426              		.loc 1 947 0
 1427 001e 7868     		ldr	r0, [r7, #4]
 1428 0020 FFF7FEFF 		bl	__aeabi_i2f
 1429 0024 0446     		mov	r4, r0
 1430 0026 40F20003 		movw	r3, #:lower16:ADC_Voltage_Target_CountsPerVolt
 1431 002a C0F20003 		movt	r3, #:upper16:ADC_Voltage_Target_CountsPerVolt
 1432 002e 1B68     		ldr	r3, [r3, #0]
 1433 0030 1846     		mov	r0, r3
 1434 0032 FFF7FEFF 		bl	__aeabi_i2f
 1435 0036 0346     		mov	r3, r0
 1436 0038 2046     		mov	r0, r4
 1437 003a 1946     		mov	r1, r3
 1438 003c FFF7FEFF 		bl	__aeabi_fdiv
 1439 0040 0346     		mov	r3, r0
 1440 0042 FB60     		str	r3, [r7, #12]	@ float
 948:.\Generated_Source\PSoC5/ADC_Voltage_Target.c ****     
 949:.\Generated_Source\PSoC5/ADC_Voltage_Target.c ****     return( Volts );
 1441              		.loc 1 949 0
ARM GAS  C:\DOCUME~1\ADMINI~1\LOCALS~1\Temp\ccfNfb5I.s 			page 43


 1442 0044 FB68     		ldr	r3, [r7, #12]	@ float
 950:.\Generated_Source\PSoC5/ADC_Voltage_Target.c **** }
 1443              		.loc 1 950 0
 1444 0046 1846     		mov	r0, r3
 1445 0048 07F11407 		add	r7, r7, #20
 1446 004c BD46     		mov	sp, r7
 1447 004e 90BD     		pop	{r4, r7, pc}
 1448              	.L70:
 1449              		.align	2
 1450              	.L69:
 1451 0050 00000000 		.word	0
 1452              		.cfi_endproc
 1453              	.LFE18:
 1454              		.size	ADC_Voltage_Target_CountsTo_Volts, .-ADC_Voltage_Target_CountsTo_Volts
 1455              		.section	.text.ADC_Voltage_Target_CountsTo_uVolts,"ax",%progbits
 1456              		.align	2
 1457              		.global	ADC_Voltage_Target_CountsTo_uVolts
 1458              		.thumb
 1459              		.thumb_func
 1460              		.type	ADC_Voltage_Target_CountsTo_uVolts, %function
 1461              	ADC_Voltage_Target_CountsTo_uVolts:
 1462              	.LFB19:
 951:.\Generated_Source\PSoC5/ADC_Voltage_Target.c **** 
 952:.\Generated_Source\PSoC5/ADC_Voltage_Target.c **** 
 953:.\Generated_Source\PSoC5/ADC_Voltage_Target.c **** /*******************************************************************************
 954:.\Generated_Source\PSoC5/ADC_Voltage_Target.c **** * Function Name: ADC_Voltage_Target_CountsTo_uVolts
 955:.\Generated_Source\PSoC5/ADC_Voltage_Target.c **** ********************************************************************************
 956:.\Generated_Source\PSoC5/ADC_Voltage_Target.c **** *
 957:.\Generated_Source\PSoC5/ADC_Voltage_Target.c **** * Summary:
 958:.\Generated_Source\PSoC5/ADC_Voltage_Target.c **** *  This function converts ADC counts to uVolts
 959:.\Generated_Source\PSoC5/ADC_Voltage_Target.c **** *
 960:.\Generated_Source\PSoC5/ADC_Voltage_Target.c **** * Parameters:  
 961:.\Generated_Source\PSoC5/ADC_Voltage_Target.c **** *  int32:  adcCounts   Reading from ADC.
 962:.\Generated_Source\PSoC5/ADC_Voltage_Target.c **** *
 963:.\Generated_Source\PSoC5/ADC_Voltage_Target.c **** * Return: 
 964:.\Generated_Source\PSoC5/ADC_Voltage_Target.c **** *  int32:  Result in uVolts
 965:.\Generated_Source\PSoC5/ADC_Voltage_Target.c **** *
 966:.\Generated_Source\PSoC5/ADC_Voltage_Target.c **** * Global variables:
 967:.\Generated_Source\PSoC5/ADC_Voltage_Target.c **** *  ADC_Voltage_Target_CountsPerVolt:  used to convert ADC counts to mVolts.
 968:.\Generated_Source\PSoC5/ADC_Voltage_Target.c **** *  ADC_Voltage_Target_Offset:  Used as the offset while converting ADC counts 
 969:.\Generated_Source\PSoC5/ADC_Voltage_Target.c **** *   to mVolts.
 970:.\Generated_Source\PSoC5/ADC_Voltage_Target.c **** *
 971:.\Generated_Source\PSoC5/ADC_Voltage_Target.c **** * Theory: 
 972:.\Generated_Source\PSoC5/ADC_Voltage_Target.c **** * Care must be taken to not exceed the maximum value for a 32 bit signed
 973:.\Generated_Source\PSoC5/ADC_Voltage_Target.c **** * number in the conversion to uVolts and at the same time not loose 
 974:.\Generated_Source\PSoC5/ADC_Voltage_Target.c **** * resolution.
 975:.\Generated_Source\PSoC5/ADC_Voltage_Target.c **** *
 976:.\Generated_Source\PSoC5/ADC_Voltage_Target.c **** * uVolts = ((A * adcCounts) / ((int32)ADC_Voltage_Target_CountsPerVolt/B)) ;   
 977:.\Generated_Source\PSoC5/ADC_Voltage_Target.c **** *
 978:.\Generated_Source\PSoC5/ADC_Voltage_Target.c **** *  Resolution       A           B
 979:.\Generated_Source\PSoC5/ADC_Voltage_Target.c **** *   8 - 11      1,000,000         1
 980:.\Generated_Source\PSoC5/ADC_Voltage_Target.c **** *  12 - 14        100,000        10
 981:.\Generated_Source\PSoC5/ADC_Voltage_Target.c **** *  15 - 17         10,000       100
 982:.\Generated_Source\PSoC5/ADC_Voltage_Target.c **** *  18 - 20           1000      1000
 983:.\Generated_Source\PSoC5/ADC_Voltage_Target.c **** *
 984:.\Generated_Source\PSoC5/ADC_Voltage_Target.c **** *******************************************************************************/
 985:.\Generated_Source\PSoC5/ADC_Voltage_Target.c **** int32 ADC_Voltage_Target_CountsTo_uVolts( int32 adcCounts) 
ARM GAS  C:\DOCUME~1\ADMINI~1\LOCALS~1\Temp\ccfNfb5I.s 			page 44


 986:.\Generated_Source\PSoC5/ADC_Voltage_Target.c **** {
 1463              		.loc 1 986 0
 1464              		.cfi_startproc
 1465              		@ args = 0, pretend = 0, frame = 24
 1466              		@ frame_needed = 1, uses_anonymous_args = 0
 1467              		@ link register save eliminated.
 1468 0000 80B4     		push	{r7}
 1469              	.LCFI50:
 1470              		.cfi_def_cfa_offset 4
 1471 0002 87B0     		sub	sp, sp, #28
 1472              	.LCFI51:
 1473              		.cfi_def_cfa_offset 32
 1474 0004 00AF     		add	r7, sp, #0
 1475              		.cfi_offset 7, -4
 1476              	.LCFI52:
 1477              		.cfi_def_cfa_register 7
 1478 0006 7860     		str	r0, [r7, #4]
 987:.\Generated_Source\PSoC5/ADC_Voltage_Target.c **** 
 988:.\Generated_Source\PSoC5/ADC_Voltage_Target.c ****     int32 uVolts = 0;
 1479              		.loc 1 988 0
 1480 0008 4FF00003 		mov	r3, #0
 1481 000c BB60     		str	r3, [r7, #8]
 989:.\Generated_Source\PSoC5/ADC_Voltage_Target.c ****     int32 A, B;
 990:.\Generated_Source\PSoC5/ADC_Voltage_Target.c **** 	uint8 resolution = 16;
 1482              		.loc 1 990 0
 1483 000e 4FF01003 		mov	r3, #16
 1484 0012 FB75     		strb	r3, [r7, #23]
 991:.\Generated_Source\PSoC5/ADC_Voltage_Target.c **** 	
 992:.\Generated_Source\PSoC5/ADC_Voltage_Target.c **** 	/* Set the resolution based on the configuration */
 993:.\Generated_Source\PSoC5/ADC_Voltage_Target.c **** 	if (ADC_Voltage_Target_Config == ADC_Voltage_Target_CFG1)
 1485              		.loc 1 993 0
 1486 0014 40F20003 		movw	r3, #:lower16:ADC_Voltage_Target_Config
 1487 0018 C0F20003 		movt	r3, #:upper16:ADC_Voltage_Target_Config
 1488 001c 1B78     		ldrb	r3, [r3, #0]
 1489 001e DBB2     		uxtb	r3, r3
 1490 0020 012B     		cmp	r3, #1
 1491 0022 03D1     		bne	.L72
 994:.\Generated_Source\PSoC5/ADC_Voltage_Target.c **** 	{
 995:.\Generated_Source\PSoC5/ADC_Voltage_Target.c ****         resolution = ADC_Voltage_Target_CFG1_RESOLUTION;
 1492              		.loc 1 995 0
 1493 0024 4FF00C03 		mov	r3, #12
 1494 0028 FB75     		strb	r3, [r7, #23]
 1495 002a 1AE0     		b	.L73
 1496              	.L72:
 996:.\Generated_Source\PSoC5/ADC_Voltage_Target.c **** 	}	
 997:.\Generated_Source\PSoC5/ADC_Voltage_Target.c **** 	else if (ADC_Voltage_Target_Config == ADC_Voltage_Target_CFG2)
 1497              		.loc 1 997 0
 1498 002c 40F20003 		movw	r3, #:lower16:ADC_Voltage_Target_Config
 1499 0030 C0F20003 		movt	r3, #:upper16:ADC_Voltage_Target_Config
 1500 0034 1B78     		ldrb	r3, [r3, #0]
 1501 0036 DBB2     		uxtb	r3, r3
 1502 0038 022B     		cmp	r3, #2
 1503 003a 03D1     		bne	.L74
 998:.\Generated_Source\PSoC5/ADC_Voltage_Target.c **** 	{
 999:.\Generated_Source\PSoC5/ADC_Voltage_Target.c **** 	    resolution = ADC_Voltage_Target_CFG2_RESOLUTION;
 1504              		.loc 1 999 0
 1505 003c 4FF01003 		mov	r3, #16
ARM GAS  C:\DOCUME~1\ADMINI~1\LOCALS~1\Temp\ccfNfb5I.s 			page 45


 1506 0040 FB75     		strb	r3, [r7, #23]
 1507 0042 0EE0     		b	.L73
 1508              	.L74:
1000:.\Generated_Source\PSoC5/ADC_Voltage_Target.c **** 	}
1001:.\Generated_Source\PSoC5/ADC_Voltage_Target.c **** 	else if (ADC_Voltage_Target_Config == ADC_Voltage_Target_CFG3)
 1509              		.loc 1 1001 0
 1510 0044 40F20003 		movw	r3, #:lower16:ADC_Voltage_Target_Config
 1511 0048 C0F20003 		movt	r3, #:upper16:ADC_Voltage_Target_Config
 1512 004c 1B78     		ldrb	r3, [r3, #0]
 1513 004e DBB2     		uxtb	r3, r3
 1514 0050 032B     		cmp	r3, #3
 1515 0052 03D1     		bne	.L75
1002:.\Generated_Source\PSoC5/ADC_Voltage_Target.c **** 	{
1003:.\Generated_Source\PSoC5/ADC_Voltage_Target.c **** 	    resolution = ADC_Voltage_Target_CFG3_RESOLUTION;
 1516              		.loc 1 1003 0
 1517 0054 4FF01003 		mov	r3, #16
 1518 0058 FB75     		strb	r3, [r7, #23]
 1519 005a 02E0     		b	.L73
 1520              	.L75:
1004:.\Generated_Source\PSoC5/ADC_Voltage_Target.c **** 	}
1005:.\Generated_Source\PSoC5/ADC_Voltage_Target.c **** 	else
1006:.\Generated_Source\PSoC5/ADC_Voltage_Target.c **** 	{
1007:.\Generated_Source\PSoC5/ADC_Voltage_Target.c **** 	    resolution = ADC_Voltage_Target_CFG4_RESOLUTION;
 1521              		.loc 1 1007 0
 1522 005c 4FF01003 		mov	r3, #16
 1523 0060 FB75     		strb	r3, [r7, #23]
 1524              	.L73:
1008:.\Generated_Source\PSoC5/ADC_Voltage_Target.c **** 	}
1009:.\Generated_Source\PSoC5/ADC_Voltage_Target.c ****     
1010:.\Generated_Source\PSoC5/ADC_Voltage_Target.c ****     if(resolution < 12)
 1525              		.loc 1 1010 0
 1526 0062 FB7D     		ldrb	r3, [r7, #23]	@ zero_extendqisi2
 1527 0064 0B2B     		cmp	r3, #11
 1528 0066 08D8     		bhi	.L76
1011:.\Generated_Source\PSoC5/ADC_Voltage_Target.c ****     {
1012:.\Generated_Source\PSoC5/ADC_Voltage_Target.c ****         A = 1000000;
 1529              		.loc 1 1012 0
 1530 0068 44F24023 		movw	r3, #:lower16:1000000
 1531 006c C0F20F03 		movt	r3, #:upper16:1000000
 1532 0070 FB60     		str	r3, [r7, #12]
1013:.\Generated_Source\PSoC5/ADC_Voltage_Target.c ****         B = 1;
 1533              		.loc 1 1013 0
 1534 0072 4FF00103 		mov	r3, #1
 1535 0076 3B61     		str	r3, [r7, #16]
 1536 0078 1BE0     		b	.L77
 1537              	.L76:
1014:.\Generated_Source\PSoC5/ADC_Voltage_Target.c ****     }
1015:.\Generated_Source\PSoC5/ADC_Voltage_Target.c ****     else if(resolution < 15)
 1538              		.loc 1 1015 0
 1539 007a FB7D     		ldrb	r3, [r7, #23]	@ zero_extendqisi2
 1540 007c 0E2B     		cmp	r3, #14
 1541 007e 08D8     		bhi	.L78
1016:.\Generated_Source\PSoC5/ADC_Voltage_Target.c ****     {
1017:.\Generated_Source\PSoC5/ADC_Voltage_Target.c ****         A = 100000;
 1542              		.loc 1 1017 0
 1543 0080 48F2A063 		movw	r3, #:lower16:100000
 1544 0084 C0F20103 		movt	r3, #:upper16:100000
ARM GAS  C:\DOCUME~1\ADMINI~1\LOCALS~1\Temp\ccfNfb5I.s 			page 46


 1545 0088 FB60     		str	r3, [r7, #12]
1018:.\Generated_Source\PSoC5/ADC_Voltage_Target.c ****         B = 10;
 1546              		.loc 1 1018 0
 1547 008a 4FF00A03 		mov	r3, #10
 1548 008e 3B61     		str	r3, [r7, #16]
 1549 0090 0FE0     		b	.L77
 1550              	.L78:
1019:.\Generated_Source\PSoC5/ADC_Voltage_Target.c ****     }
1020:.\Generated_Source\PSoC5/ADC_Voltage_Target.c ****     else if(resolution < 18)
 1551              		.loc 1 1020 0
 1552 0092 FB7D     		ldrb	r3, [r7, #23]	@ zero_extendqisi2
 1553 0094 112B     		cmp	r3, #17
 1554 0096 06D8     		bhi	.L79
1021:.\Generated_Source\PSoC5/ADC_Voltage_Target.c ****     {
1022:.\Generated_Source\PSoC5/ADC_Voltage_Target.c ****         A = 10000;
 1555              		.loc 1 1022 0
 1556 0098 42F21073 		movw	r3, #10000
 1557 009c FB60     		str	r3, [r7, #12]
1023:.\Generated_Source\PSoC5/ADC_Voltage_Target.c ****         B = 100;
 1558              		.loc 1 1023 0
 1559 009e 4FF06403 		mov	r3, #100
 1560 00a2 3B61     		str	r3, [r7, #16]
 1561 00a4 05E0     		b	.L77
 1562              	.L79:
1024:.\Generated_Source\PSoC5/ADC_Voltage_Target.c ****     }
1025:.\Generated_Source\PSoC5/ADC_Voltage_Target.c ****     else
1026:.\Generated_Source\PSoC5/ADC_Voltage_Target.c ****     {
1027:.\Generated_Source\PSoC5/ADC_Voltage_Target.c ****         A = 1000;
 1563              		.loc 1 1027 0
 1564 00a6 4FF47A73 		mov	r3, #1000
 1565 00aa FB60     		str	r3, [r7, #12]
1028:.\Generated_Source\PSoC5/ADC_Voltage_Target.c ****         B = 1000;
 1566              		.loc 1 1028 0
 1567 00ac 4FF47A73 		mov	r3, #1000
 1568 00b0 3B61     		str	r3, [r7, #16]
 1569              	.L77:
1029:.\Generated_Source\PSoC5/ADC_Voltage_Target.c ****     }
1030:.\Generated_Source\PSoC5/ADC_Voltage_Target.c **** 
1031:.\Generated_Source\PSoC5/ADC_Voltage_Target.c ****     /* Subtract ADC offset */
1032:.\Generated_Source\PSoC5/ADC_Voltage_Target.c ****     adcCounts -= ADC_Voltage_Target_Offset;
 1570              		.loc 1 1032 0
 1571 00b2 40F20003 		movw	r3, #:lower16:ADC_Voltage_Target_Offset
 1572 00b6 C0F20003 		movt	r3, #:upper16:ADC_Voltage_Target_Offset
 1573 00ba 1B68     		ldr	r3, [r3, #0]
 1574 00bc 7A68     		ldr	r2, [r7, #4]
 1575 00be C3EB0203 		rsb	r3, r3, r2
 1576 00c2 7B60     		str	r3, [r7, #4]
1033:.\Generated_Source\PSoC5/ADC_Voltage_Target.c **** 
1034:.\Generated_Source\PSoC5/ADC_Voltage_Target.c ****     uVolts = ((A * adcCounts) / ((int32)ADC_Voltage_Target_CountsPerVolt/B)) ;   
 1577              		.loc 1 1034 0
 1578 00c4 FB68     		ldr	r3, [r7, #12]
 1579 00c6 7A68     		ldr	r2, [r7, #4]
 1580 00c8 02FB03F2 		mul	r2, r2, r3
 1581 00cc 40F20003 		movw	r3, #:lower16:ADC_Voltage_Target_CountsPerVolt
 1582 00d0 C0F20003 		movt	r3, #:upper16:ADC_Voltage_Target_CountsPerVolt
 1583 00d4 1968     		ldr	r1, [r3, #0]
 1584 00d6 3B69     		ldr	r3, [r7, #16]
ARM GAS  C:\DOCUME~1\ADMINI~1\LOCALS~1\Temp\ccfNfb5I.s 			page 47


 1585 00d8 91FBF3F3 		sdiv	r3, r1, r3
 1586 00dc 92FBF3F3 		sdiv	r3, r2, r3
 1587 00e0 BB60     		str	r3, [r7, #8]
1035:.\Generated_Source\PSoC5/ADC_Voltage_Target.c ****   
1036:.\Generated_Source\PSoC5/ADC_Voltage_Target.c ****     return( uVolts );
 1588              		.loc 1 1036 0
 1589 00e2 BB68     		ldr	r3, [r7, #8]
1037:.\Generated_Source\PSoC5/ADC_Voltage_Target.c **** }
 1590              		.loc 1 1037 0
 1591 00e4 1846     		mov	r0, r3
 1592 00e6 07F11C07 		add	r7, r7, #28
 1593 00ea BD46     		mov	sp, r7
 1594 00ec 80BC     		pop	{r7}
 1595 00ee 7047     		bx	lr
 1596              		.cfi_endproc
 1597              	.LFE19:
 1598              		.size	ADC_Voltage_Target_CountsTo_uVolts, .-ADC_Voltage_Target_CountsTo_uVolts
 1599              		.section	.text.ADC_Voltage_Target_IRQ_Start,"ax",%progbits
 1600              		.align	2
 1601              		.global	ADC_Voltage_Target_IRQ_Start
 1602              		.thumb
 1603              		.thumb_func
 1604              		.type	ADC_Voltage_Target_IRQ_Start, %function
 1605              	ADC_Voltage_Target_IRQ_Start:
 1606              	.LFB20:
1038:.\Generated_Source\PSoC5/ADC_Voltage_Target.c **** 
1039:.\Generated_Source\PSoC5/ADC_Voltage_Target.c **** 
1040:.\Generated_Source\PSoC5/ADC_Voltage_Target.c **** /*******************************************************************************
1041:.\Generated_Source\PSoC5/ADC_Voltage_Target.c **** * Function Name: ADC_Voltage_Target_IRQ_Start(void)
1042:.\Generated_Source\PSoC5/ADC_Voltage_Target.c **** ********************************************************************************
1043:.\Generated_Source\PSoC5/ADC_Voltage_Target.c **** *
1044:.\Generated_Source\PSoC5/ADC_Voltage_Target.c **** * Summary:
1045:.\Generated_Source\PSoC5/ADC_Voltage_Target.c **** *  Set up the interrupt and enable it. The IRQ_Start() API is included to 
1046:.\Generated_Source\PSoC5/ADC_Voltage_Target.c **** *  support legacy code. The routine has been replaced by the library source 
1047:.\Generated_Source\PSoC5/ADC_Voltage_Target.c **** *  code for interrupts. IRQ_Start() should not be used in new designs.
1048:.\Generated_Source\PSoC5/ADC_Voltage_Target.c **** * 
1049:.\Generated_Source\PSoC5/ADC_Voltage_Target.c **** * Parameters:  
1050:.\Generated_Source\PSoC5/ADC_Voltage_Target.c **** *   void.
1051:.\Generated_Source\PSoC5/ADC_Voltage_Target.c **** *
1052:.\Generated_Source\PSoC5/ADC_Voltage_Target.c **** * Return:
1053:.\Generated_Source\PSoC5/ADC_Voltage_Target.c **** *   void.
1054:.\Generated_Source\PSoC5/ADC_Voltage_Target.c **** *
1055:.\Generated_Source\PSoC5/ADC_Voltage_Target.c **** *******************************************************************************/
1056:.\Generated_Source\PSoC5/ADC_Voltage_Target.c **** void ADC_Voltage_Target_IRQ_Start(void) 
1057:.\Generated_Source\PSoC5/ADC_Voltage_Target.c **** {
 1607              		.loc 1 1057 0
 1608              		.cfi_startproc
 1609              		@ args = 0, pretend = 0, frame = 0
 1610              		@ frame_needed = 1, uses_anonymous_args = 0
 1611 0000 80B5     		push	{r7, lr}
 1612              	.LCFI53:
 1613              		.cfi_def_cfa_offset 8
 1614 0002 00AF     		add	r7, sp, #0
 1615              		.cfi_offset 14, -4
 1616              		.cfi_offset 7, -8
 1617              	.LCFI54:
 1618              		.cfi_def_cfa_register 7
ARM GAS  C:\DOCUME~1\ADMINI~1\LOCALS~1\Temp\ccfNfb5I.s 			page 48


1058:.\Generated_Source\PSoC5/ADC_Voltage_Target.c ****     /* For all we know the interrupt is active. */
1059:.\Generated_Source\PSoC5/ADC_Voltage_Target.c ****     CyIntDisable(ADC_Voltage_Target_IRQ__INTC_NUMBER );
 1619              		.loc 1 1059 0
 1620 0004 4EF28013 		movw	r3, #:lower16:-536813184
 1621 0008 CEF20003 		movt	r3, #:upper16:-536813184
 1622 000c 4FF00052 		mov	r2, #536870912
 1623 0010 1A60     		str	r2, [r3, #0]
1060:.\Generated_Source\PSoC5/ADC_Voltage_Target.c **** 
1061:.\Generated_Source\PSoC5/ADC_Voltage_Target.c ****     /* Set the ISR to point to the ADC_DelSig_1_IRQ Interrupt. */
1062:.\Generated_Source\PSoC5/ADC_Voltage_Target.c ****     CyIntSetVector(ADC_Voltage_Target_IRQ__INTC_NUMBER, ADC_Voltage_Target_ISR1);
 1624              		.loc 1 1062 0
 1625 0012 4FF01D00 		mov	r0, #29
 1626 0016 40F20001 		movw	r1, #:lower16:ADC_Voltage_Target_ISR1
 1627 001a C0F20001 		movt	r1, #:upper16:ADC_Voltage_Target_ISR1
 1628 001e FFF7FEFF 		bl	CyIntSetVector
1063:.\Generated_Source\PSoC5/ADC_Voltage_Target.c **** 
1064:.\Generated_Source\PSoC5/ADC_Voltage_Target.c ****     /* Set the priority. */
1065:.\Generated_Source\PSoC5/ADC_Voltage_Target.c ****     CyIntSetPriority(ADC_Voltage_Target_IRQ__INTC_NUMBER, ADC_Voltage_Target_IRQ_INTC_PRIOR_NUMBER)
 1629              		.loc 1 1065 0
 1630 0022 4FF01D00 		mov	r0, #29
 1631 0026 4FF00601 		mov	r1, #6
 1632 002a FFF7FEFF 		bl	CyIntSetPriority
1066:.\Generated_Source\PSoC5/ADC_Voltage_Target.c **** 
1067:.\Generated_Source\PSoC5/ADC_Voltage_Target.c ****     /* Enable interrupt. */
1068:.\Generated_Source\PSoC5/ADC_Voltage_Target.c ****     CyIntEnable(ADC_Voltage_Target_IRQ__INTC_NUMBER);
 1633              		.loc 1 1068 0
 1634 002e 4EF20013 		movw	r3, #:lower16:-536813312
 1635 0032 CEF20003 		movt	r3, #:upper16:-536813312
 1636 0036 4FF00052 		mov	r2, #536870912
 1637 003a 1A60     		str	r2, [r3, #0]
1069:.\Generated_Source\PSoC5/ADC_Voltage_Target.c **** }
 1638              		.loc 1 1069 0
 1639 003c 80BD     		pop	{r7, pc}
 1640              		.cfi_endproc
 1641              	.LFE20:
 1642              		.size	ADC_Voltage_Target_IRQ_Start, .-ADC_Voltage_Target_IRQ_Start
 1643 003e 00BF     		.section	.text.ADC_Voltage_Target_InitConfig,"ax",%progbits
 1644              		.align	2
 1645              		.global	ADC_Voltage_Target_InitConfig
 1646              		.thumb
 1647              		.thumb_func
 1648              		.type	ADC_Voltage_Target_InitConfig, %function
 1649              	ADC_Voltage_Target_InitConfig:
 1650              	.LFB21:
1070:.\Generated_Source\PSoC5/ADC_Voltage_Target.c **** 
1071:.\Generated_Source\PSoC5/ADC_Voltage_Target.c **** 
1072:.\Generated_Source\PSoC5/ADC_Voltage_Target.c **** /*******************************************************************************
1073:.\Generated_Source\PSoC5/ADC_Voltage_Target.c **** * Function Name: ADC_Voltage_Target_InitConfig(uint8 config)
1074:.\Generated_Source\PSoC5/ADC_Voltage_Target.c **** ********************************************************************************
1075:.\Generated_Source\PSoC5/ADC_Voltage_Target.c **** *
1076:.\Generated_Source\PSoC5/ADC_Voltage_Target.c **** * Summary:
1077:.\Generated_Source\PSoC5/ADC_Voltage_Target.c **** *  Initializes all registers based on customizer settings
1078:.\Generated_Source\PSoC5/ADC_Voltage_Target.c **** *
1079:.\Generated_Source\PSoC5/ADC_Voltage_Target.c **** * Parameters:  
1080:.\Generated_Source\PSoC5/ADC_Voltage_Target.c **** *   void
1081:.\Generated_Source\PSoC5/ADC_Voltage_Target.c **** *
1082:.\Generated_Source\PSoC5/ADC_Voltage_Target.c **** * Return: 
ARM GAS  C:\DOCUME~1\ADMINI~1\LOCALS~1\Temp\ccfNfb5I.s 			page 49


1083:.\Generated_Source\PSoC5/ADC_Voltage_Target.c **** *  void
1084:.\Generated_Source\PSoC5/ADC_Voltage_Target.c **** *
1085:.\Generated_Source\PSoC5/ADC_Voltage_Target.c **** * Global variables:
1086:.\Generated_Source\PSoC5/ADC_Voltage_Target.c **** *  ADC_Voltage_Target_initVar:  used to set the common registers in the beginning.
1087:.\Generated_Source\PSoC5/ADC_Voltage_Target.c **** *  ADC_Voltage_Target_CountsPerVolt:  Used to set the default counts per volt.
1088:.\Generated_Source\PSoC5/ADC_Voltage_Target.c **** *
1089:.\Generated_Source\PSoC5/ADC_Voltage_Target.c **** *******************************************************************************/
1090:.\Generated_Source\PSoC5/ADC_Voltage_Target.c **** void ADC_Voltage_Target_InitConfig(uint8 config) 
1091:.\Generated_Source\PSoC5/ADC_Voltage_Target.c **** {
 1651              		.loc 1 1091 0
 1652              		.cfi_startproc
 1653              		@ args = 0, pretend = 0, frame = 8
 1654              		@ frame_needed = 1, uses_anonymous_args = 0
 1655 0000 80B5     		push	{r7, lr}
 1656              	.LCFI55:
 1657              		.cfi_def_cfa_offset 8
 1658 0002 82B0     		sub	sp, sp, #8
 1659              	.LCFI56:
 1660              		.cfi_def_cfa_offset 16
 1661 0004 00AF     		add	r7, sp, #0
 1662              		.cfi_offset 14, -4
 1663              		.cfi_offset 7, -8
 1664              	.LCFI57:
 1665              		.cfi_def_cfa_register 7
 1666 0006 0346     		mov	r3, r0
 1667 0008 FB71     		strb	r3, [r7, #7]
1092:.\Generated_Source\PSoC5/ADC_Voltage_Target.c ****     ADC_Voltage_Target_stopConversion = 0u;
 1668              		.loc 1 1092 0
 1669 000a 40F20003 		movw	r3, #:lower16:ADC_Voltage_Target_stopConversion
 1670 000e C0F20003 		movt	r3, #:upper16:ADC_Voltage_Target_stopConversion
 1671 0012 4FF00002 		mov	r2, #0
 1672 0016 1A70     		strb	r2, [r3, #0]
1093:.\Generated_Source\PSoC5/ADC_Voltage_Target.c ****     
1094:.\Generated_Source\PSoC5/ADC_Voltage_Target.c ****     if(ADC_Voltage_Target_initVar == 0u)
 1673              		.loc 1 1094 0
 1674 0018 40F20003 		movw	r3, #:lower16:ADC_Voltage_Target_initVar
 1675 001c C0F20003 		movt	r3, #:upper16:ADC_Voltage_Target_initVar
 1676 0020 1B78     		ldrb	r3, [r3, #0]	@ zero_extendqisi2
 1677 0022 002B     		cmp	r3, #0
 1678 0024 68D1     		bne	.L84
1095:.\Generated_Source\PSoC5/ADC_Voltage_Target.c ****         {
1096:.\Generated_Source\PSoC5/ADC_Voltage_Target.c ****             ADC_Voltage_Target_DSM_DEM0_REG    = ADC_Voltage_Target_CFG1_DSM_DEM0;    
 1679              		.loc 1 1096 0
 1680 0026 45F69603 		movw	r3, #:lower16:1073764502
 1681 002a C4F20003 		movt	r3, #:upper16:1073764502
 1682 002e 4FF00702 		mov	r2, #7
 1683 0032 1A70     		strb	r2, [r3, #0]
1097:.\Generated_Source\PSoC5/ADC_Voltage_Target.c ****             ADC_Voltage_Target_DSM_DEM1_REG    = ADC_Voltage_Target_CFG1_DSM_DEM1;    
 1684              		.loc 1 1097 0
 1685 0034 45F69703 		movw	r3, #:lower16:1073764503
 1686 0038 C4F20003 		movt	r3, #:upper16:1073764503
 1687 003c 4FF00002 		mov	r2, #0
 1688 0040 1A70     		strb	r2, [r3, #0]
1098:.\Generated_Source\PSoC5/ADC_Voltage_Target.c ****             ADC_Voltage_Target_DSM_MISC_REG    = ADC_Voltage_Target_CFG1_DSM_MISC;    
 1689              		.loc 1 1098 0
 1690 0042 45F69E03 		movw	r3, #:lower16:1073764510
 1691 0046 C4F20003 		movt	r3, #:upper16:1073764510
ARM GAS  C:\DOCUME~1\ADMINI~1\LOCALS~1\Temp\ccfNfb5I.s 			page 50


 1692 004a 4FF00002 		mov	r2, #0
 1693 004e 1A70     		strb	r2, [r3, #0]
1099:.\Generated_Source\PSoC5/ADC_Voltage_Target.c ****             ADC_Voltage_Target_DSM_CLK_REG    |= ADC_Voltage_Target_CFG1_DSM_CLK; 
 1694              		.loc 1 1099 0
 1695 0050 45F60733 		movw	r3, #:lower16:1073765127
 1696 0054 C4F20003 		movt	r3, #:upper16:1073765127
 1697 0058 45F60732 		movw	r2, #:lower16:1073765127
 1698 005c C4F20002 		movt	r2, #:upper16:1073765127
 1699 0060 1278     		ldrb	r2, [r2, #0]
 1700 0062 D2B2     		uxtb	r2, r2
 1701 0064 42F01802 		orr	r2, r2, #24
 1702 0068 D2B2     		uxtb	r2, r2
 1703 006a 1A70     		strb	r2, [r3, #0]
1100:.\Generated_Source\PSoC5/ADC_Voltage_Target.c ****             ADC_Voltage_Target_DSM_REF1_REG    = ADC_Voltage_Target_CFG1_DSM_REF1;    
 1704              		.loc 1 1100 0
 1705 006c 45F69303 		movw	r3, #:lower16:1073764499
 1706 0070 C4F20003 		movt	r3, #:upper16:1073764499
 1707 0074 4FF00002 		mov	r2, #0
 1708 0078 1A70     		strb	r2, [r3, #0]
1101:.\Generated_Source\PSoC5/ADC_Voltage_Target.c ****         
1102:.\Generated_Source\PSoC5/ADC_Voltage_Target.c ****             ADC_Voltage_Target_DSM_OUT0_REG    = ADC_Voltage_Target_CFG1_DSM_OUT0;    
 1709              		.loc 1 1102 0
 1710 007a 45F68833 		movw	r3, #:lower16:1073765256
 1711 007e C4F20003 		movt	r3, #:upper16:1073765256
 1712 0082 4FF00002 		mov	r2, #0
 1713 0086 1A70     		strb	r2, [r3, #0]
1103:.\Generated_Source\PSoC5/ADC_Voltage_Target.c ****             ADC_Voltage_Target_DSM_OUT1_REG    = ADC_Voltage_Target_CFG1_DSM_OUT1;   
 1714              		.loc 1 1103 0
 1715 0088 45F68933 		movw	r3, #:lower16:1073765257
 1716 008c C4F20003 		movt	r3, #:upper16:1073765257
 1717 0090 4FF00002 		mov	r2, #0
 1718 0094 1A70     		strb	r2, [r3, #0]
1104:.\Generated_Source\PSoC5/ADC_Voltage_Target.c ****         
1105:.\Generated_Source\PSoC5/ADC_Voltage_Target.c ****             ADC_Voltage_Target_DSM_CR0_REG     = ADC_Voltage_Target_CFG1_DSM_CR0;     
 1719              		.loc 1 1105 0
 1720 0096 45F68003 		movw	r3, #:lower16:1073764480
 1721 009a C4F20003 		movt	r3, #:upper16:1073764480
 1722 009e 4FF00A02 		mov	r2, #10
 1723 00a2 1A70     		strb	r2, [r3, #0]
1106:.\Generated_Source\PSoC5/ADC_Voltage_Target.c ****             ADC_Voltage_Target_DSM_CR1_REG     = ADC_Voltage_Target_CFG1_DSM_CR1;     
 1724              		.loc 1 1106 0
 1725 00a4 45F68103 		movw	r3, #:lower16:1073764481
 1726 00a8 C4F20003 		movt	r3, #:upper16:1073764481
 1727 00ac 4FF00002 		mov	r2, #0
 1728 00b0 1A70     		strb	r2, [r3, #0]
1107:.\Generated_Source\PSoC5/ADC_Voltage_Target.c ****             ADC_Voltage_Target_DSM_CR2_REG     = ADC_Voltage_Target_CFG1_DSM_CR2;     
 1729              		.loc 1 1107 0
 1730 00b2 45F68203 		movw	r3, #:lower16:1073764482
 1731 00b6 C4F20003 		movt	r3, #:upper16:1073764482
 1732 00ba 4FF07A02 		mov	r2, #122
 1733 00be 1A70     		strb	r2, [r3, #0]
1108:.\Generated_Source\PSoC5/ADC_Voltage_Target.c ****             ADC_Voltage_Target_DSM_CR3_REG     = ADC_Voltage_Target_CFG1_DSM_CR3;     
 1734              		.loc 1 1108 0
 1735 00c0 45F68303 		movw	r3, #:lower16:1073764483
 1736 00c4 C4F20003 		movt	r3, #:upper16:1073764483
 1737 00c8 4FF00002 		mov	r2, #0
 1738 00cc 1A70     		strb	r2, [r3, #0]
ARM GAS  C:\DOCUME~1\ADMINI~1\LOCALS~1\Temp\ccfNfb5I.s 			page 51


1109:.\Generated_Source\PSoC5/ADC_Voltage_Target.c ****             ADC_Voltage_Target_DSM_CR13_REG    = ADC_Voltage_Target_CFG1_DSM_CR13;     
 1739              		.loc 1 1109 0
 1740 00ce 45F68D03 		movw	r3, #:lower16:1073764493
 1741 00d2 C4F20003 		movt	r3, #:upper16:1073764493
 1742 00d6 4FF00002 		mov	r2, #0
 1743 00da 1A70     		strb	r2, [r3, #0]
1110:.\Generated_Source\PSoC5/ADC_Voltage_Target.c ****             
1111:.\Generated_Source\PSoC5/ADC_Voltage_Target.c ****             ADC_Voltage_Target_DEC_SR_REG      = ADC_Voltage_Target_CFG1_DEC_SR;      
 1744              		.loc 1 1111 0
 1745 00dc 44F60163 		movw	r3, #:lower16:1073761793
 1746 00e0 C4F20003 		movt	r3, #:upper16:1073761793
 1747 00e4 4FF01402 		mov	r2, #20
 1748 00e8 1A70     		strb	r2, [r3, #0]
1112:.\Generated_Source\PSoC5/ADC_Voltage_Target.c ****             ADC_Voltage_Target_DEC_COHER_REG   = ADC_Voltage_Target_CFG1_DEC_COHER;   
 1749              		.loc 1 1112 0
 1750 00ea 44F61463 		movw	r3, #:lower16:1073761812
 1751 00ee C4F20003 		movt	r3, #:upper16:1073761812
 1752 00f2 4FF00102 		mov	r2, #1
 1753 00f6 1A70     		strb	r2, [r3, #0]
 1754              	.L84:
1113:.\Generated_Source\PSoC5/ADC_Voltage_Target.c ****         }
1114:.\Generated_Source\PSoC5/ADC_Voltage_Target.c **** 
1115:.\Generated_Source\PSoC5/ADC_Voltage_Target.c ****     if (config == 1u)
 1755              		.loc 1 1115 0
 1756 00f8 FB79     		ldrb	r3, [r7, #7]	@ zero_extendqisi2
 1757 00fa 012B     		cmp	r3, #1
 1758 00fc 40F0E880 		bne	.L86
1116:.\Generated_Source\PSoC5/ADC_Voltage_Target.c ****     {
1117:.\Generated_Source\PSoC5/ADC_Voltage_Target.c ****         /* Default Config */   
1118:.\Generated_Source\PSoC5/ADC_Voltage_Target.c ****         ADC_Voltage_Target_DEC_CR_REG      = ADC_Voltage_Target_CFG1_DEC_CR;      
 1759              		.loc 1 1118 0
 1760 0100 44F60063 		movw	r3, #:lower16:1073761792
 1761 0104 C4F20003 		movt	r3, #:upper16:1073761792
 1762 0108 4FF03802 		mov	r2, #56
 1763 010c 1A70     		strb	r2, [r3, #0]
1119:.\Generated_Source\PSoC5/ADC_Voltage_Target.c ****         ADC_Voltage_Target_DEC_SHIFT1_REG  = ADC_Voltage_Target_CFG1_DEC_SHIFT1;  
 1764              		.loc 1 1119 0
 1765 010e 44F60263 		movw	r3, #:lower16:1073761794
 1766 0112 C4F20003 		movt	r3, #:upper16:1073761794
 1767 0116 4FF00602 		mov	r2, #6
 1768 011a 1A70     		strb	r2, [r3, #0]
1120:.\Generated_Source\PSoC5/ADC_Voltage_Target.c ****         ADC_Voltage_Target_DEC_SHIFT2_REG  = ADC_Voltage_Target_CFG1_DEC_SHIFT2;  
 1769              		.loc 1 1120 0
 1770 011c 44F60363 		movw	r3, #:lower16:1073761795
 1771 0120 C4F20003 		movt	r3, #:upper16:1073761795
 1772 0124 4FF00802 		mov	r2, #8
 1773 0128 1A70     		strb	r2, [r3, #0]
1121:.\Generated_Source\PSoC5/ADC_Voltage_Target.c ****         ADC_Voltage_Target_DEC_DR2_REG     = ADC_Voltage_Target_CFG1_DEC_DR2;     
 1774              		.loc 1 1121 0
 1775 012a 44F60463 		movw	r3, #:lower16:1073761796
 1776 012e C4F20003 		movt	r3, #:upper16:1073761796
 1777 0132 4FF00002 		mov	r2, #0
 1778 0136 1A70     		strb	r2, [r3, #0]
1122:.\Generated_Source\PSoC5/ADC_Voltage_Target.c ****         ADC_Voltage_Target_DEC_DR2H_REG    = ADC_Voltage_Target_CFG1_DEC_DR2H;    
 1779              		.loc 1 1122 0
 1780 0138 44F60563 		movw	r3, #:lower16:1073761797
 1781 013c C4F20003 		movt	r3, #:upper16:1073761797
ARM GAS  C:\DOCUME~1\ADMINI~1\LOCALS~1\Temp\ccfNfb5I.s 			page 52


 1782 0140 4FF00002 		mov	r2, #0
 1783 0144 1A70     		strb	r2, [r3, #0]
1123:.\Generated_Source\PSoC5/ADC_Voltage_Target.c ****         ADC_Voltage_Target_DEC_DR1_REG     = ADC_Voltage_Target_CFG1_DEC_DR1;     
 1784              		.loc 1 1123 0
 1785 0146 44F60663 		movw	r3, #:lower16:1073761798
 1786 014a C4F20003 		movt	r3, #:upper16:1073761798
 1787 014e 4FF01F02 		mov	r2, #31
 1788 0152 1A70     		strb	r2, [r3, #0]
1124:.\Generated_Source\PSoC5/ADC_Voltage_Target.c ****         ADC_Voltage_Target_DEC_OCOR_REG    = ADC_Voltage_Target_CFG1_DEC_OCOR;    
 1789              		.loc 1 1124 0
 1790 0154 44F60863 		movw	r3, #:lower16:1073761800
 1791 0158 C4F20003 		movt	r3, #:upper16:1073761800
 1792 015c 4FF00002 		mov	r2, #0
 1793 0160 1A70     		strb	r2, [r3, #0]
1125:.\Generated_Source\PSoC5/ADC_Voltage_Target.c ****         ADC_Voltage_Target_DEC_OCORM_REG   = ADC_Voltage_Target_CFG1_DEC_OCORM;   
 1794              		.loc 1 1125 0
 1795 0162 44F60963 		movw	r3, #:lower16:1073761801
 1796 0166 C4F20003 		movt	r3, #:upper16:1073761801
 1797 016a 4FF00002 		mov	r2, #0
 1798 016e 1A70     		strb	r2, [r3, #0]
1126:.\Generated_Source\PSoC5/ADC_Voltage_Target.c ****         ADC_Voltage_Target_DEC_OCORH_REG   = ADC_Voltage_Target_CFG1_DEC_OCORH;   
 1799              		.loc 1 1126 0
 1800 0170 44F60A63 		movw	r3, #:lower16:1073761802
 1801 0174 C4F20003 		movt	r3, #:upper16:1073761802
 1802 0178 4FF00002 		mov	r2, #0
 1803 017c 1A70     		strb	r2, [r3, #0]
1127:.\Generated_Source\PSoC5/ADC_Voltage_Target.c ****         
1128:.\Generated_Source\PSoC5/ADC_Voltage_Target.c ****         ADC_Voltage_Target_DSM_CR4_REG     = ADC_Voltage_Target_CFG1_DSM_CR4;     
 1804              		.loc 1 1128 0
 1805 017e 45F68403 		movw	r3, #:lower16:1073764484
 1806 0182 C4F20003 		movt	r3, #:upper16:1073764484
 1807 0186 4FF01402 		mov	r2, #20
 1808 018a 1A70     		strb	r2, [r3, #0]
1129:.\Generated_Source\PSoC5/ADC_Voltage_Target.c ****         ADC_Voltage_Target_DSM_CR5_REG     = ADC_Voltage_Target_CFG1_DSM_CR5;     
 1809              		.loc 1 1129 0
 1810 018c 45F68503 		movw	r3, #:lower16:1073764485
 1811 0190 C4F20003 		movt	r3, #:upper16:1073764485
 1812 0194 4FF00B02 		mov	r2, #11
 1813 0198 1A70     		strb	r2, [r3, #0]
1130:.\Generated_Source\PSoC5/ADC_Voltage_Target.c ****         ADC_Voltage_Target_DSM_CR6_REG     = ADC_Voltage_Target_CFG1_DSM_CR6;     
 1814              		.loc 1 1130 0
 1815 019a 45F68603 		movw	r3, #:lower16:1073764486
 1816 019e C4F20003 		movt	r3, #:upper16:1073764486
 1817 01a2 4FF03102 		mov	r2, #49
 1818 01a6 1A70     		strb	r2, [r3, #0]
1131:.\Generated_Source\PSoC5/ADC_Voltage_Target.c ****         ADC_Voltage_Target_DSM_CR7_REG     = ADC_Voltage_Target_CFG1_DSM_CR7;     
 1819              		.loc 1 1131 0
 1820 01a8 45F68703 		movw	r3, #:lower16:1073764487
 1821 01ac C4F20003 		movt	r3, #:upper16:1073764487
 1822 01b0 4FF00002 		mov	r2, #0
 1823 01b4 1A70     		strb	r2, [r3, #0]
1132:.\Generated_Source\PSoC5/ADC_Voltage_Target.c ****         ADC_Voltage_Target_DSM_CR8_REG     = ADC_Voltage_Target_CFG1_DSM_CR8;     
 1824              		.loc 1 1132 0
 1825 01b6 45F68803 		movw	r3, #:lower16:1073764488
 1826 01ba C4F20003 		movt	r3, #:upper16:1073764488
 1827 01be 4FF01202 		mov	r2, #18
 1828 01c2 1A70     		strb	r2, [r3, #0]
ARM GAS  C:\DOCUME~1\ADMINI~1\LOCALS~1\Temp\ccfNfb5I.s 			page 53


1133:.\Generated_Source\PSoC5/ADC_Voltage_Target.c ****         ADC_Voltage_Target_DSM_CR9_REG     = ADC_Voltage_Target_CFG1_DSM_CR9;     
 1829              		.loc 1 1133 0
 1830 01c4 45F68903 		movw	r3, #:lower16:1073764489
 1831 01c8 C4F20003 		movt	r3, #:upper16:1073764489
 1832 01cc 4FF01302 		mov	r2, #19
 1833 01d0 1A70     		strb	r2, [r3, #0]
1134:.\Generated_Source\PSoC5/ADC_Voltage_Target.c ****         ADC_Voltage_Target_DSM_CR10_REG    = ADC_Voltage_Target_CFG1_DSM_CR10;    
 1834              		.loc 1 1134 0
 1835 01d2 45F68A03 		movw	r3, #:lower16:1073764490
 1836 01d6 C4F20003 		movt	r3, #:upper16:1073764490
 1837 01da 4FF04402 		mov	r2, #68
 1838 01de 1A70     		strb	r2, [r3, #0]
1135:.\Generated_Source\PSoC5/ADC_Voltage_Target.c ****         ADC_Voltage_Target_DSM_CR11_REG    = ADC_Voltage_Target_CFG1_DSM_CR11;    
 1839              		.loc 1 1135 0
 1840 01e0 45F68B03 		movw	r3, #:lower16:1073764491
 1841 01e4 C4F20003 		movt	r3, #:upper16:1073764491
 1842 01e8 4FF04802 		mov	r2, #72
 1843 01ec 1A70     		strb	r2, [r3, #0]
1136:.\Generated_Source\PSoC5/ADC_Voltage_Target.c ****         ADC_Voltage_Target_DSM_CR12_REG    = ADC_Voltage_Target_CFG1_DSM_CR12;    
 1844              		.loc 1 1136 0
 1845 01ee 45F68C03 		movw	r3, #:lower16:1073764492
 1846 01f2 C4F20003 		movt	r3, #:upper16:1073764492
 1847 01f6 4FF00102 		mov	r2, #1
 1848 01fa 1A70     		strb	r2, [r3, #0]
1137:.\Generated_Source\PSoC5/ADC_Voltage_Target.c ****         ADC_Voltage_Target_DSM_CR14_REG    = ADC_Voltage_Target_CFG1_DSM_CR14;    
 1849              		.loc 1 1137 0
 1850 01fc 45F68E03 		movw	r3, #:lower16:1073764494
 1851 0200 C4F20003 		movt	r3, #:upper16:1073764494
 1852 0204 4FF00002 		mov	r2, #0
 1853 0208 1A70     		strb	r2, [r3, #0]
1138:.\Generated_Source\PSoC5/ADC_Voltage_Target.c ****         ADC_Voltage_Target_DSM_CR15_REG    = ADC_Voltage_Target_CFG1_DSM_CR15;    
 1854              		.loc 1 1138 0
 1855 020a 45F68F03 		movw	r3, #:lower16:1073764495
 1856 020e C4F20003 		movt	r3, #:upper16:1073764495
 1857 0212 4FF00002 		mov	r2, #0
 1858 0216 1A70     		strb	r2, [r3, #0]
1139:.\Generated_Source\PSoC5/ADC_Voltage_Target.c ****         ADC_Voltage_Target_DSM_CR16_REG    = ADC_Voltage_Target_CFG1_DSM_CR16;    
 1859              		.loc 1 1139 0
 1860 0218 45F69003 		movw	r3, #:lower16:1073764496
 1861 021c C4F20003 		movt	r3, #:upper16:1073764496
 1862 0220 4FF00A02 		mov	r2, #10
 1863 0224 1A70     		strb	r2, [r3, #0]
1140:.\Generated_Source\PSoC5/ADC_Voltage_Target.c ****         ADC_Voltage_Target_DSM_CR17_REG    = ADC_Voltage_Target_CFG1_DSM_CR17;
 1864              		.loc 1 1140 0
 1865 0226 45F69103 		movw	r3, #:lower16:1073764497
 1866 022a C4F20003 		movt	r3, #:upper16:1073764497
 1867 022e 4FF04302 		mov	r2, #67
 1868 0232 1A70     		strb	r2, [r3, #0]
1141:.\Generated_Source\PSoC5/ADC_Voltage_Target.c **** 		/* Set DSM_REF0_REG by disabling and enabling the PRESS cirucit */
1142:.\Generated_Source\PSoC5/ADC_Voltage_Target.c **** 		ADC_Voltage_Target_SetDSMRef0Reg(ADC_Voltage_Target_CFG1_DSM_REF0);
 1869              		.loc 1 1142 0
 1870 0234 4FF05200 		mov	r0, #82
 1871 0238 FFF7FEFF 		bl	ADC_Voltage_Target_SetDSMRef0Reg
1143:.\Generated_Source\PSoC5/ADC_Voltage_Target.c ****         ADC_Voltage_Target_DSM_REF2_REG    = ADC_Voltage_Target_CFG1_DSM_REF2;    
 1872              		.loc 1 1143 0
 1873 023c 45F69403 		movw	r3, #:lower16:1073764500
 1874 0240 C4F20003 		movt	r3, #:upper16:1073764500
ARM GAS  C:\DOCUME~1\ADMINI~1\LOCALS~1\Temp\ccfNfb5I.s 			page 54


 1875 0244 4FF05802 		mov	r2, #88
 1876 0248 1A70     		strb	r2, [r3, #0]
1144:.\Generated_Source\PSoC5/ADC_Voltage_Target.c ****         ADC_Voltage_Target_DSM_REF3_REG    = ADC_Voltage_Target_CFG1_DSM_REF3;    
 1877              		.loc 1 1144 0
 1878 024a 45F69503 		movw	r3, #:lower16:1073764501
 1879 024e C4F20003 		movt	r3, #:upper16:1073764501
 1880 0252 4FF00002 		mov	r2, #0
 1881 0256 1A70     		strb	r2, [r3, #0]
1145:.\Generated_Source\PSoC5/ADC_Voltage_Target.c ****         
1146:.\Generated_Source\PSoC5/ADC_Voltage_Target.c ****         ADC_Voltage_Target_DSM_BUF0_REG    = ADC_Voltage_Target_CFG1_DSM_BUF0;    
 1882              		.loc 1 1146 0
 1883 0258 45F69A03 		movw	r3, #:lower16:1073764506
 1884 025c C4F20003 		movt	r3, #:upper16:1073764506
 1885 0260 4FF00502 		mov	r2, #5
 1886 0264 1A70     		strb	r2, [r3, #0]
1147:.\Generated_Source\PSoC5/ADC_Voltage_Target.c ****         ADC_Voltage_Target_DSM_BUF1_REG    = ADC_Voltage_Target_CFG1_DSM_BUF1;    
 1887              		.loc 1 1147 0
 1888 0266 45F69B03 		movw	r3, #:lower16:1073764507
 1889 026a C4F20003 		movt	r3, #:upper16:1073764507
 1890 026e 4FF00202 		mov	r2, #2
 1891 0272 1A70     		strb	r2, [r3, #0]
1148:.\Generated_Source\PSoC5/ADC_Voltage_Target.c ****         ADC_Voltage_Target_DSM_BUF2_REG    = ADC_Voltage_Target_CFG1_DSM_BUF2;   
 1892              		.loc 1 1148 0
 1893 0274 45F69C03 		movw	r3, #:lower16:1073764508
 1894 0278 C4F20003 		movt	r3, #:upper16:1073764508
 1895 027c 4FF00102 		mov	r2, #1
 1896 0280 1A70     		strb	r2, [r3, #0]
1149:.\Generated_Source\PSoC5/ADC_Voltage_Target.c ****         ADC_Voltage_Target_DSM_BUF3_REG    = ADC_Voltage_Target_CFG1_DSM_BUF3;
 1897              		.loc 1 1149 0
 1898 0282 45F69D03 		movw	r3, #:lower16:1073764509
 1899 0286 C4F20003 		movt	r3, #:upper16:1073764509
 1900 028a 4FF00002 		mov	r2, #0
 1901 028e 1A70     		strb	r2, [r3, #0]
1150:.\Generated_Source\PSoC5/ADC_Voltage_Target.c ****         #if (CY_PSOC5A)
1151:.\Generated_Source\PSoC5/ADC_Voltage_Target.c ****             ADC_Voltage_Target_DSM_CLK_REG    |= ADC_Voltage_Target_CFG1_DSM_CLK; 
1152:.\Generated_Source\PSoC5/ADC_Voltage_Target.c ****         #endif /* CY_PSOC5A */
1153:.\Generated_Source\PSoC5/ADC_Voltage_Target.c ****         
1154:.\Generated_Source\PSoC5/ADC_Voltage_Target.c ****         /* To select either Vssa or Vref to -ve input of DSM depending on 
1155:.\Generated_Source\PSoC5/ADC_Voltage_Target.c ****           the input  range selected.
1156:.\Generated_Source\PSoC5/ADC_Voltage_Target.c ****         */
1157:.\Generated_Source\PSoC5/ADC_Voltage_Target.c ****         
1158:.\Generated_Source\PSoC5/ADC_Voltage_Target.c ****         #if(ADC_Voltage_Target_DEFAULT_INPUT_MODE)
1159:.\Generated_Source\PSoC5/ADC_Voltage_Target.c ****             #if (CY_PSOC3 || CY_PSOC5LP)
1160:.\Generated_Source\PSoC5/ADC_Voltage_Target.c ****                 #if (ADC_Voltage_Target_CFG1_RANGE == ADC_Voltage_Target_IR_VSSA_TO_2VREF)
1161:.\Generated_Source\PSoC5/ADC_Voltage_Target.c ****                     ADC_Voltage_Target_AMux_Select(1);
1162:.\Generated_Source\PSoC5/ADC_Voltage_Target.c ****                 #else
1163:.\Generated_Source\PSoC5/ADC_Voltage_Target.c ****                     ADC_Voltage_Target_AMux_Select(0);
 1902              		.loc 1 1163 0
 1903 0290 4FF00000 		mov	r0, #0
 1904 0294 FFF7FEFF 		bl	ADC_Voltage_Target_AMux_Select
1164:.\Generated_Source\PSoC5/ADC_Voltage_Target.c ****                 #endif /* ADC_Voltage_Target_IR_VSSA_TO_2VREF) */
1165:.\Generated_Source\PSoC5/ADC_Voltage_Target.c ****             #elif (CY_PSOC5A)
1166:.\Generated_Source\PSoC5/ADC_Voltage_Target.c ****                 ADC_Voltage_Target_AMux_Select(0);
1167:.\Generated_Source\PSoC5/ADC_Voltage_Target.c ****             #endif /* CY_PSOC3 || CY_PSOC5LP */
1168:.\Generated_Source\PSoC5/ADC_Voltage_Target.c ****         #endif /* ADC_Voltage_Target_DEFAULT_INPUT_MODE */
1169:.\Generated_Source\PSoC5/ADC_Voltage_Target.c ****         
1170:.\Generated_Source\PSoC5/ADC_Voltage_Target.c ****         /* Set the Conversion stop if resolution is above 16 bit and conversion 
ARM GAS  C:\DOCUME~1\ADMINI~1\LOCALS~1\Temp\ccfNfb5I.s 			page 55


1171:.\Generated_Source\PSoC5/ADC_Voltage_Target.c ****            mode is Single sample */
1172:.\Generated_Source\PSoC5/ADC_Voltage_Target.c ****         #if(ADC_Voltage_Target_CFG1_RESOLUTION > 16 && \
1173:.\Generated_Source\PSoC5/ADC_Voltage_Target.c ****             ADC_Voltage_Target_CFG1_CONV_MODE == ADC_Voltage_Target_MODE_SINGLE_SAMPLE) 
1174:.\Generated_Source\PSoC5/ADC_Voltage_Target.c ****             ADC_Voltage_Target_stopConversion = 1;
1175:.\Generated_Source\PSoC5/ADC_Voltage_Target.c ****         #endif /* Single sample with resolution above 16 bits. */
1176:.\Generated_Source\PSoC5/ADC_Voltage_Target.c ****         ADC_Voltage_Target_CountsPerVolt = (uint32)ADC_Voltage_Target_CFG1_COUNTS_PER_VOLT;
 1905              		.loc 1 1176 0
 1906 0298 40F20003 		movw	r3, #:lower16:ADC_Voltage_Target_CountsPerVolt
 1907 029c C0F20003 		movt	r3, #:upper16:ADC_Voltage_Target_CountsPerVolt
 1908 02a0 40F23332 		movw	r2, #819
 1909 02a4 1A60     		str	r2, [r3, #0]
1177:.\Generated_Source\PSoC5/ADC_Voltage_Target.c ****         
1178:.\Generated_Source\PSoC5/ADC_Voltage_Target.c ****         /* Start and set interrupt vector */
1179:.\Generated_Source\PSoC5/ADC_Voltage_Target.c ****         CyIntSetPriority(ADC_Voltage_Target_IRQ__INTC_NUMBER, ADC_Voltage_Target_IRQ_INTC_PRIOR_NUM
 1910              		.loc 1 1179 0
 1911 02a6 4FF01D00 		mov	r0, #29
 1912 02aa 4FF00601 		mov	r1, #6
 1913 02ae FFF7FEFF 		bl	CyIntSetPriority
1180:.\Generated_Source\PSoC5/ADC_Voltage_Target.c ****         CyIntSetVector(ADC_Voltage_Target_IRQ__INTC_NUMBER, ADC_Voltage_Target_ISR1 );
 1914              		.loc 1 1180 0
 1915 02b2 4FF01D00 		mov	r0, #29
 1916 02b6 40F20001 		movw	r1, #:lower16:ADC_Voltage_Target_ISR1
 1917 02ba C0F20001 		movt	r1, #:upper16:ADC_Voltage_Target_ISR1
 1918 02be FFF7FEFF 		bl	CyIntSetVector
1181:.\Generated_Source\PSoC5/ADC_Voltage_Target.c ****         CyIntEnable(ADC_Voltage_Target_IRQ__INTC_NUMBER);
 1919              		.loc 1 1181 0
 1920 02c2 4EF20013 		movw	r3, #:lower16:-536813312
 1921 02c6 CEF20003 		movt	r3, #:upper16:-536813312
 1922 02ca 4FF00052 		mov	r2, #536870912
 1923 02ce 1A60     		str	r2, [r3, #0]
 1924              	.L86:
1182:.\Generated_Source\PSoC5/ADC_Voltage_Target.c ****     }
1183:.\Generated_Source\PSoC5/ADC_Voltage_Target.c ****     
1184:.\Generated_Source\PSoC5/ADC_Voltage_Target.c ****     #if(ADC_Voltage_Target_DEFAULT_NUM_CONFIGS > 1)
1185:.\Generated_Source\PSoC5/ADC_Voltage_Target.c ****         if(config == 2u)
1186:.\Generated_Source\PSoC5/ADC_Voltage_Target.c ****         {
1187:.\Generated_Source\PSoC5/ADC_Voltage_Target.c ****             /* Second Config */
1188:.\Generated_Source\PSoC5/ADC_Voltage_Target.c ****             ADC_Voltage_Target_DEC_CR_REG      = ADC_Voltage_Target_CFG2_DEC_CR;      
1189:.\Generated_Source\PSoC5/ADC_Voltage_Target.c ****             ADC_Voltage_Target_DEC_SHIFT1_REG  = ADC_Voltage_Target_CFG2_DEC_SHIFT1;  
1190:.\Generated_Source\PSoC5/ADC_Voltage_Target.c ****             ADC_Voltage_Target_DEC_SHIFT2_REG  = ADC_Voltage_Target_CFG2_DEC_SHIFT2;  
1191:.\Generated_Source\PSoC5/ADC_Voltage_Target.c ****             ADC_Voltage_Target_DEC_DR2_REG     = ADC_Voltage_Target_CFG2_DEC_DR2;     
1192:.\Generated_Source\PSoC5/ADC_Voltage_Target.c ****             ADC_Voltage_Target_DEC_DR2H_REG    = ADC_Voltage_Target_CFG2_DEC_DR2H;    
1193:.\Generated_Source\PSoC5/ADC_Voltage_Target.c ****             ADC_Voltage_Target_DEC_DR1_REG     = ADC_Voltage_Target_CFG2_DEC_DR1;     
1194:.\Generated_Source\PSoC5/ADC_Voltage_Target.c ****             ADC_Voltage_Target_DEC_OCOR_REG    = ADC_Voltage_Target_CFG2_DEC_OCOR;    
1195:.\Generated_Source\PSoC5/ADC_Voltage_Target.c ****             ADC_Voltage_Target_DEC_OCORM_REG   = ADC_Voltage_Target_CFG2_DEC_OCORM;   
1196:.\Generated_Source\PSoC5/ADC_Voltage_Target.c ****             ADC_Voltage_Target_DEC_OCORH_REG   = ADC_Voltage_Target_CFG2_DEC_OCORH;   
1197:.\Generated_Source\PSoC5/ADC_Voltage_Target.c ****         
1198:.\Generated_Source\PSoC5/ADC_Voltage_Target.c ****             ADC_Voltage_Target_DSM_CR4_REG     = ADC_Voltage_Target_CFG2_DSM_CR4;     
1199:.\Generated_Source\PSoC5/ADC_Voltage_Target.c ****             ADC_Voltage_Target_DSM_CR5_REG     = ADC_Voltage_Target_CFG2_DSM_CR5;     
1200:.\Generated_Source\PSoC5/ADC_Voltage_Target.c ****             ADC_Voltage_Target_DSM_CR6_REG     = ADC_Voltage_Target_CFG2_DSM_CR6;     
1201:.\Generated_Source\PSoC5/ADC_Voltage_Target.c ****             ADC_Voltage_Target_DSM_CR7_REG     = ADC_Voltage_Target_CFG2_DSM_CR7;     
1202:.\Generated_Source\PSoC5/ADC_Voltage_Target.c ****             ADC_Voltage_Target_DSM_CR8_REG     = ADC_Voltage_Target_CFG2_DSM_CR8;     
1203:.\Generated_Source\PSoC5/ADC_Voltage_Target.c ****             ADC_Voltage_Target_DSM_CR9_REG     = ADC_Voltage_Target_CFG2_DSM_CR9;     
1204:.\Generated_Source\PSoC5/ADC_Voltage_Target.c ****             ADC_Voltage_Target_DSM_CR10_REG    = ADC_Voltage_Target_CFG2_DSM_CR10;    
1205:.\Generated_Source\PSoC5/ADC_Voltage_Target.c ****             ADC_Voltage_Target_DSM_CR11_REG    = ADC_Voltage_Target_CFG2_DSM_CR11;    
1206:.\Generated_Source\PSoC5/ADC_Voltage_Target.c ****             ADC_Voltage_Target_DSM_CR12_REG    = ADC_Voltage_Target_CFG2_DSM_CR12;    
1207:.\Generated_Source\PSoC5/ADC_Voltage_Target.c ****             ADC_Voltage_Target_DSM_CR14_REG    = ADC_Voltage_Target_CFG2_DSM_CR14;    
ARM GAS  C:\DOCUME~1\ADMINI~1\LOCALS~1\Temp\ccfNfb5I.s 			page 56


1208:.\Generated_Source\PSoC5/ADC_Voltage_Target.c ****             ADC_Voltage_Target_DSM_CR15_REG    = ADC_Voltage_Target_CFG2_DSM_CR15;    
1209:.\Generated_Source\PSoC5/ADC_Voltage_Target.c ****             ADC_Voltage_Target_DSM_CR16_REG    = ADC_Voltage_Target_CFG2_DSM_CR16;    
1210:.\Generated_Source\PSoC5/ADC_Voltage_Target.c ****             ADC_Voltage_Target_DSM_CR17_REG    = ADC_Voltage_Target_CFG2_DSM_CR17;    
1211:.\Generated_Source\PSoC5/ADC_Voltage_Target.c **** 			/* Set DSM_REF0_REG by disabling and enabling the PRESS cirucit */
1212:.\Generated_Source\PSoC5/ADC_Voltage_Target.c **** 			ADC_Voltage_Target_SetDSMRef0Reg(ADC_Voltage_Target_CFG2_DSM_REF0);
1213:.\Generated_Source\PSoC5/ADC_Voltage_Target.c ****             ADC_Voltage_Target_DSM_REF2_REG    = ADC_Voltage_Target_CFG2_DSM_REF2;    
1214:.\Generated_Source\PSoC5/ADC_Voltage_Target.c ****             ADC_Voltage_Target_DSM_REF3_REG    = ADC_Voltage_Target_CFG2_DSM_REF3;    
1215:.\Generated_Source\PSoC5/ADC_Voltage_Target.c ****         
1216:.\Generated_Source\PSoC5/ADC_Voltage_Target.c ****             ADC_Voltage_Target_DSM_BUF0_REG    = ADC_Voltage_Target_CFG2_DSM_BUF0;    
1217:.\Generated_Source\PSoC5/ADC_Voltage_Target.c ****             ADC_Voltage_Target_DSM_BUF1_REG    = ADC_Voltage_Target_CFG2_DSM_BUF1;    
1218:.\Generated_Source\PSoC5/ADC_Voltage_Target.c ****             ADC_Voltage_Target_DSM_BUF2_REG    = ADC_Voltage_Target_CFG2_DSM_BUF2;    
1219:.\Generated_Source\PSoC5/ADC_Voltage_Target.c ****             ADC_Voltage_Target_DSM_BUF3_REG    = ADC_Voltage_Target_CFG2_DSM_BUF3; 
1220:.\Generated_Source\PSoC5/ADC_Voltage_Target.c ****             #if (CY_PSOC5A)
1221:.\Generated_Source\PSoC5/ADC_Voltage_Target.c ****                 ADC_Voltage_Target_DSM_CLK_REG    |= ADC_Voltage_Target_CFG1_DSM_CLK; 
1222:.\Generated_Source\PSoC5/ADC_Voltage_Target.c ****             #endif /* CY_PSOC5A */
1223:.\Generated_Source\PSoC5/ADC_Voltage_Target.c ****             
1224:.\Generated_Source\PSoC5/ADC_Voltage_Target.c ****             /* To select either Vssa or Vref to -ve input of DSM depending on 
1225:.\Generated_Source\PSoC5/ADC_Voltage_Target.c ****                the input range selected.
1226:.\Generated_Source\PSoC5/ADC_Voltage_Target.c ****             */
1227:.\Generated_Source\PSoC5/ADC_Voltage_Target.c ****             
1228:.\Generated_Source\PSoC5/ADC_Voltage_Target.c ****             #if(ADC_Voltage_Target_DEFAULT_INPUT_MODE)
1229:.\Generated_Source\PSoC5/ADC_Voltage_Target.c ****                 #if (CY_PSOC3 || CY_PSOC5LP)
1230:.\Generated_Source\PSoC5/ADC_Voltage_Target.c ****                     #if (ADC_Voltage_Target_CFG2_INPUT_RANGE == ADC_Voltage_Target_IR_VSSA_TO_2VREF
1231:.\Generated_Source\PSoC5/ADC_Voltage_Target.c ****                         ADC_Voltage_Target_AMux_Select(1);
1232:.\Generated_Source\PSoC5/ADC_Voltage_Target.c ****                     #else
1233:.\Generated_Source\PSoC5/ADC_Voltage_Target.c ****                         ADC_Voltage_Target_AMux_Select(0);
1234:.\Generated_Source\PSoC5/ADC_Voltage_Target.c ****                     #endif /* ADC_Voltage_Target_IR_VSSA_TO_2VREF) */
1235:.\Generated_Source\PSoC5/ADC_Voltage_Target.c ****                 #elif (CY_PSOC5A)
1236:.\Generated_Source\PSoC5/ADC_Voltage_Target.c ****                     ADC_Voltage_Target_AMux_Select(0);
1237:.\Generated_Source\PSoC5/ADC_Voltage_Target.c ****                 #endif /* CY_PSOC3 || CY_PSOC5LP */
1238:.\Generated_Source\PSoC5/ADC_Voltage_Target.c ****             #endif /* ADC_Voltage_Target_DEFAULT_INPUT_MODE */
1239:.\Generated_Source\PSoC5/ADC_Voltage_Target.c ****             
1240:.\Generated_Source\PSoC5/ADC_Voltage_Target.c ****             /* Set the Conversion stop if resolution is above 16 bit and 
1241:.\Generated_Source\PSoC5/ADC_Voltage_Target.c ****                conversion mode is Single sample */
1242:.\Generated_Source\PSoC5/ADC_Voltage_Target.c ****             #if(ADC_Voltage_Target_CFG2_RESOLUTION > 16 && \
1243:.\Generated_Source\PSoC5/ADC_Voltage_Target.c ****                 ADC_Voltage_Target_CFG2_CONVMODE == ADC_Voltage_Target_MODE_SINGLE_SAMPLE) 
1244:.\Generated_Source\PSoC5/ADC_Voltage_Target.c ****                 ADC_Voltage_Target_stopConversion = 1;
1245:.\Generated_Source\PSoC5/ADC_Voltage_Target.c ****             #endif /* Single sample with resolution above 16 bits. */
1246:.\Generated_Source\PSoC5/ADC_Voltage_Target.c ****             
1247:.\Generated_Source\PSoC5/ADC_Voltage_Target.c ****             ADC_Voltage_Target_CountsPerVolt = (uint32)ADC_Voltage_Target_CFG2_COUNTS_PER_VOLT;
1248:.\Generated_Source\PSoC5/ADC_Voltage_Target.c ****             
1249:.\Generated_Source\PSoC5/ADC_Voltage_Target.c ****             /* Start and set interrupt vector */
1250:.\Generated_Source\PSoC5/ADC_Voltage_Target.c ****             CyIntSetPriority(ADC_Voltage_Target_IRQ__INTC_NUMBER, ADC_Voltage_Target_IRQ_INTC_PRIOR
1251:.\Generated_Source\PSoC5/ADC_Voltage_Target.c ****             CyIntSetVector(ADC_Voltage_Target_IRQ__INTC_NUMBER, ADC_Voltage_Target_ISR2 );
1252:.\Generated_Source\PSoC5/ADC_Voltage_Target.c ****             CyIntEnable(ADC_Voltage_Target_IRQ__INTC_NUMBER);
1253:.\Generated_Source\PSoC5/ADC_Voltage_Target.c ****         }
1254:.\Generated_Source\PSoC5/ADC_Voltage_Target.c ****     #endif /* ADC_Voltage_Target_DEFAULT_NUM_CONFIGS > 1 */
1255:.\Generated_Source\PSoC5/ADC_Voltage_Target.c **** 
1256:.\Generated_Source\PSoC5/ADC_Voltage_Target.c ****     #if(ADC_Voltage_Target_DEFAULT_NUM_CONFIGS > 2)
1257:.\Generated_Source\PSoC5/ADC_Voltage_Target.c ****         if(config == 3u)
1258:.\Generated_Source\PSoC5/ADC_Voltage_Target.c ****         {
1259:.\Generated_Source\PSoC5/ADC_Voltage_Target.c ****             /* Third Config */
1260:.\Generated_Source\PSoC5/ADC_Voltage_Target.c ****             ADC_Voltage_Target_DEC_CR_REG      = ADC_Voltage_Target_CFG3_DEC_CR;      
1261:.\Generated_Source\PSoC5/ADC_Voltage_Target.c ****             ADC_Voltage_Target_DEC_SHIFT1_REG  = ADC_Voltage_Target_CFG3_DEC_SHIFT1;  
1262:.\Generated_Source\PSoC5/ADC_Voltage_Target.c ****             ADC_Voltage_Target_DEC_SHIFT2_REG  = ADC_Voltage_Target_CFG3_DEC_SHIFT2;  
1263:.\Generated_Source\PSoC5/ADC_Voltage_Target.c ****             ADC_Voltage_Target_DEC_DR2_REG     = ADC_Voltage_Target_CFG3_DEC_DR2;     
1264:.\Generated_Source\PSoC5/ADC_Voltage_Target.c ****             ADC_Voltage_Target_DEC_DR2H_REG    = ADC_Voltage_Target_CFG3_DEC_DR2H;    
ARM GAS  C:\DOCUME~1\ADMINI~1\LOCALS~1\Temp\ccfNfb5I.s 			page 57


1265:.\Generated_Source\PSoC5/ADC_Voltage_Target.c ****             ADC_Voltage_Target_DEC_DR1_REG     = ADC_Voltage_Target_CFG3_DEC_DR1;     
1266:.\Generated_Source\PSoC5/ADC_Voltage_Target.c ****             ADC_Voltage_Target_DEC_OCOR_REG    = ADC_Voltage_Target_CFG3_DEC_OCOR;    
1267:.\Generated_Source\PSoC5/ADC_Voltage_Target.c ****             ADC_Voltage_Target_DEC_OCORM_REG   = ADC_Voltage_Target_CFG3_DEC_OCORM;   
1268:.\Generated_Source\PSoC5/ADC_Voltage_Target.c ****             ADC_Voltage_Target_DEC_OCORH_REG   = ADC_Voltage_Target_CFG3_DEC_OCORH;   
1269:.\Generated_Source\PSoC5/ADC_Voltage_Target.c ****          
1270:.\Generated_Source\PSoC5/ADC_Voltage_Target.c ****             ADC_Voltage_Target_DSM_CR4_REG     = ADC_Voltage_Target_CFG3_DSM_CR4;     
1271:.\Generated_Source\PSoC5/ADC_Voltage_Target.c ****             ADC_Voltage_Target_DSM_CR5_REG     = ADC_Voltage_Target_CFG3_DSM_CR5;     
1272:.\Generated_Source\PSoC5/ADC_Voltage_Target.c ****             ADC_Voltage_Target_DSM_CR6_REG     = ADC_Voltage_Target_CFG3_DSM_CR6;     
1273:.\Generated_Source\PSoC5/ADC_Voltage_Target.c ****             ADC_Voltage_Target_DSM_CR7_REG     = ADC_Voltage_Target_CFG3_DSM_CR7;     
1274:.\Generated_Source\PSoC5/ADC_Voltage_Target.c ****             ADC_Voltage_Target_DSM_CR8_REG     = ADC_Voltage_Target_CFG3_DSM_CR8;     
1275:.\Generated_Source\PSoC5/ADC_Voltage_Target.c ****             ADC_Voltage_Target_DSM_CR9_REG     = ADC_Voltage_Target_CFG3_DSM_CR9;     
1276:.\Generated_Source\PSoC5/ADC_Voltage_Target.c ****             ADC_Voltage_Target_DSM_CR10_REG    = ADC_Voltage_Target_CFG3_DSM_CR10;    
1277:.\Generated_Source\PSoC5/ADC_Voltage_Target.c ****             ADC_Voltage_Target_DSM_CR11_REG    = ADC_Voltage_Target_CFG3_DSM_CR11;    
1278:.\Generated_Source\PSoC5/ADC_Voltage_Target.c ****             ADC_Voltage_Target_DSM_CR12_REG    = ADC_Voltage_Target_CFG3_DSM_CR12;    
1279:.\Generated_Source\PSoC5/ADC_Voltage_Target.c ****             ADC_Voltage_Target_DSM_CR14_REG    = ADC_Voltage_Target_CFG3_DSM_CR14;    
1280:.\Generated_Source\PSoC5/ADC_Voltage_Target.c ****             ADC_Voltage_Target_DSM_CR15_REG    = ADC_Voltage_Target_CFG3_DSM_CR15;    
1281:.\Generated_Source\PSoC5/ADC_Voltage_Target.c ****             ADC_Voltage_Target_DSM_CR16_REG    = ADC_Voltage_Target_CFG3_DSM_CR16;    
1282:.\Generated_Source\PSoC5/ADC_Voltage_Target.c ****             ADC_Voltage_Target_DSM_CR17_REG    = ADC_Voltage_Target_CFG3_DSM_CR17;    
1283:.\Generated_Source\PSoC5/ADC_Voltage_Target.c **** 			/* Set DSM_REF0_REG by disabling and enabling the PRESS cirucit */
1284:.\Generated_Source\PSoC5/ADC_Voltage_Target.c **** 			ADC_Voltage_Target_SetDSMRef0Reg(ADC_Voltage_Target_CFG3_DSM_REF0);
1285:.\Generated_Source\PSoC5/ADC_Voltage_Target.c ****             ADC_Voltage_Target_DSM_REF2_REG    = ADC_Voltage_Target_CFG3_DSM_REF2;    
1286:.\Generated_Source\PSoC5/ADC_Voltage_Target.c ****             ADC_Voltage_Target_DSM_REF3_REG    = ADC_Voltage_Target_CFG3_DSM_REF3;    
1287:.\Generated_Source\PSoC5/ADC_Voltage_Target.c ****         
1288:.\Generated_Source\PSoC5/ADC_Voltage_Target.c ****             ADC_Voltage_Target_DSM_BUF0_REG    = ADC_Voltage_Target_CFG3_DSM_BUF0;    
1289:.\Generated_Source\PSoC5/ADC_Voltage_Target.c ****             ADC_Voltage_Target_DSM_BUF1_REG    = ADC_Voltage_Target_CFG3_DSM_BUF1;    
1290:.\Generated_Source\PSoC5/ADC_Voltage_Target.c ****             ADC_Voltage_Target_DSM_BUF2_REG    = ADC_Voltage_Target_CFG3_DSM_BUF2;
1291:.\Generated_Source\PSoC5/ADC_Voltage_Target.c ****             ADC_Voltage_Target_DSM_BUF3_REG    = ADC_Voltage_Target_CFG3_DSM_BUF3;
1292:.\Generated_Source\PSoC5/ADC_Voltage_Target.c ****             #if (CY_PSOC5A)
1293:.\Generated_Source\PSoC5/ADC_Voltage_Target.c ****                 ADC_Voltage_Target_DSM_CLK_REG    |= ADC_Voltage_Target_CFG1_DSM_CLK; 
1294:.\Generated_Source\PSoC5/ADC_Voltage_Target.c ****             #endif /* CY_PSOC5A */
1295:.\Generated_Source\PSoC5/ADC_Voltage_Target.c ****             
1296:.\Generated_Source\PSoC5/ADC_Voltage_Target.c ****             /* To select either Vssa or Vref to -ve input of DSM depending on 
1297:.\Generated_Source\PSoC5/ADC_Voltage_Target.c ****                the input range selected.
1298:.\Generated_Source\PSoC5/ADC_Voltage_Target.c ****             */
1299:.\Generated_Source\PSoC5/ADC_Voltage_Target.c ****             
1300:.\Generated_Source\PSoC5/ADC_Voltage_Target.c ****             #if(ADC_Voltage_Target_DEFAULT_INPUT_MODE)
1301:.\Generated_Source\PSoC5/ADC_Voltage_Target.c ****                 #if (CY_PSOC3 || CY_PSOC5LP)
1302:.\Generated_Source\PSoC5/ADC_Voltage_Target.c ****                     #if (ADC_Voltage_Target_CFG3_INPUT_RANGE == ADC_Voltage_Target_IR_VSSA_TO_2VREF
1303:.\Generated_Source\PSoC5/ADC_Voltage_Target.c ****                         ADC_Voltage_Target_AMux_Select(1);
1304:.\Generated_Source\PSoC5/ADC_Voltage_Target.c ****                     #else
1305:.\Generated_Source\PSoC5/ADC_Voltage_Target.c ****                         ADC_Voltage_Target_AMux_Select(0);
1306:.\Generated_Source\PSoC5/ADC_Voltage_Target.c ****                     #endif /* ADC_Voltage_Target_IR_VSSA_TO_2VREF) */
1307:.\Generated_Source\PSoC5/ADC_Voltage_Target.c ****                 #elif (CY_PSOC5A)
1308:.\Generated_Source\PSoC5/ADC_Voltage_Target.c ****                     ADC_Voltage_Target_AMux_Select(0);
1309:.\Generated_Source\PSoC5/ADC_Voltage_Target.c ****                 #endif /* CY_PSOC3 || CY_PSOC5LP */
1310:.\Generated_Source\PSoC5/ADC_Voltage_Target.c ****             #endif /* ADC_Voltage_Target_DEFAULT_INPUT_MODE */
1311:.\Generated_Source\PSoC5/ADC_Voltage_Target.c ****                        
1312:.\Generated_Source\PSoC5/ADC_Voltage_Target.c ****             /* Set the Conversion stop if resolution is above 16 bit and 
1313:.\Generated_Source\PSoC5/ADC_Voltage_Target.c ****                conversion  mode is Single sample */
1314:.\Generated_Source\PSoC5/ADC_Voltage_Target.c ****             #if(ADC_Voltage_Target_CFG3_RESOLUTION > 16 && \
1315:.\Generated_Source\PSoC5/ADC_Voltage_Target.c ****                 ADC_Voltage_Target_CFG3_CONVMODE == ADC_Voltage_Target_MODE_SINGLE_SAMPLE) 
1316:.\Generated_Source\PSoC5/ADC_Voltage_Target.c ****                 ADC_Voltage_Target_stopConversion = 1;
1317:.\Generated_Source\PSoC5/ADC_Voltage_Target.c ****             #endif /* Single sample with resolution above 16 bits */
1318:.\Generated_Source\PSoC5/ADC_Voltage_Target.c ****             
1319:.\Generated_Source\PSoC5/ADC_Voltage_Target.c ****             ADC_Voltage_Target_CountsPerVolt = (uint32)ADC_Voltage_Target_CFG3_COUNTS_PER_VOLT;
1320:.\Generated_Source\PSoC5/ADC_Voltage_Target.c ****             
1321:.\Generated_Source\PSoC5/ADC_Voltage_Target.c ****             /* Start and set interrupt vector */
ARM GAS  C:\DOCUME~1\ADMINI~1\LOCALS~1\Temp\ccfNfb5I.s 			page 58


1322:.\Generated_Source\PSoC5/ADC_Voltage_Target.c ****             CyIntSetPriority(ADC_Voltage_Target_IRQ__INTC_NUMBER, ADC_Voltage_Target_IRQ_INTC_PRIOR
1323:.\Generated_Source\PSoC5/ADC_Voltage_Target.c ****             CyIntSetVector(ADC_Voltage_Target_IRQ__INTC_NUMBER, ADC_Voltage_Target_ISR3 );
1324:.\Generated_Source\PSoC5/ADC_Voltage_Target.c ****             CyIntEnable(ADC_Voltage_Target_IRQ__INTC_NUMBER);
1325:.\Generated_Source\PSoC5/ADC_Voltage_Target.c ****         }
1326:.\Generated_Source\PSoC5/ADC_Voltage_Target.c ****     #endif /* ADC_Voltage_Target_DEFAULT_NUM_CONFIGS > 3 */
1327:.\Generated_Source\PSoC5/ADC_Voltage_Target.c **** 
1328:.\Generated_Source\PSoC5/ADC_Voltage_Target.c ****     #if(ADC_Voltage_Target_DEFAULT_NUM_CONFIGS == 4)
1329:.\Generated_Source\PSoC5/ADC_Voltage_Target.c ****         if (config == 4u)
1330:.\Generated_Source\PSoC5/ADC_Voltage_Target.c ****         {
1331:.\Generated_Source\PSoC5/ADC_Voltage_Target.c ****             /* Fourth Config */
1332:.\Generated_Source\PSoC5/ADC_Voltage_Target.c ****             ADC_Voltage_Target_DEC_CR_REG      = ADC_Voltage_Target_CFG4_DEC_CR;      
1333:.\Generated_Source\PSoC5/ADC_Voltage_Target.c ****             ADC_Voltage_Target_DEC_SHIFT1_REG  = ADC_Voltage_Target_CFG4_DEC_SHIFT1;  
1334:.\Generated_Source\PSoC5/ADC_Voltage_Target.c ****             ADC_Voltage_Target_DEC_SHIFT2_REG  = ADC_Voltage_Target_CFG4_DEC_SHIFT2;  
1335:.\Generated_Source\PSoC5/ADC_Voltage_Target.c ****             ADC_Voltage_Target_DEC_DR2_REG     = ADC_Voltage_Target_CFG4_DEC_DR2;     
1336:.\Generated_Source\PSoC5/ADC_Voltage_Target.c ****             ADC_Voltage_Target_DEC_DR2H_REG    = ADC_Voltage_Target_CFG4_DEC_DR2H;    
1337:.\Generated_Source\PSoC5/ADC_Voltage_Target.c ****             ADC_Voltage_Target_DEC_DR1_REG     = ADC_Voltage_Target_CFG4_DEC_DR1;     
1338:.\Generated_Source\PSoC5/ADC_Voltage_Target.c ****             ADC_Voltage_Target_DEC_OCOR_REG    = ADC_Voltage_Target_CFG4_DEC_OCOR;    
1339:.\Generated_Source\PSoC5/ADC_Voltage_Target.c ****             ADC_Voltage_Target_DEC_OCORM_REG   = ADC_Voltage_Target_CFG4_DEC_OCORM;   
1340:.\Generated_Source\PSoC5/ADC_Voltage_Target.c ****             ADC_Voltage_Target_DEC_OCORH_REG   = ADC_Voltage_Target_CFG4_DEC_OCORH;   
1341:.\Generated_Source\PSoC5/ADC_Voltage_Target.c **** 
1342:.\Generated_Source\PSoC5/ADC_Voltage_Target.c ****             ADC_Voltage_Target_DSM_CR4_REG     = ADC_Voltage_Target_CFG4_DSM_CR4;     
1343:.\Generated_Source\PSoC5/ADC_Voltage_Target.c ****             ADC_Voltage_Target_DSM_CR5_REG     = ADC_Voltage_Target_CFG4_DSM_CR5;     
1344:.\Generated_Source\PSoC5/ADC_Voltage_Target.c ****             ADC_Voltage_Target_DSM_CR6_REG     = ADC_Voltage_Target_CFG4_DSM_CR6;     
1345:.\Generated_Source\PSoC5/ADC_Voltage_Target.c ****             ADC_Voltage_Target_DSM_CR7_REG     = ADC_Voltage_Target_CFG4_DSM_CR7;     
1346:.\Generated_Source\PSoC5/ADC_Voltage_Target.c ****             ADC_Voltage_Target_DSM_CR8_REG     = ADC_Voltage_Target_CFG4_DSM_CR8;     
1347:.\Generated_Source\PSoC5/ADC_Voltage_Target.c ****             ADC_Voltage_Target_DSM_CR9_REG     = ADC_Voltage_Target_CFG4_DSM_CR9;     
1348:.\Generated_Source\PSoC5/ADC_Voltage_Target.c ****             ADC_Voltage_Target_DSM_CR10_REG    = ADC_Voltage_Target_CFG4_DSM_CR10;    
1349:.\Generated_Source\PSoC5/ADC_Voltage_Target.c ****             ADC_Voltage_Target_DSM_CR11_REG    = ADC_Voltage_Target_CFG4_DSM_CR11;    
1350:.\Generated_Source\PSoC5/ADC_Voltage_Target.c ****             ADC_Voltage_Target_DSM_CR12_REG    = ADC_Voltage_Target_CFG4_DSM_CR12;    
1351:.\Generated_Source\PSoC5/ADC_Voltage_Target.c ****             ADC_Voltage_Target_DSM_CR14_REG    = ADC_Voltage_Target_CFG4_DSM_CR14;    
1352:.\Generated_Source\PSoC5/ADC_Voltage_Target.c ****             ADC_Voltage_Target_DSM_CR15_REG    = ADC_Voltage_Target_CFG4_DSM_CR15;    
1353:.\Generated_Source\PSoC5/ADC_Voltage_Target.c ****             ADC_Voltage_Target_DSM_CR16_REG    = ADC_Voltage_Target_CFG4_DSM_CR16;    
1354:.\Generated_Source\PSoC5/ADC_Voltage_Target.c ****             ADC_Voltage_Target_DSM_CR17_REG    = ADC_Voltage_Target_CFG4_DSM_CR17;
1355:.\Generated_Source\PSoC5/ADC_Voltage_Target.c **** 			/* Set DSM_REF0_REG by disabling and enabling the PRESS cirucit */
1356:.\Generated_Source\PSoC5/ADC_Voltage_Target.c **** 			ADC_Voltage_Target_SetDSMRef0Reg(ADC_Voltage_Target_CFG4_DSM_REF0);
1357:.\Generated_Source\PSoC5/ADC_Voltage_Target.c ****             ADC_Voltage_Target_DSM_REF2_REG    = ADC_Voltage_Target_CFG4_DSM_REF2;    
1358:.\Generated_Source\PSoC5/ADC_Voltage_Target.c ****             ADC_Voltage_Target_DSM_REF3_REG    = ADC_Voltage_Target_CFG4_DSM_REF3;    
1359:.\Generated_Source\PSoC5/ADC_Voltage_Target.c ****         
1360:.\Generated_Source\PSoC5/ADC_Voltage_Target.c ****             ADC_Voltage_Target_DSM_BUF0_REG    = ADC_Voltage_Target_CFG4_DSM_BUF0;    
1361:.\Generated_Source\PSoC5/ADC_Voltage_Target.c ****             ADC_Voltage_Target_DSM_BUF1_REG    = ADC_Voltage_Target_CFG4_DSM_BUF1;    
1362:.\Generated_Source\PSoC5/ADC_Voltage_Target.c ****             ADC_Voltage_Target_DSM_BUF2_REG    = ADC_Voltage_Target_CFG4_DSM_BUF2;
1363:.\Generated_Source\PSoC5/ADC_Voltage_Target.c ****             ADC_Voltage_Target_DSM_BUF3_REG    = ADC_Voltage_Target_CFG4_DSM_BUF3;
1364:.\Generated_Source\PSoC5/ADC_Voltage_Target.c ****             #if (CY_PSOC5A)
1365:.\Generated_Source\PSoC5/ADC_Voltage_Target.c ****                 ADC_Voltage_Target_DSM_CLK_REG    |= ADC_Voltage_Target_CFG1_DSM_CLK; 
1366:.\Generated_Source\PSoC5/ADC_Voltage_Target.c ****             #endif /* CY_PSOC5A */
1367:.\Generated_Source\PSoC5/ADC_Voltage_Target.c ****             
1368:.\Generated_Source\PSoC5/ADC_Voltage_Target.c ****             /* To select either Vssa or Vref to -ve input of DSM depending on 
1369:.\Generated_Source\PSoC5/ADC_Voltage_Target.c ****                the input range selected.
1370:.\Generated_Source\PSoC5/ADC_Voltage_Target.c ****             */
1371:.\Generated_Source\PSoC5/ADC_Voltage_Target.c ****             
1372:.\Generated_Source\PSoC5/ADC_Voltage_Target.c ****             #if(ADC_Voltage_Target_DEFAULT_INPUT_MODE)
1373:.\Generated_Source\PSoC5/ADC_Voltage_Target.c ****                 #if (CY_PSOC3 || CY_PSOC5LP)
1374:.\Generated_Source\PSoC5/ADC_Voltage_Target.c ****                     #if (ADC_Voltage_Target_CFG4_INPUT_RANGE == ADC_Voltage_Target_IR_VSSA_TO_2VREF
1375:.\Generated_Source\PSoC5/ADC_Voltage_Target.c ****                         ADC_Voltage_Target_AMux_Select(1);
1376:.\Generated_Source\PSoC5/ADC_Voltage_Target.c ****                     #else
1377:.\Generated_Source\PSoC5/ADC_Voltage_Target.c ****                         ADC_Voltage_Target_AMux_Select(0);
1378:.\Generated_Source\PSoC5/ADC_Voltage_Target.c ****                     #endif /* ADC_Voltage_Target_IR_VSSA_TO_2VREF) */
ARM GAS  C:\DOCUME~1\ADMINI~1\LOCALS~1\Temp\ccfNfb5I.s 			page 59


1379:.\Generated_Source\PSoC5/ADC_Voltage_Target.c ****                 #elif (CY_PSOC5A)
1380:.\Generated_Source\PSoC5/ADC_Voltage_Target.c ****                     ADC_Voltage_Target_AMux_Select(0);
1381:.\Generated_Source\PSoC5/ADC_Voltage_Target.c ****                 #endif /* CY_PSOC3 || CY_PSOC5LP */
1382:.\Generated_Source\PSoC5/ADC_Voltage_Target.c ****             #endif /* ADC_Voltage_Target_DEFAULT_INPUT_MODE */
1383:.\Generated_Source\PSoC5/ADC_Voltage_Target.c ****                        
1384:.\Generated_Source\PSoC5/ADC_Voltage_Target.c ****             /* Set the Conversion stop if resolution is above 16 bit and 
1385:.\Generated_Source\PSoC5/ADC_Voltage_Target.c ****                conversion mode is Single sample */
1386:.\Generated_Source\PSoC5/ADC_Voltage_Target.c ****             #if(ADC_Voltage_Target_CFG4_RESOLUTION > 16 && \
1387:.\Generated_Source\PSoC5/ADC_Voltage_Target.c ****                 ADC_Voltage_Target_CFG4_CONVMODE == ADC_Voltage_Target_MODE_SINGLE_SAMPLE) 
1388:.\Generated_Source\PSoC5/ADC_Voltage_Target.c ****                 ADC_Voltage_Target_stopConversion = 1;
1389:.\Generated_Source\PSoC5/ADC_Voltage_Target.c ****             #endif /* Single sample with resolution above 16 bits */
1390:.\Generated_Source\PSoC5/ADC_Voltage_Target.c ****             
1391:.\Generated_Source\PSoC5/ADC_Voltage_Target.c ****             ADC_Voltage_Target_CountsPerVolt = (uint32)ADC_Voltage_Target_CFG4_COUNTS_PER_VOLT;
1392:.\Generated_Source\PSoC5/ADC_Voltage_Target.c **** 
1393:.\Generated_Source\PSoC5/ADC_Voltage_Target.c ****             /* Start and set interrupt vector */
1394:.\Generated_Source\PSoC5/ADC_Voltage_Target.c ****             CyIntSetPriority(ADC_Voltage_Target_IRQ__INTC_NUMBER, ADC_Voltage_Target_IRQ_INTC_PRIOR
1395:.\Generated_Source\PSoC5/ADC_Voltage_Target.c ****             CyIntSetVector(ADC_Voltage_Target_IRQ__INTC_NUMBER, ADC_Voltage_Target_ISR4 );
1396:.\Generated_Source\PSoC5/ADC_Voltage_Target.c ****             CyIntEnable(ADC_Voltage_Target_IRQ__INTC_NUMBER);
1397:.\Generated_Source\PSoC5/ADC_Voltage_Target.c ****         }
1398:.\Generated_Source\PSoC5/ADC_Voltage_Target.c ****     #endif /* ADC_Voltage_Target_DEFAULT_NUM_CONFIGS > 4 */
1399:.\Generated_Source\PSoC5/ADC_Voltage_Target.c **** }
 1925              		.loc 1 1399 0
 1926 02d0 07F10807 		add	r7, r7, #8
 1927 02d4 BD46     		mov	sp, r7
 1928 02d6 80BD     		pop	{r7, pc}
 1929              		.cfi_endproc
 1930              	.LFE21:
 1931              		.size	ADC_Voltage_Target_InitConfig, .-ADC_Voltage_Target_InitConfig
 1932              		.section	.text.ADC_Voltage_Target_RoundValue,"ax",%progbits
 1933              		.align	2
 1934              		.global	ADC_Voltage_Target_RoundValue
 1935              		.thumb
 1936              		.thumb_func
 1937              		.type	ADC_Voltage_Target_RoundValue, %function
 1938              	ADC_Voltage_Target_RoundValue:
 1939              	.LFB22:
1400:.\Generated_Source\PSoC5/ADC_Voltage_Target.c **** 
1401:.\Generated_Source\PSoC5/ADC_Voltage_Target.c **** 
1402:.\Generated_Source\PSoC5/ADC_Voltage_Target.c **** /*******************************************************************************
1403:.\Generated_Source\PSoC5/ADC_Voltage_Target.c **** * Function Name: ADC_Voltage_Target_RoundValue(uint32 busClockFreq, 
1404:.\Generated_Source\PSoC5/ADC_Voltage_Target.c **** *                                            uint32 clockFreq)
1405:.\Generated_Source\PSoC5/ADC_Voltage_Target.c **** ********************************************************************************
1406:.\Generated_Source\PSoC5/ADC_Voltage_Target.c **** *
1407:.\Generated_Source\PSoC5/ADC_Voltage_Target.c **** * Summary:
1408:.\Generated_Source\PSoC5/ADC_Voltage_Target.c **** *  Function to round an integer value.
1409:.\Generated_Source\PSoC5/ADC_Voltage_Target.c **** *
1410:.\Generated_Source\PSoC5/ADC_Voltage_Target.c **** * Parameters:  
1411:.\Generated_Source\PSoC5/ADC_Voltage_Target.c **** *  busClockFreq:  Frequency of the bus clock.
1412:.\Generated_Source\PSoC5/ADC_Voltage_Target.c **** *  clockFreq:  Frequency of the component clock.
1413:.\Generated_Source\PSoC5/ADC_Voltage_Target.c **** *
1414:.\Generated_Source\PSoC5/ADC_Voltage_Target.c **** * Return: 
1415:.\Generated_Source\PSoC5/ADC_Voltage_Target.c **** *  uint16: rounded integer value.
1416:.\Generated_Source\PSoC5/ADC_Voltage_Target.c **** *
1417:.\Generated_Source\PSoC5/ADC_Voltage_Target.c **** *******************************************************************************/
1418:.\Generated_Source\PSoC5/ADC_Voltage_Target.c **** uint16 ADC_Voltage_Target_RoundValue(uint32 busClockFreq, uint32 clockFreq) \
1419:.\Generated_Source\PSoC5/ADC_Voltage_Target.c ****                                   
1420:.\Generated_Source\PSoC5/ADC_Voltage_Target.c **** {
ARM GAS  C:\DOCUME~1\ADMINI~1\LOCALS~1\Temp\ccfNfb5I.s 			page 60


 1940              		.loc 1 1420 0
 1941              		.cfi_startproc
 1942              		@ args = 0, pretend = 0, frame = 16
 1943              		@ frame_needed = 1, uses_anonymous_args = 0
 1944              		@ link register save eliminated.
 1945 0000 80B4     		push	{r7}
 1946              	.LCFI58:
 1947              		.cfi_def_cfa_offset 4
 1948 0002 85B0     		sub	sp, sp, #20
 1949              	.LCFI59:
 1950              		.cfi_def_cfa_offset 24
 1951 0004 00AF     		add	r7, sp, #0
 1952              		.cfi_offset 7, -4
 1953              	.LCFI60:
 1954              		.cfi_def_cfa_register 7
 1955 0006 7860     		str	r0, [r7, #4]
 1956 0008 3960     		str	r1, [r7, #0]
1421:.\Generated_Source\PSoC5/ADC_Voltage_Target.c ****     uint16 divider1, divider2;
1422:.\Generated_Source\PSoC5/ADC_Voltage_Target.c ****     
1423:.\Generated_Source\PSoC5/ADC_Voltage_Target.c ****     divider1 = ((busClockFreq * 10) / clockFreq);
 1957              		.loc 1 1423 0
 1958 000a 7A68     		ldr	r2, [r7, #4]
 1959 000c 1346     		mov	r3, r2
 1960 000e 4FEA8303 		lsl	r3, r3, #2
 1961 0012 1344     		add	r3, r3, r2
 1962 0014 4FEA4303 		lsl	r3, r3, #1
 1963 0018 1A46     		mov	r2, r3
 1964 001a 3B68     		ldr	r3, [r7, #0]
 1965 001c B2FBF3F3 		udiv	r3, r2, r3
 1966 0020 BB81     		strh	r3, [r7, #12]	@ movhi
1424:.\Generated_Source\PSoC5/ADC_Voltage_Target.c ****     divider2 = (busClockFreq / clockFreq);
 1967              		.loc 1 1424 0
 1968 0022 7A68     		ldr	r2, [r7, #4]
 1969 0024 3B68     		ldr	r3, [r7, #0]
 1970 0026 B2FBF3F3 		udiv	r3, r2, r3
 1971 002a FB81     		strh	r3, [r7, #14]	@ movhi
1425:.\Generated_Source\PSoC5/ADC_Voltage_Target.c ****     if ( divider1 - (divider2 * 10) >= 5)
 1972              		.loc 1 1425 0
 1973 002c BA89     		ldrh	r2, [r7, #12]
 1974 002e FB89     		ldrh	r3, [r7, #14]
 1975 0030 6FF00901 		mvn	r1, #9
 1976 0034 01FB03F3 		mul	r3, r1, r3
 1977 0038 1344     		add	r3, r2, r3
 1978 003a 042B     		cmp	r3, #4
 1979 003c 03DD     		ble	.L88
1426:.\Generated_Source\PSoC5/ADC_Voltage_Target.c ****     {
1427:.\Generated_Source\PSoC5/ADC_Voltage_Target.c ****         divider2 += 1;
 1980              		.loc 1 1427 0
 1981 003e FB89     		ldrh	r3, [r7, #14]	@ movhi
 1982 0040 03F10103 		add	r3, r3, #1
 1983 0044 FB81     		strh	r3, [r7, #14]	@ movhi
 1984              	.L88:
1428:.\Generated_Source\PSoC5/ADC_Voltage_Target.c ****     }
1429:.\Generated_Source\PSoC5/ADC_Voltage_Target.c ****     return divider2;
 1985              		.loc 1 1429 0
 1986 0046 FB89     		ldrh	r3, [r7, #14]
1430:.\Generated_Source\PSoC5/ADC_Voltage_Target.c **** }
ARM GAS  C:\DOCUME~1\ADMINI~1\LOCALS~1\Temp\ccfNfb5I.s 			page 61


 1987              		.loc 1 1430 0
 1988 0048 1846     		mov	r0, r3
 1989 004a 07F11407 		add	r7, r7, #20
 1990 004e BD46     		mov	sp, r7
 1991 0050 80BC     		pop	{r7}
 1992 0052 7047     		bx	lr
 1993              		.cfi_endproc
 1994              	.LFE22:
 1995              		.size	ADC_Voltage_Target_RoundValue, .-ADC_Voltage_Target_RoundValue
 1996              		.section	.text.ADC_Voltage_Target_SelectConfiguration,"ax",%progbits
 1997              		.align	2
 1998              		.global	ADC_Voltage_Target_SelectConfiguration
 1999              		.thumb
 2000              		.thumb_func
 2001              		.type	ADC_Voltage_Target_SelectConfiguration, %function
 2002              	ADC_Voltage_Target_SelectConfiguration:
 2003              	.LFB23:
1431:.\Generated_Source\PSoC5/ADC_Voltage_Target.c ****          
1432:.\Generated_Source\PSoC5/ADC_Voltage_Target.c **** 
1433:.\Generated_Source\PSoC5/ADC_Voltage_Target.c **** /*******************************************************************************
1434:.\Generated_Source\PSoC5/ADC_Voltage_Target.c **** * Function Name: ADC_Voltage_Target_SelectCofiguration(uint8 config, 
1435:.\Generated_Source\PSoC5/ADC_Voltage_Target.c **** *                                                    uint8 restart)
1436:.\Generated_Source\PSoC5/ADC_Voltage_Target.c **** ********************************************************************************
1437:.\Generated_Source\PSoC5/ADC_Voltage_Target.c **** *
1438:.\Generated_Source\PSoC5/ADC_Voltage_Target.c **** * Summary:
1439:.\Generated_Source\PSoC5/ADC_Voltage_Target.c **** *  Selects the user defined configuration. This API first stops the current ADC
1440:.\Generated_Source\PSoC5/ADC_Voltage_Target.c **** *  and then initializes the registers with the default values for that config. 
1441:.\Generated_Source\PSoC5/ADC_Voltage_Target.c **** *  This also performs calibration by writing GCOR registers with trim values 
1442:.\Generated_Source\PSoC5/ADC_Voltage_Target.c **** *  stored in the flash.
1443:.\Generated_Source\PSoC5/ADC_Voltage_Target.c **** *
1444:.\Generated_Source\PSoC5/ADC_Voltage_Target.c **** * Parameters:  
1445:.\Generated_Source\PSoC5/ADC_Voltage_Target.c **** *  config:  configuration user wants to select.
1446:.\Generated_Source\PSoC5/ADC_Voltage_Target.c **** *
1447:.\Generated_Source\PSoC5/ADC_Voltage_Target.c **** * Return: 
1448:.\Generated_Source\PSoC5/ADC_Voltage_Target.c **** *  void
1449:.\Generated_Source\PSoC5/ADC_Voltage_Target.c **** *
1450:.\Generated_Source\PSoC5/ADC_Voltage_Target.c **** *******************************************************************************/
1451:.\Generated_Source\PSoC5/ADC_Voltage_Target.c **** void ADC_Voltage_Target_SelectConfiguration(uint8 config, uint8 restart) \
1452:.\Generated_Source\PSoC5/ADC_Voltage_Target.c ****                                               
1453:.\Generated_Source\PSoC5/ADC_Voltage_Target.c **** {
 2004              		.loc 1 1453 0
 2005              		.cfi_startproc
 2006              		@ args = 0, pretend = 0, frame = 24
 2007              		@ frame_needed = 1, uses_anonymous_args = 0
 2008 0000 80B5     		push	{r7, lr}
 2009              	.LCFI61:
 2010              		.cfi_def_cfa_offset 8
 2011 0002 86B0     		sub	sp, sp, #24
 2012              	.LCFI62:
 2013              		.cfi_def_cfa_offset 32
 2014 0004 00AF     		add	r7, sp, #0
 2015              		.cfi_offset 14, -4
 2016              		.cfi_offset 7, -8
 2017              	.LCFI63:
 2018              		.cfi_def_cfa_register 7
 2019 0006 0246     		mov	r2, r0
 2020 0008 0B46     		mov	r3, r1
ARM GAS  C:\DOCUME~1\ADMINI~1\LOCALS~1\Temp\ccfNfb5I.s 			page 62


 2021 000a FA71     		strb	r2, [r7, #7]
 2022 000c BB71     		strb	r3, [r7, #6]
1454:.\Generated_Source\PSoC5/ADC_Voltage_Target.c ****     uint8 inputRange = 0, resolution = 16;
 2023              		.loc 1 1454 0
 2024 000e 4FF00003 		mov	r3, #0
 2025 0012 BB73     		strb	r3, [r7, #14]
 2026 0014 4FF01003 		mov	r3, #16
 2027 0018 FB73     		strb	r3, [r7, #15]
1455:.\Generated_Source\PSoC5/ADC_Voltage_Target.c ****     uint16 idealGain = 0, adcClockDivider = 1;    
 2028              		.loc 1 1455 0
 2029 001a 4FF00003 		mov	r3, #0
 2030 001e 3B82     		strh	r3, [r7, #16]	@ movhi
 2031 0020 4FF00103 		mov	r3, #1
 2032 0024 7B82     		strh	r3, [r7, #18]	@ movhi
1456:.\Generated_Source\PSoC5/ADC_Voltage_Target.c ****     uint16 cpClockDivider = 1;
 2033              		.loc 1 1456 0
 2034 0026 4FF00103 		mov	r3, #1
 2035 002a BB82     		strh	r3, [r7, #20]	@ movhi
1457:.\Generated_Source\PSoC5/ADC_Voltage_Target.c ****     uint16 idealOddGain = 0;
 2036              		.loc 1 1457 0
 2037 002c 4FF00003 		mov	r3, #0
 2038 0030 FB82     		strh	r3, [r7, #22]	@ movhi
1458:.\Generated_Source\PSoC5/ADC_Voltage_Target.c ****     
1459:.\Generated_Source\PSoC5/ADC_Voltage_Target.c ****     /* Check whether the config is valid or not */
1460:.\Generated_Source\PSoC5/ADC_Voltage_Target.c ****     if( config <= ADC_Voltage_Target_DEFAULT_NUM_CONFIGS)
 2039              		.loc 1 1460 0
 2040 0032 FB79     		ldrb	r3, [r7, #7]	@ zero_extendqisi2
 2041 0034 012B     		cmp	r3, #1
 2042 0036 61D8     		bhi	.L94
1461:.\Generated_Source\PSoC5/ADC_Voltage_Target.c ****     {   
1462:.\Generated_Source\PSoC5/ADC_Voltage_Target.c ****        /* Set the flag to ensure start() API dont override the config
1463:.\Generated_Source\PSoC5/ADC_Voltage_Target.c ****            selected if ADC is not already started */
1464:.\Generated_Source\PSoC5/ADC_Voltage_Target.c ****         if(ADC_Voltage_Target_initVar == 0u)
 2043              		.loc 1 1464 0
 2044 0038 40F20003 		movw	r3, #:lower16:ADC_Voltage_Target_initVar
 2045 003c C0F20003 		movt	r3, #:upper16:ADC_Voltage_Target_initVar
 2046 0040 1B78     		ldrb	r3, [r3, #0]	@ zero_extendqisi2
 2047 0042 002B     		cmp	r3, #0
 2048 0044 06D1     		bne	.L92
1465:.\Generated_Source\PSoC5/ADC_Voltage_Target.c ****         {
1466:.\Generated_Source\PSoC5/ADC_Voltage_Target.c ****             ADC_Voltage_Target_started = 1u;
 2049              		.loc 1 1466 0
 2050 0046 40F20003 		movw	r3, #:lower16:ADC_Voltage_Target_started
 2051 004a C0F20003 		movt	r3, #:upper16:ADC_Voltage_Target_started
 2052 004e 4FF00102 		mov	r2, #1
 2053 0052 1A70     		strb	r2, [r3, #0]
 2054              	.L92:
1467:.\Generated_Source\PSoC5/ADC_Voltage_Target.c ****         }
1468:.\Generated_Source\PSoC5/ADC_Voltage_Target.c **** 		
1469:.\Generated_Source\PSoC5/ADC_Voltage_Target.c **** 		/* Update the config flag */
1470:.\Generated_Source\PSoC5/ADC_Voltage_Target.c **** 		ADC_Voltage_Target_Config = config;
 2055              		.loc 1 1470 0
 2056 0054 40F20003 		movw	r3, #:lower16:ADC_Voltage_Target_Config
 2057 0058 C0F20003 		movt	r3, #:upper16:ADC_Voltage_Target_Config
 2058 005c FA79     		ldrb	r2, [r7, #7]
 2059 005e 1A70     		strb	r2, [r3, #0]
1471:.\Generated_Source\PSoC5/ADC_Voltage_Target.c ****        
ARM GAS  C:\DOCUME~1\ADMINI~1\LOCALS~1\Temp\ccfNfb5I.s 			page 63


1472:.\Generated_Source\PSoC5/ADC_Voltage_Target.c ****         /* Stop the ADC  */
1473:.\Generated_Source\PSoC5/ADC_Voltage_Target.c ****         ADC_Voltage_Target_Stop();
 2060              		.loc 1 1473 0
 2061 0060 FFF7FEFF 		bl	ADC_Voltage_Target_Stop
1474:.\Generated_Source\PSoC5/ADC_Voltage_Target.c ****         
1475:.\Generated_Source\PSoC5/ADC_Voltage_Target.c ****         #if (CY_PSOC5A)
1476:.\Generated_Source\PSoC5/ADC_Voltage_Target.c ****             /* Set the structure field which checks whether or not to
1477:.\Generated_Source\PSoC5/ADC_Voltage_Target.c ****                restore the power registers */
1478:.\Generated_Source\PSoC5/ADC_Voltage_Target.c ****             ADC_Voltage_Target_powerModeBackup.bypassRestore = ADC_Voltage_Target_BYPASS_ENABLED;
1479:.\Generated_Source\PSoC5/ADC_Voltage_Target.c ****         #endif /* CY_PSOC5A */
1480:.\Generated_Source\PSoC5/ADC_Voltage_Target.c ****         
1481:.\Generated_Source\PSoC5/ADC_Voltage_Target.c ****         /* Set the  ADC registers based on the configuration */
1482:.\Generated_Source\PSoC5/ADC_Voltage_Target.c ****         ADC_Voltage_Target_InitConfig(config);
 2062              		.loc 1 1482 0
 2063 0064 FB79     		ldrb	r3, [r7, #7]	@ zero_extendqisi2
 2064 0066 1846     		mov	r0, r3
 2065 0068 FFF7FEFF 		bl	ADC_Voltage_Target_InitConfig
1483:.\Generated_Source\PSoC5/ADC_Voltage_Target.c ****         
1484:.\Generated_Source\PSoC5/ADC_Voltage_Target.c ****         /* Trim value calculation */
1485:.\Generated_Source\PSoC5/ADC_Voltage_Target.c ****         if(config == 1u)
 2066              		.loc 1 1485 0
 2067 006c FB79     		ldrb	r3, [r7, #7]	@ zero_extendqisi2
 2068 006e 012B     		cmp	r3, #1
 2069 0070 23D1     		bne	.L93
1486:.\Generated_Source\PSoC5/ADC_Voltage_Target.c ****         {
1487:.\Generated_Source\PSoC5/ADC_Voltage_Target.c ****             inputRange = ADC_Voltage_Target_CFG1_RANGE;
 2070              		.loc 1 1487 0
 2071 0072 4FF00203 		mov	r3, #2
 2072 0076 BB73     		strb	r3, [r7, #14]
1488:.\Generated_Source\PSoC5/ADC_Voltage_Target.c ****             resolution = ADC_Voltage_Target_CFG1_RESOLUTION;
 2073              		.loc 1 1488 0
 2074 0078 4FF00C03 		mov	r3, #12
 2075 007c FB73     		strb	r3, [r7, #15]
1489:.\Generated_Source\PSoC5/ADC_Voltage_Target.c ****             idealGain = ADC_Voltage_Target_CFG1_IDEAL_DEC_GAIN;
 2076              		.loc 1 1489 0
 2077 007e 4FF41043 		mov	r3, #36864
 2078 0082 3B82     		strh	r3, [r7, #16]	@ movhi
1490:.\Generated_Source\PSoC5/ADC_Voltage_Target.c ****             idealOddGain = ADC_Voltage_Target_CFG1_IDEAL_ODDDEC_GAIN;
 2079              		.loc 1 1490 0
 2080 0084 4FF40043 		mov	r3, #32768
 2081 0088 FB82     		strh	r3, [r7, #22]	@ movhi
1491:.\Generated_Source\PSoC5/ADC_Voltage_Target.c ****             adcClockDivider = ADC_Voltage_Target_RoundValue((uint32)BCLK__BUS_CLK__HZ,
 2082              		.loc 1 1491 0
 2083 008a 49F20000 		movw	r0, #:lower16:64000000
 2084 008e C0F2D030 		movt	r0, #:upper16:64000000
 2085 0092 4EF20021 		movw	r1, #:lower16:320000
 2086 0096 C0F20401 		movt	r1, #:upper16:320000
 2087 009a FFF7FEFF 		bl	ADC_Voltage_Target_RoundValue
 2088 009e 0346     		mov	r3, r0
 2089 00a0 7B82     		strh	r3, [r7, #18]	@ movhi
1492:.\Generated_Source\PSoC5/ADC_Voltage_Target.c ****                                                        (uint32)ADC_Voltage_Target_CFG1_CLOCK_FREQ);
1493:.\Generated_Source\PSoC5/ADC_Voltage_Target.c ****             cpClockDivider = ADC_Voltage_Target_RoundValue((uint32)BCLK__BUS_CLK__HZ,
 2090              		.loc 1 1493 0
 2091 00a2 49F20000 		movw	r0, #:lower16:64000000
 2092 00a6 C0F2D030 		movt	r0, #:upper16:64000000
 2093 00aa 48F60001 		movw	r1, #:lower16:1280000
 2094 00ae C0F21301 		movt	r1, #:upper16:1280000
ARM GAS  C:\DOCUME~1\ADMINI~1\LOCALS~1\Temp\ccfNfb5I.s 			page 64


 2095 00b2 FFF7FEFF 		bl	ADC_Voltage_Target_RoundValue
 2096 00b6 0346     		mov	r3, r0
 2097 00b8 BB82     		strh	r3, [r7, #20]	@ movhi
 2098              	.L93:
1494:.\Generated_Source\PSoC5/ADC_Voltage_Target.c ****                                                        (uint32)ADC_Voltage_Target_CFG1_CP_CLOCK_FRE
1495:.\Generated_Source\PSoC5/ADC_Voltage_Target.c ****         }
1496:.\Generated_Source\PSoC5/ADC_Voltage_Target.c **** 
1497:.\Generated_Source\PSoC5/ADC_Voltage_Target.c ****         #if (ADC_Voltage_Target_DEFAULT_NUM_CONFIGS > 1)
1498:.\Generated_Source\PSoC5/ADC_Voltage_Target.c ****             if(config == 2u)
1499:.\Generated_Source\PSoC5/ADC_Voltage_Target.c ****             {
1500:.\Generated_Source\PSoC5/ADC_Voltage_Target.c ****                 inputRange = ADC_Voltage_Target_CFG2_INPUT_RANGE;
1501:.\Generated_Source\PSoC5/ADC_Voltage_Target.c ****                 resolution = ADC_Voltage_Target_CFG2_RESOLUTION;
1502:.\Generated_Source\PSoC5/ADC_Voltage_Target.c ****                 idealGain = ADC_Voltage_Target_CFG2_IDEAL_DEC_GAIN;
1503:.\Generated_Source\PSoC5/ADC_Voltage_Target.c ****                 idealOddGain = ADC_Voltage_Target_CFG2_IDEAL_ODDDEC_GAIN;
1504:.\Generated_Source\PSoC5/ADC_Voltage_Target.c ****                 adcClockDivider = ADC_Voltage_Target_RoundValue((uint32)BCLK__BUS_CLK__HZ,
1505:.\Generated_Source\PSoC5/ADC_Voltage_Target.c ****                                                             (uint32)ADC_Voltage_Target_CFG2_CLOCK_F
1506:.\Generated_Source\PSoC5/ADC_Voltage_Target.c ****                 cpClockDivider = ADC_Voltage_Target_RoundValue((uint32)BCLK__BUS_CLK__HZ,
1507:.\Generated_Source\PSoC5/ADC_Voltage_Target.c ****                                                        (uint32)ADC_Voltage_Target_CFG2_CP_CLOCK_FRE
1508:.\Generated_Source\PSoC5/ADC_Voltage_Target.c ****             }
1509:.\Generated_Source\PSoC5/ADC_Voltage_Target.c ****         #endif /* ADC_Voltage_Target_DEFAULT_NUM_CONFIGS > 1 */
1510:.\Generated_Source\PSoC5/ADC_Voltage_Target.c **** 
1511:.\Generated_Source\PSoC5/ADC_Voltage_Target.c ****         #if(ADC_Voltage_Target_DEFAULT_NUM_CONFIGS > 2)
1512:.\Generated_Source\PSoC5/ADC_Voltage_Target.c ****             if(config == 3u)
1513:.\Generated_Source\PSoC5/ADC_Voltage_Target.c ****             {
1514:.\Generated_Source\PSoC5/ADC_Voltage_Target.c ****                 inputRange = ADC_Voltage_Target_CFG3_INPUT_RANGE;
1515:.\Generated_Source\PSoC5/ADC_Voltage_Target.c ****                 resolution = ADC_Voltage_Target_CFG3_RESOLUTION;
1516:.\Generated_Source\PSoC5/ADC_Voltage_Target.c ****                 idealGain = ADC_Voltage_Target_CFG3_IDEAL_DEC_GAIN;
1517:.\Generated_Source\PSoC5/ADC_Voltage_Target.c ****                 idealOddGain = ADC_Voltage_Target_CFG3_IDEAL_ODDDEC_GAIN;
1518:.\Generated_Source\PSoC5/ADC_Voltage_Target.c ****                 adcClockDivider = ADC_Voltage_Target_RoundValue((uint32)BCLK__BUS_CLK__HZ,
1519:.\Generated_Source\PSoC5/ADC_Voltage_Target.c ****                                                             (uint32)ADC_Voltage_Target_CFG3_CLOCK_F
1520:.\Generated_Source\PSoC5/ADC_Voltage_Target.c ****                 cpClockDivider = ADC_Voltage_Target_RoundValue((uint32)BCLK__BUS_CLK__HZ,
1521:.\Generated_Source\PSoC5/ADC_Voltage_Target.c ****                                                        (uint32)ADC_Voltage_Target_CFG3_CP_CLOCK_FRE
1522:.\Generated_Source\PSoC5/ADC_Voltage_Target.c ****             }
1523:.\Generated_Source\PSoC5/ADC_Voltage_Target.c ****         #endif /* ADC_Voltage_Target_DEFAULT_NUM_CONFIGS > 2 */
1524:.\Generated_Source\PSoC5/ADC_Voltage_Target.c **** 
1525:.\Generated_Source\PSoC5/ADC_Voltage_Target.c ****         #if (ADC_Voltage_Target_DEFAULT_NUM_CONFIGS > 3)
1526:.\Generated_Source\PSoC5/ADC_Voltage_Target.c ****             if(config == 4u)
1527:.\Generated_Source\PSoC5/ADC_Voltage_Target.c ****             {
1528:.\Generated_Source\PSoC5/ADC_Voltage_Target.c ****                 inputRange = ADC_Voltage_Target_CFG4_INPUT_RANGE;
1529:.\Generated_Source\PSoC5/ADC_Voltage_Target.c ****                 resolution = ADC_Voltage_Target_CFG4_RESOLUTION;
1530:.\Generated_Source\PSoC5/ADC_Voltage_Target.c ****                 idealGain = ADC_Voltage_Target_CFG4_IDEAL_DEC_GAIN;
1531:.\Generated_Source\PSoC5/ADC_Voltage_Target.c ****                 idealOddGain = ADC_Voltage_Target_CFG4_IDEAL_ODDDEC_GAIN;
1532:.\Generated_Source\PSoC5/ADC_Voltage_Target.c ****                 adcClockDivider = ADC_Voltage_Target_RoundValue((uint32)BCLK__BUS_CLK__HZ,  
1533:.\Generated_Source\PSoC5/ADC_Voltage_Target.c ****                                                             (uint32)ADC_Voltage_Target_CFG4_CLOCK_F
1534:.\Generated_Source\PSoC5/ADC_Voltage_Target.c ****                 cpClockDivider = ADC_Voltage_Target_RoundValue((uint32)BCLK__BUS_CLK__HZ,
1535:.\Generated_Source\PSoC5/ADC_Voltage_Target.c ****                                                        (uint32)ADC_Voltage_Target_CFG4_CP_CLOCK_FRE
1536:.\Generated_Source\PSoC5/ADC_Voltage_Target.c ****             }
1537:.\Generated_Source\PSoC5/ADC_Voltage_Target.c ****         #endif /* ADC_Voltage_Target_DEFAULT_NUM_CONFIGS > 3 */
1538:.\Generated_Source\PSoC5/ADC_Voltage_Target.c ****         
1539:.\Generated_Source\PSoC5/ADC_Voltage_Target.c ****         adcClockDivider = adcClockDivider - 1;
 2099              		.loc 1 1539 0
 2100 00ba 7B8A     		ldrh	r3, [r7, #18]	@ movhi
 2101 00bc 03F1FF33 		add	r3, r3, #-1
 2102 00c0 7B82     		strh	r3, [r7, #18]	@ movhi
1540:.\Generated_Source\PSoC5/ADC_Voltage_Target.c ****         /* Set the proper divider for the internal clock */
1541:.\Generated_Source\PSoC5/ADC_Voltage_Target.c ****         #if(ADC_Voltage_Target_DEFAULT_INTERNAL_CLK)
1542:.\Generated_Source\PSoC5/ADC_Voltage_Target.c ****             ADC_Voltage_Target_theACLK_SetDividerRegister(adcClockDivider, 1);
ARM GAS  C:\DOCUME~1\ADMINI~1\LOCALS~1\Temp\ccfNfb5I.s 			page 65


 2103              		.loc 1 1542 0
 2104 00c2 7B8A     		ldrh	r3, [r7, #18]
 2105 00c4 1846     		mov	r0, r3
 2106 00c6 4FF00101 		mov	r1, #1
 2107 00ca FFF7FEFF 		bl	ADC_Voltage_Target_theACLK_SetDividerRegister
1543:.\Generated_Source\PSoC5/ADC_Voltage_Target.c ****         #endif /* ADC_Voltage_Target_DEFAULT_INTERNAL_CLK */
1544:.\Generated_Source\PSoC5/ADC_Voltage_Target.c ****         
1545:.\Generated_Source\PSoC5/ADC_Voltage_Target.c ****         cpClockDivider = cpClockDivider - 1;
 2108              		.loc 1 1545 0
 2109 00ce BB8A     		ldrh	r3, [r7, #20]	@ movhi
 2110 00d0 03F1FF33 		add	r3, r3, #-1
 2111 00d4 BB82     		strh	r3, [r7, #20]	@ movhi
1546:.\Generated_Source\PSoC5/ADC_Voltage_Target.c ****         /* Set the proper divider for the Charge pump clock */
1547:.\Generated_Source\PSoC5/ADC_Voltage_Target.c ****         ADC_Voltage_Target_Ext_CP_Clk_SetDividerRegister(cpClockDivider, 1);
 2112              		.loc 1 1547 0
 2113 00d6 BB8A     		ldrh	r3, [r7, #20]
 2114 00d8 1846     		mov	r0, r3
 2115 00da 4FF00101 		mov	r1, #1
 2116 00de FFF7FEFF 		bl	ADC_Voltage_Target_Ext_CP_Clk_SetDividerRegister
1548:.\Generated_Source\PSoC5/ADC_Voltage_Target.c ****         
1549:.\Generated_Source\PSoC5/ADC_Voltage_Target.c ****         /* Compensate the gain */
1550:.\Generated_Source\PSoC5/ADC_Voltage_Target.c ****         ADC_Voltage_Target_GainCompensation(inputRange, idealGain, idealOddGain, resolution);
 2117              		.loc 1 1550 0
 2118 00e2 B87B     		ldrb	r0, [r7, #14]	@ zero_extendqisi2
 2119 00e4 398A     		ldrh	r1, [r7, #16]
 2120 00e6 FA8A     		ldrh	r2, [r7, #22]
 2121 00e8 FB7B     		ldrb	r3, [r7, #15]	@ zero_extendqisi2
 2122 00ea FFF7FEFF 		bl	ADC_Voltage_Target_GainCompensation
1551:.\Generated_Source\PSoC5/ADC_Voltage_Target.c ****         
1552:.\Generated_Source\PSoC5/ADC_Voltage_Target.c ****         if(restart == 1u)
 2123              		.loc 1 1552 0
 2124 00ee BB79     		ldrb	r3, [r7, #6]	@ zero_extendqisi2
 2125 00f0 012B     		cmp	r3, #1
 2126 00f2 03D1     		bne	.L94
1553:.\Generated_Source\PSoC5/ADC_Voltage_Target.c ****         {        
1554:.\Generated_Source\PSoC5/ADC_Voltage_Target.c ****             /* Restart the ADC */
1555:.\Generated_Source\PSoC5/ADC_Voltage_Target.c ****             ADC_Voltage_Target_Start();
 2127              		.loc 1 1555 0
 2128 00f4 FFF7FEFF 		bl	ADC_Voltage_Target_Start
1556:.\Generated_Source\PSoC5/ADC_Voltage_Target.c ****             
1557:.\Generated_Source\PSoC5/ADC_Voltage_Target.c ****             /* Code to disable the REFBUF0 if reference chosen is External ref */
1558:.\Generated_Source\PSoC5/ADC_Voltage_Target.c ****             #if (((ADC_Voltage_Target_CFG2_REFERENCE == ADC_Voltage_Target_EXT_REF_ON_P03) || \
1559:.\Generated_Source\PSoC5/ADC_Voltage_Target.c ****                  (ADC_Voltage_Target_CFG2_REFERENCE == ADC_Voltage_Target_EXT_REF_ON_P32)) || \
1560:.\Generated_Source\PSoC5/ADC_Voltage_Target.c ****                  ((ADC_Voltage_Target_CFG3_REFERENCE == ADC_Voltage_Target_EXT_REF_ON_P03) || \
1561:.\Generated_Source\PSoC5/ADC_Voltage_Target.c ****                  (ADC_Voltage_Target_CFG3_REFERENCE == ADC_Voltage_Target_EXT_REF_ON_P32)) || \
1562:.\Generated_Source\PSoC5/ADC_Voltage_Target.c ****                  ((ADC_Voltage_Target_CFG4_REFERENCE == ADC_Voltage_Target_EXT_REF_ON_P03) || \
1563:.\Generated_Source\PSoC5/ADC_Voltage_Target.c ****                  (ADC_Voltage_Target_CFG4_REFERENCE == ADC_Voltage_Target_EXT_REF_ON_P32)))
1564:.\Generated_Source\PSoC5/ADC_Voltage_Target.c ****                 if (((config == 2) && 
1565:.\Generated_Source\PSoC5/ADC_Voltage_Target.c ****                     ((ADC_Voltage_Target_CFG2_REFERENCE == ADC_Voltage_Target_EXT_REF_ON_P03) ||
1566:.\Generated_Source\PSoC5/ADC_Voltage_Target.c ****                     (ADC_Voltage_Target_CFG2_REFERENCE == ADC_Voltage_Target_EXT_REF_ON_P32))) ||
1567:.\Generated_Source\PSoC5/ADC_Voltage_Target.c ****                     ((config == 3) && 
1568:.\Generated_Source\PSoC5/ADC_Voltage_Target.c ****                     ((ADC_Voltage_Target_CFG3_REFERENCE == ADC_Voltage_Target_EXT_REF_ON_P03) ||
1569:.\Generated_Source\PSoC5/ADC_Voltage_Target.c ****                     (ADC_Voltage_Target_CFG3_REFERENCE == ADC_Voltage_Target_EXT_REF_ON_P32))) ||
1570:.\Generated_Source\PSoC5/ADC_Voltage_Target.c ****                     ((config == 4) && 
1571:.\Generated_Source\PSoC5/ADC_Voltage_Target.c ****                     ((ADC_Voltage_Target_CFG4_REFERENCE == ADC_Voltage_Target_EXT_REF_ON_P03) ||
1572:.\Generated_Source\PSoC5/ADC_Voltage_Target.c ****                     (ADC_Voltage_Target_CFG4_REFERENCE == ADC_Voltage_Target_EXT_REF_ON_P32))))
1573:.\Generated_Source\PSoC5/ADC_Voltage_Target.c ****                 {
ARM GAS  C:\DOCUME~1\ADMINI~1\LOCALS~1\Temp\ccfNfb5I.s 			page 66


1574:.\Generated_Source\PSoC5/ADC_Voltage_Target.c ****                     /* Disable PRES, Enable power to VCMBUF0, REFBUF0 and 
1575:.\Generated_Source\PSoC5/ADC_Voltage_Target.c ****                        REFBUF1, enable PRES */
1576:.\Generated_Source\PSoC5/ADC_Voltage_Target.c ****                     #if (CY_PSOC3 || CY_PSOC5LP)
1577:.\Generated_Source\PSoC5/ADC_Voltage_Target.c ****                         ADC_Voltage_Target_RESET_CR4_REG |= ADC_Voltage_Target_IGNORE_PRESA1;
1578:.\Generated_Source\PSoC5/ADC_Voltage_Target.c ****                         ADC_Voltage_Target_RESET_CR5_REG |= ADC_Voltage_Target_IGNORE_PRESA2;
1579:.\Generated_Source\PSoC5/ADC_Voltage_Target.c ****                     #elif (CY_PSOC5A)
1580:.\Generated_Source\PSoC5/ADC_Voltage_Target.c ****                         ADC_Voltage_Target_RESET_CR1_REG |= ADC_Voltage_Target_DIS_PRES1;
1581:.\Generated_Source\PSoC5/ADC_Voltage_Target.c ****                         ADC_Voltage_Target_RESET_CR3_REG |= ADC_Voltage_Target_DIS_PRES2;
1582:.\Generated_Source\PSoC5/ADC_Voltage_Target.c ****                     #endif /* CY_PSOC5A */
1583:.\Generated_Source\PSoC5/ADC_Voltage_Target.c ****         
1584:.\Generated_Source\PSoC5/ADC_Voltage_Target.c ****                     /* Disable the REFBUF0 */
1585:.\Generated_Source\PSoC5/ADC_Voltage_Target.c ****                     ADC_Voltage_Target_DSM_CR17_REG &= ~ADC_Voltage_Target_DSM_EN_BUF_VREF;
1586:.\Generated_Source\PSoC5/ADC_Voltage_Target.c ****                     
1587:.\Generated_Source\PSoC5/ADC_Voltage_Target.c ****                     /* Wait for 3 microseconds */
1588:.\Generated_Source\PSoC5/ADC_Voltage_Target.c ****                     CyDelayUs(3);
1589:.\Generated_Source\PSoC5/ADC_Voltage_Target.c ****                     /* Enable the press circuit */
1590:.\Generated_Source\PSoC5/ADC_Voltage_Target.c ****                     #if (CY_PSOC3 || CY_PSOC5LP)
1591:.\Generated_Source\PSoC5/ADC_Voltage_Target.c ****                         ADC_Voltage_Target_RESET_CR4_REG &= ~ADC_Voltage_Target_IGNORE_PRESA1;
1592:.\Generated_Source\PSoC5/ADC_Voltage_Target.c ****                         ADC_Voltage_Target_RESET_CR5_REG &= ~ADC_Voltage_Target_IGNORE_PRESA2;
1593:.\Generated_Source\PSoC5/ADC_Voltage_Target.c ****                     #elif (CY_PSOC5A)
1594:.\Generated_Source\PSoC5/ADC_Voltage_Target.c ****                         ADC_Voltage_Target_RESET_CR1_REG &= ~ADC_Voltage_Target_DIS_PRES1;
1595:.\Generated_Source\PSoC5/ADC_Voltage_Target.c ****                         ADC_Voltage_Target_RESET_CR3_REG &= ~ADC_Voltage_Target_DIS_PRES2;
1596:.\Generated_Source\PSoC5/ADC_Voltage_Target.c ****                     #endif /* CY_PSOC5A */
1597:.\Generated_Source\PSoC5/ADC_Voltage_Target.c ****                 }
1598:.\Generated_Source\PSoC5/ADC_Voltage_Target.c ****             #endif /* */
1599:.\Generated_Source\PSoC5/ADC_Voltage_Target.c ****             
1600:.\Generated_Source\PSoC5/ADC_Voltage_Target.c ****             #if ((CY_PSOC3 || CY_PSOC5LP) && \
1601:.\Generated_Source\PSoC5/ADC_Voltage_Target.c ****                  ((ADC_Voltage_Target_CFG2_INPUT_RANGE == ADC_Voltage_Target_IR_VSSA_TO_2VREF) || \
1602:.\Generated_Source\PSoC5/ADC_Voltage_Target.c ****                   (ADC_Voltage_Target_CFG3_INPUT_RANGE == ADC_Voltage_Target_IR_VSSA_TO_2VREF) || \
1603:.\Generated_Source\PSoC5/ADC_Voltage_Target.c ****                   (ADC_Voltage_Target_CFG4_INPUT_RANGE == ADC_Voltage_Target_IR_VSSA_TO_2VREF)))
1604:.\Generated_Source\PSoC5/ADC_Voltage_Target.c ****                 if(((config == 2) && 
1605:.\Generated_Source\PSoC5/ADC_Voltage_Target.c ****                     (ADC_Voltage_Target_CFG2_INPUT_RANGE == ADC_Voltage_Target_IR_VSSA_TO_2VREF) &&
1606:.\Generated_Source\PSoC5/ADC_Voltage_Target.c ****                     ((ADC_Voltage_Target_CFG2_REFERENCE != ADC_Voltage_Target_EXT_REF_ON_P03) && 
1607:.\Generated_Source\PSoC5/ADC_Voltage_Target.c ****                      (ADC_Voltage_Target_CFG2_REFERENCE != ADC_Voltage_Target_EXT_REF_ON_P32))) ||
1608:.\Generated_Source\PSoC5/ADC_Voltage_Target.c ****                      ((config == 3) && 
1609:.\Generated_Source\PSoC5/ADC_Voltage_Target.c ****                       (ADC_Voltage_Target_CFG3_INPUT_RANGE == ADC_Voltage_Target_IR_VSSA_TO_2VREF) 
1610:.\Generated_Source\PSoC5/ADC_Voltage_Target.c ****                      ((ADC_Voltage_Target_CFG3_REFERENCE != ADC_Voltage_Target_EXT_REF_ON_P03) && 
1611:.\Generated_Source\PSoC5/ADC_Voltage_Target.c ****                      (ADC_Voltage_Target_CFG3_REFERENCE != ADC_Voltage_Target_EXT_REF_ON_P32))) ||
1612:.\Generated_Source\PSoC5/ADC_Voltage_Target.c ****                      ((config == 4) && 
1613:.\Generated_Source\PSoC5/ADC_Voltage_Target.c ****                       (ADC_Voltage_Target_CFG4_INPUT_RANGE == ADC_Voltage_Target_IR_VSSA_TO_2VREF) 
1614:.\Generated_Source\PSoC5/ADC_Voltage_Target.c ****                      ((ADC_Voltage_Target_CFG4_REFERENCE != ADC_Voltage_Target_EXT_REF_ON_P03) && 
1615:.\Generated_Source\PSoC5/ADC_Voltage_Target.c ****                      (ADC_Voltage_Target_CFG4_REFERENCE != ADC_Voltage_Target_EXT_REF_ON_P32))))
1616:.\Generated_Source\PSoC5/ADC_Voltage_Target.c ****                 {
1617:.\Generated_Source\PSoC5/ADC_Voltage_Target.c ****                     /* Disable PRES, Enable power to VCMBUF0, REFBUF0 and 
1618:.\Generated_Source\PSoC5/ADC_Voltage_Target.c ****                        REFBUF1, enable PRES */
1619:.\Generated_Source\PSoC5/ADC_Voltage_Target.c ****                     #if (CY_PSOC3 || CY_PSOC5LP)
1620:.\Generated_Source\PSoC5/ADC_Voltage_Target.c ****                         ADC_Voltage_Target_RESET_CR4_REG |= ADC_Voltage_Target_IGNORE_PRESA1;
1621:.\Generated_Source\PSoC5/ADC_Voltage_Target.c ****                         ADC_Voltage_Target_RESET_CR5_REG |= ADC_Voltage_Target_IGNORE_PRESA2;
1622:.\Generated_Source\PSoC5/ADC_Voltage_Target.c ****                     #elif (CY_PSOC5A)
1623:.\Generated_Source\PSoC5/ADC_Voltage_Target.c ****                         ADC_Voltage_Target_RESET_CR1_REG |= ADC_Voltage_Target_DIS_PRES1;
1624:.\Generated_Source\PSoC5/ADC_Voltage_Target.c ****                         ADC_Voltage_Target_RESET_CR3_REG |= ADC_Voltage_Target_DIS_PRES2;
1625:.\Generated_Source\PSoC5/ADC_Voltage_Target.c ****                     #endif /* CY_PSOC5A */
1626:.\Generated_Source\PSoC5/ADC_Voltage_Target.c ****         
1627:.\Generated_Source\PSoC5/ADC_Voltage_Target.c ****                     /* Enable the REFBUF1 */
1628:.\Generated_Source\PSoC5/ADC_Voltage_Target.c ****                     ADC_Voltage_Target_DSM_REF0_REG |= ADC_Voltage_Target_DSM_EN_BUF_VREF_INN;
1629:.\Generated_Source\PSoC5/ADC_Voltage_Target.c ****                     
1630:.\Generated_Source\PSoC5/ADC_Voltage_Target.c ****                     /* Wait for 3 microseconds */
ARM GAS  C:\DOCUME~1\ADMINI~1\LOCALS~1\Temp\ccfNfb5I.s 			page 67


1631:.\Generated_Source\PSoC5/ADC_Voltage_Target.c ****                     CyDelayUs(3);
1632:.\Generated_Source\PSoC5/ADC_Voltage_Target.c ****                     /* Enable the press circuit */
1633:.\Generated_Source\PSoC5/ADC_Voltage_Target.c ****                     #if (CY_PSOC3 || CY_PSOC5LP)
1634:.\Generated_Source\PSoC5/ADC_Voltage_Target.c ****                         ADC_Voltage_Target_RESET_CR4_REG &= ~ADC_Voltage_Target_IGNORE_PRESA1;
1635:.\Generated_Source\PSoC5/ADC_Voltage_Target.c ****                         ADC_Voltage_Target_RESET_CR5_REG &= ~ADC_Voltage_Target_IGNORE_PRESA2;
1636:.\Generated_Source\PSoC5/ADC_Voltage_Target.c ****                     #elif (CY_PSOC5A)
1637:.\Generated_Source\PSoC5/ADC_Voltage_Target.c ****                         ADC_Voltage_Target_RESET_CR1_REG &= ~ADC_Voltage_Target_DIS_PRES1;
1638:.\Generated_Source\PSoC5/ADC_Voltage_Target.c ****                         ADC_Voltage_Target_RESET_CR3_REG &= ~ADC_Voltage_Target_DIS_PRES2;
1639:.\Generated_Source\PSoC5/ADC_Voltage_Target.c ****                     #endif /* CY_PSOC5A */
1640:.\Generated_Source\PSoC5/ADC_Voltage_Target.c ****                 }
1641:.\Generated_Source\PSoC5/ADC_Voltage_Target.c ****             #endif /* (CY_PSOC3 || CY_PSOC5LP) */
1642:.\Generated_Source\PSoC5/ADC_Voltage_Target.c ****         
1643:.\Generated_Source\PSoC5/ADC_Voltage_Target.c ****             /* Restart the ADC conversion */
1644:.\Generated_Source\PSoC5/ADC_Voltage_Target.c ****             ADC_Voltage_Target_StartConvert();
 2129              		.loc 1 1644 0
 2130 00f8 FFF7FEFF 		bl	ADC_Voltage_Target_StartConvert
 2131              	.L94:
1645:.\Generated_Source\PSoC5/ADC_Voltage_Target.c ****         }
1646:.\Generated_Source\PSoC5/ADC_Voltage_Target.c ****     }
1647:.\Generated_Source\PSoC5/ADC_Voltage_Target.c **** }     
 2132              		.loc 1 1647 0
 2133 00fc 07F11807 		add	r7, r7, #24
 2134 0100 BD46     		mov	sp, r7
 2135 0102 80BD     		pop	{r7, pc}
 2136              		.cfi_endproc
 2137              	.LFE23:
 2138              		.size	ADC_Voltage_Target_SelectConfiguration, .-ADC_Voltage_Target_SelectConfiguration
 2139              		.section	.text.ADC_Voltage_Target_GainCompensation,"ax",%progbits
 2140              		.align	2
 2141              		.global	ADC_Voltage_Target_GainCompensation
 2142              		.thumb
 2143              		.thumb_func
 2144              		.type	ADC_Voltage_Target_GainCompensation, %function
 2145              	ADC_Voltage_Target_GainCompensation:
 2146              	.LFB24:
1648:.\Generated_Source\PSoC5/ADC_Voltage_Target.c **** 
1649:.\Generated_Source\PSoC5/ADC_Voltage_Target.c **** 
1650:.\Generated_Source\PSoC5/ADC_Voltage_Target.c **** /*******************************************************************************
1651:.\Generated_Source\PSoC5/ADC_Voltage_Target.c **** * Function Name: ADC_Voltage_Target_GainCompensation(uint8, uint16, uint16, uint8)
1652:.\Generated_Source\PSoC5/ADC_Voltage_Target.c **** ********************************************************************************
1653:.\Generated_Source\PSoC5/ADC_Voltage_Target.c **** *
1654:.\Generated_Source\PSoC5/ADC_Voltage_Target.c **** * Summary:
1655:.\Generated_Source\PSoC5/ADC_Voltage_Target.c **** *  This API calculates the trim value and then loads this to GCOR register.
1656:.\Generated_Source\PSoC5/ADC_Voltage_Target.c **** *
1657:.\Generated_Source\PSoC5/ADC_Voltage_Target.c **** * Parameters:  
1658:.\Generated_Source\PSoC5/ADC_Voltage_Target.c **** *  inputRange:  input range for which trim value is to be calculated.
1659:.\Generated_Source\PSoC5/ADC_Voltage_Target.c **** *  IdealDecGain:  Ideal Decimator gain for the selected resolution and 
1660:.\Generated_Source\PSoC5/ADC_Voltage_Target.c **** *                 conversion  mode.
1661:.\Generated_Source\PSoC5/ADC_Voltage_Target.c **** *  IdealOddDecGain:  Ideal odd decimation gain for the selected resolution and 
1662:.\Generated_Source\PSoC5/ADC_Voltage_Target.c ****                      conversion mode.
1663:.\Generated_Source\PSoC5/ADC_Voltage_Target.c **** *  resolution:  Resolution to select the proper flash location for trim value.
1664:.\Generated_Source\PSoC5/ADC_Voltage_Target.c **** *
1665:.\Generated_Source\PSoC5/ADC_Voltage_Target.c **** * Return: 
1666:.\Generated_Source\PSoC5/ADC_Voltage_Target.c **** *  void
1667:.\Generated_Source\PSoC5/ADC_Voltage_Target.c **** *
1668:.\Generated_Source\PSoC5/ADC_Voltage_Target.c **** *******************************************************************************/
1669:.\Generated_Source\PSoC5/ADC_Voltage_Target.c **** void ADC_Voltage_Target_GainCompensation(uint8 inputRange, uint16 IdealDecGain, uint16 IdealOddDecG
ARM GAS  C:\DOCUME~1\ADMINI~1\LOCALS~1\Temp\ccfNfb5I.s 			page 68


1670:.\Generated_Source\PSoC5/ADC_Voltage_Target.c ****                                        uint8 resolution) 
1671:.\Generated_Source\PSoC5/ADC_Voltage_Target.c **** {
 2147              		.loc 1 1671 0
 2148              		.cfi_startproc
 2149              		@ args = 0, pretend = 0, frame = 24
 2150              		@ frame_needed = 1, uses_anonymous_args = 0
 2151              		@ link register save eliminated.
 2152 0000 80B4     		push	{r7}
 2153              	.LCFI64:
 2154              		.cfi_def_cfa_offset 4
 2155 0002 87B0     		sub	sp, sp, #28
 2156              	.LCFI65:
 2157              		.cfi_def_cfa_offset 32
 2158 0004 00AF     		add	r7, sp, #0
 2159              		.cfi_offset 7, -4
 2160              	.LCFI66:
 2161              		.cfi_def_cfa_register 7
 2162 0006 F871     		strb	r0, [r7, #7]
 2163 0008 B980     		strh	r1, [r7, #4]	@ movhi
 2164 000a 7A80     		strh	r2, [r7, #2]	@ movhi
 2165 000c 7B70     		strb	r3, [r7, #1]
1672:.\Generated_Source\PSoC5/ADC_Voltage_Target.c ****     int8 flash;
1673:.\Generated_Source\PSoC5/ADC_Voltage_Target.c ****     int16 Normalised;
1674:.\Generated_Source\PSoC5/ADC_Voltage_Target.c ****     uint16 GcorValue;
1675:.\Generated_Source\PSoC5/ADC_Voltage_Target.c ****     uint32 GcorTmp;
1676:.\Generated_Source\PSoC5/ADC_Voltage_Target.c ****     
1677:.\Generated_Source\PSoC5/ADC_Voltage_Target.c ****     switch(inputRange)
 2166              		.loc 1 1677 0
 2167 000e FB79     		ldrb	r3, [r7, #7]	@ zero_extendqisi2
 2168 0010 A3F10403 		sub	r3, r3, #4
 2169 0014 062B     		cmp	r3, #6
 2170 0016 5DD8     		bhi	.L96
 2171 0018 01A2     		adr	r2, .L101
 2172 001a 52F823F0 		ldr	pc, [r2, r3, lsl #2]
 2173 001e 00BF     		.align	2
 2174              	.L101:
 2175 0020 3D000000 		.word	.L97+1
 2176 0024 D5000000 		.word	.L96+1
 2177 0028 D5000000 		.word	.L96+1
 2178 002c 63000000 		.word	.L98+1
 2179 0030 89000000 		.word	.L99+1
 2180 0034 D5000000 		.word	.L96+1
 2181 0038 AF000000 		.word	.L100+1
 2182              	.L97:
1678:.\Generated_Source\PSoC5/ADC_Voltage_Target.c ****     {         
1679:.\Generated_Source\PSoC5/ADC_Voltage_Target.c ****         case ADC_Voltage_Target_IR_VNEG_VREF_DIFF:
1680:.\Generated_Source\PSoC5/ADC_Voltage_Target.c ****         
1681:.\Generated_Source\PSoC5/ADC_Voltage_Target.c ****         /* Normalize the flash Value */
1682:.\Generated_Source\PSoC5/ADC_Voltage_Target.c ****         if(resolution > 15)
 2183              		.loc 1 1682 0
 2184 003c 7B78     		ldrb	r3, [r7, #1]	@ zero_extendqisi2
 2185 003e 0F2B     		cmp	r3, #15
 2186 0040 07D9     		bls	.L102
1683:.\Generated_Source\PSoC5/ADC_Voltage_Target.c ****         {
1684:.\Generated_Source\PSoC5/ADC_Voltage_Target.c ****             flash = ADC_Voltage_Target_DEC_TRIM_VREF_DIFF_16_20; 
 2187              		.loc 1 1684 0
 2188 0042 40F21813 		movw	r3, #:lower16:1224737048
ARM GAS  C:\DOCUME~1\ADMINI~1\LOCALS~1\Temp\ccfNfb5I.s 			page 69


 2189 0046 C4F60013 		movt	r3, #:upper16:1224737048
 2190 004a 1B78     		ldrb	r3, [r3, #0]
 2191 004c DBB2     		uxtb	r3, r3
 2192 004e FB73     		strb	r3, [r7, #15]
1685:.\Generated_Source\PSoC5/ADC_Voltage_Target.c ****         }    
1686:.\Generated_Source\PSoC5/ADC_Voltage_Target.c ****         else
1687:.\Generated_Source\PSoC5/ADC_Voltage_Target.c ****         {
1688:.\Generated_Source\PSoC5/ADC_Voltage_Target.c ****             flash = ADC_Voltage_Target_DEC_TRIM_VREF_DIFF_8_15;
1689:.\Generated_Source\PSoC5/ADC_Voltage_Target.c ****         }        
1690:.\Generated_Source\PSoC5/ADC_Voltage_Target.c ****         break;
 2193              		.loc 1 1690 0
 2194 0050 43E0     		b	.L104
 2195              	.L102:
 2196              		.loc 1 1688 0
 2197 0052 40F21C13 		movw	r3, #:lower16:1224737052
 2198 0056 C4F60013 		movt	r3, #:upper16:1224737052
 2199 005a 1B78     		ldrb	r3, [r3, #0]
 2200 005c DBB2     		uxtb	r3, r3
 2201 005e FB73     		strb	r3, [r7, #15]
 2202              		.loc 1 1690 0
 2203 0060 3BE0     		b	.L104
 2204              	.L98:
1691:.\Generated_Source\PSoC5/ADC_Voltage_Target.c ****         
1692:.\Generated_Source\PSoC5/ADC_Voltage_Target.c ****         case ADC_Voltage_Target_IR_VNEG_VREF_2_DIFF:
1693:.\Generated_Source\PSoC5/ADC_Voltage_Target.c ****         
1694:.\Generated_Source\PSoC5/ADC_Voltage_Target.c ****         /* Normalize the flash Value */
1695:.\Generated_Source\PSoC5/ADC_Voltage_Target.c ****         if(resolution > 15)
 2205              		.loc 1 1695 0
 2206 0062 7B78     		ldrb	r3, [r7, #1]	@ zero_extendqisi2
 2207 0064 0F2B     		cmp	r3, #15
 2208 0066 07D9     		bls	.L105
1696:.\Generated_Source\PSoC5/ADC_Voltage_Target.c ****         {
1697:.\Generated_Source\PSoC5/ADC_Voltage_Target.c ****             flash = ADC_Voltage_Target_DEC_TRIM_VREF_2_DIFF_16_20;
 2209              		.loc 1 1697 0
 2210 0068 40F21913 		movw	r3, #:lower16:1224737049
 2211 006c C4F60013 		movt	r3, #:upper16:1224737049
 2212 0070 1B78     		ldrb	r3, [r3, #0]
 2213 0072 DBB2     		uxtb	r3, r3
 2214 0074 FB73     		strb	r3, [r7, #15]
1698:.\Generated_Source\PSoC5/ADC_Voltage_Target.c ****         }    
1699:.\Generated_Source\PSoC5/ADC_Voltage_Target.c ****         else
1700:.\Generated_Source\PSoC5/ADC_Voltage_Target.c ****         {
1701:.\Generated_Source\PSoC5/ADC_Voltage_Target.c ****             flash = ADC_Voltage_Target_DEC_TRIM_VREF_2_DIFF_8_15;
1702:.\Generated_Source\PSoC5/ADC_Voltage_Target.c ****         }    
1703:.\Generated_Source\PSoC5/ADC_Voltage_Target.c ****         break;
 2215              		.loc 1 1703 0
 2216 0076 30E0     		b	.L104
 2217              	.L105:
 2218              		.loc 1 1701 0
 2219 0078 40F21D13 		movw	r3, #:lower16:1224737053
 2220 007c C4F60013 		movt	r3, #:upper16:1224737053
 2221 0080 1B78     		ldrb	r3, [r3, #0]
 2222 0082 DBB2     		uxtb	r3, r3
 2223 0084 FB73     		strb	r3, [r7, #15]
 2224              		.loc 1 1703 0
 2225 0086 28E0     		b	.L104
 2226              	.L99:
ARM GAS  C:\DOCUME~1\ADMINI~1\LOCALS~1\Temp\ccfNfb5I.s 			page 70


1704:.\Generated_Source\PSoC5/ADC_Voltage_Target.c ****         
1705:.\Generated_Source\PSoC5/ADC_Voltage_Target.c ****         case ADC_Voltage_Target_IR_VNEG_VREF_4_DIFF:
1706:.\Generated_Source\PSoC5/ADC_Voltage_Target.c ****         
1707:.\Generated_Source\PSoC5/ADC_Voltage_Target.c ****         /* Normalize the flash Value */
1708:.\Generated_Source\PSoC5/ADC_Voltage_Target.c ****         if(resolution > 15)
 2227              		.loc 1 1708 0
 2228 0088 7B78     		ldrb	r3, [r7, #1]	@ zero_extendqisi2
 2229 008a 0F2B     		cmp	r3, #15
 2230 008c 07D9     		bls	.L107
1709:.\Generated_Source\PSoC5/ADC_Voltage_Target.c ****         {
1710:.\Generated_Source\PSoC5/ADC_Voltage_Target.c ****             flash = ADC_Voltage_Target_DEC_TRIM_VREF_4_DIFF_16_20;
 2231              		.loc 1 1710 0
 2232 008e 40F21A13 		movw	r3, #:lower16:1224737050
 2233 0092 C4F60013 		movt	r3, #:upper16:1224737050
 2234 0096 1B78     		ldrb	r3, [r3, #0]
 2235 0098 DBB2     		uxtb	r3, r3
 2236 009a FB73     		strb	r3, [r7, #15]
1711:.\Generated_Source\PSoC5/ADC_Voltage_Target.c ****         }    
1712:.\Generated_Source\PSoC5/ADC_Voltage_Target.c ****         else
1713:.\Generated_Source\PSoC5/ADC_Voltage_Target.c ****         {
1714:.\Generated_Source\PSoC5/ADC_Voltage_Target.c ****             flash = ADC_Voltage_Target_DEC_TRIM_VREF_4_DIFF_8_15;
1715:.\Generated_Source\PSoC5/ADC_Voltage_Target.c ****         }    
1716:.\Generated_Source\PSoC5/ADC_Voltage_Target.c ****         break;
 2237              		.loc 1 1716 0
 2238 009c 1DE0     		b	.L104
 2239              	.L107:
 2240              		.loc 1 1714 0
 2241 009e 40F21E13 		movw	r3, #:lower16:1224737054
 2242 00a2 C4F60013 		movt	r3, #:upper16:1224737054
 2243 00a6 1B78     		ldrb	r3, [r3, #0]
 2244 00a8 DBB2     		uxtb	r3, r3
 2245 00aa FB73     		strb	r3, [r7, #15]
 2246              		.loc 1 1716 0
 2247 00ac 15E0     		b	.L104
 2248              	.L100:
1717:.\Generated_Source\PSoC5/ADC_Voltage_Target.c ****         
1718:.\Generated_Source\PSoC5/ADC_Voltage_Target.c ****         case ADC_Voltage_Target_IR_VNEG_VREF_16_DIFF:
1719:.\Generated_Source\PSoC5/ADC_Voltage_Target.c ****         
1720:.\Generated_Source\PSoC5/ADC_Voltage_Target.c ****         /* Normalize the flash Value */
1721:.\Generated_Source\PSoC5/ADC_Voltage_Target.c ****         if(resolution > 15)
 2249              		.loc 1 1721 0
 2250 00ae 7B78     		ldrb	r3, [r7, #1]	@ zero_extendqisi2
 2251 00b0 0F2B     		cmp	r3, #15
 2252 00b2 07D9     		bls	.L109
1722:.\Generated_Source\PSoC5/ADC_Voltage_Target.c ****         {
1723:.\Generated_Source\PSoC5/ADC_Voltage_Target.c ****             flash = ADC_Voltage_Target_DEC_TRIM_VREF_16_DIFF_16_20;
 2253              		.loc 1 1723 0
 2254 00b4 40F21B13 		movw	r3, #:lower16:1224737051
 2255 00b8 C4F60013 		movt	r3, #:upper16:1224737051
 2256 00bc 1B78     		ldrb	r3, [r3, #0]
 2257 00be DBB2     		uxtb	r3, r3
 2258 00c0 FB73     		strb	r3, [r7, #15]
1724:.\Generated_Source\PSoC5/ADC_Voltage_Target.c ****         }    
1725:.\Generated_Source\PSoC5/ADC_Voltage_Target.c ****         else
1726:.\Generated_Source\PSoC5/ADC_Voltage_Target.c ****         {
1727:.\Generated_Source\PSoC5/ADC_Voltage_Target.c ****             flash = ADC_Voltage_Target_DEC_TRIM_VREF_16_DIFF_8_15;
1728:.\Generated_Source\PSoC5/ADC_Voltage_Target.c ****         }    
ARM GAS  C:\DOCUME~1\ADMINI~1\LOCALS~1\Temp\ccfNfb5I.s 			page 71


1729:.\Generated_Source\PSoC5/ADC_Voltage_Target.c ****         break;
 2259              		.loc 1 1729 0
 2260 00c2 0AE0     		b	.L104
 2261              	.L109:
 2262              		.loc 1 1727 0
 2263 00c4 40F21F13 		movw	r3, #:lower16:1224737055
 2264 00c8 C4F60013 		movt	r3, #:upper16:1224737055
 2265 00cc 1B78     		ldrb	r3, [r3, #0]
 2266 00ce DBB2     		uxtb	r3, r3
 2267 00d0 FB73     		strb	r3, [r7, #15]
 2268              		.loc 1 1729 0
 2269 00d2 02E0     		b	.L104
 2270              	.L96:
1730:.\Generated_Source\PSoC5/ADC_Voltage_Target.c ****         
1731:.\Generated_Source\PSoC5/ADC_Voltage_Target.c ****         default:
1732:.\Generated_Source\PSoC5/ADC_Voltage_Target.c ****             flash = 0;
 2271              		.loc 1 1732 0
 2272 00d4 4FF00003 		mov	r3, #0
 2273 00d8 FB73     		strb	r3, [r7, #15]
 2274              	.L104:
1733:.\Generated_Source\PSoC5/ADC_Voltage_Target.c ****         break;
1734:.\Generated_Source\PSoC5/ADC_Voltage_Target.c ****     }    
1735:.\Generated_Source\PSoC5/ADC_Voltage_Target.c ****     if(inputRange == ADC_Voltage_Target_IR_VSSA_TO_VREF || inputRange == ADC_Voltage_Target_IR_VSSA
 2275              		.loc 1 1735 0
 2276 00da FB79     		ldrb	r3, [r7, #7]	@ zero_extendqisi2
 2277 00dc 002B     		cmp	r3, #0
 2278 00de 11D0     		beq	.L111
 2279 00e0 FB79     		ldrb	r3, [r7, #7]	@ zero_extendqisi2
 2280 00e2 012B     		cmp	r3, #1
 2281 00e4 0ED0     		beq	.L111
 2282 00e6 FB79     		ldrb	r3, [r7, #7]	@ zero_extendqisi2
 2283 00e8 022B     		cmp	r3, #2
 2284 00ea 0BD0     		beq	.L111
 2285 00ec FB79     		ldrb	r3, [r7, #7]	@ zero_extendqisi2
 2286 00ee 032B     		cmp	r3, #3
 2287 00f0 08D0     		beq	.L111
 2288 00f2 FB79     		ldrb	r3, [r7, #7]	@ zero_extendqisi2
 2289 00f4 052B     		cmp	r3, #5
 2290 00f6 05D0     		beq	.L111
 2291 00f8 FB79     		ldrb	r3, [r7, #7]	@ zero_extendqisi2
 2292 00fa 062B     		cmp	r3, #6
 2293 00fc 02D0     		beq	.L111
 2294 00fe FB79     		ldrb	r3, [r7, #7]	@ zero_extendqisi2
 2295 0100 092B     		cmp	r3, #9
 2296 0102 03D1     		bne	.L112
 2297              	.L111:
1736:.\Generated_Source\PSoC5/ADC_Voltage_Target.c ****        inputRange == ADC_Voltage_Target_IR_VSSA_TO_VDDA || inputRange == ADC_Voltage_Target_IR_VSSA
1737:.\Generated_Source\PSoC5/ADC_Voltage_Target.c ****        inputRange == ADC_Voltage_Target_IR_VNEG_2VREF_DIFF || inputRange == ADC_Voltage_Target_IR_V
1738:.\Generated_Source\PSoC5/ADC_Voltage_Target.c ****        inputRange == ADC_Voltage_Target_IR_VNEG_VREF_8_DIFF)
1739:.\Generated_Source\PSoC5/ADC_Voltage_Target.c ****     {
1740:.\Generated_Source\PSoC5/ADC_Voltage_Target.c ****         Normalised  = 0;
 2298              		.loc 1 1740 0
 2299 0104 4FF00003 		mov	r3, #0
 2300 0108 3B82     		strh	r3, [r7, #16]	@ movhi
 2301              		.loc 1 1735 0
 2302 010a 06E0     		b	.L113
 2303              	.L112:
ARM GAS  C:\DOCUME~1\ADMINI~1\LOCALS~1\Temp\ccfNfb5I.s 			page 72


1741:.\Generated_Source\PSoC5/ADC_Voltage_Target.c ****     }
1742:.\Generated_Source\PSoC5/ADC_Voltage_Target.c ****     else
1743:.\Generated_Source\PSoC5/ADC_Voltage_Target.c ****     {
1744:.\Generated_Source\PSoC5/ADC_Voltage_Target.c ****         Normalised  = ((int16)flash) * 32;
 2304              		.loc 1 1744 0
 2305 010c 97F90F30 		ldrsb	r3, [r7, #15]
 2306 0110 9BB2     		uxth	r3, r3
 2307 0112 4FEA4313 		lsl	r3, r3, #5
 2308 0116 9BB2     		uxth	r3, r3
 2309 0118 3B82     		strh	r3, [r7, #16]	@ movhi
 2310              	.L113:
1745:.\Generated_Source\PSoC5/ADC_Voltage_Target.c ****     }
1746:.\Generated_Source\PSoC5/ADC_Voltage_Target.c ****                     
1747:.\Generated_Source\PSoC5/ADC_Voltage_Target.c ****     /* Add two values */
1748:.\Generated_Source\PSoC5/ADC_Voltage_Target.c ****     GcorValue = IdealDecGain + Normalised;  
 2311              		.loc 1 1748 0
 2312 011a 3A8A     		ldrh	r2, [r7, #16]
 2313 011c BB88     		ldrh	r3, [r7, #4]	@ movhi
 2314 011e 1344     		add	r3, r2, r3
 2315 0120 7B82     		strh	r3, [r7, #18]	@ movhi
1749:.\Generated_Source\PSoC5/ADC_Voltage_Target.c ****     GcorTmp = (uint32)GcorValue * (uint32)IdealOddDecGain;
 2316              		.loc 1 1749 0
 2317 0122 7B8A     		ldrh	r3, [r7, #18]
 2318 0124 7A88     		ldrh	r2, [r7, #2]
 2319 0126 02FB03F3 		mul	r3, r2, r3
 2320 012a 7B61     		str	r3, [r7, #20]
1750:.\Generated_Source\PSoC5/ADC_Voltage_Target.c ****     GcorValue = (uint16)(GcorTmp / ADC_Voltage_Target_IDEAL_GAIN_CONST);
 2321              		.loc 1 1750 0
 2322 012c 7B69     		ldr	r3, [r7, #20]
 2323 012e 4FEAD333 		lsr	r3, r3, #15
 2324 0132 7B82     		strh	r3, [r7, #18]	@ movhi
1751:.\Generated_Source\PSoC5/ADC_Voltage_Target.c ****         
1752:.\Generated_Source\PSoC5/ADC_Voltage_Target.c ****     if (resolution < 14)
 2325              		.loc 1 1752 0
 2326 0134 7B78     		ldrb	r3, [r7, #1]	@ zero_extendqisi2
 2327 0136 0D2B     		cmp	r3, #13
 2328 0138 12D8     		bhi	.L114
1753:.\Generated_Source\PSoC5/ADC_Voltage_Target.c ****     {
1754:.\Generated_Source\PSoC5/ADC_Voltage_Target.c ****         GcorValue = (GcorValue >> (15 - (resolution + 1)));
 2329              		.loc 1 1754 0
 2330 013a 7A8A     		ldrh	r2, [r7, #18]
 2331 013c 7B78     		ldrb	r3, [r7, #1]	@ zero_extendqisi2
 2332 013e 6FEA0303 		mvn	r3, r3
 2333 0142 03F10F03 		add	r3, r3, #15
 2334 0146 42FA03F3 		asr	r3, r2, r3
 2335 014a 7B82     		strh	r3, [r7, #18]	@ movhi
1755:.\Generated_Source\PSoC5/ADC_Voltage_Target.c ****         ADC_Voltage_Target_DEC_GVAL_REG = (resolution + 1);
 2336              		.loc 1 1755 0
 2337 014c 44F60E63 		movw	r3, #:lower16:1073761806
 2338 0150 C4F20003 		movt	r3, #:upper16:1073761806
 2339 0154 7A78     		ldrb	r2, [r7, #1]
 2340 0156 02F10102 		add	r2, r2, #1
 2341 015a D2B2     		uxtb	r2, r2
 2342 015c 1A70     		strb	r2, [r3, #0]
 2343 015e 06E0     		b	.L115
 2344              	.L114:
1756:.\Generated_Source\PSoC5/ADC_Voltage_Target.c ****     }
ARM GAS  C:\DOCUME~1\ADMINI~1\LOCALS~1\Temp\ccfNfb5I.s 			page 73


1757:.\Generated_Source\PSoC5/ADC_Voltage_Target.c ****     else
1758:.\Generated_Source\PSoC5/ADC_Voltage_Target.c ****     {
1759:.\Generated_Source\PSoC5/ADC_Voltage_Target.c ****         /* Use all 16 bits */
1760:.\Generated_Source\PSoC5/ADC_Voltage_Target.c ****         ADC_Voltage_Target_DEC_GVAL_REG = 15u;  
 2345              		.loc 1 1760 0
 2346 0160 44F60E63 		movw	r3, #:lower16:1073761806
 2347 0164 C4F20003 		movt	r3, #:upper16:1073761806
 2348 0168 4FF00F02 		mov	r2, #15
 2349 016c 1A70     		strb	r2, [r3, #0]
 2350              	.L115:
1761:.\Generated_Source\PSoC5/ADC_Voltage_Target.c ****     }
1762:.\Generated_Source\PSoC5/ADC_Voltage_Target.c ****       
1763:.\Generated_Source\PSoC5/ADC_Voltage_Target.c ****     /* Load the gain correction register */    
1764:.\Generated_Source\PSoC5/ADC_Voltage_Target.c ****     ADC_Voltage_Target_DEC_GCOR_REG  = (uint8)GcorValue;
 2351              		.loc 1 1764 0
 2352 016e 44F60C63 		movw	r3, #:lower16:1073761804
 2353 0172 C4F20003 		movt	r3, #:upper16:1073761804
 2354 0176 7A8A     		ldrh	r2, [r7, #18]	@ movhi
 2355 0178 D2B2     		uxtb	r2, r2
 2356 017a 1A70     		strb	r2, [r3, #0]
1765:.\Generated_Source\PSoC5/ADC_Voltage_Target.c ****     ADC_Voltage_Target_DEC_GCORH_REG = (uint8)(GcorValue >> 8);    
 2357              		.loc 1 1765 0
 2358 017c 44F60D63 		movw	r3, #:lower16:1073761805
 2359 0180 C4F20003 		movt	r3, #:upper16:1073761805
 2360 0184 7A8A     		ldrh	r2, [r7, #18]
 2361 0186 4FEA1222 		lsr	r2, r2, #8
 2362 018a 92B2     		uxth	r2, r2
 2363 018c D2B2     		uxtb	r2, r2
 2364 018e 1A70     		strb	r2, [r3, #0]
1766:.\Generated_Source\PSoC5/ADC_Voltage_Target.c ****     
1767:.\Generated_Source\PSoC5/ADC_Voltage_Target.c ****     /* Workaround for 0 to 2*Vref mode with PSoC5A siliocn */
1768:.\Generated_Source\PSoC5/ADC_Voltage_Target.c ****     #if( CY_PSOC5A) 
1769:.\Generated_Source\PSoC5/ADC_Voltage_Target.c ****         if( inputRange == ADC_Voltage_Target_IR_VSSA_TO_2VREF)
1770:.\Generated_Source\PSoC5/ADC_Voltage_Target.c ****         {
1771:.\Generated_Source\PSoC5/ADC_Voltage_Target.c ****             ADC_Voltage_Target_DEC_GCOR_REG = 0x00u;
1772:.\Generated_Source\PSoC5/ADC_Voltage_Target.c ****             ADC_Voltage_Target_DEC_GCORH_REG = 0x00u;
1773:.\Generated_Source\PSoC5/ADC_Voltage_Target.c ****             ADC_Voltage_Target_DEC_GVAL_REG = 0x00u;
1774:.\Generated_Source\PSoC5/ADC_Voltage_Target.c ****         }
1775:.\Generated_Source\PSoC5/ADC_Voltage_Target.c ****     #endif /* CY_PSOC5A */
1776:.\Generated_Source\PSoC5/ADC_Voltage_Target.c **** }
 2365              		.loc 1 1776 0
 2366 0190 07F11C07 		add	r7, r7, #28
 2367 0194 BD46     		mov	sp, r7
 2368 0196 80BC     		pop	{r7}
 2369 0198 7047     		bx	lr
 2370              		.cfi_endproc
 2371              	.LFE24:
 2372              		.size	ADC_Voltage_Target_GainCompensation, .-ADC_Voltage_Target_GainCompensation
 2373              		.section	.text.ADC_Voltage_Target_SetDSMRef0Reg,"ax",%progbits
 2374              		.align	2
 2375              		.global	ADC_Voltage_Target_SetDSMRef0Reg
 2376              		.thumb
 2377              		.thumb_func
 2378              		.type	ADC_Voltage_Target_SetDSMRef0Reg, %function
 2379              	ADC_Voltage_Target_SetDSMRef0Reg:
 2380              	.LFB25:
1777:.\Generated_Source\PSoC5/ADC_Voltage_Target.c **** 
ARM GAS  C:\DOCUME~1\ADMINI~1\LOCALS~1\Temp\ccfNfb5I.s 			page 74


1778:.\Generated_Source\PSoC5/ADC_Voltage_Target.c **** 
1779:.\Generated_Source\PSoC5/ADC_Voltage_Target.c **** /******************************************************************************
1780:.\Generated_Source\PSoC5/ADC_Voltage_Target.c **** * Function Name: ADC_Voltage_Target_SetDSMRef0Reg(uint8)
1781:.\Generated_Source\PSoC5/ADC_Voltage_Target.c **** ******************************************************************************
1782:.\Generated_Source\PSoC5/ADC_Voltage_Target.c **** *
1783:.\Generated_Source\PSoC5/ADC_Voltage_Target.c **** * Summary:
1784:.\Generated_Source\PSoC5/ADC_Voltage_Target.c **** *  This API sets the DSM_REF0 register. This is written for internal use.
1785:.\Generated_Source\PSoC5/ADC_Voltage_Target.c **** *
1786:.\Generated_Source\PSoC5/ADC_Voltage_Target.c **** * Parameters:  
1787:.\Generated_Source\PSoC5/ADC_Voltage_Target.c **** *  value:  Value to be written to DSM_REF0 register.
1788:.\Generated_Source\PSoC5/ADC_Voltage_Target.c **** *
1789:.\Generated_Source\PSoC5/ADC_Voltage_Target.c **** * Return: 
1790:.\Generated_Source\PSoC5/ADC_Voltage_Target.c **** *  void
1791:.\Generated_Source\PSoC5/ADC_Voltage_Target.c **** *
1792:.\Generated_Source\PSoC5/ADC_Voltage_Target.c **** ******************************************************************************/
1793:.\Generated_Source\PSoC5/ADC_Voltage_Target.c **** void ADC_Voltage_Target_SetDSMRef0Reg(uint8 value) 
1794:.\Generated_Source\PSoC5/ADC_Voltage_Target.c **** {
 2381              		.loc 1 1794 0
 2382              		.cfi_startproc
 2383              		@ args = 0, pretend = 0, frame = 8
 2384              		@ frame_needed = 1, uses_anonymous_args = 0
 2385 0000 80B5     		push	{r7, lr}
 2386              	.LCFI67:
 2387              		.cfi_def_cfa_offset 8
 2388 0002 82B0     		sub	sp, sp, #8
 2389              	.LCFI68:
 2390              		.cfi_def_cfa_offset 16
 2391 0004 00AF     		add	r7, sp, #0
 2392              		.cfi_offset 14, -4
 2393              		.cfi_offset 7, -8
 2394              	.LCFI69:
 2395              		.cfi_def_cfa_register 7
 2396 0006 0346     		mov	r3, r0
 2397 0008 FB71     		strb	r3, [r7, #7]
1795:.\Generated_Source\PSoC5/ADC_Voltage_Target.c ****     /* Disable PRES, Enable power to VCMBUF0, REFBUF0 and REFBUF1, enable 
1796:.\Generated_Source\PSoC5/ADC_Voltage_Target.c ****        PRES */
1797:.\Generated_Source\PSoC5/ADC_Voltage_Target.c ****     #if (CY_PSOC3 || CY_PSOC5LP)
1798:.\Generated_Source\PSoC5/ADC_Voltage_Target.c ****         ADC_Voltage_Target_RESET_CR4_REG |= (ADC_Voltage_Target_IGNORE_PRESA1 | ADC_Voltage_Target_
 2398              		.loc 1 1798 0
 2399 000a 44F2F863 		movw	r3, #:lower16:1073759992
 2400 000e C4F20003 		movt	r3, #:upper16:1073759992
 2401 0012 44F2F862 		movw	r2, #:lower16:1073759992
 2402 0016 C4F20002 		movt	r2, #:upper16:1073759992
 2403 001a 1278     		ldrb	r2, [r2, #0]
 2404 001c D2B2     		uxtb	r2, r2
 2405 001e 42F00302 		orr	r2, r2, #3
 2406 0022 D2B2     		uxtb	r2, r2
 2407 0024 1A70     		strb	r2, [r3, #0]
1799:.\Generated_Source\PSoC5/ADC_Voltage_Target.c ****         ADC_Voltage_Target_RESET_CR5_REG |= (ADC_Voltage_Target_IGNORE_PRESA2 | ADC_Voltage_Target_
 2408              		.loc 1 1799 0
 2409 0026 44F2F963 		movw	r3, #:lower16:1073759993
 2410 002a C4F20003 		movt	r3, #:upper16:1073759993
 2411 002e 44F2F962 		movw	r2, #:lower16:1073759993
 2412 0032 C4F20002 		movt	r2, #:upper16:1073759993
 2413 0036 1278     		ldrb	r2, [r2, #0]
 2414 0038 D2B2     		uxtb	r2, r2
 2415 003a 42F00302 		orr	r2, r2, #3
ARM GAS  C:\DOCUME~1\ADMINI~1\LOCALS~1\Temp\ccfNfb5I.s 			page 75


 2416 003e D2B2     		uxtb	r2, r2
 2417 0040 1A70     		strb	r2, [r3, #0]
1800:.\Generated_Source\PSoC5/ADC_Voltage_Target.c ****     #elif (CY_PSOC5A)
1801:.\Generated_Source\PSoC5/ADC_Voltage_Target.c ****         ADC_Voltage_Target_RESET_CR1_REG |= ADC_Voltage_Target_DIS_PRES1;
1802:.\Generated_Source\PSoC5/ADC_Voltage_Target.c ****         ADC_Voltage_Target_RESET_CR3_REG |= ADC_Voltage_Target_DIS_PRES2;
1803:.\Generated_Source\PSoC5/ADC_Voltage_Target.c ****     #endif /* CY_PSOC5A */
1804:.\Generated_Source\PSoC5/ADC_Voltage_Target.c ****         ADC_Voltage_Target_DSM_REF0_REG = value;   
 2418              		.loc 1 1804 0
 2419 0042 45F69203 		movw	r3, #:lower16:1073764498
 2420 0046 C4F20003 		movt	r3, #:upper16:1073764498
 2421 004a FA79     		ldrb	r2, [r7, #7]
 2422 004c 1A70     		strb	r2, [r3, #0]
1805:.\Generated_Source\PSoC5/ADC_Voltage_Target.c **** 		
1806:.\Generated_Source\PSoC5/ADC_Voltage_Target.c **** 	/* Wait for 3 microseconds */
1807:.\Generated_Source\PSoC5/ADC_Voltage_Target.c ****     CyDelayUs(3);
 2423              		.loc 1 1807 0
 2424 004e 4FF00300 		mov	r0, #3
 2425 0052 FFF7FEFF 		bl	CyDelayUs
1808:.\Generated_Source\PSoC5/ADC_Voltage_Target.c ****     /* Enable the press circuit */
1809:.\Generated_Source\PSoC5/ADC_Voltage_Target.c ****     #if (CY_PSOC3 || CY_PSOC5LP)
1810:.\Generated_Source\PSoC5/ADC_Voltage_Target.c ****         ADC_Voltage_Target_RESET_CR4_REG &= ~(ADC_Voltage_Target_IGNORE_PRESA1 | ADC_Voltage_Target
 2426              		.loc 1 1810 0
 2427 0056 44F2F863 		movw	r3, #:lower16:1073759992
 2428 005a C4F20003 		movt	r3, #:upper16:1073759992
 2429 005e 44F2F862 		movw	r2, #:lower16:1073759992
 2430 0062 C4F20002 		movt	r2, #:upper16:1073759992
 2431 0066 1278     		ldrb	r2, [r2, #0]
 2432 0068 D2B2     		uxtb	r2, r2
 2433 006a 02F0FC02 		and	r2, r2, #252
 2434 006e 1A70     		strb	r2, [r3, #0]
1811:.\Generated_Source\PSoC5/ADC_Voltage_Target.c ****         ADC_Voltage_Target_RESET_CR5_REG &= ~(ADC_Voltage_Target_IGNORE_PRESA2 | ADC_Voltage_Target
 2435              		.loc 1 1811 0
 2436 0070 44F2F963 		movw	r3, #:lower16:1073759993
 2437 0074 C4F20003 		movt	r3, #:upper16:1073759993
 2438 0078 44F2F962 		movw	r2, #:lower16:1073759993
 2439 007c C4F20002 		movt	r2, #:upper16:1073759993
 2440 0080 1278     		ldrb	r2, [r2, #0]
 2441 0082 D2B2     		uxtb	r2, r2
 2442 0084 02F0FC02 		and	r2, r2, #252
 2443 0088 1A70     		strb	r2, [r3, #0]
1812:.\Generated_Source\PSoC5/ADC_Voltage_Target.c ****     #elif (CY_PSOC5A)
1813:.\Generated_Source\PSoC5/ADC_Voltage_Target.c ****         ADC_Voltage_Target_RESET_CR1_REG &= ~ADC_Voltage_Target_DIS_PRES1;
1814:.\Generated_Source\PSoC5/ADC_Voltage_Target.c ****         ADC_Voltage_Target_RESET_CR3_REG &= ~ADC_Voltage_Target_DIS_PRES2;
1815:.\Generated_Source\PSoC5/ADC_Voltage_Target.c ****     #endif /* CY_PSOC5A */
1816:.\Generated_Source\PSoC5/ADC_Voltage_Target.c **** }
 2444              		.loc 1 1816 0
 2445 008a 07F10807 		add	r7, r7, #8
 2446 008e BD46     		mov	sp, r7
 2447 0090 80BD     		pop	{r7, pc}
 2448              		.cfi_endproc
 2449              	.LFE25:
 2450              		.size	ADC_Voltage_Target_SetDSMRef0Reg, .-ADC_Voltage_Target_SetDSMRef0Reg
 2451 0092 00BF     		.text
 2452              	.Letext0:
 2453              		.section	.debug_loc,"",%progbits
 2454              	.Ldebug_loc0:
 2455              	.LLST0:
ARM GAS  C:\DOCUME~1\ADMINI~1\LOCALS~1\Temp\ccfNfb5I.s 			page 76


 2456 0000 00000000 		.4byte	.LFB0
 2457 0004 02000000 		.4byte	.LCFI0
 2458 0008 0100     		.2byte	0x1
 2459 000a 5D       		.byte	0x5d
 2460 000b 02000000 		.4byte	.LCFI0
 2461 000f 04000000 		.4byte	.LCFI1
 2462 0013 0200     		.2byte	0x2
 2463 0015 7D       		.byte	0x7d
 2464 0016 08       		.sleb128 8
 2465 0017 04000000 		.4byte	.LCFI1
 2466 001b 32000000 		.4byte	.LFE0
 2467 001f 0200     		.2byte	0x2
 2468 0021 77       		.byte	0x77
 2469 0022 08       		.sleb128 8
 2470 0023 00000000 		.4byte	0x0
 2471 0027 00000000 		.4byte	0x0
 2472              	.LLST1:
 2473 002b 00000000 		.4byte	.LFB1
 2474 002f 02000000 		.4byte	.LCFI2
 2475 0033 0100     		.2byte	0x1
 2476 0035 5D       		.byte	0x5d
 2477 0036 02000000 		.4byte	.LCFI2
 2478 003a 04000000 		.4byte	.LCFI3
 2479 003e 0200     		.2byte	0x2
 2480 0040 7D       		.byte	0x7d
 2481 0041 08       		.sleb128 8
 2482 0042 04000000 		.4byte	.LCFI3
 2483 0046 A2010000 		.4byte	.LFE1
 2484 004a 0200     		.2byte	0x2
 2485 004c 77       		.byte	0x77
 2486 004d 08       		.sleb128 8
 2487 004e 00000000 		.4byte	0x0
 2488 0052 00000000 		.4byte	0x0
 2489              	.LLST2:
 2490 0056 00000000 		.4byte	.LFB2
 2491 005a 02000000 		.4byte	.LCFI4
 2492 005e 0100     		.2byte	0x1
 2493 0060 5D       		.byte	0x5d
 2494 0061 02000000 		.4byte	.LCFI4
 2495 0065 04000000 		.4byte	.LCFI5
 2496 0069 0200     		.2byte	0x2
 2497 006b 7D       		.byte	0x7d
 2498 006c 08       		.sleb128 8
 2499 006d 04000000 		.4byte	.LCFI5
 2500 0071 3A000000 		.4byte	.LFE2
 2501 0075 0200     		.2byte	0x2
 2502 0077 77       		.byte	0x77
 2503 0078 08       		.sleb128 8
 2504 0079 00000000 		.4byte	0x0
 2505 007d 00000000 		.4byte	0x0
 2506              	.LLST3:
 2507 0081 00000000 		.4byte	.LFB3
 2508 0085 02000000 		.4byte	.LCFI6
 2509 0089 0100     		.2byte	0x1
 2510 008b 5D       		.byte	0x5d
 2511 008c 02000000 		.4byte	.LCFI6
 2512 0090 04000000 		.4byte	.LCFI7
ARM GAS  C:\DOCUME~1\ADMINI~1\LOCALS~1\Temp\ccfNfb5I.s 			page 77


 2513 0094 0200     		.2byte	0x2
 2514 0096 7D       		.byte	0x7d
 2515 0097 08       		.sleb128 8
 2516 0098 04000000 		.4byte	.LCFI7
 2517 009c CE010000 		.4byte	.LFE3
 2518 00a0 0200     		.2byte	0x2
 2519 00a2 77       		.byte	0x77
 2520 00a3 08       		.sleb128 8
 2521 00a4 00000000 		.4byte	0x0
 2522 00a8 00000000 		.4byte	0x0
 2523              	.LLST4:
 2524 00ac 00000000 		.4byte	.LFB4
 2525 00b0 02000000 		.4byte	.LCFI8
 2526 00b4 0100     		.2byte	0x1
 2527 00b6 5D       		.byte	0x5d
 2528 00b7 02000000 		.4byte	.LCFI8
 2529 00bb 04000000 		.4byte	.LCFI9
 2530 00bf 0200     		.2byte	0x2
 2531 00c1 7D       		.byte	0x7d
 2532 00c2 04       		.sleb128 4
 2533 00c3 04000000 		.4byte	.LCFI9
 2534 00c7 06000000 		.4byte	.LCFI10
 2535 00cb 0200     		.2byte	0x2
 2536 00cd 7D       		.byte	0x7d
 2537 00ce 18       		.sleb128 24
 2538 00cf 06000000 		.4byte	.LCFI10
 2539 00d3 44000000 		.4byte	.LFE4
 2540 00d7 0200     		.2byte	0x2
 2541 00d9 77       		.byte	0x77
 2542 00da 18       		.sleb128 24
 2543 00db 00000000 		.4byte	0x0
 2544 00df 00000000 		.4byte	0x0
 2545              	.LLST5:
 2546 00e3 00000000 		.4byte	.LFB5
 2547 00e7 02000000 		.4byte	.LCFI11
 2548 00eb 0100     		.2byte	0x1
 2549 00ed 5D       		.byte	0x5d
 2550 00ee 02000000 		.4byte	.LCFI11
 2551 00f2 04000000 		.4byte	.LCFI12
 2552 00f6 0200     		.2byte	0x2
 2553 00f8 7D       		.byte	0x7d
 2554 00f9 04       		.sleb128 4
 2555 00fa 04000000 		.4byte	.LCFI12
 2556 00fe 06000000 		.4byte	.LCFI13
 2557 0102 0200     		.2byte	0x2
 2558 0104 7D       		.byte	0x7d
 2559 0105 18       		.sleb128 24
 2560 0106 06000000 		.4byte	.LCFI13
 2561 010a 3C000000 		.4byte	.LFE5
 2562 010e 0200     		.2byte	0x2
 2563 0110 77       		.byte	0x77
 2564 0111 18       		.sleb128 24
 2565 0112 00000000 		.4byte	0x0
 2566 0116 00000000 		.4byte	0x0
 2567              	.LLST6:
 2568 011a 00000000 		.4byte	.LFB6
 2569 011e 02000000 		.4byte	.LCFI14
ARM GAS  C:\DOCUME~1\ADMINI~1\LOCALS~1\Temp\ccfNfb5I.s 			page 78


 2570 0122 0100     		.2byte	0x1
 2571 0124 5D       		.byte	0x5d
 2572 0125 02000000 		.4byte	.LCFI14
 2573 0129 04000000 		.4byte	.LCFI15
 2574 012d 0200     		.2byte	0x2
 2575 012f 7D       		.byte	0x7d
 2576 0130 0C       		.sleb128 12
 2577 0131 04000000 		.4byte	.LCFI15
 2578 0135 06000000 		.4byte	.LCFI16
 2579 0139 0200     		.2byte	0x2
 2580 013b 7D       		.byte	0x7d
 2581 013c 20       		.sleb128 32
 2582 013d 06000000 		.4byte	.LCFI16
 2583 0141 E4000000 		.4byte	.LFE6
 2584 0145 0200     		.2byte	0x2
 2585 0147 77       		.byte	0x77
 2586 0148 20       		.sleb128 32
 2587 0149 00000000 		.4byte	0x0
 2588 014d 00000000 		.4byte	0x0
 2589              	.LLST7:
 2590 0151 00000000 		.4byte	.LFB7
 2591 0155 02000000 		.4byte	.LCFI17
 2592 0159 0100     		.2byte	0x1
 2593 015b 5D       		.byte	0x5d
 2594 015c 02000000 		.4byte	.LCFI17
 2595 0160 04000000 		.4byte	.LCFI18
 2596 0164 0200     		.2byte	0x2
 2597 0166 7D       		.byte	0x7d
 2598 0167 04       		.sleb128 4
 2599 0168 04000000 		.4byte	.LCFI18
 2600 016c 06000000 		.4byte	.LCFI19
 2601 0170 0200     		.2byte	0x2
 2602 0172 7D       		.byte	0x7d
 2603 0173 10       		.sleb128 16
 2604 0174 06000000 		.4byte	.LCFI19
 2605 0178 BA000000 		.4byte	.LFE7
 2606 017c 0200     		.2byte	0x2
 2607 017e 77       		.byte	0x77
 2608 017f 10       		.sleb128 16
 2609 0180 00000000 		.4byte	0x0
 2610 0184 00000000 		.4byte	0x0
 2611              	.LLST8:
 2612 0188 00000000 		.4byte	.LFB8
 2613 018c 02000000 		.4byte	.LCFI20
 2614 0190 0100     		.2byte	0x1
 2615 0192 5D       		.byte	0x5d
 2616 0193 02000000 		.4byte	.LCFI20
 2617 0197 04000000 		.4byte	.LCFI21
 2618 019b 0200     		.2byte	0x2
 2619 019d 7D       		.byte	0x7d
 2620 019e 04       		.sleb128 4
 2621 019f 04000000 		.4byte	.LCFI21
 2622 01a3 06000000 		.4byte	.LCFI22
 2623 01a7 0200     		.2byte	0x2
 2624 01a9 7D       		.byte	0x7d
 2625 01aa 10       		.sleb128 16
 2626 01ab 06000000 		.4byte	.LCFI22
ARM GAS  C:\DOCUME~1\ADMINI~1\LOCALS~1\Temp\ccfNfb5I.s 			page 79


 2627 01af 44000000 		.4byte	.LFE8
 2628 01b3 0200     		.2byte	0x2
 2629 01b5 77       		.byte	0x77
 2630 01b6 10       		.sleb128 16
 2631 01b7 00000000 		.4byte	0x0
 2632 01bb 00000000 		.4byte	0x0
 2633              	.LLST9:
 2634 01bf 00000000 		.4byte	.LFB9
 2635 01c3 02000000 		.4byte	.LCFI23
 2636 01c7 0100     		.2byte	0x1
 2637 01c9 5D       		.byte	0x5d
 2638 01ca 02000000 		.4byte	.LCFI23
 2639 01ce 04000000 		.4byte	.LCFI24
 2640 01d2 0200     		.2byte	0x2
 2641 01d4 7D       		.byte	0x7d
 2642 01d5 04       		.sleb128 4
 2643 01d6 04000000 		.4byte	.LCFI24
 2644 01da 26000000 		.4byte	.LFE9
 2645 01de 0200     		.2byte	0x2
 2646 01e0 77       		.byte	0x77
 2647 01e1 04       		.sleb128 4
 2648 01e2 00000000 		.4byte	0x0
 2649 01e6 00000000 		.4byte	0x0
 2650              	.LLST10:
 2651 01ea 00000000 		.4byte	.LFB10
 2652 01ee 02000000 		.4byte	.LCFI25
 2653 01f2 0100     		.2byte	0x1
 2654 01f4 5D       		.byte	0x5d
 2655 01f5 02000000 		.4byte	.LCFI25
 2656 01f9 04000000 		.4byte	.LCFI26
 2657 01fd 0200     		.2byte	0x2
 2658 01ff 7D       		.byte	0x7d
 2659 0200 04       		.sleb128 4
 2660 0201 04000000 		.4byte	.LCFI26
 2661 0205 32000000 		.4byte	.LFE10
 2662 0209 0200     		.2byte	0x2
 2663 020b 77       		.byte	0x77
 2664 020c 04       		.sleb128 4
 2665 020d 00000000 		.4byte	0x0
 2666 0211 00000000 		.4byte	0x0
 2667              	.LLST11:
 2668 0215 00000000 		.4byte	.LFB11
 2669 0219 02000000 		.4byte	.LCFI27
 2670 021d 0100     		.2byte	0x1
 2671 021f 5D       		.byte	0x5d
 2672 0220 02000000 		.4byte	.LCFI27
 2673 0224 04000000 		.4byte	.LCFI28
 2674 0228 0200     		.2byte	0x2
 2675 022a 7D       		.byte	0x7d
 2676 022b 04       		.sleb128 4
 2677 022c 04000000 		.4byte	.LCFI28
 2678 0230 06000000 		.4byte	.LCFI29
 2679 0234 0200     		.2byte	0x2
 2680 0236 7D       		.byte	0x7d
 2681 0237 18       		.sleb128 24
 2682 0238 06000000 		.4byte	.LCFI29
 2683 023c 60000000 		.4byte	.LFE11
ARM GAS  C:\DOCUME~1\ADMINI~1\LOCALS~1\Temp\ccfNfb5I.s 			page 80


 2684 0240 0200     		.2byte	0x2
 2685 0242 77       		.byte	0x77
 2686 0243 18       		.sleb128 24
 2687 0244 00000000 		.4byte	0x0
 2688 0248 00000000 		.4byte	0x0
 2689              	.LLST12:
 2690 024c 00000000 		.4byte	.LFB12
 2691 0250 02000000 		.4byte	.LCFI30
 2692 0254 0100     		.2byte	0x1
 2693 0256 5D       		.byte	0x5d
 2694 0257 02000000 		.4byte	.LCFI30
 2695 025b 04000000 		.4byte	.LCFI31
 2696 025f 0200     		.2byte	0x2
 2697 0261 7D       		.byte	0x7d
 2698 0262 04       		.sleb128 4
 2699 0263 04000000 		.4byte	.LCFI31
 2700 0267 1A000000 		.4byte	.LFE12
 2701 026b 0200     		.2byte	0x2
 2702 026d 77       		.byte	0x77
 2703 026e 04       		.sleb128 4
 2704 026f 00000000 		.4byte	0x0
 2705 0273 00000000 		.4byte	0x0
 2706              	.LLST13:
 2707 0277 00000000 		.4byte	.LFB13
 2708 027b 02000000 		.4byte	.LCFI32
 2709 027f 0100     		.2byte	0x1
 2710 0281 5D       		.byte	0x5d
 2711 0282 02000000 		.4byte	.LCFI32
 2712 0286 04000000 		.4byte	.LCFI33
 2713 028a 0200     		.2byte	0x2
 2714 028c 7D       		.byte	0x7d
 2715 028d 04       		.sleb128 4
 2716 028e 04000000 		.4byte	.LCFI33
 2717 0292 06000000 		.4byte	.LCFI34
 2718 0296 0200     		.2byte	0x2
 2719 0298 7D       		.byte	0x7d
 2720 0299 10       		.sleb128 16
 2721 029a 06000000 		.4byte	.LCFI34
 2722 029e 22000000 		.4byte	.LFE13
 2723 02a2 0200     		.2byte	0x2
 2724 02a4 77       		.byte	0x77
 2725 02a5 10       		.sleb128 16
 2726 02a6 00000000 		.4byte	0x0
 2727 02aa 00000000 		.4byte	0x0
 2728              	.LLST14:
 2729 02ae 00000000 		.4byte	.LFB14
 2730 02b2 02000000 		.4byte	.LCFI35
 2731 02b6 0100     		.2byte	0x1
 2732 02b8 5D       		.byte	0x5d
 2733 02b9 02000000 		.4byte	.LCFI35
 2734 02bd 04000000 		.4byte	.LCFI36
 2735 02c1 0200     		.2byte	0x2
 2736 02c3 7D       		.byte	0x7d
 2737 02c4 04       		.sleb128 4
 2738 02c5 04000000 		.4byte	.LCFI36
 2739 02c9 06000000 		.4byte	.LCFI37
 2740 02cd 0200     		.2byte	0x2
ARM GAS  C:\DOCUME~1\ADMINI~1\LOCALS~1\Temp\ccfNfb5I.s 			page 81


 2741 02cf 7D       		.byte	0x7d
 2742 02d0 10       		.sleb128 16
 2743 02d1 06000000 		.4byte	.LCFI37
 2744 02d5 3A000000 		.4byte	.LFE14
 2745 02d9 0200     		.2byte	0x2
 2746 02db 77       		.byte	0x77
 2747 02dc 10       		.sleb128 16
 2748 02dd 00000000 		.4byte	0x0
 2749 02e1 00000000 		.4byte	0x0
 2750              	.LLST15:
 2751 02e5 00000000 		.4byte	.LFB15
 2752 02e9 02000000 		.4byte	.LCFI38
 2753 02ed 0100     		.2byte	0x1
 2754 02ef 5D       		.byte	0x5d
 2755 02f0 02000000 		.4byte	.LCFI38
 2756 02f4 04000000 		.4byte	.LCFI39
 2757 02f8 0200     		.2byte	0x2
 2758 02fa 7D       		.byte	0x7d
 2759 02fb 04       		.sleb128 4
 2760 02fc 04000000 		.4byte	.LCFI39
 2761 0300 06000000 		.4byte	.LCFI40
 2762 0304 0200     		.2byte	0x2
 2763 0306 7D       		.byte	0x7d
 2764 0307 10       		.sleb128 16
 2765 0308 06000000 		.4byte	.LCFI40
 2766 030c 1E000000 		.4byte	.LFE15
 2767 0310 0200     		.2byte	0x2
 2768 0312 77       		.byte	0x77
 2769 0313 10       		.sleb128 16
 2770 0314 00000000 		.4byte	0x0
 2771 0318 00000000 		.4byte	0x0
 2772              	.LLST16:
 2773 031c 00000000 		.4byte	.LFB16
 2774 0320 02000000 		.4byte	.LCFI41
 2775 0324 0100     		.2byte	0x1
 2776 0326 5D       		.byte	0x5d
 2777 0327 02000000 		.4byte	.LCFI41
 2778 032b 04000000 		.4byte	.LCFI42
 2779 032f 0200     		.2byte	0x2
 2780 0331 7D       		.byte	0x7d
 2781 0332 04       		.sleb128 4
 2782 0333 04000000 		.4byte	.LCFI42
 2783 0337 06000000 		.4byte	.LCFI43
 2784 033b 0200     		.2byte	0x2
 2785 033d 7D       		.byte	0x7d
 2786 033e 10       		.sleb128 16
 2787 033f 06000000 		.4byte	.LCFI43
 2788 0343 1E000000 		.4byte	.LFE16
 2789 0347 0200     		.2byte	0x2
 2790 0349 77       		.byte	0x77
 2791 034a 10       		.sleb128 16
 2792 034b 00000000 		.4byte	0x0
 2793 034f 00000000 		.4byte	0x0
 2794              	.LLST17:
 2795 0353 00000000 		.4byte	.LFB17
 2796 0357 02000000 		.4byte	.LCFI44
 2797 035b 0100     		.2byte	0x1
ARM GAS  C:\DOCUME~1\ADMINI~1\LOCALS~1\Temp\ccfNfb5I.s 			page 82


 2798 035d 5D       		.byte	0x5d
 2799 035e 02000000 		.4byte	.LCFI44
 2800 0362 04000000 		.4byte	.LCFI45
 2801 0366 0200     		.2byte	0x2
 2802 0368 7D       		.byte	0x7d
 2803 0369 04       		.sleb128 4
 2804 036a 04000000 		.4byte	.LCFI45
 2805 036e 06000000 		.4byte	.LCFI46
 2806 0372 0200     		.2byte	0x2
 2807 0374 7D       		.byte	0x7d
 2808 0375 20       		.sleb128 32
 2809 0376 06000000 		.4byte	.LCFI46
 2810 037a C4000000 		.4byte	.LFE17
 2811 037e 0200     		.2byte	0x2
 2812 0380 77       		.byte	0x77
 2813 0381 20       		.sleb128 32
 2814 0382 00000000 		.4byte	0x0
 2815 0386 00000000 		.4byte	0x0
 2816              	.LLST18:
 2817 038a 00000000 		.4byte	.LFB18
 2818 038e 02000000 		.4byte	.LCFI47
 2819 0392 0100     		.2byte	0x1
 2820 0394 5D       		.byte	0x5d
 2821 0395 02000000 		.4byte	.LCFI47
 2822 0399 04000000 		.4byte	.LCFI48
 2823 039d 0200     		.2byte	0x2
 2824 039f 7D       		.byte	0x7d
 2825 03a0 0C       		.sleb128 12
 2826 03a1 04000000 		.4byte	.LCFI48
 2827 03a5 06000000 		.4byte	.LCFI49
 2828 03a9 0200     		.2byte	0x2
 2829 03ab 7D       		.byte	0x7d
 2830 03ac 20       		.sleb128 32
 2831 03ad 06000000 		.4byte	.LCFI49
 2832 03b1 54000000 		.4byte	.LFE18
 2833 03b5 0200     		.2byte	0x2
 2834 03b7 77       		.byte	0x77
 2835 03b8 20       		.sleb128 32
 2836 03b9 00000000 		.4byte	0x0
 2837 03bd 00000000 		.4byte	0x0
 2838              	.LLST19:
 2839 03c1 00000000 		.4byte	.LFB19
 2840 03c5 02000000 		.4byte	.LCFI50
 2841 03c9 0100     		.2byte	0x1
 2842 03cb 5D       		.byte	0x5d
 2843 03cc 02000000 		.4byte	.LCFI50
 2844 03d0 04000000 		.4byte	.LCFI51
 2845 03d4 0200     		.2byte	0x2
 2846 03d6 7D       		.byte	0x7d
 2847 03d7 04       		.sleb128 4
 2848 03d8 04000000 		.4byte	.LCFI51
 2849 03dc 06000000 		.4byte	.LCFI52
 2850 03e0 0200     		.2byte	0x2
 2851 03e2 7D       		.byte	0x7d
 2852 03e3 20       		.sleb128 32
 2853 03e4 06000000 		.4byte	.LCFI52
 2854 03e8 F0000000 		.4byte	.LFE19
ARM GAS  C:\DOCUME~1\ADMINI~1\LOCALS~1\Temp\ccfNfb5I.s 			page 83


 2855 03ec 0200     		.2byte	0x2
 2856 03ee 77       		.byte	0x77
 2857 03ef 20       		.sleb128 32
 2858 03f0 00000000 		.4byte	0x0
 2859 03f4 00000000 		.4byte	0x0
 2860              	.LLST20:
 2861 03f8 00000000 		.4byte	.LFB20
 2862 03fc 02000000 		.4byte	.LCFI53
 2863 0400 0100     		.2byte	0x1
 2864 0402 5D       		.byte	0x5d
 2865 0403 02000000 		.4byte	.LCFI53
 2866 0407 04000000 		.4byte	.LCFI54
 2867 040b 0200     		.2byte	0x2
 2868 040d 7D       		.byte	0x7d
 2869 040e 08       		.sleb128 8
 2870 040f 04000000 		.4byte	.LCFI54
 2871 0413 3E000000 		.4byte	.LFE20
 2872 0417 0200     		.2byte	0x2
 2873 0419 77       		.byte	0x77
 2874 041a 08       		.sleb128 8
 2875 041b 00000000 		.4byte	0x0
 2876 041f 00000000 		.4byte	0x0
 2877              	.LLST21:
 2878 0423 00000000 		.4byte	.LFB21
 2879 0427 02000000 		.4byte	.LCFI55
 2880 042b 0100     		.2byte	0x1
 2881 042d 5D       		.byte	0x5d
 2882 042e 02000000 		.4byte	.LCFI55
 2883 0432 04000000 		.4byte	.LCFI56
 2884 0436 0200     		.2byte	0x2
 2885 0438 7D       		.byte	0x7d
 2886 0439 08       		.sleb128 8
 2887 043a 04000000 		.4byte	.LCFI56
 2888 043e 06000000 		.4byte	.LCFI57
 2889 0442 0200     		.2byte	0x2
 2890 0444 7D       		.byte	0x7d
 2891 0445 10       		.sleb128 16
 2892 0446 06000000 		.4byte	.LCFI57
 2893 044a D8020000 		.4byte	.LFE21
 2894 044e 0200     		.2byte	0x2
 2895 0450 77       		.byte	0x77
 2896 0451 10       		.sleb128 16
 2897 0452 00000000 		.4byte	0x0
 2898 0456 00000000 		.4byte	0x0
 2899              	.LLST22:
 2900 045a 00000000 		.4byte	.LFB22
 2901 045e 02000000 		.4byte	.LCFI58
 2902 0462 0100     		.2byte	0x1
 2903 0464 5D       		.byte	0x5d
 2904 0465 02000000 		.4byte	.LCFI58
 2905 0469 04000000 		.4byte	.LCFI59
 2906 046d 0200     		.2byte	0x2
 2907 046f 7D       		.byte	0x7d
 2908 0470 04       		.sleb128 4
 2909 0471 04000000 		.4byte	.LCFI59
 2910 0475 06000000 		.4byte	.LCFI60
 2911 0479 0200     		.2byte	0x2
ARM GAS  C:\DOCUME~1\ADMINI~1\LOCALS~1\Temp\ccfNfb5I.s 			page 84


 2912 047b 7D       		.byte	0x7d
 2913 047c 18       		.sleb128 24
 2914 047d 06000000 		.4byte	.LCFI60
 2915 0481 54000000 		.4byte	.LFE22
 2916 0485 0200     		.2byte	0x2
 2917 0487 77       		.byte	0x77
 2918 0488 18       		.sleb128 24
 2919 0489 00000000 		.4byte	0x0
 2920 048d 00000000 		.4byte	0x0
 2921              	.LLST23:
 2922 0491 00000000 		.4byte	.LFB23
 2923 0495 02000000 		.4byte	.LCFI61
 2924 0499 0100     		.2byte	0x1
 2925 049b 5D       		.byte	0x5d
 2926 049c 02000000 		.4byte	.LCFI61
 2927 04a0 04000000 		.4byte	.LCFI62
 2928 04a4 0200     		.2byte	0x2
 2929 04a6 7D       		.byte	0x7d
 2930 04a7 08       		.sleb128 8
 2931 04a8 04000000 		.4byte	.LCFI62
 2932 04ac 06000000 		.4byte	.LCFI63
 2933 04b0 0200     		.2byte	0x2
 2934 04b2 7D       		.byte	0x7d
 2935 04b3 20       		.sleb128 32
 2936 04b4 06000000 		.4byte	.LCFI63
 2937 04b8 04010000 		.4byte	.LFE23
 2938 04bc 0200     		.2byte	0x2
 2939 04be 77       		.byte	0x77
 2940 04bf 20       		.sleb128 32
 2941 04c0 00000000 		.4byte	0x0
 2942 04c4 00000000 		.4byte	0x0
 2943              	.LLST24:
 2944 04c8 00000000 		.4byte	.LFB24
 2945 04cc 02000000 		.4byte	.LCFI64
 2946 04d0 0100     		.2byte	0x1
 2947 04d2 5D       		.byte	0x5d
 2948 04d3 02000000 		.4byte	.LCFI64
 2949 04d7 04000000 		.4byte	.LCFI65
 2950 04db 0200     		.2byte	0x2
 2951 04dd 7D       		.byte	0x7d
 2952 04de 04       		.sleb128 4
 2953 04df 04000000 		.4byte	.LCFI65
 2954 04e3 06000000 		.4byte	.LCFI66
 2955 04e7 0200     		.2byte	0x2
 2956 04e9 7D       		.byte	0x7d
 2957 04ea 20       		.sleb128 32
 2958 04eb 06000000 		.4byte	.LCFI66
 2959 04ef 9A010000 		.4byte	.LFE24
 2960 04f3 0200     		.2byte	0x2
 2961 04f5 77       		.byte	0x77
 2962 04f6 20       		.sleb128 32
 2963 04f7 00000000 		.4byte	0x0
 2964 04fb 00000000 		.4byte	0x0
 2965              	.LLST25:
 2966 04ff 00000000 		.4byte	.LFB25
 2967 0503 02000000 		.4byte	.LCFI67
 2968 0507 0100     		.2byte	0x1
ARM GAS  C:\DOCUME~1\ADMINI~1\LOCALS~1\Temp\ccfNfb5I.s 			page 85


 2969 0509 5D       		.byte	0x5d
 2970 050a 02000000 		.4byte	.LCFI67
 2971 050e 04000000 		.4byte	.LCFI68
 2972 0512 0200     		.2byte	0x2
 2973 0514 7D       		.byte	0x7d
 2974 0515 08       		.sleb128 8
 2975 0516 04000000 		.4byte	.LCFI68
 2976 051a 06000000 		.4byte	.LCFI69
 2977 051e 0200     		.2byte	0x2
 2978 0520 7D       		.byte	0x7d
 2979 0521 10       		.sleb128 16
 2980 0522 06000000 		.4byte	.LCFI69
 2981 0526 92000000 		.4byte	.LFE25
 2982 052a 0200     		.2byte	0x2
 2983 052c 77       		.byte	0x77
 2984 052d 10       		.sleb128 16
 2985 052e 00000000 		.4byte	0x0
 2986 0532 00000000 		.4byte	0x0
 2987              		.file 2 ".\\Generated_Source\\PSoC5\\/cytypes.h"
 2988              		.section	.debug_info
 2989 0000 1D070000 		.4byte	0x71d
 2990 0004 0200     		.2byte	0x2
 2991 0006 00000000 		.4byte	.Ldebug_abbrev0
 2992 000a 04       		.byte	0x4
 2993 000b 01       		.uleb128 0x1
 2994 000c E8000000 		.4byte	.LASF88
 2995 0010 01       		.byte	0x1
 2996 0011 F5030000 		.4byte	.LASF89
 2997 0015 54000000 		.4byte	.LASF90
 2998 0019 00000000 		.4byte	0x0
 2999 001d 00000000 		.4byte	0x0
 3000 0021 00000000 		.4byte	.Ldebug_ranges0+0x0
 3001 0025 00000000 		.4byte	.Ldebug_line0
 3002 0029 02       		.uleb128 0x2
 3003 002a 01       		.byte	0x1
 3004 002b 06       		.byte	0x6
 3005 002c 5E010000 		.4byte	.LASF0
 3006 0030 02       		.uleb128 0x2
 3007 0031 01       		.byte	0x1
 3008 0032 08       		.byte	0x8
 3009 0033 C4040000 		.4byte	.LASF1
 3010 0037 02       		.uleb128 0x2
 3011 0038 02       		.byte	0x2
 3012 0039 05       		.byte	0x5
 3013 003a D2040000 		.4byte	.LASF2
 3014 003e 02       		.uleb128 0x2
 3015 003f 02       		.byte	0x2
 3016 0040 07       		.byte	0x7
 3017 0041 0A030000 		.4byte	.LASF3
 3018 0045 02       		.uleb128 0x2
 3019 0046 04       		.byte	0x4
 3020 0047 05       		.byte	0x5
 3021 0048 99010000 		.4byte	.LASF4
 3022 004c 02       		.uleb128 0x2
 3023 004d 04       		.byte	0x4
 3024 004e 07       		.byte	0x7
 3025 004f AA020000 		.4byte	.LASF5
ARM GAS  C:\DOCUME~1\ADMINI~1\LOCALS~1\Temp\ccfNfb5I.s 			page 86


 3026 0053 02       		.uleb128 0x2
 3027 0054 08       		.byte	0x8
 3028 0055 05       		.byte	0x5
 3029 0056 50010000 		.4byte	.LASF6
 3030 005a 02       		.uleb128 0x2
 3031 005b 08       		.byte	0x8
 3032 005c 07       		.byte	0x7
 3033 005d B4000000 		.4byte	.LASF7
 3034 0061 03       		.uleb128 0x3
 3035 0062 04       		.byte	0x4
 3036 0063 05       		.byte	0x5
 3037 0064 696E7400 		.ascii	"int\000"
 3038 0068 02       		.uleb128 0x2
 3039 0069 04       		.byte	0x4
 3040 006a 07       		.byte	0x7
 3041 006b 78020000 		.4byte	.LASF8
 3042 006f 04       		.uleb128 0x4
 3043 0070 C9010000 		.4byte	.LASF9
 3044 0074 02       		.byte	0x2
 3045 0075 4C       		.byte	0x4c
 3046 0076 30000000 		.4byte	0x30
 3047 007a 04       		.uleb128 0x4
 3048 007b 00000000 		.4byte	.LASF10
 3049 007f 02       		.byte	0x2
 3050 0080 4D       		.byte	0x4d
 3051 0081 3E000000 		.4byte	0x3e
 3052 0085 04       		.uleb128 0x4
 3053 0086 21020000 		.4byte	.LASF11
 3054 008a 02       		.byte	0x2
 3055 008b 4E       		.byte	0x4e
 3056 008c 4C000000 		.4byte	0x4c
 3057 0090 04       		.uleb128 0x4
 3058 0091 1D030000 		.4byte	.LASF12
 3059 0095 02       		.byte	0x2
 3060 0096 4F       		.byte	0x4f
 3061 0097 29000000 		.4byte	0x29
 3062 009b 04       		.uleb128 0x4
 3063 009c E3050000 		.4byte	.LASF13
 3064 00a0 02       		.byte	0x2
 3065 00a1 50       		.byte	0x50
 3066 00a2 37000000 		.4byte	0x37
 3067 00a6 04       		.uleb128 0x4
 3068 00a7 93010000 		.4byte	.LASF14
 3069 00ab 02       		.byte	0x2
 3070 00ac 51       		.byte	0x51
 3071 00ad 45000000 		.4byte	0x45
 3072 00b1 02       		.uleb128 0x2
 3073 00b2 04       		.byte	0x4
 3074 00b3 04       		.byte	0x4
 3075 00b4 62040000 		.4byte	.LASF15
 3076 00b8 02       		.uleb128 0x2
 3077 00b9 08       		.byte	0x8
 3078 00ba 04       		.byte	0x4
 3079 00bb F1010000 		.4byte	.LASF16
 3080 00bf 02       		.uleb128 0x2
 3081 00c0 01       		.byte	0x1
 3082 00c1 08       		.byte	0x8
ARM GAS  C:\DOCUME~1\ADMINI~1\LOCALS~1\Temp\ccfNfb5I.s 			page 87


 3083 00c2 55050000 		.4byte	.LASF17
 3084 00c6 05       		.uleb128 0x5
 3085 00c7 6F000000 		.4byte	0x6f
 3086 00cb 06       		.uleb128 0x6
 3087 00cc 04       		.byte	0x4
 3088 00cd 07       		.byte	0x7
 3089 00ce 07       		.uleb128 0x7
 3090 00cf 01       		.byte	0x1
 3091 00d0 D3030000 		.4byte	.LASF18
 3092 00d4 01       		.byte	0x1
 3093 00d5 5D       		.byte	0x5d
 3094 00d6 01       		.byte	0x1
 3095 00d7 00000000 		.4byte	.LFB0
 3096 00db 32000000 		.4byte	.LFE0
 3097 00df 00000000 		.4byte	.LLST0
 3098 00e3 07       		.uleb128 0x7
 3099 00e4 01       		.byte	0x1
 3100 00e5 B9030000 		.4byte	.LASF19
 3101 00e9 01       		.byte	0x1
 3102 00ea 81       		.byte	0x81
 3103 00eb 01       		.byte	0x1
 3104 00ec 00000000 		.4byte	.LFB1
 3105 00f0 A2010000 		.4byte	.LFE1
 3106 00f4 2B000000 		.4byte	.LLST1
 3107 00f8 08       		.uleb128 0x8
 3108 00f9 01       		.byte	0x1
 3109 00fa 84030000 		.4byte	.LASF20
 3110 00fe 01       		.byte	0x1
 3111 00ff 5001     		.2byte	0x150
 3112 0101 01       		.byte	0x1
 3113 0102 00000000 		.4byte	.LFB2
 3114 0106 3A000000 		.4byte	.LFE2
 3115 010a 56000000 		.4byte	.LLST2
 3116 010e 08       		.uleb128 0x8
 3117 010f 01       		.byte	0x1
 3118 0110 9C000000 		.4byte	.LASF21
 3119 0114 01       		.byte	0x1
 3120 0115 6E01     		.2byte	0x16e
 3121 0117 01       		.byte	0x1
 3122 0118 00000000 		.4byte	.LFB3
 3123 011c CE010000 		.4byte	.LFE3
 3124 0120 81000000 		.4byte	.LLST3
 3125 0124 09       		.uleb128 0x9
 3126 0125 01       		.byte	0x1
 3127 0126 34060000 		.4byte	.LASF22
 3128 012a 01       		.byte	0x1
 3129 012b C201     		.2byte	0x1c2
 3130 012d 01       		.byte	0x1
 3131 012e 00000000 		.4byte	.LFB4
 3132 0132 44000000 		.4byte	.LFE4
 3133 0136 AC000000 		.4byte	.LLST4
 3134 013a 5D010000 		.4byte	0x15d
 3135 013e 0A       		.uleb128 0xa
 3136 013f BF040000 		.4byte	.LASF24
 3137 0143 01       		.byte	0x1
 3138 0144 C201     		.2byte	0x1c2
 3139 0146 6F000000 		.4byte	0x6f
ARM GAS  C:\DOCUME~1\ADMINI~1\LOCALS~1\Temp\ccfNfb5I.s 			page 88


 3140 014a 02       		.byte	0x2
 3141 014b 91       		.byte	0x91
 3142 014c 6F       		.sleb128 -17
 3143 014d 0B       		.uleb128 0xb
 3144 014e 2D060000 		.4byte	.LASF26
 3145 0152 01       		.byte	0x1
 3146 0153 C401     		.2byte	0x1c4
 3147 0155 6F000000 		.4byte	0x6f
 3148 0159 02       		.byte	0x2
 3149 015a 91       		.byte	0x91
 3150 015b 77       		.sleb128 -9
 3151 015c 00       		.byte	0x0
 3152 015d 09       		.uleb128 0x9
 3153 015e 01       		.byte	0x1
 3154 015f EA020000 		.4byte	.LASF23
 3155 0163 01       		.byte	0x1
 3156 0164 E101     		.2byte	0x1e1
 3157 0166 01       		.byte	0x1
 3158 0167 00000000 		.4byte	.LFB5
 3159 016b 3C000000 		.4byte	.LFE5
 3160 016f E3000000 		.4byte	.LLST5
 3161 0173 96010000 		.4byte	0x196
 3162 0177 0A       		.uleb128 0xa
 3163 0178 58040000 		.4byte	.LASF25
 3164 017c 01       		.byte	0x1
 3165 017d E101     		.2byte	0x1e1
 3166 017f 6F000000 		.4byte	0x6f
 3167 0183 02       		.byte	0x2
 3168 0184 91       		.byte	0x91
 3169 0185 6F       		.sleb128 -17
 3170 0186 0B       		.uleb128 0xb
 3171 0187 2D060000 		.4byte	.LASF26
 3172 018b 01       		.byte	0x1
 3173 018c E301     		.2byte	0x1e3
 3174 018e 6F000000 		.4byte	0x6f
 3175 0192 02       		.byte	0x2
 3176 0193 91       		.byte	0x91
 3177 0194 77       		.sleb128 -9
 3178 0195 00       		.byte	0x0
 3179 0196 0C       		.uleb128 0xc
 3180 0197 01       		.byte	0x1
 3181 0198 3D040000 		.4byte	.LASF30
 3182 019c 01       		.byte	0x1
 3183 019d FF01     		.2byte	0x1ff
 3184 019f 01       		.byte	0x1
 3185 01a0 6F000000 		.4byte	0x6f
 3186 01a4 00000000 		.4byte	.LFB6
 3187 01a8 E4000000 		.4byte	.LFE6
 3188 01ac 1A010000 		.4byte	.LLST6
 3189 01b0 F1010000 		.4byte	0x1f1
 3190 01b4 0A       		.uleb128 0xa
 3191 01b5 D8050000 		.4byte	.LASF27
 3192 01b9 01       		.byte	0x1
 3193 01ba FF01     		.2byte	0x1ff
 3194 01bc B1000000 		.4byte	0xb1
 3195 01c0 02       		.byte	0x2
 3196 01c1 91       		.byte	0x91
ARM GAS  C:\DOCUME~1\ADMINI~1\LOCALS~1\Temp\ccfNfb5I.s 			page 89


 3197 01c2 64       		.sleb128 -28
 3198 01c3 0B       		.uleb128 0xb
 3199 01c4 2D060000 		.4byte	.LASF26
 3200 01c8 01       		.byte	0x1
 3201 01c9 0102     		.2byte	0x201
 3202 01cb 7A000000 		.4byte	0x7a
 3203 01cf 02       		.byte	0x2
 3204 01d0 91       		.byte	0x91
 3205 01d1 68       		.sleb128 -24
 3206 01d2 0B       		.uleb128 0xb
 3207 01d3 D1050000 		.4byte	.LASF28
 3208 01d7 01       		.byte	0x1
 3209 01d8 0202     		.2byte	0x202
 3210 01da 6F000000 		.4byte	0x6f
 3211 01de 02       		.byte	0x2
 3212 01df 91       		.byte	0x91
 3213 01e0 6B       		.sleb128 -21
 3214 01e1 0B       		.uleb128 0xb
 3215 01e2 AA050000 		.4byte	.LASF29
 3216 01e6 01       		.byte	0x1
 3217 01e7 0302     		.2byte	0x203
 3218 01e9 B1000000 		.4byte	0xb1
 3219 01ed 02       		.byte	0x2
 3220 01ee 91       		.byte	0x91
 3221 01ef 6C       		.sleb128 -20
 3222 01f0 00       		.byte	0x0
 3223 01f1 0C       		.uleb128 0xc
 3224 01f2 01       		.byte	0x1
 3225 01f3 68030000 		.4byte	.LASF31
 3226 01f7 01       		.byte	0x1
 3227 01f8 2C02     		.2byte	0x22c
 3228 01fa 01       		.byte	0x1
 3229 01fb 7A000000 		.4byte	0x7a
 3230 01ff 00000000 		.4byte	.LFB7
 3231 0203 BA000000 		.4byte	.LFE7
 3232 0207 51010000 		.4byte	.LLST7
 3233 020b 3D020000 		.4byte	0x23d
 3234 020f 0B       		.uleb128 0xb
 3235 0210 5A050000 		.4byte	.LASF32
 3236 0214 01       		.byte	0x1
 3237 0215 2E02     		.2byte	0x22e
 3238 0217 6F000000 		.4byte	0x6f
 3239 021b 02       		.byte	0x2
 3240 021c 91       		.byte	0x91
 3241 021d 73       		.sleb128 -13
 3242 021e 0B       		.uleb128 0xb
 3243 021f 41030000 		.4byte	.LASF33
 3244 0223 01       		.byte	0x1
 3245 0224 2F02     		.2byte	0x22f
 3246 0226 7A000000 		.4byte	0x7a
 3247 022a 02       		.byte	0x2
 3248 022b 91       		.byte	0x91
 3249 022c 74       		.sleb128 -12
 3250 022d 0B       		.uleb128 0xb
 3251 022e C2020000 		.4byte	.LASF34
 3252 0232 01       		.byte	0x1
 3253 0233 2F02     		.2byte	0x22f
ARM GAS  C:\DOCUME~1\ADMINI~1\LOCALS~1\Temp\ccfNfb5I.s 			page 90


 3254 0235 7A000000 		.4byte	0x7a
 3255 0239 02       		.byte	0x2
 3256 023a 91       		.byte	0x91
 3257 023b 76       		.sleb128 -10
 3258 023c 00       		.byte	0x0
 3259 023d 09       		.uleb128 0x9
 3260 023e 01       		.byte	0x1
 3261 023f 0C060000 		.4byte	.LASF35
 3262 0243 01       		.byte	0x1
 3263 0244 6602     		.2byte	0x266
 3264 0246 01       		.byte	0x1
 3265 0247 00000000 		.4byte	.LFB8
 3266 024b 44000000 		.4byte	.LFE8
 3267 024f 88010000 		.4byte	.LLST8
 3268 0253 76020000 		.4byte	0x276
 3269 0257 0A       		.uleb128 0xa
 3270 0258 E9050000 		.4byte	.LASF36
 3271 025c 01       		.byte	0x1
 3272 025d 6602     		.2byte	0x266
 3273 025f 6F000000 		.4byte	0x6f
 3274 0263 02       		.byte	0x2
 3275 0264 91       		.byte	0x91
 3276 0265 77       		.sleb128 -9
 3277 0266 0A       		.uleb128 0xa
 3278 0267 99050000 		.4byte	.LASF37
 3279 026b 01       		.byte	0x1
 3280 026c 6602     		.2byte	0x266
 3281 026e 6F000000 		.4byte	0x6f
 3282 0272 02       		.byte	0x2
 3283 0273 91       		.byte	0x91
 3284 0274 76       		.sleb128 -10
 3285 0275 00       		.byte	0x0
 3286 0276 08       		.uleb128 0x8
 3287 0277 01       		.byte	0x1
 3288 0278 1A000000 		.4byte	.LASF38
 3289 027c 01       		.byte	0x1
 3290 027d 8202     		.2byte	0x282
 3291 027f 01       		.byte	0x1
 3292 0280 00000000 		.4byte	.LFB9
 3293 0284 26000000 		.4byte	.LFE9
 3294 0288 BF010000 		.4byte	.LLST9
 3295 028c 08       		.uleb128 0x8
 3296 028d 01       		.byte	0x1
 3297 028e 28020000 		.4byte	.LASF39
 3298 0292 01       		.byte	0x1
 3299 0293 9B02     		.2byte	0x29b
 3300 0295 01       		.byte	0x1
 3301 0296 00000000 		.4byte	.LFB10
 3302 029a 32000000 		.4byte	.LFE10
 3303 029e EA010000 		.4byte	.LLST10
 3304 02a2 0C       		.uleb128 0xc
 3305 02a3 01       		.byte	0x1
 3306 02a4 12050000 		.4byte	.LASF40
 3307 02a8 01       		.byte	0x1
 3308 02a9 BA02     		.2byte	0x2ba
 3309 02ab 01       		.byte	0x1
 3310 02ac 6F000000 		.4byte	0x6f
ARM GAS  C:\DOCUME~1\ADMINI~1\LOCALS~1\Temp\ccfNfb5I.s 			page 91


 3311 02b0 00000000 		.4byte	.LFB11
 3312 02b4 60000000 		.4byte	.LFE11
 3313 02b8 15020000 		.4byte	.LLST11
 3314 02bc DF020000 		.4byte	0x2df
 3315 02c0 0A       		.uleb128 0xa
 3316 02c1 BC020000 		.4byte	.LASF41
 3317 02c5 01       		.byte	0x1
 3318 02c6 BA02     		.2byte	0x2ba
 3319 02c8 6F000000 		.4byte	0x6f
 3320 02cc 02       		.byte	0x2
 3321 02cd 91       		.byte	0x91
 3322 02ce 6F       		.sleb128 -17
 3323 02cf 0B       		.uleb128 0xb
 3324 02d0 D1050000 		.4byte	.LASF28
 3325 02d4 01       		.byte	0x1
 3326 02d5 BC02     		.2byte	0x2bc
 3327 02d7 6F000000 		.4byte	0x6f
 3328 02db 02       		.byte	0x2
 3329 02dc 91       		.byte	0x91
 3330 02dd 77       		.sleb128 -9
 3331 02de 00       		.byte	0x0
 3332 02df 0D       		.uleb128 0xd
 3333 02e0 01       		.byte	0x1
 3334 02e1 A1040000 		.4byte	.LASF91
 3335 02e5 01       		.byte	0x1
 3336 02e6 E002     		.2byte	0x2e0
 3337 02e8 01       		.byte	0x1
 3338 02e9 90000000 		.4byte	0x90
 3339 02ed 00000000 		.4byte	.LFB12
 3340 02f1 1A000000 		.4byte	.LFE12
 3341 02f5 4C020000 		.4byte	.LLST12
 3342 02f9 0C       		.uleb128 0xc
 3343 02fa 01       		.byte	0x1
 3344 02fb 6A010000 		.4byte	.LASF42
 3345 02ff 01       		.byte	0x1
 3346 0300 F402     		.2byte	0x2f4
 3347 0302 01       		.byte	0x1
 3348 0303 9B000000 		.4byte	0x9b
 3349 0307 00000000 		.4byte	.LFB13
 3350 030b 22000000 		.4byte	.LFE13
 3351 030f 77020000 		.4byte	.LLST13
 3352 0313 27030000 		.4byte	0x327
 3353 0317 0B       		.uleb128 0xb
 3354 0318 55060000 		.4byte	.LASF43
 3355 031c 01       		.byte	0x1
 3356 031d F602     		.2byte	0x2f6
 3357 031f 7A000000 		.4byte	0x7a
 3358 0323 02       		.byte	0x2
 3359 0324 91       		.byte	0x91
 3360 0325 76       		.sleb128 -10
 3361 0326 00       		.byte	0x0
 3362 0327 0C       		.uleb128 0xc
 3363 0328 01       		.byte	0x1
 3364 0329 22030000 		.4byte	.LASF44
 3365 032d 01       		.byte	0x1
 3366 032e 1103     		.2byte	0x311
 3367 0330 01       		.byte	0x1
ARM GAS  C:\DOCUME~1\ADMINI~1\LOCALS~1\Temp\ccfNfb5I.s 			page 92


 3368 0331 A6000000 		.4byte	0xa6
 3369 0335 00000000 		.4byte	.LFB14
 3370 0339 3A000000 		.4byte	.LFE14
 3371 033d AE020000 		.4byte	.LLST14
 3372 0341 55030000 		.4byte	0x355
 3373 0345 0B       		.uleb128 0xb
 3374 0346 55060000 		.4byte	.LASF43
 3375 034a 01       		.byte	0x1
 3376 034b 1303     		.2byte	0x313
 3377 034d 85000000 		.4byte	0x85
 3378 0351 02       		.byte	0x2
 3379 0352 91       		.byte	0x91
 3380 0353 74       		.sleb128 -12
 3381 0354 00       		.byte	0x0
 3382 0355 09       		.uleb128 0x9
 3383 0356 01       		.byte	0x1
 3384 0357 4B030000 		.4byte	.LASF45
 3385 035b 01       		.byte	0x1
 3386 035c 3803     		.2byte	0x338
 3387 035e 01       		.byte	0x1
 3388 035f 00000000 		.4byte	.LFB15
 3389 0363 1E000000 		.4byte	.LFE15
 3390 0367 E5020000 		.4byte	.LLST15
 3391 036b 7F030000 		.4byte	0x37f
 3392 036f 0A       		.uleb128 0xa
 3393 0370 C0050000 		.4byte	.LASF46
 3394 0374 01       		.byte	0x1
 3395 0375 3803     		.2byte	0x338
 3396 0377 A6000000 		.4byte	0xa6
 3397 037b 02       		.byte	0x2
 3398 037c 91       		.byte	0x91
 3399 037d 74       		.sleb128 -12
 3400 037e 00       		.byte	0x0
 3401 037f 09       		.uleb128 0x9
 3402 0380 01       		.byte	0x1
 3403 0381 68040000 		.4byte	.LASF47
 3404 0385 01       		.byte	0x1
 3405 0386 5103     		.2byte	0x351
 3406 0388 01       		.byte	0x1
 3407 0389 00000000 		.4byte	.LFB16
 3408 038d 1E000000 		.4byte	.LFE16
 3409 0391 1C030000 		.4byte	.LLST16
 3410 0395 A9030000 		.4byte	0x3a9
 3411 0399 0A       		.uleb128 0xa
 3412 039a 07000000 		.4byte	.LASF48
 3413 039e 01       		.byte	0x1
 3414 039f 5103     		.2byte	0x351
 3415 03a1 A6000000 		.4byte	0xa6
 3416 03a5 02       		.byte	0x2
 3417 03a6 91       		.byte	0x91
 3418 03a7 74       		.sleb128 -12
 3419 03a8 00       		.byte	0x0
 3420 03a9 0C       		.uleb128 0xc
 3421 03aa 01       		.byte	0x1
 3422 03ab FE010000 		.4byte	.LASF49
 3423 03af 01       		.byte	0x1
 3424 03b0 6B03     		.2byte	0x36b
ARM GAS  C:\DOCUME~1\ADMINI~1\LOCALS~1\Temp\ccfNfb5I.s 			page 93


 3425 03b2 01       		.byte	0x1
 3426 03b3 9B000000 		.4byte	0x9b
 3427 03b7 00000000 		.4byte	.LFB17
 3428 03bb C4000000 		.4byte	.LFE17
 3429 03bf 53030000 		.4byte	.LLST17
 3430 03c3 0F040000 		.4byte	0x40f
 3431 03c7 0A       		.uleb128 0xa
 3432 03c8 C7050000 		.4byte	.LASF50
 3433 03cc 01       		.byte	0x1
 3434 03cd 6B03     		.2byte	0x36b
 3435 03cf A6000000 		.4byte	0xa6
 3436 03d3 02       		.byte	0x2
 3437 03d4 91       		.byte	0x91
 3438 03d5 64       		.sleb128 -28
 3439 03d6 0B       		.uleb128 0xb
 3440 03d7 AC030000 		.4byte	.LASF51
 3441 03db 01       		.byte	0x1
 3442 03dc 6E03     		.2byte	0x36e
 3443 03de A6000000 		.4byte	0xa6
 3444 03e2 02       		.byte	0x2
 3445 03e3 91       		.byte	0x91
 3446 03e4 68       		.sleb128 -24
 3447 03e5 0E       		.uleb128 0xe
 3448 03e6 4100     		.ascii	"A\000"
 3449 03e8 01       		.byte	0x1
 3450 03e9 6F03     		.2byte	0x36f
 3451 03eb A6000000 		.4byte	0xa6
 3452 03ef 02       		.byte	0x2
 3453 03f0 91       		.byte	0x91
 3454 03f1 6C       		.sleb128 -20
 3455 03f2 0E       		.uleb128 0xe
 3456 03f3 4200     		.ascii	"B\000"
 3457 03f5 01       		.byte	0x1
 3458 03f6 6F03     		.2byte	0x36f
 3459 03f8 A6000000 		.4byte	0xa6
 3460 03fc 02       		.byte	0x2
 3461 03fd 91       		.byte	0x91
 3462 03fe 70       		.sleb128 -16
 3463 03ff 0B       		.uleb128 0xb
 3464 0400 35050000 		.4byte	.LASF52
 3465 0404 01       		.byte	0x1
 3466 0405 7003     		.2byte	0x370
 3467 0407 6F000000 		.4byte	0x6f
 3468 040b 02       		.byte	0x2
 3469 040c 91       		.byte	0x91
 3470 040d 77       		.sleb128 -9
 3471 040e 00       		.byte	0x0
 3472 040f 0C       		.uleb128 0xc
 3473 0410 01       		.byte	0x1
 3474 0411 5C060000 		.4byte	.LASF53
 3475 0415 01       		.byte	0x1
 3476 0416 AB03     		.2byte	0x3ab
 3477 0418 01       		.byte	0x1
 3478 0419 B1000000 		.4byte	0xb1
 3479 041d 00000000 		.4byte	.LFB18
 3480 0421 54000000 		.4byte	.LFE18
 3481 0425 8A030000 		.4byte	.LLST18
ARM GAS  C:\DOCUME~1\ADMINI~1\LOCALS~1\Temp\ccfNfb5I.s 			page 94


 3482 0429 4C040000 		.4byte	0x44c
 3483 042d 0A       		.uleb128 0xa
 3484 042e C7050000 		.4byte	.LASF50
 3485 0432 01       		.byte	0x1
 3486 0433 AB03     		.2byte	0x3ab
 3487 0435 A6000000 		.4byte	0xa6
 3488 0439 02       		.byte	0x2
 3489 043a 91       		.byte	0x91
 3490 043b 64       		.sleb128 -28
 3491 043c 0B       		.uleb128 0xb
 3492 043d F8010000 		.4byte	.LASF54
 3493 0441 01       		.byte	0x1
 3494 0442 AE03     		.2byte	0x3ae
 3495 0444 B1000000 		.4byte	0xb1
 3496 0448 02       		.byte	0x2
 3497 0449 91       		.byte	0x91
 3498 044a 6C       		.sleb128 -20
 3499 044b 00       		.byte	0x0
 3500 044c 0C       		.uleb128 0xc
 3501 044d 01       		.byte	0x1
 3502 044e 2D010000 		.4byte	.LASF55
 3503 0452 01       		.byte	0x1
 3504 0453 D903     		.2byte	0x3d9
 3505 0455 01       		.byte	0x1
 3506 0456 A6000000 		.4byte	0xa6
 3507 045a 00000000 		.4byte	.LFB19
 3508 045e F0000000 		.4byte	.LFE19
 3509 0462 C1030000 		.4byte	.LLST19
 3510 0466 B2040000 		.4byte	0x4b2
 3511 046a 0A       		.uleb128 0xa
 3512 046b C7050000 		.4byte	.LASF50
 3513 046f 01       		.byte	0x1
 3514 0470 D903     		.2byte	0x3d9
 3515 0472 A6000000 		.4byte	0xa6
 3516 0476 02       		.byte	0x2
 3517 0477 91       		.byte	0x91
 3518 0478 64       		.sleb128 -28
 3519 0479 0B       		.uleb128 0xb
 3520 047a A3020000 		.4byte	.LASF56
 3521 047e 01       		.byte	0x1
 3522 047f DC03     		.2byte	0x3dc
 3523 0481 A6000000 		.4byte	0xa6
 3524 0485 02       		.byte	0x2
 3525 0486 91       		.byte	0x91
 3526 0487 68       		.sleb128 -24
 3527 0488 0E       		.uleb128 0xe
 3528 0489 4100     		.ascii	"A\000"
 3529 048b 01       		.byte	0x1
 3530 048c DD03     		.2byte	0x3dd
 3531 048e A6000000 		.4byte	0xa6
 3532 0492 02       		.byte	0x2
 3533 0493 91       		.byte	0x91
 3534 0494 6C       		.sleb128 -20
 3535 0495 0E       		.uleb128 0xe
 3536 0496 4200     		.ascii	"B\000"
 3537 0498 01       		.byte	0x1
 3538 0499 DD03     		.2byte	0x3dd
ARM GAS  C:\DOCUME~1\ADMINI~1\LOCALS~1\Temp\ccfNfb5I.s 			page 95


 3539 049b A6000000 		.4byte	0xa6
 3540 049f 02       		.byte	0x2
 3541 04a0 91       		.byte	0x91
 3542 04a1 70       		.sleb128 -16
 3543 04a2 0B       		.uleb128 0xb
 3544 04a3 35050000 		.4byte	.LASF52
 3545 04a7 01       		.byte	0x1
 3546 04a8 DE03     		.2byte	0x3de
 3547 04aa 6F000000 		.4byte	0x6f
 3548 04ae 02       		.byte	0x2
 3549 04af 91       		.byte	0x91
 3550 04b0 77       		.sleb128 -9
 3551 04b1 00       		.byte	0x0
 3552 04b2 08       		.uleb128 0x8
 3553 04b3 01       		.byte	0x1
 3554 04b4 CB000000 		.4byte	.LASF57
 3555 04b8 01       		.byte	0x1
 3556 04b9 2004     		.2byte	0x420
 3557 04bb 01       		.byte	0x1
 3558 04bc 00000000 		.4byte	.LFB20
 3559 04c0 3E000000 		.4byte	.LFE20
 3560 04c4 F8030000 		.4byte	.LLST20
 3561 04c8 09       		.uleb128 0x9
 3562 04c9 01       		.byte	0x1
 3563 04ca 83040000 		.4byte	.LASF58
 3564 04ce 01       		.byte	0x1
 3565 04cf 4204     		.2byte	0x442
 3566 04d1 01       		.byte	0x1
 3567 04d2 00000000 		.4byte	.LFB21
 3568 04d6 D8020000 		.4byte	.LFE21
 3569 04da 23040000 		.4byte	.LLST21
 3570 04de F2040000 		.4byte	0x4f2
 3571 04e2 0A       		.uleb128 0xa
 3572 04e3 61050000 		.4byte	.LASF59
 3573 04e7 01       		.byte	0x1
 3574 04e8 4204     		.2byte	0x442
 3575 04ea 6F000000 		.4byte	0x6f
 3576 04ee 02       		.byte	0x2
 3577 04ef 91       		.byte	0x91
 3578 04f0 77       		.sleb128 -9
 3579 04f1 00       		.byte	0x0
 3580 04f2 0C       		.uleb128 0xc
 3581 04f3 01       		.byte	0x1
 3582 04f4 85020000 		.4byte	.LASF60
 3583 04f8 01       		.byte	0x1
 3584 04f9 8A05     		.2byte	0x58a
 3585 04fb 01       		.byte	0x1
 3586 04fc 7A000000 		.4byte	0x7a
 3587 0500 00000000 		.4byte	.LFB22
 3588 0504 54000000 		.4byte	.LFE22
 3589 0508 5A040000 		.4byte	.LLST22
 3590 050c 4D050000 		.4byte	0x54d
 3591 0510 0A       		.uleb128 0xa
 3592 0511 FF000000 		.4byte	.LASF61
 3593 0515 01       		.byte	0x1
 3594 0516 8A05     		.2byte	0x58a
 3595 0518 85000000 		.4byte	0x85
ARM GAS  C:\DOCUME~1\ADMINI~1\LOCALS~1\Temp\ccfNfb5I.s 			page 96


 3596 051c 02       		.byte	0x2
 3597 051d 91       		.byte	0x91
 3598 051e 6C       		.sleb128 -20
 3599 051f 0A       		.uleb128 0xa
 3600 0520 92000000 		.4byte	.LASF62
 3601 0524 01       		.byte	0x1
 3602 0525 8A05     		.2byte	0x58a
 3603 0527 85000000 		.4byte	0x85
 3604 052b 02       		.byte	0x2
 3605 052c 91       		.byte	0x91
 3606 052d 68       		.sleb128 -24
 3607 052e 0B       		.uleb128 0xb
 3608 052f 00050000 		.4byte	.LASF63
 3609 0533 01       		.byte	0x1
 3610 0534 8D05     		.2byte	0x58d
 3611 0536 7A000000 		.4byte	0x7a
 3612 053a 02       		.byte	0x2
 3613 053b 91       		.byte	0x91
 3614 053c 74       		.sleb128 -12
 3615 053d 0B       		.uleb128 0xb
 3616 053e 09050000 		.4byte	.LASF64
 3617 0542 01       		.byte	0x1
 3618 0543 8D05     		.2byte	0x58d
 3619 0545 7A000000 		.4byte	0x7a
 3620 0549 02       		.byte	0x2
 3621 054a 91       		.byte	0x91
 3622 054b 76       		.sleb128 -10
 3623 054c 00       		.byte	0x0
 3624 054d 09       		.uleb128 0x9
 3625 054e 01       		.byte	0x1
 3626 054f A2010000 		.4byte	.LASF65
 3627 0553 01       		.byte	0x1
 3628 0554 AB05     		.2byte	0x5ab
 3629 0556 01       		.byte	0x1
 3630 0557 00000000 		.4byte	.LFB23
 3631 055b 04010000 		.4byte	.LFE23
 3632 055f 91040000 		.4byte	.LLST23
 3633 0563 E0050000 		.4byte	0x5e0
 3634 0567 0A       		.uleb128 0xa
 3635 0568 61050000 		.4byte	.LASF59
 3636 056c 01       		.byte	0x1
 3637 056d AB05     		.2byte	0x5ab
 3638 056f 6F000000 		.4byte	0x6f
 3639 0573 02       		.byte	0x2
 3640 0574 91       		.byte	0x91
 3641 0575 67       		.sleb128 -25
 3642 0576 0A       		.uleb128 0xa
 3643 0577 A2050000 		.4byte	.LASF66
 3644 057b 01       		.byte	0x1
 3645 057c AB05     		.2byte	0x5ab
 3646 057e 6F000000 		.4byte	0x6f
 3647 0582 02       		.byte	0x2
 3648 0583 91       		.byte	0x91
 3649 0584 66       		.sleb128 -26
 3650 0585 0B       		.uleb128 0xb
 3651 0586 0F000000 		.4byte	.LASF67
 3652 058a 01       		.byte	0x1
ARM GAS  C:\DOCUME~1\ADMINI~1\LOCALS~1\Temp\ccfNfb5I.s 			page 97


 3653 058b AE05     		.2byte	0x5ae
 3654 058d 6F000000 		.4byte	0x6f
 3655 0591 02       		.byte	0x2
 3656 0592 91       		.byte	0x91
 3657 0593 6E       		.sleb128 -18
 3658 0594 0B       		.uleb128 0xb
 3659 0595 35050000 		.4byte	.LASF52
 3660 0599 01       		.byte	0x1
 3661 059a AE05     		.2byte	0x5ae
 3662 059c 6F000000 		.4byte	0x6f
 3663 05a0 02       		.byte	0x2
 3664 05a1 91       		.byte	0x91
 3665 05a2 6F       		.sleb128 -17
 3666 05a3 0B       		.uleb128 0xb
 3667 05a4 EB030000 		.4byte	.LASF68
 3668 05a8 01       		.byte	0x1
 3669 05a9 AF05     		.2byte	0x5af
 3670 05ab 7A000000 		.4byte	0x7a
 3671 05af 02       		.byte	0x2
 3672 05b0 91       		.byte	0x91
 3673 05b1 70       		.sleb128 -16
 3674 05b2 0B       		.uleb128 0xb
 3675 05b3 68050000 		.4byte	.LASF69
 3676 05b7 01       		.byte	0x1
 3677 05b8 AF05     		.2byte	0x5af
 3678 05ba 7A000000 		.4byte	0x7a
 3679 05be 02       		.byte	0x2
 3680 05bf 91       		.byte	0x91
 3681 05c0 72       		.sleb128 -14
 3682 05c1 0B       		.uleb128 0xb
 3683 05c2 9D030000 		.4byte	.LASF70
 3684 05c6 01       		.byte	0x1
 3685 05c7 B005     		.2byte	0x5b0
 3686 05c9 7A000000 		.4byte	0x7a
 3687 05cd 02       		.byte	0x2
 3688 05ce 91       		.byte	0x91
 3689 05cf 74       		.sleb128 -12
 3690 05d0 0B       		.uleb128 0xb
 3691 05d1 B3050000 		.4byte	.LASF71
 3692 05d5 01       		.byte	0x1
 3693 05d6 B105     		.2byte	0x5b1
 3694 05d8 7A000000 		.4byte	0x7a
 3695 05dc 02       		.byte	0x2
 3696 05dd 91       		.byte	0x91
 3697 05de 76       		.sleb128 -10
 3698 05df 00       		.byte	0x0
 3699 05e0 09       		.uleb128 0x9
 3700 05e1 01       		.byte	0x1
 3701 05e2 DC040000 		.4byte	.LASF72
 3702 05e6 01       		.byte	0x1
 3703 05e7 8506     		.2byte	0x685
 3704 05e9 01       		.byte	0x1
 3705 05ea 00000000 		.4byte	.LFB24
 3706 05ee 9A010000 		.4byte	.LFE24
 3707 05f2 C8040000 		.4byte	.LLST24
 3708 05f6 73060000 		.4byte	0x673
 3709 05fa 0A       		.uleb128 0xa
ARM GAS  C:\DOCUME~1\ADMINI~1\LOCALS~1\Temp\ccfNfb5I.s 			page 98


 3710 05fb 0F000000 		.4byte	.LASF67
 3711 05ff 01       		.byte	0x1
 3712 0600 8506     		.2byte	0x685
 3713 0602 6F000000 		.4byte	0x6f
 3714 0606 02       		.byte	0x2
 3715 0607 91       		.byte	0x91
 3716 0608 67       		.sleb128 -25
 3717 0609 0A       		.uleb128 0xa
 3718 060a 48050000 		.4byte	.LASF73
 3719 060e 01       		.byte	0x1
 3720 060f 8506     		.2byte	0x685
 3721 0611 7A000000 		.4byte	0x7a
 3722 0615 02       		.byte	0x2
 3723 0616 91       		.byte	0x91
 3724 0617 64       		.sleb128 -28
 3725 0618 0A       		.uleb128 0xa
 3726 0619 47020000 		.4byte	.LASF74
 3727 061d 01       		.byte	0x1
 3728 061e 8506     		.2byte	0x685
 3729 0620 7A000000 		.4byte	0x7a
 3730 0624 02       		.byte	0x2
 3731 0625 91       		.byte	0x91
 3732 0626 62       		.sleb128 -30
 3733 0627 0A       		.uleb128 0xa
 3734 0628 35050000 		.4byte	.LASF52
 3735 062c 01       		.byte	0x1
 3736 062d 8606     		.2byte	0x686
 3737 062f 6F000000 		.4byte	0x6f
 3738 0633 02       		.byte	0x2
 3739 0634 91       		.byte	0x91
 3740 0635 61       		.sleb128 -31
 3741 0636 0B       		.uleb128 0xb
 3742 0637 B3030000 		.4byte	.LASF75
 3743 063b 01       		.byte	0x1
 3744 063c 8806     		.2byte	0x688
 3745 063e 90000000 		.4byte	0x90
 3746 0642 02       		.byte	0x2
 3747 0643 91       		.byte	0x91
 3748 0644 6F       		.sleb128 -17
 3749 0645 0B       		.uleb128 0xb
 3750 0646 F4000000 		.4byte	.LASF76
 3751 064a 01       		.byte	0x1
 3752 064b 8906     		.2byte	0x689
 3753 064d 9B000000 		.4byte	0x9b
 3754 0651 02       		.byte	0x2
 3755 0652 91       		.byte	0x91
 3756 0653 70       		.sleb128 -16
 3757 0654 0B       		.uleb128 0xb
 3758 0655 89010000 		.4byte	.LASF77
 3759 0659 01       		.byte	0x1
 3760 065a 8A06     		.2byte	0x68a
 3761 065c 7A000000 		.4byte	0x7a
 3762 0660 02       		.byte	0x2
 3763 0661 91       		.byte	0x91
 3764 0662 72       		.sleb128 -14
 3765 0663 0B       		.uleb128 0xb
 3766 0664 40050000 		.4byte	.LASF78
ARM GAS  C:\DOCUME~1\ADMINI~1\LOCALS~1\Temp\ccfNfb5I.s 			page 99


 3767 0668 01       		.byte	0x1
 3768 0669 8B06     		.2byte	0x68b
 3769 066b 85000000 		.4byte	0x85
 3770 066f 02       		.byte	0x2
 3771 0670 91       		.byte	0x91
 3772 0671 74       		.sleb128 -12
 3773 0672 00       		.byte	0x0
 3774 0673 09       		.uleb128 0x9
 3775 0674 01       		.byte	0x1
 3776 0675 0C010000 		.4byte	.LASF79
 3777 0679 01       		.byte	0x1
 3778 067a 0107     		.2byte	0x701
 3779 067c 01       		.byte	0x1
 3780 067d 00000000 		.4byte	.LFB25
 3781 0681 92000000 		.4byte	.LFE25
 3782 0685 FF040000 		.4byte	.LLST25
 3783 0689 9D060000 		.4byte	0x69d
 3784 068d 0A       		.uleb128 0xa
 3785 068e 57020000 		.4byte	.LASF80
 3786 0692 01       		.byte	0x1
 3787 0693 0107     		.2byte	0x701
 3788 0695 6F000000 		.4byte	0x6f
 3789 0699 02       		.byte	0x2
 3790 069a 91       		.byte	0x91
 3791 069b 77       		.sleb128 -9
 3792 069c 00       		.byte	0x0
 3793 069d 0F       		.uleb128 0xf
 3794 069e F0050000 		.4byte	.LASF81
 3795 06a2 01       		.byte	0x1
 3796 06a3 1F       		.byte	0x1f
 3797 06a4 C6000000 		.4byte	0xc6
 3798 06a8 01       		.byte	0x1
 3799 06a9 05       		.byte	0x5
 3800 06aa 03       		.byte	0x3
 3801 06ab 00000000 		.4byte	ADC_Voltage_Target_convDone
 3802 06af 0F       		.uleb128 0xf
 3803 06b0 CF010000 		.4byte	.LASF82
 3804 06b4 01       		.byte	0x1
 3805 06b5 23       		.byte	0x23
 3806 06b6 C6000000 		.4byte	0xc6
 3807 06ba 01       		.byte	0x1
 3808 06bb 05       		.byte	0x5
 3809 06bc 03       		.byte	0x3
 3810 06bd 00000000 		.4byte	ADC_Voltage_Target_stopConversion
 3811 06c1 0F       		.uleb128 0xf
 3812 06c2 5D020000 		.4byte	.LASF83
 3813 06c6 01       		.byte	0x1
 3814 06c7 26       		.byte	0x26
 3815 06c8 6F000000 		.4byte	0x6f
 3816 06cc 01       		.byte	0x1
 3817 06cd 05       		.byte	0x5
 3818 06ce 03       		.byte	0x3
 3819 06cf 00000000 		.4byte	ADC_Voltage_Target_initVar
 3820 06d3 0F       		.uleb128 0xf
 3821 06d4 CF020000 		.4byte	.LASF84
 3822 06d8 01       		.byte	0x1
 3823 06d9 29       		.byte	0x29
ARM GAS  C:\DOCUME~1\ADMINI~1\LOCALS~1\Temp\ccfNfb5I.s 			page 100


 3824 06da C6000000 		.4byte	0xc6
 3825 06de 01       		.byte	0x1
 3826 06df 05       		.byte	0x5
 3827 06e0 03       		.byte	0x3
 3828 06e1 00000000 		.4byte	ADC_Voltage_Target_started
 3829 06e5 0F       		.uleb128 0xf
 3830 06e6 23040000 		.4byte	.LASF85
 3831 06ea 01       		.byte	0x1
 3832 06eb 2C       		.byte	0x2c
 3833 06ec C6000000 		.4byte	0xc6
 3834 06f0 01       		.byte	0x1
 3835 06f1 05       		.byte	0x5
 3836 06f2 03       		.byte	0x3
 3837 06f3 00000000 		.4byte	ADC_Voltage_Target_Config
 3838 06f7 0F       		.uleb128 0xf
 3839 06f8 3A000000 		.4byte	.LASF86
 3840 06fc 01       		.byte	0x1
 3841 06fd 2E       		.byte	0x2e
 3842 06fe 09070000 		.4byte	0x709
 3843 0702 01       		.byte	0x1
 3844 0703 05       		.byte	0x5
 3845 0704 03       		.byte	0x3
 3846 0705 00000000 		.4byte	ADC_Voltage_Target_Offset
 3847 0709 05       		.uleb128 0x5
 3848 070a A6000000 		.4byte	0xa6
 3849 070e 0F       		.uleb128 0xf
 3850 070f 78050000 		.4byte	.LASF87
 3851 0713 01       		.byte	0x1
 3852 0714 2F       		.byte	0x2f
 3853 0715 09070000 		.4byte	0x709
 3854 0719 01       		.byte	0x1
 3855 071a 05       		.byte	0x5
 3856 071b 03       		.byte	0x3
 3857 071c 00000000 		.4byte	ADC_Voltage_Target_CountsPerVolt
 3858 0720 00       		.byte	0x0
 3859              		.section	.debug_abbrev
 3860 0000 01       		.uleb128 0x1
 3861 0001 11       		.uleb128 0x11
 3862 0002 01       		.byte	0x1
 3863 0003 25       		.uleb128 0x25
 3864 0004 0E       		.uleb128 0xe
 3865 0005 13       		.uleb128 0x13
 3866 0006 0B       		.uleb128 0xb
 3867 0007 03       		.uleb128 0x3
 3868 0008 0E       		.uleb128 0xe
 3869 0009 1B       		.uleb128 0x1b
 3870 000a 0E       		.uleb128 0xe
 3871 000b 11       		.uleb128 0x11
 3872 000c 01       		.uleb128 0x1
 3873 000d 52       		.uleb128 0x52
 3874 000e 01       		.uleb128 0x1
 3875 000f 55       		.uleb128 0x55
 3876 0010 06       		.uleb128 0x6
 3877 0011 10       		.uleb128 0x10
 3878 0012 06       		.uleb128 0x6
 3879 0013 00       		.byte	0x0
 3880 0014 00       		.byte	0x0
ARM GAS  C:\DOCUME~1\ADMINI~1\LOCALS~1\Temp\ccfNfb5I.s 			page 101


 3881 0015 02       		.uleb128 0x2
 3882 0016 24       		.uleb128 0x24
 3883 0017 00       		.byte	0x0
 3884 0018 0B       		.uleb128 0xb
 3885 0019 0B       		.uleb128 0xb
 3886 001a 3E       		.uleb128 0x3e
 3887 001b 0B       		.uleb128 0xb
 3888 001c 03       		.uleb128 0x3
 3889 001d 0E       		.uleb128 0xe
 3890 001e 00       		.byte	0x0
 3891 001f 00       		.byte	0x0
 3892 0020 03       		.uleb128 0x3
 3893 0021 24       		.uleb128 0x24
 3894 0022 00       		.byte	0x0
 3895 0023 0B       		.uleb128 0xb
 3896 0024 0B       		.uleb128 0xb
 3897 0025 3E       		.uleb128 0x3e
 3898 0026 0B       		.uleb128 0xb
 3899 0027 03       		.uleb128 0x3
 3900 0028 08       		.uleb128 0x8
 3901 0029 00       		.byte	0x0
 3902 002a 00       		.byte	0x0
 3903 002b 04       		.uleb128 0x4
 3904 002c 16       		.uleb128 0x16
 3905 002d 00       		.byte	0x0
 3906 002e 03       		.uleb128 0x3
 3907 002f 0E       		.uleb128 0xe
 3908 0030 3A       		.uleb128 0x3a
 3909 0031 0B       		.uleb128 0xb
 3910 0032 3B       		.uleb128 0x3b
 3911 0033 0B       		.uleb128 0xb
 3912 0034 49       		.uleb128 0x49
 3913 0035 13       		.uleb128 0x13
 3914 0036 00       		.byte	0x0
 3915 0037 00       		.byte	0x0
 3916 0038 05       		.uleb128 0x5
 3917 0039 35       		.uleb128 0x35
 3918 003a 00       		.byte	0x0
 3919 003b 49       		.uleb128 0x49
 3920 003c 13       		.uleb128 0x13
 3921 003d 00       		.byte	0x0
 3922 003e 00       		.byte	0x0
 3923 003f 06       		.uleb128 0x6
 3924 0040 24       		.uleb128 0x24
 3925 0041 00       		.byte	0x0
 3926 0042 0B       		.uleb128 0xb
 3927 0043 0B       		.uleb128 0xb
 3928 0044 3E       		.uleb128 0x3e
 3929 0045 0B       		.uleb128 0xb
 3930 0046 00       		.byte	0x0
 3931 0047 00       		.byte	0x0
 3932 0048 07       		.uleb128 0x7
 3933 0049 2E       		.uleb128 0x2e
 3934 004a 00       		.byte	0x0
 3935 004b 3F       		.uleb128 0x3f
 3936 004c 0C       		.uleb128 0xc
 3937 004d 03       		.uleb128 0x3
ARM GAS  C:\DOCUME~1\ADMINI~1\LOCALS~1\Temp\ccfNfb5I.s 			page 102


 3938 004e 0E       		.uleb128 0xe
 3939 004f 3A       		.uleb128 0x3a
 3940 0050 0B       		.uleb128 0xb
 3941 0051 3B       		.uleb128 0x3b
 3942 0052 0B       		.uleb128 0xb
 3943 0053 27       		.uleb128 0x27
 3944 0054 0C       		.uleb128 0xc
 3945 0055 11       		.uleb128 0x11
 3946 0056 01       		.uleb128 0x1
 3947 0057 12       		.uleb128 0x12
 3948 0058 01       		.uleb128 0x1
 3949 0059 40       		.uleb128 0x40
 3950 005a 06       		.uleb128 0x6
 3951 005b 00       		.byte	0x0
 3952 005c 00       		.byte	0x0
 3953 005d 08       		.uleb128 0x8
 3954 005e 2E       		.uleb128 0x2e
 3955 005f 00       		.byte	0x0
 3956 0060 3F       		.uleb128 0x3f
 3957 0061 0C       		.uleb128 0xc
 3958 0062 03       		.uleb128 0x3
 3959 0063 0E       		.uleb128 0xe
 3960 0064 3A       		.uleb128 0x3a
 3961 0065 0B       		.uleb128 0xb
 3962 0066 3B       		.uleb128 0x3b
 3963 0067 05       		.uleb128 0x5
 3964 0068 27       		.uleb128 0x27
 3965 0069 0C       		.uleb128 0xc
 3966 006a 11       		.uleb128 0x11
 3967 006b 01       		.uleb128 0x1
 3968 006c 12       		.uleb128 0x12
 3969 006d 01       		.uleb128 0x1
 3970 006e 40       		.uleb128 0x40
 3971 006f 06       		.uleb128 0x6
 3972 0070 00       		.byte	0x0
 3973 0071 00       		.byte	0x0
 3974 0072 09       		.uleb128 0x9
 3975 0073 2E       		.uleb128 0x2e
 3976 0074 01       		.byte	0x1
 3977 0075 3F       		.uleb128 0x3f
 3978 0076 0C       		.uleb128 0xc
 3979 0077 03       		.uleb128 0x3
 3980 0078 0E       		.uleb128 0xe
 3981 0079 3A       		.uleb128 0x3a
 3982 007a 0B       		.uleb128 0xb
 3983 007b 3B       		.uleb128 0x3b
 3984 007c 05       		.uleb128 0x5
 3985 007d 27       		.uleb128 0x27
 3986 007e 0C       		.uleb128 0xc
 3987 007f 11       		.uleb128 0x11
 3988 0080 01       		.uleb128 0x1
 3989 0081 12       		.uleb128 0x12
 3990 0082 01       		.uleb128 0x1
 3991 0083 40       		.uleb128 0x40
 3992 0084 06       		.uleb128 0x6
 3993 0085 01       		.uleb128 0x1
 3994 0086 13       		.uleb128 0x13
ARM GAS  C:\DOCUME~1\ADMINI~1\LOCALS~1\Temp\ccfNfb5I.s 			page 103


 3995 0087 00       		.byte	0x0
 3996 0088 00       		.byte	0x0
 3997 0089 0A       		.uleb128 0xa
 3998 008a 05       		.uleb128 0x5
 3999 008b 00       		.byte	0x0
 4000 008c 03       		.uleb128 0x3
 4001 008d 0E       		.uleb128 0xe
 4002 008e 3A       		.uleb128 0x3a
 4003 008f 0B       		.uleb128 0xb
 4004 0090 3B       		.uleb128 0x3b
 4005 0091 05       		.uleb128 0x5
 4006 0092 49       		.uleb128 0x49
 4007 0093 13       		.uleb128 0x13
 4008 0094 02       		.uleb128 0x2
 4009 0095 0A       		.uleb128 0xa
 4010 0096 00       		.byte	0x0
 4011 0097 00       		.byte	0x0
 4012 0098 0B       		.uleb128 0xb
 4013 0099 34       		.uleb128 0x34
 4014 009a 00       		.byte	0x0
 4015 009b 03       		.uleb128 0x3
 4016 009c 0E       		.uleb128 0xe
 4017 009d 3A       		.uleb128 0x3a
 4018 009e 0B       		.uleb128 0xb
 4019 009f 3B       		.uleb128 0x3b
 4020 00a0 05       		.uleb128 0x5
 4021 00a1 49       		.uleb128 0x49
 4022 00a2 13       		.uleb128 0x13
 4023 00a3 02       		.uleb128 0x2
 4024 00a4 0A       		.uleb128 0xa
 4025 00a5 00       		.byte	0x0
 4026 00a6 00       		.byte	0x0
 4027 00a7 0C       		.uleb128 0xc
 4028 00a8 2E       		.uleb128 0x2e
 4029 00a9 01       		.byte	0x1
 4030 00aa 3F       		.uleb128 0x3f
 4031 00ab 0C       		.uleb128 0xc
 4032 00ac 03       		.uleb128 0x3
 4033 00ad 0E       		.uleb128 0xe
 4034 00ae 3A       		.uleb128 0x3a
 4035 00af 0B       		.uleb128 0xb
 4036 00b0 3B       		.uleb128 0x3b
 4037 00b1 05       		.uleb128 0x5
 4038 00b2 27       		.uleb128 0x27
 4039 00b3 0C       		.uleb128 0xc
 4040 00b4 49       		.uleb128 0x49
 4041 00b5 13       		.uleb128 0x13
 4042 00b6 11       		.uleb128 0x11
 4043 00b7 01       		.uleb128 0x1
 4044 00b8 12       		.uleb128 0x12
 4045 00b9 01       		.uleb128 0x1
 4046 00ba 40       		.uleb128 0x40
 4047 00bb 06       		.uleb128 0x6
 4048 00bc 01       		.uleb128 0x1
 4049 00bd 13       		.uleb128 0x13
 4050 00be 00       		.byte	0x0
 4051 00bf 00       		.byte	0x0
ARM GAS  C:\DOCUME~1\ADMINI~1\LOCALS~1\Temp\ccfNfb5I.s 			page 104


 4052 00c0 0D       		.uleb128 0xd
 4053 00c1 2E       		.uleb128 0x2e
 4054 00c2 00       		.byte	0x0
 4055 00c3 3F       		.uleb128 0x3f
 4056 00c4 0C       		.uleb128 0xc
 4057 00c5 03       		.uleb128 0x3
 4058 00c6 0E       		.uleb128 0xe
 4059 00c7 3A       		.uleb128 0x3a
 4060 00c8 0B       		.uleb128 0xb
 4061 00c9 3B       		.uleb128 0x3b
 4062 00ca 05       		.uleb128 0x5
 4063 00cb 27       		.uleb128 0x27
 4064 00cc 0C       		.uleb128 0xc
 4065 00cd 49       		.uleb128 0x49
 4066 00ce 13       		.uleb128 0x13
 4067 00cf 11       		.uleb128 0x11
 4068 00d0 01       		.uleb128 0x1
 4069 00d1 12       		.uleb128 0x12
 4070 00d2 01       		.uleb128 0x1
 4071 00d3 40       		.uleb128 0x40
 4072 00d4 06       		.uleb128 0x6
 4073 00d5 00       		.byte	0x0
 4074 00d6 00       		.byte	0x0
 4075 00d7 0E       		.uleb128 0xe
 4076 00d8 34       		.uleb128 0x34
 4077 00d9 00       		.byte	0x0
 4078 00da 03       		.uleb128 0x3
 4079 00db 08       		.uleb128 0x8
 4080 00dc 3A       		.uleb128 0x3a
 4081 00dd 0B       		.uleb128 0xb
 4082 00de 3B       		.uleb128 0x3b
 4083 00df 05       		.uleb128 0x5
 4084 00e0 49       		.uleb128 0x49
 4085 00e1 13       		.uleb128 0x13
 4086 00e2 02       		.uleb128 0x2
 4087 00e3 0A       		.uleb128 0xa
 4088 00e4 00       		.byte	0x0
 4089 00e5 00       		.byte	0x0
 4090 00e6 0F       		.uleb128 0xf
 4091 00e7 34       		.uleb128 0x34
 4092 00e8 00       		.byte	0x0
 4093 00e9 03       		.uleb128 0x3
 4094 00ea 0E       		.uleb128 0xe
 4095 00eb 3A       		.uleb128 0x3a
 4096 00ec 0B       		.uleb128 0xb
 4097 00ed 3B       		.uleb128 0x3b
 4098 00ee 0B       		.uleb128 0xb
 4099 00ef 49       		.uleb128 0x49
 4100 00f0 13       		.uleb128 0x13
 4101 00f1 3F       		.uleb128 0x3f
 4102 00f2 0C       		.uleb128 0xc
 4103 00f3 02       		.uleb128 0x2
 4104 00f4 0A       		.uleb128 0xa
 4105 00f5 00       		.byte	0x0
 4106 00f6 00       		.byte	0x0
 4107 00f7 00       		.byte	0x0
 4108              		.section	.debug_pubnames,"",%progbits
ARM GAS  C:\DOCUME~1\ADMINI~1\LOCALS~1\Temp\ccfNfb5I.s 			page 105


 4109 0000 7A040000 		.4byte	0x47a
 4110 0004 0200     		.2byte	0x2
 4111 0006 00000000 		.4byte	.Ldebug_info0
 4112 000a 21070000 		.4byte	0x721
 4113 000e CE000000 		.4byte	0xce
 4114 0012 4144435F 		.ascii	"ADC_Voltage_Target_Init\000"
 4114      566F6C74 
 4114      6167655F 
 4114      54617267 
 4114      65745F49 
 4115 002a E3000000 		.4byte	0xe3
 4116 002e 4144435F 		.ascii	"ADC_Voltage_Target_Enable\000"
 4116      566F6C74 
 4116      6167655F 
 4116      54617267 
 4116      65745F45 
 4117 0048 F8000000 		.4byte	0xf8
 4118 004c 4144435F 		.ascii	"ADC_Voltage_Target_Start\000"
 4118      566F6C74 
 4118      6167655F 
 4118      54617267 
 4118      65745F53 
 4119 0065 0E010000 		.4byte	0x10e
 4120 0069 4144435F 		.ascii	"ADC_Voltage_Target_Stop\000"
 4120      566F6C74 
 4120      6167655F 
 4120      54617267 
 4120      65745F53 
 4121 0081 24010000 		.4byte	0x124
 4122 0085 4144435F 		.ascii	"ADC_Voltage_Target_SetBufferGain\000"
 4122      566F6C74 
 4122      6167655F 
 4122      54617267 
 4122      65745F53 
 4123 00a6 5D010000 		.4byte	0x15d
 4124 00aa 4144435F 		.ascii	"ADC_Voltage_Target_SetCoherency\000"
 4124      566F6C74 
 4124      6167655F 
 4124      54617267 
 4124      65745F53 
 4125 00ca 96010000 		.4byte	0x196
 4126 00ce 4144435F 		.ascii	"ADC_Voltage_Target_SetGCOR\000"
 4126      566F6C74 
 4126      6167655F 
 4126      54617267 
 4126      65745F53 
 4127 00e9 F1010000 		.4byte	0x1f1
 4128 00ed 4144435F 		.ascii	"ADC_Voltage_Target_ReadGCOR\000"
 4128      566F6C74 
 4128      6167655F 
 4128      54617267 
 4128      65745F52 
 4129 0109 3D020000 		.4byte	0x23d
 4130 010d 4144435F 		.ascii	"ADC_Voltage_Target_SetBufferChop\000"
 4130      566F6C74 
 4130      6167655F 
 4130      54617267 
ARM GAS  C:\DOCUME~1\ADMINI~1\LOCALS~1\Temp\ccfNfb5I.s 			page 106


 4130      65745F53 
 4131 012e 76020000 		.4byte	0x276
 4132 0132 4144435F 		.ascii	"ADC_Voltage_Target_StartConvert\000"
 4132      566F6C74 
 4132      6167655F 
 4132      54617267 
 4132      65745F53 
 4133 0152 8C020000 		.4byte	0x28c
 4134 0156 4144435F 		.ascii	"ADC_Voltage_Target_StopConvert\000"
 4134      566F6C74 
 4134      6167655F 
 4134      54617267 
 4134      65745F53 
 4135 0175 A2020000 		.4byte	0x2a2
 4136 0179 4144435F 		.ascii	"ADC_Voltage_Target_IsEndConversion\000"
 4136      566F6C74 
 4136      6167655F 
 4136      54617267 
 4136      65745F49 
 4137 019c DF020000 		.4byte	0x2df
 4138 01a0 4144435F 		.ascii	"ADC_Voltage_Target_GetResult8\000"
 4138      566F6C74 
 4138      6167655F 
 4138      54617267 
 4138      65745F47 
 4139 01be F9020000 		.4byte	0x2f9
 4140 01c2 4144435F 		.ascii	"ADC_Voltage_Target_GetResult16\000"
 4140      566F6C74 
 4140      6167655F 
 4140      54617267 
 4140      65745F47 
 4141 01e1 27030000 		.4byte	0x327
 4142 01e5 4144435F 		.ascii	"ADC_Voltage_Target_GetResult32\000"
 4142      566F6C74 
 4142      6167655F 
 4142      54617267 
 4142      65745F47 
 4143 0204 55030000 		.4byte	0x355
 4144 0208 4144435F 		.ascii	"ADC_Voltage_Target_SetOffset\000"
 4144      566F6C74 
 4144      6167655F 
 4144      54617267 
 4144      65745F53 
 4145 0225 7F030000 		.4byte	0x37f
 4146 0229 4144435F 		.ascii	"ADC_Voltage_Target_SetGain\000"
 4146      566F6C74 
 4146      6167655F 
 4146      54617267 
 4146      65745F53 
 4147 0244 A9030000 		.4byte	0x3a9
 4148 0248 4144435F 		.ascii	"ADC_Voltage_Target_CountsTo_mVolts\000"
 4148      566F6C74 
 4148      6167655F 
 4148      54617267 
 4148      65745F43 
 4149 026b 0F040000 		.4byte	0x40f
 4150 026f 4144435F 		.ascii	"ADC_Voltage_Target_CountsTo_Volts\000"
ARM GAS  C:\DOCUME~1\ADMINI~1\LOCALS~1\Temp\ccfNfb5I.s 			page 107


 4150      566F6C74 
 4150      6167655F 
 4150      54617267 
 4150      65745F43 
 4151 0291 4C040000 		.4byte	0x44c
 4152 0295 4144435F 		.ascii	"ADC_Voltage_Target_CountsTo_uVolts\000"
 4152      566F6C74 
 4152      6167655F 
 4152      54617267 
 4152      65745F43 
 4153 02b8 B2040000 		.4byte	0x4b2
 4154 02bc 4144435F 		.ascii	"ADC_Voltage_Target_IRQ_Start\000"
 4154      566F6C74 
 4154      6167655F 
 4154      54617267 
 4154      65745F49 
 4155 02d9 C8040000 		.4byte	0x4c8
 4156 02dd 4144435F 		.ascii	"ADC_Voltage_Target_InitConfig\000"
 4156      566F6C74 
 4156      6167655F 
 4156      54617267 
 4156      65745F49 
 4157 02fb F2040000 		.4byte	0x4f2
 4158 02ff 4144435F 		.ascii	"ADC_Voltage_Target_RoundValue\000"
 4158      566F6C74 
 4158      6167655F 
 4158      54617267 
 4158      65745F52 
 4159 031d 4D050000 		.4byte	0x54d
 4160 0321 4144435F 		.ascii	"ADC_Voltage_Target_SelectConfiguration\000"
 4160      566F6C74 
 4160      6167655F 
 4160      54617267 
 4160      65745F53 
 4161 0348 E0050000 		.4byte	0x5e0
 4162 034c 4144435F 		.ascii	"ADC_Voltage_Target_GainCompensation\000"
 4162      566F6C74 
 4162      6167655F 
 4162      54617267 
 4162      65745F47 
 4163 0370 73060000 		.4byte	0x673
 4164 0374 4144435F 		.ascii	"ADC_Voltage_Target_SetDSMRef0Reg\000"
 4164      566F6C74 
 4164      6167655F 
 4164      54617267 
 4164      65745F53 
 4165 0395 9D060000 		.4byte	0x69d
 4166 0399 4144435F 		.ascii	"ADC_Voltage_Target_convDone\000"
 4166      566F6C74 
 4166      6167655F 
 4166      54617267 
 4166      65745F63 
 4167 03b5 AF060000 		.4byte	0x6af
 4168 03b9 4144435F 		.ascii	"ADC_Voltage_Target_stopConversion\000"
 4168      566F6C74 
 4168      6167655F 
 4168      54617267 
ARM GAS  C:\DOCUME~1\ADMINI~1\LOCALS~1\Temp\ccfNfb5I.s 			page 108


 4168      65745F73 
 4169 03db C1060000 		.4byte	0x6c1
 4170 03df 4144435F 		.ascii	"ADC_Voltage_Target_initVar\000"
 4170      566F6C74 
 4170      6167655F 
 4170      54617267 
 4170      65745F69 
 4171 03fa D3060000 		.4byte	0x6d3
 4172 03fe 4144435F 		.ascii	"ADC_Voltage_Target_started\000"
 4172      566F6C74 
 4172      6167655F 
 4172      54617267 
 4172      65745F73 
 4173 0419 E5060000 		.4byte	0x6e5
 4174 041d 4144435F 		.ascii	"ADC_Voltage_Target_Config\000"
 4174      566F6C74 
 4174      6167655F 
 4174      54617267 
 4174      65745F43 
 4175 0437 F7060000 		.4byte	0x6f7
 4176 043b 4144435F 		.ascii	"ADC_Voltage_Target_Offset\000"
 4176      566F6C74 
 4176      6167655F 
 4176      54617267 
 4176      65745F4F 
 4177 0455 0E070000 		.4byte	0x70e
 4178 0459 4144435F 		.ascii	"ADC_Voltage_Target_CountsPerVolt\000"
 4178      566F6C74 
 4178      6167655F 
 4178      54617267 
 4178      65745F43 
 4179 047a 00000000 		.4byte	0x0
 4180              		.section	.debug_aranges,"",%progbits
 4181 0000 E4000000 		.4byte	0xe4
 4182 0004 0200     		.2byte	0x2
 4183 0006 00000000 		.4byte	.Ldebug_info0
 4184 000a 04       		.byte	0x4
 4185 000b 00       		.byte	0x0
 4186 000c 0000     		.2byte	0x0
 4187 000e 0000     		.2byte	0x0
 4188 0010 00000000 		.4byte	.LFB0
 4189 0014 32000000 		.4byte	.LFE0-.LFB0
 4190 0018 00000000 		.4byte	.LFB1
 4191 001c A2010000 		.4byte	.LFE1-.LFB1
 4192 0020 00000000 		.4byte	.LFB2
 4193 0024 3A000000 		.4byte	.LFE2-.LFB2
 4194 0028 00000000 		.4byte	.LFB3
 4195 002c CE010000 		.4byte	.LFE3-.LFB3
 4196 0030 00000000 		.4byte	.LFB4
 4197 0034 44000000 		.4byte	.LFE4-.LFB4
 4198 0038 00000000 		.4byte	.LFB5
 4199 003c 3C000000 		.4byte	.LFE5-.LFB5
 4200 0040 00000000 		.4byte	.LFB6
 4201 0044 E4000000 		.4byte	.LFE6-.LFB6
 4202 0048 00000000 		.4byte	.LFB7
 4203 004c BA000000 		.4byte	.LFE7-.LFB7
 4204 0050 00000000 		.4byte	.LFB8
ARM GAS  C:\DOCUME~1\ADMINI~1\LOCALS~1\Temp\ccfNfb5I.s 			page 109


 4205 0054 44000000 		.4byte	.LFE8-.LFB8
 4206 0058 00000000 		.4byte	.LFB9
 4207 005c 26000000 		.4byte	.LFE9-.LFB9
 4208 0060 00000000 		.4byte	.LFB10
 4209 0064 32000000 		.4byte	.LFE10-.LFB10
 4210 0068 00000000 		.4byte	.LFB11
 4211 006c 60000000 		.4byte	.LFE11-.LFB11
 4212 0070 00000000 		.4byte	.LFB12
 4213 0074 1A000000 		.4byte	.LFE12-.LFB12
 4214 0078 00000000 		.4byte	.LFB13
 4215 007c 22000000 		.4byte	.LFE13-.LFB13
 4216 0080 00000000 		.4byte	.LFB14
 4217 0084 3A000000 		.4byte	.LFE14-.LFB14
 4218 0088 00000000 		.4byte	.LFB15
 4219 008c 1E000000 		.4byte	.LFE15-.LFB15
 4220 0090 00000000 		.4byte	.LFB16
 4221 0094 1E000000 		.4byte	.LFE16-.LFB16
 4222 0098 00000000 		.4byte	.LFB17
 4223 009c C4000000 		.4byte	.LFE17-.LFB17
 4224 00a0 00000000 		.4byte	.LFB18
 4225 00a4 54000000 		.4byte	.LFE18-.LFB18
 4226 00a8 00000000 		.4byte	.LFB19
 4227 00ac F0000000 		.4byte	.LFE19-.LFB19
 4228 00b0 00000000 		.4byte	.LFB20
 4229 00b4 3E000000 		.4byte	.LFE20-.LFB20
 4230 00b8 00000000 		.4byte	.LFB21
 4231 00bc D8020000 		.4byte	.LFE21-.LFB21
 4232 00c0 00000000 		.4byte	.LFB22
 4233 00c4 54000000 		.4byte	.LFE22-.LFB22
 4234 00c8 00000000 		.4byte	.LFB23
 4235 00cc 04010000 		.4byte	.LFE23-.LFB23
 4236 00d0 00000000 		.4byte	.LFB24
 4237 00d4 9A010000 		.4byte	.LFE24-.LFB24
 4238 00d8 00000000 		.4byte	.LFB25
 4239 00dc 92000000 		.4byte	.LFE25-.LFB25
 4240 00e0 00000000 		.4byte	0x0
 4241 00e4 00000000 		.4byte	0x0
 4242              		.section	.debug_ranges,"",%progbits
 4243              	.Ldebug_ranges0:
 4244 0000 00000000 		.4byte	.Ltext0
 4245 0004 00000000 		.4byte	.Letext0
 4246 0008 00000000 		.4byte	.LFB0
 4247 000c 32000000 		.4byte	.LFE0
 4248 0010 00000000 		.4byte	.LFB1
 4249 0014 A2010000 		.4byte	.LFE1
 4250 0018 00000000 		.4byte	.LFB2
 4251 001c 3A000000 		.4byte	.LFE2
 4252 0020 00000000 		.4byte	.LFB3
 4253 0024 CE010000 		.4byte	.LFE3
 4254 0028 00000000 		.4byte	.LFB4
 4255 002c 44000000 		.4byte	.LFE4
 4256 0030 00000000 		.4byte	.LFB5
 4257 0034 3C000000 		.4byte	.LFE5
 4258 0038 00000000 		.4byte	.LFB6
 4259 003c E4000000 		.4byte	.LFE6
 4260 0040 00000000 		.4byte	.LFB7
 4261 0044 BA000000 		.4byte	.LFE7
ARM GAS  C:\DOCUME~1\ADMINI~1\LOCALS~1\Temp\ccfNfb5I.s 			page 110


 4262 0048 00000000 		.4byte	.LFB8
 4263 004c 44000000 		.4byte	.LFE8
 4264 0050 00000000 		.4byte	.LFB9
 4265 0054 26000000 		.4byte	.LFE9
 4266 0058 00000000 		.4byte	.LFB10
 4267 005c 32000000 		.4byte	.LFE10
 4268 0060 00000000 		.4byte	.LFB11
 4269 0064 60000000 		.4byte	.LFE11
 4270 0068 00000000 		.4byte	.LFB12
 4271 006c 1A000000 		.4byte	.LFE12
 4272 0070 00000000 		.4byte	.LFB13
 4273 0074 22000000 		.4byte	.LFE13
 4274 0078 00000000 		.4byte	.LFB14
 4275 007c 3A000000 		.4byte	.LFE14
 4276 0080 00000000 		.4byte	.LFB15
 4277 0084 1E000000 		.4byte	.LFE15
 4278 0088 00000000 		.4byte	.LFB16
 4279 008c 1E000000 		.4byte	.LFE16
 4280 0090 00000000 		.4byte	.LFB17
 4281 0094 C4000000 		.4byte	.LFE17
 4282 0098 00000000 		.4byte	.LFB18
 4283 009c 54000000 		.4byte	.LFE18
 4284 00a0 00000000 		.4byte	.LFB19
 4285 00a4 F0000000 		.4byte	.LFE19
 4286 00a8 00000000 		.4byte	.LFB20
 4287 00ac 3E000000 		.4byte	.LFE20
 4288 00b0 00000000 		.4byte	.LFB21
 4289 00b4 D8020000 		.4byte	.LFE21
 4290 00b8 00000000 		.4byte	.LFB22
 4291 00bc 54000000 		.4byte	.LFE22
 4292 00c0 00000000 		.4byte	.LFB23
 4293 00c4 04010000 		.4byte	.LFE23
 4294 00c8 00000000 		.4byte	.LFB24
 4295 00cc 9A010000 		.4byte	.LFE24
 4296 00d0 00000000 		.4byte	.LFB25
 4297 00d4 92000000 		.4byte	.LFE25
 4298 00d8 00000000 		.4byte	0x0
 4299 00dc 00000000 		.4byte	0x0
 4300              		.section	.debug_str,"MS",%progbits,1
 4301              	.LASF10:
 4302 0000 75696E74 		.ascii	"uint16\000"
 4302      313600
 4303              	.LASF48:
 4304 0007 61646347 		.ascii	"adcGain\000"
 4304      61696E00 
 4305              	.LASF67:
 4306 000f 696E7075 		.ascii	"inputRange\000"
 4306      7452616E 
 4306      676500
 4307              	.LASF38:
 4308 001a 4144435F 		.ascii	"ADC_Voltage_Target_StartConvert\000"
 4308      566F6C74 
 4308      6167655F 
 4308      54617267 
 4308      65745F53 
 4309              	.LASF86:
 4310 003a 4144435F 		.ascii	"ADC_Voltage_Target_Offset\000"
ARM GAS  C:\DOCUME~1\ADMINI~1\LOCALS~1\Temp\ccfNfb5I.s 			page 111


 4310      566F6C74 
 4310      6167655F 
 4310      54617267 
 4310      65745F4F 
 4311              	.LASF90:
 4312 0054 5C5C7073 		.ascii	"\\\\psf\\Home\\Desktop\\KitProg version 2_03\\KitPr"
 4312      665C486F 
 4312      6D655C44 
 4312      65736B74 
 4312      6F705C4B 
 4313 0081 6F675C4B 		.ascii	"og\\KitProg.cydsn\000"
 4313      69745072 
 4313      6F672E63 
 4313      7964736E 
 4313      00
 4314              	.LASF62:
 4315 0092 636C6F63 		.ascii	"clockFreq\000"
 4315      6B467265 
 4315      7100
 4316              	.LASF21:
 4317 009c 4144435F 		.ascii	"ADC_Voltage_Target_Stop\000"
 4317      566F6C74 
 4317      6167655F 
 4317      54617267 
 4317      65745F53 
 4318              	.LASF7:
 4319 00b4 6C6F6E67 		.ascii	"long long unsigned int\000"
 4319      206C6F6E 
 4319      6720756E 
 4319      7369676E 
 4319      65642069 
 4320              	.LASF57:
 4321 00cb 4144435F 		.ascii	"ADC_Voltage_Target_IRQ_Start\000"
 4321      566F6C74 
 4321      6167655F 
 4321      54617267 
 4321      65745F49 
 4322              	.LASF88:
 4323 00e8 474E5520 		.ascii	"GNU C 4.4.1\000"
 4323      4320342E 
 4323      342E3100 
 4324              	.LASF76:
 4325 00f4 4E6F726D 		.ascii	"Normalised\000"
 4325      616C6973 
 4325      656400
 4326              	.LASF61:
 4327 00ff 62757343 		.ascii	"busClockFreq\000"
 4327      6C6F636B 
 4327      46726571 
 4327      00
 4328              	.LASF79:
 4329 010c 4144435F 		.ascii	"ADC_Voltage_Target_SetDSMRef0Reg\000"
 4329      566F6C74 
 4329      6167655F 
 4329      54617267 
 4329      65745F53 
 4330              	.LASF55:
ARM GAS  C:\DOCUME~1\ADMINI~1\LOCALS~1\Temp\ccfNfb5I.s 			page 112


 4331 012d 4144435F 		.ascii	"ADC_Voltage_Target_CountsTo_uVolts\000"
 4331      566F6C74 
 4331      6167655F 
 4331      54617267 
 4331      65745F43 
 4332              	.LASF6:
 4333 0150 6C6F6E67 		.ascii	"long long int\000"
 4333      206C6F6E 
 4333      6720696E 
 4333      7400
 4334              	.LASF0:
 4335 015e 7369676E 		.ascii	"signed char\000"
 4335      65642063 
 4335      68617200 
 4336              	.LASF42:
 4337 016a 4144435F 		.ascii	"ADC_Voltage_Target_GetResult16\000"
 4337      566F6C74 
 4337      6167655F 
 4337      54617267 
 4337      65745F47 
 4338              	.LASF77:
 4339 0189 47636F72 		.ascii	"GcorValue\000"
 4339      56616C75 
 4339      6500
 4340              	.LASF14:
 4341 0193 696E7433 		.ascii	"int32\000"
 4341      3200
 4342              	.LASF4:
 4343 0199 6C6F6E67 		.ascii	"long int\000"
 4343      20696E74 
 4343      00
 4344              	.LASF65:
 4345 01a2 4144435F 		.ascii	"ADC_Voltage_Target_SelectConfiguration\000"
 4345      566F6C74 
 4345      6167655F 
 4345      54617267 
 4345      65745F53 
 4346              	.LASF9:
 4347 01c9 75696E74 		.ascii	"uint8\000"
 4347      3800
 4348              	.LASF82:
 4349 01cf 4144435F 		.ascii	"ADC_Voltage_Target_stopConversion\000"
 4349      566F6C74 
 4349      6167655F 
 4349      54617267 
 4349      65745F73 
 4350              	.LASF16:
 4351 01f1 646F7562 		.ascii	"double\000"
 4351      6C6500
 4352              	.LASF54:
 4353 01f8 566F6C74 		.ascii	"Volts\000"
 4353      7300
 4354              	.LASF49:
 4355 01fe 4144435F 		.ascii	"ADC_Voltage_Target_CountsTo_mVolts\000"
 4355      566F6C74 
 4355      6167655F 
 4355      54617267 
ARM GAS  C:\DOCUME~1\ADMINI~1\LOCALS~1\Temp\ccfNfb5I.s 			page 113


 4355      65745F43 
 4356              	.LASF11:
 4357 0221 75696E74 		.ascii	"uint32\000"
 4357      333200
 4358              	.LASF39:
 4359 0228 4144435F 		.ascii	"ADC_Voltage_Target_StopConvert\000"
 4359      566F6C74 
 4359      6167655F 
 4359      54617267 
 4359      65745F53 
 4360              	.LASF74:
 4361 0247 49646561 		.ascii	"IdealOddDecGain\000"
 4361      6C4F6464 
 4361      44656347 
 4361      61696E00 
 4362              	.LASF80:
 4363 0257 76616C75 		.ascii	"value\000"
 4363      6500
 4364              	.LASF83:
 4365 025d 4144435F 		.ascii	"ADC_Voltage_Target_initVar\000"
 4365      566F6C74 
 4365      6167655F 
 4365      54617267 
 4365      65745F69 
 4366              	.LASF8:
 4367 0278 756E7369 		.ascii	"unsigned int\000"
 4367      676E6564 
 4367      20696E74 
 4367      00
 4368              	.LASF60:
 4369 0285 4144435F 		.ascii	"ADC_Voltage_Target_RoundValue\000"
 4369      566F6C74 
 4369      6167655F 
 4369      54617267 
 4369      65745F52 
 4370              	.LASF56:
 4371 02a3 75566F6C 		.ascii	"uVolts\000"
 4371      747300
 4372              	.LASF5:
 4373 02aa 6C6F6E67 		.ascii	"long unsigned int\000"
 4373      20756E73 
 4373      69676E65 
 4373      6420696E 
 4373      7400
 4374              	.LASF41:
 4375 02bc 774D6F64 		.ascii	"wMode\000"
 4375      6500
 4376              	.LASF34:
 4377 02c2 67636F72 		.ascii	"gcorRegValue\000"
 4377      52656756 
 4377      616C7565 
 4377      00
 4378              	.LASF84:
 4379 02cf 4144435F 		.ascii	"ADC_Voltage_Target_started\000"
 4379      566F6C74 
 4379      6167655F 
 4379      54617267 
ARM GAS  C:\DOCUME~1\ADMINI~1\LOCALS~1\Temp\ccfNfb5I.s 			page 114


 4379      65745F73 
 4380              	.LASF23:
 4381 02ea 4144435F 		.ascii	"ADC_Voltage_Target_SetCoherency\000"
 4381      566F6C74 
 4381      6167655F 
 4381      54617267 
 4381      65745F53 
 4382              	.LASF3:
 4383 030a 73686F72 		.ascii	"short unsigned int\000"
 4383      7420756E 
 4383      7369676E 
 4383      65642069 
 4383      6E7400
 4384              	.LASF12:
 4385 031d 696E7438 		.ascii	"int8\000"
 4385      00
 4386              	.LASF44:
 4387 0322 4144435F 		.ascii	"ADC_Voltage_Target_GetResult32\000"
 4387      566F6C74 
 4387      6167655F 
 4387      54617267 
 4387      65745F47 
 4388              	.LASF33:
 4389 0341 67636F72 		.ascii	"gcorValue\000"
 4389      56616C75 
 4389      6500
 4390              	.LASF45:
 4391 034b 4144435F 		.ascii	"ADC_Voltage_Target_SetOffset\000"
 4391      566F6C74 
 4391      6167655F 
 4391      54617267 
 4391      65745F53 
 4392              	.LASF31:
 4393 0368 4144435F 		.ascii	"ADC_Voltage_Target_ReadGCOR\000"
 4393      566F6C74 
 4393      6167655F 
 4393      54617267 
 4393      65745F52 
 4394              	.LASF20:
 4395 0384 4144435F 		.ascii	"ADC_Voltage_Target_Start\000"
 4395      566F6C74 
 4395      6167655F 
 4395      54617267 
 4395      65745F53 
 4396              	.LASF70:
 4397 039d 6370436C 		.ascii	"cpClockDivider\000"
 4397      6F636B44 
 4397      69766964 
 4397      657200
 4398              	.LASF51:
 4399 03ac 6D566F6C 		.ascii	"mVolts\000"
 4399      747300
 4400              	.LASF75:
 4401 03b3 666C6173 		.ascii	"flash\000"
 4401      6800
 4402              	.LASF19:
 4403 03b9 4144435F 		.ascii	"ADC_Voltage_Target_Enable\000"
ARM GAS  C:\DOCUME~1\ADMINI~1\LOCALS~1\Temp\ccfNfb5I.s 			page 115


 4403      566F6C74 
 4403      6167655F 
 4403      54617267 
 4403      65745F45 
 4404              	.LASF18:
 4405 03d3 4144435F 		.ascii	"ADC_Voltage_Target_Init\000"
 4405      566F6C74 
 4405      6167655F 
 4405      54617267 
 4405      65745F49 
 4406              	.LASF68:
 4407 03eb 69646561 		.ascii	"idealGain\000"
 4407      6C476169 
 4407      6E00
 4408              	.LASF89:
 4409 03f5 2E5C4765 		.ascii	".\\Generated_Source\\PSoC5\\ADC_Voltage_Target.c\000"
 4409      6E657261 
 4409      7465645F 
 4409      536F7572 
 4409      63655C50 
 4410              	.LASF85:
 4411 0423 4144435F 		.ascii	"ADC_Voltage_Target_Config\000"
 4411      566F6C74 
 4411      6167655F 
 4411      54617267 
 4411      65745F43 
 4412              	.LASF30:
 4413 043d 4144435F 		.ascii	"ADC_Voltage_Target_SetGCOR\000"
 4413      566F6C74 
 4413      6167655F 
 4413      54617267 
 4413      65745F53 
 4414              	.LASF25:
 4415 0458 636F6865 		.ascii	"coherency\000"
 4415      72656E63 
 4415      7900
 4416              	.LASF15:
 4417 0462 666C6F61 		.ascii	"float\000"
 4417      7400
 4418              	.LASF47:
 4419 0468 4144435F 		.ascii	"ADC_Voltage_Target_SetGain\000"
 4419      566F6C74 
 4419      6167655F 
 4419      54617267 
 4419      65745F53 
 4420              	.LASF58:
 4421 0483 4144435F 		.ascii	"ADC_Voltage_Target_InitConfig\000"
 4421      566F6C74 
 4421      6167655F 
 4421      54617267 
 4421      65745F49 
 4422              	.LASF91:
 4423 04a1 4144435F 		.ascii	"ADC_Voltage_Target_GetResult8\000"
 4423      566F6C74 
 4423      6167655F 
 4423      54617267 
 4423      65745F47 
ARM GAS  C:\DOCUME~1\ADMINI~1\LOCALS~1\Temp\ccfNfb5I.s 			page 116


 4424              	.LASF24:
 4425 04bf 6761696E 		.ascii	"gain\000"
 4425      00
 4426              	.LASF1:
 4427 04c4 756E7369 		.ascii	"unsigned char\000"
 4427      676E6564 
 4427      20636861 
 4427      7200
 4428              	.LASF2:
 4429 04d2 73686F72 		.ascii	"short int\000"
 4429      7420696E 
 4429      7400
 4430              	.LASF72:
 4431 04dc 4144435F 		.ascii	"ADC_Voltage_Target_GainCompensation\000"
 4431      566F6C74 
 4431      6167655F 
 4431      54617267 
 4431      65745F47 
 4432              	.LASF63:
 4433 0500 64697669 		.ascii	"divider1\000"
 4433      64657231 
 4433      00
 4434              	.LASF64:
 4435 0509 64697669 		.ascii	"divider2\000"
 4435      64657232 
 4435      00
 4436              	.LASF40:
 4437 0512 4144435F 		.ascii	"ADC_Voltage_Target_IsEndConversion\000"
 4437      566F6C74 
 4437      6167655F 
 4437      54617267 
 4437      65745F49 
 4438              	.LASF52:
 4439 0535 7265736F 		.ascii	"resolution\000"
 4439      6C757469 
 4439      6F6E00
 4440              	.LASF78:
 4441 0540 47636F72 		.ascii	"GcorTmp\000"
 4441      546D7000 
 4442              	.LASF73:
 4443 0548 49646561 		.ascii	"IdealDecGain\000"
 4443      6C446563 
 4443      4761696E 
 4443      00
 4444              	.LASF17:
 4445 0555 63686172 		.ascii	"char\000"
 4445      00
 4446              	.LASF32:
 4447 055a 6756616C 		.ascii	"gValue\000"
 4447      756500
 4448              	.LASF59:
 4449 0561 636F6E66 		.ascii	"config\000"
 4449      696700
 4450              	.LASF69:
 4451 0568 61646343 		.ascii	"adcClockDivider\000"
 4451      6C6F636B 
 4451      44697669 
ARM GAS  C:\DOCUME~1\ADMINI~1\LOCALS~1\Temp\ccfNfb5I.s 			page 117


 4451      64657200 
 4452              	.LASF87:
 4453 0578 4144435F 		.ascii	"ADC_Voltage_Target_CountsPerVolt\000"
 4453      566F6C74 
 4453      6167655F 
 4453      54617267 
 4453      65745F43 
 4454              	.LASF37:
 4455 0599 63686F70 		.ascii	"chopFreq\000"
 4455      46726571 
 4455      00
 4456              	.LASF66:
 4457 05a2 72657374 		.ascii	"restart\000"
 4457      61727400 
 4458              	.LASF29:
 4459 05aa 746D7056 		.ascii	"tmpValue\000"
 4459      616C7565 
 4459      00
 4460              	.LASF71:
 4461 05b3 69646561 		.ascii	"idealOddGain\000"
 4461      6C4F6464 
 4461      4761696E 
 4461      00
 4462              	.LASF46:
 4463 05c0 6F666673 		.ascii	"offset\000"
 4463      657400
 4464              	.LASF50:
 4465 05c7 61646343 		.ascii	"adcCounts\000"
 4465      6F756E74 
 4465      7300
 4466              	.LASF28:
 4467 05d1 73746174 		.ascii	"status\000"
 4467      757300
 4468              	.LASF27:
 4469 05d8 6761696E 		.ascii	"gainAdjust\000"
 4469      41646A75 
 4469      737400
 4470              	.LASF13:
 4471 05e3 696E7431 		.ascii	"int16\000"
 4471      3600
 4472              	.LASF36:
 4473 05e9 63686F70 		.ascii	"chopen\000"
 4473      656E00
 4474              	.LASF81:
 4475 05f0 4144435F 		.ascii	"ADC_Voltage_Target_convDone\000"
 4475      566F6C74 
 4475      6167655F 
 4475      54617267 
 4475      65745F63 
 4476              	.LASF35:
 4477 060c 4144435F 		.ascii	"ADC_Voltage_Target_SetBufferChop\000"
 4477      566F6C74 
 4477      6167655F 
 4477      54617267 
 4477      65745F53 
 4478              	.LASF26:
 4479 062d 746D7052 		.ascii	"tmpReg\000"
ARM GAS  C:\DOCUME~1\ADMINI~1\LOCALS~1\Temp\ccfNfb5I.s 			page 118


 4479      656700
 4480              	.LASF22:
 4481 0634 4144435F 		.ascii	"ADC_Voltage_Target_SetBufferGain\000"
 4481      566F6C74 
 4481      6167655F 
 4481      54617267 
 4481      65745F53 
 4482              	.LASF43:
 4483 0655 72657375 		.ascii	"result\000"
 4483      6C7400
 4484              	.LASF53:
 4485 065c 4144435F 		.ascii	"ADC_Voltage_Target_CountsTo_Volts\000"
 4485      566F6C74 
 4485      6167655F 
 4485      54617267 
 4485      65745F43 
 4486              		.ident	"GCC: (Sourcery G++ Lite 2010q1-188) 4.4.1"
