ARM GAS  C:\DOCUME~1\ADMINI~1\LOCALS~1\Temp\ccfNfb5I.s 			page 1


   1              		.syntax unified
   2              		.cpu cortex-m3
   3              		.fpu softvfp
   4              		.eabi_attribute 20, 1
   5              		.eabi_attribute 21, 1
   6              		.eabi_attribute 23, 3
   7              		.eabi_attribute 24, 1
   8              		.eabi_attribute 25, 1
   9              		.eabi_attribute 26, 1
  10              		.eabi_attribute 30, 6
  11              		.eabi_attribute 18, 4
  12              		.thumb
  13              		.file	"ADC_Voltage_Target.c"
  20 0000 55030000 		.text
  20      02006B00 
  20      00000201 
  20      FB0E0D00 
  20      01010101 
  21              	.Ltext0:
  22              		.cfi_sections	.debug_frame
  23              		.global	ADC_Voltage_Target_convDone
  24              		.bss
  25              		.type	ADC_Voltage_Target_convDone, %object
  26              		.size	ADC_Voltage_Target_convDone, 1
  27              	ADC_Voltage_Target_convDone:
  28 0000 00       		.space	1
  29              		.global	ADC_Voltage_Target_stopConversion
  30              		.type	ADC_Voltage_Target_stopConversion, %object
  31              		.size	ADC_Voltage_Target_stopConversion, 1
  32              	ADC_Voltage_Target_stopConversion:
  33 0001 00       		.space	1
  34              		.global	ADC_Voltage_Target_initVar
  35              		.type	ADC_Voltage_Target_initVar, %object
  36              		.size	ADC_Voltage_Target_initVar, 1
  37              	ADC_Voltage_Target_initVar:
  38 0002 00       		.space	1
  39              		.global	ADC_Voltage_Target_started
  40              		.type	ADC_Voltage_Target_started, %object
  41              		.size	ADC_Voltage_Target_started, 1
  42              	ADC_Voltage_Target_started:
  43 0003 00       		.space	1
  44              		.global	ADC_Voltage_Target_Config
  45              		.data
  46              		.type	ADC_Voltage_Target_Config, %object
  47              		.size	ADC_Voltage_Target_Config, 1
  48              	ADC_Voltage_Target_Config:
  49 0000 01       		.byte	1
  50              		.global	ADC_Voltage_Target_Offset
  51              		.bss
  52              		.align	2
  53              		.type	ADC_Voltage_Target_Offset, %object
ARM GAS  C:\DOCUME~1\ADMINI~1\LOCALS~1\Temp\ccfNfb5I.s 			page 2


  54              		.size	ADC_Voltage_Target_Offset, 4
  55              	ADC_Voltage_Target_Offset:
  56 0004 00000000 		.space	4
  57              		.global	ADC_Voltage_Target_CountsPerVolt
  58              		.data
  59 0001 000000   		.align	2
  60              		.type	ADC_Voltage_Target_CountsPerVolt, %object
  61              		.size	ADC_Voltage_Target_CountsPerVolt, 4
  62              	ADC_Voltage_Target_CountsPerVolt:
  63 0004 33030000 		.word	819
  64              		.section	.text.ADC_Voltage_Target_Init,"ax",%progbits
  65              		.align	2
  66              		.global	ADC_Voltage_Target_Init
  67              		.thumb
  68              		.thumb_func
  69              		.type	ADC_Voltage_Target_Init, %function
  70              	ADC_Voltage_Target_Init:
  71              	.LFB0:
  72              		.file 1 ".\\Generated_Source\\PSoC5\\ADC_Voltage_Target.c"
   1:.\Generated_Source\PSoC5/ADC_Voltage_Target.c **** /*******************************************************************************
   2:.\Generated_Source\PSoC5/ADC_Voltage_Target.c **** * File Name: ADC_Voltage_Target.c  
   3:.\Generated_Source\PSoC5/ADC_Voltage_Target.c **** * Version 2.30
   4:.\Generated_Source\PSoC5/ADC_Voltage_Target.c **** *
   5:.\Generated_Source\PSoC5/ADC_Voltage_Target.c **** * Description:
   6:.\Generated_Source\PSoC5/ADC_Voltage_Target.c **** *  This file provides the source code to the API for the Delta-Sigma ADC
   7:.\Generated_Source\PSoC5/ADC_Voltage_Target.c **** *  Component.
   8:.\Generated_Source\PSoC5/ADC_Voltage_Target.c **** *
   9:.\Generated_Source\PSoC5/ADC_Voltage_Target.c **** * Note:
  10:.\Generated_Source\PSoC5/ADC_Voltage_Target.c **** *
  11:.\Generated_Source\PSoC5/ADC_Voltage_Target.c **** *******************************************************************************
  12:.\Generated_Source\PSoC5/ADC_Voltage_Target.c **** * Copyright 2008-2012, Cypress Semiconductor Corporation.  All rights reserved.
  13:.\Generated_Source\PSoC5/ADC_Voltage_Target.c **** * You may use this file only in accordance with the license, terms, conditions, 
  14:.\Generated_Source\PSoC5/ADC_Voltage_Target.c **** * disclaimers, and limitations in the end user license agreement accompanying 
  15:.\Generated_Source\PSoC5/ADC_Voltage_Target.c **** * the software package with which this file was provided.
  16:.\Generated_Source\PSoC5/ADC_Voltage_Target.c **** ********************************************************************************/
  17:.\Generated_Source\PSoC5/ADC_Voltage_Target.c **** 
  18:.\Generated_Source\PSoC5/ADC_Voltage_Target.c **** #include "ADC_Voltage_Target.h"
  19:.\Generated_Source\PSoC5/ADC_Voltage_Target.c **** 
  20:.\Generated_Source\PSoC5/ADC_Voltage_Target.c **** #if(ADC_Voltage_Target_DEFAULT_INTERNAL_CLK)
  21:.\Generated_Source\PSoC5/ADC_Voltage_Target.c ****     #include "ADC_Voltage_Target_theACLK.h"
  22:.\Generated_Source\PSoC5/ADC_Voltage_Target.c **** #endif /* ADC_Voltage_Target_DEFAULT_INTERNAL_CLK */
  23:.\Generated_Source\PSoC5/ADC_Voltage_Target.c **** 
  24:.\Generated_Source\PSoC5/ADC_Voltage_Target.c **** #include "ADC_Voltage_Target_Ext_CP_Clk.h"
  25:.\Generated_Source\PSoC5/ADC_Voltage_Target.c **** 
  26:.\Generated_Source\PSoC5/ADC_Voltage_Target.c **** #if(ADC_Voltage_Target_DEFAULT_INPUT_MODE)
  27:.\Generated_Source\PSoC5/ADC_Voltage_Target.c ****     #include "ADC_Voltage_Target_AMux.h"
  28:.\Generated_Source\PSoC5/ADC_Voltage_Target.c **** #endif /* ADC_Voltage_Target_DEFAULT_INPUT_MODE */
  29:.\Generated_Source\PSoC5/ADC_Voltage_Target.c **** 
  30:.\Generated_Source\PSoC5/ADC_Voltage_Target.c **** /* Software flag for checking conversion completed or not */
  31:.\Generated_Source\PSoC5/ADC_Voltage_Target.c **** volatile uint8 ADC_Voltage_Target_convDone = 0u;
  32:.\Generated_Source\PSoC5/ADC_Voltage_Target.c **** 
  33:.\Generated_Source\PSoC5/ADC_Voltage_Target.c **** /* Software flag to stop conversion for single sample conversion mode 
  34:.\Generated_Source\PSoC5/ADC_Voltage_Target.c ****    with resolution above 16 bits */
  35:.\Generated_Source\PSoC5/ADC_Voltage_Target.c **** volatile uint8 ADC_Voltage_Target_stopConversion = 0u;
  36:.\Generated_Source\PSoC5/ADC_Voltage_Target.c **** 
  37:.\Generated_Source\PSoC5/ADC_Voltage_Target.c **** /* To run the initialization block only at the start up */
  38:.\Generated_Source\PSoC5/ADC_Voltage_Target.c **** uint8 ADC_Voltage_Target_initVar = 0u;
ARM GAS  C:\DOCUME~1\ADMINI~1\LOCALS~1\Temp\ccfNfb5I.s 			page 3


  39:.\Generated_Source\PSoC5/ADC_Voltage_Target.c **** 
  40:.\Generated_Source\PSoC5/ADC_Voltage_Target.c **** /* To check whether ADC started or not before switching the configuration */
  41:.\Generated_Source\PSoC5/ADC_Voltage_Target.c **** volatile uint8 ADC_Voltage_Target_started = 0u;
  42:.\Generated_Source\PSoC5/ADC_Voltage_Target.c **** 
  43:.\Generated_Source\PSoC5/ADC_Voltage_Target.c **** /* Flag to hold ADC config number. By default active config is 1. */
  44:.\Generated_Source\PSoC5/ADC_Voltage_Target.c **** volatile uint8 ADC_Voltage_Target_Config = 1u;
  45:.\Generated_Source\PSoC5/ADC_Voltage_Target.c **** 
  46:.\Generated_Source\PSoC5/ADC_Voltage_Target.c **** volatile int32 ADC_Voltage_Target_Offset = 0u;
  47:.\Generated_Source\PSoC5/ADC_Voltage_Target.c **** volatile int32 ADC_Voltage_Target_CountsPerVolt = (uint32)ADC_Voltage_Target_CFG1_COUNTS_PER_VOLT;
  48:.\Generated_Source\PSoC5/ADC_Voltage_Target.c **** 
  49:.\Generated_Source\PSoC5/ADC_Voltage_Target.c **** /* Only valid for PSoC5A */
  50:.\Generated_Source\PSoC5/ADC_Voltage_Target.c **** /* Variable to decide whether or not to restore the register values from
  51:.\Generated_Source\PSoC5/ADC_Voltage_Target.c ****     backup structure */
  52:.\Generated_Source\PSoC5/ADC_Voltage_Target.c **** #if (CY_PSOC5A)
  53:.\Generated_Source\PSoC5/ADC_Voltage_Target.c ****     uint8 ADC_Voltage_Target_restoreReg = 0u;
  54:.\Generated_Source\PSoC5/ADC_Voltage_Target.c **** #endif /* CY_PSOC5A */
  55:.\Generated_Source\PSoC5/ADC_Voltage_Target.c **** 
  56:.\Generated_Source\PSoC5/ADC_Voltage_Target.c **** /* Valid only for PSoC5A silicon */
  57:.\Generated_Source\PSoC5/ADC_Voltage_Target.c **** #if (CY_PSOC5A)
  58:.\Generated_Source\PSoC5/ADC_Voltage_Target.c ****     /* Backup struct for power mode registers */
  59:.\Generated_Source\PSoC5/ADC_Voltage_Target.c ****     static ADC_Voltage_Target_POWERMODE_BACKUP_STRUCT ADC_Voltage_Target_powerModeBackup = 
  60:.\Generated_Source\PSoC5/ADC_Voltage_Target.c ****     {
  61:.\Generated_Source\PSoC5/ADC_Voltage_Target.c ****         /* Initializing the structure fields with power mode registers of 
  62:.\Generated_Source\PSoC5/ADC_Voltage_Target.c ****            config1 */
  63:.\Generated_Source\PSoC5/ADC_Voltage_Target.c ****         ADC_Voltage_Target_CFG1_DSM_CR14,
  64:.\Generated_Source\PSoC5/ADC_Voltage_Target.c ****         ADC_Voltage_Target_CFG1_DSM_CR15,
  65:.\Generated_Source\PSoC5/ADC_Voltage_Target.c ****         ADC_Voltage_Target_CFG1_DSM_CR16,
  66:.\Generated_Source\PSoC5/ADC_Voltage_Target.c ****         ADC_Voltage_Target_CFG1_DSM_CR17,
  67:.\Generated_Source\PSoC5/ADC_Voltage_Target.c ****         ADC_Voltage_Target_CFG1_DSM_REF0,
  68:.\Generated_Source\PSoC5/ADC_Voltage_Target.c ****         ADC_Voltage_Target_CFG1_DSM_BUF0,
  69:.\Generated_Source\PSoC5/ADC_Voltage_Target.c ****         ADC_Voltage_Target_CFG1_DSM_BUF1,
  70:.\Generated_Source\PSoC5/ADC_Voltage_Target.c ****         ADC_Voltage_Target_CFG1_DSM_CLK,
  71:.\Generated_Source\PSoC5/ADC_Voltage_Target.c ****         ADC_Voltage_Target_BYPASS_DISABLED
  72:.\Generated_Source\PSoC5/ADC_Voltage_Target.c ****     };
  73:.\Generated_Source\PSoC5/ADC_Voltage_Target.c **** #endif /* CY_PSOC5A */
  74:.\Generated_Source\PSoC5/ADC_Voltage_Target.c **** 
  75:.\Generated_Source\PSoC5/ADC_Voltage_Target.c **** 
  76:.\Generated_Source\PSoC5/ADC_Voltage_Target.c **** /****************************************************************************** 
  77:.\Generated_Source\PSoC5/ADC_Voltage_Target.c **** * Function Name: ADC_Voltage_Target_Init
  78:.\Generated_Source\PSoC5/ADC_Voltage_Target.c **** *******************************************************************************
  79:.\Generated_Source\PSoC5/ADC_Voltage_Target.c **** *
  80:.\Generated_Source\PSoC5/ADC_Voltage_Target.c **** * Summary:
  81:.\Generated_Source\PSoC5/ADC_Voltage_Target.c **** *  Initialize component's parameters to the parameters set by user in the 
  82:.\Generated_Source\PSoC5/ADC_Voltage_Target.c **** *  customizer of the component placed onto schematic. Usually called in 
  83:.\Generated_Source\PSoC5/ADC_Voltage_Target.c **** * ADC_Voltage_Target_Start().
  84:.\Generated_Source\PSoC5/ADC_Voltage_Target.c **** *  
  85:.\Generated_Source\PSoC5/ADC_Voltage_Target.c **** *
  86:.\Generated_Source\PSoC5/ADC_Voltage_Target.c **** * Parameters:  
  87:.\Generated_Source\PSoC5/ADC_Voltage_Target.c **** *  void
  88:.\Generated_Source\PSoC5/ADC_Voltage_Target.c **** *
  89:.\Generated_Source\PSoC5/ADC_Voltage_Target.c **** * Return: 
  90:.\Generated_Source\PSoC5/ADC_Voltage_Target.c **** *  void 
  91:.\Generated_Source\PSoC5/ADC_Voltage_Target.c **** *
  92:.\Generated_Source\PSoC5/ADC_Voltage_Target.c **** *******************************************************************************/
  93:.\Generated_Source\PSoC5/ADC_Voltage_Target.c **** void ADC_Voltage_Target_Init(void) 
  94:.\Generated_Source\PSoC5/ADC_Voltage_Target.c **** {
  73              		.loc 1 94 0
ARM GAS  C:\DOCUME~1\ADMINI~1\LOCALS~1\Temp\ccfNfb5I.s 			page 4


  74              		.cfi_startproc
  75              		@ args = 0, pretend = 0, frame = 0
  76              		@ frame_needed = 1, uses_anonymous_args = 0
  77 0000 80B5     		push	{r7, lr}
  78              	.LCFI0:
  79              		.cfi_def_cfa_offset 8
  80 0002 00AF     		add	r7, sp, #0
  81              		.cfi_offset 14, -4
  82              		.cfi_offset 7, -8
  83              	.LCFI1:
  84              		.cfi_def_cfa_register 7
  95:.\Generated_Source\PSoC5/ADC_Voltage_Target.c ****     /* Initialize the registers with default customizer settings for config1 */
  96:.\Generated_Source\PSoC5/ADC_Voltage_Target.c ****     ADC_Voltage_Target_InitConfig(1);
  85              		.loc 1 96 0
  86 0004 4FF00100 		mov	r0, #1
  87 0008 FFF7FEFF 		bl	ADC_Voltage_Target_InitConfig
  97:.\Generated_Source\PSoC5/ADC_Voltage_Target.c **** 
  98:.\Generated_Source\PSoC5/ADC_Voltage_Target.c ****     /* This is only valid if there is an internal clock */
  99:.\Generated_Source\PSoC5/ADC_Voltage_Target.c ****     #if(ADC_Voltage_Target_DEFAULT_INTERNAL_CLK)
 100:.\Generated_Source\PSoC5/ADC_Voltage_Target.c ****         ADC_Voltage_Target_theACLK_SetMode(CYCLK_DUTY);
  88              		.loc 1 100 0
  89 000c 4FF01000 		mov	r0, #16
  90 0010 FFF7FEFF 		bl	ADC_Voltage_Target_theACLK_SetModeRegister
 101:.\Generated_Source\PSoC5/ADC_Voltage_Target.c ****     #endif /* ADC_Voltage_Target_DEFAULT_INTERNAL_CLK */
 102:.\Generated_Source\PSoC5/ADC_Voltage_Target.c ****     
 103:.\Generated_Source\PSoC5/ADC_Voltage_Target.c ****     /* Set the duty cycle for charge pump clock */
 104:.\Generated_Source\PSoC5/ADC_Voltage_Target.c ****     ADC_Voltage_Target_Ext_CP_Clk_SetMode(CYCLK_DUTY);
  91              		.loc 1 104 0
  92 0014 4FF01000 		mov	r0, #16
  93 0018 FFF7FEFF 		bl	ADC_Voltage_Target_Ext_CP_Clk_SetModeRegister
 105:.\Generated_Source\PSoC5/ADC_Voltage_Target.c **** 
 106:.\Generated_Source\PSoC5/ADC_Voltage_Target.c ****     /* To perform ADC calibration */
 107:.\Generated_Source\PSoC5/ADC_Voltage_Target.c ****     ADC_Voltage_Target_GainCompensation(ADC_Voltage_Target_CFG1_RANGE, 
  94              		.loc 1 107 0
  95 001c 4FF00200 		mov	r0, #2
  96 0020 4FF41041 		mov	r1, #36864
  97 0024 4FF40042 		mov	r2, #32768
  98 0028 4FF00C03 		mov	r3, #12
  99 002c FFF7FEFF 		bl	ADC_Voltage_Target_GainCompensation
 108:.\Generated_Source\PSoC5/ADC_Voltage_Target.c ****                                       ADC_Voltage_Target_CFG1_IDEAL_DEC_GAIN, 
 109:.\Generated_Source\PSoC5/ADC_Voltage_Target.c ****                                       ADC_Voltage_Target_CFG1_IDEAL_ODDDEC_GAIN, 
 110:.\Generated_Source\PSoC5/ADC_Voltage_Target.c ****                                       ADC_Voltage_Target_CFG1_RESOLUTION);        
 111:.\Generated_Source\PSoC5/ADC_Voltage_Target.c **** }
 100              		.loc 1 111 0
 101 0030 80BD     		pop	{r7, pc}
 102              		.cfi_endproc
 103              	.LFE0:
 104              		.size	ADC_Voltage_Target_Init, .-ADC_Voltage_Target_Init
 105 0032 00BF     		.section	.text.ADC_Voltage_Target_Enable,"ax",%progbits
 106              		.align	2
 107              		.global	ADC_Voltage_Target_Enable
 108              		.thumb
 109              		.thumb_func
 110              		.type	ADC_Voltage_Target_Enable, %function
 111              	ADC_Voltage_Target_Enable:
 112              	.LFB1:
 112:.\Generated_Source\PSoC5/ADC_Voltage_Target.c **** 
ARM GAS  C:\DOCUME~1\ADMINI~1\LOCALS~1\Temp\ccfNfb5I.s 			page 5


 113:.\Generated_Source\PSoC5/ADC_Voltage_Target.c **** 
 114:.\Generated_Source\PSoC5/ADC_Voltage_Target.c **** /******************************************************************************
 115:.\Generated_Source\PSoC5/ADC_Voltage_Target.c **** * Function Name: ADC_Voltage_Target_Enable
 116:.\Generated_Source\PSoC5/ADC_Voltage_Target.c **** *******************************************************************************
 117:.\Generated_Source\PSoC5/ADC_Voltage_Target.c **** *
 118:.\Generated_Source\PSoC5/ADC_Voltage_Target.c **** * Summary: 
 119:.\Generated_Source\PSoC5/ADC_Voltage_Target.c **** *  Enables the ADC DelSig block operation.
 120:.\Generated_Source\PSoC5/ADC_Voltage_Target.c **** *  
 121:.\Generated_Source\PSoC5/ADC_Voltage_Target.c **** *
 122:.\Generated_Source\PSoC5/ADC_Voltage_Target.c **** * Parameters:  
 123:.\Generated_Source\PSoC5/ADC_Voltage_Target.c **** *  void
 124:.\Generated_Source\PSoC5/ADC_Voltage_Target.c **** *
 125:.\Generated_Source\PSoC5/ADC_Voltage_Target.c **** * Return: 
 126:.\Generated_Source\PSoC5/ADC_Voltage_Target.c **** *  void 
 127:.\Generated_Source\PSoC5/ADC_Voltage_Target.c **** *
 128:.\Generated_Source\PSoC5/ADC_Voltage_Target.c **** *******************************************************************************/
 129:.\Generated_Source\PSoC5/ADC_Voltage_Target.c **** void ADC_Voltage_Target_Enable(void) 
 130:.\Generated_Source\PSoC5/ADC_Voltage_Target.c **** {
 113              		.loc 1 130 0
 114              		.cfi_startproc
 115              		@ args = 0, pretend = 0, frame = 0
 116              		@ frame_needed = 1, uses_anonymous_args = 0
 117 0000 80B5     		push	{r7, lr}
 118              	.LCFI2:
 119              		.cfi_def_cfa_offset 8
 120 0002 00AF     		add	r7, sp, #0
 121              		.cfi_offset 14, -4
 122              		.cfi_offset 7, -8
 123              	.LCFI3:
 124              		.cfi_def_cfa_register 7
 131:.\Generated_Source\PSoC5/ADC_Voltage_Target.c ****     /* Restore the power registers if silicon used is PSoC5A */
 132:.\Generated_Source\PSoC5/ADC_Voltage_Target.c ****     #if (CY_PSOC5A)
 133:.\Generated_Source\PSoC5/ADC_Voltage_Target.c ****         if(ADC_Voltage_Target_restoreReg && 
 134:.\Generated_Source\PSoC5/ADC_Voltage_Target.c ****            (!(ADC_Voltage_Target_powerModeBackup.bypassRestore)))
 135:.\Generated_Source\PSoC5/ADC_Voltage_Target.c ****         {
 136:.\Generated_Source\PSoC5/ADC_Voltage_Target.c ****             ADC_Voltage_Target_RestorePowerRegisters();
 137:.\Generated_Source\PSoC5/ADC_Voltage_Target.c ****             ADC_Voltage_Target_restoreReg = 0u;
 138:.\Generated_Source\PSoC5/ADC_Voltage_Target.c ****         }
 139:.\Generated_Source\PSoC5/ADC_Voltage_Target.c ****         ADC_Voltage_Target_powerModeBackup.bypassRestore = ADC_Voltage_Target_BYPASS_DISABLED;
 140:.\Generated_Source\PSoC5/ADC_Voltage_Target.c ****     #endif /* CY_PSOC5A */
 141:.\Generated_Source\PSoC5/ADC_Voltage_Target.c **** 
 142:.\Generated_Source\PSoC5/ADC_Voltage_Target.c ****     /* Enable active mode power for ADC */
 143:.\Generated_Source\PSoC5/ADC_Voltage_Target.c ****     ADC_Voltage_Target_PWRMGR_DEC_REG |= ADC_Voltage_Target_ACT_PWR_DEC_EN;
 125              		.loc 1 143 0
 126 0004 44F2AA33 		movw	r3, #:lower16:1073759146
 127 0008 C4F20003 		movt	r3, #:upper16:1073759146
 128 000c 44F2AA32 		movw	r2, #:lower16:1073759146
 129 0010 C4F20002 		movt	r2, #:upper16:1073759146
 130 0014 1278     		ldrb	r2, [r2, #0]
 131 0016 D2B2     		uxtb	r2, r2
 132 0018 42F00102 		orr	r2, r2, #1
 133 001c D2B2     		uxtb	r2, r2
 134 001e 1A70     		strb	r2, [r3, #0]
 144:.\Generated_Source\PSoC5/ADC_Voltage_Target.c ****     ADC_Voltage_Target_PWRMGR_DSM_REG |= ADC_Voltage_Target_ACT_PWR_DSM_EN;
 135              		.loc 1 144 0
 136 0020 44F2AA33 		movw	r3, #:lower16:1073759146
 137 0024 C4F20003 		movt	r3, #:upper16:1073759146
ARM GAS  C:\DOCUME~1\ADMINI~1\LOCALS~1\Temp\ccfNfb5I.s 			page 6


 138 0028 44F2AA32 		movw	r2, #:lower16:1073759146
 139 002c C4F20002 		movt	r2, #:upper16:1073759146
 140 0030 1278     		ldrb	r2, [r2, #0]
 141 0032 D2B2     		uxtb	r2, r2
 142 0034 42F01002 		orr	r2, r2, #16
 143 0038 D2B2     		uxtb	r2, r2
 144 003a 1A70     		strb	r2, [r3, #0]
 145:.\Generated_Source\PSoC5/ADC_Voltage_Target.c ****     
 146:.\Generated_Source\PSoC5/ADC_Voltage_Target.c ****      /* Enable alternative active mode power for ADC */
 147:.\Generated_Source\PSoC5/ADC_Voltage_Target.c ****     ADC_Voltage_Target_STBY_PWRMGR_DEC_REG |= ADC_Voltage_Target_STBY_PWR_DEC_EN;
 145              		.loc 1 147 0
 146 003c 44F2BA33 		movw	r3, #:lower16:1073759162
 147 0040 C4F20003 		movt	r3, #:upper16:1073759162
 148 0044 44F2BA32 		movw	r2, #:lower16:1073759162
 149 0048 C4F20002 		movt	r2, #:upper16:1073759162
 150 004c 1278     		ldrb	r2, [r2, #0]
 151 004e D2B2     		uxtb	r2, r2
 152 0050 42F00102 		orr	r2, r2, #1
 153 0054 D2B2     		uxtb	r2, r2
 154 0056 1A70     		strb	r2, [r3, #0]
 148:.\Generated_Source\PSoC5/ADC_Voltage_Target.c ****     #if (CY_PSOC3 || CY_PSOC5LP)
 149:.\Generated_Source\PSoC5/ADC_Voltage_Target.c ****     ADC_Voltage_Target_STBY_PWRMGR_DSM_REG |= ADC_Voltage_Target_STBY_PWR_DSM_EN;
 155              		.loc 1 149 0
 156 0058 44F2BA33 		movw	r3, #:lower16:1073759162
 157 005c C4F20003 		movt	r3, #:upper16:1073759162
 158 0060 44F2BA32 		movw	r2, #:lower16:1073759162
 159 0064 C4F20002 		movt	r2, #:upper16:1073759162
 160 0068 1278     		ldrb	r2, [r2, #0]
 161 006a D2B2     		uxtb	r2, r2
 162 006c 42F01002 		orr	r2, r2, #16
 163 0070 D2B2     		uxtb	r2, r2
 164 0072 1A70     		strb	r2, [r3, #0]
 150:.\Generated_Source\PSoC5/ADC_Voltage_Target.c ****     #endif /* CY_PSOC3 || CY_PSOC5LP */
 151:.\Generated_Source\PSoC5/ADC_Voltage_Target.c **** 
 152:.\Generated_Source\PSoC5/ADC_Voltage_Target.c ****     /* Config selected is 1, then before enablign the REFBUF0, REFBUF1 and 
 153:.\Generated_Source\PSoC5/ADC_Voltage_Target.c **** 	   VCMBUF's enable and press circuit and then after a delay of 3
 154:.\Generated_Source\PSoC5/ADC_Voltage_Target.c **** 	   microseconds, disable the press circuit. */
 155:.\Generated_Source\PSoC5/ADC_Voltage_Target.c ****     if (ADC_Voltage_Target_Config == 1u)
 165              		.loc 1 155 0
 166 0074 40F20003 		movw	r3, #:lower16:ADC_Voltage_Target_Config
 167 0078 C0F20003 		movt	r3, #:upper16:ADC_Voltage_Target_Config
 168 007c 1B78     		ldrb	r3, [r3, #0]
 169 007e DBB2     		uxtb	r3, r3
 170 0080 012B     		cmp	r3, #1
 171 0082 47D1     		bne	.L4
 156:.\Generated_Source\PSoC5/ADC_Voltage_Target.c **** 	{
 157:.\Generated_Source\PSoC5/ADC_Voltage_Target.c **** 	    /* Disable PRES, Enable power to VCMBUF0, REFBUF0 and REFBUF1, enable 
 158:.\Generated_Source\PSoC5/ADC_Voltage_Target.c **** 	       PRES */
 159:.\Generated_Source\PSoC5/ADC_Voltage_Target.c **** 	    #if (CY_PSOC3 || CY_PSOC5LP)
 160:.\Generated_Source\PSoC5/ADC_Voltage_Target.c **** 	        ADC_Voltage_Target_RESET_CR4_REG |= ADC_Voltage_Target_IGNORE_PRESA1;
 172              		.loc 1 160 0
 173 0084 44F2F863 		movw	r3, #:lower16:1073759992
 174 0088 C4F20003 		movt	r3, #:upper16:1073759992
 175 008c 44F2F862 		movw	r2, #:lower16:1073759992
 176 0090 C4F20002 		movt	r2, #:upper16:1073759992
 177 0094 1278     		ldrb	r2, [r2, #0]
 178 0096 D2B2     		uxtb	r2, r2
ARM GAS  C:\DOCUME~1\ADMINI~1\LOCALS~1\Temp\ccfNfb5I.s 			page 7


 179 0098 42F00202 		orr	r2, r2, #2
 180 009c D2B2     		uxtb	r2, r2
 181 009e 1A70     		strb	r2, [r3, #0]
 161:.\Generated_Source\PSoC5/ADC_Voltage_Target.c **** 	        ADC_Voltage_Target_RESET_CR5_REG |= ADC_Voltage_Target_IGNORE_PRESA2;
 182              		.loc 1 161 0
 183 00a0 44F2F963 		movw	r3, #:lower16:1073759993
 184 00a4 C4F20003 		movt	r3, #:upper16:1073759993
 185 00a8 44F2F962 		movw	r2, #:lower16:1073759993
 186 00ac C4F20002 		movt	r2, #:upper16:1073759993
 187 00b0 1278     		ldrb	r2, [r2, #0]
 188 00b2 D2B2     		uxtb	r2, r2
 189 00b4 42F00202 		orr	r2, r2, #2
 190 00b8 D2B2     		uxtb	r2, r2
 191 00ba 1A70     		strb	r2, [r3, #0]
 162:.\Generated_Source\PSoC5/ADC_Voltage_Target.c **** 	    #elif (CY_PSOC5A)
 163:.\Generated_Source\PSoC5/ADC_Voltage_Target.c **** 	        ADC_Voltage_Target_RESET_CR1_REG |= ADC_Voltage_Target_DIS_PRES1;
 164:.\Generated_Source\PSoC5/ADC_Voltage_Target.c **** 	        ADC_Voltage_Target_RESET_CR3_REG |= ADC_Voltage_Target_DIS_PRES2;
 165:.\Generated_Source\PSoC5/ADC_Voltage_Target.c **** 	    #endif /* CY_PSOC5A */
 166:.\Generated_Source\PSoC5/ADC_Voltage_Target.c **** 	    
 167:.\Generated_Source\PSoC5/ADC_Voltage_Target.c **** 	    ADC_Voltage_Target_DSM_CR17_REG |= (ADC_Voltage_Target_DSM_EN_BUF_VREF | ADC_Voltage_Target_DS
 192              		.loc 1 167 0
 193 00bc 45F69103 		movw	r3, #:lower16:1073764497
 194 00c0 C4F20003 		movt	r3, #:upper16:1073764497
 195 00c4 45F69102 		movw	r2, #:lower16:1073764497
 196 00c8 C4F20002 		movt	r2, #:upper16:1073764497
 197 00cc 1278     		ldrb	r2, [r2, #0]
 198 00ce D2B2     		uxtb	r2, r2
 199 00d0 42F00302 		orr	r2, r2, #3
 200 00d4 D2B2     		uxtb	r2, r2
 201 00d6 1A70     		strb	r2, [r3, #0]
 168:.\Generated_Source\PSoC5/ADC_Voltage_Target.c **** 	    #if ((ADC_Voltage_Target_CFG1_REFERENCE == ADC_Voltage_Target_EXT_REF_ON_P03) || \
 169:.\Generated_Source\PSoC5/ADC_Voltage_Target.c **** 	         (ADC_Voltage_Target_CFG1_REFERENCE == ADC_Voltage_Target_EXT_REF_ON_P32))
 170:.\Generated_Source\PSoC5/ADC_Voltage_Target.c **** 	        ADC_Voltage_Target_DSM_CR17_REG &= ~ADC_Voltage_Target_DSM_EN_BUF_VREF;
 171:.\Generated_Source\PSoC5/ADC_Voltage_Target.c **** 	    #endif /* Check for exteranl reference option */
 172:.\Generated_Source\PSoC5/ADC_Voltage_Target.c **** 	    #if ((ADC_Voltage_Target_CFG1_RANGE == ADC_Voltage_Target_IR_VSSA_TO_2VREF) && \
 173:.\Generated_Source\PSoC5/ADC_Voltage_Target.c **** 	          (CY_PSOC3 || CY_PSOC5LP) && \
 174:.\Generated_Source\PSoC5/ADC_Voltage_Target.c **** 	          ((ADC_Voltage_Target_CFG1_REFERENCE != ADC_Voltage_Target_EXT_REF_ON_P03) && \
 175:.\Generated_Source\PSoC5/ADC_Voltage_Target.c **** 	         (ADC_Voltage_Target_CFG1_REFERENCE != ADC_Voltage_Target_EXT_REF_ON_P32)))
 176:.\Generated_Source\PSoC5/ADC_Voltage_Target.c **** 	        ADC_Voltage_Target_DSM_REF0_REG |= ADC_Voltage_Target_DSM_EN_BUF_VREF_INN;
 177:.\Generated_Source\PSoC5/ADC_Voltage_Target.c **** 	    #endif /* ADC_Voltage_Target_IR_VSSA_TO_2VREF */
 178:.\Generated_Source\PSoC5/ADC_Voltage_Target.c **** 	    
 179:.\Generated_Source\PSoC5/ADC_Voltage_Target.c **** 	        /* Wait for 3 microseconds */
 180:.\Generated_Source\PSoC5/ADC_Voltage_Target.c **** 	    CyDelayUs(3);
 202              		.loc 1 180 0
 203 00d8 4FF00300 		mov	r0, #3
 204 00dc FFF7FEFF 		bl	CyDelayUs
 181:.\Generated_Source\PSoC5/ADC_Voltage_Target.c ****         /* Enable the press circuit */
 182:.\Generated_Source\PSoC5/ADC_Voltage_Target.c **** 	    #if (CY_PSOC3 || CY_PSOC5LP)
 183:.\Generated_Source\PSoC5/ADC_Voltage_Target.c **** 	        ADC_Voltage_Target_RESET_CR4_REG &= ~ADC_Voltage_Target_IGNORE_PRESA1;
 205              		.loc 1 183 0
 206 00e0 44F2F863 		movw	r3, #:lower16:1073759992
 207 00e4 C4F20003 		movt	r3, #:upper16:1073759992
 208 00e8 44F2F862 		movw	r2, #:lower16:1073759992
 209 00ec C4F20002 		movt	r2, #:upper16:1073759992
 210 00f0 1278     		ldrb	r2, [r2, #0]
 211 00f2 D2B2     		uxtb	r2, r2
 212 00f4 02F0FD02 		and	r2, r2, #253
ARM GAS  C:\DOCUME~1\ADMINI~1\LOCALS~1\Temp\ccfNfb5I.s 			page 8


 213 00f8 1A70     		strb	r2, [r3, #0]
 184:.\Generated_Source\PSoC5/ADC_Voltage_Target.c **** 	        ADC_Voltage_Target_RESET_CR5_REG &= ~ADC_Voltage_Target_IGNORE_PRESA2;
 214              		.loc 1 184 0
 215 00fa 44F2F963 		movw	r3, #:lower16:1073759993
 216 00fe C4F20003 		movt	r3, #:upper16:1073759993
 217 0102 44F2F962 		movw	r2, #:lower16:1073759993
 218 0106 C4F20002 		movt	r2, #:upper16:1073759993
 219 010a 1278     		ldrb	r2, [r2, #0]
 220 010c D2B2     		uxtb	r2, r2
 221 010e 02F0FD02 		and	r2, r2, #253
 222 0112 1A70     		strb	r2, [r3, #0]
 223              	.L4:
 185:.\Generated_Source\PSoC5/ADC_Voltage_Target.c **** 	    #elif (CY_PSOC5A)
 186:.\Generated_Source\PSoC5/ADC_Voltage_Target.c **** 	        ADC_Voltage_Target_RESET_CR1_REG &= ~ADC_Voltage_Target_DIS_PRES1;
 187:.\Generated_Source\PSoC5/ADC_Voltage_Target.c **** 	        ADC_Voltage_Target_RESET_CR3_REG &= ~ADC_Voltage_Target_DIS_PRES2;
 188:.\Generated_Source\PSoC5/ADC_Voltage_Target.c **** 	    #endif /* CY_PSOC5A */
 189:.\Generated_Source\PSoC5/ADC_Voltage_Target.c **** 	}
 190:.\Generated_Source\PSoC5/ADC_Voltage_Target.c ****     
 191:.\Generated_Source\PSoC5/ADC_Voltage_Target.c ****     /* Enable negative pumps for DSM  */
 192:.\Generated_Source\PSoC5/ADC_Voltage_Target.c ****     ADC_Voltage_Target_PUMP_CR1_REG  |= ( ADC_Voltage_Target_PUMP_CR1_CLKSEL | ADC_Voltage_Target_P
 224              		.loc 1 192 0
 225 0114 45F67703 		movw	r3, #:lower16:1073764471
 226 0118 C4F20003 		movt	r3, #:upper16:1073764471
 227 011c 45F67702 		movw	r2, #:lower16:1073764471
 228 0120 C4F20002 		movt	r2, #:upper16:1073764471
 229 0124 1278     		ldrb	r2, [r2, #0]
 230 0126 D2B2     		uxtb	r2, r2
 231 0128 42F00602 		orr	r2, r2, #6
 232 012c D2B2     		uxtb	r2, r2
 233 012e 1A70     		strb	r2, [r3, #0]
 193:.\Generated_Source\PSoC5/ADC_Voltage_Target.c ****  
 194:.\Generated_Source\PSoC5/ADC_Voltage_Target.c ****     /* This is only valid if there is an internal clock */
 195:.\Generated_Source\PSoC5/ADC_Voltage_Target.c ****     #if(ADC_Voltage_Target_DEFAULT_INTERNAL_CLK)
 196:.\Generated_Source\PSoC5/ADC_Voltage_Target.c ****         ADC_Voltage_Target_PWRMGR_CLK_REG |= ADC_Voltage_Target_ACT_PWR_CLK_EN;        
 234              		.loc 1 196 0
 235 0130 44F2A133 		movw	r3, #:lower16:1073759137
 236 0134 C4F20003 		movt	r3, #:upper16:1073759137
 237 0138 44F2A132 		movw	r2, #:lower16:1073759137
 238 013c C4F20002 		movt	r2, #:upper16:1073759137
 239 0140 1278     		ldrb	r2, [r2, #0]
 240 0142 D2B2     		uxtb	r2, r2
 241 0144 42F00102 		orr	r2, r2, #1
 242 0148 D2B2     		uxtb	r2, r2
 243 014a 1A70     		strb	r2, [r3, #0]
 197:.\Generated_Source\PSoC5/ADC_Voltage_Target.c ****         ADC_Voltage_Target_STBY_PWRMGR_CLK_REG |= ADC_Voltage_Target_STBY_PWR_CLK_EN;
 244              		.loc 1 197 0
 245 014c 44F2B133 		movw	r3, #:lower16:1073759153
 246 0150 C4F20003 		movt	r3, #:upper16:1073759153
 247 0154 44F2B132 		movw	r2, #:lower16:1073759153
 248 0158 C4F20002 		movt	r2, #:upper16:1073759153
 249 015c 1278     		ldrb	r2, [r2, #0]
 250 015e D2B2     		uxtb	r2, r2
 251 0160 42F00102 		orr	r2, r2, #1
 252 0164 D2B2     		uxtb	r2, r2
 253 0166 1A70     		strb	r2, [r3, #0]
 198:.\Generated_Source\PSoC5/ADC_Voltage_Target.c ****     #endif /* ADC_Voltage_Target_DEFAULT_INTERNAL_CLK */
 199:.\Generated_Source\PSoC5/ADC_Voltage_Target.c ****     
ARM GAS  C:\DOCUME~1\ADMINI~1\LOCALS~1\Temp\ccfNfb5I.s 			page 9


 200:.\Generated_Source\PSoC5/ADC_Voltage_Target.c ****     /* Enable the active and alternate active power for charge pump clock */
 201:.\Generated_Source\PSoC5/ADC_Voltage_Target.c ****     ADC_Voltage_Target_PWRMGR_CHARGE_PUMP_CLK_REG |= ADC_Voltage_Target_ACT_PWR_CHARGE_PUMP_CLK_EN;
 254              		.loc 1 201 0
 255 0168 44F2A233 		movw	r3, #:lower16:1073759138
 256 016c C4F20003 		movt	r3, #:upper16:1073759138
 257 0170 44F2A232 		movw	r2, #:lower16:1073759138
 258 0174 C4F20002 		movt	r2, #:upper16:1073759138
 259 0178 1278     		ldrb	r2, [r2, #0]
 260 017a D2B2     		uxtb	r2, r2
 261 017c 42F00402 		orr	r2, r2, #4
 262 0180 D2B2     		uxtb	r2, r2
 263 0182 1A70     		strb	r2, [r3, #0]
 202:.\Generated_Source\PSoC5/ADC_Voltage_Target.c ****     ADC_Voltage_Target_STBY_PWRMGR_CHARGE_PUMP_CLK_REG |= ADC_Voltage_Target_STBY_PWR_CHARGE_PUMP_C
 264              		.loc 1 202 0
 265 0184 44F2B233 		movw	r3, #:lower16:1073759154
 266 0188 C4F20003 		movt	r3, #:upper16:1073759154
 267 018c 44F2B232 		movw	r2, #:lower16:1073759154
 268 0190 C4F20002 		movt	r2, #:upper16:1073759154
 269 0194 1278     		ldrb	r2, [r2, #0]
 270 0196 D2B2     		uxtb	r2, r2
 271 0198 42F00402 		orr	r2, r2, #4
 272 019c D2B2     		uxtb	r2, r2
 273 019e 1A70     		strb	r2, [r3, #0]
 203:.\Generated_Source\PSoC5/ADC_Voltage_Target.c ****         
 204:.\Generated_Source\PSoC5/ADC_Voltage_Target.c **** }
 274              		.loc 1 204 0
 275 01a0 80BD     		pop	{r7, pc}
 276              		.cfi_endproc
 277              	.LFE1:
 278              		.size	ADC_Voltage_Target_Enable, .-ADC_Voltage_Target_Enable
 279 01a2 00BF     		.section	.text.ADC_Voltage_Target_Start,"ax",%progbits
 280              		.align	2
 281              		.global	ADC_Voltage_Target_Start
 282              		.thumb
 283              		.thumb_func
 284              		.type	ADC_Voltage_Target_Start, %function
 285              	ADC_Voltage_Target_Start:
 286              	.LFB2:
 205:.\Generated_Source\PSoC5/ADC_Voltage_Target.c **** 
 206:.\Generated_Source\PSoC5/ADC_Voltage_Target.c **** 
 207:.\Generated_Source\PSoC5/ADC_Voltage_Target.c **** #if (CY_PSOC5A) /* valid only for PSoC5A silicon */
 208:.\Generated_Source\PSoC5/ADC_Voltage_Target.c ****     /******************************************************************************* 
 209:.\Generated_Source\PSoC5/ADC_Voltage_Target.c ****     * Function Name: ADC_Voltage_Target_RestorePowerRegisters
 210:.\Generated_Source\PSoC5/ADC_Voltage_Target.c ****     ********************************************************************************
 211:.\Generated_Source\PSoC5/ADC_Voltage_Target.c ****     *
 212:.\Generated_Source\PSoC5/ADC_Voltage_Target.c ****     * Summary: 
 213:.\Generated_Source\PSoC5/ADC_Voltage_Target.c ****     *  Restores the power registers on calling Start() API. This API is only 
 214:.\Generated_Source\PSoC5/ADC_Voltage_Target.c ****     *   for internal use and valid only for PSoC5A.
 215:.\Generated_Source\PSoC5/ADC_Voltage_Target.c ****     *  
 216:.\Generated_Source\PSoC5/ADC_Voltage_Target.c ****     *
 217:.\Generated_Source\PSoC5/ADC_Voltage_Target.c ****     * Parameters:  
 218:.\Generated_Source\PSoC5/ADC_Voltage_Target.c ****     *  void
 219:.\Generated_Source\PSoC5/ADC_Voltage_Target.c ****     *
 220:.\Generated_Source\PSoC5/ADC_Voltage_Target.c ****     * Return: 
 221:.\Generated_Source\PSoC5/ADC_Voltage_Target.c ****     *  void 
 222:.\Generated_Source\PSoC5/ADC_Voltage_Target.c ****     *
 223:.\Generated_Source\PSoC5/ADC_Voltage_Target.c ****     ***************************************************************************/
ARM GAS  C:\DOCUME~1\ADMINI~1\LOCALS~1\Temp\ccfNfb5I.s 			page 10


 224:.\Generated_Source\PSoC5/ADC_Voltage_Target.c ****     void ADC_Voltage_Target_RestorePowerRegisters(void) 
 225:.\Generated_Source\PSoC5/ADC_Voltage_Target.c ****     {
 226:.\Generated_Source\PSoC5/ADC_Voltage_Target.c ****         ADC_Voltage_Target_DSM_CR14_REG = ADC_Voltage_Target_powerModeBackup.DSM_CR_14;
 227:.\Generated_Source\PSoC5/ADC_Voltage_Target.c ****         ADC_Voltage_Target_DSM_CR15_REG = ADC_Voltage_Target_powerModeBackup.DSM_CR_15;
 228:.\Generated_Source\PSoC5/ADC_Voltage_Target.c ****         ADC_Voltage_Target_DSM_CR16_REG = ADC_Voltage_Target_powerModeBackup.DSM_CR_16;
 229:.\Generated_Source\PSoC5/ADC_Voltage_Target.c ****         ADC_Voltage_Target_DSM_CR17_REG = ADC_Voltage_Target_powerModeBackup.DSM_CR_17;
 230:.\Generated_Source\PSoC5/ADC_Voltage_Target.c ****         ADC_Voltage_Target_DSM_REF0_REG = ADC_Voltage_Target_powerModeBackup.DSM_REF0;
 231:.\Generated_Source\PSoC5/ADC_Voltage_Target.c ****         ADC_Voltage_Target_DSM_BUF0_REG = ADC_Voltage_Target_powerModeBackup.DSM_BUF0;
 232:.\Generated_Source\PSoC5/ADC_Voltage_Target.c ****         ADC_Voltage_Target_DSM_BUF1_REG = ADC_Voltage_Target_powerModeBackup.DSM_BUF1;
 233:.\Generated_Source\PSoC5/ADC_Voltage_Target.c ****         ADC_Voltage_Target_DSM_CLK_REG = ADC_Voltage_Target_powerModeBackup.DSM_CLK;
 234:.\Generated_Source\PSoC5/ADC_Voltage_Target.c ****     }
 235:.\Generated_Source\PSoC5/ADC_Voltage_Target.c **** 
 236:.\Generated_Source\PSoC5/ADC_Voltage_Target.c **** 
 237:.\Generated_Source\PSoC5/ADC_Voltage_Target.c ****     /************************************************************************** 
 238:.\Generated_Source\PSoC5/ADC_Voltage_Target.c ****     * Function Name: ADC_Voltage_Target_SavePowerRegisters
 239:.\Generated_Source\PSoC5/ADC_Voltage_Target.c ****     ***************************************************************************
 240:.\Generated_Source\PSoC5/ADC_Voltage_Target.c ****     *
 241:.\Generated_Source\PSoC5/ADC_Voltage_Target.c ****     * Summary: 
 242:.\Generated_Source\PSoC5/ADC_Voltage_Target.c ****     *  Save the power registers before stopping the block operation. This is 
 243:.\Generated_Source\PSoC5/ADC_Voltage_Target.c ****     *  called by Stop() API. This API is only for internal use and valid only 
 244:.\Generated_Source\PSoC5/ADC_Voltage_Target.c ****     *  for PSoC5A.
 245:.\Generated_Source\PSoC5/ADC_Voltage_Target.c ****     *  
 246:.\Generated_Source\PSoC5/ADC_Voltage_Target.c ****     *
 247:.\Generated_Source\PSoC5/ADC_Voltage_Target.c ****     * Parameters:  
 248:.\Generated_Source\PSoC5/ADC_Voltage_Target.c ****     *  void
 249:.\Generated_Source\PSoC5/ADC_Voltage_Target.c ****     *
 250:.\Generated_Source\PSoC5/ADC_Voltage_Target.c ****     * Return: 
 251:.\Generated_Source\PSoC5/ADC_Voltage_Target.c ****     *  void 
 252:.\Generated_Source\PSoC5/ADC_Voltage_Target.c ****     *
 253:.\Generated_Source\PSoC5/ADC_Voltage_Target.c ****     **************************************************************************/
 254:.\Generated_Source\PSoC5/ADC_Voltage_Target.c ****     void ADC_Voltage_Target_SavePowerRegisters(void) 
 255:.\Generated_Source\PSoC5/ADC_Voltage_Target.c ****     {
 256:.\Generated_Source\PSoC5/ADC_Voltage_Target.c ****         ADC_Voltage_Target_powerModeBackup.DSM_CR_14 = ADC_Voltage_Target_DSM_CR14_REG;
 257:.\Generated_Source\PSoC5/ADC_Voltage_Target.c ****         ADC_Voltage_Target_powerModeBackup.DSM_CR_15 = ADC_Voltage_Target_DSM_CR15_REG;
 258:.\Generated_Source\PSoC5/ADC_Voltage_Target.c ****         ADC_Voltage_Target_powerModeBackup.DSM_CR_16 = ADC_Voltage_Target_DSM_CR16_REG;
 259:.\Generated_Source\PSoC5/ADC_Voltage_Target.c ****         ADC_Voltage_Target_powerModeBackup.DSM_CR_17 = ADC_Voltage_Target_DSM_CR17_REG;
 260:.\Generated_Source\PSoC5/ADC_Voltage_Target.c ****         ADC_Voltage_Target_powerModeBackup.DSM_REF0 = ADC_Voltage_Target_DSM_REF0_REG;
 261:.\Generated_Source\PSoC5/ADC_Voltage_Target.c ****         ADC_Voltage_Target_powerModeBackup.DSM_BUF0 = ADC_Voltage_Target_DSM_BUF0_REG;
 262:.\Generated_Source\PSoC5/ADC_Voltage_Target.c ****         ADC_Voltage_Target_powerModeBackup.DSM_BUF1 = ADC_Voltage_Target_DSM_BUF1_REG;
 263:.\Generated_Source\PSoC5/ADC_Voltage_Target.c ****         ADC_Voltage_Target_powerModeBackup.DSM_CLK = ADC_Voltage_Target_DSM_CLK_REG;
 264:.\Generated_Source\PSoC5/ADC_Voltage_Target.c ****     }
 265:.\Generated_Source\PSoC5/ADC_Voltage_Target.c **** 
 266:.\Generated_Source\PSoC5/ADC_Voltage_Target.c **** 
 267:.\Generated_Source\PSoC5/ADC_Voltage_Target.c ****     /************************************************************************* 
 268:.\Generated_Source\PSoC5/ADC_Voltage_Target.c ****     * Function Name: ADC_Voltage_Target_SetLowPower
 269:.\Generated_Source\PSoC5/ADC_Voltage_Target.c ****     ***************************************************************************
 270:.\Generated_Source\PSoC5/ADC_Voltage_Target.c ****     *
 271:.\Generated_Source\PSoC5/ADC_Voltage_Target.c ****     * Summary: 
 272:.\Generated_Source\PSoC5/ADC_Voltage_Target.c ****     *  Set all the power registers of DSM block to low power mode. This API is
 273:.\Generated_Source\PSoC5/ADC_Voltage_Target.c ****     *   called by Stop() API. This API is only for internal use and valid for 
 274:.\Generated_Source\PSoC5/ADC_Voltage_Target.c ****     *   only PSoC5A.
 275:.\Generated_Source\PSoC5/ADC_Voltage_Target.c ****     *  
 276:.\Generated_Source\PSoC5/ADC_Voltage_Target.c ****     *
 277:.\Generated_Source\PSoC5/ADC_Voltage_Target.c ****     * Parameters:  
 278:.\Generated_Source\PSoC5/ADC_Voltage_Target.c ****     *  void
 279:.\Generated_Source\PSoC5/ADC_Voltage_Target.c ****     *
 280:.\Generated_Source\PSoC5/ADC_Voltage_Target.c ****     * Return: 
ARM GAS  C:\DOCUME~1\ADMINI~1\LOCALS~1\Temp\ccfNfb5I.s 			page 11


 281:.\Generated_Source\PSoC5/ADC_Voltage_Target.c ****     *  void 
 282:.\Generated_Source\PSoC5/ADC_Voltage_Target.c ****     *
 283:.\Generated_Source\PSoC5/ADC_Voltage_Target.c ****     ***************************************************************************/
 284:.\Generated_Source\PSoC5/ADC_Voltage_Target.c ****     void ADC_Voltage_Target_SetLowPower(void) 
 285:.\Generated_Source\PSoC5/ADC_Voltage_Target.c ****     {
 286:.\Generated_Source\PSoC5/ADC_Voltage_Target.c ****         ADC_Voltage_Target_DSM_CR14_REG &= ~ADC_Voltage_Target_DSM_POWER1_MASK;
 287:.\Generated_Source\PSoC5/ADC_Voltage_Target.c ****         ADC_Voltage_Target_DSM_CR14_REG |= ADC_Voltage_Target_DSM_POWER1_44UA;
 288:.\Generated_Source\PSoC5/ADC_Voltage_Target.c ****         
 289:.\Generated_Source\PSoC5/ADC_Voltage_Target.c ****         ADC_Voltage_Target_DSM_CR15_REG &= ~(ADC_Voltage_Target_DSM_POWER2_3_MASK | ADC_Voltage_Tar
 290:.\Generated_Source\PSoC5/ADC_Voltage_Target.c ****         ADC_Voltage_Target_DSM_CR15_REG |= (ADC_Voltage_Target_DSM_POWER2_3_LOW | ADC_Voltage_Targe
 291:.\Generated_Source\PSoC5/ADC_Voltage_Target.c ****         
 292:.\Generated_Source\PSoC5/ADC_Voltage_Target.c ****         ADC_Voltage_Target_DSM_CR16_REG &= ~(ADC_Voltage_Target_DSM_CP_PWRCTL_MASK | ADC_Voltage_Ta
 293:.\Generated_Source\PSoC5/ADC_Voltage_Target.c ****                                            ADC_Voltage_Target_DSM_CP_ENABLE);
 294:.\Generated_Source\PSoC5/ADC_Voltage_Target.c ****         ADC_Voltage_Target_DSM_CR16_REG |= (ADC_Voltage_Target_DSM_POWER_SUM_LOW | ADC_Voltage_Targ
 295:.\Generated_Source\PSoC5/ADC_Voltage_Target.c ****         
 296:.\Generated_Source\PSoC5/ADC_Voltage_Target.c ****         ADC_Voltage_Target_DSM_CR17_REG &= ~(ADC_Voltage_Target_DSM_EN_BUF_VREF | ADC_Voltage_Targe
 297:.\Generated_Source\PSoC5/ADC_Voltage_Target.c ****                                            ADC_Voltage_Target_DSM_PWR_CTRL_VREF_MASK | ADC_Voltage_
 298:.\Generated_Source\PSoC5/ADC_Voltage_Target.c ****                                            ADC_Voltage_Target_DSM_PWR_CTRL_VREF_INN_MASK);
 299:.\Generated_Source\PSoC5/ADC_Voltage_Target.c ****         ADC_Voltage_Target_DSM_CR17_REG |= (ADC_Voltage_Target_DSM_PWR_CTRL_VREF_0 | ADC_Voltage_Ta
 300:.\Generated_Source\PSoC5/ADC_Voltage_Target.c ****                                            ADC_Voltage_Target_DSM_PWR_CTRL_VREF_INN_0);
 301:.\Generated_Source\PSoC5/ADC_Voltage_Target.c ****         
 302:.\Generated_Source\PSoC5/ADC_Voltage_Target.c ****         /* Disable reference buffers */
 303:.\Generated_Source\PSoC5/ADC_Voltage_Target.c ****         ADC_Voltage_Target_DSM_REF0_REG &= ~(ADC_Voltage_Target_DSM_EN_BUF_VREF_INN | ADC_Voltage_T
 304:.\Generated_Source\PSoC5/ADC_Voltage_Target.c ****                                            ADC_Voltage_Target_DSM_VCM_RES_DIV_EN);
 305:.\Generated_Source\PSoC5/ADC_Voltage_Target.c ****             
 306:.\Generated_Source\PSoC5/ADC_Voltage_Target.c ****         /* Disable the positive input buffer */
 307:.\Generated_Source\PSoC5/ADC_Voltage_Target.c ****         ADC_Voltage_Target_DSM_BUF0_REG &= ~ADC_Voltage_Target_DSM_ENABLE_P;
 308:.\Generated_Source\PSoC5/ADC_Voltage_Target.c ****         /* Disable the negative input buffer */
 309:.\Generated_Source\PSoC5/ADC_Voltage_Target.c ****         ADC_Voltage_Target_DSM_BUF1_REG &= ~ADC_Voltage_Target_DSM_ENABLE_N;
 310:.\Generated_Source\PSoC5/ADC_Voltage_Target.c ****         /* Disable the clock to DSM */
 311:.\Generated_Source\PSoC5/ADC_Voltage_Target.c ****         ADC_Voltage_Target_DSM_CLK_REG &= ~(ADC_Voltage_Target_DSM_CLK_CLK_EN | ADC_Voltage_Target_
 312:.\Generated_Source\PSoC5/ADC_Voltage_Target.c ****     }
 313:.\Generated_Source\PSoC5/ADC_Voltage_Target.c **** #endif /* CY_PSOC5A */
 314:.\Generated_Source\PSoC5/ADC_Voltage_Target.c **** 
 315:.\Generated_Source\PSoC5/ADC_Voltage_Target.c **** 
 316:.\Generated_Source\PSoC5/ADC_Voltage_Target.c **** /******************************************************************************* 
 317:.\Generated_Source\PSoC5/ADC_Voltage_Target.c **** * Function Name: ADC_Voltage_Target_Start
 318:.\Generated_Source\PSoC5/ADC_Voltage_Target.c **** ********************************************************************************
 319:.\Generated_Source\PSoC5/ADC_Voltage_Target.c **** *
 320:.\Generated_Source\PSoC5/ADC_Voltage_Target.c **** * Summary:
 321:.\Generated_Source\PSoC5/ADC_Voltage_Target.c **** *  The start function initializes the Delta Sigma Modulator with the default  
 322:.\Generated_Source\PSoC5/ADC_Voltage_Target.c **** *  values, and sets the power to the given level.  A power level of 0, is the 
 323:.\Generated_Source\PSoC5/ADC_Voltage_Target.c **** *  same as executing the stop function.
 324:.\Generated_Source\PSoC5/ADC_Voltage_Target.c **** *
 325:.\Generated_Source\PSoC5/ADC_Voltage_Target.c **** * Parameters:  
 326:.\Generated_Source\PSoC5/ADC_Voltage_Target.c **** *  None
 327:.\Generated_Source\PSoC5/ADC_Voltage_Target.c **** *
 328:.\Generated_Source\PSoC5/ADC_Voltage_Target.c **** * Return: 
 329:.\Generated_Source\PSoC5/ADC_Voltage_Target.c **** *  void 
 330:.\Generated_Source\PSoC5/ADC_Voltage_Target.c **** *
 331:.\Generated_Source\PSoC5/ADC_Voltage_Target.c **** * Global variables:
 332:.\Generated_Source\PSoC5/ADC_Voltage_Target.c **** *  ADC_Voltage_Target_initVar:  Used to check the initial configuration,
 333:.\Generated_Source\PSoC5/ADC_Voltage_Target.c **** *  modified when this function is called for the first time.
 334:.\Generated_Source\PSoC5/ADC_Voltage_Target.c **** *
 335:.\Generated_Source\PSoC5/ADC_Voltage_Target.c **** *******************************************************************************/
 336:.\Generated_Source\PSoC5/ADC_Voltage_Target.c **** void ADC_Voltage_Target_Start() 
 337:.\Generated_Source\PSoC5/ADC_Voltage_Target.c **** {
ARM GAS  C:\DOCUME~1\ADMINI~1\LOCALS~1\Temp\ccfNfb5I.s 			page 12


 287              		.loc 1 337 0
 288              		.cfi_startproc
 289              		@ args = 0, pretend = 0, frame = 0
 290              		@ frame_needed = 1, uses_anonymous_args = 0
 291 0000 80B5     		push	{r7, lr}
 292              	.LCFI4:
 293              		.cfi_def_cfa_offset 8
 294 0002 00AF     		add	r7, sp, #0
 295              		.cfi_offset 14, -4
 296              		.cfi_offset 7, -8
 297              	.LCFI5:
 298              		.cfi_def_cfa_register 7
 338:.\Generated_Source\PSoC5/ADC_Voltage_Target.c ****     if(ADC_Voltage_Target_initVar == 0u)
 299              		.loc 1 338 0
 300 0004 40F20003 		movw	r3, #:lower16:ADC_Voltage_Target_initVar
 301 0008 C0F20003 		movt	r3, #:upper16:ADC_Voltage_Target_initVar
 302 000c 1B78     		ldrb	r3, [r3, #0]	@ zero_extendqisi2
 303 000e 002B     		cmp	r3, #0
 304 0010 10D1     		bne	.L7
 339:.\Generated_Source\PSoC5/ADC_Voltage_Target.c ****     {
 340:.\Generated_Source\PSoC5/ADC_Voltage_Target.c ****         if(!(ADC_Voltage_Target_started))
 305              		.loc 1 340 0
 306 0012 40F20003 		movw	r3, #:lower16:ADC_Voltage_Target_started
 307 0016 C0F20003 		movt	r3, #:upper16:ADC_Voltage_Target_started
 308 001a 1B78     		ldrb	r3, [r3, #0]
 309 001c DBB2     		uxtb	r3, r3
 310 001e 002B     		cmp	r3, #0
 311 0020 01D1     		bne	.L8
 341:.\Generated_Source\PSoC5/ADC_Voltage_Target.c ****         {
 342:.\Generated_Source\PSoC5/ADC_Voltage_Target.c ****             ADC_Voltage_Target_Init();
 312              		.loc 1 342 0
 313 0022 FFF7FEFF 		bl	ADC_Voltage_Target_Init
 314              	.L8:
 343:.\Generated_Source\PSoC5/ADC_Voltage_Target.c ****         }
 344:.\Generated_Source\PSoC5/ADC_Voltage_Target.c ****         ADC_Voltage_Target_initVar = 1u;
 315              		.loc 1 344 0
 316 0026 40F20003 		movw	r3, #:lower16:ADC_Voltage_Target_initVar
 317 002a C0F20003 		movt	r3, #:upper16:ADC_Voltage_Target_initVar
 318 002e 4FF00102 		mov	r2, #1
 319 0032 1A70     		strb	r2, [r3, #0]
 320              	.L7:
 345:.\Generated_Source\PSoC5/ADC_Voltage_Target.c ****     }
 346:.\Generated_Source\PSoC5/ADC_Voltage_Target.c **** 
 347:.\Generated_Source\PSoC5/ADC_Voltage_Target.c ****     /* Enable the ADC */
 348:.\Generated_Source\PSoC5/ADC_Voltage_Target.c ****     ADC_Voltage_Target_Enable();
 321              		.loc 1 348 0
 322 0034 FFF7FEFF 		bl	ADC_Voltage_Target_Enable
 349:.\Generated_Source\PSoC5/ADC_Voltage_Target.c **** }
 323              		.loc 1 349 0
 324 0038 80BD     		pop	{r7, pc}
 325              		.cfi_endproc
 326              	.LFE2:
 327              		.size	ADC_Voltage_Target_Start, .-ADC_Voltage_Target_Start
 328 003a 00BF     		.section	.text.ADC_Voltage_Target_Stop,"ax",%progbits
 329              		.align	2
 330              		.global	ADC_Voltage_Target_Stop
 331              		.thumb
ARM GAS  C:\DOCUME~1\ADMINI~1\LOCALS~1\Temp\ccfNfb5I.s 			page 13


 332              		.thumb_func
 333              		.type	ADC_Voltage_Target_Stop, %function
 334              	ADC_Voltage_Target_Stop:
 335              	.LFB3:
 350:.\Generated_Source\PSoC5/ADC_Voltage_Target.c **** 
 351:.\Generated_Source\PSoC5/ADC_Voltage_Target.c **** 
 352:.\Generated_Source\PSoC5/ADC_Voltage_Target.c **** /*******************************************************************************
 353:.\Generated_Source\PSoC5/ADC_Voltage_Target.c **** * Function Name: ADC_Voltage_Target_Stop
 354:.\Generated_Source\PSoC5/ADC_Voltage_Target.c **** ********************************************************************************
 355:.\Generated_Source\PSoC5/ADC_Voltage_Target.c **** *
 356:.\Generated_Source\PSoC5/ADC_Voltage_Target.c **** * Summary:
 357:.\Generated_Source\PSoC5/ADC_Voltage_Target.c **** *  Stops and powers down ADC to lowest power state.
 358:.\Generated_Source\PSoC5/ADC_Voltage_Target.c **** *
 359:.\Generated_Source\PSoC5/ADC_Voltage_Target.c **** * Parameters:  
 360:.\Generated_Source\PSoC5/ADC_Voltage_Target.c **** *  void
 361:.\Generated_Source\PSoC5/ADC_Voltage_Target.c **** *
 362:.\Generated_Source\PSoC5/ADC_Voltage_Target.c **** * Return: 
 363:.\Generated_Source\PSoC5/ADC_Voltage_Target.c **** *  void 
 364:.\Generated_Source\PSoC5/ADC_Voltage_Target.c **** *
 365:.\Generated_Source\PSoC5/ADC_Voltage_Target.c **** *******************************************************************************/
 366:.\Generated_Source\PSoC5/ADC_Voltage_Target.c **** void ADC_Voltage_Target_Stop(void) 
 367:.\Generated_Source\PSoC5/ADC_Voltage_Target.c **** {
 336              		.loc 1 367 0
 337              		.cfi_startproc
 338              		@ args = 0, pretend = 0, frame = 0
 339              		@ frame_needed = 1, uses_anonymous_args = 0
 340 0000 80B5     		push	{r7, lr}
 341              	.LCFI6:
 342              		.cfi_def_cfa_offset 8
 343 0002 00AF     		add	r7, sp, #0
 344              		.cfi_offset 14, -4
 345              		.cfi_offset 7, -8
 346              	.LCFI7:
 347              		.cfi_def_cfa_register 7
 368:.\Generated_Source\PSoC5/ADC_Voltage_Target.c ****     /* Stop conversions */
 369:.\Generated_Source\PSoC5/ADC_Voltage_Target.c ****     ADC_Voltage_Target_DEC_CR_REG &= ~ADC_Voltage_Target_DEC_START_CONV;
 348              		.loc 1 369 0
 349 0004 44F60063 		movw	r3, #:lower16:1073761792
 350 0008 C4F20003 		movt	r3, #:upper16:1073761792
 351 000c 44F60062 		movw	r2, #:lower16:1073761792
 352 0010 C4F20002 		movt	r2, #:upper16:1073761792
 353 0014 1278     		ldrb	r2, [r2, #0]
 354 0016 D2B2     		uxtb	r2, r2
 355 0018 02F0FE02 		and	r2, r2, #254
 356 001c 1A70     		strb	r2, [r3, #0]
 370:.\Generated_Source\PSoC5/ADC_Voltage_Target.c ****     ADC_Voltage_Target_DEC_SR_REG |=  ADC_Voltage_Target_DEC_INTR_CLEAR;
 357              		.loc 1 370 0
 358 001e 44F60163 		movw	r3, #:lower16:1073761793
 359 0022 C4F20003 		movt	r3, #:upper16:1073761793
 360 0026 44F60162 		movw	r2, #:lower16:1073761793
 361 002a C4F20002 		movt	r2, #:upper16:1073761793
 362 002e 1278     		ldrb	r2, [r2, #0]
 363 0030 D2B2     		uxtb	r2, r2
 364 0032 42F00402 		orr	r2, r2, #4
 365 0036 D2B2     		uxtb	r2, r2
 366 0038 1A70     		strb	r2, [r3, #0]
 371:.\Generated_Source\PSoC5/ADC_Voltage_Target.c ****     
ARM GAS  C:\DOCUME~1\ADMINI~1\LOCALS~1\Temp\ccfNfb5I.s 			page 14


 372:.\Generated_Source\PSoC5/ADC_Voltage_Target.c ****     /* Disable PRES, Disable power to VCMBUF0, REFBUF0 and REFBUF1, 
 373:.\Generated_Source\PSoC5/ADC_Voltage_Target.c ****        enable PRES */
 374:.\Generated_Source\PSoC5/ADC_Voltage_Target.c ****     #if (CY_PSOC3 || CY_PSOC5LP)
 375:.\Generated_Source\PSoC5/ADC_Voltage_Target.c ****         ADC_Voltage_Target_RESET_CR4_REG |= ADC_Voltage_Target_IGNORE_PRESA1;
 367              		.loc 1 375 0
 368 003a 44F2F863 		movw	r3, #:lower16:1073759992
 369 003e C4F20003 		movt	r3, #:upper16:1073759992
 370 0042 44F2F862 		movw	r2, #:lower16:1073759992
 371 0046 C4F20002 		movt	r2, #:upper16:1073759992
 372 004a 1278     		ldrb	r2, [r2, #0]
 373 004c D2B2     		uxtb	r2, r2
 374 004e 42F00202 		orr	r2, r2, #2
 375 0052 D2B2     		uxtb	r2, r2
 376 0054 1A70     		strb	r2, [r3, #0]
 376:.\Generated_Source\PSoC5/ADC_Voltage_Target.c ****         ADC_Voltage_Target_RESET_CR5_REG |= ADC_Voltage_Target_IGNORE_PRESA2;
 377              		.loc 1 376 0
 378 0056 44F2F963 		movw	r3, #:lower16:1073759993
 379 005a C4F20003 		movt	r3, #:upper16:1073759993
 380 005e 44F2F962 		movw	r2, #:lower16:1073759993
 381 0062 C4F20002 		movt	r2, #:upper16:1073759993
 382 0066 1278     		ldrb	r2, [r2, #0]
 383 0068 D2B2     		uxtb	r2, r2
 384 006a 42F00202 		orr	r2, r2, #2
 385 006e D2B2     		uxtb	r2, r2
 386 0070 1A70     		strb	r2, [r3, #0]
 377:.\Generated_Source\PSoC5/ADC_Voltage_Target.c ****     #elif (CY_PSOC5A)
 378:.\Generated_Source\PSoC5/ADC_Voltage_Target.c ****         ADC_Voltage_Target_RESET_CR1_REG |= ADC_Voltage_Target_DIS_PRES1;
 379:.\Generated_Source\PSoC5/ADC_Voltage_Target.c ****         ADC_Voltage_Target_RESET_CR3_REG |= ADC_Voltage_Target_DIS_PRES2;
 380:.\Generated_Source\PSoC5/ADC_Voltage_Target.c ****     #endif /* CY_PSOC5A */
 381:.\Generated_Source\PSoC5/ADC_Voltage_Target.c ****     
 382:.\Generated_Source\PSoC5/ADC_Voltage_Target.c ****     ADC_Voltage_Target_DSM_CR17_REG &= ~(ADC_Voltage_Target_DSM_EN_BUF_VREF | ADC_Voltage_Target_DS
 387              		.loc 1 382 0
 388 0072 45F69103 		movw	r3, #:lower16:1073764497
 389 0076 C4F20003 		movt	r3, #:upper16:1073764497
 390 007a 45F69102 		movw	r2, #:lower16:1073764497
 391 007e C4F20002 		movt	r2, #:upper16:1073764497
 392 0082 1278     		ldrb	r2, [r2, #0]
 393 0084 D2B2     		uxtb	r2, r2
 394 0086 02F0FC02 		and	r2, r2, #252
 395 008a 1A70     		strb	r2, [r3, #0]
 383:.\Generated_Source\PSoC5/ADC_Voltage_Target.c ****     ADC_Voltage_Target_DSM_REF0_REG &= ~ADC_Voltage_Target_DSM_EN_BUF_VREF_INN;
 396              		.loc 1 383 0
 397 008c 45F69203 		movw	r3, #:lower16:1073764498
 398 0090 C4F20003 		movt	r3, #:upper16:1073764498
 399 0094 45F69202 		movw	r2, #:lower16:1073764498
 400 0098 C4F20002 		movt	r2, #:upper16:1073764498
 401 009c 1278     		ldrb	r2, [r2, #0]
 402 009e D2B2     		uxtb	r2, r2
 403 00a0 02F0F702 		and	r2, r2, #247
 404 00a4 1A70     		strb	r2, [r3, #0]
 384:.\Generated_Source\PSoC5/ADC_Voltage_Target.c ****     
 385:.\Generated_Source\PSoC5/ADC_Voltage_Target.c ****     /* Wait for 3 microseconds. */
 386:.\Generated_Source\PSoC5/ADC_Voltage_Target.c ****     CyDelayUs(3);
 405              		.loc 1 386 0
 406 00a6 4FF00300 		mov	r0, #3
 407 00aa FFF7FEFF 		bl	CyDelayUs
 387:.\Generated_Source\PSoC5/ADC_Voltage_Target.c ****     
ARM GAS  C:\DOCUME~1\ADMINI~1\LOCALS~1\Temp\ccfNfb5I.s 			page 15


 388:.\Generated_Source\PSoC5/ADC_Voltage_Target.c **** 	/* Enable the press circuit */
 389:.\Generated_Source\PSoC5/ADC_Voltage_Target.c ****     #if (CY_PSOC3 || CY_PSOC5LP)
 390:.\Generated_Source\PSoC5/ADC_Voltage_Target.c ****         ADC_Voltage_Target_RESET_CR4_REG &= ~ADC_Voltage_Target_IGNORE_PRESA1;
 408              		.loc 1 390 0
 409 00ae 44F2F863 		movw	r3, #:lower16:1073759992
 410 00b2 C4F20003 		movt	r3, #:upper16:1073759992
 411 00b6 44F2F862 		movw	r2, #:lower16:1073759992
 412 00ba C4F20002 		movt	r2, #:upper16:1073759992
 413 00be 1278     		ldrb	r2, [r2, #0]
 414 00c0 D2B2     		uxtb	r2, r2
 415 00c2 02F0FD02 		and	r2, r2, #253
 416 00c6 1A70     		strb	r2, [r3, #0]
 391:.\Generated_Source\PSoC5/ADC_Voltage_Target.c ****         ADC_Voltage_Target_RESET_CR5_REG &= ~ADC_Voltage_Target_IGNORE_PRESA2;
 417              		.loc 1 391 0
 418 00c8 44F2F963 		movw	r3, #:lower16:1073759993
 419 00cc C4F20003 		movt	r3, #:upper16:1073759993
 420 00d0 44F2F962 		movw	r2, #:lower16:1073759993
 421 00d4 C4F20002 		movt	r2, #:upper16:1073759993
 422 00d8 1278     		ldrb	r2, [r2, #0]
 423 00da D2B2     		uxtb	r2, r2
 424 00dc 02F0FD02 		and	r2, r2, #253
 425 00e0 1A70     		strb	r2, [r3, #0]
 392:.\Generated_Source\PSoC5/ADC_Voltage_Target.c ****     #elif (CY_PSOC5A)
 393:.\Generated_Source\PSoC5/ADC_Voltage_Target.c ****         ADC_Voltage_Target_RESET_CR1_REG &= ~ADC_Voltage_Target_DIS_PRES1;
 394:.\Generated_Source\PSoC5/ADC_Voltage_Target.c ****         ADC_Voltage_Target_RESET_CR3_REG &= ~ADC_Voltage_Target_DIS_PRES2;
 395:.\Generated_Source\PSoC5/ADC_Voltage_Target.c ****     #endif /* CY_PSOC5A */
 396:.\Generated_Source\PSoC5/ADC_Voltage_Target.c ****     
 397:.\Generated_Source\PSoC5/ADC_Voltage_Target.c ****     /* If PSoC5A then don't disable the power instead put the block to  
 398:.\Generated_Source\PSoC5/ADC_Voltage_Target.c ****        low power mode. Also, save current state of all the power configuration 
 399:.\Generated_Source\PSoC5/ADC_Voltage_Target.c ****        registers before putting block to low power mode */
 400:.\Generated_Source\PSoC5/ADC_Voltage_Target.c ****     #if (CY_PSOC5A)
 401:.\Generated_Source\PSoC5/ADC_Voltage_Target.c ****         
 402:.\Generated_Source\PSoC5/ADC_Voltage_Target.c ****         /* set the flag */
 403:.\Generated_Source\PSoC5/ADC_Voltage_Target.c ****         ADC_Voltage_Target_restoreReg = 1u;
 404:.\Generated_Source\PSoC5/ADC_Voltage_Target.c ****         
 405:.\Generated_Source\PSoC5/ADC_Voltage_Target.c ****         ADC_Voltage_Target_SavePowerRegisters();
 406:.\Generated_Source\PSoC5/ADC_Voltage_Target.c ****         ADC_Voltage_Target_SetLowPower();
 407:.\Generated_Source\PSoC5/ADC_Voltage_Target.c ****     #else    
 408:.\Generated_Source\PSoC5/ADC_Voltage_Target.c ****         /* Disable power to the ADC */
 409:.\Generated_Source\PSoC5/ADC_Voltage_Target.c ****         ADC_Voltage_Target_PWRMGR_DSM_REG &= ~ADC_Voltage_Target_ACT_PWR_DSM_EN;
 426              		.loc 1 409 0
 427 00e2 44F2AA33 		movw	r3, #:lower16:1073759146
 428 00e6 C4F20003 		movt	r3, #:upper16:1073759146
 429 00ea 44F2AA32 		movw	r2, #:lower16:1073759146
 430 00ee C4F20002 		movt	r2, #:upper16:1073759146
 431 00f2 1278     		ldrb	r2, [r2, #0]
 432 00f4 D2B2     		uxtb	r2, r2
 433 00f6 02F0EF02 		and	r2, r2, #239
 434 00fa 1A70     		strb	r2, [r3, #0]
 410:.\Generated_Source\PSoC5/ADC_Voltage_Target.c ****     #endif /* CY_PSOC5A */
 411:.\Generated_Source\PSoC5/ADC_Voltage_Target.c ****     
 412:.\Generated_Source\PSoC5/ADC_Voltage_Target.c ****     /* Disable power to Decimator block */
 413:.\Generated_Source\PSoC5/ADC_Voltage_Target.c ****     ADC_Voltage_Target_PWRMGR_DEC_REG &= ~ADC_Voltage_Target_ACT_PWR_DEC_EN;
 435              		.loc 1 413 0
 436 00fc 44F2AA33 		movw	r3, #:lower16:1073759146
 437 0100 C4F20003 		movt	r3, #:upper16:1073759146
 438 0104 44F2AA32 		movw	r2, #:lower16:1073759146
ARM GAS  C:\DOCUME~1\ADMINI~1\LOCALS~1\Temp\ccfNfb5I.s 			page 16


 439 0108 C4F20002 		movt	r2, #:upper16:1073759146
 440 010c 1278     		ldrb	r2, [r2, #0]
 441 010e D2B2     		uxtb	r2, r2
 442 0110 02F0FE02 		and	r2, r2, #254
 443 0114 1A70     		strb	r2, [r3, #0]
 414:.\Generated_Source\PSoC5/ADC_Voltage_Target.c ****     
 415:.\Generated_Source\PSoC5/ADC_Voltage_Target.c ****     /* Disable alternative active power to the ADC */
 416:.\Generated_Source\PSoC5/ADC_Voltage_Target.c ****     ADC_Voltage_Target_STBY_PWRMGR_DEC_REG &= ~ADC_Voltage_Target_STBY_PWR_DEC_EN;
 444              		.loc 1 416 0
 445 0116 44F2BA33 		movw	r3, #:lower16:1073759162
 446 011a C4F20003 		movt	r3, #:upper16:1073759162
 447 011e 44F2BA32 		movw	r2, #:lower16:1073759162
 448 0122 C4F20002 		movt	r2, #:upper16:1073759162
 449 0126 1278     		ldrb	r2, [r2, #0]
 450 0128 D2B2     		uxtb	r2, r2
 451 012a 02F0FE02 		and	r2, r2, #254
 452 012e 1A70     		strb	r2, [r3, #0]
 417:.\Generated_Source\PSoC5/ADC_Voltage_Target.c ****     #if (CY_PSOC3 || CY_PSOC5LP)
 418:.\Generated_Source\PSoC5/ADC_Voltage_Target.c ****     ADC_Voltage_Target_STBY_PWRMGR_DSM_REG &= ~ADC_Voltage_Target_STBY_PWR_DSM_EN;
 453              		.loc 1 418 0
 454 0130 44F2BA33 		movw	r3, #:lower16:1073759162
 455 0134 C4F20003 		movt	r3, #:upper16:1073759162
 456 0138 44F2BA32 		movw	r2, #:lower16:1073759162
 457 013c C4F20002 		movt	r2, #:upper16:1073759162
 458 0140 1278     		ldrb	r2, [r2, #0]
 459 0142 D2B2     		uxtb	r2, r2
 460 0144 02F0EF02 		and	r2, r2, #239
 461 0148 1A70     		strb	r2, [r3, #0]
 419:.\Generated_Source\PSoC5/ADC_Voltage_Target.c ****     #endif /* CY_PSOC3 || CY_PSOC5LP */
 420:.\Generated_Source\PSoC5/ADC_Voltage_Target.c **** 
 421:.\Generated_Source\PSoC5/ADC_Voltage_Target.c ****    /* Disable negative pumps for DSM  */
 422:.\Generated_Source\PSoC5/ADC_Voltage_Target.c ****     ADC_Voltage_Target_PUMP_CR1_REG &= ~(ADC_Voltage_Target_PUMP_CR1_CLKSEL | ADC_Voltage_Target_PU
 462              		.loc 1 422 0
 463 014a 45F67703 		movw	r3, #:lower16:1073764471
 464 014e C4F20003 		movt	r3, #:upper16:1073764471
 465 0152 45F67702 		movw	r2, #:lower16:1073764471
 466 0156 C4F20002 		movt	r2, #:upper16:1073764471
 467 015a 1278     		ldrb	r2, [r2, #0]
 468 015c D2B2     		uxtb	r2, r2
 469 015e 02F0F902 		and	r2, r2, #249
 470 0162 1A70     		strb	r2, [r3, #0]
 423:.\Generated_Source\PSoC5/ADC_Voltage_Target.c ****     
 424:.\Generated_Source\PSoC5/ADC_Voltage_Target.c ****     /* This is only valid if there is an internal clock */
 425:.\Generated_Source\PSoC5/ADC_Voltage_Target.c ****     #if(ADC_Voltage_Target_DEFAULT_INTERNAL_CLK)
 426:.\Generated_Source\PSoC5/ADC_Voltage_Target.c ****         ADC_Voltage_Target_PWRMGR_CLK_REG &= ~ADC_Voltage_Target_ACT_PWR_CLK_EN;
 471              		.loc 1 426 0
 472 0164 44F2A133 		movw	r3, #:lower16:1073759137
 473 0168 C4F20003 		movt	r3, #:upper16:1073759137
 474 016c 44F2A132 		movw	r2, #:lower16:1073759137
 475 0170 C4F20002 		movt	r2, #:upper16:1073759137
 476 0174 1278     		ldrb	r2, [r2, #0]
 477 0176 D2B2     		uxtb	r2, r2
 478 0178 02F0FE02 		and	r2, r2, #254
 479 017c 1A70     		strb	r2, [r3, #0]
 427:.\Generated_Source\PSoC5/ADC_Voltage_Target.c ****         ADC_Voltage_Target_STBY_PWRMGR_CLK_REG &= ~ADC_Voltage_Target_STBY_PWR_CLK_EN;
 480              		.loc 1 427 0
 481 017e 44F2B133 		movw	r3, #:lower16:1073759153
ARM GAS  C:\DOCUME~1\ADMINI~1\LOCALS~1\Temp\ccfNfb5I.s 			page 17


 482 0182 C4F20003 		movt	r3, #:upper16:1073759153
 483 0186 44F2B132 		movw	r2, #:lower16:1073759153
 484 018a C4F20002 		movt	r2, #:upper16:1073759153
 485 018e 1278     		ldrb	r2, [r2, #0]
 486 0190 D2B2     		uxtb	r2, r2
 487 0192 02F0FE02 		and	r2, r2, #254
 488 0196 1A70     		strb	r2, [r3, #0]
 428:.\Generated_Source\PSoC5/ADC_Voltage_Target.c ****     #endif /* ADC_Voltage_Target_DEFAULT_INTERNAL_CLK */
 429:.\Generated_Source\PSoC5/ADC_Voltage_Target.c ****     
 430:.\Generated_Source\PSoC5/ADC_Voltage_Target.c ****     /* Disable power to charge pump clock */
 431:.\Generated_Source\PSoC5/ADC_Voltage_Target.c ****     ADC_Voltage_Target_PWRMGR_CHARGE_PUMP_CLK_REG &= ~ADC_Voltage_Target_ACT_PWR_CHARGE_PUMP_CLK_EN
 489              		.loc 1 431 0
 490 0198 44F2A233 		movw	r3, #:lower16:1073759138
 491 019c C4F20003 		movt	r3, #:upper16:1073759138
 492 01a0 44F2A232 		movw	r2, #:lower16:1073759138
 493 01a4 C4F20002 		movt	r2, #:upper16:1073759138
 494 01a8 1278     		ldrb	r2, [r2, #0]
 495 01aa D2B2     		uxtb	r2, r2
 496 01ac 02F0FB02 		and	r2, r2, #251
 497 01b0 1A70     		strb	r2, [r3, #0]
 432:.\Generated_Source\PSoC5/ADC_Voltage_Target.c ****     ADC_Voltage_Target_STBY_PWRMGR_CHARGE_PUMP_CLK_REG &= ~ADC_Voltage_Target_STBY_PWR_CHARGE_PUMP_
 498              		.loc 1 432 0
 499 01b2 44F2B233 		movw	r3, #:lower16:1073759154
 500 01b6 C4F20003 		movt	r3, #:upper16:1073759154
 501 01ba 44F2B232 		movw	r2, #:lower16:1073759154
 502 01be C4F20002 		movt	r2, #:upper16:1073759154
 503 01c2 1278     		ldrb	r2, [r2, #0]
 504 01c4 D2B2     		uxtb	r2, r2
 505 01c6 02F0FB02 		and	r2, r2, #251
 506 01ca 1A70     		strb	r2, [r3, #0]
 433:.\Generated_Source\PSoC5/ADC_Voltage_Target.c **** }
 507              		.loc 1 433 0
 508 01cc 80BD     		pop	{r7, pc}
 509              		.cfi_endproc
 510              	.LFE3:
 511              		.size	ADC_Voltage_Target_Stop, .-ADC_Voltage_Target_Stop
 512 01ce 00BF     		.section	.text.ADC_Voltage_Target_SetBufferGain,"ax",%progbits
 513              		.align	2
 514              		.global	ADC_Voltage_Target_SetBufferGain
 515              		.thumb
 516              		.thumb_func
 517              		.type	ADC_Voltage_Target_SetBufferGain, %function
 518              	ADC_Voltage_Target_SetBufferGain:
 519              	.LFB4:
 434:.\Generated_Source\PSoC5/ADC_Voltage_Target.c **** 
 435:.\Generated_Source\PSoC5/ADC_Voltage_Target.c **** 
 436:.\Generated_Source\PSoC5/ADC_Voltage_Target.c **** /*******************************************************************************
 437:.\Generated_Source\PSoC5/ADC_Voltage_Target.c **** * Function Name: ADC_Voltage_Target_SetBufferGain
 438:.\Generated_Source\PSoC5/ADC_Voltage_Target.c **** ********************************************************************************
 439:.\Generated_Source\PSoC5/ADC_Voltage_Target.c **** *
 440:.\Generated_Source\PSoC5/ADC_Voltage_Target.c **** * Summary:
 441:.\Generated_Source\PSoC5/ADC_Voltage_Target.c **** *  Set input buffer range.
 442:.\Generated_Source\PSoC5/ADC_Voltage_Target.c **** *
 443:.\Generated_Source\PSoC5/ADC_Voltage_Target.c **** * Parameters:  
 444:.\Generated_Source\PSoC5/ADC_Voltage_Target.c **** *  gain:  Two bit value to select a gain of 1, 2, 4, or 8.
 445:.\Generated_Source\PSoC5/ADC_Voltage_Target.c **** *
 446:.\Generated_Source\PSoC5/ADC_Voltage_Target.c **** * Return: 
ARM GAS  C:\DOCUME~1\ADMINI~1\LOCALS~1\Temp\ccfNfb5I.s 			page 18


 447:.\Generated_Source\PSoC5/ADC_Voltage_Target.c **** *  void
 448:.\Generated_Source\PSoC5/ADC_Voltage_Target.c **** *
 449:.\Generated_Source\PSoC5/ADC_Voltage_Target.c **** *******************************************************************************/
 450:.\Generated_Source\PSoC5/ADC_Voltage_Target.c **** void ADC_Voltage_Target_SetBufferGain(uint8 gain) 
 451:.\Generated_Source\PSoC5/ADC_Voltage_Target.c **** {
 520              		.loc 1 451 0
 521              		.cfi_startproc
 522              		@ args = 0, pretend = 0, frame = 16
 523              		@ frame_needed = 1, uses_anonymous_args = 0
 524              		@ link register save eliminated.
 525 0000 80B4     		push	{r7}
 526              	.LCFI8:
 527              		.cfi_def_cfa_offset 4
 528 0002 85B0     		sub	sp, sp, #20
 529              	.LCFI9:
 530              		.cfi_def_cfa_offset 24
 531 0004 00AF     		add	r7, sp, #0
 532              		.cfi_offset 7, -4
 533              	.LCFI10:
 534              		.cfi_def_cfa_register 7
 535 0006 0346     		mov	r3, r0
 536 0008 FB71     		strb	r3, [r7, #7]
 452:.\Generated_Source\PSoC5/ADC_Voltage_Target.c ****     uint8 tmpReg;
 453:.\Generated_Source\PSoC5/ADC_Voltage_Target.c ****     tmpReg = ADC_Voltage_Target_DSM_BUF1_REG & ~ADC_Voltage_Target_DSM_GAIN_MASK;
 537              		.loc 1 453 0
 538 000a 45F69B03 		movw	r3, #:lower16:1073764507
 539 000e C4F20003 		movt	r3, #:upper16:1073764507
 540 0012 1B78     		ldrb	r3, [r3, #0]
 541 0014 DBB2     		uxtb	r3, r3
 542 0016 23F00C03 		bic	r3, r3, #12
 543 001a FB73     		strb	r3, [r7, #15]
 454:.\Generated_Source\PSoC5/ADC_Voltage_Target.c ****     tmpReg |= (gain << 2);
 544              		.loc 1 454 0
 545 001c FB79     		ldrb	r3, [r7, #7]	@ zero_extendqisi2
 546 001e 4FEA8303 		lsl	r3, r3, #2
 547 0022 DAB2     		uxtb	r2, r3
 548 0024 FB7B     		ldrb	r3, [r7, #15]	@ zero_extendqisi2
 549 0026 42EA0303 		orr	r3, r2, r3
 550 002a DBB2     		uxtb	r3, r3
 551 002c FB73     		strb	r3, [r7, #15]
 455:.\Generated_Source\PSoC5/ADC_Voltage_Target.c ****     ADC_Voltage_Target_DSM_BUF1_REG = tmpReg;
 552              		.loc 1 455 0
 553 002e 45F69B03 		movw	r3, #:lower16:1073764507
 554 0032 C4F20003 		movt	r3, #:upper16:1073764507
 555 0036 FA7B     		ldrb	r2, [r7, #15]
 556 0038 1A70     		strb	r2, [r3, #0]
 456:.\Generated_Source\PSoC5/ADC_Voltage_Target.c **** }
 557              		.loc 1 456 0
 558 003a 07F11407 		add	r7, r7, #20
 559 003e BD46     		mov	sp, r7
 560 0040 80BC     		pop	{r7}
 561 0042 7047     		bx	lr
 562              		.cfi_endproc
 563              	.LFE4:
 564              		.size	ADC_Voltage_Target_SetBufferGain, .-ADC_Voltage_Target_SetBufferGain
 565              		.section	.text.ADC_Voltage_Target_SetCoherency,"ax",%progbits
 566              		.align	2
ARM GAS  C:\DOCUME~1\ADMINI~1\LOCALS~1\Temp\ccfNfb5I.s 			page 19


 567              		.global	ADC_Voltage_Target_SetCoherency
 568              		.thumb
 569              		.thumb_func
 570              		.type	ADC_Voltage_Target_SetCoherency, %function
 571              	ADC_Voltage_Target_SetCoherency:
 572              	.LFB5:
 457:.\Generated_Source\PSoC5/ADC_Voltage_Target.c **** 
 458:.\Generated_Source\PSoC5/ADC_Voltage_Target.c **** 
 459:.\Generated_Source\PSoC5/ADC_Voltage_Target.c **** /*******************************************************************************
 460:.\Generated_Source\PSoC5/ADC_Voltage_Target.c **** * Function Name: ADC_Voltage_Target_SetCoherency
 461:.\Generated_Source\PSoC5/ADC_Voltage_Target.c **** ********************************************************************************
 462:.\Generated_Source\PSoC5/ADC_Voltage_Target.c **** *
 463:.\Generated_Source\PSoC5/ADC_Voltage_Target.c **** * Summary:
 464:.\Generated_Source\PSoC5/ADC_Voltage_Target.c **** *  Sets the ADC output register coherency bit.
 465:.\Generated_Source\PSoC5/ADC_Voltage_Target.c **** *
 466:.\Generated_Source\PSoC5/ADC_Voltage_Target.c **** * Parameters:  
 467:.\Generated_Source\PSoC5/ADC_Voltage_Target.c **** *  gain:  Two bit value to set the coherency bit.
 468:.\Generated_Source\PSoC5/ADC_Voltage_Target.c ****           00-Coherency checking off
 469:.\Generated_Source\PSoC5/ADC_Voltage_Target.c ****           01-low byte is key byte
 470:.\Generated_Source\PSoC5/ADC_Voltage_Target.c ****           02-middle byte is the key byte
 471:.\Generated_Source\PSoC5/ADC_Voltage_Target.c ****           03-high byte is the key byte
 472:.\Generated_Source\PSoC5/ADC_Voltage_Target.c **** *
 473:.\Generated_Source\PSoC5/ADC_Voltage_Target.c **** * Return: 
 474:.\Generated_Source\PSoC5/ADC_Voltage_Target.c **** *  void
 475:.\Generated_Source\PSoC5/ADC_Voltage_Target.c **** *
 476:.\Generated_Source\PSoC5/ADC_Voltage_Target.c **** * Side Effects:  If the coherency is changed, for any reason, it should be 
 477:.\Generated_Source\PSoC5/ADC_Voltage_Target.c **** *                changed back to the LSB when the provided "GetResult" API 
 478:.\Generated_Source\PSoC5/ADC_Voltage_Target.c **** *                is used.
 479:.\Generated_Source\PSoC5/ADC_Voltage_Target.c **** *
 480:.\Generated_Source\PSoC5/ADC_Voltage_Target.c **** *******************************************************************************/
 481:.\Generated_Source\PSoC5/ADC_Voltage_Target.c **** void ADC_Voltage_Target_SetCoherency(uint8 coherency) 
 482:.\Generated_Source\PSoC5/ADC_Voltage_Target.c **** {
 573              		.loc 1 482 0
 574              		.cfi_startproc
 575              		@ args = 0, pretend = 0, frame = 16
 576              		@ frame_needed = 1, uses_anonymous_args = 0
 577              		@ link register save eliminated.
 578 0000 80B4     		push	{r7}
 579              	.LCFI11:
 580              		.cfi_def_cfa_offset 4
 581 0002 85B0     		sub	sp, sp, #20
 582              	.LCFI12:
 583              		.cfi_def_cfa_offset 24
 584 0004 00AF     		add	r7, sp, #0
 585              		.cfi_offset 7, -4
 586              	.LCFI13:
 587              		.cfi_def_cfa_register 7
 588 0006 0346     		mov	r3, r0
 589 0008 FB71     		strb	r3, [r7, #7]
 483:.\Generated_Source\PSoC5/ADC_Voltage_Target.c ****     uint8 tmpReg;    
 484:.\Generated_Source\PSoC5/ADC_Voltage_Target.c ****     tmpReg = ADC_Voltage_Target_DEC_COHER_REG & ~ADC_Voltage_Target_DEC_SAMP_KEY_MASK;
 590              		.loc 1 484 0
 591 000a 44F61463 		movw	r3, #:lower16:1073761812
 592 000e C4F20003 		movt	r3, #:upper16:1073761812
 593 0012 1B78     		ldrb	r3, [r3, #0]
 594 0014 DBB2     		uxtb	r3, r3
 595 0016 23F00303 		bic	r3, r3, #3
ARM GAS  C:\DOCUME~1\ADMINI~1\LOCALS~1\Temp\ccfNfb5I.s 			page 20


 596 001a FB73     		strb	r3, [r7, #15]
 485:.\Generated_Source\PSoC5/ADC_Voltage_Target.c ****     tmpReg |= coherency;
 597              		.loc 1 485 0
 598 001c FA7B     		ldrb	r2, [r7, #15]
 599 001e FB79     		ldrb	r3, [r7, #7]
 600 0020 42EA0303 		orr	r3, r2, r3
 601 0024 FB73     		strb	r3, [r7, #15]
 486:.\Generated_Source\PSoC5/ADC_Voltage_Target.c ****     ADC_Voltage_Target_DEC_COHER_REG = tmpReg;
 602              		.loc 1 486 0
 603 0026 44F61463 		movw	r3, #:lower16:1073761812
 604 002a C4F20003 		movt	r3, #:upper16:1073761812
 605 002e FA7B     		ldrb	r2, [r7, #15]
 606 0030 1A70     		strb	r2, [r3, #0]
 487:.\Generated_Source\PSoC5/ADC_Voltage_Target.c **** }
 607              		.loc 1 487 0
 608 0032 07F11407 		add	r7, r7, #20
 609 0036 BD46     		mov	sp, r7
 610 0038 80BC     		pop	{r7}
 611 003a 7047     		bx	lr
 612              		.cfi_endproc
 613              	.LFE5:
 614              		.size	ADC_Voltage_Target_SetCoherency, .-ADC_Voltage_Target_SetCoherency
 615              		.global	__aeabi_ui2f
 616              		.global	__aeabi_fdiv
 617              		.global	__aeabi_fmul
 618              		.global	__aeabi_f2d
 619              		.global	__aeabi_dcmpgt
 620              		.global	__aeabi_f2uiz
 621              		.section	.text.ADC_Voltage_Target_SetGCOR,"ax",%progbits
 622              		.align	2
 623              		.global	ADC_Voltage_Target_SetGCOR
 624              		.thumb
 625              		.thumb_func
 626              		.type	ADC_Voltage_Target_SetGCOR, %function
 627              	ADC_Voltage_Target_SetGCOR:
 628              	.LFB6:
 488:.\Generated_Source\PSoC5/ADC_Voltage_Target.c **** 
 489:.\Generated_Source\PSoC5/ADC_Voltage_Target.c **** 
 490:.\Generated_Source\PSoC5/ADC_Voltage_Target.c **** /*******************************************************************************
 491:.\Generated_Source\PSoC5/ADC_Voltage_Target.c **** * Function Name: ADC_Voltage_Target_SetGCOR
 492:.\Generated_Source\PSoC5/ADC_Voltage_Target.c **** ********************************************************************************
 493:.\Generated_Source\PSoC5/ADC_Voltage_Target.c **** *
 494:.\Generated_Source\PSoC5/ADC_Voltage_Target.c **** * Summary:
 495:.\Generated_Source\PSoC5/ADC_Voltage_Target.c **** *  Calculates a new GCOR value and writes it into the GCOR register.
 496:.\Generated_Source\PSoC5/ADC_Voltage_Target.c **** *
 497:.\Generated_Source\PSoC5/ADC_Voltage_Target.c **** * Parameters:  
 498:.\Generated_Source\PSoC5/ADC_Voltage_Target.c **** *  gainAdjust:  floating point value to set GCOR registers.
 499:.\Generated_Source\PSoC5/ADC_Voltage_Target.c **** *
 500:.\Generated_Source\PSoC5/ADC_Voltage_Target.c **** * Return: 
 501:.\Generated_Source\PSoC5/ADC_Voltage_Target.c **** *  uint8:  0-if GCOR value is within the expected range.
 502:.\Generated_Source\PSoC5/ADC_Voltage_Target.c ****            1- if GCOR is outside the expected range.
 503:.\Generated_Source\PSoC5/ADC_Voltage_Target.c **** *
 504:.\Generated_Source\PSoC5/ADC_Voltage_Target.c **** * Side Effects:  The GVAL register is set to the amount of valid bits in the
 505:.\Generated_Source\PSoC5/ADC_Voltage_Target.c **** *                GCOR  register minus one. If GVAL is 15 (0x0F), all 16 bits
 506:.\Generated_Source\PSoC5/ADC_Voltage_Target.c **** *                of the GCOR registers will be valid. If for example GVAL is 
 507:.\Generated_Source\PSoC5/ADC_Voltage_Target.c **** *                11 (0x0B) only 12 bits will be valid. The least 4 bits will
 508:.\Generated_Source\PSoC5/ADC_Voltage_Target.c **** *                be lost when the GCOR value is shifted 4 places to the right.
ARM GAS  C:\DOCUME~1\ADMINI~1\LOCALS~1\Temp\ccfNfb5I.s 			page 21


 509:.\Generated_Source\PSoC5/ADC_Voltage_Target.c **** *
 510:.\Generated_Source\PSoC5/ADC_Voltage_Target.c **** ******************************************************************************/
 511:.\Generated_Source\PSoC5/ADC_Voltage_Target.c **** uint8 ADC_Voltage_Target_SetGCOR(float gainAdjust) 
 512:.\Generated_Source\PSoC5/ADC_Voltage_Target.c **** {
 629              		.loc 1 512 0
 630              		.cfi_startproc
 631              		@ args = 0, pretend = 0, frame = 16
 632              		@ frame_needed = 1, uses_anonymous_args = 0
 633 0000 90B5     		push	{r4, r7, lr}
 634              	.LCFI14:
 635              		.cfi_def_cfa_offset 12
 636 0002 85B0     		sub	sp, sp, #20
 637              	.LCFI15:
 638              		.cfi_def_cfa_offset 32
 639 0004 00AF     		add	r7, sp, #0
 640              		.cfi_offset 14, -4
 641              		.cfi_offset 7, -8
 642              		.cfi_offset 4, -12
 643              	.LCFI16:
 644              		.cfi_def_cfa_register 7
 645 0006 7860     		str	r0, [r7, #4]	@ float
 513:.\Generated_Source\PSoC5/ADC_Voltage_Target.c ****     uint16 tmpReg;
 514:.\Generated_Source\PSoC5/ADC_Voltage_Target.c ****     uint8 status;
 515:.\Generated_Source\PSoC5/ADC_Voltage_Target.c ****     float tmpValue;
 516:.\Generated_Source\PSoC5/ADC_Voltage_Target.c ****     
 517:.\Generated_Source\PSoC5/ADC_Voltage_Target.c ****     tmpReg = ADC_Voltage_Target_DEC_GCORH_REG;
 646              		.loc 1 517 0
 647 0008 44F60D63 		movw	r3, #:lower16:1073761805
 648 000c C4F20003 		movt	r3, #:upper16:1073761805
 649 0010 1B78     		ldrb	r3, [r3, #0]
 650 0012 DBB2     		uxtb	r3, r3
 651 0014 3B81     		strh	r3, [r7, #8]	@ movhi
 518:.\Generated_Source\PSoC5/ADC_Voltage_Target.c ****     tmpReg = (tmpReg << 8) | ADC_Voltage_Target_DEC_GCOR_REG;
 652              		.loc 1 518 0
 653 0016 3B89     		ldrh	r3, [r7, #8]
 654 0018 4FEA0323 		lsl	r3, r3, #8
 655 001c 9AB2     		uxth	r2, r3
 656 001e 44F60C63 		movw	r3, #:lower16:1073761804
 657 0022 C4F20003 		movt	r3, #:upper16:1073761804
 658 0026 1B78     		ldrb	r3, [r3, #0]
 659 0028 DBB2     		uxtb	r3, r3
 660 002a 42EA0303 		orr	r3, r2, r3
 661 002e 9BB2     		uxth	r3, r3
 662 0030 3B81     		strh	r3, [r7, #8]	@ movhi
 519:.\Generated_Source\PSoC5/ADC_Voltage_Target.c ****     tmpValue = ((float)tmpReg / ADC_Voltage_Target_IDEAL_GAIN_CONST);
 663              		.loc 1 519 0
 664 0032 3B89     		ldrh	r3, [r7, #8]
 665 0034 1846     		mov	r0, r3
 666 0036 FFF7FEFF 		bl	__aeabi_ui2f
 667 003a 0346     		mov	r3, r0
 668 003c 1846     		mov	r0, r3
 669 003e 2849     		ldr	r1, .L22+8	@ float
 670 0040 FFF7FEFF 		bl	__aeabi_fdiv
 671 0044 0346     		mov	r3, r0
 672 0046 FB60     		str	r3, [r7, #12]	@ float
 520:.\Generated_Source\PSoC5/ADC_Voltage_Target.c ****     tmpValue = tmpValue * gainAdjust;
 673              		.loc 1 520 0
ARM GAS  C:\DOCUME~1\ADMINI~1\LOCALS~1\Temp\ccfNfb5I.s 			page 22


 674 0048 F868     		ldr	r0, [r7, #12]	@ float
 675 004a 7968     		ldr	r1, [r7, #4]	@ float
 676 004c FFF7FEFF 		bl	__aeabi_fmul
 677 0050 0346     		mov	r3, r0
 678 0052 FB60     		str	r3, [r7, #12]	@ float
 521:.\Generated_Source\PSoC5/ADC_Voltage_Target.c ****     
 522:.\Generated_Source\PSoC5/ADC_Voltage_Target.c ****     if (tmpValue > 1.9999)
 679              		.loc 1 522 0
 680 0054 F868     		ldr	r0, [r7, #12]	@ float
 681 0056 FFF7FEFF 		bl	__aeabi_f2d
 682 005a 0246     		mov	r2, r0
 683 005c 0B46     		mov	r3, r1
 684 005e 4FF00001 		mov	r1, #0
 685 0062 0C46     		mov	r4, r1
 686 0064 1046     		mov	r0, r2
 687 0066 1946     		mov	r1, r3
 688 0068 1BA3     		adr	r3, .L22
 689 006a D3E90023 		ldrd	r2, [r3]
 690 006e FFF7FEFF 		bl	__aeabi_dcmpgt
 691 0072 0346     		mov	r3, r0
 692 0074 002B     		cmp	r3, #0
 693 0076 02D0     		beq	.L17
 694              	.L18:
 695 0078 4FF00103 		mov	r3, #1
 696 007c 1C46     		mov	r4, r3
 697              	.L17:
 698 007e E3B2     		uxtb	r3, r4
 699 0080 002B     		cmp	r3, #0
 700 0082 03D0     		beq	.L19
 523:.\Generated_Source\PSoC5/ADC_Voltage_Target.c ****     {
 524:.\Generated_Source\PSoC5/ADC_Voltage_Target.c ****         status = 1;
 701              		.loc 1 524 0
 702 0084 4FF00103 		mov	r3, #1
 703 0088 FB72     		strb	r3, [r7, #11]
 704 008a 1DE0     		b	.L20
 705              	.L19:
 525:.\Generated_Source\PSoC5/ADC_Voltage_Target.c ****     }
 526:.\Generated_Source\PSoC5/ADC_Voltage_Target.c ****     else
 527:.\Generated_Source\PSoC5/ADC_Voltage_Target.c ****     {
 528:.\Generated_Source\PSoC5/ADC_Voltage_Target.c ****         tmpReg = (uint16)(tmpValue * ADC_Voltage_Target_IDEAL_GAIN_CONST);
 706              		.loc 1 528 0
 707 008c F868     		ldr	r0, [r7, #12]	@ float
 708 008e 1449     		ldr	r1, .L22+8	@ float
 709 0090 FFF7FEFF 		bl	__aeabi_fmul
 710 0094 0346     		mov	r3, r0
 711 0096 1846     		mov	r0, r3
 712 0098 FFF7FEFF 		bl	__aeabi_f2uiz
 713 009c 0346     		mov	r3, r0
 714 009e 3B81     		strh	r3, [r7, #8]	@ movhi
 529:.\Generated_Source\PSoC5/ADC_Voltage_Target.c ****         ADC_Voltage_Target_DEC_GCOR_REG = (uint8)tmpReg;
 715              		.loc 1 529 0
 716 00a0 44F60C63 		movw	r3, #:lower16:1073761804
 717 00a4 C4F20003 		movt	r3, #:upper16:1073761804
 718 00a8 3A89     		ldrh	r2, [r7, #8]	@ movhi
 719 00aa D2B2     		uxtb	r2, r2
 720 00ac 1A70     		strb	r2, [r3, #0]
 530:.\Generated_Source\PSoC5/ADC_Voltage_Target.c ****         ADC_Voltage_Target_DEC_GCORH_REG = (uint8) (tmpReg >> 8);
ARM GAS  C:\DOCUME~1\ADMINI~1\LOCALS~1\Temp\ccfNfb5I.s 			page 23


 721              		.loc 1 530 0
 722 00ae 44F60D63 		movw	r3, #:lower16:1073761805
 723 00b2 C4F20003 		movt	r3, #:upper16:1073761805
 724 00b6 3A89     		ldrh	r2, [r7, #8]
 725 00b8 4FEA1222 		lsr	r2, r2, #8
 726 00bc 92B2     		uxth	r2, r2
 727 00be D2B2     		uxtb	r2, r2
 728 00c0 1A70     		strb	r2, [r3, #0]
 531:.\Generated_Source\PSoC5/ADC_Voltage_Target.c ****         status = 0;
 729              		.loc 1 531 0
 730 00c2 4FF00003 		mov	r3, #0
 731 00c6 FB72     		strb	r3, [r7, #11]
 732              	.L20:
 532:.\Generated_Source\PSoC5/ADC_Voltage_Target.c ****     }
 533:.\Generated_Source\PSoC5/ADC_Voltage_Target.c ****     
 534:.\Generated_Source\PSoC5/ADC_Voltage_Target.c ****     return status;
 733              		.loc 1 534 0
 734 00c8 FB7A     		ldrb	r3, [r7, #11]	@ zero_extendqisi2
 535:.\Generated_Source\PSoC5/ADC_Voltage_Target.c **** }
 735              		.loc 1 535 0
 736 00ca 1846     		mov	r0, r3
 737 00cc 07F11407 		add	r7, r7, #20
 738 00d0 BD46     		mov	sp, r7
 739 00d2 90BD     		pop	{r4, r7, pc}
 740              	.L23:
 741 00d4 AFF30080 		.align	3
 742              	.L22:
 743 00d8 8F537424 		.word	611603343
 744 00dc 97FFFF3F 		.word	1073741719
 745 00e0 00000047 		.word	1191182336
 746              		.cfi_endproc
 747              	.LFE6:
 748              		.size	ADC_Voltage_Target_SetGCOR, .-ADC_Voltage_Target_SetGCOR
 749 00e4 AFF30080 		.section	.text.ADC_Voltage_Target_ReadGCOR,"ax",%progbits
 750              		.align	2
 751              		.global	ADC_Voltage_Target_ReadGCOR
 752              		.thumb
 753              		.thumb_func
 754              		.type	ADC_Voltage_Target_ReadGCOR, %function
 755              	ADC_Voltage_Target_ReadGCOR:
 756              	.LFB7:
 536:.\Generated_Source\PSoC5/ADC_Voltage_Target.c **** 
 537:.\Generated_Source\PSoC5/ADC_Voltage_Target.c **** 
 538:.\Generated_Source\PSoC5/ADC_Voltage_Target.c **** /******************************************************************************
 539:.\Generated_Source\PSoC5/ADC_Voltage_Target.c **** * Function Name: ADC_Voltage_Target_ReadGCOR
 540:.\Generated_Source\PSoC5/ADC_Voltage_Target.c **** *******************************************************************************
 541:.\Generated_Source\PSoC5/ADC_Voltage_Target.c **** *
 542:.\Generated_Source\PSoC5/ADC_Voltage_Target.c **** * Summary:
 543:.\Generated_Source\PSoC5/ADC_Voltage_Target.c **** *  This API returns the current GCOR register value, normalized based on the 
 544:.\Generated_Source\PSoC5/ADC_Voltage_Target.c **** *  GVAL register settings.
 545:.\Generated_Source\PSoC5/ADC_Voltage_Target.c **** *
 546:.\Generated_Source\PSoC5/ADC_Voltage_Target.c **** * Parameters:  
 547:.\Generated_Source\PSoC5/ADC_Voltage_Target.c **** *  void
 548:.\Generated_Source\PSoC5/ADC_Voltage_Target.c **** *
 549:.\Generated_Source\PSoC5/ADC_Voltage_Target.c **** * Return: 
 550:.\Generated_Source\PSoC5/ADC_Voltage_Target.c **** *  uint16:  Normalized GCOR value.
 551:.\Generated_Source\PSoC5/ADC_Voltage_Target.c **** *
ARM GAS  C:\DOCUME~1\ADMINI~1\LOCALS~1\Temp\ccfNfb5I.s 			page 24


 552:.\Generated_Source\PSoC5/ADC_Voltage_Target.c **** * Side Effects:  If the GVAL register is set to a value greater than 0x0F, then
 553:.\Generated_Source\PSoC5/ADC_Voltage_Target.c ****                  it gives unexpected value.
 554:.\Generated_Source\PSoC5/ADC_Voltage_Target.c **** *
 555:.\Generated_Source\PSoC5/ADC_Voltage_Target.c **** *******************************************************************************/
 556:.\Generated_Source\PSoC5/ADC_Voltage_Target.c **** uint16 ADC_Voltage_Target_ReadGCOR(void) 
 557:.\Generated_Source\PSoC5/ADC_Voltage_Target.c **** {
 757              		.loc 1 557 0
 758              		.cfi_startproc
 759              		@ args = 0, pretend = 0, frame = 8
 760              		@ frame_needed = 1, uses_anonymous_args = 0
 761              		@ link register save eliminated.
 762 0000 80B4     		push	{r7}
 763              	.LCFI17:
 764              		.cfi_def_cfa_offset 4
 765 0002 83B0     		sub	sp, sp, #12
 766              	.LCFI18:
 767              		.cfi_def_cfa_offset 16
 768 0004 00AF     		add	r7, sp, #0
 769              		.cfi_offset 7, -4
 770              	.LCFI19:
 771              		.cfi_def_cfa_register 7
 558:.\Generated_Source\PSoC5/ADC_Voltage_Target.c ****     uint8 gValue;
 559:.\Generated_Source\PSoC5/ADC_Voltage_Target.c ****     uint16 gcorValue, gcorRegValue;
 560:.\Generated_Source\PSoC5/ADC_Voltage_Target.c ****     
 561:.\Generated_Source\PSoC5/ADC_Voltage_Target.c ****     gValue = ADC_Voltage_Target_DEC_GVAL_REG;
 772              		.loc 1 561 0
 773 0006 44F60E63 		movw	r3, #:lower16:1073761806
 774 000a C4F20003 		movt	r3, #:upper16:1073761806
 775 000e 1B78     		ldrb	r3, [r3, #0]
 776 0010 FB70     		strb	r3, [r7, #3]
 562:.\Generated_Source\PSoC5/ADC_Voltage_Target.c ****     gcorRegValue = CY_GET_REG16(ADC_Voltage_Target_DEC_GCOR_PTR);
 777              		.loc 1 562 0
 778 0012 44F60C63 		movw	r3, #:lower16:1073761804
 779 0016 C4F20003 		movt	r3, #:upper16:1073761804
 780 001a 1B88     		ldrh	r3, [r3, #0]	@ movhi
 781 001c FB80     		strh	r3, [r7, #6]	@ movhi
 563:.\Generated_Source\PSoC5/ADC_Voltage_Target.c ****     
 564:.\Generated_Source\PSoC5/ADC_Voltage_Target.c ****     switch (gValue)
 782              		.loc 1 564 0
 783 001e FB78     		ldrb	r3, [r7, #3]	@ zero_extendqisi2
 784 0020 A3F10903 		sub	r3, r3, #9
 785 0024 052B     		cmp	r3, #5
 786 0026 3FD8     		bhi	.L25
 787 0028 01A2     		adr	r2, .L32
 788 002a 52F823F0 		ldr	pc, [r2, r3, lsl #2]
 789 002e 00BF     		.align	2
 790              	.L32:
 791 0030 49000000 		.word	.L26+1
 792 0034 59000000 		.word	.L27+1
 793 0038 69000000 		.word	.L28+1
 794 003c 79000000 		.word	.L29+1
 795 0040 89000000 		.word	.L30+1
 796 0044 99000000 		.word	.L31+1
 797              	.L26:
 565:.\Generated_Source\PSoC5/ADC_Voltage_Target.c ****     {
 566:.\Generated_Source\PSoC5/ADC_Voltage_Target.c ****         case ADC_Voltage_Target_GVAL_RESOLUTIN_8:
 567:.\Generated_Source\PSoC5/ADC_Voltage_Target.c ****             gcorValue = gcorRegValue << (ADC_Voltage_Target_MAX_GVAL - gValue);
ARM GAS  C:\DOCUME~1\ADMINI~1\LOCALS~1\Temp\ccfNfb5I.s 			page 25


 798              		.loc 1 567 0
 799 0048 FA88     		ldrh	r2, [r7, #6]
 800 004a FB78     		ldrb	r3, [r7, #3]	@ zero_extendqisi2
 801 004c C3F10F03 		rsb	r3, r3, #15
 802 0050 02FA03F3 		lsl	r3, r2, r3
 803 0054 BB80     		strh	r3, [r7, #4]	@ movhi
 568:.\Generated_Source\PSoC5/ADC_Voltage_Target.c ****             break;
 804              		.loc 1 568 0
 805 0056 29E0     		b	.L33
 806              	.L27:
 569:.\Generated_Source\PSoC5/ADC_Voltage_Target.c ****         
 570:.\Generated_Source\PSoC5/ADC_Voltage_Target.c ****         case ADC_Voltage_Target_GVAL_RESOLUTIN_9:
 571:.\Generated_Source\PSoC5/ADC_Voltage_Target.c ****             gcorValue = gcorRegValue << (ADC_Voltage_Target_MAX_GVAL - gValue);
 807              		.loc 1 571 0
 808 0058 FA88     		ldrh	r2, [r7, #6]
 809 005a FB78     		ldrb	r3, [r7, #3]	@ zero_extendqisi2
 810 005c C3F10F03 		rsb	r3, r3, #15
 811 0060 02FA03F3 		lsl	r3, r2, r3
 812 0064 BB80     		strh	r3, [r7, #4]	@ movhi
 572:.\Generated_Source\PSoC5/ADC_Voltage_Target.c ****             break;
 813              		.loc 1 572 0
 814 0066 21E0     		b	.L33
 815              	.L28:
 573:.\Generated_Source\PSoC5/ADC_Voltage_Target.c ****             
 574:.\Generated_Source\PSoC5/ADC_Voltage_Target.c ****         case ADC_Voltage_Target_GVAL_RESOLUTIN_10:
 575:.\Generated_Source\PSoC5/ADC_Voltage_Target.c ****             gcorValue = gcorRegValue << (ADC_Voltage_Target_MAX_GVAL - gValue);
 816              		.loc 1 575 0
 817 0068 FA88     		ldrh	r2, [r7, #6]
 818 006a FB78     		ldrb	r3, [r7, #3]	@ zero_extendqisi2
 819 006c C3F10F03 		rsb	r3, r3, #15
 820 0070 02FA03F3 		lsl	r3, r2, r3
 821 0074 BB80     		strh	r3, [r7, #4]	@ movhi
 576:.\Generated_Source\PSoC5/ADC_Voltage_Target.c ****             break;
 822              		.loc 1 576 0
 823 0076 19E0     		b	.L33
 824              	.L29:
 577:.\Generated_Source\PSoC5/ADC_Voltage_Target.c ****             
 578:.\Generated_Source\PSoC5/ADC_Voltage_Target.c ****         case ADC_Voltage_Target_GVAL_RESOLUTIN_11:
 579:.\Generated_Source\PSoC5/ADC_Voltage_Target.c ****             gcorValue = gcorRegValue << (ADC_Voltage_Target_MAX_GVAL - gValue);
 825              		.loc 1 579 0
 826 0078 FA88     		ldrh	r2, [r7, #6]
 827 007a FB78     		ldrb	r3, [r7, #3]	@ zero_extendqisi2
 828 007c C3F10F03 		rsb	r3, r3, #15
 829 0080 02FA03F3 		lsl	r3, r2, r3
 830 0084 BB80     		strh	r3, [r7, #4]	@ movhi
 580:.\Generated_Source\PSoC5/ADC_Voltage_Target.c ****             break;
 831              		.loc 1 580 0
 832 0086 11E0     		b	.L33
 833              	.L30:
 581:.\Generated_Source\PSoC5/ADC_Voltage_Target.c ****             
 582:.\Generated_Source\PSoC5/ADC_Voltage_Target.c ****         case ADC_Voltage_Target_GVAL_RESOLUTIN_12:
 583:.\Generated_Source\PSoC5/ADC_Voltage_Target.c ****             gcorValue = gcorRegValue << (ADC_Voltage_Target_MAX_GVAL - gValue);
 834              		.loc 1 583 0
 835 0088 FA88     		ldrh	r2, [r7, #6]
 836 008a FB78     		ldrb	r3, [r7, #3]	@ zero_extendqisi2
 837 008c C3F10F03 		rsb	r3, r3, #15
 838 0090 02FA03F3 		lsl	r3, r2, r3
ARM GAS  C:\DOCUME~1\ADMINI~1\LOCALS~1\Temp\ccfNfb5I.s 			page 26


 839 0094 BB80     		strh	r3, [r7, #4]	@ movhi
 584:.\Generated_Source\PSoC5/ADC_Voltage_Target.c ****             break;
 840              		.loc 1 584 0
 841 0096 09E0     		b	.L33
 842              	.L31:
 585:.\Generated_Source\PSoC5/ADC_Voltage_Target.c ****             
 586:.\Generated_Source\PSoC5/ADC_Voltage_Target.c ****         case ADC_Voltage_Target_GVAL_RESOLUTIN_13:
 587:.\Generated_Source\PSoC5/ADC_Voltage_Target.c ****             gcorValue = gcorRegValue << (ADC_Voltage_Target_MAX_GVAL - gValue);
 843              		.loc 1 587 0
 844 0098 FA88     		ldrh	r2, [r7, #6]
 845 009a FB78     		ldrb	r3, [r7, #3]	@ zero_extendqisi2
 846 009c C3F10F03 		rsb	r3, r3, #15
 847 00a0 02FA03F3 		lsl	r3, r2, r3
 848 00a4 BB80     		strh	r3, [r7, #4]	@ movhi
 588:.\Generated_Source\PSoC5/ADC_Voltage_Target.c ****             break;
 849              		.loc 1 588 0
 850 00a6 01E0     		b	.L33
 851              	.L25:
 589:.\Generated_Source\PSoC5/ADC_Voltage_Target.c ****             
 590:.\Generated_Source\PSoC5/ADC_Voltage_Target.c ****         default:
 591:.\Generated_Source\PSoC5/ADC_Voltage_Target.c ****             gcorValue = gcorRegValue;
 852              		.loc 1 591 0
 853 00a8 FB88     		ldrh	r3, [r7, #6]	@ movhi
 854 00aa BB80     		strh	r3, [r7, #4]	@ movhi
 855              	.L33:
 592:.\Generated_Source\PSoC5/ADC_Voltage_Target.c ****             break;
 593:.\Generated_Source\PSoC5/ADC_Voltage_Target.c ****     }
 594:.\Generated_Source\PSoC5/ADC_Voltage_Target.c ****         
 595:.\Generated_Source\PSoC5/ADC_Voltage_Target.c ****     return gcorValue;
 856              		.loc 1 595 0
 857 00ac BB88     		ldrh	r3, [r7, #4]
 596:.\Generated_Source\PSoC5/ADC_Voltage_Target.c **** }
 858              		.loc 1 596 0
 859 00ae 1846     		mov	r0, r3
 860 00b0 07F10C07 		add	r7, r7, #12
 861 00b4 BD46     		mov	sp, r7
 862 00b6 80BC     		pop	{r7}
 863 00b8 7047     		bx	lr
 864              		.cfi_endproc
 865              	.LFE7:
 866              		.size	ADC_Voltage_Target_ReadGCOR, .-ADC_Voltage_Target_ReadGCOR
 867 00ba 00BF     		.section	.text.ADC_Voltage_Target_SetBufferChop,"ax",%progbits
 868              		.align	2
 869              		.global	ADC_Voltage_Target_SetBufferChop
 870              		.thumb
 871              		.thumb_func
 872              		.type	ADC_Voltage_Target_SetBufferChop, %function
 873              	ADC_Voltage_Target_SetBufferChop:
 874              	.LFB8:
 597:.\Generated_Source\PSoC5/ADC_Voltage_Target.c **** 
 598:.\Generated_Source\PSoC5/ADC_Voltage_Target.c **** 
 599:.\Generated_Source\PSoC5/ADC_Voltage_Target.c **** /*******************************************************************************
 600:.\Generated_Source\PSoC5/ADC_Voltage_Target.c **** * Function Name: ADC_Voltage_Target_SetBufferChop
 601:.\Generated_Source\PSoC5/ADC_Voltage_Target.c **** ********************************************************************************
 602:.\Generated_Source\PSoC5/ADC_Voltage_Target.c **** *
 603:.\Generated_Source\PSoC5/ADC_Voltage_Target.c **** * Summary:
 604:.\Generated_Source\PSoC5/ADC_Voltage_Target.c **** *  Sets the Delta Sigma Modulator Buffer chopper mode.
ARM GAS  C:\DOCUME~1\ADMINI~1\LOCALS~1\Temp\ccfNfb5I.s 			page 27


 605:.\Generated_Source\PSoC5/ADC_Voltage_Target.c **** *
 606:.\Generated_Source\PSoC5/ADC_Voltage_Target.c **** * Parameters:  
 607:.\Generated_Source\PSoC5/ADC_Voltage_Target.c **** *  chopen:  If non-zero set the chopper mode.
 608:.\Generated_Source\PSoC5/ADC_Voltage_Target.c **** *  chopFreq:  Chop frequency value.
 609:.\Generated_Source\PSoC5/ADC_Voltage_Target.c **** *
 610:.\Generated_Source\PSoC5/ADC_Voltage_Target.c **** * Return: 
 611:.\Generated_Source\PSoC5/ADC_Voltage_Target.c **** *  void
 612:.\Generated_Source\PSoC5/ADC_Voltage_Target.c **** *
 613:.\Generated_Source\PSoC5/ADC_Voltage_Target.c **** *******************************************************************************/
 614:.\Generated_Source\PSoC5/ADC_Voltage_Target.c **** void ADC_Voltage_Target_SetBufferChop(uint8 chopen, uint8 chopFreq) 
 615:.\Generated_Source\PSoC5/ADC_Voltage_Target.c **** {
 875              		.loc 1 615 0
 876              		.cfi_startproc
 877              		@ args = 0, pretend = 0, frame = 8
 878              		@ frame_needed = 1, uses_anonymous_args = 0
 879              		@ link register save eliminated.
 880 0000 80B4     		push	{r7}
 881              	.LCFI20:
 882              		.cfi_def_cfa_offset 4
 883 0002 83B0     		sub	sp, sp, #12
 884              	.LCFI21:
 885              		.cfi_def_cfa_offset 16
 886 0004 00AF     		add	r7, sp, #0
 887              		.cfi_offset 7, -4
 888              	.LCFI22:
 889              		.cfi_def_cfa_register 7
 890 0006 0246     		mov	r2, r0
 891 0008 0B46     		mov	r3, r1
 892 000a FA71     		strb	r2, [r7, #7]
 893 000c BB71     		strb	r3, [r7, #6]
 616:.\Generated_Source\PSoC5/ADC_Voltage_Target.c ****     if(chopen != 0u)
 894              		.loc 1 616 0
 895 000e FB79     		ldrb	r3, [r7, #7]	@ zero_extendqisi2
 896 0010 002B     		cmp	r3, #0
 897 0012 0BD0     		beq	.L36
 617:.\Generated_Source\PSoC5/ADC_Voltage_Target.c ****     {
 618:.\Generated_Source\PSoC5/ADC_Voltage_Target.c ****         ADC_Voltage_Target_DSM_BUF2_REG = (ADC_Voltage_Target_DSM_BUF_FCHOP_MASK & chopFreq) | \
 898              		.loc 1 618 0
 899 0014 45F69C03 		movw	r3, #:lower16:1073764508
 900 0018 C4F20003 		movt	r3, #:upper16:1073764508
 901 001c BA79     		ldrb	r2, [r7, #6]	@ zero_extendqisi2
 902 001e 02F00702 		and	r2, r2, #7
 903 0022 42F00802 		orr	r2, r2, #8
 904 0026 D2B2     		uxtb	r2, r2
 905 0028 1A70     		strb	r2, [r3, #0]
 906 002a 06E0     		b	.L38
 907              	.L36:
 619:.\Generated_Source\PSoC5/ADC_Voltage_Target.c ****                                          ADC_Voltage_Target_DSM_BUF_CHOP_EN;
 620:.\Generated_Source\PSoC5/ADC_Voltage_Target.c ****     }
 621:.\Generated_Source\PSoC5/ADC_Voltage_Target.c ****     else
 622:.\Generated_Source\PSoC5/ADC_Voltage_Target.c ****     {
 623:.\Generated_Source\PSoC5/ADC_Voltage_Target.c ****         ADC_Voltage_Target_DSM_BUF2_REG = 0x00u;
 908              		.loc 1 623 0
 909 002c 45F69C03 		movw	r3, #:lower16:1073764508
 910 0030 C4F20003 		movt	r3, #:upper16:1073764508
 911 0034 4FF00002 		mov	r2, #0
 912 0038 1A70     		strb	r2, [r3, #0]
ARM GAS  C:\DOCUME~1\ADMINI~1\LOCALS~1\Temp\ccfNfb5I.s 			page 28


 913              	.L38:
 624:.\Generated_Source\PSoC5/ADC_Voltage_Target.c ****     }
 625:.\Generated_Source\PSoC5/ADC_Voltage_Target.c **** }
 914              		.loc 1 625 0
 915 003a 07F10C07 		add	r7, r7, #12
 916 003e BD46     		mov	sp, r7
 917 0040 80BC     		pop	{r7}
 918 0042 7047     		bx	lr
 919              		.cfi_endproc
 920              	.LFE8:
 921              		.size	ADC_Voltage_Target_SetBufferChop, .-ADC_Voltage_Target_SetBufferChop
 922              		.section	.text.ADC_Voltage_Target_StartConvert,"ax",%progbits
 923              		.align	2
 924              		.global	ADC_Voltage_Target_StartConvert
 925              		.thumb
 926              		.thumb_func
 927              		.type	ADC_Voltage_Target_StartConvert, %function
 928              	ADC_Voltage_Target_StartConvert:
 929              	.LFB9:
 626:.\Generated_Source\PSoC5/ADC_Voltage_Target.c **** 
 627:.\Generated_Source\PSoC5/ADC_Voltage_Target.c **** 
 628:.\Generated_Source\PSoC5/ADC_Voltage_Target.c **** /*******************************************************************************
 629:.\Generated_Source\PSoC5/ADC_Voltage_Target.c **** * Function Name: ADC_Voltage_Target_StartConvert
 630:.\Generated_Source\PSoC5/ADC_Voltage_Target.c **** ********************************************************************************
 631:.\Generated_Source\PSoC5/ADC_Voltage_Target.c **** *
 632:.\Generated_Source\PSoC5/ADC_Voltage_Target.c **** * Summary:
 633:.\Generated_Source\PSoC5/ADC_Voltage_Target.c **** *  Starts ADC conversion using the given mode.
 634:.\Generated_Source\PSoC5/ADC_Voltage_Target.c **** *
 635:.\Generated_Source\PSoC5/ADC_Voltage_Target.c **** * Parameters:  
 636:.\Generated_Source\PSoC5/ADC_Voltage_Target.c **** *  void
 637:.\Generated_Source\PSoC5/ADC_Voltage_Target.c **** *
 638:.\Generated_Source\PSoC5/ADC_Voltage_Target.c **** * Return: 
 639:.\Generated_Source\PSoC5/ADC_Voltage_Target.c **** *  void 
 640:.\Generated_Source\PSoC5/ADC_Voltage_Target.c **** *
 641:.\Generated_Source\PSoC5/ADC_Voltage_Target.c **** *******************************************************************************/
 642:.\Generated_Source\PSoC5/ADC_Voltage_Target.c **** void ADC_Voltage_Target_StartConvert(void) 
 643:.\Generated_Source\PSoC5/ADC_Voltage_Target.c **** {
 930              		.loc 1 643 0
 931              		.cfi_startproc
 932              		@ args = 0, pretend = 0, frame = 0
 933              		@ frame_needed = 1, uses_anonymous_args = 0
 934              		@ link register save eliminated.
 935 0000 80B4     		push	{r7}
 936              	.LCFI23:
 937              		.cfi_def_cfa_offset 4
 938 0002 00AF     		add	r7, sp, #0
 939              		.cfi_offset 7, -4
 940              	.LCFI24:
 941              		.cfi_def_cfa_register 7
 644:.\Generated_Source\PSoC5/ADC_Voltage_Target.c ****     /* Start the conversion */
 645:.\Generated_Source\PSoC5/ADC_Voltage_Target.c ****     ADC_Voltage_Target_DEC_CR_REG |= ADC_Voltage_Target_DEC_START_CONV;  
 942              		.loc 1 645 0
 943 0004 44F60063 		movw	r3, #:lower16:1073761792
 944 0008 C4F20003 		movt	r3, #:upper16:1073761792
 945 000c 44F60062 		movw	r2, #:lower16:1073761792
 946 0010 C4F20002 		movt	r2, #:upper16:1073761792
 947 0014 1278     		ldrb	r2, [r2, #0]
ARM GAS  C:\DOCUME~1\ADMINI~1\LOCALS~1\Temp\ccfNfb5I.s 			page 29


 948 0016 D2B2     		uxtb	r2, r2
 949 0018 42F00102 		orr	r2, r2, #1
 950 001c D2B2     		uxtb	r2, r2
 951 001e 1A70     		strb	r2, [r3, #0]
 646:.\Generated_Source\PSoC5/ADC_Voltage_Target.c **** }
 952              		.loc 1 646 0
 953 0020 BD46     		mov	sp, r7
 954 0022 80BC     		pop	{r7}
 955 0024 7047     		bx	lr
 956              		.cfi_endproc
 957              	.LFE9:
 958              		.size	ADC_Voltage_Target_StartConvert, .-ADC_Voltage_Target_StartConvert
 959 0026 00BF     		.section	.text.ADC_Voltage_Target_StopConvert,"ax",%progbits
 960              		.align	2
 961              		.global	ADC_Voltage_Target_StopConvert
 962              		.thumb
 963              		.thumb_func
 964              		.type	ADC_Voltage_Target_StopConvert, %function
 965              	ADC_Voltage_Target_StopConvert:
 966              	.LFB10:
 647:.\Generated_Source\PSoC5/ADC_Voltage_Target.c **** 
 648:.\Generated_Source\PSoC5/ADC_Voltage_Target.c **** 
 649:.\Generated_Source\PSoC5/ADC_Voltage_Target.c **** /*******************************************************************************
 650:.\Generated_Source\PSoC5/ADC_Voltage_Target.c **** * Function Name: ADC_Voltage_Target_StopConvert
 651:.\Generated_Source\PSoC5/ADC_Voltage_Target.c **** ********************************************************************************
 652:.\Generated_Source\PSoC5/ADC_Voltage_Target.c **** *
 653:.\Generated_Source\PSoC5/ADC_Voltage_Target.c **** * Summary:
 654:.\Generated_Source\PSoC5/ADC_Voltage_Target.c **** *  Starts ADC conversion using the given mode.
 655:.\Generated_Source\PSoC5/ADC_Voltage_Target.c **** *
 656:.\Generated_Source\PSoC5/ADC_Voltage_Target.c **** * Parameters:  
 657:.\Generated_Source\PSoC5/ADC_Voltage_Target.c **** *  void
 658:.\Generated_Source\PSoC5/ADC_Voltage_Target.c **** *
 659:.\Generated_Source\PSoC5/ADC_Voltage_Target.c **** * Return: 
 660:.\Generated_Source\PSoC5/ADC_Voltage_Target.c **** *  void
 661:.\Generated_Source\PSoC5/ADC_Voltage_Target.c **** *
 662:.\Generated_Source\PSoC5/ADC_Voltage_Target.c **** * Global variables:
 663:.\Generated_Source\PSoC5/ADC_Voltage_Target.c **** *  ADC_Voltage_Target_convDone:  Modified when conversion is complete for single
 664:.\Generated_Source\PSoC5/ADC_Voltage_Target.c **** *   sample mode with resolution is above 16.
 665:.\Generated_Source\PSoC5/ADC_Voltage_Target.c **** *
 666:.\Generated_Source\PSoC5/ADC_Voltage_Target.c **** *******************************************************************************/
 667:.\Generated_Source\PSoC5/ADC_Voltage_Target.c **** void ADC_Voltage_Target_StopConvert(void) 
 668:.\Generated_Source\PSoC5/ADC_Voltage_Target.c **** {
 967              		.loc 1 668 0
 968              		.cfi_startproc
 969              		@ args = 0, pretend = 0, frame = 0
 970              		@ frame_needed = 1, uses_anonymous_args = 0
 971              		@ link register save eliminated.
 972 0000 80B4     		push	{r7}
 973              	.LCFI25:
 974              		.cfi_def_cfa_offset 4
 975 0002 00AF     		add	r7, sp, #0
 976              		.cfi_offset 7, -4
 977              	.LCFI26:
 978              		.cfi_def_cfa_register 7
 669:.\Generated_Source\PSoC5/ADC_Voltage_Target.c ****     /* Stop all conversions */
 670:.\Generated_Source\PSoC5/ADC_Voltage_Target.c ****     ADC_Voltage_Target_DEC_CR_REG &= ~ADC_Voltage_Target_DEC_START_CONV; 
 979              		.loc 1 670 0
ARM GAS  C:\DOCUME~1\ADMINI~1\LOCALS~1\Temp\ccfNfb5I.s 			page 30


 980 0004 44F60063 		movw	r3, #:lower16:1073761792
 981 0008 C4F20003 		movt	r3, #:upper16:1073761792
 982 000c 44F60062 		movw	r2, #:lower16:1073761792
 983 0010 C4F20002 		movt	r2, #:upper16:1073761792
 984 0014 1278     		ldrb	r2, [r2, #0]
 985 0016 D2B2     		uxtb	r2, r2
 986 0018 02F0FE02 		and	r2, r2, #254
 987 001c 1A70     		strb	r2, [r3, #0]
 671:.\Generated_Source\PSoC5/ADC_Voltage_Target.c ****     
 672:.\Generated_Source\PSoC5/ADC_Voltage_Target.c ****     /* Software flag for checking conversion complete or not. Will be used when
 673:.\Generated_Source\PSoC5/ADC_Voltage_Target.c ****        resolution is above 16 bits and conversion mode is single sample */
 674:.\Generated_Source\PSoC5/ADC_Voltage_Target.c ****     ADC_Voltage_Target_convDone = 1u;
 988              		.loc 1 674 0
 989 001e 40F20003 		movw	r3, #:lower16:ADC_Voltage_Target_convDone
 990 0022 C0F20003 		movt	r3, #:upper16:ADC_Voltage_Target_convDone
 991 0026 4FF00102 		mov	r2, #1
 992 002a 1A70     		strb	r2, [r3, #0]
 675:.\Generated_Source\PSoC5/ADC_Voltage_Target.c **** }
 993              		.loc 1 675 0
 994 002c BD46     		mov	sp, r7
 995 002e 80BC     		pop	{r7}
 996 0030 7047     		bx	lr
 997              		.cfi_endproc
 998              	.LFE10:
 999              		.size	ADC_Voltage_Target_StopConvert, .-ADC_Voltage_Target_StopConvert
 1000 0032 00BF     		.section	.text.ADC_Voltage_Target_IsEndConversion,"ax",%progbits
 1001              		.align	2
 1002              		.global	ADC_Voltage_Target_IsEndConversion
 1003              		.thumb
 1004              		.thumb_func
 1005              		.type	ADC_Voltage_Target_IsEndConversion, %function
 1006              	ADC_Voltage_Target_IsEndConversion:
 1007              	.LFB11:
 676:.\Generated_Source\PSoC5/ADC_Voltage_Target.c **** 
 677:.\Generated_Source\PSoC5/ADC_Voltage_Target.c **** 
 678:.\Generated_Source\PSoC5/ADC_Voltage_Target.c **** /*******************************************************************************
 679:.\Generated_Source\PSoC5/ADC_Voltage_Target.c **** * Function Name: ADC_Voltage_Target_IsEndConversion
 680:.\Generated_Source\PSoC5/ADC_Voltage_Target.c **** ********************************************************************************
 681:.\Generated_Source\PSoC5/ADC_Voltage_Target.c **** *
 682:.\Generated_Source\PSoC5/ADC_Voltage_Target.c **** * Summary:
 683:.\Generated_Source\PSoC5/ADC_Voltage_Target.c **** *  Queries the ADC to see if conversion is complete
 684:.\Generated_Source\PSoC5/ADC_Voltage_Target.c **** *
 685:.\Generated_Source\PSoC5/ADC_Voltage_Target.c **** * Parameters:  
 686:.\Generated_Source\PSoC5/ADC_Voltage_Target.c **** *  wMode:  Wait mode, 0 if return with answer immediately.
 687:.\Generated_Source\PSoC5/ADC_Voltage_Target.c **** *                     1 if wait until conversion is complete, then return.
 688:.\Generated_Source\PSoC5/ADC_Voltage_Target.c **** *
 689:.\Generated_Source\PSoC5/ADC_Voltage_Target.c **** * Return: 
 690:.\Generated_Source\PSoC5/ADC_Voltage_Target.c **** *  uint8 status:  0 =>  Conversion not complete.
 691:.\Generated_Source\PSoC5/ADC_Voltage_Target.c **** *                 1 =>  Conversion complete.
 692:.\Generated_Source\PSoC5/ADC_Voltage_Target.c **** *
 693:.\Generated_Source\PSoC5/ADC_Voltage_Target.c **** * Global variables:
 694:.\Generated_Source\PSoC5/ADC_Voltage_Target.c **** *  ADC_Voltage_Target_convDone:  Used to check whether conversion is complete
 695:.\Generated_Source\PSoC5/ADC_Voltage_Target.c **** *  or not for single sample mode with resolution is above 16
 696:.\Generated_Source\PSoC5/ADC_Voltage_Target.c **** *
 697:.\Generated_Source\PSoC5/ADC_Voltage_Target.c **** *******************************************************************************/
 698:.\Generated_Source\PSoC5/ADC_Voltage_Target.c **** uint8 ADC_Voltage_Target_IsEndConversion(uint8 wMode) 
 699:.\Generated_Source\PSoC5/ADC_Voltage_Target.c **** {
ARM GAS  C:\DOCUME~1\ADMINI~1\LOCALS~1\Temp\ccfNfb5I.s 			page 31


 1008              		.loc 1 699 0
 1009              		.cfi_startproc
 1010              		@ args = 0, pretend = 0, frame = 16
 1011              		@ frame_needed = 1, uses_anonymous_args = 0
 1012              		@ link register save eliminated.
 1013 0000 80B4     		push	{r7}
 1014              	.LCFI27:
 1015              		.cfi_def_cfa_offset 4
 1016 0002 85B0     		sub	sp, sp, #20
 1017              	.LCFI28:
 1018              		.cfi_def_cfa_offset 24
 1019 0004 00AF     		add	r7, sp, #0
 1020              		.cfi_offset 7, -4
 1021              	.LCFI29:
 1022              		.cfi_def_cfa_register 7
 1023 0006 0346     		mov	r3, r0
 1024 0008 FB71     		strb	r3, [r7, #7]
 700:.\Generated_Source\PSoC5/ADC_Voltage_Target.c ****     uint8 status;
 701:.\Generated_Source\PSoC5/ADC_Voltage_Target.c ****         
 702:.\Generated_Source\PSoC5/ADC_Voltage_Target.c ****     /* Check for stop convert if conversion mode is Single Sample with 
 703:.\Generated_Source\PSoC5/ADC_Voltage_Target.c ****        resolution above 16 bit */
 704:.\Generated_Source\PSoC5/ADC_Voltage_Target.c ****     if(ADC_Voltage_Target_stopConversion == 1u)
 1025              		.loc 1 704 0
 1026 000a 40F20003 		movw	r3, #:lower16:ADC_Voltage_Target_stopConversion
 1027 000e C0F20003 		movt	r3, #:upper16:ADC_Voltage_Target_stopConversion
 1028 0012 1B78     		ldrb	r3, [r3, #0]
 1029 0014 DBB2     		uxtb	r3, r3
 1030 0016 012B     		cmp	r3, #1
 1031 0018 0CD1     		bne	.L44
 1032              	.L46:
 705:.\Generated_Source\PSoC5/ADC_Voltage_Target.c ****     {
 706:.\Generated_Source\PSoC5/ADC_Voltage_Target.c ****         do
 707:.\Generated_Source\PSoC5/ADC_Voltage_Target.c ****         {
 708:.\Generated_Source\PSoC5/ADC_Voltage_Target.c ****             status = ADC_Voltage_Target_convDone;
 1033              		.loc 1 708 0
 1034 001a 40F20003 		movw	r3, #:lower16:ADC_Voltage_Target_convDone
 1035 001e C0F20003 		movt	r3, #:upper16:ADC_Voltage_Target_convDone
 1036 0022 1B78     		ldrb	r3, [r3, #0]
 1037 0024 FB73     		strb	r3, [r7, #15]
 709:.\Generated_Source\PSoC5/ADC_Voltage_Target.c ****         } while((status != ADC_Voltage_Target_DEC_CONV_DONE) && (wMode == ADC_Voltage_Target_WAIT_F
 1038              		.loc 1 709 0
 1039 0026 FB7B     		ldrb	r3, [r7, #15]	@ zero_extendqisi2
 1040 0028 012B     		cmp	r3, #1
 1041 002a 12D0     		beq	.L47
 1042 002c FB79     		ldrb	r3, [r7, #7]	@ zero_extendqisi2
 1043 002e 002B     		cmp	r3, #0
 1044 0030 F3D0     		beq	.L46
 1045 0032 0EE0     		b	.L47
 1046              	.L44:
 710:.\Generated_Source\PSoC5/ADC_Voltage_Target.c ****     }
 711:.\Generated_Source\PSoC5/ADC_Voltage_Target.c ****     else
 712:.\Generated_Source\PSoC5/ADC_Voltage_Target.c ****     {
 713:.\Generated_Source\PSoC5/ADC_Voltage_Target.c ****         do 
 714:.\Generated_Source\PSoC5/ADC_Voltage_Target.c ****         {
 715:.\Generated_Source\PSoC5/ADC_Voltage_Target.c ****             status = ADC_Voltage_Target_DEC_SR_REG & ADC_Voltage_Target_DEC_CONV_DONE;
 1047              		.loc 1 715 0
 1048 0034 44F60163 		movw	r3, #:lower16:1073761793
ARM GAS  C:\DOCUME~1\ADMINI~1\LOCALS~1\Temp\ccfNfb5I.s 			page 32


 1049 0038 C4F20003 		movt	r3, #:upper16:1073761793
 1050 003c 1B78     		ldrb	r3, [r3, #0]
 1051 003e DBB2     		uxtb	r3, r3
 1052 0040 03F00103 		and	r3, r3, #1
 1053 0044 FB73     		strb	r3, [r7, #15]
 716:.\Generated_Source\PSoC5/ADC_Voltage_Target.c ****         } while((status != ADC_Voltage_Target_DEC_CONV_DONE) && (wMode == ADC_Voltage_Target_WAIT_F
 1054              		.loc 1 716 0
 1055 0046 FB7B     		ldrb	r3, [r7, #15]	@ zero_extendqisi2
 1056 0048 012B     		cmp	r3, #1
 1057 004a 02D0     		beq	.L47
 1058 004c FB79     		ldrb	r3, [r7, #7]	@ zero_extendqisi2
 1059 004e 002B     		cmp	r3, #0
 1060 0050 F0D0     		beq	.L44
 1061              	.L47:
 717:.\Generated_Source\PSoC5/ADC_Voltage_Target.c ****     }
 718:.\Generated_Source\PSoC5/ADC_Voltage_Target.c ****     return(status);
 1062              		.loc 1 718 0
 1063 0052 FB7B     		ldrb	r3, [r7, #15]	@ zero_extendqisi2
 719:.\Generated_Source\PSoC5/ADC_Voltage_Target.c **** }
 1064              		.loc 1 719 0
 1065 0054 1846     		mov	r0, r3
 1066 0056 07F11407 		add	r7, r7, #20
 1067 005a BD46     		mov	sp, r7
 1068 005c 80BC     		pop	{r7}
 1069 005e 7047     		bx	lr
 1070              		.cfi_endproc
 1071              	.LFE11:
 1072              		.size	ADC_Voltage_Target_IsEndConversion, .-ADC_Voltage_Target_IsEndConversion
 1073              		.section	.text.ADC_Voltage_Target_GetResult8,"ax",%progbits
 1074              		.align	2
 1075              		.global	ADC_Voltage_Target_GetResult8
 1076              		.thumb
 1077              		.thumb_func
 1078              		.type	ADC_Voltage_Target_GetResult8, %function
 1079              	ADC_Voltage_Target_GetResult8:
 1080              	.LFB12:
 720:.\Generated_Source\PSoC5/ADC_Voltage_Target.c **** 
 721:.\Generated_Source\PSoC5/ADC_Voltage_Target.c **** 
 722:.\Generated_Source\PSoC5/ADC_Voltage_Target.c **** /*******************************************************************************
 723:.\Generated_Source\PSoC5/ADC_Voltage_Target.c **** * Function Name: ADC_Voltage_Target_GetResult8
 724:.\Generated_Source\PSoC5/ADC_Voltage_Target.c **** ********************************************************************************
 725:.\Generated_Source\PSoC5/ADC_Voltage_Target.c **** *
 726:.\Generated_Source\PSoC5/ADC_Voltage_Target.c **** * Summary:
 727:.\Generated_Source\PSoC5/ADC_Voltage_Target.c **** *  Returns an 8-bit result or the LSB of the last conversion.
 728:.\Generated_Source\PSoC5/ADC_Voltage_Target.c **** *
 729:.\Generated_Source\PSoC5/ADC_Voltage_Target.c **** * Parameters:  
 730:.\Generated_Source\PSoC5/ADC_Voltage_Target.c **** *  void
 731:.\Generated_Source\PSoC5/ADC_Voltage_Target.c **** *
 732:.\Generated_Source\PSoC5/ADC_Voltage_Target.c **** * Return: 
 733:.\Generated_Source\PSoC5/ADC_Voltage_Target.c **** *  int8:  ADC result.
 734:.\Generated_Source\PSoC5/ADC_Voltage_Target.c **** *
 735:.\Generated_Source\PSoC5/ADC_Voltage_Target.c **** *******************************************************************************/
 736:.\Generated_Source\PSoC5/ADC_Voltage_Target.c **** int8 ADC_Voltage_Target_GetResult8( void ) 
 737:.\Generated_Source\PSoC5/ADC_Voltage_Target.c **** {
 1081              		.loc 1 737 0
 1082              		.cfi_startproc
 1083              		@ args = 0, pretend = 0, frame = 0
ARM GAS  C:\DOCUME~1\ADMINI~1\LOCALS~1\Temp\ccfNfb5I.s 			page 33


 1084              		@ frame_needed = 1, uses_anonymous_args = 0
 1085              		@ link register save eliminated.
 1086 0000 80B4     		push	{r7}
 1087              	.LCFI30:
 1088              		.cfi_def_cfa_offset 4
 1089 0002 00AF     		add	r7, sp, #0
 1090              		.cfi_offset 7, -4
 1091              	.LCFI31:
 1092              		.cfi_def_cfa_register 7
 738:.\Generated_Source\PSoC5/ADC_Voltage_Target.c ****      return( ADC_Voltage_Target_DEC_SAMP_REG );
 1093              		.loc 1 738 0
 1094 0004 44F61063 		movw	r3, #:lower16:1073761808
 1095 0008 C4F20003 		movt	r3, #:upper16:1073761808
 1096 000c 1B78     		ldrb	r3, [r3, #0]
 1097 000e DBB2     		uxtb	r3, r3
 1098 0010 5BB2     		sxtb	r3, r3
 739:.\Generated_Source\PSoC5/ADC_Voltage_Target.c **** }
 1099              		.loc 1 739 0
 1100 0012 1846     		mov	r0, r3
 1101 0014 BD46     		mov	sp, r7
 1102 0016 80BC     		pop	{r7}
 1103 0018 7047     		bx	lr
 1104              		.cfi_endproc
 1105              	.LFE12:
 1106              		.size	ADC_Voltage_Target_GetResult8, .-ADC_Voltage_Target_GetResult8
 1107 001a 00BF     		.section	.text.ADC_Voltage_Target_GetResult16,"ax",%progbits
 1108              		.align	2
 1109              		.global	ADC_Voltage_Target_GetResult16
 1110              		.thumb
 1111              		.thumb_func
 1112              		.type	ADC_Voltage_Target_GetResult16, %function
 1113              	ADC_Voltage_Target_GetResult16:
 1114              	.LFB13:
 740:.\Generated_Source\PSoC5/ADC_Voltage_Target.c **** 
 741:.\Generated_Source\PSoC5/ADC_Voltage_Target.c **** 
 742:.\Generated_Source\PSoC5/ADC_Voltage_Target.c **** /*******************************************************************************
 743:.\Generated_Source\PSoC5/ADC_Voltage_Target.c **** * Function Name: ADC_Voltage_Target_GetResult16
 744:.\Generated_Source\PSoC5/ADC_Voltage_Target.c **** ********************************************************************************
 745:.\Generated_Source\PSoC5/ADC_Voltage_Target.c **** *
 746:.\Generated_Source\PSoC5/ADC_Voltage_Target.c **** * Summary:
 747:.\Generated_Source\PSoC5/ADC_Voltage_Target.c **** *  Returns a 16-bit result from the last ADC conversion.
 748:.\Generated_Source\PSoC5/ADC_Voltage_Target.c **** *
 749:.\Generated_Source\PSoC5/ADC_Voltage_Target.c **** * Parameters:  
 750:.\Generated_Source\PSoC5/ADC_Voltage_Target.c **** *   void
 751:.\Generated_Source\PSoC5/ADC_Voltage_Target.c **** *
 752:.\Generated_Source\PSoC5/ADC_Voltage_Target.c **** * Return: 
 753:.\Generated_Source\PSoC5/ADC_Voltage_Target.c **** *  int16:  ADC result.
 754:.\Generated_Source\PSoC5/ADC_Voltage_Target.c **** *
 755:.\Generated_Source\PSoC5/ADC_Voltage_Target.c **** *******************************************************************************/
 756:.\Generated_Source\PSoC5/ADC_Voltage_Target.c **** int16 ADC_Voltage_Target_GetResult16(void) 
 757:.\Generated_Source\PSoC5/ADC_Voltage_Target.c **** {
 1115              		.loc 1 757 0
 1116              		.cfi_startproc
 1117              		@ args = 0, pretend = 0, frame = 8
 1118              		@ frame_needed = 1, uses_anonymous_args = 0
 1119              		@ link register save eliminated.
 1120 0000 80B4     		push	{r7}
ARM GAS  C:\DOCUME~1\ADMINI~1\LOCALS~1\Temp\ccfNfb5I.s 			page 34


 1121              	.LCFI32:
 1122              		.cfi_def_cfa_offset 4
 1123 0002 83B0     		sub	sp, sp, #12
 1124              	.LCFI33:
 1125              		.cfi_def_cfa_offset 16
 1126 0004 00AF     		add	r7, sp, #0
 1127              		.cfi_offset 7, -4
 1128              	.LCFI34:
 1129              		.cfi_def_cfa_register 7
 758:.\Generated_Source\PSoC5/ADC_Voltage_Target.c ****     uint16 result;
 759:.\Generated_Source\PSoC5/ADC_Voltage_Target.c ****     
 760:.\Generated_Source\PSoC5/ADC_Voltage_Target.c ****     #if (CY_PSOC3)
 761:.\Generated_Source\PSoC5/ADC_Voltage_Target.c ****         result = ADC_Voltage_Target_DEC_SAMPM_REG ;
 762:.\Generated_Source\PSoC5/ADC_Voltage_Target.c ****         result = (result << 8 ) | ADC_Voltage_Target_DEC_SAMP_REG;
 763:.\Generated_Source\PSoC5/ADC_Voltage_Target.c ****     #else
 764:.\Generated_Source\PSoC5/ADC_Voltage_Target.c ****         result = (CY_GET_REG16(ADC_Voltage_Target_DEC_SAMP_PTR));
 1130              		.loc 1 764 0
 1131 0006 44F61063 		movw	r3, #:lower16:1073761808
 1132 000a C4F20003 		movt	r3, #:upper16:1073761808
 1133 000e 1B88     		ldrh	r3, [r3, #0]	@ movhi
 1134 0010 FB80     		strh	r3, [r7, #6]	@ movhi
 765:.\Generated_Source\PSoC5/ADC_Voltage_Target.c ****     #endif /* CY_PSOC3 */
 766:.\Generated_Source\PSoC5/ADC_Voltage_Target.c ****     
 767:.\Generated_Source\PSoC5/ADC_Voltage_Target.c ****     return result;
 1135              		.loc 1 767 0
 1136 0012 FB88     		ldrh	r3, [r7, #6]
 1137 0014 1BB2     		sxth	r3, r3
 768:.\Generated_Source\PSoC5/ADC_Voltage_Target.c **** }
 1138              		.loc 1 768 0
 1139 0016 1846     		mov	r0, r3
 1140 0018 07F10C07 		add	r7, r7, #12
 1141 001c BD46     		mov	sp, r7
 1142 001e 80BC     		pop	{r7}
 1143 0020 7047     		bx	lr
 1144              		.cfi_endproc
 1145              	.LFE13:
 1146              		.size	ADC_Voltage_Target_GetResult16, .-ADC_Voltage_Target_GetResult16
 1147 0022 00BF     		.section	.text.ADC_Voltage_Target_GetResult32,"ax",%progbits
 1148              		.align	2
 1149              		.global	ADC_Voltage_Target_GetResult32
 1150              		.thumb
 1151              		.thumb_func
 1152              		.type	ADC_Voltage_Target_GetResult32, %function
 1153              	ADC_Voltage_Target_GetResult32:
 1154              	.LFB14:
 769:.\Generated_Source\PSoC5/ADC_Voltage_Target.c **** 
 770:.\Generated_Source\PSoC5/ADC_Voltage_Target.c **** 
 771:.\Generated_Source\PSoC5/ADC_Voltage_Target.c **** /*******************************************************************************
 772:.\Generated_Source\PSoC5/ADC_Voltage_Target.c **** * Function Name: ADC_Voltage_Target_GetResult32
 773:.\Generated_Source\PSoC5/ADC_Voltage_Target.c **** ********************************************************************************
 774:.\Generated_Source\PSoC5/ADC_Voltage_Target.c **** *
 775:.\Generated_Source\PSoC5/ADC_Voltage_Target.c **** * Summary:
 776:.\Generated_Source\PSoC5/ADC_Voltage_Target.c **** *  Returns an 32-bit result from ADC
 777:.\Generated_Source\PSoC5/ADC_Voltage_Target.c **** *
 778:.\Generated_Source\PSoC5/ADC_Voltage_Target.c **** * Parameters:  
 779:.\Generated_Source\PSoC5/ADC_Voltage_Target.c **** *  void
 780:.\Generated_Source\PSoC5/ADC_Voltage_Target.c **** *
ARM GAS  C:\DOCUME~1\ADMINI~1\LOCALS~1\Temp\ccfNfb5I.s 			page 35


 781:.\Generated_Source\PSoC5/ADC_Voltage_Target.c **** * Return: 
 782:.\Generated_Source\PSoC5/ADC_Voltage_Target.c **** *  int32:  ADC result.
 783:.\Generated_Source\PSoC5/ADC_Voltage_Target.c **** *
 784:.\Generated_Source\PSoC5/ADC_Voltage_Target.c **** *******************************************************************************/
 785:.\Generated_Source\PSoC5/ADC_Voltage_Target.c **** int32 ADC_Voltage_Target_GetResult32(void) 
 786:.\Generated_Source\PSoC5/ADC_Voltage_Target.c **** {
 1155              		.loc 1 786 0
 1156              		.cfi_startproc
 1157              		@ args = 0, pretend = 0, frame = 8
 1158              		@ frame_needed = 1, uses_anonymous_args = 0
 1159              		@ link register save eliminated.
 1160 0000 80B4     		push	{r7}
 1161              	.LCFI35:
 1162              		.cfi_def_cfa_offset 4
 1163 0002 83B0     		sub	sp, sp, #12
 1164              	.LCFI36:
 1165              		.cfi_def_cfa_offset 16
 1166 0004 00AF     		add	r7, sp, #0
 1167              		.cfi_offset 7, -4
 1168              	.LCFI37:
 1169              		.cfi_def_cfa_register 7
 787:.\Generated_Source\PSoC5/ADC_Voltage_Target.c ****     uint32 result;
 788:.\Generated_Source\PSoC5/ADC_Voltage_Target.c **** 
 789:.\Generated_Source\PSoC5/ADC_Voltage_Target.c ****     #if (CY_PSOC3)
 790:.\Generated_Source\PSoC5/ADC_Voltage_Target.c ****         /* to make upper bits fo result to 0 */
 791:.\Generated_Source\PSoC5/ADC_Voltage_Target.c ****         result = (int8) (0xff & ADC_Voltage_Target_DEC_SAMPH_REG); 
 792:.\Generated_Source\PSoC5/ADC_Voltage_Target.c ****         result = (result << 8) | ADC_Voltage_Target_DEC_SAMPM_REG;
 793:.\Generated_Source\PSoC5/ADC_Voltage_Target.c ****         result = (result << 8) | ADC_Voltage_Target_DEC_SAMP_REG;
 794:.\Generated_Source\PSoC5/ADC_Voltage_Target.c ****     #else
 795:.\Generated_Source\PSoC5/ADC_Voltage_Target.c ****         result = CY_GET_REG16(ADC_Voltage_Target_DEC_SAMPH_PTR);
 1170              		.loc 1 795 0
 1171 0006 44F61263 		movw	r3, #:lower16:1073761810
 1172 000a C4F20003 		movt	r3, #:upper16:1073761810
 1173 000e 1B88     		ldrh	r3, [r3, #0]	@ movhi
 1174 0010 9BB2     		uxth	r3, r3
 1175 0012 7B60     		str	r3, [r7, #4]
 796:.\Generated_Source\PSoC5/ADC_Voltage_Target.c ****         result = (result << 16) | (CY_GET_REG16(ADC_Voltage_Target_DEC_SAMP_PTR));
 1176              		.loc 1 796 0
 1177 0014 7B68     		ldr	r3, [r7, #4]
 1178 0016 4FEA0342 		lsl	r2, r3, #16
 1179 001a 44F61063 		movw	r3, #:lower16:1073761808
 1180 001e C4F20003 		movt	r3, #:upper16:1073761808
 1181 0022 1B88     		ldrh	r3, [r3, #0]	@ movhi
 1182 0024 9BB2     		uxth	r3, r3
 1183 0026 42EA0303 		orr	r3, r2, r3
 1184 002a 7B60     		str	r3, [r7, #4]
 797:.\Generated_Source\PSoC5/ADC_Voltage_Target.c ****     #endif /* CY_PSOC3 */
 798:.\Generated_Source\PSoC5/ADC_Voltage_Target.c ****     
 799:.\Generated_Source\PSoC5/ADC_Voltage_Target.c ****     return result;
 1185              		.loc 1 799 0
 1186 002c 7B68     		ldr	r3, [r7, #4]
 800:.\Generated_Source\PSoC5/ADC_Voltage_Target.c **** }
 1187              		.loc 1 800 0
 1188 002e 1846     		mov	r0, r3
 1189 0030 07F10C07 		add	r7, r7, #12
 1190 0034 BD46     		mov	sp, r7
 1191 0036 80BC     		pop	{r7}
ARM GAS  C:\DOCUME~1\ADMINI~1\LOCALS~1\Temp\ccfNfb5I.s 			page 36


 1192 0038 7047     		bx	lr
 1193              		.cfi_endproc
 1194              	.LFE14:
 1195              		.size	ADC_Voltage_Target_GetResult32, .-ADC_Voltage_Target_GetResult32
 1196 003a 00BF     		.section	.text.ADC_Voltage_Target_SetOffset,"ax",%progbits
 1197              		.align	2
 1198              		.global	ADC_Voltage_Target_SetOffset
 1199              		.thumb
 1200              		.thumb_func
 1201              		.type	ADC_Voltage_Target_SetOffset, %function
 1202              	ADC_Voltage_Target_SetOffset:
 1203              	.LFB15:
 801:.\Generated_Source\PSoC5/ADC_Voltage_Target.c **** 
 802:.\Generated_Source\PSoC5/ADC_Voltage_Target.c **** 
 803:.\Generated_Source\PSoC5/ADC_Voltage_Target.c **** /*******************************************************************************
 804:.\Generated_Source\PSoC5/ADC_Voltage_Target.c **** * Function Name: ADC_Voltage_Target_SetOffset
 805:.\Generated_Source\PSoC5/ADC_Voltage_Target.c **** ********************************************************************************
 806:.\Generated_Source\PSoC5/ADC_Voltage_Target.c **** *
 807:.\Generated_Source\PSoC5/ADC_Voltage_Target.c **** * Summary:
 808:.\Generated_Source\PSoC5/ADC_Voltage_Target.c **** *  This function sets the offset for voltage readings.
 809:.\Generated_Source\PSoC5/ADC_Voltage_Target.c **** *
 810:.\Generated_Source\PSoC5/ADC_Voltage_Target.c **** * Parameters:  
 811:.\Generated_Source\PSoC5/ADC_Voltage_Target.c **** *  int32:  offset  Offset in counts
 812:.\Generated_Source\PSoC5/ADC_Voltage_Target.c **** *
 813:.\Generated_Source\PSoC5/ADC_Voltage_Target.c **** * Return: 
 814:.\Generated_Source\PSoC5/ADC_Voltage_Target.c **** *  void
 815:.\Generated_Source\PSoC5/ADC_Voltage_Target.c **** *
 816:.\Generated_Source\PSoC5/ADC_Voltage_Target.c **** * Global variables:
 817:.\Generated_Source\PSoC5/ADC_Voltage_Target.c **** *  ADC_Voltage_Target_Offset:  Modified to set the user provided offset. This 
 818:.\Generated_Source\PSoC5/ADC_Voltage_Target.c **** *  variable is used for offset calibration purpose.
 819:.\Generated_Source\PSoC5/ADC_Voltage_Target.c **** *  Affects the ADC_Voltage_Target_CountsTo_Volts, 
 820:.\Generated_Source\PSoC5/ADC_Voltage_Target.c **** *  ADC_Voltage_Target_CountsTo_mVolts, ADC_Voltage_Target_CountsTo_uVolts functions 
 821:.\Generated_Source\PSoC5/ADC_Voltage_Target.c **** *  by subtracting the given offset. 
 822:.\Generated_Source\PSoC5/ADC_Voltage_Target.c **** *
 823:.\Generated_Source\PSoC5/ADC_Voltage_Target.c **** *******************************************************************************/
 824:.\Generated_Source\PSoC5/ADC_Voltage_Target.c **** void ADC_Voltage_Target_SetOffset(int32 offset) 
 825:.\Generated_Source\PSoC5/ADC_Voltage_Target.c **** {
 1204              		.loc 1 825 0
 1205              		.cfi_startproc
 1206              		@ args = 0, pretend = 0, frame = 8
 1207              		@ frame_needed = 1, uses_anonymous_args = 0
 1208              		@ link register save eliminated.
 1209 0000 80B4     		push	{r7}
 1210              	.LCFI38:
 1211              		.cfi_def_cfa_offset 4
 1212 0002 83B0     		sub	sp, sp, #12
 1213              	.LCFI39:
 1214              		.cfi_def_cfa_offset 16
 1215 0004 00AF     		add	r7, sp, #0
 1216              		.cfi_offset 7, -4
 1217              	.LCFI40:
 1218              		.cfi_def_cfa_register 7
 1219 0006 7860     		str	r0, [r7, #4]
 826:.\Generated_Source\PSoC5/ADC_Voltage_Target.c ****  
 827:.\Generated_Source\PSoC5/ADC_Voltage_Target.c ****     ADC_Voltage_Target_Offset = offset;
 1220              		.loc 1 827 0
 1221 0008 40F20003 		movw	r3, #:lower16:ADC_Voltage_Target_Offset
ARM GAS  C:\DOCUME~1\ADMINI~1\LOCALS~1\Temp\ccfNfb5I.s 			page 37


 1222 000c C0F20003 		movt	r3, #:upper16:ADC_Voltage_Target_Offset
 1223 0010 7A68     		ldr	r2, [r7, #4]
 1224 0012 1A60     		str	r2, [r3, #0]
 828:.\Generated_Source\PSoC5/ADC_Voltage_Target.c **** }
 1225              		.loc 1 828 0
 1226 0014 07F10C07 		add	r7, r7, #12
 1227 0018 BD46     		mov	sp, r7
 1228 001a 80BC     		pop	{r7}
 1229 001c 7047     		bx	lr
 1230              		.cfi_endproc
 1231              	.LFE15:
 1232              		.size	ADC_Voltage_Target_SetOffset, .-ADC_Voltage_Target_SetOffset
 1233 001e 00BF     		.section	.text.ADC_Voltage_Target_SetGain,"ax",%progbits
 1234              		.align	2
 1235              		.global	ADC_Voltage_Target_SetGain
 1236              		.thumb
 1237              		.thumb_func
 1238              		.type	ADC_Voltage_Target_SetGain, %function
 1239              	ADC_Voltage_Target_SetGain:
 1240              	.LFB16:
 829:.\Generated_Source\PSoC5/ADC_Voltage_Target.c **** 
 830:.\Generated_Source\PSoC5/ADC_Voltage_Target.c **** 
 831:.\Generated_Source\PSoC5/ADC_Voltage_Target.c **** /*******************************************************************************
 832:.\Generated_Source\PSoC5/ADC_Voltage_Target.c **** * Function Name: ADC_Voltage_Target_SetGain
 833:.\Generated_Source\PSoC5/ADC_Voltage_Target.c **** ********************************************************************************
 834:.\Generated_Source\PSoC5/ADC_Voltage_Target.c **** *
 835:.\Generated_Source\PSoC5/ADC_Voltage_Target.c **** * Summary:
 836:.\Generated_Source\PSoC5/ADC_Voltage_Target.c **** *  This function sets the ADC gain in counts per volt.
 837:.\Generated_Source\PSoC5/ADC_Voltage_Target.c **** *
 838:.\Generated_Source\PSoC5/ADC_Voltage_Target.c **** * Parameters:  
 839:.\Generated_Source\PSoC5/ADC_Voltage_Target.c **** *  int32:  offset  Offset in counts
 840:.\Generated_Source\PSoC5/ADC_Voltage_Target.c **** *
 841:.\Generated_Source\PSoC5/ADC_Voltage_Target.c **** * Return: 
 842:.\Generated_Source\PSoC5/ADC_Voltage_Target.c **** *  void 
 843:.\Generated_Source\PSoC5/ADC_Voltage_Target.c **** *
 844:.\Generated_Source\PSoC5/ADC_Voltage_Target.c **** * Global variables:
 845:.\Generated_Source\PSoC5/ADC_Voltage_Target.c **** *  ADC_Voltage_Target_CountsPerVolt:  modified to set the ADC gain in counts 
 846:.\Generated_Source\PSoC5/ADC_Voltage_Target.c **** *   per volt.
 847:.\Generated_Source\PSoC5/ADC_Voltage_Target.c **** *
 848:.\Generated_Source\PSoC5/ADC_Voltage_Target.c **** *******************************************************************************/
 849:.\Generated_Source\PSoC5/ADC_Voltage_Target.c **** void ADC_Voltage_Target_SetGain(int32 adcGain) 
 850:.\Generated_Source\PSoC5/ADC_Voltage_Target.c **** {
 1241              		.loc 1 850 0
 1242              		.cfi_startproc
 1243              		@ args = 0, pretend = 0, frame = 8
 1244              		@ frame_needed = 1, uses_anonymous_args = 0
 1245              		@ link register save eliminated.
 1246 0000 80B4     		push	{r7}
 1247              	.LCFI41:
 1248              		.cfi_def_cfa_offset 4
 1249 0002 83B0     		sub	sp, sp, #12
 1250              	.LCFI42:
 1251              		.cfi_def_cfa_offset 16
 1252 0004 00AF     		add	r7, sp, #0
 1253              		.cfi_offset 7, -4
 1254              	.LCFI43:
 1255              		.cfi_def_cfa_register 7
ARM GAS  C:\DOCUME~1\ADMINI~1\LOCALS~1\Temp\ccfNfb5I.s 			page 38


 1256 0006 7860     		str	r0, [r7, #4]
 851:.\Generated_Source\PSoC5/ADC_Voltage_Target.c ****  
 852:.\Generated_Source\PSoC5/ADC_Voltage_Target.c ****     ADC_Voltage_Target_CountsPerVolt = adcGain;
 1257              		.loc 1 852 0
 1258 0008 40F20003 		movw	r3, #:lower16:ADC_Voltage_Target_CountsPerVolt
 1259 000c C0F20003 		movt	r3, #:upper16:ADC_Voltage_Target_CountsPerVolt
 1260 0010 7A68     		ldr	r2, [r7, #4]
 1261 0012 1A60     		str	r2, [r3, #0]
 853:.\Generated_Source\PSoC5/ADC_Voltage_Target.c **** }
 1262              		.loc 1 853 0
 1263 0014 07F10C07 		add	r7, r7, #12
 1264 0018 BD46     		mov	sp, r7
 1265 001a 80BC     		pop	{r7}
 1266 001c 7047     		bx	lr
 1267              		.cfi_endproc
 1268              	.LFE16:
 1269              		.size	ADC_Voltage_Target_SetGain, .-ADC_Voltage_Target_SetGain
 1270 001e 00BF     		.section	.text.ADC_Voltage_Target_CountsTo_mVolts,"ax",%progbits
 1271              		.align	2
 1272              		.global	ADC_Voltage_Target_CountsTo_mVolts
 1273              		.thumb
 1274              		.thumb_func
 1275              		.type	ADC_Voltage_Target_CountsTo_mVolts, %function
 1276              	ADC_Voltage_Target_CountsTo_mVolts:
 1277              	.LFB17:
 854:.\Generated_Source\PSoC5/ADC_Voltage_Target.c **** 
 855:.\Generated_Source\PSoC5/ADC_Voltage_Target.c **** 
 856:.\Generated_Source\PSoC5/ADC_Voltage_Target.c **** /*******************************************************************************
 857:.\Generated_Source\PSoC5/ADC_Voltage_Target.c **** * Function Name: ADC_Voltage_Target_CountsTo_mVolts
 858:.\Generated_Source\PSoC5/ADC_Voltage_Target.c **** ********************************************************************************
 859:.\Generated_Source\PSoC5/ADC_Voltage_Target.c **** *
 860:.\Generated_Source\PSoC5/ADC_Voltage_Target.c **** * Summary:
 861:.\Generated_Source\PSoC5/ADC_Voltage_Target.c **** *  This function converts ADC counts to mVolts.
 862:.\Generated_Source\PSoC5/ADC_Voltage_Target.c **** *
 863:.\Generated_Source\PSoC5/ADC_Voltage_Target.c **** * Parameters:  
 864:.\Generated_Source\PSoC5/ADC_Voltage_Target.c **** *  int32:  adcCounts   Reading from ADC.
 865:.\Generated_Source\PSoC5/ADC_Voltage_Target.c **** *
 866:.\Generated_Source\PSoC5/ADC_Voltage_Target.c **** * Return: 
 867:.\Generated_Source\PSoC5/ADC_Voltage_Target.c **** *  int32:  Result in mVolts
 868:.\Generated_Source\PSoC5/ADC_Voltage_Target.c **** *
 869:.\Generated_Source\PSoC5/ADC_Voltage_Target.c **** * Global variables:
 870:.\Generated_Source\PSoC5/ADC_Voltage_Target.c **** *  ADC_Voltage_Target_CountsPerVolt:  used to convert ADC counts to mVolts.
 871:.\Generated_Source\PSoC5/ADC_Voltage_Target.c **** *  ADC_Voltage_Target_Offset:  Used as the offset while converting ADC counts 
 872:.\Generated_Source\PSoC5/ADC_Voltage_Target.c **** *   to mVolts.
 873:.\Generated_Source\PSoC5/ADC_Voltage_Target.c **** *
 874:.\Generated_Source\PSoC5/ADC_Voltage_Target.c **** *******************************************************************************/
 875:.\Generated_Source\PSoC5/ADC_Voltage_Target.c **** int16 ADC_Voltage_Target_CountsTo_mVolts( int32 adcCounts) 
 876:.\Generated_Source\PSoC5/ADC_Voltage_Target.c **** {
 1278              		.loc 1 876 0
 1279              		.cfi_startproc
 1280              		@ args = 0, pretend = 0, frame = 24
 1281              		@ frame_needed = 1, uses_anonymous_args = 0
 1282              		@ link register save eliminated.
 1283 0000 80B4     		push	{r7}
 1284              	.LCFI44:
 1285              		.cfi_def_cfa_offset 4
 1286 0002 87B0     		sub	sp, sp, #28
ARM GAS  C:\DOCUME~1\ADMINI~1\LOCALS~1\Temp\ccfNfb5I.s 			page 39


 1287              	.LCFI45:
 1288              		.cfi_def_cfa_offset 32
 1289 0004 00AF     		add	r7, sp, #0
 1290              		.cfi_offset 7, -4
 1291              	.LCFI46:
 1292              		.cfi_def_cfa_register 7
 1293 0006 7860     		str	r0, [r7, #4]
 877:.\Generated_Source\PSoC5/ADC_Voltage_Target.c **** 
 878:.\Generated_Source\PSoC5/ADC_Voltage_Target.c ****     int32 mVolts = 0;
 1294              		.loc 1 878 0
 1295 0008 4FF00003 		mov	r3, #0
 1296 000c BB60     		str	r3, [r7, #8]
 879:.\Generated_Source\PSoC5/ADC_Voltage_Target.c ****     int32 A, B;
 880:.\Generated_Source\PSoC5/ADC_Voltage_Target.c **** 	uint8 resolution = 16;
 1297              		.loc 1 880 0
 1298 000e 4FF01003 		mov	r3, #16
 1299 0012 FB75     		strb	r3, [r7, #23]
 881:.\Generated_Source\PSoC5/ADC_Voltage_Target.c **** 
 882:.\Generated_Source\PSoC5/ADC_Voltage_Target.c ****     /* Subtract ADC offset */
 883:.\Generated_Source\PSoC5/ADC_Voltage_Target.c ****     adcCounts -= ADC_Voltage_Target_Offset;
 1300              		.loc 1 883 0
 1301 0014 40F20003 		movw	r3, #:lower16:ADC_Voltage_Target_Offset
 1302 0018 C0F20003 		movt	r3, #:upper16:ADC_Voltage_Target_Offset
 1303 001c 1B68     		ldr	r3, [r3, #0]
 1304 001e 7A68     		ldr	r2, [r7, #4]
 1305 0020 C3EB0203 		rsb	r3, r3, r2
 1306 0024 7B60     		str	r3, [r7, #4]
 884:.\Generated_Source\PSoC5/ADC_Voltage_Target.c **** 	
 885:.\Generated_Source\PSoC5/ADC_Voltage_Target.c **** 	/* Set the resolution based on the configuration */
 886:.\Generated_Source\PSoC5/ADC_Voltage_Target.c **** 	if (ADC_Voltage_Target_Config == ADC_Voltage_Target_CFG1)
 1307              		.loc 1 886 0
 1308 0026 40F20003 		movw	r3, #:lower16:ADC_Voltage_Target_Config
 1309 002a C0F20003 		movt	r3, #:upper16:ADC_Voltage_Target_Config
 1310 002e 1B78     		ldrb	r3, [r3, #0]
 1311 0030 DBB2     		uxtb	r3, r3
 1312 0032 012B     		cmp	r3, #1
 1313 0034 03D1     		bne	.L60
 887:.\Generated_Source\PSoC5/ADC_Voltage_Target.c **** 	{
 888:.\Generated_Source\PSoC5/ADC_Voltage_Target.c ****         resolution = ADC_Voltage_Target_CFG1_RESOLUTION;
 1314              		.loc 1 888 0
 1315 0036 4FF00C03 		mov	r3, #12
 1316 003a FB75     		strb	r3, [r7, #23]
 1317 003c 1AE0     		b	.L61
 1318              	.L60:
 889:.\Generated_Source\PSoC5/ADC_Voltage_Target.c **** 	}	
 890:.\Generated_Source\PSoC5/ADC_Voltage_Target.c **** 	else if (ADC_Voltage_Target_Config == ADC_Voltage_Target_CFG2)
 1319              		.loc 1 890 0
 1320 003e 40F20003 		movw	r3, #:lower16:ADC_Voltage_Target_Config
 1321 0042 C0F20003 		movt	r3, #:upper16:ADC_Voltage_Target_Config
 1322 0046 1B78     		ldrb	r3, [r3, #0]
 1323 0048 DBB2     		uxtb	r3, r3
 1324 004a 022B     		cmp	r3, #2
 1325 004c 03D1     		bne	.L62
 891:.\Generated_Source\PSoC5/ADC_Voltage_Target.c **** 	{
 892:.\Generated_Source\PSoC5/ADC_Voltage_Target.c **** 	    resolution = ADC_Voltage_Target_CFG2_RESOLUTION;
 1326              		.loc 1 892 0
 1327 004e 4FF01003 		mov	r3, #16
ARM GAS  C:\DOCUME~1\ADMINI~1\LOCALS~1\Temp\ccfNfb5I.s 			page 40


 1328 0052 FB75     		strb	r3, [r7, #23]
 1329 0054 0EE0     		b	.L61
 1330              	.L62:
 893:.\Generated_Source\PSoC5/ADC_Voltage_Target.c **** 	}
 894:.\Generated_Source\PSoC5/ADC_Voltage_Target.c **** 	else if (ADC_Voltage_Target_Config == ADC_Voltage_Target_CFG3)
 1331              		.loc 1 894 0
 1332 0056 40F20003 		movw	r3, #:lower16:ADC_Voltage_Target_Config
 1333 005a C0F20003 		movt	r3, #:upper16:ADC_Voltage_Target_Config
 1334 005e 1B78     		ldrb	r3, [r3, #0]
 1335 0060 DBB2     		uxtb	r3, r3
 1336 0062 032B     		cmp	r3, #3
 1337 0064 03D1     		bne	.L63
 895:.\Generated_Source\PSoC5/ADC_Voltage_Target.c **** 	{
 896:.\Generated_Source\PSoC5/ADC_Voltage_Target.c **** 	    resolution = ADC_Voltage_Target_CFG3_RESOLUTION;
 1338              		.loc 1 896 0
 1339 0066 4FF01003 		mov	r3, #16
 1340 006a FB75     		strb	r3, [r7, #23]
 1341 006c 02E0     		b	.L61
 1342              	.L63:
 897:.\Generated_Source\PSoC5/ADC_Voltage_Target.c **** 	}
 898:.\Generated_Source\PSoC5/ADC_Voltage_Target.c **** 	else
 899:.\Generated_Source\PSoC5/ADC_Voltage_Target.c **** 	{
 900:.\Generated_Source\PSoC5/ADC_Voltage_Target.c **** 	    resolution = ADC_Voltage_Target_CFG4_RESOLUTION;
 1343              		.loc 1 900 0
 1344 006e 4FF01003 		mov	r3, #16
 1345 0072 FB75     		strb	r3, [r7, #23]
 1346              	.L61:
 901:.\Generated_Source\PSoC5/ADC_Voltage_Target.c **** 	}
 902:.\Generated_Source\PSoC5/ADC_Voltage_Target.c **** 	
 903:.\Generated_Source\PSoC5/ADC_Voltage_Target.c ****     if(resolution < 17)
 1347              		.loc 1 903 0
 1348 0074 FB7D     		ldrb	r3, [r7, #23]	@ zero_extendqisi2
 1349 0076 102B     		cmp	r3, #16
 1350 0078 06D8     		bhi	.L64
 904:.\Generated_Source\PSoC5/ADC_Voltage_Target.c ****     {
 905:.\Generated_Source\PSoC5/ADC_Voltage_Target.c ****         A = 1000;
 1351              		.loc 1 905 0
 1352 007a 4FF47A73 		mov	r3, #1000
 1353 007e FB60     		str	r3, [r7, #12]
 906:.\Generated_Source\PSoC5/ADC_Voltage_Target.c ****         B = 1;
 1354              		.loc 1 906 0
 1355 0080 4FF00103 		mov	r3, #1
 1356 0084 3B61     		str	r3, [r7, #16]
 1357 0086 05E0     		b	.L65
 1358              	.L64:
 907:.\Generated_Source\PSoC5/ADC_Voltage_Target.c ****     }
 908:.\Generated_Source\PSoC5/ADC_Voltage_Target.c ****     else
 909:.\Generated_Source\PSoC5/ADC_Voltage_Target.c ****     {
 910:.\Generated_Source\PSoC5/ADC_Voltage_Target.c ****         A = 100;
 1359              		.loc 1 910 0
 1360 0088 4FF06403 		mov	r3, #100
 1361 008c FB60     		str	r3, [r7, #12]
 911:.\Generated_Source\PSoC5/ADC_Voltage_Target.c ****         B = 10;
 1362              		.loc 1 911 0
 1363 008e 4FF00A03 		mov	r3, #10
 1364 0092 3B61     		str	r3, [r7, #16]
 1365              	.L65:
ARM GAS  C:\DOCUME~1\ADMINI~1\LOCALS~1\Temp\ccfNfb5I.s 			page 41


 912:.\Generated_Source\PSoC5/ADC_Voltage_Target.c ****     }
 913:.\Generated_Source\PSoC5/ADC_Voltage_Target.c **** 
 914:.\Generated_Source\PSoC5/ADC_Voltage_Target.c ****     mVolts = ((A * adcCounts) / ((int32)ADC_Voltage_Target_CountsPerVolt/B)) ;   
 1366              		.loc 1 914 0
 1367 0094 FB68     		ldr	r3, [r7, #12]
 1368 0096 7A68     		ldr	r2, [r7, #4]
 1369 0098 02FB03F2 		mul	r2, r2, r3
 1370 009c 40F20003 		movw	r3, #:lower16:ADC_Voltage_Target_CountsPerVolt
 1371 00a0 C0F20003 		movt	r3, #:upper16:ADC_Voltage_Target_CountsPerVolt
 1372 00a4 1968     		ldr	r1, [r3, #0]
 1373 00a6 3B69     		ldr	r3, [r7, #16]
 1374 00a8 91FBF3F3 		sdiv	r3, r1, r3
 1375 00ac 92FBF3F3 		sdiv	r3, r2, r3
 1376 00b0 BB60     		str	r3, [r7, #8]
 915:.\Generated_Source\PSoC5/ADC_Voltage_Target.c **** 
 916:.\Generated_Source\PSoC5/ADC_Voltage_Target.c ****     return( (int16)mVolts );
 1377              		.loc 1 916 0
 1378 00b2 BB68     		ldr	r3, [r7, #8]
 1379 00b4 9BB2     		uxth	r3, r3
 1380 00b6 1BB2     		sxth	r3, r3
 917:.\Generated_Source\PSoC5/ADC_Voltage_Target.c **** }
 1381              		.loc 1 917 0
 1382 00b8 1846     		mov	r0, r3
 1383 00ba 07F11C07 		add	r7, r7, #28
 1384 00be BD46     		mov	sp, r7
 1385 00c0 80BC     		pop	{r7}
 1386 00c2 7047     		bx	lr
 1387              		.cfi_endproc
 1388              	.LFE17:
 1389              		.size	ADC_Voltage_Target_CountsTo_mVolts, .-ADC_Voltage_Target_CountsTo_mVolts
 1390              		.global	__aeabi_i2f
 1391              		.section	.text.ADC_Voltage_Target_CountsTo_Volts,"ax",%progbits
 1392              		.align	2
 1393              		.global	ADC_Voltage_Target_CountsTo_Volts
 1394              		.thumb
 1395              		.thumb_func
 1396              		.type	ADC_Voltage_Target_CountsTo_Volts, %function
 1397              	ADC_Voltage_Target_CountsTo_Volts:
 1398              	.LFB18:
 918:.\Generated_Source\PSoC5/ADC_Voltage_Target.c **** 
 919:.\Generated_Source\PSoC5/ADC_Voltage_Target.c **** 
 920:.\Generated_Source\PSoC5/ADC_Voltage_Target.c **** /*******************************************************************************
 921:.\Generated_Source\PSoC5/ADC_Voltage_Target.c **** * Function Name: ADC_Voltage_Target_CountsTo_Volts
 922:.\Generated_Source\PSoC5/ADC_Voltage_Target.c **** ********************************************************************************
 923:.\Generated_Source\PSoC5/ADC_Voltage_Target.c **** *
 924:.\Generated_Source\PSoC5/ADC_Voltage_Target.c **** * Summary:
 925:.\Generated_Source\PSoC5/ADC_Voltage_Target.c **** *  This function converts ADC counts to Volts
 926:.\Generated_Source\PSoC5/ADC_Voltage_Target.c **** *
 927:.\Generated_Source\PSoC5/ADC_Voltage_Target.c **** * Parameters:  
 928:.\Generated_Source\PSoC5/ADC_Voltage_Target.c **** *  int32:  adcCounts   Reading from ADC.
 929:.\Generated_Source\PSoC5/ADC_Voltage_Target.c **** *
 930:.\Generated_Source\PSoC5/ADC_Voltage_Target.c **** * Return: 
 931:.\Generated_Source\PSoC5/ADC_Voltage_Target.c **** *  float:  Result in Volts
 932:.\Generated_Source\PSoC5/ADC_Voltage_Target.c **** *
 933:.\Generated_Source\PSoC5/ADC_Voltage_Target.c **** * Global variables:
 934:.\Generated_Source\PSoC5/ADC_Voltage_Target.c **** *  ADC_Voltage_Target_CountsPerVolt:  used to convert to Volts.
 935:.\Generated_Source\PSoC5/ADC_Voltage_Target.c **** *  ADC_Voltage_Target_Offset:  Used as the offset while converting ADC counts 
ARM GAS  C:\DOCUME~1\ADMINI~1\LOCALS~1\Temp\ccfNfb5I.s 			page 42


 936:.\Generated_Source\PSoC5/ADC_Voltage_Target.c **** *   to Volts.
 937:.\Generated_Source\PSoC5/ADC_Voltage_Target.c **** *
 938:.\Generated_Source\PSoC5/ADC_Voltage_Target.c **** *******************************************************************************/
 939:.\Generated_Source\PSoC5/ADC_Voltage_Target.c **** float ADC_Voltage_Target_CountsTo_Volts( int32 adcCounts) 
 940:.\Generated_Source\PSoC5/ADC_Voltage_Target.c **** {
 1399              		.loc 1 940 0
 1400              		.cfi_startproc
 1401              		@ args = 0, pretend = 0, frame = 16
 1402              		@ frame_needed = 1, uses_anonymous_args = 0
 1403 0000 90B5     		push	{r4, r7, lr}
 1404              	.LCFI47:
 1405              		.cfi_def_cfa_offset 12
 1406 0002 85B0     		sub	sp, sp, #20
 1407              	.LCFI48:
 1408              		.cfi_def_cfa_offset 32
 1409 0004 00AF     		add	r7, sp, #0
 1410              		.cfi_offset 14, -4
 1411              		.cfi_offset 7, -8
 1412              		.cfi_offset 4, -12
 1413              	.LCFI49:
 1414              		.cfi_def_cfa_register 7
 1415 0006 7860     		str	r0, [r7, #4]
 941:.\Generated_Source\PSoC5/ADC_Voltage_Target.c **** 
 942:.\Generated_Source\PSoC5/ADC_Voltage_Target.c ****     float Volts = 0;
 1416              		.loc 1 942 0
 1417 0008 114B     		ldr	r3, .L69	@ float
 1418 000a FB60     		str	r3, [r7, #12]	@ float
 943:.\Generated_Source\PSoC5/ADC_Voltage_Target.c **** 
 944:.\Generated_Source\PSoC5/ADC_Voltage_Target.c ****     /* Subtract ADC offset */
 945:.\Generated_Source\PSoC5/ADC_Voltage_Target.c ****     adcCounts -= ADC_Voltage_Target_Offset;
 1419              		.loc 1 945 0
 1420 000c 40F20003 		movw	r3, #:lower16:ADC_Voltage_Target_Offset
 1421 0010 C0F20003 		movt	r3, #:upper16:ADC_Voltage_Target_Offset
 1422 0014 1B68     		ldr	r3, [r3, #0]
 1423 0016 7A68     		ldr	r2, [r7, #4]
 1424 0018 C3EB0203 		rsb	r3, r3, r2
 1425 001c 7B60     		str	r3, [r7, #4]
 946:.\Generated_Source\PSoC5/ADC_Voltage_Target.c **** 
 947:.\Generated_Source\PSoC5/ADC_Voltage_Target.c ****     Volts = (float)adcCounts / (float)ADC_Voltage_Target_CountsPerVolt;   
 1426              		.loc 1 947 0
 1427 001e 7868     		ldr	r0, [r7, #4]
 1428 0020 FFF7FEFF 		bl	__aeabi_i2f
 1429 0024 0446     		mov	r4, r0
 1430 0026 40F20003 		movw	r3, #:lower16:ADC_Voltage_Target_CountsPerVolt
 1431 002a C0F20003 		movt	r3, #:upper16:ADC_Voltage_Target_CountsPerVolt
 1432 002e 1B68     		ldr	r3, [r3, #0]
 1433 0030 1846     		mov	r0, r3
 1434 0032 FFF7FEFF 		bl	__aeabi_i2f
 1435 0036 0346     		mov	r3, r0
 1436 0038 2046     		mov	r0, r4
 1437 003a 1946     		mov	r1, r3
 1438 003c FFF7FEFF 		bl	__aeabi_fdiv
 1439 0040 0346     		mov	r3, r0
 1440 0042 FB60     		str	r3, [r7, #12]	@ float
 948:.\Generated_Source\PSoC5/ADC_Voltage_Target.c ****     
 949:.\Generated_Source\PSoC5/ADC_Voltage_Target.c ****     return( Volts );
 1441              		.loc 1 949 0
ARM GAS  C:\DOCUME~1\ADMINI~1\LOCALS~1\Temp\ccfNfb5I.s 			page 43


 1442 0044 FB68     		ldr	r3, [r7, #12]	@ float
 950:.\Generated_Source\PSoC5/ADC_Voltage_Target.c **** }
 1443              		.loc 1 950 0
 1444 0046 1846     		mov	r0, r3
 1445 0048 07F11407 		add	r7, r7, #20
 1446 004c BD46     		mov	sp, r7
 1447 004e 90BD     		pop	{r4, r7, pc}
 1448              	.L70:
 1449              		.align	2
 1450              	.L69:
 1451 0050 00000000 		.word	0
 1452              		.cfi_endproc
 1453              	.LFE18:
 1454              		.size	ADC_Voltage_Target_CountsTo_Volts, .-ADC_Voltage_Target_CountsTo_Volts
 1455              		.section	.text.ADC_Voltage_Target_CountsTo_uVolts,"ax",%progbits
 1456              		.align	2
 1457              		.global	ADC_Voltage_Target_CountsTo_uVolts
 1458              		.thumb
 1459              		.thumb_func
 1460              		.type	ADC_Voltage_Target_CountsTo_uVolts, %function
 1461              	ADC_Voltage_Target_CountsTo_uVolts:
 1462              	.LFB19:
 951:.\Generated_Source\PSoC5/ADC_Voltage_Target.c **** 
 952:.\Generated_Source\PSoC5/ADC_Voltage_Target.c **** 
 953:.\Generated_Source\PSoC5/ADC_Voltage_Target.c **** /*******************************************************************************
 954:.\Generated_Source\PSoC5/ADC_Voltage_Target.c **** * Function Name: ADC_Voltage_Target_CountsTo_uVolts
 955:.\Generated_Source\PSoC5/ADC_Voltage_Target.c **** ********************************************************************************
 956:.\Generated_Source\PSoC5/ADC_Voltage_Target.c **** *
 957:.\Generated_Source\PSoC5/ADC_Voltage_Target.c **** * Summary:
 958:.\Generated_Source\PSoC5/ADC_Voltage_Target.c **** *  This function converts ADC counts to uVolts
 959:.\Generated_Source\PSoC5/ADC_Voltage_Target.c **** *
 960:.\Generated_Source\PSoC5/ADC_Voltage_Target.c **** * Parameters:  
 961:.\Generated_Source\PSoC5/ADC_Voltage_Target.c **** *  int32:  adcCounts   Reading from ADC.
 962:.\Generated_Source\PSoC5/ADC_Voltage_Target.c **** *
 963:.\Generated_Source\PSoC5/ADC_Voltage_Target.c **** * Return: 
 964:.\Generated_Source\PSoC5/ADC_Voltage_Target.c **** *  int32:  Result in uVolts
 965:.\Generated_Source\PSoC5/ADC_Voltage_Target.c **** *
 966:.\Generated_Source\PSoC5/ADC_Voltage_Target.c **** * Global variables:
 967:.\Generated_Source\PSoC5/ADC_Voltage_Target.c **** *  ADC_Voltage_Target_CountsPerVolt:  used to convert ADC counts to mVolts.
 968:.\Generated_Source\PSoC5/ADC_Voltage_Target.c **** *  ADC_Voltage_Target_Offset:  Used as the offset while converting ADC counts 
 969:.\Generated_Source\PSoC5/ADC_Voltage_Target.c **** *   to mVolts.
 970:.\Generated_Source\PSoC5/ADC_Voltage_Target.c **** *
 971:.\Generated_Source\PSoC5/ADC_Voltage_Target.c **** * Theory: 
 972:.\Generated_Source\PSoC5/ADC_Voltage_Target.c **** * Care must be taken to not exceed the maximum value for a 32 bit signed
 973:.\Generated_Source\PSoC5/ADC_Voltage_Target.c **** * number in the conversion to uVolts and at the same time not loose 
 974:.\Generated_Source\PSoC5/ADC_Voltage_Target.c **** * resolution.
 975:.\Generated_Source\PSoC5/ADC_Voltage_Target.c **** *
 976:.\Generated_Source\PSoC5/ADC_Voltage_Target.c **** * uVolts = ((A * adcCounts) / ((int32)ADC_Voltage_Target_CountsPerVolt/B)) ;   
 977:.\Generated_Source\PSoC5/ADC_Voltage_Target.c **** *
 978:.\Generated_Source\PSoC5/ADC_Voltage_Target.c **** *  Resolution       A           B
 979:.\Generated_Source\PSoC5/ADC_Voltage_Target.c **** *   8 - 11      1,000,000         1
 980:.\Generated_Source\PSoC5/ADC_Voltage_Target.c **** *  12 - 14        100,000        10
 981:.\Generated_Source\PSoC5/ADC_Voltage_Target.c **** *  15 - 17         10,000       100
 982:.\Generated_Source\PSoC5/ADC_Voltage_Target.c **** *  18 - 20           1000      1000
 983:.\Generated_Source\PSoC5/ADC_Voltage_Target.c **** *
 984:.\Generated_Source\PSoC5/ADC_Voltage_Target.c **** *******************************************************************************/
 985:.\Generated_Source\PSoC5/ADC_Voltage_Target.c **** int32 ADC_Voltage_Target_CountsTo_uVolts( int32 adcCounts) 
ARM GAS  C:\DOCUME~1\ADMINI~1\LOCALS~1\Temp\ccfNfb5I.s 			page 44


 986:.\Generated_Source\PSoC5/ADC_Voltage_Target.c **** {
 1463              		.loc 1 986 0
 1464              		.cfi_startproc
 1465              		@ args = 0, pretend = 0, frame = 24
 1466              		@ frame_needed = 1, uses_anonymous_args = 0
 1467              		@ link register save eliminated.
 1468 0000 80B4     		push	{r7}
 1469              	.LCFI50:
 1470              		.cfi_def_cfa_offset 4
 1471 0002 87B0     		sub	sp, sp, #28
 1472              	.LCFI51:
 1473              		.cfi_def_cfa_offset 32
 1474 0004 00AF     		add	r7, sp, #0
 1475              		.cfi_offset 7, -4
 1476              	.LCFI52:
 1477              		.cfi_def_cfa_register 7
 1478 0006 7860     		str	r0, [r7, #4]
 987:.\Generated_Source\PSoC5/ADC_Voltage_Target.c **** 
 988:.\Generated_Source\PSoC5/ADC_Voltage_Target.c ****     int32 uVolts = 0;
 1479              		.loc 1 988 0
 1480 0008 4FF00003 		mov	r3, #0
 1481 000c BB60     		str	r3, [r7, #8]
 989:.\Generated_Source\PSoC5/ADC_Voltage_Target.c ****     int32 A, B;
 990:.\Generated_Source\PSoC5/ADC_Voltage_Target.c **** 	uint8 resolution = 16;
 1482              		.loc 1 990 0
 1483 000e 4FF01003 		mov	r3, #16
 1484 0012 FB75     		strb	r3, [r7, #23]
 991:.\Generated_Source\PSoC5/ADC_Voltage_Target.c **** 	
 992:.\Generated_Source\PSoC5/ADC_Voltage_Target.c **** 	/* Set the resolution based on the configuration */
 993:.\Generated_Source\PSoC5/ADC_Voltage_Target.c **** 	if (ADC_Voltage_Target_Config == ADC_Voltage_Target_CFG1)
 1485              		.loc 1 993 0
 1486 0014 40F20003 		movw	r3, #:lower16:ADC_Voltage_Target_Config
 1487 0018 C0F20003 		movt	r3, #:upper16:ADC_Voltage_Target_Config
 1488 001c 1B78     		ldrb	r3, [r3, #0]
 1489 001e DBB2     		uxtb	r3, r3
 1490 0020 012B     		cmp	r3, #1
 1491 0022 03D1     		bne	.L72
 994:.\Generated_Source\PSoC5/ADC_Voltage_Target.c **** 	{
 995:.\Generated_Source\PSoC5/ADC_Voltage_Target.c ****         resolution = ADC_Voltage_Target_CFG1_RESOLUTION;
 1492              		.loc 1 995 0
 1493 0024 4FF00C03 		mov	r3, #12
 1494 0028 FB75     		strb	r3, [r7, #23]
 1495 002a 1AE0     		b	.L73
 1496              	.L72:
 996:.\Generated_Source\PSoC5/ADC_Voltage_Target.c **** 	}	
 997:.\Generated_Source\PSoC5/ADC_Voltage_Target.c **** 	else if (ADC_Voltage_Target_Config == ADC_Voltage_Target_CFG2)
 1497              		.loc 1 997 0
 1498 002c 40F20003 		movw	r3, #:lower16:ADC_Voltage_Target_Config
 1499 0030 C0F20003 		movt	r3, #:upper16:ADC_Voltage_Target_Config
 1500 0034 1B78     		ldrb	r3, [r3, #0]
 1501 0036 DBB2     		uxtb	r3, r3
 1502 0038 022B     		cmp	r3, #2
 1503 003a 03D1     		bne	.L74
 998:.\Generated_Source\PSoC5/ADC_Voltage_Target.c **** 	{
 999:.\Generated_Source\PSoC5/ADC_Voltage_Target.c **** 	    resolution = ADC_Voltage_Target_CFG2_RESOLUTION;
 1504              		.loc 1 999 0
 1505 003c 4FF01003 		mov	r3, #16
ARM GAS  C:\DOCUME~1\ADMINI~1\LOCALS~1\Temp\ccfNfb5I.s 			page 45


 1506 0040 FB75     		strb	r3, [r7, #23]
 1507 0042 0EE0     		b	.L73
 1508              	.L74:
1000:.\Generated_Source\PSoC5/ADC_Voltage_Target.c **** 	}
1001:.\Generated_Source\PSoC5/ADC_Voltage_Target.c **** 	else if (ADC_Voltage_Target_Config == ADC_Voltage_Target_CFG3)
 1509              		.loc 1 1001 0
 1510 0044 40F20003 		movw	r3, #:lower16:ADC_Voltage_Target_Config
 1511 0048 C0F20003 		movt	r3, #:upper16:ADC_Voltage_Target_Config
 1512 004c 1B78     		ldrb	r3, [r3, #0]
 1513 004e DBB2     		uxtb	r3, r3
 1514 0050 032B     		cmp	r3, #3
 1515 0052 03D1     		bne	.L75
1002:.\Generated_Source\PSoC5/ADC_Voltage_Target.c **** 	{
1003:.\Generated_Source\PSoC5/ADC_Voltage_Target.c **** 	    resolution = ADC_Voltage_Target_CFG3_RESOLUTION;
 1516              		.loc 1 1003 0
 1517 0054 4FF01003 		mov	r3, #16
 1518 0058 FB75     		strb	r3, [r7, #23]
 1519 005a 02E0     		b	.L73
 1520              	.L75:
1004:.\Generated_Source\PSoC5/ADC_Voltage_Target.c **** 	}
1005:.\Generated_Source\PSoC5/ADC_Voltage_Target.c **** 	else
1006:.\Generated_Source\PSoC5/ADC_Voltage_Target.c **** 	{
1007:.\Generated_Source\PSoC5/ADC_Voltage_Target.c **** 	    resolution = ADC_Voltage_Target_CFG4_RESOLUTION;
 1521              		.loc 1 1007 0
 1522 005c 4FF01003 		mov	r3, #16
 1523 0060 FB75     		strb	r3, [r7, #23]
 1524              	.L73:
1008:.\Generated_Source\PSoC5/ADC_Voltage_Target.c **** 	}
1009:.\Generated_Source\PSoC5/ADC_Voltage_Target.c ****     
1010:.\Generated_Source\PSoC5/ADC_Voltage_Target.c ****     if(resolution < 12)
 1525              		.loc 1 1010 0
 1526 0062 FB7D     		ldrb	r3, [r7, #23]	@ zero_extendqisi2
 1527 0064 0B2B     		cmp	r3, #11
 1528 0066 08D8     		bhi	.L76
1011:.\Generated_Source\PSoC5/ADC_Voltage_Target.c ****     {
1012:.\Generated_Source\PSoC5/ADC_Voltage_Target.c ****         A = 1000000;
 1529              		.loc 1 1012 0
 1530 0068 44F24023 		movw	r3, #:lower16:1000000
 1531 006c C0F20F03 		movt	r3, #:upper16:1000000
 1532 0070 FB60     		str	r3, [r7, #12]
1013:.\Generated_Source\PSoC5/ADC_Voltage_Target.c ****         B = 1;
 1533              		.loc 1 1013 0
 1534 0072 4FF00103 		mov	r3, #1
 1535 0076 3B61     		str	r3, [r7, #16]
 1536 0078 1BE0     		b	.L77
 1537              	.L76:
1014:.\Generated_Source\PSoC5/ADC_Voltage_Target.c ****     }
1015:.\Generated_Source\PSoC5/ADC_Voltage_Target.c ****     else if(resolution < 15)
 1538              		.loc 1 1015 0
 1539 007a FB7D     		ldrb	r3, [r7, #23]	@ zero_extendqisi2
 1540 007c 0E2B     		cmp	r3, #14
 1541 007e 08D8     		bhi	.L78
1016:.\Generated_Source\PSoC5/ADC_Voltage_Target.c ****     {
1017:.\Generated_Source\PSoC5/ADC_Voltage_Target.c ****         A = 100000;
 1542              		.loc 1 1017 0
 1543 0080 48F2A063 		movw	r3, #:lower16:100000
 1544 0084 C0F20103 		movt	r3, #:upper16:100000
ARM GAS  C:\DOCUME~1\ADMINI~1\LOCALS~1\Temp\ccfNfb5I.s 			page 46


 1545 0088 FB60     		str	r3, [r7, #12]
1018:.\Generated_Source\PSoC5/ADC_Voltage_Target.c ****         B = 10;
 1546              		.loc 1 1018 0
 1547 008a 4FF00A03 		mov	r3, #10
 1548 008e 3B61     		str	r3, [r7, #16]
 1549 0090 0FE0     		b	.L77
 1550              	.L78:
1019:.\Generated_Source\PSoC5/ADC_Voltage_Target.c ****     }
1020:.\Generated_Source\PSoC5/ADC_Voltage_Target.c ****     else if(resolution < 18)
 1551              		.loc 1 1020 0
 1552 0092 FB7D     		ldrb	r3, [r7, #23]	@ zero_extendqisi2
 1553 0094 112B     		cmp	r3, #17
 1554 0096 06D8     		bhi	.L79
1021:.\Generated_Source\PSoC5/ADC_Voltage_Target.c ****     {
1022:.\Generated_Source\PSoC5/ADC_Voltage_Target.c ****         A = 10000;
 1555              		.loc 1 1022 0
 1556 0098 42F21073 		movw	r3, #10000
 1557 009c FB60     		str	r3, [r7, #12]
1023:.\Generated_Source\PSoC5/ADC_Voltage_Target.c ****         B = 100;
 1558              		.loc 1 1023 0
 1559 009e 4FF06403 		mov	r3, #100
 1560 00a2 3B61     		str	r3, [r7, #16]
 1561 00a4 05E0     		b	.L77
 1562              	.L79:
1024:.\Generated_Source\PSoC5/ADC_Voltage_Target.c ****     }
1025:.\Generated_Source\PSoC5/ADC_Voltage_Target.c ****     else
1026:.\Generated_Source\PSoC5/ADC_Voltage_Target.c ****     {
1027:.\Generated_Source\PSoC5/ADC_Voltage_Target.c ****         A = 1000;
 1563              		.loc 1 1027 0
 1564 00a6 4FF47A73 		mov	r3, #1000
 1565 00aa FB60     		str	r3, [r7, #12]
1028:.\Generated_Source\PSoC5/ADC_Voltage_Target.c ****         B = 1000;
 1566              		.loc 1 1028 0
 1567 00ac 4FF47A73 		mov	r3, #1000
 1568 00b0 3B61     		str	r3, [r7, #16]
 1569              	.L77:
1029:.\Generated_Source\PSoC5/ADC_Voltage_Target.c ****     }
1030:.\Generated_Source\PSoC5/ADC_Voltage_Target.c **** 
1031:.\Generated_Source\PSoC5/ADC_Voltage_Target.c ****     /* Subtract ADC offset */
1032:.\Generated_Source\PSoC5/ADC_Voltage_Target.c ****     adcCounts -= ADC_Voltage_Target_Offset;
 1570              		.loc 1 1032 0
 1571 00b2 40F20003 		movw	r3, #:lower16:ADC_Voltage_Target_Offset
 1572 00b6 C0F20003 		movt	r3, #:upper16:ADC_Voltage_Target_Offset
 1573 00ba 1B68     		ldr	r3, [r3, #0]
 1574 00bc 7A68     		ldr	r2, [r7, #4]
 1575 00be C3EB0203 		rsb	r3, r3, r2
 1576 00c2 7B60     		str	r3, [r7, #4]
1033:.\Generated_Source\PSoC5/ADC_Voltage_Target.c **** 
1034:.\Generated_Source\PSoC5/ADC_Voltage_Target.c ****     uVolts = ((A * adcCounts) / ((int32)ADC_Voltage_Target_CountsPerVolt/B)) ;   
 1577              		.loc 1 1034 0
 1578 00c4 FB68     		ldr	r3, [r7, #12]
 1579 00c6 7A68     		ldr	r2, [r7, #4]
 1580 00c8 02FB03F2 		mul	r2, r2, r3
 1581 00cc 40F20003 		movw	r3, #:lower16:ADC_Voltage_Target_CountsPerVolt
 1582 00d0 C0F20003 		movt	r3, #:upper16:ADC_Voltage_Target_CountsPerVolt
 1583 00d4 1968     		ldr	r1, [r3, #0]
 1584 00d6 3B69     		ldr	r3, [r7, #16]
ARM GAS  C:\DOCUME~1\ADMINI~1\LOCALS~1\Temp\ccfNfb5I.s 			page 47


 1585 00d8 91FBF3F3 		sdiv	r3, r1, r3
 1586 00dc 92FBF3F3 		sdiv	r3, r2, r3
 1587 00e0 BB60     		str	r3, [r7, #8]
1035:.\Generated_Source\PSoC5/ADC_Voltage_Target.c ****   
1036:.\Generated_Source\PSoC5/ADC_Voltage_Target.c ****     return( uVolts );
 1588              		.loc 1 1036 0
 1589 00e2 BB68     		ldr	r3, [r7, #8]
1037:.\Generated_Source\PSoC5/ADC_Voltage_Target.c **** }
 1590              		.loc 1 1037 0
 1591 00e4 1846     		mov	r0, r3
 1592 00e6 07F11C07 		add	r7, r7, #28
 1593 00ea BD46     		mov	sp, r7
 1594 00ec 80BC     		pop	{r7}
 1595 00ee 7047     		bx	lr
 1596              		.cfi_endproc
 1597              	.LFE19:
 1598              		.size	ADC_Voltage_Target_CountsTo_uVolts, .-ADC_Voltage_Target_CountsTo_uVolts
 1599              		.section	.text.ADC_Voltage_Target_IRQ_Start,"ax",%progbits
 1600              		.align	2
 1601              		.global	ADC_Voltage_Target_IRQ_Start
 1602              		.thumb
 1603              		.thumb_func
 1604              		.type	ADC_Voltage_Target_IRQ_Start, %function
 1605              	ADC_Voltage_Target_IRQ_Start:
 1606              	.LFB20:
1038:.\Generated_Source\PSoC5/ADC_Voltage_Target.c **** 
1039:.\Generated_Source\PSoC5/ADC_Voltage_Target.c **** 
1040:.\Generated_Source\PSoC5/ADC_Voltage_Target.c **** /*******************************************************************************
1041:.\Generated_Source\PSoC5/ADC_Voltage_Target.c **** * Function Name: ADC_Voltage_Target_IRQ_Start(void)
1042:.\Generated_Source\PSoC5/ADC_Voltage_Target.c **** ********************************************************************************
1043:.\Generated_Source\PSoC5/ADC_Voltage_Target.c **** *
1044:.\Generated_Source\PSoC5/ADC_Voltage_Target.c **** * Summary:
1045:.\Generated_Source\PSoC5/ADC_Voltage_Target.c **** *  Set up the interrupt and enable it. The IRQ_Start() API is included to 
1046:.\Generated_Source\PSoC5/ADC_Voltage_Target.c **** *  support legacy code. The routine has been replaced by the library source 
1047:.\Generated_Source\PSoC5/ADC_Voltage_Target.c **** *  code for interrupts. IRQ_Start() should not be used in new designs.
1048:.\Generated_Source\PSoC5/ADC_Voltage_Target.c **** * 
1049:.\Generated_Source\PSoC5/ADC_Voltage_Target.c **** * Parameters:  
1050:.\Generated_Source\PSoC5/ADC_Voltage_Target.c **** *   void.
1051:.\Generated_Source\PSoC5/ADC_Voltage_Target.c **** *
1052:.\Generated_Source\PSoC5/ADC_Voltage_Target.c **** * Return:
1053:.\Generated_Source\PSoC5/ADC_Voltage_Target.c **** *   void.
1054:.\Generated_Source\PSoC5/ADC_Voltage_Target.c **** *
1055:.\Generated_Source\PSoC5/ADC_Voltage_Target.c **** *******************************************************************************/
1056:.\Generated_Source\PSoC5/ADC_Voltage_Target.c **** void ADC_Voltage_Target_IRQ_Start(void) 
1057:.\Generated_Source\PSoC5/ADC_Voltage_Target.c **** {
 1607              		.loc 1 1057 0
 1608              		.cfi_startproc
 1609              		@ args = 0, pretend = 0, frame = 0
 1610              		@ frame_needed = 1, uses_anonymous_args = 0
 1611 0000 80B5     		push	{r7, lr}
 1612              	.LCFI53:
 1613              		.cfi_def_cfa_offset 8
 1614 0002 00AF     		add	r7, sp, #0
 1615              		.cfi_offset 14, -4
 1616              		.cfi_offset 7, -8
 1617              	.LCFI54:
 1618              		.cfi_def_cfa_register 7
ARM GAS  C:\DOCUME~1\ADMINI~1\LOCALS~1\Temp\ccfNfb5I.s 			page 48


1058:.\Generated_Source\PSoC5/ADC_Voltage_Target.c ****     /* For all we know the interrupt is active. */
1059:.\Generated_Source\PSoC5/ADC_Voltage_Target.c ****     CyIntDisable(ADC_Voltage_Target_IRQ__INTC_NUMBER );
 1619              		.loc 1 1059 0
 1620 0004 4EF28013 		movw	r3, #:lower16:-536813184
 1621 0008 CEF20003 		movt	r3, #:upper16:-536813184
 1622 000c 4FF00052 		mov	r2, #536870912
 1623 0010 1A60     		str	r2, [r3, #0]
1060:.\Generated_Source\PSoC5/ADC_Voltage_Target.c **** 
1061:.\Generated_Source\PSoC5/ADC_Voltage_Target.c ****     /* Set the ISR to point to the ADC_DelSig_1_IRQ Interrupt. */
1062:.\Generated_Source\PSoC5/ADC_Voltage_Target.c ****     CyIntSetVector(ADC_Voltage_Target_IRQ__INTC_NUMBER, ADC_Voltage_Target_ISR1);
 1624              		.loc 1 1062 0
 1625 0012 4FF01D00 		mov	r0, #29
 1626 0016 40F20001 		movw	r1, #:lower16:ADC_Voltage_Target_ISR1
 1627 001a C0F20001 		movt	r1, #:upper16:ADC_Voltage_Target_ISR1
 1628 001e FFF7FEFF 		bl	CyIntSetVector
1063:.\Generated_Source\PSoC5/ADC_Voltage_Target.c **** 
1064:.\Generated_Source\PSoC5/ADC_Voltage_Target.c ****     /* Set the priority. */
1065:.\Generated_Source\PSoC5/ADC_Voltage_Target.c ****     CyIntSetPriority(ADC_Voltage_Target_IRQ__INTC_NUMBER, ADC_Voltage_Target_IRQ_INTC_PRIOR_NUMBER)
 1629              		.loc 1 1065 0
 1630 0022 4FF01D00 		mov	r0, #29
 1631 0026 4FF00601 		mov	r1, #6
 1632 002a FFF7FEFF 		bl	CyIntSetPriority
1066:.\Generated_Source\PSoC5/ADC_Voltage_Target.c **** 
1067:.\Generated_Source\PSoC5/ADC_Voltage_Target.c ****     /* Enable interrupt. */
1068:.\Generated_Source\PSoC5/ADC_Voltage_Target.c ****     CyIntEnable(ADC_Voltage_Target_IRQ__INTC_NUMBER);
 1633              		.loc 1 1068 0
 1634 002e 4EF20013 		movw	r3, #:lower16:-536813312
 1635 0032 CEF20003 		movt	r3, #:upper16:-536813312
 1636 0036 4FF00052 		mov	r2, #536870912
 1637 003a 1A60     		str	r2, [r3, #0]
1069:.\Generated_Source\PSoC5/ADC_Voltage_Target.c **** }
 1638              		.loc 1 1069 0
 1639 003c 80BD     		pop	{r7, pc}
 1640              		.cfi_endproc
 1641              	.LFE20:
 1642              		.size	ADC_Voltage_Target_IRQ_Start, .-ADC_Voltage_Target_IRQ_Start
 1643 003e 00BF     		.section	.text.ADC_Voltage_Target_InitConfig,"ax",%progbits
 1644              		.align	2
 1645              		.global	ADC_Voltage_Target_InitConfig
 1646              		.thumb
 1647              		.thumb_func
 1648              		.type	ADC_Voltage_Target_InitConfig, %function
 1649              	ADC_Voltage_Target_InitConfig:
 1650              	.LFB21:
1070:.\Generated_Source\PSoC5/ADC_Voltage_Target.c **** 
1071:.\Generated_Source\PSoC5/ADC_Voltage_Target.c **** 
1072:.\Generated_Source\PSoC5/ADC_Voltage_Target.c **** /*******************************************************************************
1073:.\Generated_Source\PSoC5/ADC_Voltage_Target.c **** * Function Name: ADC_Voltage_Target_InitConfig(uint8 config)
1074:.\Generated_Source\PSoC5/ADC_Voltage_Target.c **** ********************************************************************************
1075:.\Generated_Source\PSoC5/ADC_Voltage_Target.c **** *
1076:.\Generated_Source\PSoC5/ADC_Voltage_Target.c **** * Summary:
1077:.\Generated_Source\PSoC5/ADC_Voltage_Target.c **** *  Initializes all registers based on customizer settings
1078:.\Generated_Source\PSoC5/ADC_Voltage_Target.c **** *
1079:.\Generated_Source\PSoC5/ADC_Voltage_Target.c **** * Parameters:  
1080:.\Generated_Source\PSoC5/ADC_Voltage_Target.c **** *   void
1081:.\Generated_Source\PSoC5/ADC_Voltage_Target.c **** *
1082:.\Generated_Source\PSoC5/ADC_Voltage_Target.c **** * Return: 
ARM GAS  C:\DOCUME~1\ADMINI~1\LOCALS~1\Temp\ccfNfb5I.s 			page 49


1083:.\Generated_Source\PSoC5/ADC_Voltage_Target.c **** *  void
1084:.\Generated_Source\PSoC5/ADC_Voltage_Target.c **** *
1085:.\Generated_Source\PSoC5/ADC_Voltage_Target.c **** * Global variables:
1086:.\Generated_Source\PSoC5/ADC_Voltage_Target.c **** *  ADC_Voltage_Target_initVar:  used to set the common registers in the beginning.
1087:.\Generated_Source\PSoC5/ADC_Voltage_Target.c **** *  ADC_Voltage_Target_CountsPerVolt:  Used to set the default counts per volt.
1088:.\Generated_Source\PSoC5/ADC_Voltage_Target.c **** *
1089:.\Generated_Source\PSoC5/ADC_Voltage_Target.c **** *******************************************************************************/
1090:.\Generated_Source\PSoC5/ADC_Voltage_Target.c **** void ADC_Voltage_Target_InitConfig(uint8 config) 
1091:.\Generated_Source\PSoC5/ADC_Voltage_Target.c **** {
 1651              		.loc 1 1091 0
 1652              		.cfi_startproc
 1653              		@ args = 0, pretend = 0, frame = 8
 1654              		@ frame_needed = 1, uses_anonymous_args = 0
 1655 0000 80B5     		push	{r7, lr}
 1656              	.LCFI55:
 1657              		.cfi_def_cfa_offset 8
 1658 0002 82B0     		sub	sp, sp, #8
 1659              	.LCFI56:
 1660              		.cfi_def_cfa_offset 16
 1661 0004 00AF     		add	r7, sp, #0
 1662              		.cfi_offset 14, -4
 1663              		.cfi_offset 7, -8
 1664              	.LCFI57:
 1665              		.cfi_def_cfa_register 7
 1666 0006 0346     		mov	r3, r0
 1667 0008 FB71     		strb	r3, [r7, #7]
1092:.\Generated_Source\PSoC5/ADC_Voltage_Target.c ****     ADC_Voltage_Target_stopConversion = 0u;
 1668              		.loc 1 1092 0
 1669 000a 40F20003 		movw	r3, #:lower16:ADC_Voltage_Target_stopConversion
 1670 000e C0F20003 		movt	r3, #:upper16:ADC_Voltage_Target_stopConversion
 1671 0012 4FF00002 		mov	r2, #0
 1672 0016 1A70     		strb	r2, [r3, #0]
1093:.\Generated_Source\PSoC5/ADC_Voltage_Target.c ****     
1094:.\Generated_Source\PSoC5/ADC_Voltage_Target.c ****     if(ADC_Voltage_Target_initVar == 0u)
 1673              		.loc 1 1094 0
 1674 0018 40F20003 		movw	r3, #:lower16:ADC_Voltage_Target_initVar
 1675 001c C0F20003 		movt	r3, #:upper16:ADC_Voltage_Target_initVar
 1676 0020 1B78     		ldrb	r3, [r3, #0]	@ zero_extendqisi2
 1677 0022 002B     		cmp	r3, #0
 1678 0024 68D1     		bne	.L84
1095:.\Generated_Source\PSoC5/ADC_Voltage_Target.c ****         {
1096:.\Generated_Source\PSoC5/ADC_Voltage_Target.c ****             ADC_Voltage_Target_DSM_DEM0_REG    = ADC_Voltage_Target_CFG1_DSM_DEM0;    
 1679              		.loc 1 1096 0
 1680 0026 45F69603 		movw	r3, #:lower16:1073764502
 1681 002a C4F20003 		movt	r3, #:upper16:1073764502
 1682 002e 4FF00702 		mov	r2, #7
 1683 0032 1A70     		strb	r2, [r3, #0]
1097:.\Generated_Source\PSoC5/ADC_Voltage_Target.c ****             ADC_Voltage_Target_DSM_DEM1_REG    = ADC_Voltage_Target_CFG1_DSM_DEM1;    
 1684              		.loc 1 1097 0
 1685 0034 45F69703 		movw	r3, #:lower16:1073764503
 1686 0038 C4F20003 		movt	r3, #:upper16:1073764503
 1687 003c 4FF00002 		mov	r2, #0
 1688 0040 1A70     		strb	r2, [r3, #0]
1098:.\Generated_Source\PSoC5/ADC_Voltage_Target.c ****             ADC_Voltage_Target_DSM_MISC_REG    = ADC_Voltage_Target_CFG1_DSM_MISC;    
 1689              		.loc 1 1098 0
 1690 0042 45F69E03 		movw	r3, #:lower16:1073764510
 1691 0046 C4F20003 		movt	r3, #:upper16:1073764510
ARM GAS  C:\DOCUME~1\ADMINI~1\LOCALS~1\Temp\ccfNfb5I.s 			page 50


 1692 004a 4FF00002 		mov	r2, #0
 1693 004e 1A70     		strb	r2, [r3, #0]
1099:.\Generated_Source\PSoC5/ADC_Voltage_Target.c ****             ADC_Voltage_Target_DSM_CLK_REG    |= ADC_Voltage_Target_CFG1_DSM_CLK; 
 1694              		.loc 1 1099 0
 1695 0050 45F60733 		movw	r3, #:lower16:1073765127
 1696 0054 C4F20003 		movt	r3, #:upper16:1073765127
 1697 0058 45F60732 		movw	r2, #:lower16:1073765127
 1698 005c C4F20002 		movt	r2, #:upper16:1073765127
 1699 0060 1278     		ldrb	r2, [r2, #0]
 1700 0062 D2B2     		uxtb	r2, r2
 1701 0064 42F01802 		orr	r2, r2, #24
 1702 0068 D2B2     		uxtb	r2, r2
 1703 006a 1A70     		strb	r2, [r3, #0]
1100:.\Generated_Source\PSoC5/ADC_Voltage_Target.c ****             ADC_Voltage_Target_DSM_REF1_REG    = ADC_Voltage_Target_CFG1_DSM_REF1;    
 1704              		.loc 1 1100 0
 1705 006c 45F69303 		movw	r3, #:lower16:1073764499
 1706 0070 C4F20003 		movt	r3, #:upper16:1073764499
 1707 0074 4FF00002 		mov	r2, #0
 1708 0078 1A70     		strb	r2, [r3, #0]
1101:.\Generated_Source\PSoC5/ADC_Voltage_Target.c ****         
1102:.\Generated_Source\PSoC5/ADC_Voltage_Target.c ****             ADC_Voltage_Target_DSM_OUT0_REG    = ADC_Voltage_Target_CFG1_DSM_OUT0;    
 1709              		.loc 1 1102 0
 1710 007a 45F68833 		movw	r3, #:lower16:1073765256
 1711 007e C4F20003 		movt	r3, #:upper16:1073765256
 1712 0082 4FF00002 		mov	r2, #0
 1713 0086 1A70     		strb	r2, [r3, #0]
1103:.\Generated_Source\PSoC5/ADC_Voltage_Target.c ****             ADC_Voltage_Target_DSM_OUT1_REG    = ADC_Voltage_Target_CFG1_DSM_OUT1;   
 1714              		.loc 1 1103 0
 1715 0088 45F68933 		movw	r3, #:lower16:1073765257
 1716 008c C4F20003 		movt	r3, #:upper16:1073765257
 1717 0090 4FF00002 		mov	r2, #0
 1718 0094 1A70     		strb	r2, [r3, #0]
1104:.\Generated_Source\PSoC5/ADC_Voltage_Target.c ****         
1105:.\Generated_Source\PSoC5/ADC_Voltage_Target.c ****             ADC_Voltage_Target_DSM_CR0_REG     = ADC_Voltage_Target_CFG1_DSM_CR0;     
 1719              		.loc 1 1105 0
 1720 0096 45F68003 		movw	r3, #:lower16:1073764480
 1721 009a C4F20003 		movt	r3, #:upper16:1073764480
 1722 009e 4FF00A02 		mov	r2, #10
 1723 00a2 1A70     		strb	r2, [r3, #0]
1106:.\Generated_Source\PSoC5/ADC_Voltage_Target.c ****             ADC_Voltage_Target_DSM_CR1_REG     = ADC_Voltage_Target_CFG1_DSM_CR1;     
 1724              		.loc 1 1106 0
 1725 00a4 45F68103 		movw	r3, #:lower16:1073764481
 1726 00a8 C4F20003 		movt	r3, #:upper16:1073764481
 1727 00ac 4FF00002 		mov	r2, #0
 1728 00b0 1A70     		strb	r2, [r3, #0]
1107:.\Generated_Source\PSoC5/ADC_Voltage_Target.c ****             ADC_Voltage_Target_DSM_CR2_REG     = ADC_Voltage_Target_CFG1_DSM_CR2;     
 1729              		.loc 1 1107 0
 1730 00b2 45F68203 		movw	r3, #:lower16:1073764482
 1731 00b6 C4F20003 		movt	r3, #:upper16:1073764482
 1732 00ba 4FF07A02 		mov	r2, #122
 1733 00be 1A70     		strb	r2, [r3, #0]
1108:.\Generated_Source\PSoC5/ADC_Voltage_Target.c ****             ADC_Voltage_Target_DSM_CR3_REG     = ADC_Voltage_Target_CFG1_DSM_CR3;     
 1734              		.loc 1 1108 0
 1735 00c0 45F68303 		movw	r3, #:lower16:1073764483
 1736 00c4 C4F20003 		movt	r3, #:upper16:1073764483
 1737 00c8 4FF00002 		mov	r2, #0
 1738 00cc 1A70     		strb	r2, [r3, #0]
ARM GAS  C:\DOCUME~1\ADMINI~1\LOCALS~1\Temp\ccfNfb5I.s 			page 51


1109:.\Generated_Source\PSoC5/ADC_Voltage_Target.c ****             ADC_Voltage_Target_DSM_CR13_REG    = ADC_Voltage_Target_CFG1_DSM_CR13;     
 1739              		.loc 1 1109 0
 1740 00ce 45F68D03 		movw	r3, #:lower16:1073764493
 1741 00d2 C4F20003 		movt	r3, #:upper16:1073764493
 1742 00d6 4FF00002 		mov	r2, #0
 1743 00da 1A70     		strb	r2, [r3, #0]
1110:.\Generated_Source\PSoC5/ADC_Voltage_Target.c ****             
1111:.\Generated_Source\PSoC5/ADC_Voltage_Target.c ****             ADC_Voltage_Target_DEC_SR_REG      = ADC_Voltage_Target_CFG1_DEC_SR;      
 1744              		.loc 1 1111 0
 1745 00dc 44F60163 		movw	r3, #:lower16:1073761793
 1746 00e0 C4F20003 		movt	r3, #:upper16:1073761793
 1747 00e4 4FF01402 		mov	r2, #20
 1748 00e8 1A70     		strb	r2, [r3, #0]
1112:.\Generated_Source\PSoC5/ADC_Voltage_Target.c ****             ADC_Voltage_Target_DEC_COHER_REG   = ADC_Voltage_Target_CFG1_DEC_COHER;   
 1749              		.loc 1 1112 0
 1750 00ea 44F61463 		movw	r3, #:lower16:1073761812
 1751 00ee C4F20003 		movt	r3, #:upper16:1073761812
 1752 00f2 4FF00102 		mov	r2, #1
 1753 00f6 1A70     		strb	r2, [r3, #0]
 1754              	.L84:
1113:.\Generated_Source\PSoC5/ADC_Voltage_Target.c ****         }
1114:.\Generated_Source\PSoC5/ADC_Voltage_Target.c **** 
1115:.\Generated_Source\PSoC5/ADC_Voltage_Target.c ****     if (config == 1u)
 1755              		.loc 1 1115 0
 1756 00f8 FB79     		ldrb	r3, [r7, #7]	@ zero_extendqisi2
 1757 00fa 012B     		cmp	r3, #1
 1758 00fc 40F0E880 		bne	.L86
1116:.\Generated_Source\PSoC5/ADC_Voltage_Target.c ****     {
1117:.\Generated_Source\PSoC5/ADC_Voltage_Target.c ****         /* Default Config */   
1118:.\Generated_Source\PSoC5/ADC_Voltage_Target.c ****         ADC_Voltage_Target_DEC_CR_REG      = ADC_Voltage_Target_CFG1_DEC_CR;      
 1759              		.loc 1 1118 0
 1760 0100 44F60063 		movw	r3, #:lower16:1073761792
 1761 0104 C4F20003 		movt	r3, #:upper16:1073761792
 1762 0108 4FF03802 		mov	r2, #56
 1763 010c 1A70     		strb	r2, [r3, #0]
1119:.\Generated_Source\PSoC5/ADC_Voltage_Target.c ****         ADC_Voltage_Target_DEC_SHIFT1_REG  = ADC_Voltage_Target_CFG1_DEC_SHIFT1;  
 1764              		.loc 1 1119 0
 1765 010e 44F60263 		movw	r3, #:lower16:1073761794
 1766 0112 C4F20003 		movt	r3, #:upper16:1073761794
 1767 0116 4FF00602 		mov	r2, #6
 1768 011a 1A70     		strb	r2, [r3, #0]
1120:.\Generated_Source\PSoC5/ADC_Voltage_Target.c ****         ADC_Voltage_Target_DEC_SHIFT2_REG  = ADC_Voltage_Target_CFG1_DEC_SHIFT2;  
 1769              		.loc 1 1120 0
 1770 011c 44F60363 		movw	r3, #:lower16:1073761795
 1771 0120 C4F20003 		movt	r3, #:upper16:1073761795
 1772 0124 4FF00802 		mov	r2, #8
 1773 0128 1A70     		strb	r2, [r3, #0]
1121:.\Generated_Source\PSoC5/ADC_Voltage_Target.c ****         ADC_Voltage_Target_DEC_DR2_REG     = ADC_Voltage_Target_CFG1_DEC_DR2;     
 1774              		.loc 1 1121 0
 1775 012a 44F60463 		movw	r3, #:lower16:1073761796
 1776 012e C4F20003 		movt	r3, #:upper16:1073761796
 1777 0132 4FF00002 		mov	r2, #0
 1778 0136 1A70     		strb	r2, [r3, #0]
1122:.\Generated_Source\PSoC5/ADC_Voltage_Target.c ****         ADC_Voltage_Target_DEC_DR2H_REG    = ADC_Voltage_Target_CFG1_DEC_DR2H;    
 1779              		.loc 1 1122 0
 1780 0138 44F60563 		movw	r3, #:lower16:1073761797
 1781 013c C4F20003 		movt	r3, #:upper16:1073761797
ARM GAS  C:\DOCUME~1\ADMINI~1\LOCALS~1\Temp\ccfNfb5I.s 			page 52


 1782 0140 4FF00002 		mov	r2, #0
 1783 0144 1A70     		strb	r2, [r3, #0]
1123:.\Generated_Source\PSoC5/ADC_Voltage_Target.c ****         ADC_Voltage_Target_DEC_DR1_REG     = ADC_Voltage_Target_CFG1_DEC_DR1;     
 1784              		.loc 1 1123 0
 1785 0146 44F60663 		movw	r3, #:lower16:1073761798
 1786 014a C4F20003 		movt	r3, #:upper16:1073761798
 1787 014e 4FF01F02 		mov	r2, #31
 1788 0152 1A70     		strb	r2, [r3, #0]
1124:.\Generated_Source\PSoC5/ADC_Voltage_Target.c ****         ADC_Voltage_Target_DEC_OCOR_REG    = ADC_Voltage_Target_CFG1_DEC_OCOR;    
 1789              		.loc 1 1124 0
 1790 0154 44F60863 		movw	r3, #:lower16:1073761800
 1791 0158 C4F20003 		movt	r3, #:upper16:1073761800
 1792 015c 4FF00002 		mov	r2, #0
 1793 0160 1A70     		strb	r2, [r3, #0]
1125:.\Generated_Source\PSoC5/ADC_Voltage_Target.c ****         ADC_Voltage_Target_DEC_OCORM_REG   = ADC_Voltage_Target_CFG1_DEC_OCORM;   
 1794              		.loc 1 1125 0
 1795 0162 44F60963 		movw	r3, #:lower16:1073761801
 1796 0166 C4F20003 		movt	r3, #:upper16:1073761801
 1797 016a 4FF00002 		mov	r2, #0
 1798 016e 1A70     		strb	r2, [r3, #0]
1126:.\Generated_Source\PSoC5/ADC_Voltage_Target.c ****         ADC_Voltage_Target_DEC_OCORH_REG   = ADC_Voltage_Target_CFG1_DEC_OCORH;   
 1799              		.loc 1 1126 0
 1800 0170 44F60A63 		movw	r3, #:lower16:1073761802
 1801 0174 C4F20003 		movt	r3, #:upper16:1073761802
 1802 0178 4FF00002 		mov	r2, #0
 1803 017c 1A70     		strb	r2, [r3, #0]
1127:.\Generated_Source\PSoC5/ADC_Voltage_Target.c ****         
1128:.\Generated_Source\PSoC5/ADC_Voltage_Target.c ****         ADC_Voltage_Target_DSM_CR4_REG     = ADC_Voltage_Target_CFG1_DSM_CR4;     
 1804              		.loc 1 1128 0
 1805 017e 45F68403 		movw	r3, #:lower16:1073764484
 1806 0182 C4F20003 		movt	r3, #:upper16:1073764484
 1807 0186 4FF01402 		mov	r2, #20
 1808 018a 1A70     		strb	r2, [r3, #0]
1129:.\Generated_Source\PSoC5/ADC_Voltage_Target.c ****         ADC_Voltage_Target_DSM_CR5_REG     = ADC_Voltage_Target_CFG1_DSM_CR5;     
 1809              		.loc 1 1129 0
 1810 018c 45F68503 		movw	r3, #:lower16:1073764485
 1811 0190 C4F20003 		movt	r3, #:upper16:1073764485
 1812 0194 4FF00B02 		mov	r2, #11
 1813 0198 1A70     		strb	r2, [r3, #0]
1130:.\Generated_Source\PSoC5/ADC_Voltage_Target.c ****         ADC_Voltage_Target_DSM_CR6_REG     = ADC_Voltage_Target_CFG1_DSM_CR6;     
 1814              		.loc 1 1130 0
 1815 019a 45F68603 		movw	r3, #:lower16:1073764486
 1816 019e C4F20003 		movt	r3, #:upper16:1073764486
 1817 01a2 4FF03102 		mov	r2, #49
 1818 01a6 1A70     		strb	r2, [r3, #0]
1131:.\Generated_Source\PSoC5/ADC_Voltage_Target.c ****         ADC_Voltage_Target_DSM_CR7_REG     = ADC_Voltage_Target_CFG1_DSM_CR7;     
 1819              		.loc 1 1131 0
 1820 01a8 45F68703 		movw	r3, #:lower16:1073764487
 1821 01ac C4F20003 		movt	r3, #:upper16:1073764487
 1822 01b0 4FF00002 		mov	r2, #0
 1823 01b4 1A70     		strb	r2, [r3, #0]
1132:.\Generated_Source\PSoC5/ADC_Voltage_Target.c ****         ADC_Voltage_Target_DSM_CR8_REG     = ADC_Voltage_Target_CFG1_DSM_CR8;     
 1824              		.loc 1 1132 0
 1825 01b6 45F68803 		movw	r3, #:lower16:1073764488
 1826 01ba C4F20003 		movt	r3, #:upper16:1073764488
 1827 01be 4FF01202 		mov	r2, #18
 1828 01c2 1A70     		strb	r2, [r3, #0]
ARM GAS  C:\DOCUME~1\ADMINI~1\LOCALS~1\Temp\ccfNfb5I.s 			page 53


1133:.\Generated_Source\PSoC5/ADC_Voltage_Target.c ****         ADC_Voltage_Target_DSM_CR9_REG     = ADC_Voltage_Target_CFG1_DSM_CR9;     
 1829              		.loc 1 1133 0
 1830 01c4 45F68903 		movw	r3, #:lower16:1073764489
 1831 01c8 C4F20003 		movt	r3, #:upper16:1073764489
 1832 01cc 4FF01302 		mov	r2, #19
 1833 01d0 1A70     		strb	r2, [r3, #0]
1134:.\Generated_Source\PSoC5/ADC_Voltage_Target.c ****         ADC_Voltage_Target_DSM_CR10_REG    = ADC_Voltage_Target_CFG1_DSM_CR10;    
 1834              		.loc 1 1134 0
 1835 01d2 45F68A03 		movw	r3, #:lower16:1073764490
 1836 01d6 C4F20003 		movt	r3, #:upper16:1073764490
 1837 01da 4FF04402 		mov	r2, #68
 1838 01de 1A70     		strb	r2, [r3, #0]
1135:.\Generated_Source\PSoC5/ADC_Voltage_Target.c ****         ADC_Voltage_Target_DSM_CR11_REG    = ADC_Voltage_Target_CFG1_DSM_CR11;    
 1839              		.loc 1 1135 0
 1840 01e0 45F68B03 		movw	r3, #:lower16:1073764491
 1841 01e4 C4F20003 		movt	r3, #:upper16:1073764491
 1842 01e8 4FF04802 		mov	r2, #72
 1843 01ec 1A70     		strb	r2, [r3, #0]
1136:.\Generated_Source\PSoC5/ADC_Voltage_Target.c ****         ADC_Voltage_Target_DSM_CR12_REG    = ADC_Voltage_Target_CFG1_DSM_CR12;    
 1844              		.loc 1 1136 0
 1845 01ee 45F68C03 		movw	r3, #:lower16:1073764492
 1846 01f2 C4F20003 		movt	r3, #:upper16:1073764492
 1847 01f6 4FF00102 		mov	r2, #1
 1848 01fa 1A70     		strb	r2, [r3, #0]
1137:.\Generated_Source\PSoC5/ADC_Voltage_Target.c ****         ADC_Voltage_Target_DSM_CR14_REG    = ADC_Voltage_Target_CFG1_DSM_CR14;    
 1849              		.loc 1 1137 0
 1850 01fc 45F68E03 		movw	r3, #:lower16:1073764494
 1851 0200 C4F20003 		movt	r3, #:upper16:1073764494
 1852 0204 4FF00002 		mov	r2, #0
 1853 0208 1A70     		strb	r2, [r3, #0]
1138:.\Generated_Source\PSoC5/ADC_Voltage_Target.c ****         ADC_Voltage_Target_DSM_CR15_REG    = ADC_Voltage_Target_CFG1_DSM_CR15;    
 1854              		.loc 1 1138 0
 1855 020a 45F68F03 		movw	r3, #:lower16:1073764495
 1856 020e C4F20003 		movt	r3, #:upper16:1073764495
 1857 0212 4FF00002 		mov	r2, #0
 1858 0216 1A70     		strb	r2, [r3, #0]
1139:.\Generated_Source\PSoC5/ADC_Voltage_Target.c ****         ADC_Voltage_Target_DSM_CR16_REG    = ADC_Voltage_Target_CFG1_DSM_CR16;    
 1859              		.loc 1 1139 0
 1860 0218 45F69003 		movw	r3, #:lower16:1073764496
 1861 021c C4F20003 		movt	r3, #:upper16:1073764496
 1862 0220 4FF00A02 		mov	r2, #10
 1863 0224 1A70     		strb	r2, [r3, #0]
1140:.\Generated_Source\PSoC5/ADC_Voltage_Target.c ****         ADC_Voltage_Target_DSM_CR17_REG    = ADC_Voltage_Target_CFG1_DSM_CR17;
 1864              		.loc 1 1140 0
 1865 0226 45F69103 		movw	r3, #:lower16:1073764497
 1866 022a C4F20003 		movt	r3, #:upper16:1073764497
 1867 022e 4FF04302 		mov	r2, #67
 1868 0232 1A70     		strb	r2, [r3, #0]
1141:.\Generated_Source\PSoC5/ADC_Voltage_Target.c **** 		/* Set DSM_REF0_REG by disabling and enabling the PRESS cirucit */
1142:.\Generated_Source\PSoC5/ADC_Voltage_Target.c **** 		ADC_Voltage_Target_SetDSMRef0Reg(ADC_Voltage_Target_CFG1_DSM_REF0);
 1869              		.loc 1 1142 0
 1870 0234 4FF05200 		mov	r0, #82
 1871 0238 FFF7FEFF 		bl	ADC_Voltage_Target_SetDSMRef0Reg
1143:.\Generated_Source\PSoC5/ADC_Voltage_Target.c ****         ADC_Voltage_Target_DSM_REF2_REG    = ADC_Voltage_Target_CFG1_DSM_REF2;    
 1872              		.loc 1 1143 0
 1873 023c 45F69403 		movw	r3, #:lower16:1073764500
 1874 0240 C4F20003 		movt	r3, #:upper16:1073764500
ARM GAS  C:\DOCUME~1\ADMINI~1\LOCALS~1\Temp\ccfNfb5I.s 			page 54


 1875 0244 4FF05802 		mov	r2, #88
 1876 0248 1A70     		strb	r2, [r3, #0]
1144:.\Generated_Source\PSoC5/ADC_Voltage_Target.c ****         ADC_Voltage_Target_DSM_REF3_REG    = ADC_Voltage_Target_CFG1_DSM_REF3;    
 1877              		.loc 1 1144 0
 1878 024a 45F69503 		movw	r3, #:lower16:1073764501
 1879 024e C4F20003 		movt	r3, #:upper16:1073764501
 1880 0252 4FF00002 		mov	r2, #0
 1881 0256 1A70     		strb	r2, [r3, #0]
1145:.\Generated_Source\PSoC5/ADC_Voltage_Target.c ****         
1146:.\Generated_Source\PSoC5/ADC_Voltage_Target.c ****         ADC_Voltage_Target_DSM_BUF0_REG    = ADC_Voltage_Target_CFG1_DSM_BUF0;    
 1882              		.loc 1 1146 0
 1883 0258 45F69A03 		movw	r3, #:lower16:1073764506
 1884 025c C4F20003 		movt	r3, #:upper16:1073764506
 1885 0260 4FF00502 		mov	r2, #5
 1886 0264 1A70     		strb	r2, [r3, #0]
1147:.\Generated_Source\PSoC5/ADC_Voltage_Target.c ****         ADC_Voltage_Target_DSM_BUF1_REG    = ADC_Voltage_Target_CFG1_DSM_BUF1;    
 1887              		.loc 1 1147 0
 1888 0266 45F69B03 		movw	r3, #:lower16:1073764507
 1889 026a C4F20003 		movt	r3, #:upper16:1073764507
 1890 026e 4FF00202 		mov	r2, #2
 1891 0272 1A70     		strb	r2, [r3, #0]
1148:.\Generated_Source\PSoC5/ADC_Voltage_Target.c ****         ADC_Voltage_Target_DSM_BUF2_REG    = ADC_Voltage_Target_CFG1_DSM_BUF2;   
 1892              		.loc 1 1148 0
 1893 0274 45F69C03 		movw	r3, #:lower16:1073764508
 1894 0278 C4F20003 		movt	r3, #:upper16:1073764508
 1895 027c 4FF00102 		mov	r2, #1
 1896 0280 1A70     		strb	r2, [r3, #0]
1149:.\Generated_Source\PSoC5/ADC_Voltage_Target.c ****         ADC_Voltage_Target_DSM_BUF3_REG    = ADC_Voltage_Target_CFG1_DSM_BUF3;
 1897              		.loc 1 1149 0
 1898 0282 45F69D03 		movw	r3, #:lower16:1073764509
 1899 0286 C4F20003 		movt	r3, #:upper16:1073764509
 1900 028a 4FF00002 		mov	r2, #0
 1901 028e 1A70     		strb	r2, [r3, #0]
1150:.\Generated_Source\PSoC5/ADC_Voltage_Target.c ****         #if (CY_PSOC5A)
1151:.\Generated_Source\PSoC5/ADC_Voltage_Target.c ****             ADC_Voltage_Target_DSM_CLK_REG    |= ADC_Voltage_Target_CFG1_DSM_CLK; 
1152:.\Generated_Source\PSoC5/ADC_Voltage_Target.c ****         #endif /* CY_PSOC5A */
1153:.\Generated_Source\PSoC5/ADC_Voltage_Target.c ****         
1154:.\Generated_Source\PSoC5/ADC_Voltage_Target.c ****         /* To select either Vssa or Vref to -ve input of DSM depending on 
1155:.\Generated_Source\PSoC5/ADC_Voltage_Target.c ****           the input  range selected.
1156:.\Generated_Source\PSoC5/ADC_Voltage_Target.c ****         */
1157:.\Generated_Source\PSoC5/ADC_Voltage_Target.c ****         
1158:.\Generated_Source\PSoC5/ADC_Voltage_Target.c ****         #if(ADC_Voltage_Target_DEFAULT_INPUT_MODE)
1159:.\Generated_Source\PSoC5/ADC_Voltage_Target.c ****             #if (CY_PSOC3 || CY_PSOC5LP)
1160:.\Generated_Source\PSoC5/ADC_Voltage_Target.c ****                 #if (ADC_Voltage_Target_CFG1_RANGE == ADC_Voltage_Target_IR_VSSA_TO_2VREF)
1161:.\Generated_Source\PSoC5/ADC_Voltage_Target.c ****                     ADC_Voltage_Target_AMux_Select(1);
1162:.\Generated_Source\PSoC5/ADC_Voltage_Target.c ****                 #else
1163:.\Generated_Source\PSoC5/ADC_Voltage_Target.c ****                     ADC_Voltage_Target_AMux_Select(0);
 1902              		.loc 1 1163 0
 1903 0290 4FF00000 		mov	r0, #0
 1904 0294 FFF7FEFF 		bl	ADC_Voltage_Target_AMux_Select
1164:.\Generated_Source\PSoC5/ADC_Voltage_Target.c ****                 #endif /* ADC_Voltage_Target_IR_VSSA_TO_2VREF) */
1165:.\Generated_Source\PSoC5/ADC_Voltage_Target.c ****             #elif (CY_PSOC5A)
1166:.\Generated_Source\PSoC5/ADC_Voltage_Target.c ****                 ADC_Voltage_Target_AMux_Select(0);
1167:.\Generated_Source\PSoC5/ADC_Voltage_Target.c ****             #endif /* CY_PSOC3 || CY_PSOC5LP */
1168:.\Generated_Source\PSoC5/ADC_Voltage_Target.c ****         #endif /* ADC_Voltage_Target_DEFAULT_INPUT_MODE */
1169:.\Generated_Source\PSoC5/ADC_Voltage_Target.c ****         
1170:.\Generated_Source\PSoC5/ADC_Voltage_Target.c ****         /* Set the Conversion stop if resolution is above 16 bit and conversion 
ARM GAS  C:\DOCUME~1\ADMINI~1\LOCALS~1\Temp\ccfNfb5I.s 			page 55


1171:.\Generated_Source\PSoC5/ADC_Voltage_Target.c ****            mode is Single sample */
1172:.\Generated_Source\PSoC5/ADC_Voltage_Target.c ****         #if(ADC_Voltage_Target_CFG1_RESOLUTION > 16 && \
1173:.\Generated_Source\PSoC5/ADC_Voltage_Target.c ****             ADC_Voltage_Target_CFG1_CONV_MODE == ADC_Voltage_Target_MODE_SINGLE_SAMPLE) 
1174:.\Generated_Source\PSoC5/ADC_Voltage_Target.c ****             ADC_Voltage_Target_stopConversion = 1;
1175:.\Generated_Source\PSoC5/ADC_Voltage_Target.c ****         #endif /* Single sample with resolution above 16 bits. */
1176:.\Generated_Source\PSoC5/ADC_Voltage_Target.c ****         ADC_Voltage_Target_CountsPerVolt = (uint32)ADC_Voltage_Target_CFG1_COUNTS_PER_VOLT;
 1905              		.loc 1 1176 0
 1906 0298 40F20003 		movw	r3, #:lower16:ADC_Voltage_Target_CountsPerVolt
 1907 029c C0F20003 		movt	r3, #:upper16:ADC_Voltage_Target_CountsPerVolt
 1908 02a0 40F23332 		movw	r2, #819
 1909 02a4 1A60     		str	r2, [r3, #0]
1177:.\Generated_Source\PSoC5/ADC_Voltage_Target.c ****         
1178:.\Generated_Source\PSoC5/ADC_Voltage_Target.c ****         /* Start and set interrupt vector */
1179:.\Generated_Source\PSoC5/ADC_Voltage_Target.c ****         CyIntSetPriority(ADC_Voltage_Target_IRQ__INTC_NUMBER, ADC_Voltage_Target_IRQ_INTC_PRIOR_NUM
 1910              		.loc 1 1179 0
 1911 02a6 4FF01D00 		mov	r0, #29
 1912 02aa 4FF00601 		mov	r1, #6
 1913 02ae FFF7FEFF 		bl	CyIntSetPriority
1180:.\Generated_Source\PSoC5/ADC_Voltage_Target.c ****         CyIntSetVector(ADC_Voltage_Target_IRQ__INTC_NUMBER, ADC_Voltage_Target_ISR1 );
 1914              		.loc 1 1180 0
 1915 02b2 4FF01D00 		mov	r0, #29
 1916 02b6 40F20001 		movw	r1, #:lower16:ADC_Voltage_Target_ISR1
 1917 02ba C0F20001 		movt	r1, #:upper16:ADC_Voltage_Target_ISR1
 1918 02be FFF7FEFF 		bl	CyIntSetVector
1181:.\Generated_Source\PSoC5/ADC_Voltage_Target.c ****         CyIntEnable(ADC_Voltage_Target_IRQ__INTC_NUMBER);
 1919              		.loc 1 1181 0
 1920 02c2 4EF20013 		movw	r3, #:lower16:-536813312
 1921 02c6 CEF20003 		movt	r3, #:upper16:-536813312
 1922 02ca 4FF00052 		mov	r2, #536870912
 1923 02ce 1A60     		str	r2, [r3, #0]
 1924              	.L86:
1182:.\Generated_Source\PSoC5/ADC_Voltage_Target.c ****     }
1183:.\Generated_Source\PSoC5/ADC_Voltage_Target.c ****     
1184:.\Generated_Source\PSoC5/ADC_Voltage_Target.c ****     #if(ADC_Voltage_Target_DEFAULT_NUM_CONFIGS > 1)
1185:.\Generated_Source\PSoC5/ADC_Voltage_Target.c ****         if(config == 2u)
1186:.\Generated_Source\PSoC5/ADC_Voltage_Target.c ****         {
1187:.\Generated_Source\PSoC5/ADC_Voltage_Target.c ****             /* Second Config */
1188:.\Generated_Source\PSoC5/ADC_Voltage_Target.c ****             ADC_Voltage_Target_DEC_CR_REG      = ADC_Voltage_Target_CFG2_DEC_CR;      
1189:.\Generated_Source\PSoC5/ADC_Voltage_Target.c ****             ADC_Voltage_Target_DEC_SHIFT1_REG  = ADC_Voltage_Target_CFG2_DEC_SHIFT1;  
1190:.\Generated_Source\PSoC5/ADC_Voltage_Target.c ****             ADC_Voltage_Target_DEC_SHIFT2_REG  = ADC_Voltage_Target_CFG2_DEC_SHIFT2;  
1191:.\Generated_Source\PSoC5/ADC_Voltage_Target.c ****             ADC_Voltage_Target_DEC_DR2_REG     = ADC_Voltage_Target_CFG2_DEC_DR2;     
1192:.\Generated_Source\PSoC5/ADC_Voltage_Target.c ****             ADC_Voltage_Target_DEC_DR2H_REG    = ADC_Voltage_Target_CFG2_DEC_DR2H;    
1193:.\Generated_Source\PSoC5/ADC_Voltage_Target.c ****             ADC_Voltage_Target_DEC_DR1_REG     = ADC_Voltage_Target_CFG2_DEC_DR1;     
1194:.\Generated_Source\PSoC5/ADC_Voltage_Target.c ****             ADC_Voltage_Target_DEC_OCOR_REG    = ADC_Voltage_Target_CFG2_DEC_OCOR;    
1195:.\Generated_Source\PSoC5/ADC_Voltage_Target.c ****             ADC_Voltage_Target_DEC_OCORM_REG   = ADC_Voltage_Target_CFG2_DEC_OCORM;   
1196:.\Generated_Source\PSoC5/ADC_Voltage_Target.c ****             ADC_Voltage_Target_DEC_OCORH_REG   = ADC_Voltage_Target_CFG2_DEC_OCORH;   
1197:.\Generated_Source\PSoC5/ADC_Voltage_Target.c ****         
1198:.\Generated_Source\PSoC5/ADC_Voltage_Target.c ****             ADC_Voltage_Target_DSM_CR4_REG     = ADC_Voltage_Target_CFG2_DSM_CR4;     
1199:.\Generated_Source\PSoC5/ADC_Voltage_Target.c ****             ADC_Voltage_Target_DSM_CR5_REG     = ADC_Voltage_Target_CFG2_DSM_CR5;     
1200:.\Generated_Source\PSoC5/ADC_Voltage_Target.c ****             ADC_Voltage_Target_DSM_CR6_REG     = ADC_Voltage_Target_CFG2_DSM_CR6;     
1201:.\Generated_Source\PSoC5/ADC_Voltage_Target.c ****             ADC_Voltage_Target_DSM_CR7_REG     = ADC_Voltage_Target_CFG2_DSM_CR7;     
1202:.\Generated_Source\PSoC5/ADC_Voltage_Target.c ****             ADC_Voltage_Target_DSM_CR8_REG     = ADC_Voltage_Target_CFG2_DSM_CR8;     
1203:.\Generated_Source\PSoC5/ADC_Voltage_Target.c ****             ADC_Voltage_Target_DSM_CR9_REG     = ADC_Voltage_Target_CFG2_DSM_CR9;     
1204:.\Generated_Source\PSoC5/ADC_Voltage_Target.c ****             ADC_Voltage_Target_DSM_CR10_REG    = ADC_Voltage_Target_CFG2_DSM_CR10;    
1205:.\Generated_Source\PSoC5/ADC_Voltage_Target.c ****             ADC_Voltage_Target_DSM_CR11_REG    = ADC_Voltage_Target_CFG2_DSM_CR11;    
1206:.\Generated_Source\PSoC5/ADC_Voltage_Target.c ****             ADC_Voltage_Target_DSM_CR12_REG    = ADC_Voltage_Target_CFG2_DSM_CR12;    
1207:.\Generated_Source\PSoC5/ADC_Voltage_Target.c ****             ADC_Voltage_Target_DSM_CR14_REG    = ADC_Voltage_Target_CFG2_DSM_CR14;    
ARM GAS  C:\DOCUME~1\ADMINI~1\LOCALS~1\Temp\ccfNfb5I.s 			page 56


1208:.\Generated_Source\PSoC5/ADC_Voltage_Target.c ****             ADC_Voltage_Target_DSM_CR15_REG    = ADC_Voltage_Target_CFG2_DSM_CR15;    
1209:.\Generated_Source\PSoC5/ADC_Voltage_Target.c ****             ADC_Voltage_Target_DSM_CR16_REG    = ADC_Voltage_Target_CFG2_DSM_CR16;    
1210:.\Generated_Source\PSoC5/ADC_Voltage_Target.c ****             ADC_Voltage_Target_DSM_CR17_REG    = ADC_Voltage_Target_CFG2_DSM_CR17;    
1211:.\Generated_Source\PSoC5/ADC_Voltage_Target.c **** 			/* Set DSM_REF0_REG by disabling and enabling the PRESS cirucit */
1212:.\Generated_Source\PSoC5/ADC_Voltage_Target.c **** 			ADC_Voltage_Target_SetDSMRef0Reg(ADC_Voltage_Target_CFG2_DSM_REF0);
1213:.\Generated_Source\PSoC5/ADC_Voltage_Target.c ****             ADC_Voltage_Target_DSM_REF2_REG    = ADC_Voltage_Target_CFG2_DSM_REF2;    
1214:.\Generated_Source\PSoC5/ADC_Voltage_Target.c ****             ADC_Voltage_Target_DSM_REF3_REG    = ADC_Voltage_Target_CFG2_DSM_REF3;    
1215:.\Generated_Source\PSoC5/ADC_Voltage_Target.c ****         
1216:.\Generated_Source\PSoC5/ADC_Voltage_Target.c ****             ADC_Voltage_Target_DSM_BUF0_REG    = ADC_Voltage_Target_CFG2_DSM_BUF0;    
1217:.\Generated_Source\PSoC5/ADC_Voltage_Target.c ****             ADC_Voltage_Target_DSM_BUF1_REG    = ADC_Voltage_Target_CFG2_DSM_BUF1;    
1218:.\Generated_Source\PSoC5/ADC_Voltage_Target.c ****             ADC_Voltage_Target_DSM_BUF2_REG    = ADC_Voltage_Target_CFG2_DSM_BUF2;    
1219:.\Generated_Source\PSoC5/ADC_Voltage_Target.c ****             ADC_Voltage_Target_DSM_BUF3_REG    = ADC_Voltage_Target_CFG2_DSM_BUF3; 
1220:.\Generated_Source\PSoC5/ADC_Voltage_Target.c ****             #if (CY_PSOC5A)
1221:.\Generated_Source\PSoC5/ADC_Voltage_Target.c ****                 ADC_Voltage_Target_DSM_CLK_REG    |= ADC_Voltage_Target_CFG1_DSM_CLK; 
1222:.\Generated_Source\PSoC5/ADC_Voltage_Target.c ****             #endif /* CY_PSOC5A */
1223:.\Generated_Source\PSoC5/ADC_Voltage_Target.c ****             
1224:.\Generated_Source\PSoC5/ADC_Voltage_Target.c ****             /* To select either Vssa or Vref to -ve input of DSM depending on 
1225:.\Generated_Source\PSoC5/ADC_Voltage_Target.c ****                the input range selected.
1226:.\Generated_Source\PSoC5/ADC_Voltage_Target.c ****             */
1227:.\Generated_Source\PSoC5/ADC_Voltage_Target.c ****             
1228:.\Generated_Source\PSoC5/ADC_Voltage_Target.c ****             #if(ADC_Voltage_Target_DEFAULT_INPUT_MODE)
1229:.\Generated_Source\PSoC5/ADC_Voltage_Target.c ****                 #if (CY_PSOC3 || CY_PSOC5LP)
1230:.\Generated_Source\PSoC5/ADC_Voltage_Target.c ****                     #if (ADC_Voltage_Target_CFG2_INPUT_RANGE == ADC_Voltage_Target_IR_VSSA_TO_2VREF
1231:.\Generated_Source\PSoC5/ADC_Voltage_Target.c ****                         ADC_Voltage_Target_AMux_Select(1);
1232:.\Generated_Source\PSoC5/ADC_Voltage_Target.c ****                     #else
1233:.\Generated_Source\PSoC5/ADC_Voltage_Target.c ****                         ADC_Voltage_Target_AMux_Select(0);
1234:.\Generated_Source\PSoC5/ADC_Voltage_Target.c ****                     #endif /* ADC_Voltage_Target_IR_VSSA_TO_2VREF) */
1235:.\Generated_Source\PSoC5/ADC_Voltage_Target.c ****                 #elif (CY_PSOC5A)
1236:.\Generated_Source\PSoC5/ADC_Voltage_Target.c ****                     ADC_Voltage_Target_AMux_Select(0);
1237:.\Generated_Source\PSoC5/ADC_Voltage_Target.c ****                 #endif /* CY_PSOC3 || CY_PSOC5LP */
1238:.\Generated_Source\PSoC5/ADC_Voltage_Target.c ****             #endif /* ADC_Voltage_Target_DEFAULT_INPUT_MODE */
1239:.\Generated_Source\PSoC5/ADC_Voltage_Target.c ****             
1240:.\Generated_Source\PSoC5/ADC_Voltage_Target.c ****             /* Set the Conversion stop if resolution is above 16 bit and 
1241:.\Generated_Source\PSoC5/ADC_Voltage_Target.c ****                conversion mode is Single sample */
1242:.\Generated_Source\PSoC5/ADC_Voltage_Target.c ****             #if(ADC_Voltage_Target_CFG2_RESOLUTION > 16 && \
1243:.\Generated_Source\PSoC5/ADC_Voltage_Target.c ****                 ADC_Voltage_Target_CFG2_CONVMODE == ADC_Voltage_Target_MODE_SINGLE_SAMPLE) 
1244:.\Generated_Source\PSoC5/ADC_Voltage_Target.c ****                 ADC_Voltage_Target_stopConversion = 1;
1245:.\Generated_Source\PSoC5/ADC_Voltage_Target.c ****             #endif /* Single sample with resolution above 16 bits. */
1246:.\Generated_Source\PSoC5/ADC_Voltage_Target.c ****             
1247:.\Generated_Source\PSoC5/ADC_Voltage_Target.c ****             ADC_Voltage_Target_CountsPerVolt = (uint32)ADC_Voltage_Target_CFG2_COUNTS_PER_VOLT;
1248:.\Generated_Source\PSoC5/ADC_Voltage_Target.c ****             
1249:.\Generated_Source\PSoC5/ADC_Voltage_Target.c ****             /* Start and set interrupt vector */
1250:.\Generated_Source\PSoC5/ADC_Voltage_Target.c ****             CyIntSetPriority(ADC_Voltage_Target_IRQ__INTC_NUMBER, ADC_Voltage_Target_IRQ_INTC_PRIOR
1251:.\Generated_Source\PSoC5/ADC_Voltage_Target.c ****             CyIntSetVector(ADC_Voltage_Target_IRQ__INTC_NUMBER, ADC_Voltage_Target_ISR2 );
1252:.\Generated_Source\PSoC5/ADC_Voltage_Target.c ****             CyIntEnable(ADC_Voltage_Target_IRQ__INTC_NUMBER);
1253:.\Generated_Source\PSoC5/ADC_Voltage_Target.c ****         }
1254:.\Generated_Source\PSoC5/ADC_Voltage_Target.c ****     #endif /* ADC_Voltage_Target_DEFAULT_NUM_CONFIGS > 1 */
1255:.\Generated_Source\PSoC5/ADC_Voltage_Target.c **** 
1256:.\Generated_Source\PSoC5/ADC_Voltage_Target.c ****     #if(ADC_Voltage_Target_DEFAULT_NUM_CONFIGS > 2)
1257:.\Generated_Source\PSoC5/ADC_Voltage_Target.c ****         if(config == 3u)
1258:.\Generated_Source\PSoC5/ADC_Voltage_Target.c ****         {
1259:.\Generated_Source\PSoC5/ADC_Voltage_Target.c ****             /* Third Config */
1260:.\Generated_Source\PSoC5/ADC_Voltage_Target.c ****             ADC_Voltage_Target_DEC_CR_REG      = ADC_Voltage_Target_CFG3_DEC_CR;      
1261:.\Generated_Source\PSoC5/ADC_Voltage_Target.c ****             ADC_Voltage_Target_DEC_SHIFT1_REG  = ADC_Voltage_Target_CFG3_DEC_SHIFT1;  
1262:.\Generated_Source\PSoC5/ADC_Voltage_Target.c ****             ADC_Voltage_Target_DEC_SHIFT2_REG  = ADC_Voltage_Target_CFG3_DEC_SHIFT2;  
1263:.\Generated_Source\PSoC5/ADC_Voltage_Target.c ****             ADC_Voltage_Target_DEC_DR2_REG     = ADC_Voltage_Target_CFG3_DEC_DR2;     
1264:.\Generated_Source\PSoC5/ADC_Voltage_Target.c ****             ADC_Voltage_Target_DEC_DR2H_REG    = ADC_Voltage_Target_CFG3_DEC_DR2H;    
ARM GAS  C:\DOCUME~1\ADMINI~1\LOCALS~1\Temp\ccfNfb5I.s 			page 57


1265:.\Generated_Source\PSoC5/ADC_Voltage_Target.c ****             ADC_Voltage_Target_DEC_DR1_REG     = ADC_Voltage_Target_CFG3_DEC_DR1;     
1266:.\Generated_Source\PSoC5/ADC_Voltage_Target.c ****             ADC_Voltage_Target_DEC_OCOR_REG    = ADC_Voltage_Target_CFG3_DEC_OCOR;    
1267:.\Generated_Source\PSoC5/ADC_Voltage_Target.c ****             ADC_Voltage_Target_DEC_OCORM_REG   = ADC_Voltage_Target_CFG3_DEC_OCORM;   
1268:.\Generated_Source\PSoC5/ADC_Voltage_Target.c ****             ADC_Voltage_Target_DEC_OCORH_REG   = ADC_Voltage_Target_CFG3_DEC_OCORH;   
1269:.\Generated_Source\PSoC5/ADC_Voltage_Target.c ****          
1270:.\Generated_Source\PSoC5/ADC_Voltage_Target.c ****             ADC_Voltage_Target_DSM_CR4_REG     = ADC_Voltage_Target_CFG3_DSM_CR4;     
1271:.\Generated_Source\PSoC5/ADC_Voltage_Target.c ****             ADC_Voltage_Target_DSM_CR5_REG     = ADC_Voltage_Target_CFG3_DSM_CR5;     
1272:.\Generated_Source\PSoC5/ADC_Voltage_Target.c ****             ADC_Voltage_Target_DSM_CR6_REG     = ADC_Voltage_Target_CFG3_DSM_CR6;     
1273:.\Generated_Source\PSoC5/ADC_Voltage_Target.c ****             ADC_Voltage_Target_DSM_CR7_REG     = ADC_Voltage_Target_CFG3_DSM_CR7;     
1274:.\Generated_Source\PSoC5/ADC_Voltage_Target.c ****             ADC_Voltage_Target_DSM_CR8_REG     = ADC_Voltage_Target_CFG3_DSM_CR8;     
1275:.\Generated_Source\PSoC5/ADC_Voltage_Target.c ****             ADC_Voltage_Target_DSM_CR9_REG     = ADC_Voltage_Target_CFG3_DSM_CR9;     
1276:.\Generated_Source\PSoC5/ADC_Voltage_Target.c ****             ADC_Voltage_Target_DSM_CR10_REG    = ADC_Voltage_Target_CFG3_DSM_CR10;    
1277:.\Generated_Source\PSoC5/ADC_Voltage_Target.c ****             ADC_Voltage_Target_DSM_CR11_REG    = ADC_Voltage_Target_CFG3_DSM_CR11;    
1278:.\Generated_Source\PSoC5/ADC_Voltage_Target.c ****             ADC_Voltage_Target_DSM_CR12_REG    = ADC_Voltage_Target_CFG3_DSM_CR12;    
1279:.\Generated_Source\PSoC5/ADC_Voltage_Target.c ****             ADC_Voltage_Target_DSM_CR14_REG    = ADC_Voltage_Target_CFG3_DSM_CR14;    
1280:.\Generated_Source\PSoC5/ADC_Voltage_Target.c ****             ADC_Voltage_Target_DSM_CR15_REG    = ADC_Voltage_Target_CFG3_DSM_CR15;    
1281:.\Generated_Source\PSoC5/ADC_Voltage_Target.c ****             ADC_Voltage_Target_DSM_CR16_REG    = ADC_Voltage_Target_CFG3_DSM_CR16;    
1282:.\Generated_Source\PSoC5/ADC_Voltage_Target.c ****             ADC_Voltage_Target_DSM_CR17_REG    = ADC_Voltage_Target_CFG3_DSM_CR17;    
1283:.\Generated_Source\PSoC5/ADC_Voltage_Target.c **** 			/* Set DSM_REF0_REG by disabling and enabling the PRESS cirucit */
1284:.\Generated_Source\PSoC5/ADC_Voltage_Target.c **** 			ADC_Voltage_Target_SetDSMRef0Reg(ADC_Voltage_Target_CFG3_DSM_REF0);
1285:.\Generated_Source\PSoC5/ADC_Voltage_Target.c ****             ADC_Voltage_Target_DSM_REF2_REG    = ADC_Voltage_Target_CFG3_DSM_REF2;    
1286:.\Generated_Source\PSoC5/ADC_Voltage_Target.c ****             ADC_Voltage_Target_DSM_REF3_REG    = ADC_Voltage_Target_CFG3_DSM_REF3;    
1287:.\Generated_Source\PSoC5/ADC_Voltage_Target.c ****         
1288:.\Generated_Source\PSoC5/ADC_Voltage_Target.c ****             ADC_Voltage_Target_DSM_BUF0_REG    = ADC_Voltage_Target_CFG3_DSM_BUF0;    
1289:.\Generated_Source\PSoC5/ADC_Voltage_Target.c ****             ADC_Voltage_Target_DSM_BUF1_REG    = ADC_Voltage_Target_CFG3_DSM_BUF1;    
1290:.\Generated_Source\PSoC5/ADC_Voltage_Target.c ****             ADC_Voltage_Target_DSM_BUF2_REG    = ADC_Voltage_Target_CFG3_DSM_BUF2;
1291:.\Generated_Source\PSoC5/ADC_Voltage_Target.c ****             ADC_Voltage_Target_DSM_BUF3_REG    = ADC_Voltage_Target_CFG3_DSM_BUF3;
1292:.\Generated_Source\PSoC5/ADC_Voltage_Target.c ****             #if (CY_PSOC5A)
1293:.\Generated_Source\PSoC5/ADC_Voltage_Target.c ****                 ADC_Voltage_Target_DSM_CLK_REG    |= ADC_Voltage_Target_CFG1_DSM_CLK; 
1294:.\Generated_Source\PSoC5/ADC_Voltage_Target.c ****             #endif /* CY_PSOC5A */
1295:.\Generated_Source\PSoC5/ADC_Voltage_Target.c ****             
1296:.\Generated_Source\PSoC5/ADC_Voltage_Target.c ****             /* To select either Vssa or Vref to -ve input of DSM depending on 
1297:.\Generated_Source\PSoC5/ADC_Voltage_Target.c ****                the input range selected.
1298:.\Generated_Source\PSoC5/ADC_Voltage_Target.c ****             */
1299:.\Generated_Source\PSoC5/ADC_Voltage_Target.c ****             
1300:.\Generated_Source\PSoC5/ADC_Voltage_Target.c ****             #if(ADC_Voltage_Target_DEFAULT_INPUT_MODE)
1301:.\Generated_Source\PSoC5/ADC_Voltage_Target.c ****                 #if (CY_PSOC3 || CY_PSOC5LP)
1302:.\Generated_Source\PSoC5/ADC_Voltage_Target.c ****                     #if (ADC_Voltage_Target_CFG3_INPUT_RANGE == ADC_Voltage_Target_IR_VSSA_TO_2VREF
1303:.\Generated_Source\PSoC5/ADC_Voltage_Target.c ****                         ADC_Voltage_Target_AMux_Select(1);
1304:.\Generated_Source\PSoC5/ADC_Voltage_Target.c ****                     #else
1305:.\Generated_Source\PSoC5/ADC_Voltage_Target.c ****                         ADC_Voltage_Target_AMux_Select(0);
1306:.\Generated_Source\PSoC5/ADC_Voltage_Target.c ****                     #endif /* ADC_Voltage_Target_IR_VSSA_TO_2VREF) */
1307:.\Generated_Source\PSoC5/ADC_Voltage_Target.c ****                 #elif (CY_PSOC5A)
1308:.\Generated_Source\PSoC5/ADC_Voltage_Target.c ****                     ADC_Voltage_Target_AMux_Select(0);
1309:.\Generated_Source\PSoC5/ADC_Voltage_Target.c ****                 #endif /* CY_PSOC3 || CY_PSOC5LP */
1310:.\Generated_Source\PSoC5/ADC_Voltage_Target.c ****             #endif /* ADC_Voltage_Target_DEFAULT_INPUT_MODE */
1311:.\Generated_Source\PSoC5/ADC_Voltage_Target.c ****                        
1312:.\Generated_Source\PSoC5/ADC_Voltage_Target.c ****             /* Set the Conversion stop if resolution is above 16 bit and 
1313:.\Generated_Source\PSoC5/ADC_Voltage_Target.c ****                conversion  mode is Single sample */
1314:.\Generated_Source\PSoC5/ADC_Voltage_Target.c ****             #if(ADC_Voltage_Target_CFG3_RESOLUTION > 16 && \
1315:.\Generated_Source\PSoC5/ADC_Voltage_Target.c ****                 ADC_Voltage_Target_CFG3_CONVMODE == ADC_Voltage_Target_MODE_SINGLE_SAMPLE) 
1316:.\Generated_Source\PSoC5/ADC_Voltage_Target.c ****                 ADC_Voltage_Target_stopConversion = 1;
1317:.\Generated_Source\PSoC5/ADC_Voltage_Target.c ****             #endif /* Single sample with resolution above 16 bits */
1318:.\Generated_Source\PSoC5/ADC_Voltage_Target.c ****             
1319:.\Generated_Source\PSoC5/ADC_Voltage_Target.c ****             ADC_Voltage_Target_CountsPerVolt = (uint32)ADC_Voltage_Target_CFG3_COUNTS_PER_VOLT;
1320:.\Generated_Source\PSoC5/ADC_Voltage_Target.c ****             
1321:.\Generated_Source\PSoC5/ADC_Voltage_Target.c ****             /* Start and set interrupt vector */
ARM GAS  C:\DOCUME~1\ADMINI~1\LOCALS~1\Temp\ccfNfb5I.s 			page 58


1322:.\Generated_Source\PSoC5/ADC_Voltage_Target.c ****             CyIntSetPriority(ADC_Voltage_Target_IRQ__INTC_NUMBER, ADC_Voltage_Target_IRQ_INTC_PRIOR
1323:.\Generated_Source\PSoC5/ADC_Voltage_Target.c ****             CyIntSetVector(ADC_Voltage_Target_IRQ__INTC_NUMBER, ADC_Voltage_Target_ISR3 );
1324:.\Generated_Source\PSoC5/ADC_Voltage_Target.c ****             CyIntEnable(ADC_Voltage_Target_IRQ__INTC_NUMBER);
1325:.\Generated_Source\PSoC5/ADC_Voltage_Target.c ****         }
1326:.\Generated_Source\PSoC5/ADC_Voltage_Target.c ****     #endif /* ADC_Voltage_Target_DEFAULT_NUM_CONFIGS > 3 */
1327:.\Generated_Source\PSoC5/ADC_Voltage_Target.c **** 
1328:.\Generated_Source\PSoC5/ADC_Voltage_Target.c ****     #if(ADC_Voltage_Target_DEFAULT_NUM_CONFIGS == 4)
1329:.\Generated_Source\PSoC5/ADC_Voltage_Target.c ****         if (config == 4u)
1330:.\Generated_Source\PSoC5/ADC_Voltage_Target.c ****         {
1331:.\Generated_Source\PSoC5/ADC_Voltage_Target.c ****             /* Fourth Config */
1332:.\Generated_Source\PSoC5/ADC_Voltage_Target.c ****             ADC_Voltage_Target_DEC_CR_REG      = ADC_Voltage_Target_CFG4_DEC_CR;      
1333:.\Generated_Source\PSoC5/ADC_Voltage_Target.c ****             ADC_Voltage_Target_DEC_SHIFT1_REG  = ADC_Voltage_Target_CFG4_DEC_SHIFT1;  
1334:.\Generated_Source\PSoC5/ADC_Voltage_Target.c ****             ADC_Voltage_Target_DEC_SHIFT2_REG  = ADC_Voltage_Target_CFG4_DEC_SHIFT2;  
1335:.\Generated_Source\PSoC5/ADC_Voltage_Target.c ****             ADC_Voltage_Target_DEC_DR2_REG     = ADC_Voltage_Target_CFG4_DEC_DR2;     
1336:.\Generated_Source\PSoC5/ADC_Voltage_Target.c ****             ADC_Voltage_Target_DEC_DR2H_REG    = ADC_Voltage_Target_CFG4_DEC_DR2H;    
1337:.\Generated_Source\PSoC5/ADC_Voltage_Target.c ****             ADC_Voltage_Target_DEC_DR1_REG     = ADC_Voltage_Target_CFG4_DEC_DR1;     
1338:.\Generated_Source\PSoC5/ADC_Voltage_Target.c ****             ADC_Voltage_Target_DEC_OCOR_REG    = ADC_Voltage_Target_CFG4_DEC_OCOR;    
1339:.\Generated_Source\PSoC5/ADC_Voltage_Target.c ****             ADC_Voltage_Target_DEC_OCORM_REG   = ADC_Voltage_Target_CFG4_DEC_OCORM;   
1340:.\Generated_Source\PSoC5/ADC_Voltage_Target.c ****             ADC_Voltage_Target_DEC_OCORH_REG   = ADC_Voltage_Target_CFG4_DEC_OCORH;   
1341:.\Generated_Source\PSoC5/ADC_Voltage_Target.c **** 
1342:.\Generated_Source\PSoC5/ADC_Voltage_Target.c ****             ADC_Voltage_Target_DSM_CR4_REG     = ADC_Voltage_Target_CFG4_DSM_CR4;     
1343:.\Generated_Source\PSoC5/ADC_Voltage_Target.c ****             ADC_Voltage_Target_DSM_CR5_REG     = ADC_Voltage_Target_CFG4_DSM_CR5;     
1344:.\Generated_Source\PSoC5/ADC_Voltage_Target.c ****             ADC_Voltage_Target_DSM_CR6_REG     = ADC_Voltage_Target_CFG4_DSM_CR6;     
1345:.\Generated_Source\PSoC5/ADC_Voltage_Target.c ****             ADC_Voltage_Target_DSM_CR7_REG     = ADC_Voltage_Target_CFG4_DSM_CR7;     
1346:.\Generated_Source\PSoC5/ADC_Voltage_Target.c ****             ADC_Voltage_Target_DSM_CR8_REG     = ADC_Voltage_Target_CFG4_DSM_CR8;     
1347:.\Generated_Source\PSoC5/ADC_Voltage_Target.c ****             ADC_Voltage_Target_DSM_CR9_REG     = ADC_Voltage_Target_CFG4_DSM_CR9;     
1348:.\Generated_Source\PSoC5/ADC_Voltage_Target.c ****             ADC_Voltage_Target_DSM_CR10_REG    = ADC_Voltage_Target_CFG4_DSM_CR10;    
1349:.\Generated_Source\PSoC5/ADC_Voltage_Target.c ****             ADC_Voltage_Target_DSM_CR11_REG    = ADC_Voltage_Target_CFG4_DSM_CR11;    
1350:.\Generated_Source\PSoC5/ADC_Voltage_Target.c ****             ADC_Voltage_Target_DSM_CR12_REG    = ADC_Voltage_Target_CFG4_DSM_CR12;    
1351:.\Generated_Source\PSoC5/ADC_Voltage_Target.c ****             ADC_Voltage_Target_DSM_CR14_REG    = ADC_Voltage_Target_CFG4_DSM_CR14;    
1352:.\Generated_Source\PSoC5/ADC_Voltage_Target.c ****             ADC_Voltage_Target_DSM_CR15_REG    = ADC_Voltage_Target_CFG4_DSM_CR15;    
1353:.\Generated_Source\PSoC5/ADC_Voltage_Target.c ****             ADC_Voltage_Target_DSM_CR16_REG    = ADC_Voltage_Target_CFG4_DSM_CR16;    
1354:.\Generated_Source\PSoC5/ADC_Voltage_Target.c ****             ADC_Voltage_Target_DSM_CR17_REG    = ADC_Voltage_Target_CFG4_DSM_CR17;
1355:.\Generated_Source\PSoC5/ADC_Voltage_Target.c **** 			/* Set DSM_REF0_REG by disabling and enabling the PRESS cirucit */
1356:.\Generated_Source\PSoC5/ADC_Voltage_Target.c **** 			ADC_Voltage_Target_SetDSMRef0Reg(ADC_Voltage_Target_CFG4_DSM_REF0);
1357:.\Generated_Source\PSoC5/ADC_Voltage_Target.c ****             ADC_Voltage_Target_DSM_REF2_REG    = ADC_Voltage_Target_CFG4_DSM_REF2;    
1358:.\Generated_Source\PSoC5/ADC_Voltage_Target.c ****             ADC_Voltage_Target_DSM_REF3_REG    = ADC_Voltage_Target_CFG4_DSM_REF3;    
1359:.\Generated_Source\PSoC5/ADC_Voltage_Target.c ****         
1360:.\Generated_Source\PSoC5/ADC_Voltage_Target.c ****             ADC_Voltage_Target_DSM_BUF0_REG    = ADC_Voltage_Target_CFG4_DSM_BUF0;    
1361:.\Generated_Source\PSoC5/ADC_Voltage_Target.c ****             ADC_Voltage_Target_DSM_BUF1_REG    = ADC_Voltage_Target_CFG4_DSM_BUF1;    
1362:.\Generated_Source\PSoC5/ADC_Voltage_Target.c ****             ADC_Voltage_Target_DSM_BUF2_REG    = ADC_Voltage_Target_CFG4_DSM_BUF2;
1363:.\Generated_Source\PSoC5/ADC_Voltage_Target.c ****             ADC_Voltage_Target_DSM_BUF3_REG    = ADC_Voltage_Target_CFG4_DSM_BUF3;
1364:.\Generated_Source\PSoC5/ADC_Voltage_Target.c ****             #if (CY_PSOC5A)
1365:.\Generated_Source\PSoC5/ADC_Voltage_Target.c ****                 ADC_Voltage_Target_DSM_CLK_REG    |= ADC_Voltage_Target_CFG1_DSM_CLK; 
1366:.\Generated_Source\PSoC5/ADC_Voltage_Target.c ****             #endif /* CY_PSOC5A */
1367:.\Generated_Source\PSoC5/ADC_Voltage_Target.c ****             
1368:.\Generated_Source\PSoC5/ADC_Voltage_Target.c ****             /* To select either Vssa or Vref to -ve input of DSM depending on 
1369:.\Generated_Source\PSoC5/ADC_Voltage_Target.c ****                the input range selected.
1370:.\Generated_Source\PSoC5/ADC_Voltage_Target.c ****             */
1371:.\Generated_Source\PSoC5/ADC_Voltage_Target.c ****             
1372:.\Generated_Source\PSoC5/ADC_Voltage_Target.c ****             #if(ADC_Voltage_Target_DEFAULT_INPUT_MODE)
1373:.\Generated_Source\PSoC5/ADC_Voltage_Target.c ****                 #if (CY_PSOC3 || CY_PSOC5LP)
1374:.\Generated_Source\PSoC5/ADC_Voltage_Target.c ****                     #if (ADC_Voltage_Target_CFG4_INPUT_RANGE == ADC_Voltage_Target_IR_VSSA_TO_2VREF
1375:.\Generated_Source\PSoC5/ADC_Voltage_Target.c ****                         ADC_Voltage_Target_AMux_Select(1);
1376:.\Generated_Source\PSoC5/ADC_Voltage_Target.c ****                     #else
1377:.\Generated_Source\PSoC5/ADC_Voltage_Target.c ****                         ADC_Voltage_Target_AMux_Select(0);
1378:.\Generated_Source\PSoC5/ADC_Voltage_Target.c ****                     #endif /* ADC_Voltage_Target_IR_VSSA_TO_2VREF) */
ARM GAS  C:\DOCUME~1\ADMINI~1\LOCALS~1\Temp\ccfNfb5I.s 			page 59


1379:.\Generated_Source\PSoC5/ADC_Voltage_Target.c ****                 #elif (CY_PSOC5A)
1380:.\Generated_Source\PSoC5/ADC_Voltage_Target.c ****                     ADC_Voltage_Target_AMux_Select(0);
1381:.\Generated_Source\PSoC5/ADC_Voltage_Target.c ****                 #endif /* CY_PSOC3 || CY_PSOC5LP */
1382:.\Generated_Source\PSoC5/ADC_Voltage_Target.c ****             #endif /* ADC_Voltage_Target_DEFAULT_INPUT_MODE */
1383:.\Generated_Source\PSoC5/ADC_Voltage_Target.c ****                        
1384:.\Generated_Source\PSoC5/ADC_Voltage_Target.c ****             /* Set the Conversion stop if resolution is above 16 bit and 
1385:.\Generated_Source\PSoC5/ADC_Voltage_Target.c ****                conversion mode is Single sample */
1386:.\Generated_Source\PSoC5/ADC_Voltage_Target.c ****             #if(ADC_Voltage_Target_CFG4_RESOLUTION > 16 && \
1387:.\Generated_Source\PSoC5/ADC_Voltage_Target.c ****                 ADC_Voltage_Target_CFG4_CONVMODE == ADC_Voltage_Target_MODE_SINGLE_SAMPLE) 
1388:.\Generated_Source\PSoC5/ADC_Voltage_Target.c ****                 ADC_Voltage_Target_stopConversion = 1;
1389:.\Generated_Source\PSoC5/ADC_Voltage_Target.c ****             #endif /* Single sample with resolution above 16 bits */
1390:.\Generated_Source\PSoC5/ADC_Voltage_Target.c ****             
1391:.\Generated_Source\PSoC5/ADC_Voltage_Target.c ****             ADC_Voltage_Target_CountsPerVolt = (uint32)ADC_Voltage_Target_CFG4_COUNTS_PER_VOLT;
1392:.\Generated_Source\PSoC5/ADC_Voltage_Target.c **** 
1393:.\Generated_Source\PSoC5/ADC_Voltage_Target.c ****             /* Start and set interrupt vector */
1394:.\Generated_Source\PSoC5/ADC_Voltage_Target.c ****             CyIntSetPriority(ADC_Voltage_Target_IRQ__INTC_NUMBER, ADC_Voltage_Target_IRQ_INTC_PRIOR
1395:.\Generated_Source\PSoC5/ADC_Voltage_Target.c ****             CyIntSetVector(ADC_Voltage_Target_IRQ__INTC_NUMBER, ADC_Voltage_Target_ISR4 );
1396:.\Generated_Source\PSoC5/ADC_Voltage_Target.c ****             CyIntEnable(ADC_Voltage_Target_IRQ__INTC_NUMBER);
1397:.\Generated_Source\PSoC5/ADC_Voltage_Target.c ****         }
1398:.\Generated_Source\PSoC5/ADC_Voltage_Target.c ****     #endif /* ADC_Voltage_Target_DEFAULT_NUM_CONFIGS > 4 */
1399:.\Generated_Source\PSoC5/ADC_Voltage_Target.c **** }
 1925              		.loc 1 1399 0
 1926 02d0 07F10807 		add	r7, r7, #8
 1927 02d4 BD46     		mov	sp, r7
 1928 02d6 80BD     		pop	{r7, pc}
 1929              		.cfi_endproc
 1930              	.LFE21:
 1931              		.size	ADC_Voltage_Target_InitConfig, .-ADC_Voltage_Target_InitConfig
 1932              		.section	.text.ADC_Voltage_Target_RoundValue,"ax",%progbits
 1933              		.align	2
 1934              		.global	ADC_Voltage_Target_RoundValue
 1935              		.thumb
 1936              		.thumb_func
 1937              		.type	ADC_Voltage_Target_RoundValue, %function
 1938              	ADC_Voltage_Target_RoundValue:
 1939              	.LFB22:
1400:.\Generated_Source\PSoC5/ADC_Voltage_Target.c **** 
1401:.\Generated_Source\PSoC5/ADC_Voltage_Target.c **** 
1402:.\Generated_Source\PSoC5/ADC_Voltage_Target.c **** /*******************************************************************************
1403:.\Generated_Source\PSoC5/ADC_Voltage_Target.c **** * Function Name: ADC_Voltage_Target_RoundValue(uint32 busClockFreq, 
1404:.\Generated_Source\PSoC5/ADC_Voltage_Target.c **** *                                            uint32 clockFreq)
1405:.\Generated_Source\PSoC5/ADC_Voltage_Target.c **** ********************************************************************************
1406:.\Generated_Source\PSoC5/ADC_Voltage_Target.c **** *
1407:.\Generated_Source\PSoC5/ADC_Voltage_Target.c **** * Summary:
1408:.\Generated_Source\PSoC5/ADC_Voltage_Target.c **** *  Function to round an integer value.
1409:.\Generated_Source\PSoC5/ADC_Voltage_Target.c **** *
1410:.\Generated_Source\PSoC5/ADC_Voltage_Target.c **** * Parameters:  
1411:.\Generated_Source\PSoC5/ADC_Voltage_Target.c **** *  busClockFreq:  Frequency of the bus clock.
1412:.\Generated_Source\PSoC5/ADC_Voltage_Target.c **** *  clockFreq:  Frequency of the component clock.
1413:.\Generated_Source\PSoC5/ADC_Voltage_Target.c **** *
1414:.\Generated_Source\PSoC5/ADC_Voltage_Target.c **** * Return: 
1415:.\Generated_Source\PSoC5/ADC_Voltage_Target.c **** *  uint16: rounded integer value.
1416:.\Generated_Source\PSoC5/ADC_Voltage_Target.c **** *
1417:.\Generated_Source\PSoC5/ADC_Voltage_Target.c **** *******************************************************************************/
1418:.\Generated_Source\PSoC5/ADC_Voltage_Target.c **** uint16 ADC_Voltage_Target_RoundValue(uint32 busClockFreq, uint32 clockFreq) \
1419:.\Generated_Source\PSoC5/ADC_Voltage_Target.c ****                                   
1420:.\Generated_Source\PSoC5/ADC_Voltage_Target.c **** {
ARM GAS  C:\DOCUME~1\ADMINI~1\LOCALS~1\Temp\ccfNfb5I.s 			page 60


 1940              		.loc 1 1420 0
 1941              		.cfi_startproc
 1942              		@ args = 0, pretend = 0, frame = 16
 1943              		@ frame_needed = 1, uses_anonymous_args = 0
 1944              		@ link register save eliminated.
 1945 0000 80B4     		push	{r7}
 1946              	.LCFI58:
 1947              		.cfi_def_cfa_offset 4
 1948 0002 85B0     		sub	sp, sp, #20
 1949              	.LCFI59:
 1950              		.cfi_def_cfa_offset 24
 1951 0004 00AF     		add	r7, sp, #0
 1952              		.cfi_offset 7, -4
 1953              	.LCFI60:
 1954              		.cfi_def_cfa_register 7
 1955 0006 7860     		str	r0, [r7, #4]
 1956 0008 3960     		str	r1, [r7, #0]
1421:.\Generated_Source\PSoC5/ADC_Voltage_Target.c ****     uint16 divider1, divider2;
1422:.\Generated_Source\PSoC5/ADC_Voltage_Target.c ****     
1423:.\Generated_Source\PSoC5/ADC_Voltage_Target.c ****     divider1 = ((busClockFreq * 10) / clockFreq);
 1957              		.loc 1 1423 0
 1958 000a 7A68     		ldr	r2, [r7, #4]
 1959 000c 1346     		mov	r3, r2
 1960 000e 4FEA8303 		lsl	r3, r3, #2
 1961 0012 1344     		add	r3, r3, r2
 1962 0014 4FEA4303 		lsl	r3, r3, #1
 1963 0018 1A46     		mov	r2, r3
 1964 001a 3B68     		ldr	r3, [r7, #0]
 1965 001c B2FBF3F3 		udiv	r3, r2, r3
 1966 0020 BB81     		strh	r3, [r7, #12]	@ movhi
1424:.\Generated_Source\PSoC5/ADC_Voltage_Target.c ****     divider2 = (busClockFreq / clockFreq);
 1967              		.loc 1 1424 0
 1968 0022 7A68     		ldr	r2, [r7, #4]
 1969 0024 3B68     		ldr	r3, [r7, #0]
 1970 0026 B2FBF3F3 		udiv	r3, r2, r3
 1971 002a FB81     		strh	r3, [r7, #14]	@ movhi
1425:.\Generated_Source\PSoC5/ADC_Voltage_Target.c ****     if ( divider1 - (divider2 * 10) >= 5)
 1972              		.loc 1 1425 0
 1973 002c BA89     		ldrh	r2, [r7, #12]
 1974 002e FB89     		ldrh	r3, [r7, #14]
 1975 0030 6FF00901 		mvn	r1, #9
 1976 0034 01FB03F3 		mul	r3, r1, r3
 1977 0038 1344     		add	r3, r2, r3
 1978 003a 042B     		cmp	r3, #4
 1979 003c 03DD     		ble	.L88
1426:.\Generated_Source\PSoC5/ADC_Voltage_Target.c ****     {
1427:.\Generated_Source\PSoC5/ADC_Voltage_Target.c ****         divider2 += 1;
 1980              		.loc 1 1427 0
 1981 003e FB89     		ldrh	r3, [r7, #14]	@ movhi
 1982 0040 03F10103 		add	r3, r3, #1
 1983 0044 FB81     		strh	r3, [r7, #14]	@ movhi
 1984              	.L88:
1428:.\Generated_Source\PSoC5/ADC_Voltage_Target.c ****     }
1429:.\Generated_Source\PSoC5/ADC_Voltage_Target.c ****     return divider2;
 1985              		.loc 1 1429 0
 1986 0046 FB89     		ldrh	r3, [r7, #14]
1430:.\Generated_Source\PSoC5/ADC_Voltage_Target.c **** }
ARM GAS  C:\DOCUME~1\ADMINI~1\LOCALS~1\Temp\ccfNfb5I.s 			page 61


 1987              		.loc 1 1430 0
 1988 0048 1846     		mov	r0, r3
 1989 004a 07F11407 		add	r7, r7, #20
 1990 004e BD46     		mov	sp, r7
 1991 0050 80BC     		pop	{r7}
 1992 0052 7047     		bx	lr
 1993              		.cfi_endproc
 1994              	.LFE22:
 1995              		.size	ADC_Voltage_Target_RoundValue, .-ADC_Voltage_Target_RoundValue
 1996              		.section	.text.ADC_Voltage_Target_SelectConfiguration,"ax",%progbits
 1997              		.align	2
 1998              		.global	ADC_Voltage_Target_SelectConfiguration
 1999              		.thumb
 2000              		.thumb_func
 2001              		.type	ADC_Voltage_Target_SelectConfiguration, %function
 2002              	ADC_Voltage_Target_SelectConfiguration:
 2003              	.LFB23:
1431:.\Generated_Source\PSoC5/ADC_Voltage_Target.c ****          
1432:.\Generated_Source\PSoC5/ADC_Voltage_Target.c **** 
1433:.\Generated_Source\PSoC5/ADC_Voltage_Target.c **** /*******************************************************************************
1434:.\Generated_Source\PSoC5/ADC_Voltage_Target.c **** * Function Name: ADC_Voltage_Target_SelectCofiguration(uint8 config, 
1435:.\Generated_Source\PSoC5/ADC_Voltage_Target.c **** *                                                    uint8 restart)
1436:.\Generated_Source\PSoC5/ADC_Voltage_Target.c **** ********************************************************************************
1437:.\Generated_Source\PSoC5/ADC_Voltage_Target.c **** *
1438:.\Generated_Source\PSoC5/ADC_Voltage_Target.c **** * Summary:
1439:.\Generated_Source\PSoC5/ADC_Voltage_Target.c **** *  Selects the user defined configuration. This API first stops the current ADC
1440:.\Generated_Source\PSoC5/ADC_Voltage_Target.c **** *  and then initializes the registers with the default values for that config. 
1441:.\Generated_Source\PSoC5/ADC_Voltage_Target.c **** *  This also performs calibration by writing GCOR registers with trim values 
1442:.\Generated_Source\PSoC5/ADC_Voltage_Target.c **** *  stored in the flash.
1443:.\Generated_Source\PSoC5/ADC_Voltage_Target.c **** *
1444:.\Generated_Source\PSoC5/ADC_Voltage_Target.c **** * Parameters:  
1445:.\Generated_Source\PSoC5/ADC_Voltage_Target.c **** *  config:  configuration user wants to select.
1446:.\Generated_Source\PSoC5/ADC_Voltage_Target.c **** *
1447:.\Generated_Source\PSoC5/ADC_Voltage_Target.c **** * Return: 
1448:.\Generated_Source\PSoC5/ADC_Voltage_Target.c **** *  void
1449:.\Generated_Source\PSoC5/ADC_Voltage_Target.c **** *
1450:.\Generated_Source\PSoC5/ADC_Voltage_Target.c **** *******************************************************************************/
1451:.\Generated_Source\PSoC5/ADC_Voltage_Target.c **** void ADC_Voltage_Target_SelectConfiguration(uint8 config, uint8 restart) \
1452:.\Generated_Source\PSoC5/ADC_Voltage_Target.c ****                                               
1453:.\Generated_Source\PSoC5/ADC_Voltage_Target.c **** {
 2004              		.loc 1 1453 0
 2005              		.cfi_startproc
 2006              		@ args = 0, pretend = 0, frame = 24
 2007              		@ frame_needed = 1, uses_anonymous_args = 0
 2008 0000 80B5     		push	{r7, lr}
 2009              	.LCFI61:
 2010              		.cfi_def_cfa_offset 8
 2011 0002 86B0     		sub	sp, sp, #24
 2012              	.LCFI62:
 2013              		.cfi_def_cfa_offset 32
 2014 0004 00AF     		add	r7, sp, #0
 2015              		.cfi_offset 14, -4
 2016              		.cfi_offset 7, -8
 2017              	.LCFI63:
 2018              		.cfi_def_cfa_register 7
 2019 0006 0246     		mov	r2, r0
 2020 0008 0B46     		mov	r3, r1
ARM GAS  C:\DOCUME~1\ADMINI~1\LOCALS~1\Temp\ccfNfb5I.s 			page 62


 2021 000a FA71     		strb	r2, [r7, #7]
 2022 000c BB71     		strb	r3, [r7, #6]
1454:.\Generated_Source\PSoC5/ADC_Voltage_Target.c ****     uint8 inputRange = 0, resolution = 16;
 2023              		.loc 1 1454 0
 2024 000e 4FF00003 		mov	r3, #0
 2025 0012 BB73     		strb	r3, [r7, #14]
 2026 0014 4FF01003 		mov	r3, #16
 2027 0018 FB73     		strb	r3, [r7, #15]
1455:.\Generated_Source\PSoC5/ADC_Voltage_Target.c ****     uint16 idealGain = 0, adcClockDivider = 1;    
 2028              		.loc 1 1455 0
 2029 001a 4FF00003 		mov	r3, #0
 2030 001e 3B82     		strh	r3, [r7, #16]	@ movhi
 2031 0020 4FF00103 		mov	r3, #1
 2032 0024 7B82     		strh	r3, [r7, #18]	@ movhi
1456:.\Generated_Source\PSoC5/ADC_Voltage_Target.c ****     uint16 cpClockDivider = 1;
 2033              		.loc 1 1456 0
 2034 0026 4FF00103 		mov	r3, #1
 2035 002a BB82     		strh	r3, [r7, #20]	@ movhi
1457:.\Generated_Source\PSoC5/ADC_Voltage_Target.c ****     uint16 idealOddGain = 0;
 2036              		.loc 1 1457 0
 2037 002c 4FF00003 		mov	r3, #0
 2038 0030 FB82     		strh	r3, [r7, #22]	@ movhi
1458:.\Generated_Source\PSoC5/ADC_Voltage_Target.c ****     
1459:.\Generated_Source\PSoC5/ADC_Voltage_Target.c ****     /* Check whether the config is valid or not */
1460:.\Generated_Source\PSoC5/ADC_Voltage_Target.c ****     if( config <= ADC_Voltage_Target_DEFAULT_NUM_CONFIGS)
 2039              		.loc 1 1460 0
 2040 0032 FB79     		ldrb	r3, [r7, #7]	@ zero_extendqisi2
 2041 0034 012B     		cmp	r3, #1
 2042 0036 61D8     		bhi	.L94
1461:.\Generated_Source\PSoC5/ADC_Voltage_Target.c ****     {   
1462:.\Generated_Source\PSoC5/ADC_Voltage_Target.c ****        /* Set the flag to ensure start() API dont override the config
1463:.\Generated_Source\PSoC5/ADC_Voltage_Target.c ****            selected if ADC is not already started */
1464:.\Generated_Source\PSoC5/ADC_Voltage_Target.c ****         if(ADC_Voltage_Target_initVar == 0u)
 2043              		.loc 1 1464 0
 2044 0038 40F20003 		movw	r3, #:lower16:ADC_Voltage_Target_initVar
 2045 003c C0F20003 		movt	r3, #:upper16:ADC_Voltage_Target_initVar
 2046 0040 1B78     		ldrb	r3, [r3, #0]	@ zero_extendqisi2
 2047 0042 002B     		cmp	r3, #0
 2048 0044 06D1     		bne	.L92
1465:.\Generated_Source\PSoC5/ADC_Voltage_Target.c ****         {
1466:.\Generated_Source\PSoC5/ADC_Voltage_Target.c ****             ADC_Voltage_Target_started = 1u;
 2049              		.loc 1 1466 0
 2050 0046 40F20003 		movw	r3, #:lower16:ADC_Voltage_Target_started
 2051 004a C0F20003 		movt	r3, #:upper16:ADC_Voltage_Target_started
 2052 004e 4FF00102 		mov	r2, #1
 2053 0052 1A70     		strb	r2, [r3, #0]
 2054              	.L92:
1467:.\Generated_Source\PSoC5/ADC_Voltage_Target.c ****         }
1468:.\Generated_Source\PSoC5/ADC_Voltage_Target.c **** 		
1469:.\Generated_Source\PSoC5/ADC_Voltage_Target.c **** 		/* Update the config flag */
1470:.\Generated_Source\PSoC5/ADC_Voltage_Target.c **** 		ADC_Voltage_Target_Config = config;
 2055              		.loc 1 1470 0
 2056 0054 40F20003 		movw	r3, #:lower16:ADC_Voltage_Target_Config
 2057 0058 C0F20003 		movt	r3, #:upper16:ADC_Voltage_Target_Config
 2058 005c FA79     		ldrb	r2, [r7, #7]
 2059 005e 1A70     		strb	r2, [r3, #0]
1471:.\Generated_Source\PSoC5/ADC_Voltage_Target.c ****        
ARM GAS  C:\DOCUME~1\ADMINI~1\LOCALS~1\Temp\ccfNfb5I.s 			page 63


1472:.\Generated_Source\PSoC5/ADC_Voltage_Target.c ****         /* Stop the ADC  */
1473:.\Generated_Source\PSoC5/ADC_Voltage_Target.c ****         ADC_Voltage_Target_Stop();
 2060              		.loc 1 1473 0
 2061 0060 FFF7FEFF 		bl	ADC_Voltage_Target_Stop
1474:.\Generated_Source\PSoC5/ADC_Voltage_Target.c ****         
1475:.\Generated_Source\PSoC5/ADC_Voltage_Target.c ****         #if (CY_PSOC5A)
1476:.\Generated_Source\PSoC5/ADC_Voltage_Target.c ****             /* Set the structure field which checks whether or not to
1477:.\Generated_Source\PSoC5/ADC_Voltage_Target.c ****                restore the power registers */
1478:.\Generated_Source\PSoC5/ADC_Voltage_Target.c ****             ADC_Voltage_Target_powerModeBackup.bypassRestore = ADC_Voltage_Target_BYPASS_ENABLED;
1479:.\Generated_Source\PSoC5/ADC_Voltage_Target.c ****         #endif /* CY_PSOC5A */
1480:.\Generated_Source\PSoC5/ADC_Voltage_Target.c ****         
1481:.\Generated_Source\PSoC5/ADC_Voltage_Target.c ****         /* Set the  ADC registers based on the configuration */
1482:.\Generated_Source\PSoC5/ADC_Voltage_Target.c ****         ADC_Voltage_Target_InitConfig(config);
 2062              		.loc 1 1482 0
 2063 0064 FB79     		ldrb	r3, [r7, #7]	@ zero_extendqisi2
 2064 0066 1846     		mov	r0, r3
 2065 0068 FFF7FEFF 		bl	ADC_Voltage_Target_InitConfig
1483:.\Generated_Source\PSoC5/ADC_Voltage_Target.c ****         
1484:.\Generated_Source\PSoC5/ADC_Voltage_Target.c ****         /* Trim value calculation */
1485:.\Generated_Source\PSoC5/ADC_Voltage_Target.c ****         if(config == 1u)
 2066              		.loc 1 1485 0
 2067 006c FB79     		ldrb	r3, [r7, #7]	@ zero_extendqisi2
 2068 006e 012B     		cmp	r3, #1
 2069 0070 23D1     		bne	.L93
1486:.\Generated_Source\PSoC5/ADC_Voltage_Target.c ****         {
1487:.\Generated_Source\PSoC5/ADC_Voltage_Target.c ****             inputRange = ADC_Voltage_Target_CFG1_RANGE;
 2070              		.loc 1 1487 0
 2071 0072 4FF00203 		mov	r3, #2
 2072 0076 BB73     		strb	r3, [r7, #14]
1488:.\Generated_Source\PSoC5/ADC_Voltage_Target.c ****             resolution = ADC_Voltage_Target_CFG1_RESOLUTION;
 2073              		.loc 1 1488 0
 2074 0078 4FF00C03 		mov	r3, #12
 2075 007c FB73     		strb	r3, [r7, #15]
1489:.\Generated_Source\PSoC5/ADC_Voltage_Target.c ****             idealGain = ADC_Voltage_Target_CFG1_IDEAL_DEC_GAIN;
 2076              		.loc 1 1489 0
 2077 007e 4FF41043 		mov	r3, #36864
 2078 0082 3B82     		strh	r3, [r7, #16]	@ movhi
1490:.\Generated_Source\PSoC5/ADC_Voltage_Target.c ****             idealOddGain = ADC_Voltage_Target_CFG1_IDEAL_ODDDEC_GAIN;
 2079              		.loc 1 1490 0
 2080 0084 4FF40043 		mov	r3, #32768
 2081 0088 FB82     		strh	r3, [r7, #22]	@ movhi
1491:.\Generated_Source\PSoC5/ADC_Voltage_Target.c ****             adcClockDivider = ADC_Voltage_Target_RoundValue((uint32)BCLK__BUS_CLK__HZ,
 2082              		.loc 1 1491 0
 2083 008a 49F20000 		movw	r0, #:lower16:64000000
 2084 008e C0F2D030 		movt	r0, #:upper16:64000000
 2085 0092 4EF20021 		movw	r1, #:lower16:320000
 2086 0096 C0F20401 		movt	r1, #:upper16:320000
 2087 009a FFF7FEFF 		bl	ADC_Voltage_Target_RoundValue
 2088 009e 0346     		mov	r3, r0
 2089 00a0 7B82     		strh	r3, [r7, #18]	@ movhi
1492:.\Generated_Source\PSoC5/ADC_Voltage_Target.c ****                                                        (uint32)ADC_Voltage_Target_CFG1_CLOCK_FREQ);
1493:.\Generated_Source\PSoC5/ADC_Voltage_Target.c ****             cpClockDivider = ADC_Voltage_Target_RoundValue((uint32)BCLK__BUS_CLK__HZ,
 2090              		.loc 1 1493 0
 2091 00a2 49F20000 		movw	r0, #:lower16:64000000
 2092 00a6 C0F2D030 		movt	r0, #:upper16:64000000
 2093 00aa 48F60001 		movw	r1, #:lower16:1280000
 2094 00ae C0F21301 		movt	r1, #:upper16:1280000
ARM GAS  C:\DOCUME~1\ADMINI~1\LOCALS~1\Temp\ccfNfb5I.s 			page 64


 2095 00b2 FFF7FEFF 		bl	ADC_Voltage_Target_RoundValue
 2096 00b6 0346     		mov	r3, r0
 2097 00b8 BB82     		strh	r3, [r7, #20]	@ movhi
 2098              	.L93:
1494:.\Generated_Source\PSoC5/ADC_Voltage_Target.c ****                                                        (uint32)ADC_Voltage_Target_CFG1_CP_CLOCK_FRE
1495:.\Generated_Source\PSoC5/ADC_Voltage_Target.c ****         }
1496:.\Generated_Source\PSoC5/ADC_Voltage_Target.c **** 
1497:.\Generated_Source\PSoC5/ADC_Voltage_Target.c ****         #if (ADC_Voltage_Target_DEFAULT_NUM_CONFIGS > 1)
1498:.\Generated_Source\PSoC5/ADC_Voltage_Target.c ****             if(config == 2u)
1499:.\Generated_Source\PSoC5/ADC_Voltage_Target.c ****             {
1500:.\Generated_Source\PSoC5/ADC_Voltage_Target.c ****                 inputRange = ADC_Voltage_Target_CFG2_INPUT_RANGE;
1501:.\Generated_Source\PSoC5/ADC_Voltage_Target.c ****                 resolution = ADC_Voltage_Target_CFG2_RESOLUTION;
1502:.\Generated_Source\PSoC5/ADC_Voltage_Target.c ****                 idealGain = ADC_Voltage_Target_CFG2_IDEAL_DEC_GAIN;
1503:.\Generated_Source\PSoC5/ADC_Voltage_Target.c ****                 idealOddGain = ADC_Voltage_Target_CFG2_IDEAL_ODDDEC_GAIN;
1504:.\Generated_Source\PSoC5/ADC_Voltage_Target.c ****                 adcClockDivider = ADC_Voltage_Target_RoundValue((uint32)BCLK__BUS_CLK__HZ,
1505:.\Generated_Source\PSoC5/ADC_Voltage_Target.c ****                                                             (uint32)ADC_Voltage_Target_CFG2_CLOCK_F
1506:.\Generated_Source\PSoC5/ADC_Voltage_Target.c ****                 cpClockDivider = ADC_Voltage_Target_RoundValue((uint32)BCLK__BUS_CLK__HZ,
1507:.\Generated_Source\PSoC5/ADC_Voltage_Target.c ****                                                        (uint32)ADC_Voltage_Target_CFG2_CP_CLOCK_FRE
1508:.\Generated_Source\PSoC5/ADC_Voltage_Target.c ****             }
1509:.\Generated_Source\PSoC5/ADC_Voltage_Target.c ****         #endif /* ADC_Voltage_Target_DEFAULT_NUM_CONFIGS > 1 */
1510:.\Generated_Source\PSoC5/ADC_Voltage_Target.c **** 
1511:.\Generated_Source\PSoC5/ADC_Voltage_Target.c ****         #if(ADC_Voltage_Target_DEFAULT_NUM_CONFIGS > 2)
1512:.\Generated_Source\PSoC5/ADC_Voltage_Target.c ****             if(config == 3u)
1513:.\Generated_Source\PSoC5/ADC_Voltage_Target.c ****             {
1514:.\Generated_Source\PSoC5/ADC_Voltage_Target.c ****                 inputRange = ADC_Voltage_Target_CFG3_INPUT_RANGE;
1515:.\Generated_Source\PSoC5/ADC_Voltage_Target.c ****                 resolution = ADC_Voltage_Target_CFG3_RESOLUTION;
1516:.\Generated_Source\PSoC5/ADC_Voltage_Target.c ****                 idealGain = ADC_Voltage_Target_CFG3_IDEAL_DEC_GAIN;
1517:.\Generated_Source\PSoC5/ADC_Voltage_Target.c ****                 idealOddGain = ADC_Voltage_Target_CFG3_IDEAL_ODDDEC_GAIN;
1518:.\Generated_Source\PSoC5/ADC_Voltage_Target.c ****                 adcClockDivider = ADC_Voltage_Target_RoundValue((uint32)BCLK__BUS_CLK__HZ,
1519:.\Generated_Source\PSoC5/ADC_Voltage_Target.c ****                                                             (uint32)ADC_Voltage_Target_CFG3_CLOCK_F
1520:.\Generated_Source\PSoC5/ADC_Voltage_Target.c ****                 cpClockDivider = ADC_Voltage_Target_RoundValue((uint32)BCLK__BUS_CLK__HZ,
1521:.\Generated_Source\PSoC5/ADC_Voltage_Target.c ****                                                        (uint32)ADC_Voltage_Target_CFG3_CP_CLOCK_FRE
1522:.\Generated_Source\PSoC5/ADC_Voltage_Target.c ****             }
1523:.\Generated_Source\PSoC5/ADC_Voltage_Target.c ****         #endif /* ADC_Voltage_Target_DEFAULT_NUM_CONFIGS > 2 */
1524:.\Generated_Source\PSoC5/ADC_Voltage_Target.c **** 
1525:.\Generated_Source\PSoC5/ADC_Voltage_Target.c ****         #if (ADC_Voltage_Target_DEFAULT_NUM_CONFIGS > 3)
1526:.\Generated_Source\PSoC5/ADC_Voltage_Target.c ****             if(config == 4u)
1527:.\Generated_Source\PSoC5/ADC_Voltage_Target.c ****             {
1528:.\Generated_Source\PSoC5/ADC_Voltage_Target.c ****                 inputRange = ADC_Voltage_Target_CFG4_INPUT_RANGE;
1529:.\Generated_Source\PSoC5/ADC_Voltage_Target.c ****                 resolution = ADC_Voltage_Target_CFG4_RESOLUTION;
1530:.\Generated_Source\PSoC5/ADC_Voltage_Target.c ****                 idealGain = ADC_Voltage_Target_CFG4_IDEAL_DEC_GAIN;
1531:.\Generated_Source\PSoC5/ADC_Voltage_Target.c ****                 idealOddGain = ADC_Voltage_Target_CFG4_IDEAL_ODDDEC_GAIN;
1532:.\Generated_Source\PSoC5/ADC_Voltage_Target.c ****                 adcClockDivider = ADC_Voltage_Target_RoundValue((uint32)BCLK__BUS_CLK__HZ,  
1533:.\Generated_Source\PSoC5/ADC_Voltage_Target.c ****                                                             (uint32)ADC_Voltage_Target_CFG4_CLOCK_F
1534:.\Generated_Source\PSoC5/ADC_Voltage_Target.c ****                 cpClockDivider = ADC_Voltage_Target_RoundValue((uint32)BCLK__BUS_CLK__HZ,
1535:.\Generated_Source\PSoC5/ADC_Voltage_Target.c ****                                                        (uint32)ADC_Voltage_Target_CFG4_CP_CLOCK_FRE
1536:.\Generated_Source\PSoC5/ADC_Voltage_Target.c ****             }
1537:.\Generated_Source\PSoC5/ADC_Voltage_Target.c ****         #endif /* ADC_Voltage_Target_DEFAULT_NUM_CONFIGS > 3 */
1538:.\Generated_Source\PSoC5/ADC_Voltage_Target.c ****         
1539:.\Generated_Source\PSoC5/ADC_Voltage_Target.c ****         adcClockDivider = adcClockDivider - 1;
 2099              		.loc 1 1539 0
 2100 00ba 7B8A     		ldrh	r3, [r7, #18]	@ movhi
 2101 00bc 03F1FF33 		add	r3, r3, #-1
 2102 00c0 7B82     		strh	r3, [r7, #18]	@ movhi
1540:.\Generated_Source\PSoC5/ADC_Voltage_Target.c ****         /* Set the proper divider for the internal clock */
1541:.\Generated_Source\PSoC5/ADC_Voltage_Target.c ****         #if(ADC_Voltage_Target_DEFAULT_INTERNAL_CLK)
1542:.\Generated_Source\PSoC5/ADC_Voltage_Target.c ****             ADC_Voltage_Target_theACLK_SetDividerRegister(adcClockDivider, 1);
ARM GAS  C:\DOCUME~1\ADMINI~1\LOCALS~1\Temp\ccfNfb5I.s 			page 65


 2103              		.loc 1 1542 0
 2104 00c2 7B8A     		ldrh	r3, [r7, #18]
 2105 00c4 1846     		mov	r0, r3
 2106 00c6 4FF00101 		mov	r1, #1
 2107 00ca FFF7FEFF 		bl	ADC_Voltage_Target_theACLK_SetDividerRegister
1543:.\Generated_Source\PSoC5/ADC_Voltage_Target.c ****         #endif /* ADC_Voltage_Target_DEFAULT_INTERNAL_CLK */
1544:.\Generated_Source\PSoC5/ADC_Voltage_Target.c ****         
1545:.\Generated_Source\PSoC5/ADC_Voltage_Target.c ****         cpClockDivider = cpClockDivider - 1;
 2108              		.loc 1 1545 0
 2109 00ce BB8A     		ldrh	r3, [r7, #20]	@ movhi
 2110 00d0 03F1FF33 		add	r3, r3, #-1
 2111 00d4 BB82     		strh	r3, [r7, #20]	@ movhi
1546:.\Generated_Source\PSoC5/ADC_Voltage_Target.c ****         /* Set the proper divider for the Charge pump clock */
1547:.\Generated_Source\PSoC5/ADC_Voltage_Target.c ****         ADC_Voltage_Target_Ext_CP_Clk_SetDividerRegister(cpClockDivider, 1);
 2112              		.loc 1 1547 0
 2113 00d6 BB8A     		ldrh	r3, [r7, #20]
 2114 00d8 1846     		mov	r0, r3
 2115 00da 4FF00101 		mov	r1, #1
 2116 00de FFF7FEFF 		bl	ADC_Voltage_Target_Ext_CP_Clk_SetDividerRegister
1548:.\Generated_Source\PSoC5/ADC_Voltage_Target.c ****         
1549:.\Generated_Source\PSoC5/ADC_Voltage_Target.c ****         /* Compensate the gain */
1550:.\Generated_Source\PSoC5/ADC_Voltage_Target.c ****         ADC_Voltage_Target_GainCompensation(inputRange, idealGain, idealOddGain, resolution);
 2117              		.loc 1 1550 0
 2118 00e2 B87B     		ldrb	r0, [r7, #14]	@ zero_extendqisi2
 2119 00e4 398A     		ldrh	r1, [r7, #16]
 2120 00e6 FA8A     		ldrh	r2, [r7, #22]
 2121 00e8 FB7B     		ldrb	r3, [r7, #15]	@ zero_extendqisi2
 2122 00ea FFF7FEFF 		bl	ADC_Voltage_Target_GainCompensation
1551:.\Generated_Source\PSoC5/ADC_Voltage_Target.c ****         
1552:.\Generated_Source\PSoC5/ADC_Voltage_Target.c ****         if(restart == 1u)
 2123              		.loc 1 1552 0
 2124 00ee BB79     		ldrb	r3, [r7, #6]	@ zero_extendqisi2
 2125 00f0 012B     		cmp	r3, #1
 2126 00f2 03D1     		bne	.L94
1553:.\Generated_Source\PSoC5/ADC_Voltage_Target.c ****         {        
1554:.\Generated_Source\PSoC5/ADC_Voltage_Target.c ****             /* Restart the ADC */
1555:.\Generated_Source\PSoC5/ADC_Voltage_Target.c ****             ADC_Voltage_Target_Start();
 2127              		.loc 1 1555 0
 2128 00f4 FFF7FEFF 		bl	ADC_Voltage_Target_Start
1556:.\Generated_Source\PSoC5/ADC_Voltage_Target.c ****             
1557:.\Generated_Source\PSoC5/ADC_Voltage_Target.c ****             /* Code to disable the REFBUF0 if reference chosen is External ref */
1558:.\Generated_Source\PSoC5/ADC_Voltage_Target.c ****             #if (((ADC_Voltage_Target_CFG2_REFERENCE == ADC_Voltage_Target_EXT_REF_ON_P03) || \
1559:.\Generated_Source\PSoC5/ADC_Voltage_Target.c ****                  (ADC_Voltage_Target_CFG2_REFERENCE == ADC_Voltage_Target_EXT_REF_ON_P32)) || \
1560:.\Generated_Source\PSoC5/ADC_Voltage_Target.c ****                  ((ADC_Voltage_Target_CFG3_REFERENCE == ADC_Voltage_Target_EXT_REF_ON_P03) || \
1561:.\Generated_Source\PSoC5/ADC_Voltage_Target.c ****                  (ADC_Voltage_Target_CFG3_REFERENCE == ADC_Voltage_Target_EXT_REF_ON_P32)) || \
1562:.\Generated_Source\PSoC5/ADC_Voltage_Target.c ****                  ((ADC_Voltage_Target_CFG4_REFERENCE == ADC_Voltage_Target_EXT_REF_ON_P03) || \
1563:.\Generated_Source\PSoC5/ADC_Voltage_Target.c ****                  (ADC_Voltage_Target_CFG4_REFERENCE == ADC_Voltage_Target_EXT_REF_ON_P32)))
1564:.\Generated_Source\PSoC5/ADC_Voltage_Target.c ****                 if (((config == 2) && 
1565:.\Generated_Source\PSoC5/ADC_Voltage_Target.c ****                     ((ADC_Voltage_Target_CFG2_REFERENCE == ADC_Voltage_Target_EXT_REF_ON_P03) ||
1566:.\Generated_Source\PSoC5/ADC_Voltage_Target.c ****                     (ADC_Voltage_Target_CFG2_REFERENCE == ADC_Voltage_Target_EXT_REF_ON_P32))) ||
1567:.\Generated_Source\PSoC5/ADC_Voltage_Target.c ****                     ((config == 3) && 
1568:.\Generated_Source\PSoC5/ADC_Voltage_Target.c ****                     ((ADC_Voltage_Target_CFG3_REFERENCE == ADC_Voltage_Target_EXT_REF_ON_P03) ||
1569:.\Generated_Source\PSoC5/ADC_Voltage_Target.c ****                     (ADC_Voltage_Target_CFG3_REFERENCE == ADC_Voltage_Target_EXT_REF_ON_P32))) ||
1570:.\Generated_Source\PSoC5/ADC_Voltage_Target.c ****                     ((config == 4) && 
1571:.\Generated_Source\PSoC5/ADC_Voltage_Target.c ****                     ((ADC_Voltage_Target_CFG4_REFERENCE == ADC_Voltage_Target_EXT_REF_ON_P03) ||
1572:.\Generated_Source\PSoC5/ADC_Voltage_Target.c ****                     (ADC_Voltage_Target_CFG4_REFERENCE == ADC_Voltage_Target_EXT_REF_ON_P32))))
1573:.\Generated_Source\PSoC5/ADC_Voltage_Target.c ****                 {
ARM GAS  C:\DOCUME~1\ADMINI~1\LOCALS~1\Temp\ccfNfb5I.s 			page 66


1574:.\Generated_Source\PSoC5/ADC_Voltage_Target.c ****                     /* Disable PRES, Enable power to VCMBUF0, REFBUF0 and 
1575:.\Generated_Source\PSoC5/ADC_Voltage_Target.c ****                        REFBUF1, enable PRES */
1576:.\Generated_Source\PSoC5/ADC_Voltage_Target.c ****                     #if (CY_PSOC3 || CY_PSOC5LP)
1577:.\Generated_Source\PSoC5/ADC_Voltage_Target.c ****                         ADC_Voltage_Target_RESET_CR4_REG |= ADC_Voltage_Target_IGNORE_PRESA1;
1578:.\Generated_Source\PSoC5/ADC_Voltage_Target.c ****                         ADC_Voltage_Target_RESET_CR5_REG |= ADC_Voltage_Target_IGNORE_PRESA2;
1579:.\Generated_Source\PSoC5/ADC_Voltage_Target.c ****                     #elif (CY_PSOC5A)
1580:.\Generated_Source\PSoC5/ADC_Voltage_Target.c ****                         ADC_Voltage_Target_RESET_CR1_REG |= ADC_Voltage_Target_DIS_PRES1;
