ARM GAS  C:\DOCUME~1\ADMINI~1\LOCALS~1\Temp\ccEpqQo0.s 			page 1


   1              		.syntax unified
   2              		.cpu cortex-m3
   3              		.fpu softvfp
   4              		.eabi_attribute 20, 1
   5              		.eabi_attribute 21, 1
   6              		.eabi_attribute 23, 3
   7              		.eabi_attribute 24, 1
   8              		.eabi_attribute 25, 1
   9              		.eabi_attribute 26, 1
  10              		.eabi_attribute 30, 6
  11              		.eabi_attribute 18, 4
  12              		.thumb
  13              		.file	"commandprocessor.c"
  20 0000 EB000000 		.text
  20      02008A00 
  20      00000201 
  20      FB0E0D00 
  20      01010101 
  21              	.Ltext0:
  22              		.cfi_sections	.debug_frame
  23              		.global	SWDFlag
  24              		.data
  25              		.type	SWDFlag, %object
  26              		.size	SWDFlag, 1
  27              	SWDFlag:
  28 0000 01       		.byte	1
  29              		.section	.text.CmdStatus,"ax",%progbits
  30              		.align	2
  31              		.global	CmdStatus
  32              		.thumb
  33              		.thumb_func
  34              		.type	CmdStatus, %function
  35              	CmdStatus:
  36              	.LFB29:
  37              		.file 1 ".\\commandprocessor.c"
   1:.\commandprocessor.c **** /*****************************************************************************
   2:.\commandprocessor.c **** * File Name: commandProcessor.c
   3:.\commandprocessor.c **** *
   4:.\commandprocessor.c **** * Version 2.03
   5:.\commandprocessor.c **** *
   6:.\commandprocessor.c **** * Description: This files provides source code to handle communication between 
   7:.\commandprocessor.c **** * PSoC Programmer GUI and the KitProg.
   8:.\commandprocessor.c **** *
   9:.\commandprocessor.c **** * Owner:
  10:.\commandprocessor.c **** *	Ranjith M, Applications Engineer (rnjt@cypress.com)
  11:.\commandprocessor.c **** *
  12:.\commandprocessor.c **** * Related Document:
  13:.\commandprocessor.c **** * 	001-85925 - CY8CKIT-042 PSoC 4 Pioneer Kit IROS
  14:.\commandprocessor.c **** *	RNJT#18
  15:.\commandprocessor.c **** *
  16:.\commandprocessor.c **** * Hardware Dependency:
ARM GAS  C:\DOCUME~1\ADMINI~1\LOCALS~1\Temp\ccEpqQo0.s 			page 2


  17:.\commandprocessor.c **** * 	CY8CKIT-042 (KitProg) 
  18:.\commandprocessor.c **** *
  19:.\commandprocessor.c **** * Code Tested With:
  20:.\commandprocessor.c **** * 	Creator 2.2
  21:.\commandprocessor.c **** *	GCC1 4.4.1
  22:.\commandprocessor.c **** *	CY8CKIT-042 Rev 1
  23:.\commandprocessor.c **** *
  24:.\commandprocessor.c **** ******************************************************************************
  25:.\commandprocessor.c **** * Copyright (2013), Cypress Semiconductor Corporation.
  26:.\commandprocessor.c **** ******************************************************************************
  27:.\commandprocessor.c **** * This software is owned by Cypress Semiconductor Corporation (Cypress) and is
  28:.\commandprocessor.c **** * protected by and subject to worldwide patent protection (United States and
  29:.\commandprocessor.c **** * foreign), United States copyright laws and international treaty provisions.
  30:.\commandprocessor.c **** * Cypress hereby grants to licensee a personal, non-exclusive, non-transferable
  31:.\commandprocessor.c **** * license to copy, use, modify, create derivative works of, and compile the
  32:.\commandprocessor.c **** * Cypress Source Code and derivative works for the sole purpose of creating
  33:.\commandprocessor.c **** * custom software in support of licensee product to be used only in conjunction
  34:.\commandprocessor.c **** * with a Cypress integrated circuit as specified in the applicable agreement.
  35:.\commandprocessor.c **** * Any reproduction, modification, translation, compilation, or representation of
  36:.\commandprocessor.c **** * this software except as specified above is prohibited without the express
  37:.\commandprocessor.c **** * written permission of Cypress.
  38:.\commandprocessor.c **** *
  39:.\commandprocessor.c **** * Disclaimer: CYPRESS MAKES NO WARRANTY OF ANY KIND, EXPRESS OR IMPLIED, WITH
  40:.\commandprocessor.c **** * REGARD TO THIS MATERIAL, INCLUDING, BUT NOT LIMITED TO, THE IMPLIED
  41:.\commandprocessor.c **** * WARRANTIES OF MERCHANTABILITY AND FITNESS FOR A PARTICULAR PURPOSE.
  42:.\commandprocessor.c **** * Cypress reserves the right to make changes without further notice to the
  43:.\commandprocessor.c **** * materials described herein. Cypress does not assume any liability arising out
  44:.\commandprocessor.c **** * of the application or use of any product or circuit described herein. Cypress
  45:.\commandprocessor.c **** * does not authorize its products for use as critical components in life-support
  46:.\commandprocessor.c **** * systems where a malfunction or failure may reasonably be expected to result in
  47:.\commandprocessor.c **** * significant injury to the user. The inclusion of Cypress' product in a life-
  48:.\commandprocessor.c **** * support systems application implies that the manufacturer assumes all risk of
  49:.\commandprocessor.c **** * such use and in doing so indemnifies Cypress against all charges. Use may be
  50:.\commandprocessor.c **** * limited by and subject to the applicable Cypress software license agreement.
  51:.\commandprocessor.c **** *****************************************************************************/
  52:.\commandprocessor.c **** #include "kitprog.h"
  53:.\commandprocessor.c **** 
  54:.\commandprocessor.c **** /*****************************************************************************
  55:.\commandprocessor.c **** * Local Function Prototypes
  56:.\commandprocessor.c **** *****************************************************************************/
  57:.\commandprocessor.c **** void CmdReset(void);
  58:.\commandprocessor.c **** void CmdStatus(void);
  59:.\commandprocessor.c **** void SWDComm(void);
  60:.\commandprocessor.c **** 
  61:.\commandprocessor.c **** /*****************************************************************************
  62:.\commandprocessor.c **** * Local Global Variable Declarations
  63:.\commandprocessor.c **** *****************************************************************************/
  64:.\commandprocessor.c **** uint8 SWDFlag = SET;
  65:.\commandprocessor.c **** 
  66:.\commandprocessor.c **** /*******************************************************************************
  67:.\commandprocessor.c **** * Function Name: cmdReset()
  68:.\commandprocessor.c **** ********************************************************************************
  69:.\commandprocessor.c **** * Summary:
  70:.\commandprocessor.c **** *  Polls the status of the programmer 
  71:.\commandprocessor.c **** *
  72:.\commandprocessor.c **** * Parameters:
  73:.\commandprocessor.c **** *  void
ARM GAS  C:\DOCUME~1\ADMINI~1\LOCALS~1\Temp\ccEpqQo0.s 			page 3


  74:.\commandprocessor.c **** *
  75:.\commandprocessor.c **** * Return:
  76:.\commandprocessor.c **** *  void
  77:.\commandprocessor.c **** *
  78:.\commandprocessor.c **** *******************************************************************************/
  79:.\commandprocessor.c **** void CmdStatus(void)
  80:.\commandprocessor.c **** {
  38              		.loc 1 80 0
  39              		.cfi_startproc
  40              		@ args = 0, pretend = 0, frame = 0
  41              		@ frame_needed = 1, uses_anonymous_args = 0
  42 0000 80B5     		push	{r7, lr}
  43              	.LCFI0:
  44              		.cfi_def_cfa_offset 8
  45 0002 00AF     		add	r7, sp, #0
  46              		.cfi_offset 14, -4
  47              		.cfi_offset 7, -8
  48              	.LCFI1:
  49              		.cfi_def_cfa_register 7
  81:.\commandprocessor.c **** 	/* Power is detected by the programmer */
  82:.\commandprocessor.c **** 	if(GetVoltage() > ONE_VOLT)
  50              		.loc 1 82 0
  51 0004 FFF7FEFF 		bl	GetVoltage
  52 0008 0346     		mov	r3, r0
  53 000a B3F57A7F 		cmp	r3, #1000
  54 000e 07D9     		bls	.L2
  83:.\commandprocessor.c **** 	{
  84:.\commandprocessor.c ****        	pifBuf[3] = ACK_POWER_DETECTED;
  55              		.loc 1 84 0
  56 0010 40F20003 		movw	r3, #:lower16:pifBuf
  57 0014 C0F20003 		movt	r3, #:upper16:pifBuf
  58 0018 4FF04002 		mov	r2, #64
  59 001c DA70     		strb	r2, [r3, #3]
  60 001e 06E0     		b	.L3
  61              	.L2:
  85:.\commandprocessor.c **** 	}
  86:.\commandprocessor.c **** 	else
  87:.\commandprocessor.c **** 	{
  88:.\commandprocessor.c **** 		pifBuf[3] = ACK_POWER_NOT_DETECTED;
  62              		.loc 1 88 0
  63 0020 40F20003 		movw	r3, #:lower16:pifBuf
  64 0024 C0F20003 		movt	r3, #:upper16:pifBuf
  65 0028 4FF00002 		mov	r2, #0
  66 002c DA70     		strb	r2, [r3, #3]
  67              	.L3:
  89:.\commandprocessor.c **** 	}
  90:.\commandprocessor.c **** 	
  91:.\commandprocessor.c **** 	/* Power is supplied by the programmer. Works on inverse logic. 0x00 for power supplied and 0x01 f
  92:.\commandprocessor.c ****     pifBuf[4] = POWER_SUPPLIED_INVERSE;
  68              		.loc 1 92 0
  69 002e 40F20003 		movw	r3, #:lower16:pifBuf
  70 0032 C0F20003 		movt	r3, #:upper16:pifBuf
  71 0036 4FF00002 		mov	r2, #0
  72 003a 1A71     		strb	r2, [r3, #4]
  93:.\commandprocessor.c **** }
  73              		.loc 1 93 0
  74 003c 80BD     		pop	{r7, pc}
ARM GAS  C:\DOCUME~1\ADMINI~1\LOCALS~1\Temp\ccEpqQo0.s 			page 4


  75              		.cfi_endproc
  76              	.LFE29:
  77              		.size	CmdStatus, .-CmdStatus
  78 003e 00BF     		.section	.text.CmdReset,"ax",%progbits
  79              		.align	2
  80              		.global	CmdReset
  81              		.thumb
  82              		.thumb_func
  83              		.type	CmdReset, %function
  84              	CmdReset:
  85              	.LFB30:
  94:.\commandprocessor.c **** /*******************************************************************************
  95:.\commandprocessor.c **** * Function Name: cmdReset()
  96:.\commandprocessor.c **** ********************************************************************************
  97:.\commandprocessor.c **** * Summary:
  98:.\commandprocessor.c **** *  Resets the PSoC 4 
  99:.\commandprocessor.c **** *
 100:.\commandprocessor.c **** * Parameters:
 101:.\commandprocessor.c **** *  void
 102:.\commandprocessor.c **** *
 103:.\commandprocessor.c **** * Return:
 104:.\commandprocessor.c **** *  void
 105:.\commandprocessor.c **** *
 106:.\commandprocessor.c **** *******************************************************************************/
 107:.\commandprocessor.c **** void CmdReset(void)
 108:.\commandprocessor.c **** {
  86              		.loc 1 108 0
  87              		.cfi_startproc
  88              		@ args = 0, pretend = 0, frame = 0
  89              		@ frame_needed = 1, uses_anonymous_args = 0
  90 0000 80B5     		push	{r7, lr}
  91              	.LCFI2:
  92              		.cfi_def_cfa_offset 8
  93 0002 00AF     		add	r7, sp, #0
  94              		.cfi_offset 14, -4
  95              		.cfi_offset 7, -8
  96              	.LCFI3:
  97              		.cfi_def_cfa_register 7
 109:.\commandprocessor.c **** 	/* Set the pins to Strong drive state */
 110:.\commandprocessor.c **** 	SWD_SET_XRES_OUT;
  98              		.loc 1 110 0
  99 0004 45F21403 		movw	r3, #:lower16:1073762324
 100 0008 C4F20003 		movt	r3, #:upper16:1073762324
 101 000c 45F21402 		movw	r2, #:lower16:1073762324
 102 0010 C4F20002 		movt	r2, #:upper16:1073762324
 103 0014 1278     		ldrb	r2, [r2, #0]
 104 0016 D2B2     		uxtb	r2, r2
 105 0018 D2B2     		uxtb	r2, r2
 106 001a 02F0F102 		and	r2, r2, #241
 107 001e 42F00C02 		orr	r2, r2, #12
 108 0022 D2B2     		uxtb	r2, r2
 109 0024 D2B2     		uxtb	r2, r2
 110 0026 1A70     		strb	r2, [r3, #0]
 111:.\commandprocessor.c **** 	
 112:.\commandprocessor.c **** //	/* Ensure that current state is high */
 113:.\commandprocessor.c **** //    SWD_SET_XRES_HI;	
 114:.\commandprocessor.c **** //    CyDelayUs(50);
ARM GAS  C:\DOCUME~1\ADMINI~1\LOCALS~1\Temp\ccEpqQo0.s 			page 5


 115:.\commandprocessor.c **** 	
 116:.\commandprocessor.c **** 	/* Set low to reset */
 117:.\commandprocessor.c ****     SWD_SET_XRES_LO; 
 111              		.loc 1 117 0
 112 0028 45F21403 		movw	r3, #:lower16:1073762324
 113 002c C4F20003 		movt	r3, #:upper16:1073762324
 114 0030 45F21402 		movw	r2, #:lower16:1073762324
 115 0034 C4F20002 		movt	r2, #:upper16:1073762324
 116 0038 1278     		ldrb	r2, [r2, #0]
 117 003a D2B2     		uxtb	r2, r2
 118 003c 02F0FE02 		and	r2, r2, #254
 119 0040 1A70     		strb	r2, [r3, #0]
 118:.\commandprocessor.c ****     CyDelayUs(400);
 120              		.loc 1 118 0
 121 0042 4FF4C870 		mov	r0, #400
 122 0046 FFF7FEFF 		bl	CyDelayUs
 119:.\commandprocessor.c **** 	
 120:.\commandprocessor.c **** //	/* Return to high to release */
 121:.\commandprocessor.c **** //    SWD_SET_XRES_HI;
 122:.\commandprocessor.c **** //    CyDelayUs(50);
 123:.\commandprocessor.c **** 	
 124:.\commandprocessor.c **** 	/* Set the pins to High-Z state */
 125:.\commandprocessor.c **** 	SWD_SET_XRES_IN;
 123              		.loc 1 125 0
 124 004a 45F21403 		movw	r3, #:lower16:1073762324
 125 004e C4F20003 		movt	r3, #:upper16:1073762324
 126 0052 45F21402 		movw	r2, #:lower16:1073762324
 127 0056 C4F20002 		movt	r2, #:upper16:1073762324
 128 005a 1278     		ldrb	r2, [r2, #0]
 129 005c D2B2     		uxtb	r2, r2
 130 005e D2B2     		uxtb	r2, r2
 131 0060 02F0F102 		and	r2, r2, #241
 132 0064 42F00202 		orr	r2, r2, #2
 133 0068 D2B2     		uxtb	r2, r2
 134 006a D2B2     		uxtb	r2, r2
 135 006c 1A70     		strb	r2, [r3, #0]
 126:.\commandprocessor.c **** 	
 127:.\commandprocessor.c **** 	SWDHalt();
 136              		.loc 1 127 0
 137 006e FFF7FEFF 		bl	SWDHalt
 128:.\commandprocessor.c **** 	return;
 129:.\commandprocessor.c **** }
 138              		.loc 1 129 0
 139 0072 80BD     		pop	{r7, pc}
 140              		.cfi_endproc
 141              	.LFE30:
 142              		.size	CmdReset, .-CmdReset
 143              		.section	.text.SWDComm,"ax",%progbits
 144              		.align	2
 145              		.global	SWDComm
 146              		.thumb
 147              		.thumb_func
 148              		.type	SWDComm, %function
 149              	SWDComm:
 150              	.LFB31:
 130:.\commandprocessor.c **** /*******************************************************************************
 131:.\commandprocessor.c **** * Function Name: SWDComm()
ARM GAS  C:\DOCUME~1\ADMINI~1\LOCALS~1\Temp\ccEpqQo0.s 			page 6


 132:.\commandprocessor.c **** ********************************************************************************
 133:.\commandprocessor.c **** * Summary:
 134:.\commandprocessor.c **** * Checks the command received through the USB control endpoint and invokes 
 135:.\commandprocessor.c **** * apporpriate functions.
 136:.\commandprocessor.c **** *
 137:.\commandprocessor.c **** * Parameters:
 138:.\commandprocessor.c **** *  void
 139:.\commandprocessor.c **** *
 140:.\commandprocessor.c **** * Return:
 141:.\commandprocessor.c **** *  void
 142:.\commandprocessor.c **** *
 143:.\commandprocessor.c **** *******************************************************************************/
 144:.\commandprocessor.c **** void SWDComm(void)
 145:.\commandprocessor.c **** {
 151              		.loc 1 145 0
 152              		.cfi_startproc
 153              		@ args = 0, pretend = 0, frame = 8
 154              		@ frame_needed = 1, uses_anonymous_args = 0
 155 0000 80B5     		push	{r7, lr}
 156              	.LCFI4:
 157              		.cfi_def_cfa_offset 8
 158 0002 82B0     		sub	sp, sp, #8
 159              	.LCFI5:
 160              		.cfi_def_cfa_offset 16
 161 0004 00AF     		add	r7, sp, #0
 162              		.cfi_offset 14, -4
 163              		.cfi_offset 7, -8
 164              	.LCFI6:
 165              		.cfi_def_cfa_register 7
 146:.\commandprocessor.c ****     uint8 progProtocol = 0u;
 166              		.loc 1 146 0
 167 0006 4FF00003 		mov	r3, #0
 168 000a FB71     		strb	r3, [r7, #7]
 147:.\commandprocessor.c **** 	/* Global variable pendingOp is set inside the function VendorCmd() defined in USBFS_commandInterf
 148:.\commandprocessor.c **** 	if(pendingOp)
 169              		.loc 1 148 0
 170 000c 40F20003 		movw	r3, #:lower16:pendingOp
 171 0010 C0F20003 		movt	r3, #:upper16:pendingOp
 172 0014 1B78     		ldrb	r3, [r3, #0]	@ zero_extendqisi2
 173 0016 002B     		cmp	r3, #0
 174 0018 63D0     		beq	.L8
 149:.\commandprocessor.c ****     {
 150:.\commandprocessor.c ****         switch(pendingOp)
 175              		.loc 1 150 0
 176 001a 40F20003 		movw	r3, #:lower16:pendingOp
 177 001e C0F20003 		movt	r3, #:upper16:pendingOp
 178 0022 1B78     		ldrb	r3, [r3, #0]	@ zero_extendqisi2
 179 0024 402B     		cmp	r3, #64
 180 0026 13D0     		beq	.L12
 181 0028 402B     		cmp	r3, #64
 182 002a 04DC     		bgt	.L16
 183 002c 012B     		cmp	r3, #1
 184 002e 09D0     		beq	.L10
 185 0030 042B     		cmp	r3, #4
 186 0032 0AD0     		beq	.L11
 187 0034 47E0     		b	.L9
 188              	.L16:
ARM GAS  C:\DOCUME~1\ADMINI~1\LOCALS~1\Temp\ccEpqQo0.s 			page 7


 189 0036 422B     		cmp	r3, #66
 190 0038 39D0     		beq	.L14
 191 003a 422B     		cmp	r3, #66
 192 003c 21DB     		blt	.L13
 193 003e 432B     		cmp	r3, #67
 194 0040 38D0     		beq	.L15
 195 0042 40E0     		b	.L9
 196              	.L10:
 151:.\commandprocessor.c ****         {
 152:.\commandprocessor.c **** 			/* Command = 0x01, programmer polls the status (connected, powered) of the KitProg */
 153:.\commandprocessor.c **** 			case CMD_STATUS:
 154:.\commandprocessor.c **** 					CmdStatus();
 197              		.loc 1 154 0
 198 0044 FFF7FEFF 		bl	CmdStatus
 155:.\commandprocessor.c **** 					break;
 199              		.loc 1 155 0
 200 0048 3DE0     		b	.L9
 201              	.L11:
 156:.\commandprocessor.c **** 			
 157:.\commandprocessor.c **** 			/* Command = 0x04, to reset the PSoC 4 */
 158:.\commandprocessor.c ****             case CMD_RESET:
 159:.\commandprocessor.c **** 					CmdReset();
 202              		.loc 1 159 0
 203 004a FFF7FEFF 		bl	CmdReset
 160:.\commandprocessor.c ****                     break;	
 204              		.loc 1 160 0
 205 004e 3AE0     		b	.L9
 206              	.L12:
 161:.\commandprocessor.c **** 			
 162:.\commandprocessor.c **** 			/* Command = 0x40, sets the protocol to be SWD */		
 163:.\commandprocessor.c **** 			case CMD_SET_PROTOCOL: 
 164:.\commandprocessor.c ****                     progProtocol = pifData[0];
 207              		.loc 1 164 0
 208 0050 40F20003 		movw	r3, #:lower16:pifData
 209 0054 C0F20003 		movt	r3, #:upper16:pifData
 210 0058 1B78     		ldrb	r3, [r3, #0]
 211 005a FB71     		strb	r3, [r7, #7]
 165:.\commandprocessor.c ****                     /* If protocol is SWD set the flag. Otherwise ignore the command. */
 166:.\commandprocessor.c ****                     if (progProtocol == 1)
 212              		.loc 1 166 0
 213 005c FB79     		ldrb	r3, [r7, #7]	@ zero_extendqisi2
 214 005e 012B     		cmp	r3, #1
 215 0060 07D1     		bne	.L17
 167:.\commandprocessor.c ****                     {
 168:.\commandprocessor.c ****                         SWDFlag = SET;
 216              		.loc 1 168 0
 217 0062 40F20003 		movw	r3, #:lower16:SWDFlag
 218 0066 C0F20003 		movt	r3, #:upper16:SWDFlag
 219 006a 4FF00102 		mov	r2, #1
 220 006e 1A70     		strb	r2, [r3, #0]
 169:.\commandprocessor.c **** 					} 
 170:.\commandprocessor.c **** 					else 
 171:.\commandprocessor.c **** 					{
 172:.\commandprocessor.c ****                         SWDFlag = NOT_SET;
 173:.\commandprocessor.c **** 					}
 174:.\commandprocessor.c **** 					break;
 221              		.loc 1 174 0
ARM GAS  C:\DOCUME~1\ADMINI~1\LOCALS~1\Temp\ccEpqQo0.s 			page 8


 222 0070 29E0     		b	.L9
 223              	.L17:
 224              		.loc 1 172 0
 225 0072 40F20003 		movw	r3, #:lower16:SWDFlag
 226 0076 C0F20003 		movt	r3, #:upper16:SWDFlag
 227 007a 4FF00002 		mov	r2, #0
 228 007e 1A70     		strb	r2, [r3, #0]
 229              		.loc 1 174 0
 230 0080 21E0     		b	.L9
 231              	.L13:
 175:.\commandprocessor.c **** 					
 176:.\commandprocessor.c ****             /* Command = 0x41, synchronise data transfer of the data endpoints with control endpoin
 177:.\commandprocessor.c ****             case CMD_SWD_SYNC: 
 178:.\commandprocessor.c ****                     bufOutOffset = 0;
 232              		.loc 1 178 0
 233 0082 40F20003 		movw	r3, #:lower16:bufOutOffset
 234 0086 C0F20003 		movt	r3, #:upper16:bufOutOffset
 235 008a 4FF00002 		mov	r2, #0
 236 008e 1A80     		strh	r2, [r3, #0]	@ movhi
 179:.\commandprocessor.c ****                     bufInOffset = 0;
 237              		.loc 1 179 0
 238 0090 40F20003 		movw	r3, #:lower16:bufInOffset
 239 0094 C0F20003 		movt	r3, #:upper16:bufInOffset
 240 0098 4FF00002 		mov	r2, #0
 241 009c 1A80     		strh	r2, [r3, #0]	@ movhi
 180:.\commandprocessor.c ****                     bufOutLen = 0;
 242              		.loc 1 180 0
 243 009e 40F20003 		movw	r3, #:lower16:bufOutLen
 244 00a2 C0F20003 		movt	r3, #:upper16:bufOutLen
 245 00a6 4FF00002 		mov	r2, #0
 246 00aa 1A80     		strh	r2, [r3, #0]	@ movhi
 181:.\commandprocessor.c ****                     break;
 247              		.loc 1 181 0
 248 00ac 0BE0     		b	.L9
 249              	.L14:
 182:.\commandprocessor.c **** 					
 183:.\commandprocessor.c ****             /* Command = 0x42, Acquires PSoC 3/4/5. CmdSWDAcquire() defined in swd.c  */
 184:.\commandprocessor.c ****             case CMD_SWD_ACQUIRE: 
 185:.\commandprocessor.c ****                     CmdSWDAcquire();
 250              		.loc 1 185 0
 251 00ae FFF7FEFF 		bl	CmdSWDAcquire
 186:.\commandprocessor.c ****                     break;
 252              		.loc 1 186 0
 253 00b2 08E0     		b	.L9
 254              	.L15:
 187:.\commandprocessor.c **** 					
 188:.\commandprocessor.c ****             /* Command = 0x43, to reset the SWD bus. SWDResetBus() defined in swd.c */
 189:.\commandprocessor.c ****             case CMD_SWD_SPECIAL: 
 190:.\commandprocessor.c ****                     if(pifData[0] == 0)
 255              		.loc 1 190 0
 256 00b4 40F20003 		movw	r3, #:lower16:pifData
 257 00b8 C0F20003 		movt	r3, #:upper16:pifData
 258 00bc 1B78     		ldrb	r3, [r3, #0]	@ zero_extendqisi2
 259 00be 002B     		cmp	r3, #0
 260 00c0 01D1     		bne	.L9
 191:.\commandprocessor.c **** 					{
 192:.\commandprocessor.c ****                         SWDResetBus();
ARM GAS  C:\DOCUME~1\ADMINI~1\LOCALS~1\Temp\ccEpqQo0.s 			page 9


 261              		.loc 1 192 0
 262 00c2 FFF7FEFF 		bl	SWDResetBus
 263              	.L9:
 193:.\commandprocessor.c ****                     } 
 194:.\commandprocessor.c ****                     break;
 195:.\commandprocessor.c **** 
 196:.\commandprocessor.c ****             default:
 197:.\commandprocessor.c **** 			/* Ignore other commands for now */
 198:.\commandprocessor.c **** 					break;
 199:.\commandprocessor.c ****         }		
 200:.\commandprocessor.c **** 
 201:.\commandprocessor.c ****         pendingOp = CLEAR_OP;
 264              		.loc 1 201 0
 265 00c6 40F20003 		movw	r3, #:lower16:pendingOp
 266 00ca C0F20003 		movt	r3, #:upper16:pendingOp
 267 00ce 4FF00002 		mov	r2, #0
 268 00d2 1A70     		strb	r2, [r3, #0]
 202:.\commandprocessor.c ****         fTcBusy = CLEAR_BUSY;
 269              		.loc 1 202 0
 270 00d4 40F20003 		movw	r3, #:lower16:fTcBusy
 271 00d8 C0F20003 		movt	r3, #:upper16:fTcBusy
 272 00dc 4FF00002 		mov	r2, #0
 273 00e0 1A70     		strb	r2, [r3, #0]
 274              	.L8:
 203:.\commandprocessor.c ****     }
 204:.\commandprocessor.c **** 	/* If a packet is received in the OUT endpoint */
 205:.\commandprocessor.c ****     if(USBFS_bGetEPAckState(SWD_OUT_EP))
 275              		.loc 1 205 0
 276 00e2 4FF00200 		mov	r0, #2
 277 00e6 FFF7FEFF 		bl	USBFS_GetEPAckState
 278 00ea 0346     		mov	r3, r0
 279 00ec 002B     		cmp	r3, #0
 280 00ee 08D0     		beq	.L20
 206:.\commandprocessor.c ****     {
 207:.\commandprocessor.c **** 		/* If protocol is SWD, then use FSM algorithm for 64-bytes packets on SWD-commands */
 208:.\commandprocessor.c ****         if(SWDFlag == SET) 
 281              		.loc 1 208 0
 282 00f0 40F20003 		movw	r3, #:lower16:SWDFlag
 283 00f4 C0F20003 		movt	r3, #:upper16:SWDFlag
 284 00f8 1B78     		ldrb	r3, [r3, #0]	@ zero_extendqisi2
 285 00fa 012B     		cmp	r3, #1
 286 00fc 01D1     		bne	.L20
 209:.\commandprocessor.c ****         {
 210:.\commandprocessor.c ****             /* Handles the swd commands. Defined in swd.c */
 211:.\commandprocessor.c **** 			HandleSWDRequest();
 287              		.loc 1 211 0
 288 00fe FFF7FEFF 		bl	HandleSWDRequest
 289              	.L20:
 212:.\commandprocessor.c ****         }
 213:.\commandprocessor.c ****         
 214:.\commandprocessor.c ****     }
 215:.\commandprocessor.c **** 	
 216:.\commandprocessor.c **** 	return;
 217:.\commandprocessor.c **** }
 290              		.loc 1 217 0
 291 0102 07F10807 		add	r7, r7, #8
 292 0106 BD46     		mov	sp, r7
ARM GAS  C:\DOCUME~1\ADMINI~1\LOCALS~1\Temp\ccEpqQo0.s 			page 10


 293 0108 80BD     		pop	{r7, pc}
 294              		.cfi_endproc
 295              	.LFE31:
 296              		.size	SWDComm, .-SWDComm
 297 010a 00BF     		.text
 298              	.Letext0: