ARM GAS  C:\DOCUME~1\ADMINI~1\LOCALS~1\Temp\ccFTkIo0.s 			page 1


   1              		.syntax unified
   2              		.cpu cortex-m3
   3              		.fpu softvfp
   4              		.eabi_attribute 20, 1
   5              		.eabi_attribute 21, 1
   6              		.eabi_attribute 23, 3
   7              		.eabi_attribute 24, 1
   8              		.eabi_attribute 25, 1
   9              		.eabi_attribute 26, 1
  10              		.eabi_attribute 30, 6
  11              		.eabi_attribute 18, 4
  12              		.thumb
  13              		.file	"I2CHW_PM.c"
  20 0000 CA000000 		.text
  20      02006C00 
  20      00000201 
  20      FB0E0D00 
  20      01010101 
  21              	.Ltext0:
  22              		.cfi_sections	.debug_frame
  23              		.global	I2CHW_backup
  24              		.bss
  25              		.align	2
  26              		.type	I2CHW_backup, %object
  27              		.size	I2CHW_backup, 2
  28              	I2CHW_backup:
  29 0000 0000     		.space	2
  30 0002 0000     		.section	.text.I2CHW_SaveConfig,"ax",%progbits
  31              		.align	2
  32              		.global	I2CHW_SaveConfig
  33              		.thumb
  34              		.thumb_func
  35              		.type	I2CHW_SaveConfig, %function
  36              	I2CHW_SaveConfig:
  37              	.LFB0:
  38              		.file 1 ".\\Generated_Source\\PSoC5\\I2CHW_PM.c"
   1:.\Generated_Source\PSoC5/I2CHW_PM.c **** /*******************************************************************************
   2:.\Generated_Source\PSoC5/I2CHW_PM.c **** * File Name: I2CHW_PM.c
   3:.\Generated_Source\PSoC5/I2CHW_PM.c **** * Version 3.30
   4:.\Generated_Source\PSoC5/I2CHW_PM.c **** *
   5:.\Generated_Source\PSoC5/I2CHW_PM.c **** * Description:
   6:.\Generated_Source\PSoC5/I2CHW_PM.c **** *  This file provides Low power mode APIs for I2C component.
   7:.\Generated_Source\PSoC5/I2CHW_PM.c **** *
   8:.\Generated_Source\PSoC5/I2CHW_PM.c **** * Note:
   9:.\Generated_Source\PSoC5/I2CHW_PM.c **** *  None
  10:.\Generated_Source\PSoC5/I2CHW_PM.c **** *
  11:.\Generated_Source\PSoC5/I2CHW_PM.c **** ********************************************************************************
  12:.\Generated_Source\PSoC5/I2CHW_PM.c **** * Copyright 2008-2012, Cypress Semiconductor Corporation.  All rights reserved.
  13:.\Generated_Source\PSoC5/I2CHW_PM.c **** * You may use this file only in accordance with the license, terms, conditions,
  14:.\Generated_Source\PSoC5/I2CHW_PM.c **** * disclaimers, and limitations in the end user license agreement accompanying
  15:.\Generated_Source\PSoC5/I2CHW_PM.c **** * the software package with which this file was provided.
ARM GAS  C:\DOCUME~1\ADMINI~1\LOCALS~1\Temp\ccFTkIo0.s 			page 2


  16:.\Generated_Source\PSoC5/I2CHW_PM.c **** *******************************************************************************/
  17:.\Generated_Source\PSoC5/I2CHW_PM.c **** 
  18:.\Generated_Source\PSoC5/I2CHW_PM.c **** #include "I2CHW_PVT.h"
  19:.\Generated_Source\PSoC5/I2CHW_PM.c **** 
  20:.\Generated_Source\PSoC5/I2CHW_PM.c **** I2CHW_BACKUP_STRUCT I2CHW_backup =
  21:.\Generated_Source\PSoC5/I2CHW_PM.c **** {
  22:.\Generated_Source\PSoC5/I2CHW_PM.c ****     I2CHW_DISABLE, /* enableState */
  23:.\Generated_Source\PSoC5/I2CHW_PM.c **** 
  24:.\Generated_Source\PSoC5/I2CHW_PM.c ****     #if(I2CHW_FF_IMPLEMENTED)
  25:.\Generated_Source\PSoC5/I2CHW_PM.c ****         I2CHW_DEFAULT_XCFG,  /* xcfg */
  26:.\Generated_Source\PSoC5/I2CHW_PM.c ****         I2CHW_DEFAULT_CFG,   /* cfg  */
  27:.\Generated_Source\PSoC5/I2CHW_PM.c **** 
  28:.\Generated_Source\PSoC5/I2CHW_PM.c ****         #if(I2CHW_MODE_SLAVE_ENABLED)
  29:.\Generated_Source\PSoC5/I2CHW_PM.c ****             I2CHW_DEFAULT_ADDR, /* addr */
  30:.\Generated_Source\PSoC5/I2CHW_PM.c ****         #endif /* (I2CHW_MODE_SLAVE_ENABLED) */
  31:.\Generated_Source\PSoC5/I2CHW_PM.c **** 
  32:.\Generated_Source\PSoC5/I2CHW_PM.c ****         #if(CY_PSOC5A)
  33:.\Generated_Source\PSoC5/I2CHW_PM.c ****             LO8(I2CHW_DEFAULT_DIVIDE_FACTOR),  /* div */
  34:.\Generated_Source\PSoC5/I2CHW_PM.c ****         #else
  35:.\Generated_Source\PSoC5/I2CHW_PM.c ****             LO8(I2CHW_DEFAULT_DIVIDE_FACTOR), /* div1 */
  36:.\Generated_Source\PSoC5/I2CHW_PM.c ****             HI8(I2CHW_DEFAULT_DIVIDE_FACTOR), /* div2 */
  37:.\Generated_Source\PSoC5/I2CHW_PM.c ****         #endif /* (CY_PSOC5A) */
  38:.\Generated_Source\PSoC5/I2CHW_PM.c **** 
  39:.\Generated_Source\PSoC5/I2CHW_PM.c ****     #else  /* (I2CHW_UDB_IMPLEMENTED) */
  40:.\Generated_Source\PSoC5/I2CHW_PM.c ****         I2CHW_DEFAULT_CFG,    /* control */
  41:.\Generated_Source\PSoC5/I2CHW_PM.c **** 
  42:.\Generated_Source\PSoC5/I2CHW_PM.c ****         #if(CY_UDB_V0)
  43:.\Generated_Source\PSoC5/I2CHW_PM.c ****             I2CHW_INT_ENABLE_MASK, /* aux_ctl */
  44:.\Generated_Source\PSoC5/I2CHW_PM.c **** 
  45:.\Generated_Source\PSoC5/I2CHW_PM.c ****             #if(I2CHW_MODE_SLAVE_ENABLED)
  46:.\Generated_Source\PSoC5/I2CHW_PM.c ****                 I2CHW_DEFAULT_ADDR, /* addr_d0 */
  47:.\Generated_Source\PSoC5/I2CHW_PM.c ****             #endif /* (I2CHW_MODE_SLAVE_ENABLED) */
  48:.\Generated_Source\PSoC5/I2CHW_PM.c ****         #endif /* (CY_UDB_V0) */
  49:.\Generated_Source\PSoC5/I2CHW_PM.c ****     #endif /* (I2CHW_FF_IMPLEMENTED) */
  50:.\Generated_Source\PSoC5/I2CHW_PM.c **** 
  51:.\Generated_Source\PSoC5/I2CHW_PM.c ****     #if(I2CHW_TIMEOUT_ENABLED)
  52:.\Generated_Source\PSoC5/I2CHW_PM.c ****         I2CHW_DEFAULT_TMOUT_PERIOD,
  53:.\Generated_Source\PSoC5/I2CHW_PM.c ****         I2CHW_DEFAULT_TMOUT_INTR_MASK,
  54:.\Generated_Source\PSoC5/I2CHW_PM.c **** 
  55:.\Generated_Source\PSoC5/I2CHW_PM.c ****         #if(I2CHW_TIMEOUT_PRESCALER_ENABLED && CY_UDB_V0)
  56:.\Generated_Source\PSoC5/I2CHW_PM.c ****             I2CHW_DEFAULT_TMOUT_PRESCALER_PRD,
  57:.\Generated_Source\PSoC5/I2CHW_PM.c ****         #endif /* (I2CHW_TIMEOUT_PRESCALER_ENABLED) */
  58:.\Generated_Source\PSoC5/I2CHW_PM.c **** 
  59:.\Generated_Source\PSoC5/I2CHW_PM.c ****     #endif /* (I2CHW_TIMEOUT_ENABLED) */
  60:.\Generated_Source\PSoC5/I2CHW_PM.c **** };
  61:.\Generated_Source\PSoC5/I2CHW_PM.c **** 
  62:.\Generated_Source\PSoC5/I2CHW_PM.c **** #if((I2CHW_FF_IMPLEMENTED) && (I2CHW_WAKEUP_ENABLED))
  63:.\Generated_Source\PSoC5/I2CHW_PM.c ****     volatile uint8 I2CHW_wakeupSource;
  64:.\Generated_Source\PSoC5/I2CHW_PM.c **** #endif /* ((I2CHW_FF_IMPLEMENTED) && (I2CHW_WAKEUP_ENABLED)) */
  65:.\Generated_Source\PSoC5/I2CHW_PM.c **** 
  66:.\Generated_Source\PSoC5/I2CHW_PM.c **** 
  67:.\Generated_Source\PSoC5/I2CHW_PM.c **** /*******************************************************************************
  68:.\Generated_Source\PSoC5/I2CHW_PM.c **** * Function Name: I2CHW_SaveConfig
  69:.\Generated_Source\PSoC5/I2CHW_PM.c **** ********************************************************************************
  70:.\Generated_Source\PSoC5/I2CHW_PM.c **** *
  71:.\Generated_Source\PSoC5/I2CHW_PM.c **** * Summary:
  72:.\Generated_Source\PSoC5/I2CHW_PM.c **** *  Wakeup on address match enabled: disables I2C Master(if was enabled before go
ARM GAS  C:\DOCUME~1\ADMINI~1\LOCALS~1\Temp\ccFTkIo0.s 			page 3


  73:.\Generated_Source\PSoC5/I2CHW_PM.c **** *  to sleep), enables I2C backup regulator. Waits while on-going transaction be
  74:.\Generated_Source\PSoC5/I2CHW_PM.c **** *  will completed and I2C will be ready go to sleep. All incoming transaction
  75:.\Generated_Source\PSoC5/I2CHW_PM.c **** *  will be NACKed till power down will be asserted. The address match event
  76:.\Generated_Source\PSoC5/I2CHW_PM.c **** *  wakes up the chip.
  77:.\Generated_Source\PSoC5/I2CHW_PM.c **** *  Wakeup on address match disabled: saves I2C configuration and non-retention
  78:.\Generated_Source\PSoC5/I2CHW_PM.c **** *  register values.
  79:.\Generated_Source\PSoC5/I2CHW_PM.c **** *
  80:.\Generated_Source\PSoC5/I2CHW_PM.c **** * Parameters:
  81:.\Generated_Source\PSoC5/I2CHW_PM.c **** *  None
  82:.\Generated_Source\PSoC5/I2CHW_PM.c **** *
  83:.\Generated_Source\PSoC5/I2CHW_PM.c **** * Return:
  84:.\Generated_Source\PSoC5/I2CHW_PM.c **** *  None
  85:.\Generated_Source\PSoC5/I2CHW_PM.c **** *
  86:.\Generated_Source\PSoC5/I2CHW_PM.c **** * Global Variables:
  87:.\Generated_Source\PSoC5/I2CHW_PM.c **** *  I2CHW_backup - used to save component configuration and
  88:.\Generated_Source\PSoC5/I2CHW_PM.c **** *       none-retention registers before enter sleep mode.
  89:.\Generated_Source\PSoC5/I2CHW_PM.c **** *
  90:.\Generated_Source\PSoC5/I2CHW_PM.c **** * Reentrant:
  91:.\Generated_Source\PSoC5/I2CHW_PM.c **** *  No
  92:.\Generated_Source\PSoC5/I2CHW_PM.c **** *
  93:.\Generated_Source\PSoC5/I2CHW_PM.c **** *******************************************************************************/
  94:.\Generated_Source\PSoC5/I2CHW_PM.c **** void I2CHW_SaveConfig(void) 
  95:.\Generated_Source\PSoC5/I2CHW_PM.c **** {
  39              		.loc 1 95 0
  40              		.cfi_startproc
  41              		@ args = 0, pretend = 0, frame = 0
  42              		@ frame_needed = 1, uses_anonymous_args = 0
  43              		@ link register save eliminated.
  44 0000 80B4     		push	{r7}
  45              	.LCFI0:
  46              		.cfi_def_cfa_offset 4
  47 0002 00AF     		add	r7, sp, #0
  48              		.cfi_offset 7, -4
  49              	.LCFI1:
  50              		.cfi_def_cfa_register 7
  96:.\Generated_Source\PSoC5/I2CHW_PM.c ****     #if(I2CHW_FF_IMPLEMENTED)
  97:.\Generated_Source\PSoC5/I2CHW_PM.c ****         #if(I2CHW_WAKEUP_ENABLED)
  98:.\Generated_Source\PSoC5/I2CHW_PM.c ****             uint8 enableInterrupts;
  99:.\Generated_Source\PSoC5/I2CHW_PM.c ****         #endif /* (I2CHW_WAKEUP_ENABLED) */
 100:.\Generated_Source\PSoC5/I2CHW_PM.c **** 
 101:.\Generated_Source\PSoC5/I2CHW_PM.c ****         /* Store regiters in either Sleep mode */
 102:.\Generated_Source\PSoC5/I2CHW_PM.c ****         I2CHW_backup.cfg  = I2CHW_CFG_REG;
 103:.\Generated_Source\PSoC5/I2CHW_PM.c ****         I2CHW_backup.xcfg = I2CHW_XCFG_REG;
 104:.\Generated_Source\PSoC5/I2CHW_PM.c **** 
 105:.\Generated_Source\PSoC5/I2CHW_PM.c ****         #if(I2CHW_MODE_SLAVE_ENABLED)
 106:.\Generated_Source\PSoC5/I2CHW_PM.c ****             I2CHW_backup.addr = I2CHW_ADDR_REG;
 107:.\Generated_Source\PSoC5/I2CHW_PM.c ****         #endif /* (I2CHW_MODE_SLAVE_ENABLED) */
 108:.\Generated_Source\PSoC5/I2CHW_PM.c **** 
 109:.\Generated_Source\PSoC5/I2CHW_PM.c ****         #if(CY_PSOC5A)
 110:.\Generated_Source\PSoC5/I2CHW_PM.c ****             I2CHW_backup.clkDiv   = I2CHW_CLKDIV_REG;
 111:.\Generated_Source\PSoC5/I2CHW_PM.c ****         #else
 112:.\Generated_Source\PSoC5/I2CHW_PM.c ****             I2CHW_backup.clkDiv1  = I2CHW_CLKDIV1_REG;
 113:.\Generated_Source\PSoC5/I2CHW_PM.c ****             I2CHW_backup.clkDiv2  = I2CHW_CLKDIV2_REG;
 114:.\Generated_Source\PSoC5/I2CHW_PM.c ****         #endif /* (CY_PSOC5A) */
 115:.\Generated_Source\PSoC5/I2CHW_PM.c **** 
 116:.\Generated_Source\PSoC5/I2CHW_PM.c ****         #if(I2CHW_WAKEUP_ENABLED)
 117:.\Generated_Source\PSoC5/I2CHW_PM.c ****             /* Need to disable Master */
ARM GAS  C:\DOCUME~1\ADMINI~1\LOCALS~1\Temp\ccFTkIo0.s 			page 4


 118:.\Generated_Source\PSoC5/I2CHW_PM.c ****             I2CHW_CFG_REG &= ((uint8) ~I2CHW_ENABLE_MASTER);
 119:.\Generated_Source\PSoC5/I2CHW_PM.c **** 
 120:.\Generated_Source\PSoC5/I2CHW_PM.c ****             /* Enable the I2C regulator backup */
 121:.\Generated_Source\PSoC5/I2CHW_PM.c ****             enableInterrupts = CyEnterCriticalSection();
 122:.\Generated_Source\PSoC5/I2CHW_PM.c ****             I2CHW_PWRSYS_CR1_REG |= I2CHW_PWRSYS_CR1_I2C_REG_BACKUP;
 123:.\Generated_Source\PSoC5/I2CHW_PM.c ****             CyExitCriticalSection(enableInterrupts);
 124:.\Generated_Source\PSoC5/I2CHW_PM.c **** 
 125:.\Generated_Source\PSoC5/I2CHW_PM.c ****             /* 1) Set force NACK to ignore I2C transactions
 126:.\Generated_Source\PSoC5/I2CHW_PM.c ****                2) Wait while I2C will be ready go to Sleep
 127:.\Generated_Source\PSoC5/I2CHW_PM.c ****                3) These bits are cleared on wake up */
 128:.\Generated_Source\PSoC5/I2CHW_PM.c ****             I2CHW_XCFG_REG |= I2CHW_XCFG_FORCE_NACK;
 129:.\Generated_Source\PSoC5/I2CHW_PM.c ****             while(0u == (I2CHW_XCFG_REG & I2CHW_XCFG_RDY_TO_SLEEP))
 130:.\Generated_Source\PSoC5/I2CHW_PM.c ****             {
 131:.\Generated_Source\PSoC5/I2CHW_PM.c ****                 ; /* Wait when block is ready to Sleep */
 132:.\Generated_Source\PSoC5/I2CHW_PM.c ****             }
 133:.\Generated_Source\PSoC5/I2CHW_PM.c **** 
 134:.\Generated_Source\PSoC5/I2CHW_PM.c ****             /* Setup wakeup interrupt */
 135:.\Generated_Source\PSoC5/I2CHW_PM.c ****             I2CHW_DisableInt();
 136:.\Generated_Source\PSoC5/I2CHW_PM.c ****             (void) CyIntSetVector(I2CHW_ISR_NUMBER, &I2CHW_WAKEUP_ISR);
 137:.\Generated_Source\PSoC5/I2CHW_PM.c ****             I2CHW_wakeupSource = 0u;
 138:.\Generated_Source\PSoC5/I2CHW_PM.c ****             I2CHW_EnableInt();
 139:.\Generated_Source\PSoC5/I2CHW_PM.c **** 
 140:.\Generated_Source\PSoC5/I2CHW_PM.c ****         #endif /* (I2CHW_WAKEUP_ENABLED) */
 141:.\Generated_Source\PSoC5/I2CHW_PM.c **** 
 142:.\Generated_Source\PSoC5/I2CHW_PM.c ****     #else
 143:.\Generated_Source\PSoC5/I2CHW_PM.c ****         /* Store only address match bit */
 144:.\Generated_Source\PSoC5/I2CHW_PM.c ****         I2CHW_backup.control = (I2CHW_CFG_REG & I2CHW_CTRL_ANY_ADDRESS_MASK);
  51              		.loc 1 144 0
  52 0004 46F27343 		movw	r3, #:lower16:1073767539
  53 0008 C4F20003 		movt	r3, #:upper16:1073767539
  54 000c 1B78     		ldrb	r3, [r3, #0]
  55 000e DBB2     		uxtb	r3, r3
  56 0010 1A46     		mov	r2, r3
  57 0012 02F00802 		and	r2, r2, #8
  58 0016 40F20003 		movw	r3, #:lower16:I2CHW_backup
  59 001a C0F20003 		movt	r3, #:upper16:I2CHW_backup
  60 001e 5A70     		strb	r2, [r3, #1]
 145:.\Generated_Source\PSoC5/I2CHW_PM.c **** 
 146:.\Generated_Source\PSoC5/I2CHW_PM.c ****         #if(CY_UDB_V0)
 147:.\Generated_Source\PSoC5/I2CHW_PM.c ****             /* Store interrupt mask bits */
 148:.\Generated_Source\PSoC5/I2CHW_PM.c ****             I2CHW_backup.intMask = I2CHW_INT_MASK_REG;
 149:.\Generated_Source\PSoC5/I2CHW_PM.c **** 
 150:.\Generated_Source\PSoC5/I2CHW_PM.c ****             #if(I2CHW_MODE & I2CHW_MODE_SLAVE)
 151:.\Generated_Source\PSoC5/I2CHW_PM.c ****                 I2CHW_backup.addr = I2CHW_ADDR_REG;
 152:.\Generated_Source\PSoC5/I2CHW_PM.c ****             #endif /* (I2CHW_MODE & I2CHW_MODE_SLAVE) */
 153:.\Generated_Source\PSoC5/I2CHW_PM.c **** 
 154:.\Generated_Source\PSoC5/I2CHW_PM.c ****         #endif /* (CY_UDB_V0) */
 155:.\Generated_Source\PSoC5/I2CHW_PM.c **** 
 156:.\Generated_Source\PSoC5/I2CHW_PM.c ****     #endif /* (I2CHW_FF_IMPLEMENTED) */
 157:.\Generated_Source\PSoC5/I2CHW_PM.c **** 
 158:.\Generated_Source\PSoC5/I2CHW_PM.c ****     #if(I2CHW_TIMEOUT_ENABLED)
 159:.\Generated_Source\PSoC5/I2CHW_PM.c ****         I2CHW_TimeoutSaveConfig();   /* Save Timeout config */
 160:.\Generated_Source\PSoC5/I2CHW_PM.c ****     #endif /* (I2CHW_TIMEOUT_ENABLED) */
 161:.\Generated_Source\PSoC5/I2CHW_PM.c **** }
  61              		.loc 1 161 0
  62 0020 BD46     		mov	sp, r7
  63 0022 80BC     		pop	{r7}
ARM GAS  C:\DOCUME~1\ADMINI~1\LOCALS~1\Temp\ccFTkIo0.s 			page 5


  64 0024 7047     		bx	lr
  65              		.cfi_endproc
  66              	.LFE0:
  67              		.size	I2CHW_SaveConfig, .-I2CHW_SaveConfig
  68 0026 00BF     		.section	.text.I2CHW_Sleep,"ax",%progbits
  69              		.align	2
  70              		.global	I2CHW_Sleep
  71              		.thumb
  72              		.thumb_func
  73              		.type	I2CHW_Sleep, %function
  74              	I2CHW_Sleep:
  75              	.LFB1:
 162:.\Generated_Source\PSoC5/I2CHW_PM.c **** 
 163:.\Generated_Source\PSoC5/I2CHW_PM.c **** 
 164:.\Generated_Source\PSoC5/I2CHW_PM.c **** /*******************************************************************************
 165:.\Generated_Source\PSoC5/I2CHW_PM.c **** * Function Name: I2CHW_Sleep
 166:.\Generated_Source\PSoC5/I2CHW_PM.c **** ********************************************************************************
 167:.\Generated_Source\PSoC5/I2CHW_PM.c **** *
 168:.\Generated_Source\PSoC5/I2CHW_PM.c **** * Summary:
 169:.\Generated_Source\PSoC5/I2CHW_PM.c **** *  Wakeup on address match enabled: All incoming transaction will be NACKed till
 170:.\Generated_Source\PSoC5/I2CHW_PM.c **** *  power down will be asserted. The address match event wakes up the chip.
 171:.\Generated_Source\PSoC5/I2CHW_PM.c **** *  Wakeup on address match disabled: Disables active mode power template bits or
 172:.\Generated_Source\PSoC5/I2CHW_PM.c **** *  clock gating as appropriate. Saves I2C configuration and non-retention
 173:.\Generated_Source\PSoC5/I2CHW_PM.c **** *  register values.
 174:.\Generated_Source\PSoC5/I2CHW_PM.c **** *  Disables I2C interrupt.
 175:.\Generated_Source\PSoC5/I2CHW_PM.c **** *
 176:.\Generated_Source\PSoC5/I2CHW_PM.c **** * Parameters:
 177:.\Generated_Source\PSoC5/I2CHW_PM.c **** *  None
 178:.\Generated_Source\PSoC5/I2CHW_PM.c **** *
 179:.\Generated_Source\PSoC5/I2CHW_PM.c **** * Return:
 180:.\Generated_Source\PSoC5/I2CHW_PM.c **** *  None
 181:.\Generated_Source\PSoC5/I2CHW_PM.c **** *
 182:.\Generated_Source\PSoC5/I2CHW_PM.c **** * Reentrant:
 183:.\Generated_Source\PSoC5/I2CHW_PM.c **** *  No
 184:.\Generated_Source\PSoC5/I2CHW_PM.c **** *
 185:.\Generated_Source\PSoC5/I2CHW_PM.c **** *******************************************************************************/
 186:.\Generated_Source\PSoC5/I2CHW_PM.c **** void I2CHW_Sleep(void) 
 187:.\Generated_Source\PSoC5/I2CHW_PM.c **** {
  76              		.loc 1 187 0
  77              		.cfi_startproc
  78              		@ args = 0, pretend = 0, frame = 0
  79              		@ frame_needed = 1, uses_anonymous_args = 0
  80 0000 80B5     		push	{r7, lr}
  81              	.LCFI2:
  82              		.cfi_def_cfa_offset 8
  83 0002 00AF     		add	r7, sp, #0
  84              		.cfi_offset 14, -4
  85              		.cfi_offset 7, -8
  86              	.LCFI3:
  87              		.cfi_def_cfa_register 7
 188:.\Generated_Source\PSoC5/I2CHW_PM.c ****     #if(I2CHW_WAKEUP_ENABLED)
 189:.\Generated_Source\PSoC5/I2CHW_PM.c ****         /* The I2C block should be always enabled if used as wakeup source */
 190:.\Generated_Source\PSoC5/I2CHW_PM.c ****         I2CHW_backup.enableState = I2CHW_DISABLE;
 191:.\Generated_Source\PSoC5/I2CHW_PM.c **** 
 192:.\Generated_Source\PSoC5/I2CHW_PM.c ****         #if(I2CHW_TIMEOUT_ENABLED)
 193:.\Generated_Source\PSoC5/I2CHW_PM.c ****             I2CHW_TimeoutStop();
 194:.\Generated_Source\PSoC5/I2CHW_PM.c ****         #endif /* (I2CHW_TIMEOUT_ENABLED) */
ARM GAS  C:\DOCUME~1\ADMINI~1\LOCALS~1\Temp\ccFTkIo0.s 			page 6


 195:.\Generated_Source\PSoC5/I2CHW_PM.c **** 
 196:.\Generated_Source\PSoC5/I2CHW_PM.c ****     #else
 197:.\Generated_Source\PSoC5/I2CHW_PM.c **** 
 198:.\Generated_Source\PSoC5/I2CHW_PM.c ****         I2CHW_backup.enableState = ((uint8) I2CHW_IS_ENABLED);
  88              		.loc 1 198 0
  89 0004 46F27343 		movw	r3, #:lower16:1073767539
  90 0008 C4F20003 		movt	r3, #:upper16:1073767539
  91 000c 1B78     		ldrb	r3, [r3, #0]
  92 000e DBB2     		uxtb	r3, r3
  93 0010 03F00203 		and	r3, r3, #2
  94 0014 002B     		cmp	r3, #0
  95 0016 0CBF     		ite	eq
  96 0018 0022     		moveq	r2, #0
  97 001a 0122     		movne	r2, #1
  98 001c 40F20003 		movw	r3, #:lower16:I2CHW_backup
  99 0020 C0F20003 		movt	r3, #:upper16:I2CHW_backup
 100 0024 1A70     		strb	r2, [r3, #0]
 199:.\Generated_Source\PSoC5/I2CHW_PM.c **** 
 200:.\Generated_Source\PSoC5/I2CHW_PM.c ****         if(I2CHW_IS_ENABLED)
 101              		.loc 1 200 0
 102 0026 46F27343 		movw	r3, #:lower16:1073767539
 103 002a C4F20003 		movt	r3, #:upper16:1073767539
 104 002e 1B78     		ldrb	r3, [r3, #0]
 105 0030 DBB2     		uxtb	r3, r3
 106 0032 03F00203 		and	r3, r3, #2
 107 0036 002B     		cmp	r3, #0
 108 0038 01D0     		beq	.L4
 201:.\Generated_Source\PSoC5/I2CHW_PM.c ****         {
 202:.\Generated_Source\PSoC5/I2CHW_PM.c ****             I2CHW_Stop();
 109              		.loc 1 202 0
 110 003a FFF7FEFF 		bl	I2CHW_Stop
 111              	.L4:
 203:.\Generated_Source\PSoC5/I2CHW_PM.c ****         }
 204:.\Generated_Source\PSoC5/I2CHW_PM.c ****     #endif /* (I2CHW_WAKEUP_ENABLED) */
 205:.\Generated_Source\PSoC5/I2CHW_PM.c **** 
 206:.\Generated_Source\PSoC5/I2CHW_PM.c ****     I2CHW_SaveConfig();
 112              		.loc 1 206 0
 113 003e FFF7FEFF 		bl	I2CHW_SaveConfig
 207:.\Generated_Source\PSoC5/I2CHW_PM.c **** }
 114              		.loc 1 207 0
 115 0042 80BD     		pop	{r7, pc}
 116              		.cfi_endproc
 117              	.LFE1:
 118              		.size	I2CHW_Sleep, .-I2CHW_Sleep
 119              		.section	.text.I2CHW_RestoreConfig,"ax",%progbits
 120              		.align	2
 121              		.global	I2CHW_RestoreConfig
 122              		.thumb
 123              		.thumb_func
 124              		.type	I2CHW_RestoreConfig, %function
 125              	I2CHW_RestoreConfig:
 126              	.LFB2:
 208:.\Generated_Source\PSoC5/I2CHW_PM.c **** 
 209:.\Generated_Source\PSoC5/I2CHW_PM.c **** 
 210:.\Generated_Source\PSoC5/I2CHW_PM.c **** /*******************************************************************************
 211:.\Generated_Source\PSoC5/I2CHW_PM.c **** * Function Name: I2CHW_RestoreConfig
 212:.\Generated_Source\PSoC5/I2CHW_PM.c **** ********************************************************************************
ARM GAS  C:\DOCUME~1\ADMINI~1\LOCALS~1\Temp\ccFTkIo0.s 			page 7


 213:.\Generated_Source\PSoC5/I2CHW_PM.c **** *
 214:.\Generated_Source\PSoC5/I2CHW_PM.c **** * Summary:
 215:.\Generated_Source\PSoC5/I2CHW_PM.c **** *  Wakeup on address match enabled: enables I2C Master (if was enabled before go
 216:.\Generated_Source\PSoC5/I2CHW_PM.c **** *  to sleep), disables I2C backup regulator.
 217:.\Generated_Source\PSoC5/I2CHW_PM.c **** *  Wakeup on address match disabled: Restores I2C configuration and
 218:.\Generated_Source\PSoC5/I2CHW_PM.c **** *  non-retention register values.
 219:.\Generated_Source\PSoC5/I2CHW_PM.c **** *
 220:.\Generated_Source\PSoC5/I2CHW_PM.c **** * Parameters:
 221:.\Generated_Source\PSoC5/I2CHW_PM.c **** *  None
 222:.\Generated_Source\PSoC5/I2CHW_PM.c **** *
 223:.\Generated_Source\PSoC5/I2CHW_PM.c **** * Return:
 224:.\Generated_Source\PSoC5/I2CHW_PM.c **** *  None
 225:.\Generated_Source\PSoC5/I2CHW_PM.c **** *
 226:.\Generated_Source\PSoC5/I2CHW_PM.c **** * Global Variables:
 227:.\Generated_Source\PSoC5/I2CHW_PM.c **** *  I2CHW_backup - used to save component configuration and
 228:.\Generated_Source\PSoC5/I2CHW_PM.c **** *  none-retention registers before exit sleep mode.
 229:.\Generated_Source\PSoC5/I2CHW_PM.c **** *
 230:.\Generated_Source\PSoC5/I2CHW_PM.c **** *******************************************************************************/
 231:.\Generated_Source\PSoC5/I2CHW_PM.c **** void I2CHW_RestoreConfig(void) 
 232:.\Generated_Source\PSoC5/I2CHW_PM.c **** {
 127              		.loc 1 232 0
 128              		.cfi_startproc
 129              		@ args = 0, pretend = 0, frame = 0
 130              		@ frame_needed = 1, uses_anonymous_args = 0
 131              		@ link register save eliminated.
 132 0000 80B4     		push	{r7}
 133              	.LCFI4:
 134              		.cfi_def_cfa_offset 4
 135 0002 00AF     		add	r7, sp, #0
 136              		.cfi_offset 7, -4
 137              	.LCFI5:
 138              		.cfi_def_cfa_register 7
 233:.\Generated_Source\PSoC5/I2CHW_PM.c ****     #if(I2CHW_FF_IMPLEMENTED)
 234:.\Generated_Source\PSoC5/I2CHW_PM.c ****         uint8 enableInterrupts;
 235:.\Generated_Source\PSoC5/I2CHW_PM.c **** 
 236:.\Generated_Source\PSoC5/I2CHW_PM.c ****         if(I2CHW_CHECK_PWRSYS_I2C_BACKUP)    /* Enabled if was in Sleep */
 237:.\Generated_Source\PSoC5/I2CHW_PM.c ****         {
 238:.\Generated_Source\PSoC5/I2CHW_PM.c ****             /* Disable back-up regulator */
 239:.\Generated_Source\PSoC5/I2CHW_PM.c ****             enableInterrupts = CyEnterCriticalSection();
 240:.\Generated_Source\PSoC5/I2CHW_PM.c ****             I2CHW_PWRSYS_CR1_REG &= ((uint8) ~I2CHW_PWRSYS_CR1_I2C_REG_BACKUP);
 241:.\Generated_Source\PSoC5/I2CHW_PM.c ****             CyExitCriticalSection(enableInterrupts);
 242:.\Generated_Source\PSoC5/I2CHW_PM.c **** 
 243:.\Generated_Source\PSoC5/I2CHW_PM.c ****             /* Re-enable Master */
 244:.\Generated_Source\PSoC5/I2CHW_PM.c ****             I2CHW_CFG_REG = I2CHW_backup.cfg;
 245:.\Generated_Source\PSoC5/I2CHW_PM.c ****         }
 246:.\Generated_Source\PSoC5/I2CHW_PM.c ****         else /* The I2C_REG_BACKUP was cleaned by PM API: it means Hibernate or wake-up not set */
 247:.\Generated_Source\PSoC5/I2CHW_PM.c ****         {
 248:.\Generated_Source\PSoC5/I2CHW_PM.c ****             #if(I2CHW_WAKEUP_ENABLED)
 249:.\Generated_Source\PSoC5/I2CHW_PM.c ****                 /* Disable power to I2C block before register restore */
 250:.\Generated_Source\PSoC5/I2CHW_PM.c ****                 enableInterrupts = CyEnterCriticalSection();
 251:.\Generated_Source\PSoC5/I2CHW_PM.c ****                 I2CHW_ACT_PWRMGR_REG  &= ((uint8) ~I2CHW_ACT_PWR_EN);
 252:.\Generated_Source\PSoC5/I2CHW_PM.c ****                 I2CHW_STBY_PWRMGR_REG &= ((uint8) ~I2CHW_STBY_PWR_EN);
 253:.\Generated_Source\PSoC5/I2CHW_PM.c ****                 CyExitCriticalSection(enableInterrupts);
 254:.\Generated_Source\PSoC5/I2CHW_PM.c **** 
 255:.\Generated_Source\PSoC5/I2CHW_PM.c ****                 /* Enable component after restore complete */
 256:.\Generated_Source\PSoC5/I2CHW_PM.c ****                 I2CHW_backup.enableState = I2CHW_ENABLE;
 257:.\Generated_Source\PSoC5/I2CHW_PM.c ****             #endif /* (I2CHW_WAKEUP_ENABLED) */
ARM GAS  C:\DOCUME~1\ADMINI~1\LOCALS~1\Temp\ccFTkIo0.s 			page 8


 258:.\Generated_Source\PSoC5/I2CHW_PM.c **** 
 259:.\Generated_Source\PSoC5/I2CHW_PM.c ****             /* Restore component registers: Hibernate disable power */
 260:.\Generated_Source\PSoC5/I2CHW_PM.c ****             I2CHW_XCFG_REG = I2CHW_backup.xcfg;
 261:.\Generated_Source\PSoC5/I2CHW_PM.c ****             I2CHW_CFG_REG  = I2CHW_backup.cfg;
 262:.\Generated_Source\PSoC5/I2CHW_PM.c **** 
 263:.\Generated_Source\PSoC5/I2CHW_PM.c ****             #if(I2CHW_MODE_SLAVE_ENABLED)
 264:.\Generated_Source\PSoC5/I2CHW_PM.c ****                 I2CHW_ADDR_REG = I2CHW_backup.addr;
 265:.\Generated_Source\PSoC5/I2CHW_PM.c ****             #endif /* (I2CHW_MODE_SLAVE_ENABLED) */
 266:.\Generated_Source\PSoC5/I2CHW_PM.c **** 
 267:.\Generated_Source\PSoC5/I2CHW_PM.c ****             #if(CY_PSOC5A)
 268:.\Generated_Source\PSoC5/I2CHW_PM.c ****                 I2CHW_CLKDIV_REG  = I2CHW_backup.clkDiv;
 269:.\Generated_Source\PSoC5/I2CHW_PM.c ****             #else
 270:.\Generated_Source\PSoC5/I2CHW_PM.c ****                 I2CHW_CLKDIV1_REG = I2CHW_backup.clkDiv1;
 271:.\Generated_Source\PSoC5/I2CHW_PM.c ****                 I2CHW_CLKDIV2_REG = I2CHW_backup.clkDiv2;
 272:.\Generated_Source\PSoC5/I2CHW_PM.c ****             #endif /* (CY_PSOC5A) */
 273:.\Generated_Source\PSoC5/I2CHW_PM.c ****         }
 274:.\Generated_Source\PSoC5/I2CHW_PM.c **** 
 275:.\Generated_Source\PSoC5/I2CHW_PM.c ****         #if(I2CHW_WAKEUP_ENABLED)
 276:.\Generated_Source\PSoC5/I2CHW_PM.c ****             I2CHW_DisableInt();
 277:.\Generated_Source\PSoC5/I2CHW_PM.c ****             (void) CyIntSetVector(I2CHW_ISR_NUMBER, &I2CHW_ISR);
 278:.\Generated_Source\PSoC5/I2CHW_PM.c ****             if(0u != I2CHW_wakeupSource)
 279:.\Generated_Source\PSoC5/I2CHW_PM.c ****             {
 280:.\Generated_Source\PSoC5/I2CHW_PM.c ****                 I2CHW_SetPendingInt();   /* Generate interrupt to process incomming transcation */
 281:.\Generated_Source\PSoC5/I2CHW_PM.c ****             }
 282:.\Generated_Source\PSoC5/I2CHW_PM.c ****             I2CHW_EnableInt();
 283:.\Generated_Source\PSoC5/I2CHW_PM.c ****         #endif /* (I2CHW_WAKEUP_ENABLED) */
 284:.\Generated_Source\PSoC5/I2CHW_PM.c **** 
 285:.\Generated_Source\PSoC5/I2CHW_PM.c ****     #else
 286:.\Generated_Source\PSoC5/I2CHW_PM.c **** 
 287:.\Generated_Source\PSoC5/I2CHW_PM.c ****         #if(CY_UDB_V0)
 288:.\Generated_Source\PSoC5/I2CHW_PM.c ****             uint8 enableInterrupts;
 289:.\Generated_Source\PSoC5/I2CHW_PM.c **** 
 290:.\Generated_Source\PSoC5/I2CHW_PM.c ****             I2CHW_INT_MASK_REG |= I2CHW_backup.intMask;
 291:.\Generated_Source\PSoC5/I2CHW_PM.c **** 
 292:.\Generated_Source\PSoC5/I2CHW_PM.c ****             enableInterrupts = CyEnterCriticalSection();
 293:.\Generated_Source\PSoC5/I2CHW_PM.c ****             I2CHW_INT_ENABLE_REG |= I2CHW_INT_ENABLE_MASK;
 294:.\Generated_Source\PSoC5/I2CHW_PM.c ****             CyExitCriticalSection(enableInterrupts);
 295:.\Generated_Source\PSoC5/I2CHW_PM.c **** 
 296:.\Generated_Source\PSoC5/I2CHW_PM.c ****             #if(I2CHW_MODE_MASTER_ENABLED)
 297:.\Generated_Source\PSoC5/I2CHW_PM.c ****                 /* Restore Master Clock generator */
 298:.\Generated_Source\PSoC5/I2CHW_PM.c ****                 I2CHW_MCLK_PRD_REG = I2CHW_DEFAULT_MCLK_PRD;
 299:.\Generated_Source\PSoC5/I2CHW_PM.c ****                 I2CHW_MCLK_CMP_REG = I2CHW_DEFAULT_MCLK_CMP;
 300:.\Generated_Source\PSoC5/I2CHW_PM.c ****             #endif /* (I2CHW_MODE_MASTER_ENABLED) */
 301:.\Generated_Source\PSoC5/I2CHW_PM.c **** 
 302:.\Generated_Source\PSoC5/I2CHW_PM.c ****             #if(I2CHW_MODE_SLAVE_ENABLED)
 303:.\Generated_Source\PSoC5/I2CHW_PM.c ****                 I2CHW_ADDR_REG = I2CHW_backup.addr;
 304:.\Generated_Source\PSoC5/I2CHW_PM.c **** 
 305:.\Generated_Source\PSoC5/I2CHW_PM.c ****                 /* Restore slave bit counter period */
 306:.\Generated_Source\PSoC5/I2CHW_PM.c ****                 I2CHW_PERIOD_REG = I2CHW_DEFAULT_PERIOD;
 307:.\Generated_Source\PSoC5/I2CHW_PM.c ****             #endif /* (I2CHW_MODE_SLAVE_ENABLED) */
 308:.\Generated_Source\PSoC5/I2CHW_PM.c **** 
 309:.\Generated_Source\PSoC5/I2CHW_PM.c ****         #endif /* (CY_UDB_V0) */
 310:.\Generated_Source\PSoC5/I2CHW_PM.c **** 
 311:.\Generated_Source\PSoC5/I2CHW_PM.c ****         I2CHW_CFG_REG = I2CHW_backup.control;
 139              		.loc 1 311 0
 140 0004 46F27343 		movw	r3, #:lower16:1073767539
 141 0008 C4F20003 		movt	r3, #:upper16:1073767539
ARM GAS  C:\DOCUME~1\ADMINI~1\LOCALS~1\Temp\ccFTkIo0.s 			page 9


 142 000c 40F20002 		movw	r2, #:lower16:I2CHW_backup
 143 0010 C0F20002 		movt	r2, #:upper16:I2CHW_backup
 144 0014 5278     		ldrb	r2, [r2, #1]	@ zero_extendqisi2
 145 0016 1A70     		strb	r2, [r3, #0]
 312:.\Generated_Source\PSoC5/I2CHW_PM.c **** 
 313:.\Generated_Source\PSoC5/I2CHW_PM.c ****     #endif /* (I2CHW_FF_IMPLEMENTED) */
 314:.\Generated_Source\PSoC5/I2CHW_PM.c **** 
 315:.\Generated_Source\PSoC5/I2CHW_PM.c ****     #if(I2CHW_TIMEOUT_ENABLED)
 316:.\Generated_Source\PSoC5/I2CHW_PM.c ****         I2CHW_TimeoutRestoreConfig();
 317:.\Generated_Source\PSoC5/I2CHW_PM.c ****     #endif /* (I2CHW_TIMEOUT_ENABLED) */
 318:.\Generated_Source\PSoC5/I2CHW_PM.c **** }
 146              		.loc 1 318 0
 147 0018 BD46     		mov	sp, r7
 148 001a 80BC     		pop	{r7}
 149 001c 7047     		bx	lr
 150              		.cfi_endproc
 151              	.LFE2:
 152              		.size	I2CHW_RestoreConfig, .-I2CHW_RestoreConfig
 153 001e 00BF     		.section	.text.I2CHW_Wakeup,"ax",%progbits
 154              		.align	2
 155              		.global	I2CHW_Wakeup
 156              		.thumb
 157              		.thumb_func
 158              		.type	I2CHW_Wakeup, %function
 159              	I2CHW_Wakeup:
 160              	.LFB3:
 319:.\Generated_Source\PSoC5/I2CHW_PM.c **** 
 320:.\Generated_Source\PSoC5/I2CHW_PM.c **** 
 321:.\Generated_Source\PSoC5/I2CHW_PM.c **** /*******************************************************************************
 322:.\Generated_Source\PSoC5/I2CHW_PM.c **** * Function Name: I2CHW_Wakeup
 323:.\Generated_Source\PSoC5/I2CHW_PM.c **** ********************************************************************************
 324:.\Generated_Source\PSoC5/I2CHW_PM.c **** *
 325:.\Generated_Source\PSoC5/I2CHW_PM.c **** * Summary:
 326:.\Generated_Source\PSoC5/I2CHW_PM.c **** *  Wakeup on address match enabled: enables I2C Master (if was enabled before go
 327:.\Generated_Source\PSoC5/I2CHW_PM.c **** *  to sleep) and disables I2C backup regulator.
 328:.\Generated_Source\PSoC5/I2CHW_PM.c **** *  Wakeup on address match disabled: Restores I2C configuration and
 329:.\Generated_Source\PSoC5/I2CHW_PM.c **** *  non-retention register values. Restores Active mode power template bits or
 330:.\Generated_Source\PSoC5/I2CHW_PM.c **** *  clock gating as appropriate.
 331:.\Generated_Source\PSoC5/I2CHW_PM.c **** *  The I2C interrupt remains disabled after function call.
 332:.\Generated_Source\PSoC5/I2CHW_PM.c **** *
 333:.\Generated_Source\PSoC5/I2CHW_PM.c **** * Parameters:
 334:.\Generated_Source\PSoC5/I2CHW_PM.c **** *  None
 335:.\Generated_Source\PSoC5/I2CHW_PM.c **** *
 336:.\Generated_Source\PSoC5/I2CHW_PM.c **** * Return:
 337:.\Generated_Source\PSoC5/I2CHW_PM.c **** *  None
 338:.\Generated_Source\PSoC5/I2CHW_PM.c **** *
 339:.\Generated_Source\PSoC5/I2CHW_PM.c **** * Reentrant:
 340:.\Generated_Source\PSoC5/I2CHW_PM.c **** *  No
 341:.\Generated_Source\PSoC5/I2CHW_PM.c **** *
 342:.\Generated_Source\PSoC5/I2CHW_PM.c **** *******************************************************************************/
 343:.\Generated_Source\PSoC5/I2CHW_PM.c **** void I2CHW_Wakeup(void) 
 344:.\Generated_Source\PSoC5/I2CHW_PM.c **** {
 161              		.loc 1 344 0
 162              		.cfi_startproc
 163              		@ args = 0, pretend = 0, frame = 0
 164              		@ frame_needed = 1, uses_anonymous_args = 0
 165 0000 80B5     		push	{r7, lr}
ARM GAS  C:\DOCUME~1\ADMINI~1\LOCALS~1\Temp\ccFTkIo0.s 			page 10


 166              	.LCFI6:
 167              		.cfi_def_cfa_offset 8
 168 0002 00AF     		add	r7, sp, #0
 169              		.cfi_offset 14, -4
 170              		.cfi_offset 7, -8
 171              	.LCFI7:
 172              		.cfi_def_cfa_register 7
 345:.\Generated_Source\PSoC5/I2CHW_PM.c ****     I2CHW_RestoreConfig();   /* Restore I2C register settings */
 173              		.loc 1 345 0
 174 0004 FFF7FEFF 		bl	I2CHW_RestoreConfig
 346:.\Generated_Source\PSoC5/I2CHW_PM.c **** 
 347:.\Generated_Source\PSoC5/I2CHW_PM.c ****     /* Restore component enable state */
 348:.\Generated_Source\PSoC5/I2CHW_PM.c ****     if(0u != I2CHW_backup.enableState)
 175              		.loc 1 348 0
 176 0008 40F20003 		movw	r3, #:lower16:I2CHW_backup
 177 000c C0F20003 		movt	r3, #:upper16:I2CHW_backup
 178 0010 1B78     		ldrb	r3, [r3, #0]	@ zero_extendqisi2
 179 0012 002B     		cmp	r3, #0
 180 0014 08D0     		beq	.L10
 349:.\Generated_Source\PSoC5/I2CHW_PM.c ****     {
 350:.\Generated_Source\PSoC5/I2CHW_PM.c ****         I2CHW_Enable();
 181              		.loc 1 350 0
 182 0016 FFF7FEFF 		bl	I2CHW_Enable
 351:.\Generated_Source\PSoC5/I2CHW_PM.c ****         I2CHW_EnableInt();
 183              		.loc 1 351 0
 184 001a 4EF20013 		movw	r3, #:lower16:-536813312
 185 001e CEF20003 		movt	r3, #:upper16:-536813312
 186 0022 4FF00102 		mov	r2, #1
 187 0026 1A60     		str	r2, [r3, #0]
 188              	.L10:
 352:.\Generated_Source\PSoC5/I2CHW_PM.c ****     }
 353:.\Generated_Source\PSoC5/I2CHW_PM.c ****     else
 354:.\Generated_Source\PSoC5/I2CHW_PM.c ****     {
 355:.\Generated_Source\PSoC5/I2CHW_PM.c ****         #if(I2CHW_TIMEOUT_ENABLED)
 356:.\Generated_Source\PSoC5/I2CHW_PM.c ****             I2CHW_TimeoutEnable();
 357:.\Generated_Source\PSoC5/I2CHW_PM.c ****         #endif /* (I2CHW_TIMEOUT_ENABLED) */
 358:.\Generated_Source\PSoC5/I2CHW_PM.c ****     }
 359:.\Generated_Source\PSoC5/I2CHW_PM.c **** }
 189              		.loc 1 359 0
 190 0028 80BD     		pop	{r7, pc}
 191              		.cfi_endproc
 192              	.LFE3:
 193              		.size	I2CHW_Wakeup, .-I2CHW_Wakeup
 194 002a 00BF     		.text
 195              	.Letext0: