ARM GAS  C:\DOCUME~1\ADMINI~1\LOCALS~1\Temp\ccC0Ofje.s 			page 1


   1              		.syntax unified
   2              		.cpu cortex-m3
   3              		.fpu softvfp
   4              		.eabi_attribute 20, 1
   5              		.eabi_attribute 21, 1
   6              		.eabi_attribute 23, 3
   7              		.eabi_attribute 24, 1
   8              		.eabi_attribute 25, 1
   9              		.eabi_attribute 26, 1
  10              		.eabi_attribute 30, 6
  11              		.eabi_attribute 18, 4
  12              		.thumb
  13              		.file	"I2CHW.c"
  20 0000 CB000000 		.text
  20      02005E00 
  20      00000201 
  20      FB0E0D00 
  20      01010101 
  21              	.Ltext0:
  22              		.cfi_sections	.debug_frame
  23              		.global	I2CHW_initVar
  24              		.bss
  25              		.type	I2CHW_initVar, %object
  26              		.size	I2CHW_initVar, 1
  27              	I2CHW_initVar:
  28 0000 00       		.space	1
  29              		.comm	I2CHW_state,1,1
  30              		.section	.text.I2CHW_Init,"ax",%progbits
  31              		.align	2
  32              		.global	I2CHW_Init
  33              		.thumb
  34              		.thumb_func
  35              		.type	I2CHW_Init, %function
  36              	I2CHW_Init:
  37              	.LFB0:
  38              		.file 1 ".\\Generated_Source\\PSoC5\\I2CHW.c"
   1:.\Generated_Source\PSoC5/I2CHW.c **** /*******************************************************************************
   2:.\Generated_Source\PSoC5/I2CHW.c **** * File Name: I2CHW.c
   3:.\Generated_Source\PSoC5/I2CHW.c **** * Version 3.30
   4:.\Generated_Source\PSoC5/I2CHW.c **** *
   5:.\Generated_Source\PSoC5/I2CHW.c **** * Description:
   6:.\Generated_Source\PSoC5/I2CHW.c **** *  This file provides the source code of APIs for the I2C component.
   7:.\Generated_Source\PSoC5/I2CHW.c **** *  Actual protocol and operation code resides in the interrupt service routine
   8:.\Generated_Source\PSoC5/I2CHW.c **** *  file.
   9:.\Generated_Source\PSoC5/I2CHW.c **** *
  10:.\Generated_Source\PSoC5/I2CHW.c **** * Note:
  11:.\Generated_Source\PSoC5/I2CHW.c **** *
  12:.\Generated_Source\PSoC5/I2CHW.c **** *******************************************************************************
  13:.\Generated_Source\PSoC5/I2CHW.c **** * Copyright 2008-2012, Cypress Semiconductor Corporation. All rights reserved.
  14:.\Generated_Source\PSoC5/I2CHW.c **** * You may use this file only in accordance with the license, terms, conditions,
  15:.\Generated_Source\PSoC5/I2CHW.c **** * disclaimers, and limitations in the end user license agreement accompanying
ARM GAS  C:\DOCUME~1\ADMINI~1\LOCALS~1\Temp\ccC0Ofje.s 			page 2


  16:.\Generated_Source\PSoC5/I2CHW.c **** * the software package with which this file was provided.
  17:.\Generated_Source\PSoC5/I2CHW.c **** *******************************************************************************/
  18:.\Generated_Source\PSoC5/I2CHW.c **** 
  19:.\Generated_Source\PSoC5/I2CHW.c **** #include "I2CHW_PVT.h"
  20:.\Generated_Source\PSoC5/I2CHW.c **** 
  21:.\Generated_Source\PSoC5/I2CHW.c **** 
  22:.\Generated_Source\PSoC5/I2CHW.c **** /**********************************
  23:.\Generated_Source\PSoC5/I2CHW.c **** *      System variables
  24:.\Generated_Source\PSoC5/I2CHW.c **** **********************************/
  25:.\Generated_Source\PSoC5/I2CHW.c **** 
  26:.\Generated_Source\PSoC5/I2CHW.c **** uint8 I2CHW_initVar = 0u;    /* Defines if component was initialized */
  27:.\Generated_Source\PSoC5/I2CHW.c **** 
  28:.\Generated_Source\PSoC5/I2CHW.c **** volatile uint8 I2CHW_state;  /* Current state of I2C FSM */
  29:.\Generated_Source\PSoC5/I2CHW.c **** 
  30:.\Generated_Source\PSoC5/I2CHW.c **** 
  31:.\Generated_Source\PSoC5/I2CHW.c **** /*******************************************************************************
  32:.\Generated_Source\PSoC5/I2CHW.c **** * Function Name: I2CHW_Init
  33:.\Generated_Source\PSoC5/I2CHW.c **** ********************************************************************************
  34:.\Generated_Source\PSoC5/I2CHW.c **** *
  35:.\Generated_Source\PSoC5/I2CHW.c **** * Summary:
  36:.\Generated_Source\PSoC5/I2CHW.c **** *  Initializes I2C registers with initial values provided from customizer.
  37:.\Generated_Source\PSoC5/I2CHW.c **** *
  38:.\Generated_Source\PSoC5/I2CHW.c **** * Parameters:
  39:.\Generated_Source\PSoC5/I2CHW.c **** *  None
  40:.\Generated_Source\PSoC5/I2CHW.c **** *
  41:.\Generated_Source\PSoC5/I2CHW.c **** * Return:
  42:.\Generated_Source\PSoC5/I2CHW.c **** *  None
  43:.\Generated_Source\PSoC5/I2CHW.c **** *
  44:.\Generated_Source\PSoC5/I2CHW.c **** * Global variables:
  45:.\Generated_Source\PSoC5/I2CHW.c **** *  None
  46:.\Generated_Source\PSoC5/I2CHW.c **** *
  47:.\Generated_Source\PSoC5/I2CHW.c **** * Reentrant:
  48:.\Generated_Source\PSoC5/I2CHW.c **** *  No
  49:.\Generated_Source\PSoC5/I2CHW.c **** *
  50:.\Generated_Source\PSoC5/I2CHW.c **** *******************************************************************************/
  51:.\Generated_Source\PSoC5/I2CHW.c **** void I2CHW_Init(void) 
  52:.\Generated_Source\PSoC5/I2CHW.c **** {
  39              		.loc 1 52 0
  40              		.cfi_startproc
  41              		@ args = 0, pretend = 0, frame = 8
  42              		@ frame_needed = 1, uses_anonymous_args = 0
  43 0000 80B5     		push	{r7, lr}
  44              	.LCFI0:
  45              		.cfi_def_cfa_offset 8
  46 0002 82B0     		sub	sp, sp, #8
  47              	.LCFI1:
  48              		.cfi_def_cfa_offset 16
  49 0004 00AF     		add	r7, sp, #0
  50              		.cfi_offset 14, -4
  51              		.cfi_offset 7, -8
  52              	.LCFI2:
  53              		.cfi_def_cfa_register 7
  53:.\Generated_Source\PSoC5/I2CHW.c ****     #if(I2CHW_FF_IMPLEMENTED)
  54:.\Generated_Source\PSoC5/I2CHW.c ****         I2CHW_CFG_REG  = I2CHW_DEFAULT_CFG;
  55:.\Generated_Source\PSoC5/I2CHW.c ****         I2CHW_XCFG_REG = I2CHW_DEFAULT_XCFG;
  56:.\Generated_Source\PSoC5/I2CHW.c **** 
  57:.\Generated_Source\PSoC5/I2CHW.c ****         #if(CY_PSOC5A)
ARM GAS  C:\DOCUME~1\ADMINI~1\LOCALS~1\Temp\ccC0Ofje.s 			page 3


  58:.\Generated_Source\PSoC5/I2CHW.c ****             I2CHW_CLKDIV_REG  = LO8(I2CHW_DEFAULT_DIVIDE_FACTOR);
  59:.\Generated_Source\PSoC5/I2CHW.c ****         #else
  60:.\Generated_Source\PSoC5/I2CHW.c ****             I2CHW_CLKDIV1_REG = LO8(I2CHW_DEFAULT_DIVIDE_FACTOR);
  61:.\Generated_Source\PSoC5/I2CHW.c ****             I2CHW_CLKDIV2_REG = HI8(I2CHW_DEFAULT_DIVIDE_FACTOR);
  62:.\Generated_Source\PSoC5/I2CHW.c ****         #endif /* (CY_PSOC5A) */
  63:.\Generated_Source\PSoC5/I2CHW.c **** 
  64:.\Generated_Source\PSoC5/I2CHW.c ****     #else
  65:.\Generated_Source\PSoC5/I2CHW.c ****         uint8 enableInterrupts;
  66:.\Generated_Source\PSoC5/I2CHW.c **** 
  67:.\Generated_Source\PSoC5/I2CHW.c ****         I2CHW_CFG_REG      = I2CHW_DEFAULT_CFG;      /* control  */
  54              		.loc 1 67 0
  55 0006 46F27343 		movw	r3, #:lower16:1073767539
  56 000a C4F20003 		movt	r3, #:upper16:1073767539
  57 000e 4FF00002 		mov	r2, #0
  58 0012 1A70     		strb	r2, [r3, #0]
  68:.\Generated_Source\PSoC5/I2CHW.c ****         I2CHW_INT_MASK_REG = I2CHW_DEFAULT_INT_MASK; /* int_mask */
  59              		.loc 1 68 0
  60 0014 46F28743 		movw	r3, #:lower16:1073767559
  61 0018 C4F20003 		movt	r3, #:upper16:1073767559
  62 001c 4FF00102 		mov	r2, #1
  63 0020 1A70     		strb	r2, [r3, #0]
  69:.\Generated_Source\PSoC5/I2CHW.c **** 
  70:.\Generated_Source\PSoC5/I2CHW.c ****         /* Enable interrupts from block */
  71:.\Generated_Source\PSoC5/I2CHW.c ****         enableInterrupts = CyEnterCriticalSection();
  64              		.loc 1 71 0
  65 0022 FFF7FEFF 		bl	CyEnterCriticalSection
  66 0026 0346     		mov	r3, r0
  67 0028 FB71     		strb	r3, [r7, #7]
  72:.\Generated_Source\PSoC5/I2CHW.c ****         I2CHW_INT_ENABLE_REG |= I2CHW_INTR_ENABLE; /* aux_ctl */
  68              		.loc 1 72 0
  69 002a 46F29743 		movw	r3, #:lower16:1073767575
  70 002e C4F20003 		movt	r3, #:upper16:1073767575
  71 0032 46F29742 		movw	r2, #:lower16:1073767575
  72 0036 C4F20002 		movt	r2, #:upper16:1073767575
  73 003a 1278     		ldrb	r2, [r2, #0]
  74 003c D2B2     		uxtb	r2, r2
  75 003e 42F01002 		orr	r2, r2, #16
  76 0042 D2B2     		uxtb	r2, r2
  77 0044 1A70     		strb	r2, [r3, #0]
  73:.\Generated_Source\PSoC5/I2CHW.c ****         CyExitCriticalSection(enableInterrupts);
  78              		.loc 1 73 0
  79 0046 FB79     		ldrb	r3, [r7, #7]	@ zero_extendqisi2
  80 0048 1846     		mov	r0, r3
  81 004a FFF7FEFF 		bl	CyExitCriticalSection
  74:.\Generated_Source\PSoC5/I2CHW.c **** 
  75:.\Generated_Source\PSoC5/I2CHW.c ****         #if(I2CHW_MODE_MASTER_ENABLED)
  76:.\Generated_Source\PSoC5/I2CHW.c ****             I2CHW_MCLK_PRD_REG = I2CHW_DEFAULT_MCLK_PRD;
  82              		.loc 1 76 0
  83 004e 46F22653 		movw	r3, #:lower16:1073767718
  84 0052 C4F20003 		movt	r3, #:upper16:1073767718
  85 0056 4FF00F02 		mov	r2, #15
  86 005a 1A70     		strb	r2, [r3, #0]
  77:.\Generated_Source\PSoC5/I2CHW.c ****             I2CHW_MCLK_CMP_REG = I2CHW_DEFAULT_MCLK_CMP;
  87              		.loc 1 77 0
  88 005c 46F23653 		movw	r3, #:lower16:1073767734
  89 0060 C4F20003 		movt	r3, #:upper16:1073767734
  90 0064 4FF00802 		mov	r2, #8
ARM GAS  C:\DOCUME~1\ADMINI~1\LOCALS~1\Temp\ccC0Ofje.s 			page 4


  91 0068 1A70     		strb	r2, [r3, #0]
  78:.\Generated_Source\PSoC5/I2CHW.c ****          #endif /* (I2CHW_MODE_MASTER_ENABLED) */
  79:.\Generated_Source\PSoC5/I2CHW.c **** 
  80:.\Generated_Source\PSoC5/I2CHW.c ****         #if(I2CHW_MODE_SLAVE_ENABLED)
  81:.\Generated_Source\PSoC5/I2CHW.c ****             I2CHW_PERIOD_REG = I2CHW_DEFAULT_PERIOD;
  82:.\Generated_Source\PSoC5/I2CHW.c ****         #endif  /* (I2CHW_MODE_SLAVE_ENABLED) */
  83:.\Generated_Source\PSoC5/I2CHW.c **** 
  84:.\Generated_Source\PSoC5/I2CHW.c ****     #endif /* (I2CHW_FF_IMPLEMENTED) */
  85:.\Generated_Source\PSoC5/I2CHW.c **** 
  86:.\Generated_Source\PSoC5/I2CHW.c ****     #if(I2CHW_TIMEOUT_ENABLED)
  87:.\Generated_Source\PSoC5/I2CHW.c ****         I2CHW_TimeoutInit();
  88:.\Generated_Source\PSoC5/I2CHW.c ****     #endif /* (I2CHW_TIMEOUT_ENABLED) */
  89:.\Generated_Source\PSoC5/I2CHW.c **** 
  90:.\Generated_Source\PSoC5/I2CHW.c ****     /* Disable Interrupt and set vector and priority */
  91:.\Generated_Source\PSoC5/I2CHW.c ****     CyIntDisable    (I2CHW_ISR_NUMBER);
  92              		.loc 1 91 0
  93 006a 4EF28013 		movw	r3, #:lower16:-536813184
  94 006e CEF20003 		movt	r3, #:upper16:-536813184
  95 0072 4FF00102 		mov	r2, #1
  96 0076 1A60     		str	r2, [r3, #0]
  92:.\Generated_Source\PSoC5/I2CHW.c ****     CyIntSetPriority(I2CHW_ISR_NUMBER, I2CHW_ISR_PRIORITY);
  97              		.loc 1 92 0
  98 0078 4FF00000 		mov	r0, #0
  99 007c 4FF00501 		mov	r1, #5
 100 0080 FFF7FEFF 		bl	CyIntSetPriority
  93:.\Generated_Source\PSoC5/I2CHW.c ****     #if(I2CHW_INTERN_I2C_INTR_HANDLER)
  94:.\Generated_Source\PSoC5/I2CHW.c ****         (void) CyIntSetVector(I2CHW_ISR_NUMBER, &I2CHW_ISR);
 101              		.loc 1 94 0
 102 0084 4FF00000 		mov	r0, #0
 103 0088 40F20001 		movw	r1, #:lower16:I2CHW_ISR
 104 008c C0F20001 		movt	r1, #:upper16:I2CHW_ISR
 105 0090 FFF7FEFF 		bl	CyIntSetVector
  95:.\Generated_Source\PSoC5/I2CHW.c ****     #endif /* (I2CHW_INTERN_I2C_INTR_HANDLER) */
  96:.\Generated_Source\PSoC5/I2CHW.c **** 
  97:.\Generated_Source\PSoC5/I2CHW.c **** 
  98:.\Generated_Source\PSoC5/I2CHW.c ****     /* Put state machine in idle state */
  99:.\Generated_Source\PSoC5/I2CHW.c ****     I2CHW_state = I2CHW_SM_IDLE;
 106              		.loc 1 99 0
 107 0094 40F20003 		movw	r3, #:lower16:I2CHW_state
 108 0098 C0F20003 		movt	r3, #:upper16:I2CHW_state
 109 009c 4FF01002 		mov	r2, #16
 110 00a0 1A70     		strb	r2, [r3, #0]
 100:.\Generated_Source\PSoC5/I2CHW.c **** 
 101:.\Generated_Source\PSoC5/I2CHW.c ****     #if(I2CHW_MODE_SLAVE_ENABLED)
 102:.\Generated_Source\PSoC5/I2CHW.c ****         /* Reset status and buffers index */
 103:.\Generated_Source\PSoC5/I2CHW.c ****         I2CHW_SlaveClearReadBuf();
 104:.\Generated_Source\PSoC5/I2CHW.c ****         I2CHW_SlaveClearWriteBuf();
 105:.\Generated_Source\PSoC5/I2CHW.c ****         I2CHW_slStatus = 0u; /* Reset slave status */
 106:.\Generated_Source\PSoC5/I2CHW.c **** 
 107:.\Generated_Source\PSoC5/I2CHW.c ****         /* Set default address */
 108:.\Generated_Source\PSoC5/I2CHW.c ****         I2CHW_SlaveSetAddress(I2CHW_DEFAULT_ADDR);
 109:.\Generated_Source\PSoC5/I2CHW.c ****     #endif /* (I2CHW_MODE_SLAVE_ENABLED) */
 110:.\Generated_Source\PSoC5/I2CHW.c **** 
 111:.\Generated_Source\PSoC5/I2CHW.c ****     #if(I2CHW_MODE_MASTER_ENABLED)
 112:.\Generated_Source\PSoC5/I2CHW.c ****         /* Reset status and buffers index */
 113:.\Generated_Source\PSoC5/I2CHW.c ****         I2CHW_MasterClearReadBuf();
 111              		.loc 1 113 0
ARM GAS  C:\DOCUME~1\ADMINI~1\LOCALS~1\Temp\ccC0Ofje.s 			page 5


 112 00a2 FFF7FEFF 		bl	I2CHW_MasterClearReadBuf
 114:.\Generated_Source\PSoC5/I2CHW.c ****         I2CHW_MasterClearWriteBuf();
 113              		.loc 1 114 0
 114 00a6 FFF7FEFF 		bl	I2CHW_MasterClearWriteBuf
 115:.\Generated_Source\PSoC5/I2CHW.c ****         (void) I2CHW_MasterClearStatus();
 115              		.loc 1 115 0
 116 00aa FFF7FEFF 		bl	I2CHW_MasterClearStatus
 116:.\Generated_Source\PSoC5/I2CHW.c ****     #endif /* (I2CHW_MODE_MASTER_ENABLED) */
 117:.\Generated_Source\PSoC5/I2CHW.c **** }
 117              		.loc 1 117 0
 118 00ae 07F10807 		add	r7, r7, #8
 119 00b2 BD46     		mov	sp, r7
 120 00b4 80BD     		pop	{r7, pc}
 121              		.cfi_endproc
 122              	.LFE0:
 123              		.size	I2CHW_Init, .-I2CHW_Init
 124 00b6 00BF     		.section	.text.I2CHW_Enable,"ax",%progbits
 125              		.align	2
 126              		.global	I2CHW_Enable
 127              		.thumb
 128              		.thumb_func
 129              		.type	I2CHW_Enable, %function
 130              	I2CHW_Enable:
 131              	.LFB1:
 118:.\Generated_Source\PSoC5/I2CHW.c **** 
 119:.\Generated_Source\PSoC5/I2CHW.c **** 
 120:.\Generated_Source\PSoC5/I2CHW.c **** /*******************************************************************************
 121:.\Generated_Source\PSoC5/I2CHW.c **** * Function Name: I2CHW_Enable
 122:.\Generated_Source\PSoC5/I2CHW.c **** ********************************************************************************
 123:.\Generated_Source\PSoC5/I2CHW.c **** *
 124:.\Generated_Source\PSoC5/I2CHW.c **** * Summary:
 125:.\Generated_Source\PSoC5/I2CHW.c **** *  Enables I2C operations.
 126:.\Generated_Source\PSoC5/I2CHW.c **** *
 127:.\Generated_Source\PSoC5/I2CHW.c **** * Parameters:
 128:.\Generated_Source\PSoC5/I2CHW.c **** *  None
 129:.\Generated_Source\PSoC5/I2CHW.c **** *
 130:.\Generated_Source\PSoC5/I2CHW.c **** * Return:
 131:.\Generated_Source\PSoC5/I2CHW.c **** *  None
 132:.\Generated_Source\PSoC5/I2CHW.c **** *
 133:.\Generated_Source\PSoC5/I2CHW.c **** * Global variables:
 134:.\Generated_Source\PSoC5/I2CHW.c **** *  None
 135:.\Generated_Source\PSoC5/I2CHW.c **** *
 136:.\Generated_Source\PSoC5/I2CHW.c **** *******************************************************************************/
 137:.\Generated_Source\PSoC5/I2CHW.c **** void I2CHW_Enable(void) 
 138:.\Generated_Source\PSoC5/I2CHW.c **** {
 132              		.loc 1 138 0
 133              		.cfi_startproc
 134              		@ args = 0, pretend = 0, frame = 0
 135              		@ frame_needed = 1, uses_anonymous_args = 0
 136              		@ link register save eliminated.
 137 0000 80B4     		push	{r7}
 138              	.LCFI3:
 139              		.cfi_def_cfa_offset 4
 140 0002 00AF     		add	r7, sp, #0
 141              		.cfi_offset 7, -4
 142              	.LCFI4:
 143              		.cfi_def_cfa_register 7
ARM GAS  C:\DOCUME~1\ADMINI~1\LOCALS~1\Temp\ccC0Ofje.s 			page 6


 139:.\Generated_Source\PSoC5/I2CHW.c ****     #if(I2CHW_FF_IMPLEMENTED)
 140:.\Generated_Source\PSoC5/I2CHW.c ****         uint8 enableInterrupts;
 141:.\Generated_Source\PSoC5/I2CHW.c **** 
 142:.\Generated_Source\PSoC5/I2CHW.c ****         /* Enable power to I2C FF block */
 143:.\Generated_Source\PSoC5/I2CHW.c ****         enableInterrupts = CyEnterCriticalSection();
 144:.\Generated_Source\PSoC5/I2CHW.c ****         I2CHW_ACT_PWRMGR_REG  |= I2CHW_ACT_PWR_EN;
 145:.\Generated_Source\PSoC5/I2CHW.c ****         I2CHW_STBY_PWRMGR_REG |= I2CHW_STBY_PWR_EN;
 146:.\Generated_Source\PSoC5/I2CHW.c ****         CyExitCriticalSection(enableInterrupts);
 147:.\Generated_Source\PSoC5/I2CHW.c **** 
 148:.\Generated_Source\PSoC5/I2CHW.c ****     #else
 149:.\Generated_Source\PSoC5/I2CHW.c **** 
 150:.\Generated_Source\PSoC5/I2CHW.c ****         #if(I2CHW_MODE_SLAVE_ENABLED)
 151:.\Generated_Source\PSoC5/I2CHW.c ****             uint8 enableInterrupts;
 152:.\Generated_Source\PSoC5/I2CHW.c ****         #endif /* (I2CHW_MODE_SLAVE_ENABLED) */
 153:.\Generated_Source\PSoC5/I2CHW.c **** 
 154:.\Generated_Source\PSoC5/I2CHW.c ****         #if(I2CHW_MODE_SLAVE_ENABLED)
 155:.\Generated_Source\PSoC5/I2CHW.c ****             /* Enable slave bit counter */
 156:.\Generated_Source\PSoC5/I2CHW.c ****             enableInterrupts = CyEnterCriticalSection();
 157:.\Generated_Source\PSoC5/I2CHW.c ****             I2CHW_COUNTER_AUX_CTL_REG |= I2CHW_CNT7_ENABLE;   /* aux_ctl */
 158:.\Generated_Source\PSoC5/I2CHW.c ****             CyExitCriticalSection(enableInterrupts);
 159:.\Generated_Source\PSoC5/I2CHW.c ****         #endif /* (I2CHW_MODE_SLAVE_ENABLED) */
 160:.\Generated_Source\PSoC5/I2CHW.c **** 
 161:.\Generated_Source\PSoC5/I2CHW.c ****         I2CHW_CFG_REG |= I2CHW_ENABLE_MS;
 144              		.loc 1 161 0
 145 0004 46F27343 		movw	r3, #:lower16:1073767539
 146 0008 C4F20003 		movt	r3, #:upper16:1073767539
 147 000c 46F27342 		movw	r2, #:lower16:1073767539
 148 0010 C4F20002 		movt	r2, #:upper16:1073767539
 149 0014 1278     		ldrb	r2, [r2, #0]
 150 0016 D2B2     		uxtb	r2, r2
 151 0018 42F00202 		orr	r2, r2, #2
 152 001c D2B2     		uxtb	r2, r2
 153 001e 1A70     		strb	r2, [r3, #0]
 162:.\Generated_Source\PSoC5/I2CHW.c **** 
 163:.\Generated_Source\PSoC5/I2CHW.c ****     #endif /* (I2CHW_FF_IMPLEMENTED) */
 164:.\Generated_Source\PSoC5/I2CHW.c **** 
 165:.\Generated_Source\PSoC5/I2CHW.c ****     #if(I2CHW_TIMEOUT_ENABLED)
 166:.\Generated_Source\PSoC5/I2CHW.c ****         I2CHW_TimeoutEnable();
 167:.\Generated_Source\PSoC5/I2CHW.c ****     #endif /* (I2CHW_TIMEOUT_ENABLED) */
 168:.\Generated_Source\PSoC5/I2CHW.c **** }
 154              		.loc 1 168 0
 155 0020 BD46     		mov	sp, r7
 156 0022 80BC     		pop	{r7}
 157 0024 7047     		bx	lr
 158              		.cfi_endproc
 159              	.LFE1:
 160              		.size	I2CHW_Enable, .-I2CHW_Enable
 161 0026 00BF     		.section	.text.I2CHW_Start,"ax",%progbits
 162              		.align	2
 163              		.global	I2CHW_Start
 164              		.thumb
 165              		.thumb_func
 166              		.type	I2CHW_Start, %function
 167              	I2CHW_Start:
 168              	.LFB2:
 169:.\Generated_Source\PSoC5/I2CHW.c **** 
 170:.\Generated_Source\PSoC5/I2CHW.c **** 
ARM GAS  C:\DOCUME~1\ADMINI~1\LOCALS~1\Temp\ccC0Ofje.s 			page 7


 171:.\Generated_Source\PSoC5/I2CHW.c **** /*******************************************************************************
 172:.\Generated_Source\PSoC5/I2CHW.c **** * Function Name: I2CHW_Start
 173:.\Generated_Source\PSoC5/I2CHW.c **** ********************************************************************************
 174:.\Generated_Source\PSoC5/I2CHW.c **** *
 175:.\Generated_Source\PSoC5/I2CHW.c **** * Summary:
 176:.\Generated_Source\PSoC5/I2CHW.c **** *  Starts the I2C hardware. Enables Active mode power template bits or clock
 177:.\Generated_Source\PSoC5/I2CHW.c **** *  gating as appropriate. It is required to be executed before I2C bus
 178:.\Generated_Source\PSoC5/I2CHW.c **** *  operation.
 179:.\Generated_Source\PSoC5/I2CHW.c **** *  The I2C interrupt remains disabled after this function call.
 180:.\Generated_Source\PSoC5/I2CHW.c **** *
 181:.\Generated_Source\PSoC5/I2CHW.c **** * Parameters:
 182:.\Generated_Source\PSoC5/I2CHW.c **** *  None
 183:.\Generated_Source\PSoC5/I2CHW.c **** *
 184:.\Generated_Source\PSoC5/I2CHW.c **** * Return:
 185:.\Generated_Source\PSoC5/I2CHW.c **** *  None
 186:.\Generated_Source\PSoC5/I2CHW.c **** *
 187:.\Generated_Source\PSoC5/I2CHW.c **** * Side Effects:
 188:.\Generated_Source\PSoC5/I2CHW.c **** *  This component automatically enables it's interrupt.  If I2C is enabled
 189:.\Generated_Source\PSoC5/I2CHW.c **** *  without the interrupt enabled, it could lock up the I2C bus.
 190:.\Generated_Source\PSoC5/I2CHW.c **** *
 191:.\Generated_Source\PSoC5/I2CHW.c **** * Global variables:
 192:.\Generated_Source\PSoC5/I2CHW.c **** *  I2CHW_initVar - used to check initial configuration, modified
 193:.\Generated_Source\PSoC5/I2CHW.c **** *  on first function call.
 194:.\Generated_Source\PSoC5/I2CHW.c **** *
 195:.\Generated_Source\PSoC5/I2CHW.c **** * Reentrant:
 196:.\Generated_Source\PSoC5/I2CHW.c **** *  No
 197:.\Generated_Source\PSoC5/I2CHW.c **** *
 198:.\Generated_Source\PSoC5/I2CHW.c **** *******************************************************************************/
 199:.\Generated_Source\PSoC5/I2CHW.c **** void I2CHW_Start(void) 
 200:.\Generated_Source\PSoC5/I2CHW.c **** {
 169              		.loc 1 200 0
 170              		.cfi_startproc
 171              		@ args = 0, pretend = 0, frame = 0
 172              		@ frame_needed = 1, uses_anonymous_args = 0
 173 0000 80B5     		push	{r7, lr}
 174              	.LCFI5:
 175              		.cfi_def_cfa_offset 8
 176 0002 00AF     		add	r7, sp, #0
 177              		.cfi_offset 14, -4
 178              		.cfi_offset 7, -8
 179              	.LCFI6:
 180              		.cfi_def_cfa_register 7
 201:.\Generated_Source\PSoC5/I2CHW.c ****     /* Initialize I2C registers, reset I2C buffer index and clears status */
 202:.\Generated_Source\PSoC5/I2CHW.c ****     if(0u == I2CHW_initVar)
 181              		.loc 1 202 0
 182 0004 40F20003 		movw	r3, #:lower16:I2CHW_initVar
 183 0008 C0F20003 		movt	r3, #:upper16:I2CHW_initVar
 184 000c 1B78     		ldrb	r3, [r3, #0]	@ zero_extendqisi2
 185 000e 002B     		cmp	r3, #0
 186 0010 08D1     		bne	.L6
 203:.\Generated_Source\PSoC5/I2CHW.c ****     {
 204:.\Generated_Source\PSoC5/I2CHW.c ****         I2CHW_Init();
 187              		.loc 1 204 0
 188 0012 FFF7FEFF 		bl	I2CHW_Init
 205:.\Generated_Source\PSoC5/I2CHW.c ****         I2CHW_initVar = 1u; /* Component initialized */
 189              		.loc 1 205 0
 190 0016 40F20003 		movw	r3, #:lower16:I2CHW_initVar
ARM GAS  C:\DOCUME~1\ADMINI~1\LOCALS~1\Temp\ccC0Ofje.s 			page 8


 191 001a C0F20003 		movt	r3, #:upper16:I2CHW_initVar
 192 001e 4FF00102 		mov	r2, #1
 193 0022 1A70     		strb	r2, [r3, #0]
 194              	.L6:
 206:.\Generated_Source\PSoC5/I2CHW.c ****     }
 207:.\Generated_Source\PSoC5/I2CHW.c **** 
 208:.\Generated_Source\PSoC5/I2CHW.c ****     I2CHW_Enable();
 195              		.loc 1 208 0
 196 0024 FFF7FEFF 		bl	I2CHW_Enable
 209:.\Generated_Source\PSoC5/I2CHW.c ****     I2CHW_EnableInt();
 197              		.loc 1 209 0
 198 0028 4EF20013 		movw	r3, #:lower16:-536813312
 199 002c CEF20003 		movt	r3, #:upper16:-536813312
 200 0030 4FF00102 		mov	r2, #1
 201 0034 1A60     		str	r2, [r3, #0]
 210:.\Generated_Source\PSoC5/I2CHW.c **** }
 202              		.loc 1 210 0
 203 0036 80BD     		pop	{r7, pc}
 204              		.cfi_endproc
 205              	.LFE2:
 206              		.size	I2CHW_Start, .-I2CHW_Start
 207              		.section	.text.I2CHW_Stop,"ax",%progbits
 208              		.align	2
 209              		.global	I2CHW_Stop
 210              		.thumb
 211              		.thumb_func
 212              		.type	I2CHW_Stop, %function
 213              	I2CHW_Stop:
 214              	.LFB3:
 211:.\Generated_Source\PSoC5/I2CHW.c **** 
 212:.\Generated_Source\PSoC5/I2CHW.c **** 
 213:.\Generated_Source\PSoC5/I2CHW.c **** /*******************************************************************************
 214:.\Generated_Source\PSoC5/I2CHW.c **** * Function Name: I2CHW_Stop
 215:.\Generated_Source\PSoC5/I2CHW.c **** ********************************************************************************
 216:.\Generated_Source\PSoC5/I2CHW.c **** *
 217:.\Generated_Source\PSoC5/I2CHW.c **** * Summary:
 218:.\Generated_Source\PSoC5/I2CHW.c **** *  Disables I2C hardware and disables I2C interrupt. Disables Active mode power
 219:.\Generated_Source\PSoC5/I2CHW.c **** *  template bits or clock gating as appropriate.
 220:.\Generated_Source\PSoC5/I2CHW.c **** *
 221:.\Generated_Source\PSoC5/I2CHW.c **** * Parameters:
 222:.\Generated_Source\PSoC5/I2CHW.c **** *  None
 223:.\Generated_Source\PSoC5/I2CHW.c **** *
 224:.\Generated_Source\PSoC5/I2CHW.c **** * Return:
 225:.\Generated_Source\PSoC5/I2CHW.c **** *  None
 226:.\Generated_Source\PSoC5/I2CHW.c **** *
 227:.\Generated_Source\PSoC5/I2CHW.c **** *******************************************************************************/
 228:.\Generated_Source\PSoC5/I2CHW.c **** void I2CHW_Stop(void) 
 229:.\Generated_Source\PSoC5/I2CHW.c **** {
 215              		.loc 1 229 0
 216              		.cfi_startproc
 217              		@ args = 0, pretend = 0, frame = 0
 218              		@ frame_needed = 1, uses_anonymous_args = 0
 219              		@ link register save eliminated.
 220 0000 80B4     		push	{r7}
 221              	.LCFI7:
 222              		.cfi_def_cfa_offset 4
 223 0002 00AF     		add	r7, sp, #0
ARM GAS  C:\DOCUME~1\ADMINI~1\LOCALS~1\Temp\ccC0Ofje.s 			page 9


 224              		.cfi_offset 7, -4
 225              	.LCFI8:
 226              		.cfi_def_cfa_register 7
 230:.\Generated_Source\PSoC5/I2CHW.c ****     #if((I2CHW_FF_IMPLEMENTED)  || \
 231:.\Generated_Source\PSoC5/I2CHW.c ****         (I2CHW_UDB_IMPLEMENTED && I2CHW_MODE_SLAVE_ENABLED))
 232:.\Generated_Source\PSoC5/I2CHW.c ****         uint8 enableInterrupts;
 233:.\Generated_Source\PSoC5/I2CHW.c ****     #endif /* ((I2CHW_FF_IMPLEMENTED)  || \
 234:.\Generated_Source\PSoC5/I2CHW.c ****                (I2CHW_UDB_IMPLEMENTED && I2CHW_MODE_SLAVE_ENABLED)) */
 235:.\Generated_Source\PSoC5/I2CHW.c **** 
 236:.\Generated_Source\PSoC5/I2CHW.c ****     I2CHW_DisableInt();
 227              		.loc 1 236 0
 228 0004 4EF28013 		movw	r3, #:lower16:-536813184
 229 0008 CEF20003 		movt	r3, #:upper16:-536813184
 230 000c 4FF00102 		mov	r2, #1
 231 0010 1A60     		str	r2, [r3, #0]
 237:.\Generated_Source\PSoC5/I2CHW.c **** 
 238:.\Generated_Source\PSoC5/I2CHW.c ****     I2CHW_DISABLE_INT_ON_STOP;   /* Interrupt on Stop can be enabled by write */
 232              		.loc 1 238 0
 233 0012 46F28743 		movw	r3, #:lower16:1073767559
 234 0016 C4F20003 		movt	r3, #:upper16:1073767559
 235 001a 46F28742 		movw	r2, #:lower16:1073767559
 236 001e C4F20002 		movt	r2, #:upper16:1073767559
 237 0022 1278     		ldrb	r2, [r2, #0]
 238 0024 D2B2     		uxtb	r2, r2
 239 0026 02F0DF02 		and	r2, r2, #223
 240 002a 1A70     		strb	r2, [r3, #0]
 239:.\Generated_Source\PSoC5/I2CHW.c ****     (void) I2CHW_CSR_REG;        /* Clear CSR reg */
 241              		.loc 1 239 0
 242 002c 46F26743 		movw	r3, #:lower16:1073767527
 243 0030 C4F20003 		movt	r3, #:upper16:1073767527
 244 0034 1B78     		ldrb	r3, [r3, #0]
 240:.\Generated_Source\PSoC5/I2CHW.c ****     
 241:.\Generated_Source\PSoC5/I2CHW.c ****     #if(I2CHW_TIMEOUT_ENABLED)
 242:.\Generated_Source\PSoC5/I2CHW.c ****         I2CHW_TimeoutStop();
 243:.\Generated_Source\PSoC5/I2CHW.c ****     #endif  /* End (I2CHW_TIMEOUT_ENABLED) */
 244:.\Generated_Source\PSoC5/I2CHW.c **** 
 245:.\Generated_Source\PSoC5/I2CHW.c ****     #if(I2CHW_FF_IMPLEMENTED)
 246:.\Generated_Source\PSoC5/I2CHW.c ****         #if(CY_PSOC3 || CY_PSOC5LP)
 247:.\Generated_Source\PSoC5/I2CHW.c ****             /* Store registers which are held in reset when Master and Slave bits are cleared */
 248:.\Generated_Source\PSoC5/I2CHW.c ****             #if(I2CHW_MODE_SLAVE_ENABLED)
 249:.\Generated_Source\PSoC5/I2CHW.c ****                 I2CHW_backup.addr = I2CHW_ADDR_REG;
 250:.\Generated_Source\PSoC5/I2CHW.c ****             #endif /* (I2CHW_MODE_SLAVE_ENABLED) */
 251:.\Generated_Source\PSoC5/I2CHW.c **** 
 252:.\Generated_Source\PSoC5/I2CHW.c ****             I2CHW_backup.clkDiv1  = I2CHW_CLKDIV1_REG;
 253:.\Generated_Source\PSoC5/I2CHW.c ****             I2CHW_backup.clkDiv2  = I2CHW_CLKDIV2_REG;
 254:.\Generated_Source\PSoC5/I2CHW.c **** 
 255:.\Generated_Source\PSoC5/I2CHW.c **** 
 256:.\Generated_Source\PSoC5/I2CHW.c ****             /* Reset FF block */
 257:.\Generated_Source\PSoC5/I2CHW.c ****             I2CHW_CFG_REG &= ((uint8) ~I2CHW_ENABLE_MS);
 258:.\Generated_Source\PSoC5/I2CHW.c ****             CyDelayUs(I2CHW_FF_RESET_DELAY);
 259:.\Generated_Source\PSoC5/I2CHW.c ****             I2CHW_CFG_REG |= ((uint8)  I2CHW_ENABLE_MS);
 260:.\Generated_Source\PSoC5/I2CHW.c **** 
 261:.\Generated_Source\PSoC5/I2CHW.c **** 
 262:.\Generated_Source\PSoC5/I2CHW.c ****             /* Restore registers */
 263:.\Generated_Source\PSoC5/I2CHW.c ****             #if(I2CHW_MODE_SLAVE_ENABLED)
 264:.\Generated_Source\PSoC5/I2CHW.c ****                 I2CHW_ADDR_REG = I2CHW_backup.addr;
 265:.\Generated_Source\PSoC5/I2CHW.c ****             #endif /* (I2CHW_MODE_SLAVE_ENABLED) */
ARM GAS  C:\DOCUME~1\ADMINI~1\LOCALS~1\Temp\ccC0Ofje.s 			page 10


 266:.\Generated_Source\PSoC5/I2CHW.c **** 
 267:.\Generated_Source\PSoC5/I2CHW.c ****             I2CHW_CLKDIV1_REG = I2CHW_backup.clkDiv1;
 268:.\Generated_Source\PSoC5/I2CHW.c ****             I2CHW_CLKDIV2_REG = I2CHW_backup.clkDiv2;
 269:.\Generated_Source\PSoC5/I2CHW.c **** 
 270:.\Generated_Source\PSoC5/I2CHW.c ****         #endif /* (CY_PSOC3 || CY_PSOC5LP) */
 271:.\Generated_Source\PSoC5/I2CHW.c **** 
 272:.\Generated_Source\PSoC5/I2CHW.c ****         /* Disable power to I2C block */
 273:.\Generated_Source\PSoC5/I2CHW.c ****         enableInterrupts = CyEnterCriticalSection();
 274:.\Generated_Source\PSoC5/I2CHW.c ****         I2CHW_ACT_PWRMGR_REG  &= ((uint8) ~I2CHW_ACT_PWR_EN);
 275:.\Generated_Source\PSoC5/I2CHW.c ****         I2CHW_STBY_PWRMGR_REG &= ((uint8) ~I2CHW_STBY_PWR_EN);
 276:.\Generated_Source\PSoC5/I2CHW.c ****         CyExitCriticalSection(enableInterrupts);
 277:.\Generated_Source\PSoC5/I2CHW.c **** 
 278:.\Generated_Source\PSoC5/I2CHW.c ****     #else
 279:.\Generated_Source\PSoC5/I2CHW.c **** 
 280:.\Generated_Source\PSoC5/I2CHW.c ****         #if(I2CHW_MODE_SLAVE_ENABLED)
 281:.\Generated_Source\PSoC5/I2CHW.c ****             /* Disable slave bit counter */
 282:.\Generated_Source\PSoC5/I2CHW.c ****             enableInterrupts = CyEnterCriticalSection();
 283:.\Generated_Source\PSoC5/I2CHW.c ****             I2CHW_COUNTER_AUX_CTL_REG &= ((uint8) ~I2CHW_CNT7_ENABLE);
 284:.\Generated_Source\PSoC5/I2CHW.c ****             CyExitCriticalSection(enableInterrupts);
 285:.\Generated_Source\PSoC5/I2CHW.c ****         #endif /* (I2CHW_MODE_SLAVE_ENABLED) */
 286:.\Generated_Source\PSoC5/I2CHW.c **** 
 287:.\Generated_Source\PSoC5/I2CHW.c ****         I2CHW_CFG_REG &= ((uint8) ~I2CHW_ENABLE_MS);
 245              		.loc 1 287 0
 246 0036 46F27343 		movw	r3, #:lower16:1073767539
 247 003a C4F20003 		movt	r3, #:upper16:1073767539
 248 003e 46F27342 		movw	r2, #:lower16:1073767539
 249 0042 C4F20002 		movt	r2, #:upper16:1073767539
 250 0046 1278     		ldrb	r2, [r2, #0]
 251 0048 D2B2     		uxtb	r2, r2
 252 004a 02F0FD02 		and	r2, r2, #253
 253 004e 1A70     		strb	r2, [r3, #0]
 288:.\Generated_Source\PSoC5/I2CHW.c **** 
 289:.\Generated_Source\PSoC5/I2CHW.c ****     #endif /* (I2CHW_FF_IMPLEMENTED) */
 290:.\Generated_Source\PSoC5/I2CHW.c **** 
 291:.\Generated_Source\PSoC5/I2CHW.c ****     I2CHW_ClearPendingInt();  /* Clear interrupt triggers on reset */
 254              		.loc 1 291 0
 255 0050 4EF28023 		movw	r3, #:lower16:-536812928
 256 0054 CEF20003 		movt	r3, #:upper16:-536812928
 257 0058 4FF00102 		mov	r2, #1
 258 005c 1A60     		str	r2, [r3, #0]
 292:.\Generated_Source\PSoC5/I2CHW.c **** 
 293:.\Generated_Source\PSoC5/I2CHW.c ****     I2CHW_state = I2CHW_SM_IDLE;  /* Reset software FSM */
 259              		.loc 1 293 0
 260 005e 40F20003 		movw	r3, #:lower16:I2CHW_state
 261 0062 C0F20003 		movt	r3, #:upper16:I2CHW_state
 262 0066 4FF01002 		mov	r2, #16
 263 006a 1A70     		strb	r2, [r3, #0]
 294:.\Generated_Source\PSoC5/I2CHW.c **** }
 264              		.loc 1 294 0
 265 006c BD46     		mov	sp, r7
 266 006e 80BC     		pop	{r7}
 267 0070 7047     		bx	lr
 268              		.cfi_endproc
 269              	.LFE3:
 270              		.size	I2CHW_Stop, .-I2CHW_Stop
 271 0072 00BF     		.text
 272              	.Letext0:
ARM GAS  C:\DOCUME~1\ADMINI~1\LOCALS~1\Temp\ccC0Ofje.s 			page 11

