ARM GAS  C:\DOCUME~1\ADMINI~1\LOCALS~1\Temp\cc0Lb7Cp.s 			page 1


   1              		.syntax unified
   2              		.cpu cortex-m3
   3              		.fpu softvfp
   4              		.eabi_attribute 20, 1
   5              		.eabi_attribute 21, 1
   6              		.eabi_attribute 23, 3
   7              		.eabi_attribute 24, 1
   8              		.eabi_attribute 25, 1
   9              		.eabi_attribute 26, 1
  10              		.eabi_attribute 30, 6
  11              		.eabi_attribute 18, 4
  12              		.thumb
  13              		.file	"isr_UsbSuspend.c"
  20 0000 7B010000 		.text
  20      02008100 
  20      00000201 
  20      FB0E0D00 
  20      01010101 
  21              	.Ltext0:
  22              		.cfi_sections	.debug_frame
  23              		.section	.text.isr_UsbSuspend_Start,"ax",%progbits
  24              		.align	2
  25              		.global	isr_UsbSuspend_Start
  26              		.thumb
  27              		.thumb_func
  28              		.type	isr_UsbSuspend_Start, %function
  29              	isr_UsbSuspend_Start:
  30              	.LFB29:
  31              		.file 1 ".\\Generated_Source\\PSoC5\\isr_UsbSuspend.c"
   1:.\Generated_Source\PSoC5/isr_UsbSuspend.c **** /*******************************************************************************
   2:.\Generated_Source\PSoC5/isr_UsbSuspend.c **** * File Name: isr_UsbSuspend.c  
   3:.\Generated_Source\PSoC5/isr_UsbSuspend.c **** * Version 1.70
   4:.\Generated_Source\PSoC5/isr_UsbSuspend.c **** *
   5:.\Generated_Source\PSoC5/isr_UsbSuspend.c **** *  Description:
   6:.\Generated_Source\PSoC5/isr_UsbSuspend.c **** *   API for controlling the state of an interrupt.
   7:.\Generated_Source\PSoC5/isr_UsbSuspend.c **** *
   8:.\Generated_Source\PSoC5/isr_UsbSuspend.c **** *
   9:.\Generated_Source\PSoC5/isr_UsbSuspend.c **** *  Note:
  10:.\Generated_Source\PSoC5/isr_UsbSuspend.c **** *
  11:.\Generated_Source\PSoC5/isr_UsbSuspend.c **** ********************************************************************************
  12:.\Generated_Source\PSoC5/isr_UsbSuspend.c **** * Copyright 2008-2012, Cypress Semiconductor Corporation.  All rights reserved.
  13:.\Generated_Source\PSoC5/isr_UsbSuspend.c **** * You may use this file only in accordance with the license, terms, conditions, 
  14:.\Generated_Source\PSoC5/isr_UsbSuspend.c **** * disclaimers, and limitations in the end user license agreement accompanying 
  15:.\Generated_Source\PSoC5/isr_UsbSuspend.c **** * the software package with which this file was provided.
  16:.\Generated_Source\PSoC5/isr_UsbSuspend.c **** *******************************************************************************/
  17:.\Generated_Source\PSoC5/isr_UsbSuspend.c **** 
  18:.\Generated_Source\PSoC5/isr_UsbSuspend.c **** 
  19:.\Generated_Source\PSoC5/isr_UsbSuspend.c **** #include <CYDEVICE_TRM.H>
  20:.\Generated_Source\PSoC5/isr_UsbSuspend.c **** #include <CYLIB.H>
  21:.\Generated_Source\PSoC5/isr_UsbSuspend.c **** #include <isr_UsbSuspend.H>
  22:.\Generated_Source\PSoC5/isr_UsbSuspend.c **** 
ARM GAS  C:\DOCUME~1\ADMINI~1\LOCALS~1\Temp\cc0Lb7Cp.s 			page 2


  23:.\Generated_Source\PSoC5/isr_UsbSuspend.c **** #if !defined(isr_UsbSuspend__REMOVED) /* Check for removal by optimization */
  24:.\Generated_Source\PSoC5/isr_UsbSuspend.c **** 
  25:.\Generated_Source\PSoC5/isr_UsbSuspend.c **** /*******************************************************************************
  26:.\Generated_Source\PSoC5/isr_UsbSuspend.c **** *  Place your includes, defines and code here 
  27:.\Generated_Source\PSoC5/isr_UsbSuspend.c **** ********************************************************************************/
  28:.\Generated_Source\PSoC5/isr_UsbSuspend.c **** /* `#START isr_UsbSuspend_intc` */
  29:.\Generated_Source\PSoC5/isr_UsbSuspend.c **** #include "kitprog.h"
  30:.\Generated_Source\PSoC5/isr_UsbSuspend.c **** /* `#END` */
  31:.\Generated_Source\PSoC5/isr_UsbSuspend.c **** 
  32:.\Generated_Source\PSoC5/isr_UsbSuspend.c **** #ifndef CYINT_IRQ_BASE
  33:.\Generated_Source\PSoC5/isr_UsbSuspend.c **** #define CYINT_IRQ_BASE      16
  34:.\Generated_Source\PSoC5/isr_UsbSuspend.c **** #endif /* CYINT_IRQ_BASE */
  35:.\Generated_Source\PSoC5/isr_UsbSuspend.c **** #ifndef CYINT_VECT_TABLE
  36:.\Generated_Source\PSoC5/isr_UsbSuspend.c **** #define CYINT_VECT_TABLE    ((cyisraddress **) CYREG_NVIC_VECT_OFFSET)
  37:.\Generated_Source\PSoC5/isr_UsbSuspend.c **** #endif /* CYINT_VECT_TABLE */
  38:.\Generated_Source\PSoC5/isr_UsbSuspend.c **** 
  39:.\Generated_Source\PSoC5/isr_UsbSuspend.c **** /* Declared in startup, used to set unused interrupts to. */
  40:.\Generated_Source\PSoC5/isr_UsbSuspend.c **** CY_ISR_PROTO(IntDefaultHandler);
  41:.\Generated_Source\PSoC5/isr_UsbSuspend.c **** 
  42:.\Generated_Source\PSoC5/isr_UsbSuspend.c **** 
  43:.\Generated_Source\PSoC5/isr_UsbSuspend.c **** /*******************************************************************************
  44:.\Generated_Source\PSoC5/isr_UsbSuspend.c **** * Function Name: isr_UsbSuspend_Start
  45:.\Generated_Source\PSoC5/isr_UsbSuspend.c **** ********************************************************************************
  46:.\Generated_Source\PSoC5/isr_UsbSuspend.c **** *
  47:.\Generated_Source\PSoC5/isr_UsbSuspend.c **** * Summary:
  48:.\Generated_Source\PSoC5/isr_UsbSuspend.c **** *  Set up the interrupt and enable it.
  49:.\Generated_Source\PSoC5/isr_UsbSuspend.c **** *
  50:.\Generated_Source\PSoC5/isr_UsbSuspend.c **** * Parameters:  
  51:.\Generated_Source\PSoC5/isr_UsbSuspend.c **** *   None
  52:.\Generated_Source\PSoC5/isr_UsbSuspend.c **** *
  53:.\Generated_Source\PSoC5/isr_UsbSuspend.c **** * Return:
  54:.\Generated_Source\PSoC5/isr_UsbSuspend.c **** *   None
  55:.\Generated_Source\PSoC5/isr_UsbSuspend.c **** *
  56:.\Generated_Source\PSoC5/isr_UsbSuspend.c **** *******************************************************************************/
  57:.\Generated_Source\PSoC5/isr_UsbSuspend.c **** void isr_UsbSuspend_Start(void)
  58:.\Generated_Source\PSoC5/isr_UsbSuspend.c **** {
  32              		.loc 1 58 0
  33              		.cfi_startproc
  34              		@ args = 0, pretend = 0, frame = 0
  35              		@ frame_needed = 1, uses_anonymous_args = 0
  36 0000 80B5     		push	{r7, lr}
  37              	.LCFI0:
  38              		.cfi_def_cfa_offset 8
  39 0002 00AF     		add	r7, sp, #0
  40              		.cfi_offset 14, -4
  41              		.cfi_offset 7, -8
  42              	.LCFI1:
  43              		.cfi_def_cfa_register 7
  59:.\Generated_Source\PSoC5/isr_UsbSuspend.c ****     /* For all we know the interrupt is active. */
  60:.\Generated_Source\PSoC5/isr_UsbSuspend.c ****     isr_UsbSuspend_Disable();
  44              		.loc 1 60 0
  45 0004 FFF7FEFF 		bl	isr_UsbSuspend_Disable
  61:.\Generated_Source\PSoC5/isr_UsbSuspend.c **** 
  62:.\Generated_Source\PSoC5/isr_UsbSuspend.c ****     /* Set the ISR to point to the isr_UsbSuspend Interrupt. */
  63:.\Generated_Source\PSoC5/isr_UsbSuspend.c ****     isr_UsbSuspend_SetVector(&isr_UsbSuspend_Interrupt);
  46              		.loc 1 63 0
  47 0008 40F20000 		movw	r0, #:lower16:isr_UsbSuspend_Interrupt
ARM GAS  C:\DOCUME~1\ADMINI~1\LOCALS~1\Temp\cc0Lb7Cp.s 			page 3


  48 000c C0F20000 		movt	r0, #:upper16:isr_UsbSuspend_Interrupt
  49 0010 FFF7FEFF 		bl	isr_UsbSuspend_SetVector
  64:.\Generated_Source\PSoC5/isr_UsbSuspend.c **** 
  65:.\Generated_Source\PSoC5/isr_UsbSuspend.c ****     /* Set the priority. */
  66:.\Generated_Source\PSoC5/isr_UsbSuspend.c ****     isr_UsbSuspend_SetPriority((uint8)isr_UsbSuspend_INTC_PRIOR_NUMBER);
  50              		.loc 1 66 0
  51 0014 4FF00700 		mov	r0, #7
  52 0018 FFF7FEFF 		bl	isr_UsbSuspend_SetPriority
  67:.\Generated_Source\PSoC5/isr_UsbSuspend.c **** 
  68:.\Generated_Source\PSoC5/isr_UsbSuspend.c ****     /* Enable it. */
  69:.\Generated_Source\PSoC5/isr_UsbSuspend.c ****     isr_UsbSuspend_Enable();
  53              		.loc 1 69 0
  54 001c FFF7FEFF 		bl	isr_UsbSuspend_Enable
  70:.\Generated_Source\PSoC5/isr_UsbSuspend.c **** }
  55              		.loc 1 70 0
  56 0020 80BD     		pop	{r7, pc}
  57              		.cfi_endproc
  58              	.LFE29:
  59              		.size	isr_UsbSuspend_Start, .-isr_UsbSuspend_Start
  60 0022 00BF     		.section	.text.isr_UsbSuspend_StartEx,"ax",%progbits
  61              		.align	2
  62              		.global	isr_UsbSuspend_StartEx
  63              		.thumb
  64              		.thumb_func
  65              		.type	isr_UsbSuspend_StartEx, %function
  66              	isr_UsbSuspend_StartEx:
  67              	.LFB30:
  71:.\Generated_Source\PSoC5/isr_UsbSuspend.c **** 
  72:.\Generated_Source\PSoC5/isr_UsbSuspend.c **** 
  73:.\Generated_Source\PSoC5/isr_UsbSuspend.c **** /*******************************************************************************
  74:.\Generated_Source\PSoC5/isr_UsbSuspend.c **** * Function Name: isr_UsbSuspend_StartEx
  75:.\Generated_Source\PSoC5/isr_UsbSuspend.c **** ********************************************************************************
  76:.\Generated_Source\PSoC5/isr_UsbSuspend.c **** *
  77:.\Generated_Source\PSoC5/isr_UsbSuspend.c **** * Summary:
  78:.\Generated_Source\PSoC5/isr_UsbSuspend.c **** *  Set up the interrupt and enable it.
  79:.\Generated_Source\PSoC5/isr_UsbSuspend.c **** *
  80:.\Generated_Source\PSoC5/isr_UsbSuspend.c **** * Parameters:  
  81:.\Generated_Source\PSoC5/isr_UsbSuspend.c **** *   address: Address of the ISR to set in the interrupt vector table.
  82:.\Generated_Source\PSoC5/isr_UsbSuspend.c **** *
  83:.\Generated_Source\PSoC5/isr_UsbSuspend.c **** * Return:
  84:.\Generated_Source\PSoC5/isr_UsbSuspend.c **** *   None
  85:.\Generated_Source\PSoC5/isr_UsbSuspend.c **** *
  86:.\Generated_Source\PSoC5/isr_UsbSuspend.c **** *******************************************************************************/
  87:.\Generated_Source\PSoC5/isr_UsbSuspend.c **** void isr_UsbSuspend_StartEx(cyisraddress address)
  88:.\Generated_Source\PSoC5/isr_UsbSuspend.c **** {
  68              		.loc 1 88 0
  69              		.cfi_startproc
  70              		@ args = 0, pretend = 0, frame = 8
  71              		@ frame_needed = 1, uses_anonymous_args = 0
  72 0000 80B5     		push	{r7, lr}
  73              	.LCFI2:
  74              		.cfi_def_cfa_offset 8
  75 0002 82B0     		sub	sp, sp, #8
  76              	.LCFI3:
  77              		.cfi_def_cfa_offset 16
  78 0004 00AF     		add	r7, sp, #0
  79              		.cfi_offset 14, -4
ARM GAS  C:\DOCUME~1\ADMINI~1\LOCALS~1\Temp\cc0Lb7Cp.s 			page 4


  80              		.cfi_offset 7, -8
  81              	.LCFI4:
  82              		.cfi_def_cfa_register 7
  83 0006 7860     		str	r0, [r7, #4]
  89:.\Generated_Source\PSoC5/isr_UsbSuspend.c ****     /* For all we know the interrupt is active. */
  90:.\Generated_Source\PSoC5/isr_UsbSuspend.c ****     isr_UsbSuspend_Disable();
  84              		.loc 1 90 0
  85 0008 FFF7FEFF 		bl	isr_UsbSuspend_Disable
  91:.\Generated_Source\PSoC5/isr_UsbSuspend.c **** 
  92:.\Generated_Source\PSoC5/isr_UsbSuspend.c ****     /* Set the ISR to point to the isr_UsbSuspend Interrupt. */
  93:.\Generated_Source\PSoC5/isr_UsbSuspend.c ****     isr_UsbSuspend_SetVector(address);
  86              		.loc 1 93 0
  87 000c 7868     		ldr	r0, [r7, #4]
  88 000e FFF7FEFF 		bl	isr_UsbSuspend_SetVector
  94:.\Generated_Source\PSoC5/isr_UsbSuspend.c **** 
  95:.\Generated_Source\PSoC5/isr_UsbSuspend.c ****     /* Set the priority. */
  96:.\Generated_Source\PSoC5/isr_UsbSuspend.c ****     isr_UsbSuspend_SetPriority((uint8)isr_UsbSuspend_INTC_PRIOR_NUMBER);
  89              		.loc 1 96 0
  90 0012 4FF00700 		mov	r0, #7
  91 0016 FFF7FEFF 		bl	isr_UsbSuspend_SetPriority
  97:.\Generated_Source\PSoC5/isr_UsbSuspend.c **** 
  98:.\Generated_Source\PSoC5/isr_UsbSuspend.c ****     /* Enable it. */
  99:.\Generated_Source\PSoC5/isr_UsbSuspend.c ****     isr_UsbSuspend_Enable();
  92              		.loc 1 99 0
  93 001a FFF7FEFF 		bl	isr_UsbSuspend_Enable
 100:.\Generated_Source\PSoC5/isr_UsbSuspend.c **** }
  94              		.loc 1 100 0
  95 001e 07F10807 		add	r7, r7, #8
  96 0022 BD46     		mov	sp, r7
  97 0024 80BD     		pop	{r7, pc}
  98              		.cfi_endproc
  99              	.LFE30:
 100              		.size	isr_UsbSuspend_StartEx, .-isr_UsbSuspend_StartEx
 101 0026 00BF     		.section	.text.isr_UsbSuspend_Stop,"ax",%progbits
 102              		.align	2
 103              		.global	isr_UsbSuspend_Stop
 104              		.thumb
 105              		.thumb_func
 106              		.type	isr_UsbSuspend_Stop, %function
 107              	isr_UsbSuspend_Stop:
 108              	.LFB31:
 101:.\Generated_Source\PSoC5/isr_UsbSuspend.c **** 
 102:.\Generated_Source\PSoC5/isr_UsbSuspend.c **** 
 103:.\Generated_Source\PSoC5/isr_UsbSuspend.c **** /*******************************************************************************
 104:.\Generated_Source\PSoC5/isr_UsbSuspend.c **** * Function Name: isr_UsbSuspend_Stop
 105:.\Generated_Source\PSoC5/isr_UsbSuspend.c **** ********************************************************************************
 106:.\Generated_Source\PSoC5/isr_UsbSuspend.c **** *
 107:.\Generated_Source\PSoC5/isr_UsbSuspend.c **** * Summary:
 108:.\Generated_Source\PSoC5/isr_UsbSuspend.c **** *   Disables and removes the interrupt.
 109:.\Generated_Source\PSoC5/isr_UsbSuspend.c **** *
 110:.\Generated_Source\PSoC5/isr_UsbSuspend.c **** * Parameters:  
 111:.\Generated_Source\PSoC5/isr_UsbSuspend.c **** *
 112:.\Generated_Source\PSoC5/isr_UsbSuspend.c **** * Return:
 113:.\Generated_Source\PSoC5/isr_UsbSuspend.c **** *   None
 114:.\Generated_Source\PSoC5/isr_UsbSuspend.c **** *
 115:.\Generated_Source\PSoC5/isr_UsbSuspend.c **** *******************************************************************************/
 116:.\Generated_Source\PSoC5/isr_UsbSuspend.c **** void isr_UsbSuspend_Stop(void)
ARM GAS  C:\DOCUME~1\ADMINI~1\LOCALS~1\Temp\cc0Lb7Cp.s 			page 5


 117:.\Generated_Source\PSoC5/isr_UsbSuspend.c **** {
 109              		.loc 1 117 0
 110              		.cfi_startproc
 111              		@ args = 0, pretend = 0, frame = 0
 112              		@ frame_needed = 1, uses_anonymous_args = 0
 113 0000 80B5     		push	{r7, lr}
 114              	.LCFI5:
 115              		.cfi_def_cfa_offset 8
 116 0002 00AF     		add	r7, sp, #0
 117              		.cfi_offset 14, -4
 118              		.cfi_offset 7, -8
 119              	.LCFI6:
 120              		.cfi_def_cfa_register 7
 118:.\Generated_Source\PSoC5/isr_UsbSuspend.c ****     /* Disable this interrupt. */
 119:.\Generated_Source\PSoC5/isr_UsbSuspend.c ****     isr_UsbSuspend_Disable();
 121              		.loc 1 119 0
 122 0004 FFF7FEFF 		bl	isr_UsbSuspend_Disable
 120:.\Generated_Source\PSoC5/isr_UsbSuspend.c **** 
 121:.\Generated_Source\PSoC5/isr_UsbSuspend.c ****     /* Set the ISR to point to the passive one. */
 122:.\Generated_Source\PSoC5/isr_UsbSuspend.c ****     isr_UsbSuspend_SetVector(&IntDefaultHandler);
 123              		.loc 1 122 0
 124 0008 40F20000 		movw	r0, #:lower16:IntDefaultHandler
 125 000c C0F20000 		movt	r0, #:upper16:IntDefaultHandler
 126 0010 FFF7FEFF 		bl	isr_UsbSuspend_SetVector
 123:.\Generated_Source\PSoC5/isr_UsbSuspend.c **** }
 127              		.loc 1 123 0
 128 0014 80BD     		pop	{r7, pc}
 129              		.cfi_endproc
 130              	.LFE31:
 131              		.size	isr_UsbSuspend_Stop, .-isr_UsbSuspend_Stop
 132 0016 00BF     		.section	.text.isr_UsbSuspend_Interrupt,"ax",%progbits
 133              		.align	2
 134              		.global	isr_UsbSuspend_Interrupt
 135              		.thumb
 136              		.thumb_func
 137              		.type	isr_UsbSuspend_Interrupt, %function
 138              	isr_UsbSuspend_Interrupt:
 139              	.LFB32:
 124:.\Generated_Source\PSoC5/isr_UsbSuspend.c **** 
 125:.\Generated_Source\PSoC5/isr_UsbSuspend.c **** 
 126:.\Generated_Source\PSoC5/isr_UsbSuspend.c **** /*******************************************************************************
 127:.\Generated_Source\PSoC5/isr_UsbSuspend.c **** * Function Name: isr_UsbSuspend_Interrupt
 128:.\Generated_Source\PSoC5/isr_UsbSuspend.c **** ********************************************************************************
 129:.\Generated_Source\PSoC5/isr_UsbSuspend.c **** *
 130:.\Generated_Source\PSoC5/isr_UsbSuspend.c **** * Summary:
 131:.\Generated_Source\PSoC5/isr_UsbSuspend.c **** *   The default Interrupt Service Routine for isr_UsbSuspend.
 132:.\Generated_Source\PSoC5/isr_UsbSuspend.c **** *
 133:.\Generated_Source\PSoC5/isr_UsbSuspend.c **** *   Add custom code between the coments to keep the next version of this file
 134:.\Generated_Source\PSoC5/isr_UsbSuspend.c **** *   from over writting your code.
 135:.\Generated_Source\PSoC5/isr_UsbSuspend.c **** *
 136:.\Generated_Source\PSoC5/isr_UsbSuspend.c **** * Parameters:  
 137:.\Generated_Source\PSoC5/isr_UsbSuspend.c **** *
 138:.\Generated_Source\PSoC5/isr_UsbSuspend.c **** * Return:
 139:.\Generated_Source\PSoC5/isr_UsbSuspend.c **** *   None
 140:.\Generated_Source\PSoC5/isr_UsbSuspend.c **** *
 141:.\Generated_Source\PSoC5/isr_UsbSuspend.c **** *******************************************************************************/
 142:.\Generated_Source\PSoC5/isr_UsbSuspend.c **** CY_ISR(isr_UsbSuspend_Interrupt)
ARM GAS  C:\DOCUME~1\ADMINI~1\LOCALS~1\Temp\cc0Lb7Cp.s 			page 6


 143:.\Generated_Source\PSoC5/isr_UsbSuspend.c **** {
 140              		.loc 1 143 0
 141              		.cfi_startproc
 142              		@ args = 0, pretend = 0, frame = 0
 143              		@ frame_needed = 1, uses_anonymous_args = 0
 144 0000 80B5     		push	{r7, lr}
 145              	.LCFI7:
 146              		.cfi_def_cfa_offset 8
 147 0002 00AF     		add	r7, sp, #0
 148              		.cfi_offset 14, -4
 149              		.cfi_offset 7, -8
 150              	.LCFI8:
 151              		.cfi_def_cfa_register 7
 144:.\Generated_Source\PSoC5/isr_UsbSuspend.c ****     /*  Place your Interrupt code here. */
 145:.\Generated_Source\PSoC5/isr_UsbSuspend.c ****     /* `#START isr_UsbSuspend_Interrupt` */
 146:.\Generated_Source\PSoC5/isr_UsbSuspend.c **** 	checkActivityFlag = TRUE;
 152              		.loc 1 146 0
 153 0004 40F20003 		movw	r3, #:lower16:checkActivityFlag
 154 0008 C0F20003 		movt	r3, #:upper16:checkActivityFlag
 155 000c 4FF00102 		mov	r2, #1
 156 0010 1A70     		strb	r2, [r3, #0]
 147:.\Generated_Source\PSoC5/isr_UsbSuspend.c **** 	Timer_UsbSuspend_ReadStatusRegister();
 157              		.loc 1 147 0
 158 0012 FFF7FEFF 		bl	Timer_UsbSuspend_ReadStatusRegister
 148:.\Generated_Source\PSoC5/isr_UsbSuspend.c ****     /* `#END` */
 149:.\Generated_Source\PSoC5/isr_UsbSuspend.c **** }
 159              		.loc 1 149 0
 160 0016 80BD     		pop	{r7, pc}
 161              		.cfi_endproc
 162              	.LFE32:
 163              		.size	isr_UsbSuspend_Interrupt, .-isr_UsbSuspend_Interrupt
 164              		.section	.text.isr_UsbSuspend_SetVector,"ax",%progbits
 165              		.align	2
 166              		.global	isr_UsbSuspend_SetVector
 167              		.thumb
 168              		.thumb_func
 169              		.type	isr_UsbSuspend_SetVector, %function
 170              	isr_UsbSuspend_SetVector:
 171              	.LFB33:
 150:.\Generated_Source\PSoC5/isr_UsbSuspend.c **** 
 151:.\Generated_Source\PSoC5/isr_UsbSuspend.c **** 
 152:.\Generated_Source\PSoC5/isr_UsbSuspend.c **** /*******************************************************************************
 153:.\Generated_Source\PSoC5/isr_UsbSuspend.c **** * Function Name: isr_UsbSuspend_SetVector
 154:.\Generated_Source\PSoC5/isr_UsbSuspend.c **** ********************************************************************************
 155:.\Generated_Source\PSoC5/isr_UsbSuspend.c **** *
 156:.\Generated_Source\PSoC5/isr_UsbSuspend.c **** * Summary:
 157:.\Generated_Source\PSoC5/isr_UsbSuspend.c **** *   Change the ISR vector for the Interrupt. Note calling isr_UsbSuspend_Start
 158:.\Generated_Source\PSoC5/isr_UsbSuspend.c **** *   will override any effect this method would have had. To set the vector 
 159:.\Generated_Source\PSoC5/isr_UsbSuspend.c **** *   before the component has been started use isr_UsbSuspend_StartEx instead.
 160:.\Generated_Source\PSoC5/isr_UsbSuspend.c **** *
 161:.\Generated_Source\PSoC5/isr_UsbSuspend.c **** * Parameters:
 162:.\Generated_Source\PSoC5/isr_UsbSuspend.c **** *   address: Address of the ISR to set in the interrupt vector table.
 163:.\Generated_Source\PSoC5/isr_UsbSuspend.c **** *
 164:.\Generated_Source\PSoC5/isr_UsbSuspend.c **** * Return:
 165:.\Generated_Source\PSoC5/isr_UsbSuspend.c **** *   None
 166:.\Generated_Source\PSoC5/isr_UsbSuspend.c **** *
 167:.\Generated_Source\PSoC5/isr_UsbSuspend.c **** *******************************************************************************/
ARM GAS  C:\DOCUME~1\ADMINI~1\LOCALS~1\Temp\cc0Lb7Cp.s 			page 7


 168:.\Generated_Source\PSoC5/isr_UsbSuspend.c **** void isr_UsbSuspend_SetVector(cyisraddress address)
 169:.\Generated_Source\PSoC5/isr_UsbSuspend.c **** {
 172              		.loc 1 169 0
 173              		.cfi_startproc
 174              		@ args = 0, pretend = 0, frame = 16
 175              		@ frame_needed = 1, uses_anonymous_args = 0
 176              		@ link register save eliminated.
 177 0000 80B4     		push	{r7}
 178              	.LCFI9:
 179              		.cfi_def_cfa_offset 4
 180 0002 85B0     		sub	sp, sp, #20
 181              	.LCFI10:
 182              		.cfi_def_cfa_offset 24
 183 0004 00AF     		add	r7, sp, #0
 184              		.cfi_offset 7, -4
 185              	.LCFI11:
 186              		.cfi_def_cfa_register 7
 187 0006 7860     		str	r0, [r7, #4]
 170:.\Generated_Source\PSoC5/isr_UsbSuspend.c ****     cyisraddress * ramVectorTable;
 171:.\Generated_Source\PSoC5/isr_UsbSuspend.c **** 
 172:.\Generated_Source\PSoC5/isr_UsbSuspend.c ****     ramVectorTable = (cyisraddress *) *CYINT_VECT_TABLE;
 188              		.loc 1 172 0
 189 0008 4EF60853 		movw	r3, #:lower16:-536810232
 190 000c CEF20003 		movt	r3, #:upper16:-536810232
 191 0010 1B68     		ldr	r3, [r3, #0]
 192 0012 FB60     		str	r3, [r7, #12]
 173:.\Generated_Source\PSoC5/isr_UsbSuspend.c **** 
 174:.\Generated_Source\PSoC5/isr_UsbSuspend.c ****     ramVectorTable[CYINT_IRQ_BASE + (uint32)isr_UsbSuspend__INTC_NUMBER] = address;
 193              		.loc 1 174 0
 194 0014 FB68     		ldr	r3, [r7, #12]
 195 0016 03F18403 		add	r3, r3, #132
 196 001a 7A68     		ldr	r2, [r7, #4]
 197 001c 1A60     		str	r2, [r3, #0]
 175:.\Generated_Source\PSoC5/isr_UsbSuspend.c **** }
 198              		.loc 1 175 0
 199 001e 07F11407 		add	r7, r7, #20
 200 0022 BD46     		mov	sp, r7
 201 0024 80BC     		pop	{r7}
 202 0026 7047     		bx	lr
 203              		.cfi_endproc
 204              	.LFE33:
 205              		.size	isr_UsbSuspend_SetVector, .-isr_UsbSuspend_SetVector
 206              		.section	.text.isr_UsbSuspend_GetVector,"ax",%progbits
 207              		.align	2
 208              		.global	isr_UsbSuspend_GetVector
 209              		.thumb
 210              		.thumb_func
 211              		.type	isr_UsbSuspend_GetVector, %function
 212              	isr_UsbSuspend_GetVector:
 213              	.LFB34:
 176:.\Generated_Source\PSoC5/isr_UsbSuspend.c **** 
 177:.\Generated_Source\PSoC5/isr_UsbSuspend.c **** 
 178:.\Generated_Source\PSoC5/isr_UsbSuspend.c **** /*******************************************************************************
 179:.\Generated_Source\PSoC5/isr_UsbSuspend.c **** * Function Name: isr_UsbSuspend_GetVector
 180:.\Generated_Source\PSoC5/isr_UsbSuspend.c **** ********************************************************************************
 181:.\Generated_Source\PSoC5/isr_UsbSuspend.c **** *
 182:.\Generated_Source\PSoC5/isr_UsbSuspend.c **** * Summary:
ARM GAS  C:\DOCUME~1\ADMINI~1\LOCALS~1\Temp\cc0Lb7Cp.s 			page 8


 183:.\Generated_Source\PSoC5/isr_UsbSuspend.c **** *   Gets the "address" of the current ISR vector for the Interrupt.
 184:.\Generated_Source\PSoC5/isr_UsbSuspend.c **** *
 185:.\Generated_Source\PSoC5/isr_UsbSuspend.c **** * Parameters:
 186:.\Generated_Source\PSoC5/isr_UsbSuspend.c **** *   None
 187:.\Generated_Source\PSoC5/isr_UsbSuspend.c **** *
 188:.\Generated_Source\PSoC5/isr_UsbSuspend.c **** * Return:
 189:.\Generated_Source\PSoC5/isr_UsbSuspend.c **** *   Address of the ISR in the interrupt vector table.
 190:.\Generated_Source\PSoC5/isr_UsbSuspend.c **** *
 191:.\Generated_Source\PSoC5/isr_UsbSuspend.c **** *******************************************************************************/
 192:.\Generated_Source\PSoC5/isr_UsbSuspend.c **** cyisraddress isr_UsbSuspend_GetVector(void)
 193:.\Generated_Source\PSoC5/isr_UsbSuspend.c **** {
 214              		.loc 1 193 0
 215              		.cfi_startproc
 216              		@ args = 0, pretend = 0, frame = 8
 217              		@ frame_needed = 1, uses_anonymous_args = 0
 218              		@ link register save eliminated.
 219 0000 80B4     		push	{r7}
 220              	.LCFI12:
 221              		.cfi_def_cfa_offset 4
 222 0002 83B0     		sub	sp, sp, #12
 223              	.LCFI13:
 224              		.cfi_def_cfa_offset 16
 225 0004 00AF     		add	r7, sp, #0
 226              		.cfi_offset 7, -4
 227              	.LCFI14:
 228              		.cfi_def_cfa_register 7
 194:.\Generated_Source\PSoC5/isr_UsbSuspend.c ****     cyisraddress * ramVectorTable;
 195:.\Generated_Source\PSoC5/isr_UsbSuspend.c **** 
 196:.\Generated_Source\PSoC5/isr_UsbSuspend.c ****     ramVectorTable = (cyisraddress *) *CYINT_VECT_TABLE;
 229              		.loc 1 196 0
 230 0006 4EF60853 		movw	r3, #:lower16:-536810232
 231 000a CEF20003 		movt	r3, #:upper16:-536810232
 232 000e 1B68     		ldr	r3, [r3, #0]
 233 0010 7B60     		str	r3, [r7, #4]
 197:.\Generated_Source\PSoC5/isr_UsbSuspend.c **** 
 198:.\Generated_Source\PSoC5/isr_UsbSuspend.c ****     return ramVectorTable[CYINT_IRQ_BASE + (uint32)isr_UsbSuspend__INTC_NUMBER];
 234              		.loc 1 198 0
 235 0012 7B68     		ldr	r3, [r7, #4]
 236 0014 03F18403 		add	r3, r3, #132
 237 0018 1B68     		ldr	r3, [r3, #0]
 199:.\Generated_Source\PSoC5/isr_UsbSuspend.c **** }
 238              		.loc 1 199 0
 239 001a 1846     		mov	r0, r3
 240 001c 07F10C07 		add	r7, r7, #12
 241 0020 BD46     		mov	sp, r7
 242 0022 80BC     		pop	{r7}
 243 0024 7047     		bx	lr
 244              		.cfi_endproc
 245              	.LFE34:
 246              		.size	isr_UsbSuspend_GetVector, .-isr_UsbSuspend_GetVector
 247 0026 00BF     		.section	.text.isr_UsbSuspend_SetPriority,"ax",%progbits
 248              		.align	2
 249              		.global	isr_UsbSuspend_SetPriority
 250              		.thumb
 251              		.thumb_func
 252              		.type	isr_UsbSuspend_SetPriority, %function
 253              	isr_UsbSuspend_SetPriority:
ARM GAS  C:\DOCUME~1\ADMINI~1\LOCALS~1\Temp\cc0Lb7Cp.s 			page 9


 254              	.LFB35:
 200:.\Generated_Source\PSoC5/isr_UsbSuspend.c **** 
 201:.\Generated_Source\PSoC5/isr_UsbSuspend.c **** 
 202:.\Generated_Source\PSoC5/isr_UsbSuspend.c **** /*******************************************************************************
 203:.\Generated_Source\PSoC5/isr_UsbSuspend.c **** * Function Name: isr_UsbSuspend_SetPriority
 204:.\Generated_Source\PSoC5/isr_UsbSuspend.c **** ********************************************************************************
 205:.\Generated_Source\PSoC5/isr_UsbSuspend.c **** *
 206:.\Generated_Source\PSoC5/isr_UsbSuspend.c **** * Summary:
 207:.\Generated_Source\PSoC5/isr_UsbSuspend.c **** *   Sets the Priority of the Interrupt. Note calling isr_UsbSuspend_Start
 208:.\Generated_Source\PSoC5/isr_UsbSuspend.c **** *   or isr_UsbSuspend_StartEx will override any effect this method 
 209:.\Generated_Source\PSoC5/isr_UsbSuspend.c **** *   would have had. This method should only be called after 
 210:.\Generated_Source\PSoC5/isr_UsbSuspend.c **** *   isr_UsbSuspend_Start or isr_UsbSuspend_StartEx has been called. To set 
 211:.\Generated_Source\PSoC5/isr_UsbSuspend.c **** *   the initial priority for the component use the cydwr file in the tool.
 212:.\Generated_Source\PSoC5/isr_UsbSuspend.c **** *
 213:.\Generated_Source\PSoC5/isr_UsbSuspend.c **** * Parameters:
 214:.\Generated_Source\PSoC5/isr_UsbSuspend.c **** *   priority: Priority of the interrupt. 0 - 7, 0 being the highest.
 215:.\Generated_Source\PSoC5/isr_UsbSuspend.c **** *
 216:.\Generated_Source\PSoC5/isr_UsbSuspend.c **** * Return:
 217:.\Generated_Source\PSoC5/isr_UsbSuspend.c **** *   None
 218:.\Generated_Source\PSoC5/isr_UsbSuspend.c **** *
 219:.\Generated_Source\PSoC5/isr_UsbSuspend.c **** *******************************************************************************/
 220:.\Generated_Source\PSoC5/isr_UsbSuspend.c **** void isr_UsbSuspend_SetPriority(uint8 priority)
 221:.\Generated_Source\PSoC5/isr_UsbSuspend.c **** {
 255              		.loc 1 221 0
 256              		.cfi_startproc
 257              		@ args = 0, pretend = 0, frame = 8
 258              		@ frame_needed = 1, uses_anonymous_args = 0
 259              		@ link register save eliminated.
 260 0000 80B4     		push	{r7}
 261              	.LCFI15:
 262              		.cfi_def_cfa_offset 4
 263 0002 83B0     		sub	sp, sp, #12
 264              	.LCFI16:
 265              		.cfi_def_cfa_offset 16
 266 0004 00AF     		add	r7, sp, #0
 267              		.cfi_offset 7, -4
 268              	.LCFI17:
 269              		.cfi_def_cfa_register 7
 270 0006 0346     		mov	r3, r0
 271 0008 FB71     		strb	r3, [r7, #7]
 222:.\Generated_Source\PSoC5/isr_UsbSuspend.c ****     *isr_UsbSuspend_INTC_PRIOR = priority << 5;
 272              		.loc 1 222 0
 273 000a 4EF21143 		movw	r3, #:lower16:-536812527
 274 000e CEF20003 		movt	r3, #:upper16:-536812527
 275 0012 FA79     		ldrb	r2, [r7, #7]
 276 0014 4FEA4212 		lsl	r2, r2, #5
 277 0018 D2B2     		uxtb	r2, r2
 278 001a 1A70     		strb	r2, [r3, #0]
 223:.\Generated_Source\PSoC5/isr_UsbSuspend.c **** }
 279              		.loc 1 223 0
 280 001c 07F10C07 		add	r7, r7, #12
 281 0020 BD46     		mov	sp, r7
 282 0022 80BC     		pop	{r7}
 283 0024 7047     		bx	lr
 284              		.cfi_endproc
 285              	.LFE35:
 286              		.size	isr_UsbSuspend_SetPriority, .-isr_UsbSuspend_SetPriority
ARM GAS  C:\DOCUME~1\ADMINI~1\LOCALS~1\Temp\cc0Lb7Cp.s 			page 10


 287 0026 00BF     		.section	.text.isr_UsbSuspend_GetPriority,"ax",%progbits
 288              		.align	2
 289              		.global	isr_UsbSuspend_GetPriority
 290              		.thumb
 291              		.thumb_func
 292              		.type	isr_UsbSuspend_GetPriority, %function
 293              	isr_UsbSuspend_GetPriority:
 294              	.LFB36:
 224:.\Generated_Source\PSoC5/isr_UsbSuspend.c **** 
 225:.\Generated_Source\PSoC5/isr_UsbSuspend.c **** 
 226:.\Generated_Source\PSoC5/isr_UsbSuspend.c **** /*******************************************************************************
 227:.\Generated_Source\PSoC5/isr_UsbSuspend.c **** * Function Name: isr_UsbSuspend_GetPriority
 228:.\Generated_Source\PSoC5/isr_UsbSuspend.c **** ********************************************************************************
 229:.\Generated_Source\PSoC5/isr_UsbSuspend.c **** *
 230:.\Generated_Source\PSoC5/isr_UsbSuspend.c **** * Summary:
 231:.\Generated_Source\PSoC5/isr_UsbSuspend.c **** *   Gets the Priority of the Interrupt.
 232:.\Generated_Source\PSoC5/isr_UsbSuspend.c **** *
 233:.\Generated_Source\PSoC5/isr_UsbSuspend.c **** * Parameters:
 234:.\Generated_Source\PSoC5/isr_UsbSuspend.c **** *   None
 235:.\Generated_Source\PSoC5/isr_UsbSuspend.c **** *
 236:.\Generated_Source\PSoC5/isr_UsbSuspend.c **** * Return:
 237:.\Generated_Source\PSoC5/isr_UsbSuspend.c **** *   Priority of the interrupt. 0 - 7, 0 being the highest.
 238:.\Generated_Source\PSoC5/isr_UsbSuspend.c **** *
 239:.\Generated_Source\PSoC5/isr_UsbSuspend.c **** *******************************************************************************/
 240:.\Generated_Source\PSoC5/isr_UsbSuspend.c **** uint8 isr_UsbSuspend_GetPriority(void)
 241:.\Generated_Source\PSoC5/isr_UsbSuspend.c **** {
 295              		.loc 1 241 0
 296              		.cfi_startproc
 297              		@ args = 0, pretend = 0, frame = 8
 298              		@ frame_needed = 1, uses_anonymous_args = 0
 299              		@ link register save eliminated.
 300 0000 80B4     		push	{r7}
 301              	.LCFI18:
 302              		.cfi_def_cfa_offset 4
 303 0002 83B0     		sub	sp, sp, #12
 304              	.LCFI19:
 305              		.cfi_def_cfa_offset 16
 306 0004 00AF     		add	r7, sp, #0
 307              		.cfi_offset 7, -4
 308              	.LCFI20:
 309              		.cfi_def_cfa_register 7
 242:.\Generated_Source\PSoC5/isr_UsbSuspend.c ****     uint8 priority;
 243:.\Generated_Source\PSoC5/isr_UsbSuspend.c **** 
 244:.\Generated_Source\PSoC5/isr_UsbSuspend.c **** 
 245:.\Generated_Source\PSoC5/isr_UsbSuspend.c ****     priority = *isr_UsbSuspend_INTC_PRIOR >> 5;
 310              		.loc 1 245 0
 311 0006 4EF21143 		movw	r3, #:lower16:-536812527
 312 000a CEF20003 		movt	r3, #:upper16:-536812527
 313 000e 1B78     		ldrb	r3, [r3, #0]
 314 0010 DBB2     		uxtb	r3, r3
 315 0012 4FEA5313 		lsr	r3, r3, #5
 316 0016 FB71     		strb	r3, [r7, #7]
 246:.\Generated_Source\PSoC5/isr_UsbSuspend.c **** 
 247:.\Generated_Source\PSoC5/isr_UsbSuspend.c ****     return priority;
 317              		.loc 1 247 0
 318 0018 FB79     		ldrb	r3, [r7, #7]	@ zero_extendqisi2
 248:.\Generated_Source\PSoC5/isr_UsbSuspend.c **** }
ARM GAS  C:\DOCUME~1\ADMINI~1\LOCALS~1\Temp\cc0Lb7Cp.s 			page 11


 319              		.loc 1 248 0
 320 001a 1846     		mov	r0, r3
 321 001c 07F10C07 		add	r7, r7, #12
 322 0020 BD46     		mov	sp, r7
 323 0022 80BC     		pop	{r7}
 324 0024 7047     		bx	lr
 325              		.cfi_endproc
 326              	.LFE36:
 327              		.size	isr_UsbSuspend_GetPriority, .-isr_UsbSuspend_GetPriority
 328 0026 00BF     		.section	.text.isr_UsbSuspend_Enable,"ax",%progbits
 329              		.align	2
 330              		.global	isr_UsbSuspend_Enable
 331              		.thumb
 332              		.thumb_func
 333              		.type	isr_UsbSuspend_Enable, %function
 334              	isr_UsbSuspend_Enable:
 335              	.LFB37:
 249:.\Generated_Source\PSoC5/isr_UsbSuspend.c **** 
 250:.\Generated_Source\PSoC5/isr_UsbSuspend.c **** 
 251:.\Generated_Source\PSoC5/isr_UsbSuspend.c **** /*******************************************************************************
 252:.\Generated_Source\PSoC5/isr_UsbSuspend.c **** * Function Name: isr_UsbSuspend_Enable
 253:.\Generated_Source\PSoC5/isr_UsbSuspend.c **** ********************************************************************************
 254:.\Generated_Source\PSoC5/isr_UsbSuspend.c **** *
 255:.\Generated_Source\PSoC5/isr_UsbSuspend.c **** * Summary:
 256:.\Generated_Source\PSoC5/isr_UsbSuspend.c **** *   Enables the interrupt.
 257:.\Generated_Source\PSoC5/isr_UsbSuspend.c **** *
 258:.\Generated_Source\PSoC5/isr_UsbSuspend.c **** * Parameters:
 259:.\Generated_Source\PSoC5/isr_UsbSuspend.c **** *   None
 260:.\Generated_Source\PSoC5/isr_UsbSuspend.c **** *
 261:.\Generated_Source\PSoC5/isr_UsbSuspend.c **** * Return:
 262:.\Generated_Source\PSoC5/isr_UsbSuspend.c **** *   None
 263:.\Generated_Source\PSoC5/isr_UsbSuspend.c **** *
 264:.\Generated_Source\PSoC5/isr_UsbSuspend.c **** *******************************************************************************/
 265:.\Generated_Source\PSoC5/isr_UsbSuspend.c **** void isr_UsbSuspend_Enable(void)
 266:.\Generated_Source\PSoC5/isr_UsbSuspend.c **** {
 336              		.loc 1 266 0
 337              		.cfi_startproc
 338              		@ args = 0, pretend = 0, frame = 0
 339              		@ frame_needed = 1, uses_anonymous_args = 0
 340              		@ link register save eliminated.
 341 0000 80B4     		push	{r7}
 342              	.LCFI21:
 343              		.cfi_def_cfa_offset 4
 344 0002 00AF     		add	r7, sp, #0
 345              		.cfi_offset 7, -4
 346              	.LCFI22:
 347              		.cfi_def_cfa_register 7
 267:.\Generated_Source\PSoC5/isr_UsbSuspend.c ****     /* Enable the general interrupt. */
 268:.\Generated_Source\PSoC5/isr_UsbSuspend.c ****     *isr_UsbSuspend_INTC_SET_EN = isr_UsbSuspend__INTC_MASK;
 348              		.loc 1 268 0
 349 0004 4EF20013 		movw	r3, #:lower16:-536813312
 350 0008 CEF20003 		movt	r3, #:upper16:-536813312
 351 000c 4FF40032 		mov	r2, #131072
 352 0010 1A60     		str	r2, [r3, #0]
 269:.\Generated_Source\PSoC5/isr_UsbSuspend.c **** }
 353              		.loc 1 269 0
 354 0012 BD46     		mov	sp, r7
ARM GAS  C:\DOCUME~1\ADMINI~1\LOCALS~1\Temp\cc0Lb7Cp.s 			page 12


 355 0014 80BC     		pop	{r7}
 356 0016 7047     		bx	lr
 357              		.cfi_endproc
 358              	.LFE37:
 359              		.size	isr_UsbSuspend_Enable, .-isr_UsbSuspend_Enable
 360              		.section	.text.isr_UsbSuspend_GetState,"ax",%progbits
 361              		.align	2
 362              		.global	isr_UsbSuspend_GetState
 363              		.thumb
 364              		.thumb_func
 365              		.type	isr_UsbSuspend_GetState, %function
 366              	isr_UsbSuspend_GetState:
 367              	.LFB38:
 270:.\Generated_Source\PSoC5/isr_UsbSuspend.c **** 
 271:.\Generated_Source\PSoC5/isr_UsbSuspend.c **** 
 272:.\Generated_Source\PSoC5/isr_UsbSuspend.c **** /*******************************************************************************
 273:.\Generated_Source\PSoC5/isr_UsbSuspend.c **** * Function Name: isr_UsbSuspend_GetState
 274:.\Generated_Source\PSoC5/isr_UsbSuspend.c **** ********************************************************************************
 275:.\Generated_Source\PSoC5/isr_UsbSuspend.c **** *
 276:.\Generated_Source\PSoC5/isr_UsbSuspend.c **** * Summary:
 277:.\Generated_Source\PSoC5/isr_UsbSuspend.c **** *   Gets the state (enabled, disabled) of the Interrupt.
 278:.\Generated_Source\PSoC5/isr_UsbSuspend.c **** *
 279:.\Generated_Source\PSoC5/isr_UsbSuspend.c **** * Parameters:
 280:.\Generated_Source\PSoC5/isr_UsbSuspend.c **** *   None
 281:.\Generated_Source\PSoC5/isr_UsbSuspend.c **** *
 282:.\Generated_Source\PSoC5/isr_UsbSuspend.c **** * Return:
 283:.\Generated_Source\PSoC5/isr_UsbSuspend.c **** *   1 if enabled, 0 if disabled.
 284:.\Generated_Source\PSoC5/isr_UsbSuspend.c **** *
 285:.\Generated_Source\PSoC5/isr_UsbSuspend.c **** *******************************************************************************/
 286:.\Generated_Source\PSoC5/isr_UsbSuspend.c **** uint8 isr_UsbSuspend_GetState(void)
 287:.\Generated_Source\PSoC5/isr_UsbSuspend.c **** {
 368              		.loc 1 287 0
 369              		.cfi_startproc
 370              		@ args = 0, pretend = 0, frame = 0
 371              		@ frame_needed = 1, uses_anonymous_args = 0
 372              		@ link register save eliminated.
 373 0000 80B4     		push	{r7}
 374              	.LCFI23:
 375              		.cfi_def_cfa_offset 4
 376 0002 00AF     		add	r7, sp, #0
 377              		.cfi_offset 7, -4
 378              	.LCFI24:
 379              		.cfi_def_cfa_register 7
 288:.\Generated_Source\PSoC5/isr_UsbSuspend.c ****     /* Get the state of the general interrupt. */
 289:.\Generated_Source\PSoC5/isr_UsbSuspend.c ****     return ((*isr_UsbSuspend_INTC_SET_EN & (uint32)isr_UsbSuspend__INTC_MASK) != 0u) ? 1u:0u;
 380              		.loc 1 289 0
 381 0004 4EF20013 		movw	r3, #:lower16:-536813312
 382 0008 CEF20003 		movt	r3, #:upper16:-536813312
 383 000c 1B68     		ldr	r3, [r3, #0]
 384 000e 03F40033 		and	r3, r3, #131072
 385 0012 002B     		cmp	r3, #0
 386 0014 02D0     		beq	.L20
 387 0016 4FF00103 		mov	r3, #1
 388 001a 01E0     		b	.L21
 389              	.L20:
 390 001c 4FF00003 		mov	r3, #0
 391              	.L21:
ARM GAS  C:\DOCUME~1\ADMINI~1\LOCALS~1\Temp\cc0Lb7Cp.s 			page 13


 290:.\Generated_Source\PSoC5/isr_UsbSuspend.c **** }
 392              		.loc 1 290 0
 393 0020 1846     		mov	r0, r3
 394 0022 BD46     		mov	sp, r7
 395 0024 80BC     		pop	{r7}
 396 0026 7047     		bx	lr
 397              		.cfi_endproc
 398              	.LFE38:
 399              		.size	isr_UsbSuspend_GetState, .-isr_UsbSuspend_GetState
 400              		.section	.text.isr_UsbSuspend_Disable,"ax",%progbits
 401              		.align	2
 402              		.global	isr_UsbSuspend_Disable
 403              		.thumb
 404              		.thumb_func
 405              		.type	isr_UsbSuspend_Disable, %function
 406              	isr_UsbSuspend_Disable:
 407              	.LFB39:
 291:.\Generated_Source\PSoC5/isr_UsbSuspend.c **** 
 292:.\Generated_Source\PSoC5/isr_UsbSuspend.c **** 
 293:.\Generated_Source\PSoC5/isr_UsbSuspend.c **** /*******************************************************************************
 294:.\Generated_Source\PSoC5/isr_UsbSuspend.c **** * Function Name: isr_UsbSuspend_Disable
 295:.\Generated_Source\PSoC5/isr_UsbSuspend.c **** ********************************************************************************
 296:.\Generated_Source\PSoC5/isr_UsbSuspend.c **** *
 297:.\Generated_Source\PSoC5/isr_UsbSuspend.c **** * Summary:
 298:.\Generated_Source\PSoC5/isr_UsbSuspend.c **** *   Disables the Interrupt.
 299:.\Generated_Source\PSoC5/isr_UsbSuspend.c **** *
 300:.\Generated_Source\PSoC5/isr_UsbSuspend.c **** * Parameters:
 301:.\Generated_Source\PSoC5/isr_UsbSuspend.c **** *   None
 302:.\Generated_Source\PSoC5/isr_UsbSuspend.c **** *
 303:.\Generated_Source\PSoC5/isr_UsbSuspend.c **** * Return:
 304:.\Generated_Source\PSoC5/isr_UsbSuspend.c **** *   None
 305:.\Generated_Source\PSoC5/isr_UsbSuspend.c **** *
 306:.\Generated_Source\PSoC5/isr_UsbSuspend.c **** *******************************************************************************/
 307:.\Generated_Source\PSoC5/isr_UsbSuspend.c **** void isr_UsbSuspend_Disable(void)
 308:.\Generated_Source\PSoC5/isr_UsbSuspend.c **** {
 408              		.loc 1 308 0
 409              		.cfi_startproc
 410              		@ args = 0, pretend = 0, frame = 0
 411              		@ frame_needed = 1, uses_anonymous_args = 0
 412              		@ link register save eliminated.
 413 0000 80B4     		push	{r7}
 414              	.LCFI25:
 415              		.cfi_def_cfa_offset 4
 416 0002 00AF     		add	r7, sp, #0
 417              		.cfi_offset 7, -4
 418              	.LCFI26:
 419              		.cfi_def_cfa_register 7
 309:.\Generated_Source\PSoC5/isr_UsbSuspend.c ****     /* Disable the general interrupt. */
 310:.\Generated_Source\PSoC5/isr_UsbSuspend.c ****     *isr_UsbSuspend_INTC_CLR_EN = isr_UsbSuspend__INTC_MASK;
 420              		.loc 1 310 0
 421 0004 4EF28013 		movw	r3, #:lower16:-536813184
 422 0008 CEF20003 		movt	r3, #:upper16:-536813184
 423 000c 4FF40032 		mov	r2, #131072
 424 0010 1A60     		str	r2, [r3, #0]
 311:.\Generated_Source\PSoC5/isr_UsbSuspend.c **** }
 425              		.loc 1 311 0
 426 0012 BD46     		mov	sp, r7
ARM GAS  C:\DOCUME~1\ADMINI~1\LOCALS~1\Temp\cc0Lb7Cp.s 			page 14


 427 0014 80BC     		pop	{r7}
 428 0016 7047     		bx	lr
 429              		.cfi_endproc
 430              	.LFE39:
 431              		.size	isr_UsbSuspend_Disable, .-isr_UsbSuspend_Disable
 432              		.section	.text.isr_UsbSuspend_SetPending,"ax",%progbits
 433              		.align	2
 434              		.global	isr_UsbSuspend_SetPending
 435              		.thumb
 436              		.thumb_func
 437              		.type	isr_UsbSuspend_SetPending, %function
 438              	isr_UsbSuspend_SetPending:
 439              	.LFB40:
 312:.\Generated_Source\PSoC5/isr_UsbSuspend.c **** 
 313:.\Generated_Source\PSoC5/isr_UsbSuspend.c **** 
 314:.\Generated_Source\PSoC5/isr_UsbSuspend.c **** /*******************************************************************************
 315:.\Generated_Source\PSoC5/isr_UsbSuspend.c **** * Function Name: isr_UsbSuspend_SetPending
 316:.\Generated_Source\PSoC5/isr_UsbSuspend.c **** ********************************************************************************
 317:.\Generated_Source\PSoC5/isr_UsbSuspend.c **** *
 318:.\Generated_Source\PSoC5/isr_UsbSuspend.c **** * Summary:
 319:.\Generated_Source\PSoC5/isr_UsbSuspend.c **** *   Causes the Interrupt to enter the pending state, a software method of
 320:.\Generated_Source\PSoC5/isr_UsbSuspend.c **** *   generating the interrupt.
 321:.\Generated_Source\PSoC5/isr_UsbSuspend.c **** *
 322:.\Generated_Source\PSoC5/isr_UsbSuspend.c **** * Parameters:
 323:.\Generated_Source\PSoC5/isr_UsbSuspend.c **** *   None
 324:.\Generated_Source\PSoC5/isr_UsbSuspend.c **** *
 325:.\Generated_Source\PSoC5/isr_UsbSuspend.c **** * Return:
 326:.\Generated_Source\PSoC5/isr_UsbSuspend.c **** *   None
 327:.\Generated_Source\PSoC5/isr_UsbSuspend.c **** *
 328:.\Generated_Source\PSoC5/isr_UsbSuspend.c **** *******************************************************************************/
 329:.\Generated_Source\PSoC5/isr_UsbSuspend.c **** void isr_UsbSuspend_SetPending(void)
 330:.\Generated_Source\PSoC5/isr_UsbSuspend.c **** {
 440              		.loc 1 330 0
 441              		.cfi_startproc
 442              		@ args = 0, pretend = 0, frame = 0
 443              		@ frame_needed = 1, uses_anonymous_args = 0
 444              		@ link register save eliminated.
 445 0000 80B4     		push	{r7}
 446              	.LCFI27:
 447              		.cfi_def_cfa_offset 4
 448 0002 00AF     		add	r7, sp, #0
 449              		.cfi_offset 7, -4
 450              	.LCFI28:
 451              		.cfi_def_cfa_register 7
 331:.\Generated_Source\PSoC5/isr_UsbSuspend.c ****     *isr_UsbSuspend_INTC_SET_PD = isr_UsbSuspend__INTC_MASK;
 452              		.loc 1 331 0
 453 0004 4EF20023 		movw	r3, #:lower16:-536813056
 454 0008 CEF20003 		movt	r3, #:upper16:-536813056
 455 000c 4FF40032 		mov	r2, #131072
 456 0010 1A60     		str	r2, [r3, #0]
 332:.\Generated_Source\PSoC5/isr_UsbSuspend.c **** }
 457              		.loc 1 332 0
 458 0012 BD46     		mov	sp, r7
 459 0014 80BC     		pop	{r7}
 460 0016 7047     		bx	lr
 461              		.cfi_endproc
 462              	.LFE40:
ARM GAS  C:\DOCUME~1\ADMINI~1\LOCALS~1\Temp\cc0Lb7Cp.s 			page 15


 463              		.size	isr_UsbSuspend_SetPending, .-isr_UsbSuspend_SetPending
 464              		.section	.text.isr_UsbSuspend_ClearPending,"ax",%progbits
 465              		.align	2
 466              		.global	isr_UsbSuspend_ClearPending
 467              		.thumb
 468              		.thumb_func
 469              		.type	isr_UsbSuspend_ClearPending, %function
 470              	isr_UsbSuspend_ClearPending:
 471              	.LFB41:
 333:.\Generated_Source\PSoC5/isr_UsbSuspend.c **** 
 334:.\Generated_Source\PSoC5/isr_UsbSuspend.c **** 
 335:.\Generated_Source\PSoC5/isr_UsbSuspend.c **** /*******************************************************************************
 336:.\Generated_Source\PSoC5/isr_UsbSuspend.c **** * Function Name: isr_UsbSuspend_ClearPending
 337:.\Generated_Source\PSoC5/isr_UsbSuspend.c **** ********************************************************************************
 338:.\Generated_Source\PSoC5/isr_UsbSuspend.c **** *
 339:.\Generated_Source\PSoC5/isr_UsbSuspend.c **** * Summary:
 340:.\Generated_Source\PSoC5/isr_UsbSuspend.c **** *   Clears a pending interrupt.
 341:.\Generated_Source\PSoC5/isr_UsbSuspend.c **** *
 342:.\Generated_Source\PSoC5/isr_UsbSuspend.c **** * Parameters:
 343:.\Generated_Source\PSoC5/isr_UsbSuspend.c **** *   None
 344:.\Generated_Source\PSoC5/isr_UsbSuspend.c **** *
 345:.\Generated_Source\PSoC5/isr_UsbSuspend.c **** * Return:
 346:.\Generated_Source\PSoC5/isr_UsbSuspend.c **** *   None
 347:.\Generated_Source\PSoC5/isr_UsbSuspend.c **** *
 348:.\Generated_Source\PSoC5/isr_UsbSuspend.c **** *******************************************************************************/
 349:.\Generated_Source\PSoC5/isr_UsbSuspend.c **** void isr_UsbSuspend_ClearPending(void)
 350:.\Generated_Source\PSoC5/isr_UsbSuspend.c **** {
 472              		.loc 1 350 0
 473              		.cfi_startproc
 474              		@ args = 0, pretend = 0, frame = 0
 475              		@ frame_needed = 1, uses_anonymous_args = 0
 476              		@ link register save eliminated.
 477 0000 80B4     		push	{r7}
 478              	.LCFI29:
 479              		.cfi_def_cfa_offset 4
 480 0002 00AF     		add	r7, sp, #0
 481              		.cfi_offset 7, -4
 482              	.LCFI30:
 483              		.cfi_def_cfa_register 7
 351:.\Generated_Source\PSoC5/isr_UsbSuspend.c ****     *isr_UsbSuspend_INTC_CLR_PD = isr_UsbSuspend__INTC_MASK;
 484              		.loc 1 351 0
 485 0004 4EF28023 		movw	r3, #:lower16:-536812928
 486 0008 CEF20003 		movt	r3, #:upper16:-536812928
 487 000c 4FF40032 		mov	r2, #131072
 488 0010 1A60     		str	r2, [r3, #0]
 352:.\Generated_Source\PSoC5/isr_UsbSuspend.c **** }
 489              		.loc 1 352 0
 490 0012 BD46     		mov	sp, r7
 491 0014 80BC     		pop	{r7}
 492 0016 7047     		bx	lr
 493              		.cfi_endproc
 494              	.LFE41:
 495              		.size	isr_UsbSuspend_ClearPending, .-isr_UsbSuspend_ClearPending
 496              		.text
 497              	.Letext0: