ARM GAS  C:\DOCUME~1\ADMINI~1\LOCALS~1\Temp\ccuIKdub.s 			page 1


   1              		.syntax unified
   2              		.cpu cortex-m3
   3              		.fpu softvfp
   4              		.eabi_attribute 20, 1
   5              		.eabi_attribute 21, 1
   6              		.eabi_attribute 23, 3
   7              		.eabi_attribute 24, 1
   8              		.eabi_attribute 25, 1
   9              		.eabi_attribute 26, 1
  10              		.eabi_attribute 30, 6
  11              		.eabi_attribute 18, 4
  12              		.thumb
  13              		.file	"power.c"
  20 0000 24010000 		.text
  20      02006200 
  20      00000201 
  20      FB0E0D00 
  20      01010101 
  21              	.Ltext0:
  22              		.cfi_sections	.debug_frame
  23              		.global	checkActivityFlag
  24              		.bss
  25              		.type	checkActivityFlag, %object
  26              		.size	checkActivityFlag, 1
  27              	checkActivityFlag:
  28 0000 00       		.space	1
  29              		.global	range
  30              		.data
  31              		.type	range, %object
  32              		.size	range, 1
  33              	range:
  34 0000 01       		.byte	1
  35              		.global	result
  36              		.bss
  37 0001 00       		.align	1
  38              		.type	result, %object
  39              		.size	result, 2
  40              	result:
  41 0002 0000     		.space	2
  42              		.section	.text.VoltageMonitorInit,"ax",%progbits
  43              		.align	2
  44              		.global	VoltageMonitorInit
  45              		.thumb
  46              		.thumb_func
  47              		.type	VoltageMonitorInit, %function
  48              	VoltageMonitorInit:
  49              	.LFB29:
  50              		.file 1 ".\\power.c"
   1:.\power.c     **** /*****************************************************************************
   2:.\power.c     **** * File Name: power.c
   3:.\power.c     **** * 
ARM GAS  C:\DOCUME~1\ADMINI~1\LOCALS~1\Temp\ccuIKdub.s 			page 2


   4:.\power.c     **** * Version 2.03
   5:.\power.c     **** *
   6:.\power.c     **** * Description:
   7:.\power.c     **** *  This file provides the source code to handle the power routines for PSoC 5LP.
   8:.\power.c     **** *
   9:.\power.c     **** * Owner:
  10:.\power.c     **** *	Ranjith M, Applications Engineer (rnjt@cypress.com)
  11:.\power.c     **** *
  12:.\power.c     **** * Related Document:
  13:.\power.c     **** * 	001-85925 - CY8CKIT-042 PSoC 4 Pioneer Kit IROS
  14:.\power.c     **** *
  15:.\power.c     **** * Hardware Dependency:
  16:.\power.c     **** * 	CY8CKIT-042 (KitProg) 
  17:.\power.c     **** *
  18:.\power.c     **** * Code Tested With:
  19:.\power.c     **** * 	Creator 2.2
  20:.\power.c     **** *	GCC1 4.4.1
  21:.\power.c     **** *	CY8CKIT-042 Rev 1
  22:.\power.c     **** *
  23:.\power.c     **** ******************************************************************************
  24:.\power.c     **** * Copyright (2013), Cypress Semiconductor Corporation.
  25:.\power.c     **** ******************************************************************************
  26:.\power.c     **** * This software is owned by Cypress Semiconductor Corporation (Cypress) and is
  27:.\power.c     **** * protected by and subject to worldwide patent protection (United States and
  28:.\power.c     **** * foreign), United States copyright laws and international treaty provisions.
  29:.\power.c     **** * Cypress hereby grants to licensee a personal, non-exclusive, non-transferable
  30:.\power.c     **** * license to copy, use, modify, create derivative works of, and compile the
  31:.\power.c     **** * Cypress Source Code and derivative works for the sole purpose of creating
  32:.\power.c     **** * custom software in support of licensee product to be used only in conjunction
  33:.\power.c     **** * with a Cypress integrated circuit as specified in the applicable agreement.
  34:.\power.c     **** * Any reproduction, modification, translation, compilation, or representation of
  35:.\power.c     **** * this software except as specified above is prohibited without the express
  36:.\power.c     **** * written permission of Cypress.
  37:.\power.c     **** *
  38:.\power.c     **** * Disclaimer: CYPRESS MAKES NO WARRANTY OF ANY KIND, EXPRESS OR IMPLIED, WITH
  39:.\power.c     **** * REGARD TO THIS MATERIAL, INCLUDING, BUT NOT LIMITED TO, THE IMPLIED
  40:.\power.c     **** * WARRANTIES OF MERCHANTABILITY AND FITNESS FOR A PARTICULAR PURPOSE.
  41:.\power.c     **** * Cypress reserves the right to make changes without further notice to the
  42:.\power.c     **** * materials described herein. Cypress does not assume any liability arising out
  43:.\power.c     **** * of the application or use of any product or circuit described herein. Cypress
  44:.\power.c     **** * does not authorize its products for use as critical components in life-support
  45:.\power.c     **** * systems where a malfunction or failure may reasonably be expected to result in
  46:.\power.c     **** * significant injury to the user. The inclusion of Cypress' product in a life-
  47:.\power.c     **** * support systems application implies that the manufacturer assumes all risk of
  48:.\power.c     **** * such use and in doing so indemnifies Cypress against all charges. Use may be
  49:.\power.c     **** * limited by and subject to the applicable Cypress software license agreement.
  50:.\power.c     **** *****************************************************************************/
  51:.\power.c     **** 
  52:.\power.c     **** #include "KitProg.h"
  53:.\power.c     **** 
  54:.\power.c     **** /*****************************************************************************
  55:.\power.c     **** * Local Function Prototypes
  56:.\power.c     **** *****************************************************************************/
  57:.\power.c     **** void VoltageMonitorInit(void);
  58:.\power.c     **** uint16 GetVoltage(void);
  59:.\power.c     **** void GetRange(void);
  60:.\power.c     **** uint16 Convert_To_milliVolts(uint16 counts);
ARM GAS  C:\DOCUME~1\ADMINI~1\LOCALS~1\Temp\ccuIKdub.s 			page 3


  61:.\power.c     **** void SendPSoCToSleep(void);
  62:.\power.c     **** void ResumeFromSleep(void);
  63:.\power.c     **** void HandleUSBSuspend(void);
  64:.\power.c     **** 
  65:.\power.c     **** /*****************************************************************************
  66:.\power.c     **** * Global Variable Declarations
  67:.\power.c     **** *****************************************************************************/
  68:.\power.c     **** uint8 checkActivityFlag = FALSE;
  69:.\power.c     **** 
  70:.\power.c     **** /*****************************************************************************
  71:.\power.c     **** * Local Global Variable Declarations
  72:.\power.c     **** *****************************************************************************/
  73:.\power.c     **** uint8 range = RANGE_5V0;
  74:.\power.c     **** uint16 result = 0;
  75:.\power.c     **** /*******************************************************************************
  76:.\power.c     **** * Function Name: VoltageMonitorInit()
  77:.\power.c     **** ********************************************************************************
  78:.\power.c     **** * Summary:
  79:.\power.c     **** * Initialize the ADC for voltage monitoring.
  80:.\power.c     **** *
  81:.\power.c     **** * Parameters:
  82:.\power.c     **** *  void
  83:.\power.c     **** *
  84:.\power.c     **** * Return:
  85:.\power.c     **** *  void
  86:.\power.c     **** *
  87:.\power.c     **** *******************************************************************************/
  88:.\power.c     **** void VoltageMonitorInit(void)
  89:.\power.c     **** {
  51              		.loc 1 89 0
  52              		.cfi_startproc
  53              		@ args = 0, pretend = 0, frame = 0
  54              		@ frame_needed = 1, uses_anonymous_args = 0
  55 0000 80B5     		push	{r7, lr}
  56              	.LCFI0:
  57              		.cfi_def_cfa_offset 8
  58 0002 00AF     		add	r7, sp, #0
  59              		.cfi_offset 14, -4
  60              		.cfi_offset 7, -8
  61              	.LCFI1:
  62              		.cfi_def_cfa_register 7
  90:.\power.c     **** 	ADC_Voltage_Target_Start();
  63              		.loc 1 90 0
  64 0004 FFF7FEFF 		bl	ADC_Voltage_Target_Start
  91:.\power.c     **** 	ADC_Voltage_Target_StartConvert();
  65              		.loc 1 91 0
  66 0008 FFF7FEFF 		bl	ADC_Voltage_Target_StartConvert
  92:.\power.c     **** 	GetRange();
  67              		.loc 1 92 0
  68 000c FFF7FEFF 		bl	GetRange
  93:.\power.c     **** }
  69              		.loc 1 93 0
  70 0010 80BD     		pop	{r7, pc}
  71              		.cfi_endproc
  72              	.LFE29:
  73              		.size	VoltageMonitorInit, .-VoltageMonitorInit
  74 0012 00BF     		.section	.text.GetRange,"ax",%progbits
ARM GAS  C:\DOCUME~1\ADMINI~1\LOCALS~1\Temp\ccuIKdub.s 			page 4


  75              		.align	2
  76              		.global	GetRange
  77              		.thumb
  78              		.thumb_func
  79              		.type	GetRange, %function
  80              	GetRange:
  81              	.LFB30:
  94:.\power.c     **** 
  95:.\power.c     **** /*******************************************************************************
  96:.\power.c     **** * Function Name: CalADC()
  97:.\power.c     **** ********************************************************************************
  98:.\power.c     **** * Summary:
  99:.\power.c     **** * Get the VDD Range.
 100:.\power.c     **** *
 101:.\power.c     **** * Parameters:
 102:.\power.c     **** *  void
 103:.\power.c     **** *
 104:.\power.c     **** * Return:
 105:.\power.c     **** *  void
 106:.\power.c     **** *
 107:.\power.c     **** *******************************************************************************/
 108:.\power.c     **** void GetRange(void)
 109:.\power.c     **** {
  82              		.loc 1 109 0
  83              		.cfi_startproc
  84              		@ args = 0, pretend = 0, frame = 0
  85              		@ frame_needed = 1, uses_anonymous_args = 0
  86 0000 80B5     		push	{r7, lr}
  87              	.LCFI2:
  88              		.cfi_def_cfa_offset 8
  89 0002 00AF     		add	r7, sp, #0
  90              		.cfi_offset 14, -4
  91              		.cfi_offset 7, -8
  92              	.LCFI3:
  93              		.cfi_def_cfa_register 7
 110:.\power.c     **** 	/* Select the known voltage source VRef for the ADC */
 111:.\power.c     **** 	AMux_Select(0);
  94              		.loc 1 111 0
  95 0004 4FF00000 		mov	r0, #0
  96 0008 FFF7FEFF 		bl	AMux_Select
 112:.\power.c     **** 	
 113:.\power.c     **** 	/* Calculate the counts for the known voltage source */
 114:.\power.c     **** 	ADC_Voltage_Target_IsEndConversion(ADC_Voltage_Target_WAIT_FOR_RESULT);
  97              		.loc 1 114 0
  98 000c 4FF00000 		mov	r0, #0
  99 0010 FFF7FEFF 		bl	ADC_Voltage_Target_IsEndConversion
 115:.\power.c     **** 	result = ADC_Voltage_Target_GetResult16();
 100              		.loc 1 115 0
 101 0014 FFF7FEFF 		bl	ADC_Voltage_Target_GetResult16
 102 0018 0346     		mov	r3, r0
 103 001a 9BB2     		uxth	r3, r3
 104 001c 9AB2     		uxth	r2, r3
 105 001e 40F20003 		movw	r3, #:lower16:result
 106 0022 C0F20003 		movt	r3, #:upper16:result
 107 0026 1A80     		strh	r2, [r3, #0]	@ movhi
 116:.\power.c     **** 	
 117:.\power.c     **** 	/* Determine the VDD range based on the count value for known input source */
ARM GAS  C:\DOCUME~1\ADMINI~1\LOCALS~1\Temp\ccuIKdub.s 			page 5


 118:.\power.c     **** 	if(result < THRESHOLD)
 108              		.loc 1 118 0
 109 0028 40F20003 		movw	r3, #:lower16:result
 110 002c C0F20003 		movt	r3, #:upper16:result
 111 0030 1A88     		ldrh	r2, [r3, #0]
 112 0032 40F2E733 		movw	r3, #999
 113 0036 9A42     		cmp	r2, r3
 114 0038 07D8     		bhi	.L4
 119:.\power.c     **** 	{
 120:.\power.c     **** 		range = RANGE_5V0;
 115              		.loc 1 120 0
 116 003a 40F20003 		movw	r3, #:lower16:range
 117 003e C0F20003 		movt	r3, #:upper16:range
 118 0042 4FF00102 		mov	r2, #1
 119 0046 1A70     		strb	r2, [r3, #0]
 120 0048 06E0     		b	.L6
 121              	.L4:
 121:.\power.c     **** 	}
 122:.\power.c     **** 	else
 123:.\power.c     **** 	{
 124:.\power.c     **** 		range = RANGE_3V3;
 122              		.loc 1 124 0
 123 004a 40F20003 		movw	r3, #:lower16:range
 124 004e C0F20003 		movt	r3, #:upper16:range
 125 0052 4FF00002 		mov	r2, #0
 126 0056 1A70     		strb	r2, [r3, #0]
 127              	.L6:
 125:.\power.c     **** 	}
 126:.\power.c     **** }
 128              		.loc 1 126 0
 129 0058 80BD     		pop	{r7, pc}
 130              		.cfi_endproc
 131              	.LFE30:
 132              		.size	GetRange, .-GetRange
 133 005a 00BF     		.section	.text.GetVoltage,"ax",%progbits
 134              		.align	2
 135              		.global	GetVoltage
 136              		.thumb
 137              		.thumb_func
 138              		.type	GetVoltage, %function
 139              	GetVoltage:
 140              	.LFB31:
 127:.\power.c     **** /*******************************************************************************
 128:.\power.c     **** * Function Name: GetVoltage()
 129:.\power.c     **** ********************************************************************************
 130:.\power.c     **** * Summary:
 131:.\power.c     **** * Calculates the VDD of the PSoC 4
 132:.\power.c     **** *
 133:.\power.c     **** * Parameters:
 134:.\power.c     **** *  void
 135:.\power.c     **** *
 136:.\power.c     **** * Return:
 137:.\power.c     **** *  Voltage in millivolts.
 138:.\power.c     **** *
 139:.\power.c     **** *******************************************************************************/
 140:.\power.c     **** uint16 GetVoltage(void)
 141:.\power.c     **** {
ARM GAS  C:\DOCUME~1\ADMINI~1\LOCALS~1\Temp\ccuIKdub.s 			page 6


 141              		.loc 1 141 0
 142              		.cfi_startproc
 143              		@ args = 0, pretend = 0, frame = 8
 144              		@ frame_needed = 1, uses_anonymous_args = 0
 145 0000 80B5     		push	{r7, lr}
 146              	.LCFI4:
 147              		.cfi_def_cfa_offset 8
 148 0002 82B0     		sub	sp, sp, #8
 149              	.LCFI5:
 150              		.cfi_def_cfa_offset 16
 151 0004 00AF     		add	r7, sp, #0
 152              		.cfi_offset 14, -4
 153              		.cfi_offset 7, -8
 154              	.LCFI6:
 155              		.cfi_def_cfa_register 7
 142:.\power.c     **** 	uint16 targetVoltage = ZERO;
 156              		.loc 1 142 0
 157 0006 4FF00003 		mov	r3, #0
 158 000a BB80     		strh	r3, [r7, #4]	@ movhi
 143:.\power.c     **** 	uint16 targetValue;	
 144:.\power.c     **** 	
 145:.\power.c     **** 	/* Seelct the Vtarget input */
 146:.\power.c     **** 	AMux_Select(1);
 159              		.loc 1 146 0
 160 000c 4FF00100 		mov	r0, #1
 161 0010 FFF7FEFF 		bl	AMux_Select
 147:.\power.c     **** 	
 148:.\power.c     **** 	/* Calculate the ADC input value */
 149:.\power.c     **** 	ADC_Voltage_Target_IsEndConversion(ADC_Voltage_Target_WAIT_FOR_RESULT);
 162              		.loc 1 149 0
 163 0014 4FF00000 		mov	r0, #0
 164 0018 FFF7FEFF 		bl	ADC_Voltage_Target_IsEndConversion
 150:.\power.c     **** 	targetValue = ADC_Voltage_Target_GetResult16();
 165              		.loc 1 150 0
 166 001c FFF7FEFF 		bl	ADC_Voltage_Target_GetResult16
 167 0020 0346     		mov	r3, r0
 168 0022 9BB2     		uxth	r3, r3
 169 0024 FB80     		strh	r3, [r7, #6]	@ movhi
 151:.\power.c     **** 	
 152:.\power.c     **** 	/* Convert to milliVolts */
 153:.\power.c     **** 	targetVoltage = Convert_To_milliVolts(targetValue);
 170              		.loc 1 153 0
 171 0026 FB88     		ldrh	r3, [r7, #6]
 172 0028 1846     		mov	r0, r3
 173 002a FFF7FEFF 		bl	Convert_To_milliVolts
 174 002e 0346     		mov	r3, r0
 175 0030 BB80     		strh	r3, [r7, #4]	@ movhi
 154:.\power.c     **** 	
 155:.\power.c     **** 	/* Account for the resistive divider in the hardware used to sample 
 156:.\power.c     **** 	* the input voltage (1.5K + 3K) */
 157:.\power.c     **** 	targetVoltage = targetVoltage * 3;
 176              		.loc 1 157 0
 177 0032 BB88     		ldrh	r3, [r7, #4]	@ movhi
 178 0034 1A46     		mov	r2, r3	@ movhi
 179 0036 4FEA4202 		lsl	r2, r2, #1
 180 003a 1344     		add	r3, r2, r3
 181 003c BB80     		strh	r3, [r7, #4]	@ movhi
ARM GAS  C:\DOCUME~1\ADMINI~1\LOCALS~1\Temp\ccuIKdub.s 			page 7


 158:.\power.c     **** 	targetVoltage = targetVoltage/2;
 182              		.loc 1 158 0
 183 003e BB88     		ldrh	r3, [r7, #4]
 184 0040 4FEA5303 		lsr	r3, r3, #1
 185 0044 BB80     		strh	r3, [r7, #4]	@ movhi
 159:.\power.c     **** 	
 160:.\power.c     **** 	return(targetVoltage);
 186              		.loc 1 160 0
 187 0046 BB88     		ldrh	r3, [r7, #4]
 161:.\power.c     **** }
 188              		.loc 1 161 0
 189 0048 1846     		mov	r0, r3
 190 004a 07F10807 		add	r7, r7, #8
 191 004e BD46     		mov	sp, r7
 192 0050 80BD     		pop	{r7, pc}
 193              		.cfi_endproc
 194              	.LFE31:
 195              		.size	GetVoltage, .-GetVoltage
 196 0052 00BF     		.section	.text.Convert_To_milliVolts,"ax",%progbits
 197              		.align	2
 198              		.global	Convert_To_milliVolts
 199              		.thumb
 200              		.thumb_func
 201              		.type	Convert_To_milliVolts, %function
 202              	Convert_To_milliVolts:
 203              	.LFB32:
 162:.\power.c     **** /*******************************************************************************
 163:.\power.c     **** * Function Name: Convert_To_milliVolts()
 164:.\power.c     **** ********************************************************************************
 165:.\power.c     **** * Summary:
 166:.\power.c     **** * Converts the ADC output counts to millivolts. Calcultaion is: 
 167:.\power.c     **** * mV = (counts*5000)/(2^12) or (counts*3300)/(2^12) depending on the voltage range.
 168:.\power.c     **** *
 169:.\power.c     **** * Parameters:
 170:.\power.c     **** *  counts: ADC 12-bit count value
 171:.\power.c     **** *
 172:.\power.c     **** * Return:
 173:.\power.c     **** *  Voltage in millivolts.
 174:.\power.c     **** *
 175:.\power.c     **** *******************************************************************************/
 176:.\power.c     **** uint16 Convert_To_milliVolts(uint16 counts)
 177:.\power.c     **** {
 204              		.loc 1 177 0
 205              		.cfi_startproc
 206              		@ args = 0, pretend = 0, frame = 16
 207              		@ frame_needed = 1, uses_anonymous_args = 0
 208              		@ link register save eliminated.
 209 0000 80B4     		push	{r7}
 210              	.LCFI7:
 211              		.cfi_def_cfa_offset 4
 212 0002 85B0     		sub	sp, sp, #20
 213              	.LCFI8:
 214              		.cfi_def_cfa_offset 24
 215 0004 00AF     		add	r7, sp, #0
 216              		.cfi_offset 7, -4
 217              	.LCFI9:
 218              		.cfi_def_cfa_register 7
ARM GAS  C:\DOCUME~1\ADMINI~1\LOCALS~1\Temp\ccuIKdub.s 			page 8


 219 0006 0346     		mov	r3, r0
 220 0008 FB80     		strh	r3, [r7, #6]	@ movhi
 178:.\power.c     **** 	uint16 voltage = ZERO;
 221              		.loc 1 178 0
 222 000a 4FF00003 		mov	r3, #0
 223 000e 7B81     		strh	r3, [r7, #10]	@ movhi
 179:.\power.c     **** 	uint32 intermediate = ZERO;
 224              		.loc 1 179 0
 225 0010 4FF00003 		mov	r3, #0
 226 0014 FB60     		str	r3, [r7, #12]
 180:.\power.c     **** 	
 181:.\power.c     **** 	/*Convert to millivolts based on the input voltage range */
 182:.\power.c     **** 	if(range == RANGE_5V0)
 227              		.loc 1 182 0
 228 0016 40F20003 		movw	r3, #:lower16:range
 229 001a C0F20003 		movt	r3, #:upper16:range
 230 001e 1B78     		ldrb	r3, [r3, #0]	@ zero_extendqisi2
 231 0020 012B     		cmp	r3, #1
 232 0022 06D1     		bne	.L10
 183:.\power.c     **** 	{
 184:.\power.c     **** 		intermediate = counts * FIVE_VOLT_MULTIPLIER;
 233              		.loc 1 184 0
 234 0024 FB88     		ldrh	r3, [r7, #6]
 235 0026 41F28832 		movw	r2, #5000
 236 002a 02FB03F3 		mul	r3, r2, r3
 237 002e FB60     		str	r3, [r7, #12]
 238 0030 05E0     		b	.L11
 239              	.L10:
 185:.\power.c     **** 	}
 186:.\power.c     **** 	else
 187:.\power.c     **** 	{
 188:.\power.c     **** 		intermediate = counts * THREE_VOLT_MULTIPLIER;
 240              		.loc 1 188 0
 241 0032 FB88     		ldrh	r3, [r7, #6]
 242 0034 40F6E442 		movw	r2, #3300
 243 0038 02FB03F3 		mul	r3, r2, r3
 244 003c FB60     		str	r3, [r7, #12]
 245              	.L11:
 189:.\power.c     **** 	}
 190:.\power.c     **** 	intermediate = intermediate/TWELVE_BIT_DIVIDER;
 246              		.loc 1 190 0
 247 003e FB68     		ldr	r3, [r7, #12]
 248 0040 4FEA1333 		lsr	r3, r3, #12
 249 0044 FB60     		str	r3, [r7, #12]
 191:.\power.c     **** 	
 192:.\power.c     **** 	/* Convert to 16-bit value */
 193:.\power.c     **** 	voltage = (uint16)intermediate;	
 250              		.loc 1 193 0
 251 0046 FB68     		ldr	r3, [r7, #12]
 252 0048 7B81     		strh	r3, [r7, #10]	@ movhi
 194:.\power.c     **** 	
 195:.\power.c     **** 	return(voltage);
 253              		.loc 1 195 0
 254 004a 7B89     		ldrh	r3, [r7, #10]
 196:.\power.c     **** }
 255              		.loc 1 196 0
 256 004c 1846     		mov	r0, r3
ARM GAS  C:\DOCUME~1\ADMINI~1\LOCALS~1\Temp\ccuIKdub.s 			page 9


 257 004e 07F11407 		add	r7, r7, #20
 258 0052 BD46     		mov	sp, r7
 259 0054 80BC     		pop	{r7}
 260 0056 7047     		bx	lr
 261              		.cfi_endproc
 262              	.LFE32:
 263              		.size	Convert_To_milliVolts, .-Convert_To_milliVolts
 264              		.section	.text.VoltageMonitorStop,"ax",%progbits
 265              		.align	2
 266              		.global	VoltageMonitorStop
 267              		.thumb
 268              		.thumb_func
 269              		.type	VoltageMonitorStop, %function
 270              	VoltageMonitorStop:
 271              	.LFB33:
 197:.\power.c     **** /*******************************************************************************
 198:.\power.c     **** * Function Name: VoltageMonitorStop()
 199:.\power.c     **** ********************************************************************************
 200:.\power.c     **** * Summary:
 201:.\power.c     **** *  Stops the ADC component used for target voltage monitoring.
 202:.\power.c     **** *
 203:.\power.c     **** * Parameters:
 204:.\power.c     **** *  None
 205:.\power.c     **** *
 206:.\power.c     **** * Return:
 207:.\power.c     **** *  None
 208:.\power.c     **** *
 209:.\power.c     **** *******************************************************************************/
 210:.\power.c     **** void VoltageMonitorStop(void)
 211:.\power.c     **** {
 272              		.loc 1 211 0
 273              		.cfi_startproc
 274              		@ args = 0, pretend = 0, frame = 0
 275              		@ frame_needed = 1, uses_anonymous_args = 0
 276 0000 80B5     		push	{r7, lr}
 277              	.LCFI10:
 278              		.cfi_def_cfa_offset 8
 279 0002 00AF     		add	r7, sp, #0
 280              		.cfi_offset 14, -4
 281              		.cfi_offset 7, -8
 282              	.LCFI11:
 283              		.cfi_def_cfa_register 7
 212:.\power.c     **** 	ADC_Voltage_Target_Sleep();
 284              		.loc 1 212 0
 285 0004 FFF7FEFF 		bl	ADC_Voltage_Target_Sleep
 213:.\power.c     **** }
 286              		.loc 1 213 0
 287 0008 80BD     		pop	{r7, pc}
 288              		.cfi_endproc
 289              	.LFE33:
 290              		.size	VoltageMonitorStop, .-VoltageMonitorStop
 291 000a 00BF     		.section	.text.SendPSoCToSleep,"ax",%progbits
 292              		.align	2
 293              		.global	SendPSoCToSleep
 294              		.thumb
 295              		.thumb_func
 296              		.type	SendPSoCToSleep, %function
ARM GAS  C:\DOCUME~1\ADMINI~1\LOCALS~1\Temp\ccuIKdub.s 			page 10


 297              	SendPSoCToSleep:
 298              	.LFB34:
 214:.\power.c     **** /*******************************************************************************
 215:.\power.c     **** * Function Name: SendPSoCToSleep()
 216:.\power.c     **** ********************************************************************************
 217:.\power.c     **** * Summary:
 218:.\power.c     **** *  Prepares the PSoC 5LP device for sleep and puts the device in low power mode.
 219:.\power.c     **** *
 220:.\power.c     **** * Parameters:
 221:.\power.c     **** *  None
 222:.\power.c     **** *
 223:.\power.c     **** * Return:
 224:.\power.c     **** *  None
 225:.\power.c     **** *
 226:.\power.c     **** *******************************************************************************/
 227:.\power.c     **** void SendPSoCToSleep(void)
 228:.\power.c     **** {
 299              		.loc 1 228 0
 300              		.cfi_startproc
 301              		@ args = 0, pretend = 0, frame = 0
 302              		@ frame_needed = 1, uses_anonymous_args = 0
 303 0000 80B5     		push	{r7, lr}
 304              	.LCFI12:
 305              		.cfi_def_cfa_offset 8
 306 0002 00AF     		add	r7, sp, #0
 307              		.cfi_offset 14, -4
 308              		.cfi_offset 7, -8
 309              	.LCFI13:
 310              		.cfi_def_cfa_register 7
 229:.\power.c     **** 	Pin_StatusLED_Write(1);
 311              		.loc 1 229 0
 312 0004 4FF00100 		mov	r0, #1
 313 0008 FFF7FEFF 		bl	Pin_StatusLED_Write
 230:.\power.c     **** 	Timer_UsbSuspend_Stop();	
 314              		.loc 1 230 0
 315 000c FFF7FEFF 		bl	Timer_UsbSuspend_Stop
 231:.\power.c     **** 	UART_Bridge_Stop();
 316              		.loc 1 231 0
 317 0010 FFF7FEFF 		bl	UART_Bridge_Stop
 232:.\power.c     ****     VoltageMonitorStop();
 318              		.loc 1 232 0
 319 0014 FFF7FEFF 		bl	VoltageMonitorStop
 233:.\power.c     **** 	SWDHalt();
 320              		.loc 1 233 0
 321 0018 FFF7FEFF 		bl	SWDHalt
 234:.\power.c     **** 	HostCommStop();
 322              		.loc 1 234 0
 323 001c FFF7FEFF 		bl	HostCommStop
 235:.\power.c     **** 	I2CPullUpDisable();		
 324              		.loc 1 235 0
 325 0020 FFF7FEFF 		bl	I2CPullUpDisable
 236:.\power.c     **** 	CyPmSaveClocks();
 326              		.loc 1 236 0
 327 0024 FFF7FEFF 		bl	CyPmSaveClocks
 237:.\power.c     **** 	CyPmSleep(PM_SLEEP_TIME_NONE, PM_SLEEP_SRC_PICU);	
 328              		.loc 1 237 0
 329 0028 4FF00000 		mov	r0, #0
ARM GAS  C:\DOCUME~1\ADMINI~1\LOCALS~1\Temp\ccuIKdub.s 			page 11


 330 002c 4FF04001 		mov	r1, #64
 331 0030 FFF7FEFF 		bl	CyPmSleep
 238:.\power.c     **** }
 332              		.loc 1 238 0
 333 0034 80BD     		pop	{r7, pc}
 334              		.cfi_endproc
 335              	.LFE34:
 336              		.size	SendPSoCToSleep, .-SendPSoCToSleep
 337              		.section	.text.ResumeFromSleep,"ax",%progbits
 338              		.align	2
 339              		.global	ResumeFromSleep
 340              		.thumb
 341              		.thumb_func
 342              		.type	ResumeFromSleep, %function
 343              	ResumeFromSleep:
 344              	.LFB35:
 239:.\power.c     **** /*******************************************************************************
 240:.\power.c     **** * Function Name: ResumeFromSleep()
 241:.\power.c     **** ********************************************************************************
 242:.\power.c     **** * Summary:
 243:.\power.c     **** *  Restores the configurations of PSoC 5LP after resuming from sleep.
 244:.\power.c     **** *
 245:.\power.c     **** * Parameters:
 246:.\power.c     **** *  None
 247:.\power.c     **** *
 248:.\power.c     **** * Return:
 249:.\power.c     **** *  None
 250:.\power.c     **** *
 251:.\power.c     **** *******************************************************************************/
 252:.\power.c     **** void ResumeFromSleep(void)
 253:.\power.c     **** {
 345              		.loc 1 253 0
 346              		.cfi_startproc
 347              		@ args = 0, pretend = 0, frame = 0
 348              		@ frame_needed = 1, uses_anonymous_args = 0
 349 0000 80B5     		push	{r7, lr}
 350              	.LCFI14:
 351              		.cfi_def_cfa_offset 8
 352 0002 00AF     		add	r7, sp, #0
 353              		.cfi_offset 14, -4
 354              		.cfi_offset 7, -8
 355              	.LCFI15:
 356              		.cfi_def_cfa_register 7
 254:.\power.c     **** 	CyPmRestoreClocks();
 357              		.loc 1 254 0
 358 0004 FFF7FEFF 		bl	CyPmRestoreClocks
 255:.\power.c     **** 	ProgramInit();
 359              		.loc 1 255 0
 360 0008 FFF7FEFF 		bl	ProgramInit
 256:.\power.c     **** 	HostCommInit();
 361              		.loc 1 256 0
 362 000c FFF7FEFF 		bl	HostCommInit
 257:.\power.c     **** 	SWDInit();
 363              		.loc 1 257 0
 364 0010 FFF7FEFF 		bl	SWDInit
 258:.\power.c     **** 	ADC_Voltage_Target_Wakeup();
 365              		.loc 1 258 0
ARM GAS  C:\DOCUME~1\ADMINI~1\LOCALS~1\Temp\ccuIKdub.s 			page 12


 366 0014 FFF7FEFF 		bl	ADC_Voltage_Target_Wakeup
 259:.\power.c     **** 	ADC_Voltage_Target_StartConvert();
 367              		.loc 1 259 0
 368 0018 FFF7FEFF 		bl	ADC_Voltage_Target_StartConvert
 260:.\power.c     **** 	
 261:.\power.c     **** 	/* Initializes USB-UART interface */
 262:.\power.c     ****     USBUARTInit();
 369              		.loc 1 262 0
 370 001c FFF7FEFF 		bl	USBUARTInit
 263:.\power.c     **** 	
 264:.\power.c     **** 	/* Initializes the timer for handling the USBFS Suspend Activity */
 265:.\power.c     **** 	Timer_UsbSuspend_Start();
 371              		.loc 1 265 0
 372 0020 FFF7FEFF 		bl	Timer_UsbSuspend_Start
 266:.\power.c     **** 	bUSBResetDetected = TRUE;
 373              		.loc 1 266 0
 374 0024 40F20003 		movw	r3, #:lower16:bUSBResetDetected
 375 0028 C0F20003 		movt	r3, #:upper16:bUSBResetDetected
 376 002c 4FF00102 		mov	r2, #1
 377 0030 1A70     		strb	r2, [r3, #0]
 267:.\power.c     **** 	Pin_StatusLED_Write(0);
 378              		.loc 1 267 0
 379 0032 4FF00000 		mov	r0, #0
 380 0036 FFF7FEFF 		bl	Pin_StatusLED_Write
 268:.\power.c     **** }
 381              		.loc 1 268 0
 382 003a 80BD     		pop	{r7, pc}
 383              		.cfi_endproc
 384              	.LFE35:
 385              		.size	ResumeFromSleep, .-ResumeFromSleep
 386              		.section	.text.HandleUSBSuspend,"ax",%progbits
 387              		.align	2
 388              		.global	HandleUSBSuspend
 389              		.thumb
 390              		.thumb_func
 391              		.type	HandleUSBSuspend, %function
 392              	HandleUSBSuspend:
 393              	.LFB36:
 269:.\power.c     **** /*******************************************************************************
 270:.\power.c     **** * Function Name: HandleUSBSuspend()
 271:.\power.c     **** ********************************************************************************
 272:.\power.c     **** * Summary:
 273:.\power.c     **** * 	Handles the USB suspend Event
 274:.\power.c     **** *
 275:.\power.c     **** * Parameters:
 276:.\power.c     **** *  None
 277:.\power.c     **** *
 278:.\power.c     **** * Return:
 279:.\power.c     **** *  None
 280:.\power.c     **** *
 281:.\power.c     **** *******************************************************************************/
 282:.\power.c     **** void HandleUSBSuspend(void)
 283:.\power.c     **** {
 394              		.loc 1 283 0
 395              		.cfi_startproc
 396              		@ args = 0, pretend = 0, frame = 0
 397              		@ frame_needed = 1, uses_anonymous_args = 0
ARM GAS  C:\DOCUME~1\ADMINI~1\LOCALS~1\Temp\ccuIKdub.s 			page 13


 398 0000 80B5     		push	{r7, lr}
 399              	.LCFI16:
 400              		.cfi_def_cfa_offset 8
 401 0002 00AF     		add	r7, sp, #0
 402              		.cfi_offset 14, -4
 403              		.cfi_offset 7, -8
 404              	.LCFI17:
 405              		.cfi_def_cfa_register 7
 284:.\power.c     **** 	if(checkActivityFlag == TRUE)
 406              		.loc 1 284 0
 407 0004 40F20003 		movw	r3, #:lower16:checkActivityFlag
 408 0008 C0F20003 		movt	r3, #:upper16:checkActivityFlag
 409 000c 1B78     		ldrb	r3, [r3, #0]	@ zero_extendqisi2
 410 000e 012B     		cmp	r3, #1
 411 0010 13D1     		bne	.L22
 285:.\power.c     **** 	{	
 286:.\power.c     **** 		if(USBFS_CheckActivity() == 0)
 412              		.loc 1 286 0
 413 0012 FFF7FEFF 		bl	USBFS_CheckActivity
 414 0016 0346     		mov	r3, r0
 415 0018 002B     		cmp	r3, #0
 416 001a 07D1     		bne	.L21
 287:.\power.c     **** 		{
 288:.\power.c     **** 
 289:.\power.c     **** 			USBFS_Suspend();
 417              		.loc 1 289 0
 418 001c FFF7FEFF 		bl	USBFS_Suspend
 290:.\power.c     **** 			SendPSoCToSleep();
 419              		.loc 1 290 0
 420 0020 FFF7FEFF 		bl	SendPSoCToSleep
 291:.\power.c     **** 			ResumeFromSleep();
 421              		.loc 1 291 0
 422 0024 FFF7FEFF 		bl	ResumeFromSleep
 292:.\power.c     **** 			USBFS_Resume();
 423              		.loc 1 292 0
 424 0028 FFF7FEFF 		bl	USBFS_Resume
 425              	.L21:
 293:.\power.c     **** 		}
 294:.\power.c     **** 		else
 295:.\power.c     **** 		{
 296:.\power.c     **** 			/* Do nothing */
 297:.\power.c     **** 		}
 298:.\power.c     **** 		checkActivityFlag = FALSE;
 426              		.loc 1 298 0
 427 002c 40F20003 		movw	r3, #:lower16:checkActivityFlag
 428 0030 C0F20003 		movt	r3, #:upper16:checkActivityFlag
 429 0034 4FF00002 		mov	r2, #0
 430 0038 1A70     		strb	r2, [r3, #0]
 431              	.L22:
 299:.\power.c     **** 	}
 300:.\power.c     **** }
 432              		.loc 1 300 0
 433 003a 80BD     		pop	{r7, pc}
 434              		.cfi_endproc
 435              	.LFE36:
 436              		.size	HandleUSBSuspend, .-HandleUSBSuspend
 437              		.text
ARM GAS  C:\DOCUME~1\ADMINI~1\LOCALS~1\Temp\ccuIKdub.s 			page 14


 438              	.Letext0: