ARM GAS  C:\DOCUME~1\ADMINI~1\LOCALS~1\Temp\ccTmPqfn.s 			page 1


   1              		.syntax unified
   2              		.cpu cortex-m3
   3              		.fpu softvfp
   4              		.eabi_attribute 20, 1
   5              		.eabi_attribute 21, 1
   6              		.eabi_attribute 23, 3
   7              		.eabi_attribute 24, 1
   8              		.eabi_attribute 25, 1
   9              		.eabi_attribute 26, 1
  10              		.eabi_attribute 30, 6
  11              		.eabi_attribute 18, 4
  12              		.thumb
  13              		.file	"UART_Bridge.c"
  14              		.section	.debug_abbrev,"",%progbits
  15              	.Ldebug_abbrev0:
  16              		.section	.debug_info,"",%progbits
  17              	.Ldebug_info0:
  18              		.section	.debug_line,"",%progbits
  19              	.Ldebug_line0:
  20 0000 5F030000 		.text
  20      02006400 
  20      00000201 
  20      FB0E0D00 
  20      01010101 
  21              	.Ltext0:
  22              		.cfi_sections	.debug_frame
  23              		.global	UART_Bridge_initVar
  24              		.bss
  25              		.type	UART_Bridge_initVar, %object
  26              		.size	UART_Bridge_initVar, 1
  27              	UART_Bridge_initVar:
  28 0000 00       		.space	1
  29              		.comm	UART_Bridge_txBuffer,128,4
  30              		.global	UART_Bridge_txBufferRead
  31              		.type	UART_Bridge_txBufferRead, %object
  32              		.size	UART_Bridge_txBufferRead, 1
  33              	UART_Bridge_txBufferRead:
  34 0001 00       		.space	1
  35              		.global	UART_Bridge_txBufferWrite
  36              		.type	UART_Bridge_txBufferWrite, %object
  37              		.size	UART_Bridge_txBufferWrite, 1
  38              	UART_Bridge_txBufferWrite:
  39 0002 00       		.space	1
  40              		.comm	UART_Bridge_rxBuffer,128,4
  41              		.global	UART_Bridge_rxBufferRead
  42              		.type	UART_Bridge_rxBufferRead, %object
  43              		.size	UART_Bridge_rxBufferRead, 1
  44              	UART_Bridge_rxBufferRead:
  45 0003 00       		.space	1
  46              		.global	UART_Bridge_rxBufferWrite
  47              		.type	UART_Bridge_rxBufferWrite, %object
  48              		.size	UART_Bridge_rxBufferWrite, 1
  49              	UART_Bridge_rxBufferWrite:
  50 0004 00       		.space	1
  51              		.global	UART_Bridge_rxBufferLoopDetect
  52              		.type	UART_Bridge_rxBufferLoopDetect, %object
  53              		.size	UART_Bridge_rxBufferLoopDetect, 1
ARM GAS  C:\DOCUME~1\ADMINI~1\LOCALS~1\Temp\ccTmPqfn.s 			page 2


  54              	UART_Bridge_rxBufferLoopDetect:
  55 0005 00       		.space	1
  56              		.global	UART_Bridge_rxBufferOverflow
  57              		.type	UART_Bridge_rxBufferOverflow, %object
  58              		.size	UART_Bridge_rxBufferOverflow, 1
  59              	UART_Bridge_rxBufferOverflow:
  60 0006 00       		.space	1
  61              		.section	.text.UART_Bridge_Start,"ax",%progbits
  62              		.align	2
  63              		.global	UART_Bridge_Start
  64              		.thumb
  65              		.thumb_func
  66              		.type	UART_Bridge_Start, %function
  67              	UART_Bridge_Start:
  68              	.LFB0:
  69              		.file 1 ".\\Generated_Source\\PSoC5\\UART_Bridge.c"
   1:.\Generated_Source\PSoC5/UART_Bridge.c **** /*******************************************************************************
   2:.\Generated_Source\PSoC5/UART_Bridge.c **** * File Name: UART_Bridge.c
   3:.\Generated_Source\PSoC5/UART_Bridge.c **** * Version 2.30
   4:.\Generated_Source\PSoC5/UART_Bridge.c **** *
   5:.\Generated_Source\PSoC5/UART_Bridge.c **** * Description:
   6:.\Generated_Source\PSoC5/UART_Bridge.c **** *  This file provides all API functionality of the UART component
   7:.\Generated_Source\PSoC5/UART_Bridge.c **** *
   8:.\Generated_Source\PSoC5/UART_Bridge.c **** * Note:
   9:.\Generated_Source\PSoC5/UART_Bridge.c **** *
  10:.\Generated_Source\PSoC5/UART_Bridge.c **** ********************************************************************************
  11:.\Generated_Source\PSoC5/UART_Bridge.c **** * Copyright 2008-2012, Cypress Semiconductor Corporation.  All rights reserved.
  12:.\Generated_Source\PSoC5/UART_Bridge.c **** * You may use this file only in accordance with the license, terms, conditions,
  13:.\Generated_Source\PSoC5/UART_Bridge.c **** * disclaimers, and limitations in the end user license agreement accompanying
  14:.\Generated_Source\PSoC5/UART_Bridge.c **** * the software package with which this file was provided.
  15:.\Generated_Source\PSoC5/UART_Bridge.c **** *******************************************************************************/
  16:.\Generated_Source\PSoC5/UART_Bridge.c **** 
  17:.\Generated_Source\PSoC5/UART_Bridge.c **** #include "UART_Bridge.h"
  18:.\Generated_Source\PSoC5/UART_Bridge.c **** #include "CyLib.h"
  19:.\Generated_Source\PSoC5/UART_Bridge.c **** #if(UART_Bridge_INTERNAL_CLOCK_USED)
  20:.\Generated_Source\PSoC5/UART_Bridge.c ****     #include "UART_Bridge_IntClock.h"
  21:.\Generated_Source\PSoC5/UART_Bridge.c **** #endif /* End UART_Bridge_INTERNAL_CLOCK_USED */
  22:.\Generated_Source\PSoC5/UART_Bridge.c **** 
  23:.\Generated_Source\PSoC5/UART_Bridge.c **** 
  24:.\Generated_Source\PSoC5/UART_Bridge.c **** /***************************************
  25:.\Generated_Source\PSoC5/UART_Bridge.c **** * Global data allocation
  26:.\Generated_Source\PSoC5/UART_Bridge.c **** ***************************************/
  27:.\Generated_Source\PSoC5/UART_Bridge.c **** 
  28:.\Generated_Source\PSoC5/UART_Bridge.c **** uint8 UART_Bridge_initVar = 0u;
  29:.\Generated_Source\PSoC5/UART_Bridge.c **** #if( UART_Bridge_TX_ENABLED && (UART_Bridge_TXBUFFERSIZE > UART_Bridge_FIFO_LENGTH))
  30:.\Generated_Source\PSoC5/UART_Bridge.c ****     volatile uint8 UART_Bridge_txBuffer[UART_Bridge_TXBUFFERSIZE];
  31:.\Generated_Source\PSoC5/UART_Bridge.c ****     volatile uint8 UART_Bridge_txBufferRead = 0u;
  32:.\Generated_Source\PSoC5/UART_Bridge.c ****     uint8 UART_Bridge_txBufferWrite = 0u;
  33:.\Generated_Source\PSoC5/UART_Bridge.c **** #endif /* End UART_Bridge_TX_ENABLED */
  34:.\Generated_Source\PSoC5/UART_Bridge.c **** #if( ( UART_Bridge_RX_ENABLED || UART_Bridge_HD_ENABLED ) && \
  35:.\Generated_Source\PSoC5/UART_Bridge.c ****      (UART_Bridge_RXBUFFERSIZE > UART_Bridge_FIFO_LENGTH) )
  36:.\Generated_Source\PSoC5/UART_Bridge.c ****     volatile uint8 UART_Bridge_rxBuffer[UART_Bridge_RXBUFFERSIZE];
  37:.\Generated_Source\PSoC5/UART_Bridge.c ****     volatile uint8 UART_Bridge_rxBufferRead = 0u;
  38:.\Generated_Source\PSoC5/UART_Bridge.c ****     volatile uint8 UART_Bridge_rxBufferWrite = 0u;
  39:.\Generated_Source\PSoC5/UART_Bridge.c ****     volatile uint8 UART_Bridge_rxBufferLoopDetect = 0u;
  40:.\Generated_Source\PSoC5/UART_Bridge.c ****     volatile uint8 UART_Bridge_rxBufferOverflow = 0u;
  41:.\Generated_Source\PSoC5/UART_Bridge.c ****     #if (UART_Bridge_RXHW_ADDRESS_ENABLED)
ARM GAS  C:\DOCUME~1\ADMINI~1\LOCALS~1\Temp\ccTmPqfn.s 			page 3


  42:.\Generated_Source\PSoC5/UART_Bridge.c ****         volatile uint8 UART_Bridge_rxAddressMode = UART_Bridge_RXADDRESSMODE;
  43:.\Generated_Source\PSoC5/UART_Bridge.c ****         volatile uint8 UART_Bridge_rxAddressDetected = 0u;
  44:.\Generated_Source\PSoC5/UART_Bridge.c ****     #endif /* End EnableHWAddress */
  45:.\Generated_Source\PSoC5/UART_Bridge.c **** #endif /* End UART_Bridge_RX_ENABLED */
  46:.\Generated_Source\PSoC5/UART_Bridge.c **** 
  47:.\Generated_Source\PSoC5/UART_Bridge.c **** 
  48:.\Generated_Source\PSoC5/UART_Bridge.c **** /*******************************************************************************
  49:.\Generated_Source\PSoC5/UART_Bridge.c **** * Function Name: UART_Bridge_Start
  50:.\Generated_Source\PSoC5/UART_Bridge.c **** ********************************************************************************
  51:.\Generated_Source\PSoC5/UART_Bridge.c **** *
  52:.\Generated_Source\PSoC5/UART_Bridge.c **** * Summary:
  53:.\Generated_Source\PSoC5/UART_Bridge.c **** *  Initialize and Enable the UART component.
  54:.\Generated_Source\PSoC5/UART_Bridge.c **** *  Enable the clock input to enable operation.
  55:.\Generated_Source\PSoC5/UART_Bridge.c **** *
  56:.\Generated_Source\PSoC5/UART_Bridge.c **** * Parameters:
  57:.\Generated_Source\PSoC5/UART_Bridge.c **** *  None.
  58:.\Generated_Source\PSoC5/UART_Bridge.c **** *
  59:.\Generated_Source\PSoC5/UART_Bridge.c **** * Return:
  60:.\Generated_Source\PSoC5/UART_Bridge.c **** *  None.
  61:.\Generated_Source\PSoC5/UART_Bridge.c **** *
  62:.\Generated_Source\PSoC5/UART_Bridge.c **** * Global variables:
  63:.\Generated_Source\PSoC5/UART_Bridge.c **** *  The UART_Bridge_intiVar variable is used to indicate initial
  64:.\Generated_Source\PSoC5/UART_Bridge.c **** *  configuration of this component. The variable is initialized to zero (0u)
  65:.\Generated_Source\PSoC5/UART_Bridge.c **** *  and set to one (1u) the first time UART_Start() is called. This allows for
  66:.\Generated_Source\PSoC5/UART_Bridge.c **** *  component initialization without re-initialization in all subsequent calls
  67:.\Generated_Source\PSoC5/UART_Bridge.c **** *  to the UART_Bridge_Start() routine.
  68:.\Generated_Source\PSoC5/UART_Bridge.c **** *
  69:.\Generated_Source\PSoC5/UART_Bridge.c **** * Reentrant:
  70:.\Generated_Source\PSoC5/UART_Bridge.c **** *  No.
  71:.\Generated_Source\PSoC5/UART_Bridge.c **** *
  72:.\Generated_Source\PSoC5/UART_Bridge.c **** *******************************************************************************/
  73:.\Generated_Source\PSoC5/UART_Bridge.c **** void UART_Bridge_Start(void) 
  74:.\Generated_Source\PSoC5/UART_Bridge.c **** {
  70              		.loc 1 74 0
  71              		.cfi_startproc
  72              		@ args = 0, pretend = 0, frame = 0
  73              		@ frame_needed = 1, uses_anonymous_args = 0
  74 0000 80B5     		push	{r7, lr}
  75              	.LCFI0:
  76              		.cfi_def_cfa_offset 8
  77 0002 00AF     		add	r7, sp, #0
  78              		.cfi_offset 14, -4
  79              		.cfi_offset 7, -8
  80              	.LCFI1:
  81              		.cfi_def_cfa_register 7
  75:.\Generated_Source\PSoC5/UART_Bridge.c ****     /* If not Initialized then initialize all required hardware and software */
  76:.\Generated_Source\PSoC5/UART_Bridge.c ****     if(UART_Bridge_initVar == 0u)
  82              		.loc 1 76 0
  83 0004 40F20003 		movw	r3, #:lower16:UART_Bridge_initVar
  84 0008 C0F20003 		movt	r3, #:upper16:UART_Bridge_initVar
  85 000c 1B78     		ldrb	r3, [r3, #0]	@ zero_extendqisi2
  86 000e 002B     		cmp	r3, #0
  87 0010 08D1     		bne	.L2
  77:.\Generated_Source\PSoC5/UART_Bridge.c ****     {
  78:.\Generated_Source\PSoC5/UART_Bridge.c ****         UART_Bridge_Init();
  88              		.loc 1 78 0
  89 0012 FFF7FEFF 		bl	UART_Bridge_Init
ARM GAS  C:\DOCUME~1\ADMINI~1\LOCALS~1\Temp\ccTmPqfn.s 			page 4


  79:.\Generated_Source\PSoC5/UART_Bridge.c ****         UART_Bridge_initVar = 1u;
  90              		.loc 1 79 0
  91 0016 40F20003 		movw	r3, #:lower16:UART_Bridge_initVar
  92 001a C0F20003 		movt	r3, #:upper16:UART_Bridge_initVar
  93 001e 4FF00102 		mov	r2, #1
  94 0022 1A70     		strb	r2, [r3, #0]
  95              	.L2:
  80:.\Generated_Source\PSoC5/UART_Bridge.c ****     }
  81:.\Generated_Source\PSoC5/UART_Bridge.c ****     UART_Bridge_Enable();
  96              		.loc 1 81 0
  97 0024 FFF7FEFF 		bl	UART_Bridge_Enable
  82:.\Generated_Source\PSoC5/UART_Bridge.c **** }
  98              		.loc 1 82 0
  99 0028 80BD     		pop	{r7, pc}
 100              		.cfi_endproc
 101              	.LFE0:
 102              		.size	UART_Bridge_Start, .-UART_Bridge_Start
 103 002a 00BF     		.section	.text.UART_Bridge_Init,"ax",%progbits
 104              		.align	2
 105              		.global	UART_Bridge_Init
 106              		.thumb
 107              		.thumb_func
 108              		.type	UART_Bridge_Init, %function
 109              	UART_Bridge_Init:
 110              	.LFB1:
  83:.\Generated_Source\PSoC5/UART_Bridge.c **** 
  84:.\Generated_Source\PSoC5/UART_Bridge.c **** 
  85:.\Generated_Source\PSoC5/UART_Bridge.c **** /*******************************************************************************
  86:.\Generated_Source\PSoC5/UART_Bridge.c **** * Function Name: UART_Bridge_Init
  87:.\Generated_Source\PSoC5/UART_Bridge.c **** ********************************************************************************
  88:.\Generated_Source\PSoC5/UART_Bridge.c **** *
  89:.\Generated_Source\PSoC5/UART_Bridge.c **** * Summary:
  90:.\Generated_Source\PSoC5/UART_Bridge.c **** *  Initialize component's parameters to the parameters set by user in the
  91:.\Generated_Source\PSoC5/UART_Bridge.c **** *  customizer of the component placed onto schematic. Usually called in
  92:.\Generated_Source\PSoC5/UART_Bridge.c **** *  UART_Bridge_Start().
  93:.\Generated_Source\PSoC5/UART_Bridge.c **** *
  94:.\Generated_Source\PSoC5/UART_Bridge.c **** * Parameters:
  95:.\Generated_Source\PSoC5/UART_Bridge.c **** *  None.
  96:.\Generated_Source\PSoC5/UART_Bridge.c **** *
  97:.\Generated_Source\PSoC5/UART_Bridge.c **** * Return:
  98:.\Generated_Source\PSoC5/UART_Bridge.c **** *  None.
  99:.\Generated_Source\PSoC5/UART_Bridge.c **** *
 100:.\Generated_Source\PSoC5/UART_Bridge.c **** *******************************************************************************/
 101:.\Generated_Source\PSoC5/UART_Bridge.c **** void UART_Bridge_Init(void) 
 102:.\Generated_Source\PSoC5/UART_Bridge.c **** {
 111              		.loc 1 102 0
 112              		.cfi_startproc
 113              		@ args = 0, pretend = 0, frame = 0
 114              		@ frame_needed = 1, uses_anonymous_args = 0
 115 0000 80B5     		push	{r7, lr}
 116              	.LCFI2:
 117              		.cfi_def_cfa_offset 8
 118 0002 00AF     		add	r7, sp, #0
 119              		.cfi_offset 14, -4
 120              		.cfi_offset 7, -8
 121              	.LCFI3:
 122              		.cfi_def_cfa_register 7
ARM GAS  C:\DOCUME~1\ADMINI~1\LOCALS~1\Temp\ccTmPqfn.s 			page 5


 103:.\Generated_Source\PSoC5/UART_Bridge.c ****     #if(UART_Bridge_RX_ENABLED || UART_Bridge_HD_ENABLED)
 104:.\Generated_Source\PSoC5/UART_Bridge.c **** 
 105:.\Generated_Source\PSoC5/UART_Bridge.c ****         #if(UART_Bridge_RX_INTERRUPT_ENABLED && (UART_Bridge_RXBUFFERSIZE > UART_Bridge_FIFO_LENGTH
 106:.\Generated_Source\PSoC5/UART_Bridge.c ****             /* Set the RX Interrupt. */
 107:.\Generated_Source\PSoC5/UART_Bridge.c ****             (void)CyIntSetVector(UART_Bridge_RX_VECT_NUM, &UART_Bridge_RXISR);
 123              		.loc 1 107 0
 124 0004 4FF00100 		mov	r0, #1
 125 0008 40F20001 		movw	r1, #:lower16:UART_Bridge_RXISR
 126 000c C0F20001 		movt	r1, #:upper16:UART_Bridge_RXISR
 127 0010 FFF7FEFF 		bl	CyIntSetVector
 108:.\Generated_Source\PSoC5/UART_Bridge.c ****             CyIntSetPriority(UART_Bridge_RX_VECT_NUM, UART_Bridge_RX_PRIOR_NUM);
 128              		.loc 1 108 0
 129 0014 4FF00100 		mov	r0, #1
 130 0018 4FF00401 		mov	r1, #4
 131 001c FFF7FEFF 		bl	CyIntSetPriority
 109:.\Generated_Source\PSoC5/UART_Bridge.c ****         #endif /* End UART_Bridge_RX_INTERRUPT_ENABLED */
 110:.\Generated_Source\PSoC5/UART_Bridge.c **** 
 111:.\Generated_Source\PSoC5/UART_Bridge.c ****         #if (UART_Bridge_RXHW_ADDRESS_ENABLED)
 112:.\Generated_Source\PSoC5/UART_Bridge.c ****             UART_Bridge_SetRxAddressMode(UART_Bridge_RXAddressMode);
 113:.\Generated_Source\PSoC5/UART_Bridge.c ****             UART_Bridge_SetRxAddress1(UART_Bridge_RXHWADDRESS1);
 114:.\Generated_Source\PSoC5/UART_Bridge.c ****             UART_Bridge_SetRxAddress2(UART_Bridge_RXHWADDRESS2);
 115:.\Generated_Source\PSoC5/UART_Bridge.c ****         #endif /* End UART_Bridge_RXHW_ADDRESS_ENABLED */
 116:.\Generated_Source\PSoC5/UART_Bridge.c **** 
 117:.\Generated_Source\PSoC5/UART_Bridge.c ****         /* Init Count7 period */
 118:.\Generated_Source\PSoC5/UART_Bridge.c ****         UART_Bridge_RXBITCTR_PERIOD_REG = UART_Bridge_RXBITCTR_INIT;
 132              		.loc 1 118 0
 133 0020 46F28553 		movw	r3, #:lower16:1073767813
 134 0024 C4F20003 		movt	r3, #:upper16:1073767813
 135 0028 4FF07202 		mov	r2, #114
 136 002c 1A70     		strb	r2, [r3, #0]
 119:.\Generated_Source\PSoC5/UART_Bridge.c ****         /* Configure the Initial RX interrupt mask */
 120:.\Generated_Source\PSoC5/UART_Bridge.c ****         UART_Bridge_RXSTATUS_MASK_REG  = UART_Bridge_INIT_RX_INTERRUPTS_MASK;
 137              		.loc 1 120 0
 138 002e 46F28543 		movw	r3, #:lower16:1073767557
 139 0032 C4F20003 		movt	r3, #:upper16:1073767557
 140 0036 4FF02002 		mov	r2, #32
 141 003a 1A70     		strb	r2, [r3, #0]
 121:.\Generated_Source\PSoC5/UART_Bridge.c ****     #endif /* End UART_Bridge_RX_ENABLED || UART_Bridge_HD_ENABLED*/
 122:.\Generated_Source\PSoC5/UART_Bridge.c **** 
 123:.\Generated_Source\PSoC5/UART_Bridge.c ****     #if(UART_Bridge_TX_ENABLED)
 124:.\Generated_Source\PSoC5/UART_Bridge.c ****         #if(UART_Bridge_TX_INTERRUPT_ENABLED && (UART_Bridge_TXBUFFERSIZE > UART_Bridge_FIFO_LENGTH
 125:.\Generated_Source\PSoC5/UART_Bridge.c ****             /* Set the TX Interrupt. */
 126:.\Generated_Source\PSoC5/UART_Bridge.c ****             (void)CyIntSetVector(UART_Bridge_TX_VECT_NUM, &UART_Bridge_TXISR);
 142              		.loc 1 126 0
 143 003c 4FF00200 		mov	r0, #2
 144 0040 40F20001 		movw	r1, #:lower16:UART_Bridge_TXISR
 145 0044 C0F20001 		movt	r1, #:upper16:UART_Bridge_TXISR
 146 0048 FFF7FEFF 		bl	CyIntSetVector
 127:.\Generated_Source\PSoC5/UART_Bridge.c ****             CyIntSetPriority(UART_Bridge_TX_VECT_NUM, UART_Bridge_TX_PRIOR_NUM);
 147              		.loc 1 127 0
 148 004c 4FF00200 		mov	r0, #2
 149 0050 4FF00401 		mov	r1, #4
 150 0054 FFF7FEFF 		bl	CyIntSetPriority
 128:.\Generated_Source\PSoC5/UART_Bridge.c ****         #endif /* End UART_Bridge_TX_INTERRUPT_ENABLED */
 129:.\Generated_Source\PSoC5/UART_Bridge.c **** 
 130:.\Generated_Source\PSoC5/UART_Bridge.c ****         /* Write Counter Value for TX Bit Clk Generator*/
 131:.\Generated_Source\PSoC5/UART_Bridge.c ****         #if(UART_Bridge_TXCLKGEN_DP)
ARM GAS  C:\DOCUME~1\ADMINI~1\LOCALS~1\Temp\ccTmPqfn.s 			page 6


 132:.\Generated_Source\PSoC5/UART_Bridge.c ****             UART_Bridge_TXBITCLKGEN_CTR_REG = UART_Bridge_BIT_CENTER;
 151              		.loc 1 132 0
 152 0058 46F22F43 		movw	r3, #:lower16:1073767471
 153 005c C4F20003 		movt	r3, #:upper16:1073767471
 154 0060 4FF00702 		mov	r2, #7
 155 0064 1A70     		strb	r2, [r3, #0]
 133:.\Generated_Source\PSoC5/UART_Bridge.c ****             UART_Bridge_TXBITCLKTX_COMPLETE_REG = (UART_Bridge_NUMBER_OF_DATA_BITS +
 156              		.loc 1 133 0
 157 0066 46F23F43 		movw	r3, #:lower16:1073767487
 158 006a C4F20003 		movt	r3, #:upper16:1073767487
 159 006e 4FF04802 		mov	r2, #72
 160 0072 1A70     		strb	r2, [r3, #0]
 134:.\Generated_Source\PSoC5/UART_Bridge.c ****                         UART_Bridge_NUMBER_OF_START_BIT) * UART_Bridge_OVER_SAMPLE_COUNT;
 135:.\Generated_Source\PSoC5/UART_Bridge.c ****         #else
 136:.\Generated_Source\PSoC5/UART_Bridge.c ****             UART_Bridge_TXBITCTR_PERIOD_REG = ((UART_Bridge_NUMBER_OF_DATA_BITS +
 137:.\Generated_Source\PSoC5/UART_Bridge.c ****                         UART_Bridge_NUMBER_OF_START_BIT) * UART_Bridge_OVER_SAMPLE_8) - 1u;
 138:.\Generated_Source\PSoC5/UART_Bridge.c ****         #endif /* End UART_Bridge_TXCLKGEN_DP */
 139:.\Generated_Source\PSoC5/UART_Bridge.c **** 
 140:.\Generated_Source\PSoC5/UART_Bridge.c ****         /* Configure the Initial TX interrupt mask */
 141:.\Generated_Source\PSoC5/UART_Bridge.c ****         #if(UART_Bridge_TX_INTERRUPT_ENABLED && (UART_Bridge_TXBUFFERSIZE > UART_Bridge_FIFO_LENGTH
 142:.\Generated_Source\PSoC5/UART_Bridge.c ****             UART_Bridge_TXSTATUS_MASK_REG = UART_Bridge_TX_STS_FIFO_EMPTY;
 161              		.loc 1 142 0
 162 0074 46F28E43 		movw	r3, #:lower16:1073767566
 163 0078 C4F20003 		movt	r3, #:upper16:1073767566
 164 007c 4FF00202 		mov	r2, #2
 165 0080 1A70     		strb	r2, [r3, #0]
 143:.\Generated_Source\PSoC5/UART_Bridge.c ****         #else
 144:.\Generated_Source\PSoC5/UART_Bridge.c ****             UART_Bridge_TXSTATUS_MASK_REG = UART_Bridge_INIT_TX_INTERRUPTS_MASK;
 145:.\Generated_Source\PSoC5/UART_Bridge.c ****         #endif /*End UART_Bridge_TX_INTERRUPT_ENABLED*/
 146:.\Generated_Source\PSoC5/UART_Bridge.c **** 
 147:.\Generated_Source\PSoC5/UART_Bridge.c ****     #endif /* End UART_Bridge_TX_ENABLED */
 148:.\Generated_Source\PSoC5/UART_Bridge.c **** 
 149:.\Generated_Source\PSoC5/UART_Bridge.c ****     #if(UART_Bridge_PARITY_TYPE_SW)  /* Write Parity to Control Register */
 150:.\Generated_Source\PSoC5/UART_Bridge.c ****         UART_Bridge_WriteControlRegister( \
 151:.\Generated_Source\PSoC5/UART_Bridge.c ****             (UART_Bridge_ReadControlRegister() & (uint8)~UART_Bridge_CTRL_PARITY_TYPE_MASK) | \
 152:.\Generated_Source\PSoC5/UART_Bridge.c ****             (uint8)(UART_Bridge_PARITY_TYPE << UART_Bridge_CTRL_PARITY_TYPE0_SHIFT) );
 153:.\Generated_Source\PSoC5/UART_Bridge.c ****     #endif /* End UART_Bridge_PARITY_TYPE_SW */
 154:.\Generated_Source\PSoC5/UART_Bridge.c **** }
 166              		.loc 1 154 0
 167 0082 80BD     		pop	{r7, pc}
 168              		.cfi_endproc
 169              	.LFE1:
 170              		.size	UART_Bridge_Init, .-UART_Bridge_Init
 171              		.section	.text.UART_Bridge_Enable,"ax",%progbits
 172              		.align	2
 173              		.global	UART_Bridge_Enable
 174              		.thumb
 175              		.thumb_func
 176              		.type	UART_Bridge_Enable, %function
 177              	UART_Bridge_Enable:
 178              	.LFB2:
 155:.\Generated_Source\PSoC5/UART_Bridge.c **** 
 156:.\Generated_Source\PSoC5/UART_Bridge.c **** 
 157:.\Generated_Source\PSoC5/UART_Bridge.c **** /*******************************************************************************
 158:.\Generated_Source\PSoC5/UART_Bridge.c **** * Function Name: UART_Bridge_Enable
 159:.\Generated_Source\PSoC5/UART_Bridge.c **** ********************************************************************************
 160:.\Generated_Source\PSoC5/UART_Bridge.c **** *
ARM GAS  C:\DOCUME~1\ADMINI~1\LOCALS~1\Temp\ccTmPqfn.s 			page 7


 161:.\Generated_Source\PSoC5/UART_Bridge.c **** * Summary:
 162:.\Generated_Source\PSoC5/UART_Bridge.c **** *  Enables the UART block operation
 163:.\Generated_Source\PSoC5/UART_Bridge.c **** *
 164:.\Generated_Source\PSoC5/UART_Bridge.c **** * Parameters:
 165:.\Generated_Source\PSoC5/UART_Bridge.c **** *  None.
 166:.\Generated_Source\PSoC5/UART_Bridge.c **** *
 167:.\Generated_Source\PSoC5/UART_Bridge.c **** * Return:
 168:.\Generated_Source\PSoC5/UART_Bridge.c **** *  None.
 169:.\Generated_Source\PSoC5/UART_Bridge.c **** *
 170:.\Generated_Source\PSoC5/UART_Bridge.c **** * Global Variables:
 171:.\Generated_Source\PSoC5/UART_Bridge.c **** *  UART_Bridge_rxAddressDetected - set to initial state (0).
 172:.\Generated_Source\PSoC5/UART_Bridge.c **** *
 173:.\Generated_Source\PSoC5/UART_Bridge.c **** *******************************************************************************/
 174:.\Generated_Source\PSoC5/UART_Bridge.c **** void UART_Bridge_Enable(void) 
 175:.\Generated_Source\PSoC5/UART_Bridge.c **** {
 179              		.loc 1 175 0
 180              		.cfi_startproc
 181              		@ args = 0, pretend = 0, frame = 8
 182              		@ frame_needed = 1, uses_anonymous_args = 0
 183 0000 80B5     		push	{r7, lr}
 184              	.LCFI4:
 185              		.cfi_def_cfa_offset 8
 186 0002 82B0     		sub	sp, sp, #8
 187              	.LCFI5:
 188              		.cfi_def_cfa_offset 16
 189 0004 00AF     		add	r7, sp, #0
 190              		.cfi_offset 14, -4
 191              		.cfi_offset 7, -8
 192              	.LCFI6:
 193              		.cfi_def_cfa_register 7
 176:.\Generated_Source\PSoC5/UART_Bridge.c ****     uint8 enableInterrupts;
 177:.\Generated_Source\PSoC5/UART_Bridge.c ****     enableInterrupts = CyEnterCriticalSection();
 194              		.loc 1 177 0
 195 0006 FFF7FEFF 		bl	CyEnterCriticalSection
 196 000a 0346     		mov	r3, r0
 197 000c FB71     		strb	r3, [r7, #7]
 178:.\Generated_Source\PSoC5/UART_Bridge.c **** 
 179:.\Generated_Source\PSoC5/UART_Bridge.c ****     #if(UART_Bridge_RX_ENABLED || UART_Bridge_HD_ENABLED)
 180:.\Generated_Source\PSoC5/UART_Bridge.c ****         /*RX Counter (Count7) Enable */
 181:.\Generated_Source\PSoC5/UART_Bridge.c ****         UART_Bridge_RXBITCTR_CONTROL_REG |= UART_Bridge_CNTR_ENABLE;
 198              		.loc 1 181 0
 199 000e 46F29553 		movw	r3, #:lower16:1073767829
 200 0012 C4F20003 		movt	r3, #:upper16:1073767829
 201 0016 46F29552 		movw	r2, #:lower16:1073767829
 202 001a C4F20002 		movt	r2, #:upper16:1073767829
 203 001e 1278     		ldrb	r2, [r2, #0]
 204 0020 D2B2     		uxtb	r2, r2
 205 0022 42F02002 		orr	r2, r2, #32
 206 0026 D2B2     		uxtb	r2, r2
 207 0028 1A70     		strb	r2, [r3, #0]
 182:.\Generated_Source\PSoC5/UART_Bridge.c ****         /* Enable the RX Interrupt. */
 183:.\Generated_Source\PSoC5/UART_Bridge.c ****         UART_Bridge_RXSTATUS_ACTL_REG  |= UART_Bridge_INT_ENABLE;
 208              		.loc 1 183 0
 209 002a 46F29543 		movw	r3, #:lower16:1073767573
 210 002e C4F20003 		movt	r3, #:upper16:1073767573
 211 0032 46F29542 		movw	r2, #:lower16:1073767573
 212 0036 C4F20002 		movt	r2, #:upper16:1073767573
ARM GAS  C:\DOCUME~1\ADMINI~1\LOCALS~1\Temp\ccTmPqfn.s 			page 8


 213 003a 1278     		ldrb	r2, [r2, #0]
 214 003c D2B2     		uxtb	r2, r2
 215 003e 42F01002 		orr	r2, r2, #16
 216 0042 D2B2     		uxtb	r2, r2
 217 0044 1A70     		strb	r2, [r3, #0]
 184:.\Generated_Source\PSoC5/UART_Bridge.c ****         #if(UART_Bridge_RX_INTERRUPT_ENABLED && (UART_Bridge_RXBUFFERSIZE > UART_Bridge_FIFO_LENGTH
 185:.\Generated_Source\PSoC5/UART_Bridge.c ****             CyIntEnable(UART_Bridge_RX_VECT_NUM);
 218              		.loc 1 185 0
 219 0046 4EF20013 		movw	r3, #:lower16:-536813312
 220 004a CEF20003 		movt	r3, #:upper16:-536813312
 221 004e 4FF00202 		mov	r2, #2
 222 0052 1A60     		str	r2, [r3, #0]
 186:.\Generated_Source\PSoC5/UART_Bridge.c ****             #if (UART_Bridge_RXHW_ADDRESS_ENABLED)
 187:.\Generated_Source\PSoC5/UART_Bridge.c ****                 UART_Bridge_rxAddressDetected = 0u;
 188:.\Generated_Source\PSoC5/UART_Bridge.c ****             #endif /* End UART_Bridge_RXHW_ADDRESS_ENABLED */
 189:.\Generated_Source\PSoC5/UART_Bridge.c ****         #endif /* End UART_Bridge_RX_INTERRUPT_ENABLED */
 190:.\Generated_Source\PSoC5/UART_Bridge.c ****     #endif /* End UART_Bridge_RX_ENABLED || UART_Bridge_HD_ENABLED*/
 191:.\Generated_Source\PSoC5/UART_Bridge.c **** 
 192:.\Generated_Source\PSoC5/UART_Bridge.c ****     #if(UART_Bridge_TX_ENABLED)
 193:.\Generated_Source\PSoC5/UART_Bridge.c ****         /*TX Counter (DP/Count7) Enable */
 194:.\Generated_Source\PSoC5/UART_Bridge.c ****         #if(!UART_Bridge_TXCLKGEN_DP)
 195:.\Generated_Source\PSoC5/UART_Bridge.c ****             UART_Bridge_TXBITCTR_CONTROL_REG |= UART_Bridge_CNTR_ENABLE;
 196:.\Generated_Source\PSoC5/UART_Bridge.c ****         #endif /* End UART_Bridge_TXCLKGEN_DP */
 197:.\Generated_Source\PSoC5/UART_Bridge.c ****         /* Enable the TX Interrupt. */
 198:.\Generated_Source\PSoC5/UART_Bridge.c ****         UART_Bridge_TXSTATUS_ACTL_REG |= UART_Bridge_INT_ENABLE;
 223              		.loc 1 198 0
 224 0054 46F29E43 		movw	r3, #:lower16:1073767582
 225 0058 C4F20003 		movt	r3, #:upper16:1073767582
 226 005c 46F29E42 		movw	r2, #:lower16:1073767582
 227 0060 C4F20002 		movt	r2, #:upper16:1073767582
 228 0064 1278     		ldrb	r2, [r2, #0]
 229 0066 D2B2     		uxtb	r2, r2
 230 0068 42F01002 		orr	r2, r2, #16
 231 006c D2B2     		uxtb	r2, r2
 232 006e 1A70     		strb	r2, [r3, #0]
 199:.\Generated_Source\PSoC5/UART_Bridge.c ****         #if(UART_Bridge_TX_INTERRUPT_ENABLED && (UART_Bridge_TXBUFFERSIZE > UART_Bridge_FIFO_LENGTH
 200:.\Generated_Source\PSoC5/UART_Bridge.c ****             CyIntEnable(UART_Bridge_TX_VECT_NUM);
 233              		.loc 1 200 0
 234 0070 4EF20013 		movw	r3, #:lower16:-536813312
 235 0074 CEF20003 		movt	r3, #:upper16:-536813312
 236 0078 4FF00402 		mov	r2, #4
 237 007c 1A60     		str	r2, [r3, #0]
 201:.\Generated_Source\PSoC5/UART_Bridge.c ****         #endif /* End UART_Bridge_TX_INTERRUPT_ENABLED*/
 202:.\Generated_Source\PSoC5/UART_Bridge.c ****      #endif /* End UART_Bridge_TX_ENABLED */
 203:.\Generated_Source\PSoC5/UART_Bridge.c **** 
 204:.\Generated_Source\PSoC5/UART_Bridge.c ****     #if(UART_Bridge_INTERNAL_CLOCK_USED)
 205:.\Generated_Source\PSoC5/UART_Bridge.c ****         /* Enable the clock. */
 206:.\Generated_Source\PSoC5/UART_Bridge.c ****         UART_Bridge_IntClock_Start();
 207:.\Generated_Source\PSoC5/UART_Bridge.c ****     #endif /* End UART_Bridge_INTERNAL_CLOCK_USED */
 208:.\Generated_Source\PSoC5/UART_Bridge.c **** 
 209:.\Generated_Source\PSoC5/UART_Bridge.c ****     CyExitCriticalSection(enableInterrupts);
 238              		.loc 1 209 0
 239 007e FB79     		ldrb	r3, [r7, #7]	@ zero_extendqisi2
 240 0080 1846     		mov	r0, r3
 241 0082 FFF7FEFF 		bl	CyExitCriticalSection
 210:.\Generated_Source\PSoC5/UART_Bridge.c **** }
 242              		.loc 1 210 0
ARM GAS  C:\DOCUME~1\ADMINI~1\LOCALS~1\Temp\ccTmPqfn.s 			page 9


 243 0086 07F10807 		add	r7, r7, #8
 244 008a BD46     		mov	sp, r7
 245 008c 80BD     		pop	{r7, pc}
 246              		.cfi_endproc
 247              	.LFE2:
 248              		.size	UART_Bridge_Enable, .-UART_Bridge_Enable
 249 008e 00BF     		.section	.text.UART_Bridge_Stop,"ax",%progbits
 250              		.align	2
 251              		.global	UART_Bridge_Stop
 252              		.thumb
 253              		.thumb_func
 254              		.type	UART_Bridge_Stop, %function
 255              	UART_Bridge_Stop:
 256              	.LFB3:
 211:.\Generated_Source\PSoC5/UART_Bridge.c **** 
 212:.\Generated_Source\PSoC5/UART_Bridge.c **** 
 213:.\Generated_Source\PSoC5/UART_Bridge.c **** /*******************************************************************************
 214:.\Generated_Source\PSoC5/UART_Bridge.c **** * Function Name: UART_Bridge_Stop
 215:.\Generated_Source\PSoC5/UART_Bridge.c **** ********************************************************************************
 216:.\Generated_Source\PSoC5/UART_Bridge.c **** *
 217:.\Generated_Source\PSoC5/UART_Bridge.c **** * Summary:
 218:.\Generated_Source\PSoC5/UART_Bridge.c **** *  Disable the UART component
 219:.\Generated_Source\PSoC5/UART_Bridge.c **** *
 220:.\Generated_Source\PSoC5/UART_Bridge.c **** * Parameters:
 221:.\Generated_Source\PSoC5/UART_Bridge.c **** *  None.
 222:.\Generated_Source\PSoC5/UART_Bridge.c **** *
 223:.\Generated_Source\PSoC5/UART_Bridge.c **** * Return:
 224:.\Generated_Source\PSoC5/UART_Bridge.c **** *  None.
 225:.\Generated_Source\PSoC5/UART_Bridge.c **** *
 226:.\Generated_Source\PSoC5/UART_Bridge.c **** *******************************************************************************/
 227:.\Generated_Source\PSoC5/UART_Bridge.c **** void UART_Bridge_Stop(void) 
 228:.\Generated_Source\PSoC5/UART_Bridge.c **** {
 257              		.loc 1 228 0
 258              		.cfi_startproc
 259              		@ args = 0, pretend = 0, frame = 8
 260              		@ frame_needed = 1, uses_anonymous_args = 0
 261 0000 80B5     		push	{r7, lr}
 262              	.LCFI7:
 263              		.cfi_def_cfa_offset 8
 264 0002 82B0     		sub	sp, sp, #8
 265              	.LCFI8:
 266              		.cfi_def_cfa_offset 16
 267 0004 00AF     		add	r7, sp, #0
 268              		.cfi_offset 14, -4
 269              		.cfi_offset 7, -8
 270              	.LCFI9:
 271              		.cfi_def_cfa_register 7
 229:.\Generated_Source\PSoC5/UART_Bridge.c ****     uint8 enableInterrupts;
 230:.\Generated_Source\PSoC5/UART_Bridge.c ****     enableInterrupts = CyEnterCriticalSection();
 272              		.loc 1 230 0
 273 0006 FFF7FEFF 		bl	CyEnterCriticalSection
 274 000a 0346     		mov	r3, r0
 275 000c FB71     		strb	r3, [r7, #7]
 231:.\Generated_Source\PSoC5/UART_Bridge.c **** 
 232:.\Generated_Source\PSoC5/UART_Bridge.c ****     /* Write Bit Counter Disable */
 233:.\Generated_Source\PSoC5/UART_Bridge.c ****     #if(UART_Bridge_RX_ENABLED || UART_Bridge_HD_ENABLED)
 234:.\Generated_Source\PSoC5/UART_Bridge.c ****         UART_Bridge_RXBITCTR_CONTROL_REG &= (uint8)~UART_Bridge_CNTR_ENABLE;
ARM GAS  C:\DOCUME~1\ADMINI~1\LOCALS~1\Temp\ccTmPqfn.s 			page 10


 276              		.loc 1 234 0
 277 000e 46F29553 		movw	r3, #:lower16:1073767829
 278 0012 C4F20003 		movt	r3, #:upper16:1073767829
 279 0016 46F29552 		movw	r2, #:lower16:1073767829
 280 001a C4F20002 		movt	r2, #:upper16:1073767829
 281 001e 1278     		ldrb	r2, [r2, #0]
 282 0020 D2B2     		uxtb	r2, r2
 283 0022 02F0DF02 		and	r2, r2, #223
 284 0026 1A70     		strb	r2, [r3, #0]
 235:.\Generated_Source\PSoC5/UART_Bridge.c ****     #endif /* End UART_Bridge_RX_ENABLED */
 236:.\Generated_Source\PSoC5/UART_Bridge.c **** 
 237:.\Generated_Source\PSoC5/UART_Bridge.c ****     #if(UART_Bridge_TX_ENABLED)
 238:.\Generated_Source\PSoC5/UART_Bridge.c ****         #if(!UART_Bridge_TXCLKGEN_DP)
 239:.\Generated_Source\PSoC5/UART_Bridge.c ****             UART_Bridge_TXBITCTR_CONTROL_REG &= (uint8)~UART_Bridge_CNTR_ENABLE;
 240:.\Generated_Source\PSoC5/UART_Bridge.c ****         #endif /* End UART_Bridge_TXCLKGEN_DP */
 241:.\Generated_Source\PSoC5/UART_Bridge.c ****     #endif /* UART_Bridge_TX_ENABLED */
 242:.\Generated_Source\PSoC5/UART_Bridge.c **** 
 243:.\Generated_Source\PSoC5/UART_Bridge.c ****     #if(UART_Bridge_INTERNAL_CLOCK_USED)
 244:.\Generated_Source\PSoC5/UART_Bridge.c ****         /* Disable the clock. */
 245:.\Generated_Source\PSoC5/UART_Bridge.c ****         UART_Bridge_IntClock_Stop();
 246:.\Generated_Source\PSoC5/UART_Bridge.c ****     #endif /* End UART_Bridge_INTERNAL_CLOCK_USED */
 247:.\Generated_Source\PSoC5/UART_Bridge.c **** 
 248:.\Generated_Source\PSoC5/UART_Bridge.c ****     /* Disable internal interrupt component */
 249:.\Generated_Source\PSoC5/UART_Bridge.c ****     #if(UART_Bridge_RX_ENABLED || UART_Bridge_HD_ENABLED)
 250:.\Generated_Source\PSoC5/UART_Bridge.c ****         UART_Bridge_RXSTATUS_ACTL_REG  &= (uint8)~UART_Bridge_INT_ENABLE;
 285              		.loc 1 250 0
 286 0028 46F29543 		movw	r3, #:lower16:1073767573
 287 002c C4F20003 		movt	r3, #:upper16:1073767573
 288 0030 46F29542 		movw	r2, #:lower16:1073767573
 289 0034 C4F20002 		movt	r2, #:upper16:1073767573
 290 0038 1278     		ldrb	r2, [r2, #0]
 291 003a D2B2     		uxtb	r2, r2
 292 003c 02F0EF02 		and	r2, r2, #239
 293 0040 1A70     		strb	r2, [r3, #0]
 251:.\Generated_Source\PSoC5/UART_Bridge.c ****         #if(UART_Bridge_RX_INTERRUPT_ENABLED && (UART_Bridge_RXBUFFERSIZE > UART_Bridge_FIFO_LENGTH
 252:.\Generated_Source\PSoC5/UART_Bridge.c ****             UART_Bridge_DisableRxInt();
 294              		.loc 1 252 0
 295 0042 FFF7FEFF 		bl	UART_Bridge_DisableRxInt
 253:.\Generated_Source\PSoC5/UART_Bridge.c ****         #endif /* End UART_Bridge_RX_INTERRUPT_ENABLED */
 254:.\Generated_Source\PSoC5/UART_Bridge.c ****     #endif /* End UART_Bridge_RX_ENABLED */
 255:.\Generated_Source\PSoC5/UART_Bridge.c **** 
 256:.\Generated_Source\PSoC5/UART_Bridge.c ****     #if(UART_Bridge_TX_ENABLED)
 257:.\Generated_Source\PSoC5/UART_Bridge.c ****         UART_Bridge_TXSTATUS_ACTL_REG &= (uint8)~UART_Bridge_INT_ENABLE;
 296              		.loc 1 257 0
 297 0046 46F29E43 		movw	r3, #:lower16:1073767582
 298 004a C4F20003 		movt	r3, #:upper16:1073767582
 299 004e 46F29E42 		movw	r2, #:lower16:1073767582
 300 0052 C4F20002 		movt	r2, #:upper16:1073767582
 301 0056 1278     		ldrb	r2, [r2, #0]
 302 0058 D2B2     		uxtb	r2, r2
 303 005a 02F0EF02 		and	r2, r2, #239
 304 005e 1A70     		strb	r2, [r3, #0]
 258:.\Generated_Source\PSoC5/UART_Bridge.c ****         #if(UART_Bridge_TX_INTERRUPT_ENABLED && (UART_Bridge_TXBUFFERSIZE > UART_Bridge_FIFO_LENGTH
 259:.\Generated_Source\PSoC5/UART_Bridge.c ****             UART_Bridge_DisableTxInt();
 305              		.loc 1 259 0
 306 0060 FFF7FEFF 		bl	UART_Bridge_DisableTxInt
 260:.\Generated_Source\PSoC5/UART_Bridge.c ****         #endif /* End UART_Bridge_TX_INTERRUPT_ENABLED */
ARM GAS  C:\DOCUME~1\ADMINI~1\LOCALS~1\Temp\ccTmPqfn.s 			page 11


 261:.\Generated_Source\PSoC5/UART_Bridge.c ****     #endif /* End UART_Bridge_TX_ENABLED */
 262:.\Generated_Source\PSoC5/UART_Bridge.c **** 
 263:.\Generated_Source\PSoC5/UART_Bridge.c ****     CyExitCriticalSection(enableInterrupts);
 307              		.loc 1 263 0
 308 0064 FB79     		ldrb	r3, [r7, #7]	@ zero_extendqisi2
 309 0066 1846     		mov	r0, r3
 310 0068 FFF7FEFF 		bl	CyExitCriticalSection
 264:.\Generated_Source\PSoC5/UART_Bridge.c **** }
 311              		.loc 1 264 0
 312 006c 07F10807 		add	r7, r7, #8
 313 0070 BD46     		mov	sp, r7
 314 0072 80BD     		pop	{r7, pc}
 315              		.cfi_endproc
 316              	.LFE3:
 317              		.size	UART_Bridge_Stop, .-UART_Bridge_Stop
 318              		.section	.text.UART_Bridge_ReadControlRegister,"ax",%progbits
 319              		.align	2
 320              		.global	UART_Bridge_ReadControlRegister
 321              		.thumb
 322              		.thumb_func
 323              		.type	UART_Bridge_ReadControlRegister, %function
 324              	UART_Bridge_ReadControlRegister:
 325              	.LFB4:
 265:.\Generated_Source\PSoC5/UART_Bridge.c **** 
 266:.\Generated_Source\PSoC5/UART_Bridge.c **** 
 267:.\Generated_Source\PSoC5/UART_Bridge.c **** /*******************************************************************************
 268:.\Generated_Source\PSoC5/UART_Bridge.c **** * Function Name: UART_Bridge_ReadControlRegister
 269:.\Generated_Source\PSoC5/UART_Bridge.c **** ********************************************************************************
 270:.\Generated_Source\PSoC5/UART_Bridge.c **** *
 271:.\Generated_Source\PSoC5/UART_Bridge.c **** * Summary:
 272:.\Generated_Source\PSoC5/UART_Bridge.c **** *  Read the current state of the control register
 273:.\Generated_Source\PSoC5/UART_Bridge.c **** *
 274:.\Generated_Source\PSoC5/UART_Bridge.c **** * Parameters:
 275:.\Generated_Source\PSoC5/UART_Bridge.c **** *  None.
 276:.\Generated_Source\PSoC5/UART_Bridge.c **** *
 277:.\Generated_Source\PSoC5/UART_Bridge.c **** * Return:
 278:.\Generated_Source\PSoC5/UART_Bridge.c **** *  Current state of the control register.
 279:.\Generated_Source\PSoC5/UART_Bridge.c **** *
 280:.\Generated_Source\PSoC5/UART_Bridge.c **** *******************************************************************************/
 281:.\Generated_Source\PSoC5/UART_Bridge.c **** uint8 UART_Bridge_ReadControlRegister(void) 
 282:.\Generated_Source\PSoC5/UART_Bridge.c **** {
 326              		.loc 1 282 0
 327              		.cfi_startproc
 328              		@ args = 0, pretend = 0, frame = 0
 329              		@ frame_needed = 1, uses_anonymous_args = 0
 330              		@ link register save eliminated.
 331 0000 80B4     		push	{r7}
 332              	.LCFI10:
 333              		.cfi_def_cfa_offset 4
 334 0002 00AF     		add	r7, sp, #0
 335              		.cfi_offset 7, -4
 336              	.LCFI11:
 337              		.cfi_def_cfa_register 7
 283:.\Generated_Source\PSoC5/UART_Bridge.c ****     #if( UART_Bridge_CONTROL_REG_REMOVED )
 284:.\Generated_Source\PSoC5/UART_Bridge.c ****         return(0u);
 338              		.loc 1 284 0
 339 0004 4FF00003 		mov	r3, #0
ARM GAS  C:\DOCUME~1\ADMINI~1\LOCALS~1\Temp\ccTmPqfn.s 			page 12


 285:.\Generated_Source\PSoC5/UART_Bridge.c ****     #else
 286:.\Generated_Source\PSoC5/UART_Bridge.c ****         return(UART_Bridge_CONTROL_REG);
 287:.\Generated_Source\PSoC5/UART_Bridge.c ****     #endif /* End UART_Bridge_CONTROL_REG_REMOVED */
 288:.\Generated_Source\PSoC5/UART_Bridge.c **** }
 340              		.loc 1 288 0
 341 0008 1846     		mov	r0, r3
 342 000a BD46     		mov	sp, r7
 343 000c 80BC     		pop	{r7}
 344 000e 7047     		bx	lr
 345              		.cfi_endproc
 346              	.LFE4:
 347              		.size	UART_Bridge_ReadControlRegister, .-UART_Bridge_ReadControlRegister
 348              		.section	.text.UART_Bridge_WriteControlRegister,"ax",%progbits
 349              		.align	2
 350              		.global	UART_Bridge_WriteControlRegister
 351              		.thumb
 352              		.thumb_func
 353              		.type	UART_Bridge_WriteControlRegister, %function
 354              	UART_Bridge_WriteControlRegister:
 355              	.LFB5:
 289:.\Generated_Source\PSoC5/UART_Bridge.c **** 
 290:.\Generated_Source\PSoC5/UART_Bridge.c **** 
 291:.\Generated_Source\PSoC5/UART_Bridge.c **** /*******************************************************************************
 292:.\Generated_Source\PSoC5/UART_Bridge.c **** * Function Name: UART_Bridge_WriteControlRegister
 293:.\Generated_Source\PSoC5/UART_Bridge.c **** ********************************************************************************
 294:.\Generated_Source\PSoC5/UART_Bridge.c **** *
 295:.\Generated_Source\PSoC5/UART_Bridge.c **** * Summary:
 296:.\Generated_Source\PSoC5/UART_Bridge.c **** *  Writes an 8-bit value into the control register
 297:.\Generated_Source\PSoC5/UART_Bridge.c **** *
 298:.\Generated_Source\PSoC5/UART_Bridge.c **** * Parameters:
 299:.\Generated_Source\PSoC5/UART_Bridge.c **** *  control:  control register value
 300:.\Generated_Source\PSoC5/UART_Bridge.c **** *
 301:.\Generated_Source\PSoC5/UART_Bridge.c **** * Return:
 302:.\Generated_Source\PSoC5/UART_Bridge.c **** *  None.
 303:.\Generated_Source\PSoC5/UART_Bridge.c **** *
 304:.\Generated_Source\PSoC5/UART_Bridge.c **** *******************************************************************************/
 305:.\Generated_Source\PSoC5/UART_Bridge.c **** void  UART_Bridge_WriteControlRegister(uint8 control) 
 306:.\Generated_Source\PSoC5/UART_Bridge.c **** {
 356              		.loc 1 306 0
 357              		.cfi_startproc
 358              		@ args = 0, pretend = 0, frame = 8
 359              		@ frame_needed = 1, uses_anonymous_args = 0
 360              		@ link register save eliminated.
 361 0000 80B4     		push	{r7}
 362              	.LCFI12:
 363              		.cfi_def_cfa_offset 4
 364 0002 83B0     		sub	sp, sp, #12
 365              	.LCFI13:
 366              		.cfi_def_cfa_offset 16
 367 0004 00AF     		add	r7, sp, #0
 368              		.cfi_offset 7, -4
 369              	.LCFI14:
 370              		.cfi_def_cfa_register 7
 371 0006 0346     		mov	r3, r0
 372 0008 FB71     		strb	r3, [r7, #7]
 307:.\Generated_Source\PSoC5/UART_Bridge.c ****     #if( UART_Bridge_CONTROL_REG_REMOVED )
 308:.\Generated_Source\PSoC5/UART_Bridge.c ****         if(control != 0u) { }      /* release compiler warning */
ARM GAS  C:\DOCUME~1\ADMINI~1\LOCALS~1\Temp\ccTmPqfn.s 			page 13


 309:.\Generated_Source\PSoC5/UART_Bridge.c ****     #else
 310:.\Generated_Source\PSoC5/UART_Bridge.c ****        UART_Bridge_CONTROL_REG = control;
 311:.\Generated_Source\PSoC5/UART_Bridge.c ****     #endif /* End UART_Bridge_CONTROL_REG_REMOVED */
 312:.\Generated_Source\PSoC5/UART_Bridge.c **** }
 373              		.loc 1 312 0
 374 000a 07F10C07 		add	r7, r7, #12
 375 000e BD46     		mov	sp, r7
 376 0010 80BC     		pop	{r7}
 377 0012 7047     		bx	lr
 378              		.cfi_endproc
 379              	.LFE5:
 380              		.size	UART_Bridge_WriteControlRegister, .-UART_Bridge_WriteControlRegister
 381              		.section	.text.UART_Bridge_EnableRxInt,"ax",%progbits
 382              		.align	2
 383              		.global	UART_Bridge_EnableRxInt
 384              		.thumb
 385              		.thumb_func
 386              		.type	UART_Bridge_EnableRxInt, %function
 387              	UART_Bridge_EnableRxInt:
 388              	.LFB6:
 313:.\Generated_Source\PSoC5/UART_Bridge.c **** 
 314:.\Generated_Source\PSoC5/UART_Bridge.c **** 
 315:.\Generated_Source\PSoC5/UART_Bridge.c **** #if(UART_Bridge_RX_ENABLED || UART_Bridge_HD_ENABLED)
 316:.\Generated_Source\PSoC5/UART_Bridge.c **** 
 317:.\Generated_Source\PSoC5/UART_Bridge.c ****     #if(UART_Bridge_RX_INTERRUPT_ENABLED)
 318:.\Generated_Source\PSoC5/UART_Bridge.c **** 
 319:.\Generated_Source\PSoC5/UART_Bridge.c ****         /*******************************************************************************
 320:.\Generated_Source\PSoC5/UART_Bridge.c ****         * Function Name: UART_Bridge_EnableRxInt
 321:.\Generated_Source\PSoC5/UART_Bridge.c ****         ********************************************************************************
 322:.\Generated_Source\PSoC5/UART_Bridge.c ****         *
 323:.\Generated_Source\PSoC5/UART_Bridge.c ****         * Summary:
 324:.\Generated_Source\PSoC5/UART_Bridge.c ****         *  Enable RX interrupt generation
 325:.\Generated_Source\PSoC5/UART_Bridge.c ****         *
 326:.\Generated_Source\PSoC5/UART_Bridge.c ****         * Parameters:
 327:.\Generated_Source\PSoC5/UART_Bridge.c ****         *  None.
 328:.\Generated_Source\PSoC5/UART_Bridge.c ****         *
 329:.\Generated_Source\PSoC5/UART_Bridge.c ****         * Return:
 330:.\Generated_Source\PSoC5/UART_Bridge.c ****         *  None.
 331:.\Generated_Source\PSoC5/UART_Bridge.c ****         *
 332:.\Generated_Source\PSoC5/UART_Bridge.c ****         * Theory:
 333:.\Generated_Source\PSoC5/UART_Bridge.c ****         *  Enable the interrupt output -or- the interrupt component itself
 334:.\Generated_Source\PSoC5/UART_Bridge.c ****         *
 335:.\Generated_Source\PSoC5/UART_Bridge.c ****         *******************************************************************************/
 336:.\Generated_Source\PSoC5/UART_Bridge.c ****         void UART_Bridge_EnableRxInt(void) 
 337:.\Generated_Source\PSoC5/UART_Bridge.c ****         {
 389              		.loc 1 337 0
 390              		.cfi_startproc
 391              		@ args = 0, pretend = 0, frame = 0
 392              		@ frame_needed = 1, uses_anonymous_args = 0
 393              		@ link register save eliminated.
 394 0000 80B4     		push	{r7}
 395              	.LCFI15:
 396              		.cfi_def_cfa_offset 4
 397 0002 00AF     		add	r7, sp, #0
 398              		.cfi_offset 7, -4
 399              	.LCFI16:
 400              		.cfi_def_cfa_register 7
ARM GAS  C:\DOCUME~1\ADMINI~1\LOCALS~1\Temp\ccTmPqfn.s 			page 14


 338:.\Generated_Source\PSoC5/UART_Bridge.c ****             CyIntEnable(UART_Bridge_RX_VECT_NUM);
 401              		.loc 1 338 0
 402 0004 4EF20013 		movw	r3, #:lower16:-536813312
 403 0008 CEF20003 		movt	r3, #:upper16:-536813312
 404 000c 4FF00202 		mov	r2, #2
 405 0010 1A60     		str	r2, [r3, #0]
 339:.\Generated_Source\PSoC5/UART_Bridge.c ****         }
 406              		.loc 1 339 0
 407 0012 BD46     		mov	sp, r7
 408 0014 80BC     		pop	{r7}
 409 0016 7047     		bx	lr
 410              		.cfi_endproc
 411              	.LFE6:
 412              		.size	UART_Bridge_EnableRxInt, .-UART_Bridge_EnableRxInt
 413              		.section	.text.UART_Bridge_DisableRxInt,"ax",%progbits
 414              		.align	2
 415              		.global	UART_Bridge_DisableRxInt
 416              		.thumb
 417              		.thumb_func
 418              		.type	UART_Bridge_DisableRxInt, %function
 419              	UART_Bridge_DisableRxInt:
 420              	.LFB7:
 340:.\Generated_Source\PSoC5/UART_Bridge.c **** 
 341:.\Generated_Source\PSoC5/UART_Bridge.c **** 
 342:.\Generated_Source\PSoC5/UART_Bridge.c ****         /*******************************************************************************
 343:.\Generated_Source\PSoC5/UART_Bridge.c ****         * Function Name: UART_Bridge_DisableRxInt
 344:.\Generated_Source\PSoC5/UART_Bridge.c ****         ********************************************************************************
 345:.\Generated_Source\PSoC5/UART_Bridge.c ****         *
 346:.\Generated_Source\PSoC5/UART_Bridge.c ****         * Summary:
 347:.\Generated_Source\PSoC5/UART_Bridge.c ****         *  Disable RX interrupt generation
 348:.\Generated_Source\PSoC5/UART_Bridge.c ****         *
 349:.\Generated_Source\PSoC5/UART_Bridge.c ****         * Parameters:
 350:.\Generated_Source\PSoC5/UART_Bridge.c ****         *  None.
 351:.\Generated_Source\PSoC5/UART_Bridge.c ****         *
 352:.\Generated_Source\PSoC5/UART_Bridge.c ****         * Return:
 353:.\Generated_Source\PSoC5/UART_Bridge.c ****         *  None.
 354:.\Generated_Source\PSoC5/UART_Bridge.c ****         *
 355:.\Generated_Source\PSoC5/UART_Bridge.c ****         * Theory:
 356:.\Generated_Source\PSoC5/UART_Bridge.c ****         *  Disable the interrupt output -or- the interrupt component itself
 357:.\Generated_Source\PSoC5/UART_Bridge.c ****         *
 358:.\Generated_Source\PSoC5/UART_Bridge.c ****         *******************************************************************************/
 359:.\Generated_Source\PSoC5/UART_Bridge.c ****         void UART_Bridge_DisableRxInt(void) 
 360:.\Generated_Source\PSoC5/UART_Bridge.c ****         {
 421              		.loc 1 360 0
 422              		.cfi_startproc
 423              		@ args = 0, pretend = 0, frame = 0
 424              		@ frame_needed = 1, uses_anonymous_args = 0
 425              		@ link register save eliminated.
 426 0000 80B4     		push	{r7}
 427              	.LCFI17:
 428              		.cfi_def_cfa_offset 4
 429 0002 00AF     		add	r7, sp, #0
 430              		.cfi_offset 7, -4
 431              	.LCFI18:
 432              		.cfi_def_cfa_register 7
 361:.\Generated_Source\PSoC5/UART_Bridge.c ****             CyIntDisable(UART_Bridge_RX_VECT_NUM);
 433              		.loc 1 361 0
ARM GAS  C:\DOCUME~1\ADMINI~1\LOCALS~1\Temp\ccTmPqfn.s 			page 15


 434 0004 4EF28013 		movw	r3, #:lower16:-536813184
 435 0008 CEF20003 		movt	r3, #:upper16:-536813184
 436 000c 4FF00202 		mov	r2, #2
 437 0010 1A60     		str	r2, [r3, #0]
 362:.\Generated_Source\PSoC5/UART_Bridge.c ****         }
 438              		.loc 1 362 0
 439 0012 BD46     		mov	sp, r7
 440 0014 80BC     		pop	{r7}
 441 0016 7047     		bx	lr
 442              		.cfi_endproc
 443              	.LFE7:
 444              		.size	UART_Bridge_DisableRxInt, .-UART_Bridge_DisableRxInt
 445              		.section	.text.UART_Bridge_SetRxInterruptMode,"ax",%progbits
 446              		.align	2
 447              		.global	UART_Bridge_SetRxInterruptMode
 448              		.thumb
 449              		.thumb_func
 450              		.type	UART_Bridge_SetRxInterruptMode, %function
 451              	UART_Bridge_SetRxInterruptMode:
 452              	.LFB8:
 363:.\Generated_Source\PSoC5/UART_Bridge.c **** 
 364:.\Generated_Source\PSoC5/UART_Bridge.c ****     #endif /* UART_Bridge_RX_INTERRUPT_ENABLED */
 365:.\Generated_Source\PSoC5/UART_Bridge.c **** 
 366:.\Generated_Source\PSoC5/UART_Bridge.c **** 
 367:.\Generated_Source\PSoC5/UART_Bridge.c ****     /*******************************************************************************
 368:.\Generated_Source\PSoC5/UART_Bridge.c ****     * Function Name: UART_Bridge_SetRxInterruptMode
 369:.\Generated_Source\PSoC5/UART_Bridge.c ****     ********************************************************************************
 370:.\Generated_Source\PSoC5/UART_Bridge.c ****     *
 371:.\Generated_Source\PSoC5/UART_Bridge.c ****     * Summary:
 372:.\Generated_Source\PSoC5/UART_Bridge.c ****     *  Configure which status bits trigger an interrupt event
 373:.\Generated_Source\PSoC5/UART_Bridge.c ****     *
 374:.\Generated_Source\PSoC5/UART_Bridge.c ****     * Parameters:
 375:.\Generated_Source\PSoC5/UART_Bridge.c ****     *  IntSrc:  An or'd combination of the desired status bit masks (defined in
 376:.\Generated_Source\PSoC5/UART_Bridge.c ****     *           the header file)
 377:.\Generated_Source\PSoC5/UART_Bridge.c ****     *
 378:.\Generated_Source\PSoC5/UART_Bridge.c ****     * Return:
 379:.\Generated_Source\PSoC5/UART_Bridge.c ****     *  None.
 380:.\Generated_Source\PSoC5/UART_Bridge.c ****     *
 381:.\Generated_Source\PSoC5/UART_Bridge.c ****     * Theory:
 382:.\Generated_Source\PSoC5/UART_Bridge.c ****     *  Enables the output of specific status bits to the interrupt controller
 383:.\Generated_Source\PSoC5/UART_Bridge.c ****     *
 384:.\Generated_Source\PSoC5/UART_Bridge.c ****     *******************************************************************************/
 385:.\Generated_Source\PSoC5/UART_Bridge.c ****     void UART_Bridge_SetRxInterruptMode(uint8 intSrc) 
 386:.\Generated_Source\PSoC5/UART_Bridge.c ****     {
 453              		.loc 1 386 0
 454              		.cfi_startproc
 455              		@ args = 0, pretend = 0, frame = 8
 456              		@ frame_needed = 1, uses_anonymous_args = 0
 457              		@ link register save eliminated.
 458 0000 80B4     		push	{r7}
 459              	.LCFI19:
 460              		.cfi_def_cfa_offset 4
 461 0002 83B0     		sub	sp, sp, #12
 462              	.LCFI20:
 463              		.cfi_def_cfa_offset 16
 464 0004 00AF     		add	r7, sp, #0
 465              		.cfi_offset 7, -4
ARM GAS  C:\DOCUME~1\ADMINI~1\LOCALS~1\Temp\ccTmPqfn.s 			page 16


 466              	.LCFI21:
 467              		.cfi_def_cfa_register 7
 468 0006 0346     		mov	r3, r0
 469 0008 FB71     		strb	r3, [r7, #7]
 387:.\Generated_Source\PSoC5/UART_Bridge.c ****         UART_Bridge_RXSTATUS_MASK_REG  = intSrc;
 470              		.loc 1 387 0
 471 000a 46F28543 		movw	r3, #:lower16:1073767557
 472 000e C4F20003 		movt	r3, #:upper16:1073767557
 473 0012 FA79     		ldrb	r2, [r7, #7]
 474 0014 1A70     		strb	r2, [r3, #0]
 388:.\Generated_Source\PSoC5/UART_Bridge.c ****     }
 475              		.loc 1 388 0
 476 0016 07F10C07 		add	r7, r7, #12
 477 001a BD46     		mov	sp, r7
 478 001c 80BC     		pop	{r7}
 479 001e 7047     		bx	lr
 480              		.cfi_endproc
 481              	.LFE8:
 482              		.size	UART_Bridge_SetRxInterruptMode, .-UART_Bridge_SetRxInterruptMode
 483              		.section	.text.UART_Bridge_ReadRxData,"ax",%progbits
 484              		.align	2
 485              		.global	UART_Bridge_ReadRxData
 486              		.thumb
 487              		.thumb_func
 488              		.type	UART_Bridge_ReadRxData, %function
 489              	UART_Bridge_ReadRxData:
 490              	.LFB9:
 389:.\Generated_Source\PSoC5/UART_Bridge.c **** 
 390:.\Generated_Source\PSoC5/UART_Bridge.c **** 
 391:.\Generated_Source\PSoC5/UART_Bridge.c ****     /*******************************************************************************
 392:.\Generated_Source\PSoC5/UART_Bridge.c ****     * Function Name: UART_Bridge_ReadRxData
 393:.\Generated_Source\PSoC5/UART_Bridge.c ****     ********************************************************************************
 394:.\Generated_Source\PSoC5/UART_Bridge.c ****     *
 395:.\Generated_Source\PSoC5/UART_Bridge.c ****     * Summary:
 396:.\Generated_Source\PSoC5/UART_Bridge.c ****     *  Returns data in RX Data register without checking status register to
 397:.\Generated_Source\PSoC5/UART_Bridge.c ****     *  determine if data is valid
 398:.\Generated_Source\PSoC5/UART_Bridge.c ****     *
 399:.\Generated_Source\PSoC5/UART_Bridge.c ****     * Parameters:
 400:.\Generated_Source\PSoC5/UART_Bridge.c ****     *  None.
 401:.\Generated_Source\PSoC5/UART_Bridge.c ****     *
 402:.\Generated_Source\PSoC5/UART_Bridge.c ****     * Return:
 403:.\Generated_Source\PSoC5/UART_Bridge.c ****     *  Received data from RX register
 404:.\Generated_Source\PSoC5/UART_Bridge.c ****     *
 405:.\Generated_Source\PSoC5/UART_Bridge.c ****     * Global Variables:
 406:.\Generated_Source\PSoC5/UART_Bridge.c ****     *  UART_Bridge_rxBuffer - RAM buffer pointer for save received data.
 407:.\Generated_Source\PSoC5/UART_Bridge.c ****     *  UART_Bridge_rxBufferWrite - cyclic index for write to rxBuffer,
 408:.\Generated_Source\PSoC5/UART_Bridge.c ****     *     checked to identify new data.
 409:.\Generated_Source\PSoC5/UART_Bridge.c ****     *  UART_Bridge_rxBufferRead - cyclic index for read from rxBuffer,
 410:.\Generated_Source\PSoC5/UART_Bridge.c ****     *     incremented after each byte has been read from buffer.
 411:.\Generated_Source\PSoC5/UART_Bridge.c ****     *  UART_Bridge_rxBufferLoopDetect - creared if loop condition was detected
 412:.\Generated_Source\PSoC5/UART_Bridge.c ****     *     in RX ISR.
 413:.\Generated_Source\PSoC5/UART_Bridge.c ****     *
 414:.\Generated_Source\PSoC5/UART_Bridge.c ****     * Reentrant:
 415:.\Generated_Source\PSoC5/UART_Bridge.c ****     *  No.
 416:.\Generated_Source\PSoC5/UART_Bridge.c ****     *
 417:.\Generated_Source\PSoC5/UART_Bridge.c ****     *******************************************************************************/
 418:.\Generated_Source\PSoC5/UART_Bridge.c ****     uint8 UART_Bridge_ReadRxData(void) 
ARM GAS  C:\DOCUME~1\ADMINI~1\LOCALS~1\Temp\ccTmPqfn.s 			page 17


 419:.\Generated_Source\PSoC5/UART_Bridge.c ****     {
 491              		.loc 1 419 0
 492              		.cfi_startproc
 493              		@ args = 0, pretend = 0, frame = 8
 494              		@ frame_needed = 1, uses_anonymous_args = 0
 495 0000 80B5     		push	{r7, lr}
 496              	.LCFI22:
 497              		.cfi_def_cfa_offset 8
 498 0002 82B0     		sub	sp, sp, #8
 499              	.LCFI23:
 500              		.cfi_def_cfa_offset 16
 501 0004 00AF     		add	r7, sp, #0
 502              		.cfi_offset 14, -4
 503              		.cfi_offset 7, -8
 504              	.LCFI24:
 505              		.cfi_def_cfa_register 7
 420:.\Generated_Source\PSoC5/UART_Bridge.c ****         uint8 rxData;
 421:.\Generated_Source\PSoC5/UART_Bridge.c **** 
 422:.\Generated_Source\PSoC5/UART_Bridge.c ****         #if(UART_Bridge_RXBUFFERSIZE > UART_Bridge_FIFO_LENGTH)
 423:.\Generated_Source\PSoC5/UART_Bridge.c ****             uint8 loc_rxBufferRead;
 424:.\Generated_Source\PSoC5/UART_Bridge.c ****             uint8 loc_rxBufferWrite;
 425:.\Generated_Source\PSoC5/UART_Bridge.c ****             /* Protect variables that could change on interrupt. */
 426:.\Generated_Source\PSoC5/UART_Bridge.c ****             /* Disable Rx interrupt. */
 427:.\Generated_Source\PSoC5/UART_Bridge.c ****             #if(UART_Bridge_RX_INTERRUPT_ENABLED)
 428:.\Generated_Source\PSoC5/UART_Bridge.c ****                 UART_Bridge_DisableRxInt();
 506              		.loc 1 428 0
 507 0006 FFF7FEFF 		bl	UART_Bridge_DisableRxInt
 429:.\Generated_Source\PSoC5/UART_Bridge.c ****             #endif /* UART_Bridge_RX_INTERRUPT_ENABLED */
 430:.\Generated_Source\PSoC5/UART_Bridge.c ****             loc_rxBufferRead = UART_Bridge_rxBufferRead;
 508              		.loc 1 430 0
 509 000a 40F20003 		movw	r3, #:lower16:UART_Bridge_rxBufferRead
 510 000e C0F20003 		movt	r3, #:upper16:UART_Bridge_rxBufferRead
 511 0012 1B78     		ldrb	r3, [r3, #0]
 512 0014 BB71     		strb	r3, [r7, #6]
 431:.\Generated_Source\PSoC5/UART_Bridge.c ****             loc_rxBufferWrite = UART_Bridge_rxBufferWrite;
 513              		.loc 1 431 0
 514 0016 40F20003 		movw	r3, #:lower16:UART_Bridge_rxBufferWrite
 515 001a C0F20003 		movt	r3, #:upper16:UART_Bridge_rxBufferWrite
 516 001e 1B78     		ldrb	r3, [r3, #0]
 517 0020 FB71     		strb	r3, [r7, #7]
 432:.\Generated_Source\PSoC5/UART_Bridge.c **** 
 433:.\Generated_Source\PSoC5/UART_Bridge.c ****             if( (UART_Bridge_rxBufferLoopDetect != 0u) || (loc_rxBufferRead != loc_rxBufferWrite) )
 518              		.loc 1 433 0
 519 0022 40F20003 		movw	r3, #:lower16:UART_Bridge_rxBufferLoopDetect
 520 0026 C0F20003 		movt	r3, #:upper16:UART_Bridge_rxBufferLoopDetect
 521 002a 1B78     		ldrb	r3, [r3, #0]
 522 002c DBB2     		uxtb	r3, r3
 523 002e 002B     		cmp	r3, #0
 524 0030 03D1     		bne	.L21
 525 0032 BA79     		ldrb	r2, [r7, #6]	@ zero_extendqisi2
 526 0034 FB79     		ldrb	r3, [r7, #7]	@ zero_extendqisi2
 527 0036 9A42     		cmp	r2, r3
 528 0038 27D0     		beq	.L22
 529              	.L21:
 434:.\Generated_Source\PSoC5/UART_Bridge.c ****             {
 435:.\Generated_Source\PSoC5/UART_Bridge.c ****                 rxData = UART_Bridge_rxBuffer[loc_rxBufferRead];
 530              		.loc 1 435 0
ARM GAS  C:\DOCUME~1\ADMINI~1\LOCALS~1\Temp\ccTmPqfn.s 			page 18


 531 003a BA79     		ldrb	r2, [r7, #6]	@ zero_extendqisi2
 532 003c 40F20003 		movw	r3, #:lower16:UART_Bridge_rxBuffer
 533 0040 C0F20003 		movt	r3, #:upper16:UART_Bridge_rxBuffer
 534 0044 9B5C     		ldrb	r3, [r3, r2]
 535 0046 7B71     		strb	r3, [r7, #5]
 436:.\Generated_Source\PSoC5/UART_Bridge.c ****                 loc_rxBufferRead++;
 536              		.loc 1 436 0
 537 0048 BB79     		ldrb	r3, [r7, #6]
 538 004a 03F10103 		add	r3, r3, #1
 539 004e BB71     		strb	r3, [r7, #6]
 437:.\Generated_Source\PSoC5/UART_Bridge.c **** 
 438:.\Generated_Source\PSoC5/UART_Bridge.c ****                 if(loc_rxBufferRead >= UART_Bridge_RXBUFFERSIZE)
 540              		.loc 1 438 0
 541 0050 BB79     		ldrb	r3, [r7, #6]	@ zero_extendqisi2
 542 0052 5BB2     		sxtb	r3, r3
 543 0054 002B     		cmp	r3, #0
 544 0056 02DA     		bge	.L23
 439:.\Generated_Source\PSoC5/UART_Bridge.c ****                 {
 440:.\Generated_Source\PSoC5/UART_Bridge.c ****                     loc_rxBufferRead = 0u;
 545              		.loc 1 440 0
 546 0058 4FF00003 		mov	r3, #0
 547 005c BB71     		strb	r3, [r7, #6]
 548              	.L23:
 441:.\Generated_Source\PSoC5/UART_Bridge.c ****                 }
 442:.\Generated_Source\PSoC5/UART_Bridge.c ****                 /* Update the real pointer */
 443:.\Generated_Source\PSoC5/UART_Bridge.c ****                 UART_Bridge_rxBufferRead = loc_rxBufferRead;
 549              		.loc 1 443 0
 550 005e 40F20003 		movw	r3, #:lower16:UART_Bridge_rxBufferRead
 551 0062 C0F20003 		movt	r3, #:upper16:UART_Bridge_rxBufferRead
 552 0066 BA79     		ldrb	r2, [r7, #6]
 553 0068 1A70     		strb	r2, [r3, #0]
 444:.\Generated_Source\PSoC5/UART_Bridge.c **** 
 445:.\Generated_Source\PSoC5/UART_Bridge.c ****                 if(UART_Bridge_rxBufferLoopDetect != 0u )
 554              		.loc 1 445 0
 555 006a 40F20003 		movw	r3, #:lower16:UART_Bridge_rxBufferLoopDetect
 556 006e C0F20003 		movt	r3, #:upper16:UART_Bridge_rxBufferLoopDetect
 557 0072 1B78     		ldrb	r3, [r3, #0]
 558 0074 DBB2     		uxtb	r3, r3
 559 0076 002B     		cmp	r3, #0
 560 0078 0ED0     		beq	.L27
 446:.\Generated_Source\PSoC5/UART_Bridge.c ****                 {
 447:.\Generated_Source\PSoC5/UART_Bridge.c ****                     UART_Bridge_rxBufferLoopDetect = 0u;
 561              		.loc 1 447 0
 562 007a 40F20003 		movw	r3, #:lower16:UART_Bridge_rxBufferLoopDetect
 563 007e C0F20003 		movt	r3, #:upper16:UART_Bridge_rxBufferLoopDetect
 564 0082 4FF00002 		mov	r2, #0
 565 0086 1A70     		strb	r2, [r3, #0]
 566              		.loc 1 433 0
 567 0088 07E0     		b	.L25
 568              	.L22:
 448:.\Generated_Source\PSoC5/UART_Bridge.c ****                     #if( (UART_Bridge_RX_INTERRUPT_ENABLED) && (UART_Bridge_FLOW_CONTROL != 0u) && 
 449:.\Generated_Source\PSoC5/UART_Bridge.c ****                          (UART_Bridge_RXBUFFERSIZE > UART_Bridge_FIFO_LENGTH) )
 450:.\Generated_Source\PSoC5/UART_Bridge.c ****                         /* When Hardware Flow Control selected - return RX mask */
 451:.\Generated_Source\PSoC5/UART_Bridge.c ****                         #if( UART_Bridge_HD_ENABLED )
 452:.\Generated_Source\PSoC5/UART_Bridge.c ****                             if((UART_Bridge_CONTROL_REG & UART_Bridge_CTRL_HD_SEND) == 0u)
 453:.\Generated_Source\PSoC5/UART_Bridge.c ****                             {   /* In Half duplex mode return RX mask only in RX
 454:.\Generated_Source\PSoC5/UART_Bridge.c ****                                 *  configuration set, otherwise
ARM GAS  C:\DOCUME~1\ADMINI~1\LOCALS~1\Temp\ccTmPqfn.s 			page 19


 455:.\Generated_Source\PSoC5/UART_Bridge.c ****                                 *  mask will be returned in LoadRxConfig() API.
 456:.\Generated_Source\PSoC5/UART_Bridge.c ****                                 */
 457:.\Generated_Source\PSoC5/UART_Bridge.c ****                                 UART_Bridge_RXSTATUS_MASK_REG  |= UART_Bridge_RX_STS_FIFO_NOTEMPTY;
 458:.\Generated_Source\PSoC5/UART_Bridge.c ****                             }
 459:.\Generated_Source\PSoC5/UART_Bridge.c ****                         #else
 460:.\Generated_Source\PSoC5/UART_Bridge.c ****                             UART_Bridge_RXSTATUS_MASK_REG  |= UART_Bridge_RX_STS_FIFO_NOTEMPTY;
 461:.\Generated_Source\PSoC5/UART_Bridge.c ****                         #endif /* end UART_Bridge_HD_ENABLED */
 462:.\Generated_Source\PSoC5/UART_Bridge.c ****                     #endif /* UART_Bridge_RX_INTERRUPT_ENABLED and Hardware flow control*/
 463:.\Generated_Source\PSoC5/UART_Bridge.c ****                 }
 464:.\Generated_Source\PSoC5/UART_Bridge.c ****             }
 465:.\Generated_Source\PSoC5/UART_Bridge.c ****             else
 466:.\Generated_Source\PSoC5/UART_Bridge.c ****             {   /* Needs to check status for RX_STS_FIFO_NOTEMPTY bit*/
 467:.\Generated_Source\PSoC5/UART_Bridge.c ****                 rxData = UART_Bridge_RXDATA_REG;
 569              		.loc 1 467 0
 570 008a 46F24643 		movw	r3, #:lower16:1073767494
 571 008e C4F20003 		movt	r3, #:upper16:1073767494
 572 0092 1B78     		ldrb	r3, [r3, #0]
 573 0094 7B71     		strb	r3, [r7, #5]
 574 0096 00E0     		b	.L25
 575              	.L27:
 576              		.loc 1 433 0
 577 0098 00BF     		nop
 578              	.L25:
 468:.\Generated_Source\PSoC5/UART_Bridge.c ****             }
 469:.\Generated_Source\PSoC5/UART_Bridge.c **** 
 470:.\Generated_Source\PSoC5/UART_Bridge.c ****             /* Enable Rx interrupt. */
 471:.\Generated_Source\PSoC5/UART_Bridge.c ****             #if(UART_Bridge_RX_INTERRUPT_ENABLED)
 472:.\Generated_Source\PSoC5/UART_Bridge.c ****                 UART_Bridge_EnableRxInt();
 579              		.loc 1 472 0
 580 009a FFF7FEFF 		bl	UART_Bridge_EnableRxInt
 473:.\Generated_Source\PSoC5/UART_Bridge.c ****             #endif /* End UART_Bridge_RX_INTERRUPT_ENABLED */
 474:.\Generated_Source\PSoC5/UART_Bridge.c **** 
 475:.\Generated_Source\PSoC5/UART_Bridge.c ****         #else /* UART_Bridge_RXBUFFERSIZE > UART_Bridge_FIFO_LENGTH */
 476:.\Generated_Source\PSoC5/UART_Bridge.c **** 
 477:.\Generated_Source\PSoC5/UART_Bridge.c ****             /* Needs to check status for RX_STS_FIFO_NOTEMPTY bit*/
 478:.\Generated_Source\PSoC5/UART_Bridge.c ****             rxData = UART_Bridge_RXDATA_REG;
 479:.\Generated_Source\PSoC5/UART_Bridge.c **** 
 480:.\Generated_Source\PSoC5/UART_Bridge.c ****         #endif /* UART_Bridge_RXBUFFERSIZE > UART_Bridge_FIFO_LENGTH */
 481:.\Generated_Source\PSoC5/UART_Bridge.c **** 
 482:.\Generated_Source\PSoC5/UART_Bridge.c ****         return(rxData);
 581              		.loc 1 482 0
 582 009e 7B79     		ldrb	r3, [r7, #5]	@ zero_extendqisi2
 483:.\Generated_Source\PSoC5/UART_Bridge.c ****     }
 583              		.loc 1 483 0
 584 00a0 1846     		mov	r0, r3
 585 00a2 07F10807 		add	r7, r7, #8
 586 00a6 BD46     		mov	sp, r7
 587 00a8 80BD     		pop	{r7, pc}
 588              		.cfi_endproc
 589              	.LFE9:
 590              		.size	UART_Bridge_ReadRxData, .-UART_Bridge_ReadRxData
 591 00aa 00BF     		.section	.text.UART_Bridge_ReadRxStatus,"ax",%progbits
 592              		.align	2
 593              		.global	UART_Bridge_ReadRxStatus
 594              		.thumb
 595              		.thumb_func
 596              		.type	UART_Bridge_ReadRxStatus, %function
ARM GAS  C:\DOCUME~1\ADMINI~1\LOCALS~1\Temp\ccTmPqfn.s 			page 20


 597              	UART_Bridge_ReadRxStatus:
 598              	.LFB10:
 484:.\Generated_Source\PSoC5/UART_Bridge.c **** 
 485:.\Generated_Source\PSoC5/UART_Bridge.c **** 
 486:.\Generated_Source\PSoC5/UART_Bridge.c ****     /*******************************************************************************
 487:.\Generated_Source\PSoC5/UART_Bridge.c ****     * Function Name: UART_Bridge_ReadRxStatus
 488:.\Generated_Source\PSoC5/UART_Bridge.c ****     ********************************************************************************
 489:.\Generated_Source\PSoC5/UART_Bridge.c ****     *
 490:.\Generated_Source\PSoC5/UART_Bridge.c ****     * Summary:
 491:.\Generated_Source\PSoC5/UART_Bridge.c ****     *  Read the current state of the status register
 492:.\Generated_Source\PSoC5/UART_Bridge.c ****     *  And detect software buffer overflow.
 493:.\Generated_Source\PSoC5/UART_Bridge.c ****     *
 494:.\Generated_Source\PSoC5/UART_Bridge.c ****     * Parameters:
 495:.\Generated_Source\PSoC5/UART_Bridge.c ****     *  None.
 496:.\Generated_Source\PSoC5/UART_Bridge.c ****     *
 497:.\Generated_Source\PSoC5/UART_Bridge.c ****     * Return:
 498:.\Generated_Source\PSoC5/UART_Bridge.c ****     *  Current state of the status register.
 499:.\Generated_Source\PSoC5/UART_Bridge.c ****     *
 500:.\Generated_Source\PSoC5/UART_Bridge.c ****     * Global Variables:
 501:.\Generated_Source\PSoC5/UART_Bridge.c ****     *  UART_Bridge_rxBufferOverflow - used to indicate overload condition.
 502:.\Generated_Source\PSoC5/UART_Bridge.c ****     *   It set to one in RX interrupt when there isn?t free space in
 503:.\Generated_Source\PSoC5/UART_Bridge.c ****     *   UART_Bridge_rxBufferRead to write new data. This condition returned
 504:.\Generated_Source\PSoC5/UART_Bridge.c ****     *   and cleared to zero by this API as an
 505:.\Generated_Source\PSoC5/UART_Bridge.c ****     *   UART_Bridge_RX_STS_SOFT_BUFF_OVER bit along with RX Status register
 506:.\Generated_Source\PSoC5/UART_Bridge.c ****     *   bits.
 507:.\Generated_Source\PSoC5/UART_Bridge.c ****     *
 508:.\Generated_Source\PSoC5/UART_Bridge.c ****     *******************************************************************************/
 509:.\Generated_Source\PSoC5/UART_Bridge.c ****     uint8 UART_Bridge_ReadRxStatus(void) 
 510:.\Generated_Source\PSoC5/UART_Bridge.c ****     {
 599              		.loc 1 510 0
 600              		.cfi_startproc
 601              		@ args = 0, pretend = 0, frame = 8
 602              		@ frame_needed = 1, uses_anonymous_args = 0
 603              		@ link register save eliminated.
 604 0000 80B4     		push	{r7}
 605              	.LCFI25:
 606              		.cfi_def_cfa_offset 4
 607 0002 83B0     		sub	sp, sp, #12
 608              	.LCFI26:
 609              		.cfi_def_cfa_offset 16
 610 0004 00AF     		add	r7, sp, #0
 611              		.cfi_offset 7, -4
 612              	.LCFI27:
 613              		.cfi_def_cfa_register 7
 511:.\Generated_Source\PSoC5/UART_Bridge.c ****         uint8 status;
 512:.\Generated_Source\PSoC5/UART_Bridge.c **** 
 513:.\Generated_Source\PSoC5/UART_Bridge.c ****         status = UART_Bridge_RXSTATUS_REG & UART_Bridge_RX_HW_MASK;
 614              		.loc 1 513 0
 615 0006 46F26543 		movw	r3, #:lower16:1073767525
 616 000a C4F20003 		movt	r3, #:upper16:1073767525
 617 000e 1B78     		ldrb	r3, [r3, #0]
 618 0010 DBB2     		uxtb	r3, r3
 619 0012 03F07F03 		and	r3, r3, #127
 620 0016 FB71     		strb	r3, [r7, #7]
 514:.\Generated_Source\PSoC5/UART_Bridge.c **** 
 515:.\Generated_Source\PSoC5/UART_Bridge.c ****         #if(UART_Bridge_RXBUFFERSIZE > UART_Bridge_FIFO_LENGTH)
 516:.\Generated_Source\PSoC5/UART_Bridge.c ****             if( UART_Bridge_rxBufferOverflow != 0u )
ARM GAS  C:\DOCUME~1\ADMINI~1\LOCALS~1\Temp\ccTmPqfn.s 			page 21


 621              		.loc 1 516 0
 622 0018 40F20003 		movw	r3, #:lower16:UART_Bridge_rxBufferOverflow
 623 001c C0F20003 		movt	r3, #:upper16:UART_Bridge_rxBufferOverflow
 624 0020 1B78     		ldrb	r3, [r3, #0]
 625 0022 DBB2     		uxtb	r3, r3
 626 0024 002B     		cmp	r3, #0
 627 0026 0CD0     		beq	.L29
 517:.\Generated_Source\PSoC5/UART_Bridge.c ****             {
 518:.\Generated_Source\PSoC5/UART_Bridge.c ****                 status |= UART_Bridge_RX_STS_SOFT_BUFF_OVER;
 628              		.loc 1 518 0
 629 0028 FB79     		ldrb	r3, [r7, #7]
 630 002a 6FEA4363 		mvn	r3, r3, lsl #25
 631 002e 6FEA5363 		mvn	r3, r3, lsr #25
 632 0032 FB71     		strb	r3, [r7, #7]
 519:.\Generated_Source\PSoC5/UART_Bridge.c ****                 UART_Bridge_rxBufferOverflow = 0u;
 633              		.loc 1 519 0
 634 0034 40F20003 		movw	r3, #:lower16:UART_Bridge_rxBufferOverflow
 635 0038 C0F20003 		movt	r3, #:upper16:UART_Bridge_rxBufferOverflow
 636 003c 4FF00002 		mov	r2, #0
 637 0040 1A70     		strb	r2, [r3, #0]
 638              	.L29:
 520:.\Generated_Source\PSoC5/UART_Bridge.c ****             }
 521:.\Generated_Source\PSoC5/UART_Bridge.c ****         #endif /* UART_Bridge_RXBUFFERSIZE */
 522:.\Generated_Source\PSoC5/UART_Bridge.c **** 
 523:.\Generated_Source\PSoC5/UART_Bridge.c ****         return(status);
 639              		.loc 1 523 0
 640 0042 FB79     		ldrb	r3, [r7, #7]	@ zero_extendqisi2
 524:.\Generated_Source\PSoC5/UART_Bridge.c ****     }
 641              		.loc 1 524 0
 642 0044 1846     		mov	r0, r3
 643 0046 07F10C07 		add	r7, r7, #12
 644 004a BD46     		mov	sp, r7
 645 004c 80BC     		pop	{r7}
 646 004e 7047     		bx	lr
 647              		.cfi_endproc
 648              	.LFE10:
 649              		.size	UART_Bridge_ReadRxStatus, .-UART_Bridge_ReadRxStatus
 650              		.section	.text.UART_Bridge_GetChar,"ax",%progbits
 651              		.align	2
 652              		.global	UART_Bridge_GetChar
 653              		.thumb
 654              		.thumb_func
 655              		.type	UART_Bridge_GetChar, %function
 656              	UART_Bridge_GetChar:
 657              	.LFB11:
 525:.\Generated_Source\PSoC5/UART_Bridge.c **** 
 526:.\Generated_Source\PSoC5/UART_Bridge.c **** 
 527:.\Generated_Source\PSoC5/UART_Bridge.c ****     /*******************************************************************************
 528:.\Generated_Source\PSoC5/UART_Bridge.c ****     * Function Name: UART_Bridge_GetChar
 529:.\Generated_Source\PSoC5/UART_Bridge.c ****     ********************************************************************************
 530:.\Generated_Source\PSoC5/UART_Bridge.c ****     *
 531:.\Generated_Source\PSoC5/UART_Bridge.c ****     * Summary:
 532:.\Generated_Source\PSoC5/UART_Bridge.c ****     *  Reads UART RX buffer immediately, if data is not available or an error
 533:.\Generated_Source\PSoC5/UART_Bridge.c ****     *  condition exists, zero is returned; otherwise, character is read and
 534:.\Generated_Source\PSoC5/UART_Bridge.c ****     *  returned.
 535:.\Generated_Source\PSoC5/UART_Bridge.c ****     *
 536:.\Generated_Source\PSoC5/UART_Bridge.c ****     * Parameters:
ARM GAS  C:\DOCUME~1\ADMINI~1\LOCALS~1\Temp\ccTmPqfn.s 			page 22


 537:.\Generated_Source\PSoC5/UART_Bridge.c ****     *  None.
 538:.\Generated_Source\PSoC5/UART_Bridge.c ****     *
 539:.\Generated_Source\PSoC5/UART_Bridge.c ****     * Return:
 540:.\Generated_Source\PSoC5/UART_Bridge.c ****     *  Character read from UART RX buffer. ASCII characters from 1 to 255 are valid.
 541:.\Generated_Source\PSoC5/UART_Bridge.c ****     *  A returned zero signifies an error condition or no data available.
 542:.\Generated_Source\PSoC5/UART_Bridge.c ****     *
 543:.\Generated_Source\PSoC5/UART_Bridge.c ****     * Global Variables:
 544:.\Generated_Source\PSoC5/UART_Bridge.c ****     *  UART_Bridge_rxBuffer - RAM buffer pointer for save received data.
 545:.\Generated_Source\PSoC5/UART_Bridge.c ****     *  UART_Bridge_rxBufferWrite - cyclic index for write to rxBuffer,
 546:.\Generated_Source\PSoC5/UART_Bridge.c ****     *     checked to identify new data.
 547:.\Generated_Source\PSoC5/UART_Bridge.c ****     *  UART_Bridge_rxBufferRead - cyclic index for read from rxBuffer,
 548:.\Generated_Source\PSoC5/UART_Bridge.c ****     *     incremented after each byte has been read from buffer.
 549:.\Generated_Source\PSoC5/UART_Bridge.c ****     *  UART_Bridge_rxBufferLoopDetect - creared if loop condition was detected
 550:.\Generated_Source\PSoC5/UART_Bridge.c ****     *     in RX ISR.
 551:.\Generated_Source\PSoC5/UART_Bridge.c ****     *
 552:.\Generated_Source\PSoC5/UART_Bridge.c ****     * Reentrant:
 553:.\Generated_Source\PSoC5/UART_Bridge.c ****     *  No.
 554:.\Generated_Source\PSoC5/UART_Bridge.c ****     *
 555:.\Generated_Source\PSoC5/UART_Bridge.c ****     *******************************************************************************/
 556:.\Generated_Source\PSoC5/UART_Bridge.c ****     uint8 UART_Bridge_GetChar(void) 
 557:.\Generated_Source\PSoC5/UART_Bridge.c ****     {
 658              		.loc 1 557 0
 659              		.cfi_startproc
 660              		@ args = 0, pretend = 0, frame = 8
 661              		@ frame_needed = 1, uses_anonymous_args = 0
 662 0000 80B5     		push	{r7, lr}
 663              	.LCFI28:
 664              		.cfi_def_cfa_offset 8
 665 0002 82B0     		sub	sp, sp, #8
 666              	.LCFI29:
 667              		.cfi_def_cfa_offset 16
 668 0004 00AF     		add	r7, sp, #0
 669              		.cfi_offset 14, -4
 670              		.cfi_offset 7, -8
 671              	.LCFI30:
 672              		.cfi_def_cfa_register 7
 558:.\Generated_Source\PSoC5/UART_Bridge.c ****         uint8 rxData = 0u;
 673              		.loc 1 558 0
 674 0006 4FF00003 		mov	r3, #0
 675 000a 3B71     		strb	r3, [r7, #4]
 559:.\Generated_Source\PSoC5/UART_Bridge.c ****         uint8 rxStatus;
 560:.\Generated_Source\PSoC5/UART_Bridge.c **** 
 561:.\Generated_Source\PSoC5/UART_Bridge.c ****         #if(UART_Bridge_RXBUFFERSIZE > UART_Bridge_FIFO_LENGTH)
 562:.\Generated_Source\PSoC5/UART_Bridge.c ****             uint8 loc_rxBufferRead;
 563:.\Generated_Source\PSoC5/UART_Bridge.c ****             uint8 loc_rxBufferWrite;
 564:.\Generated_Source\PSoC5/UART_Bridge.c ****             /* Protect variables that could change on interrupt. */
 565:.\Generated_Source\PSoC5/UART_Bridge.c ****             /* Disable Rx interrupt. */
 566:.\Generated_Source\PSoC5/UART_Bridge.c ****             #if(UART_Bridge_RX_INTERRUPT_ENABLED)
 567:.\Generated_Source\PSoC5/UART_Bridge.c ****                 UART_Bridge_DisableRxInt();
 676              		.loc 1 567 0
 677 000c FFF7FEFF 		bl	UART_Bridge_DisableRxInt
 568:.\Generated_Source\PSoC5/UART_Bridge.c ****             #endif /* UART_Bridge_RX_INTERRUPT_ENABLED */
 569:.\Generated_Source\PSoC5/UART_Bridge.c ****             loc_rxBufferRead = UART_Bridge_rxBufferRead;
 678              		.loc 1 569 0
 679 0010 40F20003 		movw	r3, #:lower16:UART_Bridge_rxBufferRead
 680 0014 C0F20003 		movt	r3, #:upper16:UART_Bridge_rxBufferRead
 681 0018 1B78     		ldrb	r3, [r3, #0]
ARM GAS  C:\DOCUME~1\ADMINI~1\LOCALS~1\Temp\ccTmPqfn.s 			page 23


 682 001a BB71     		strb	r3, [r7, #6]
 570:.\Generated_Source\PSoC5/UART_Bridge.c ****             loc_rxBufferWrite = UART_Bridge_rxBufferWrite;
 683              		.loc 1 570 0
 684 001c 40F20003 		movw	r3, #:lower16:UART_Bridge_rxBufferWrite
 685 0020 C0F20003 		movt	r3, #:upper16:UART_Bridge_rxBufferWrite
 686 0024 1B78     		ldrb	r3, [r3, #0]
 687 0026 FB71     		strb	r3, [r7, #7]
 571:.\Generated_Source\PSoC5/UART_Bridge.c **** 
 572:.\Generated_Source\PSoC5/UART_Bridge.c ****             if( (UART_Bridge_rxBufferLoopDetect != 0u) || (loc_rxBufferRead != loc_rxBufferWrite) )
 688              		.loc 1 572 0
 689 0028 40F20003 		movw	r3, #:lower16:UART_Bridge_rxBufferLoopDetect
 690 002c C0F20003 		movt	r3, #:upper16:UART_Bridge_rxBufferLoopDetect
 691 0030 1B78     		ldrb	r3, [r3, #0]
 692 0032 DBB2     		uxtb	r3, r3
 693 0034 002B     		cmp	r3, #0
 694 0036 03D1     		bne	.L32
 695 0038 BA79     		ldrb	r2, [r7, #6]	@ zero_extendqisi2
 696 003a FB79     		ldrb	r3, [r7, #7]	@ zero_extendqisi2
 697 003c 9A42     		cmp	r2, r3
 698 003e 27D0     		beq	.L33
 699              	.L32:
 573:.\Generated_Source\PSoC5/UART_Bridge.c ****             {
 574:.\Generated_Source\PSoC5/UART_Bridge.c ****                 rxData = UART_Bridge_rxBuffer[loc_rxBufferRead];
 700              		.loc 1 574 0
 701 0040 BA79     		ldrb	r2, [r7, #6]	@ zero_extendqisi2
 702 0042 40F20003 		movw	r3, #:lower16:UART_Bridge_rxBuffer
 703 0046 C0F20003 		movt	r3, #:upper16:UART_Bridge_rxBuffer
 704 004a 9B5C     		ldrb	r3, [r3, r2]
 705 004c 3B71     		strb	r3, [r7, #4]
 575:.\Generated_Source\PSoC5/UART_Bridge.c ****                 loc_rxBufferRead++;
 706              		.loc 1 575 0
 707 004e BB79     		ldrb	r3, [r7, #6]
 708 0050 03F10103 		add	r3, r3, #1
 709 0054 BB71     		strb	r3, [r7, #6]
 576:.\Generated_Source\PSoC5/UART_Bridge.c ****                 if(loc_rxBufferRead >= UART_Bridge_RXBUFFERSIZE)
 710              		.loc 1 576 0
 711 0056 BB79     		ldrb	r3, [r7, #6]	@ zero_extendqisi2
 712 0058 5BB2     		sxtb	r3, r3
 713 005a 002B     		cmp	r3, #0
 714 005c 02DA     		bge	.L34
 577:.\Generated_Source\PSoC5/UART_Bridge.c ****                 {
 578:.\Generated_Source\PSoC5/UART_Bridge.c ****                     loc_rxBufferRead = 0u;
 715              		.loc 1 578 0
 716 005e 4FF00003 		mov	r3, #0
 717 0062 BB71     		strb	r3, [r7, #6]
 718              	.L34:
 579:.\Generated_Source\PSoC5/UART_Bridge.c ****                 }
 580:.\Generated_Source\PSoC5/UART_Bridge.c ****                 /* Update the real pointer */
 581:.\Generated_Source\PSoC5/UART_Bridge.c ****                 UART_Bridge_rxBufferRead = loc_rxBufferRead;
 719              		.loc 1 581 0
 720 0064 40F20003 		movw	r3, #:lower16:UART_Bridge_rxBufferRead
 721 0068 C0F20003 		movt	r3, #:upper16:UART_Bridge_rxBufferRead
 722 006c BA79     		ldrb	r2, [r7, #6]
 723 006e 1A70     		strb	r2, [r3, #0]
 582:.\Generated_Source\PSoC5/UART_Bridge.c **** 
 583:.\Generated_Source\PSoC5/UART_Bridge.c ****                 if(UART_Bridge_rxBufferLoopDetect > 0u )
 724              		.loc 1 583 0
ARM GAS  C:\DOCUME~1\ADMINI~1\LOCALS~1\Temp\ccTmPqfn.s 			page 24


 725 0070 40F20003 		movw	r3, #:lower16:UART_Bridge_rxBufferLoopDetect
 726 0074 C0F20003 		movt	r3, #:upper16:UART_Bridge_rxBufferLoopDetect
 727 0078 1B78     		ldrb	r3, [r3, #0]
 728 007a DBB2     		uxtb	r3, r3
 729 007c 002B     		cmp	r3, #0
 730 007e 21D0     		beq	.L38
 584:.\Generated_Source\PSoC5/UART_Bridge.c ****                 {
 585:.\Generated_Source\PSoC5/UART_Bridge.c ****                     UART_Bridge_rxBufferLoopDetect = 0u;
 731              		.loc 1 585 0
 732 0080 40F20003 		movw	r3, #:lower16:UART_Bridge_rxBufferLoopDetect
 733 0084 C0F20003 		movt	r3, #:upper16:UART_Bridge_rxBufferLoopDetect
 734 0088 4FF00002 		mov	r2, #0
 735 008c 1A70     		strb	r2, [r3, #0]
 736              		.loc 1 572 0
 737 008e 1AE0     		b	.L36
 738              	.L33:
 586:.\Generated_Source\PSoC5/UART_Bridge.c ****                     #if( (UART_Bridge_RX_INTERRUPT_ENABLED) && (UART_Bridge_FLOW_CONTROL != 0u) )
 587:.\Generated_Source\PSoC5/UART_Bridge.c ****                         /* When Hardware Flow Control selected - return RX mask */
 588:.\Generated_Source\PSoC5/UART_Bridge.c ****                         #if( UART_Bridge_HD_ENABLED )
 589:.\Generated_Source\PSoC5/UART_Bridge.c ****                             if((UART_Bridge_CONTROL_REG & UART_Bridge_CTRL_HD_SEND) == 0u)
 590:.\Generated_Source\PSoC5/UART_Bridge.c ****                             {   /* In Half duplex mode return RX mask only if
 591:.\Generated_Source\PSoC5/UART_Bridge.c ****                                 *  RX configuration set, otherwise
 592:.\Generated_Source\PSoC5/UART_Bridge.c ****                                 *  mask will be returned in LoadRxConfig() API.
 593:.\Generated_Source\PSoC5/UART_Bridge.c ****                                 */
 594:.\Generated_Source\PSoC5/UART_Bridge.c ****                                 UART_Bridge_RXSTATUS_MASK_REG  |= UART_Bridge_RX_STS_FIFO_NOTEMPTY;
 595:.\Generated_Source\PSoC5/UART_Bridge.c ****                             }
 596:.\Generated_Source\PSoC5/UART_Bridge.c ****                         #else
 597:.\Generated_Source\PSoC5/UART_Bridge.c ****                             UART_Bridge_RXSTATUS_MASK_REG  |= UART_Bridge_RX_STS_FIFO_NOTEMPTY;
 598:.\Generated_Source\PSoC5/UART_Bridge.c ****                         #endif /* end UART_Bridge_HD_ENABLED */
 599:.\Generated_Source\PSoC5/UART_Bridge.c ****                     #endif /* UART_Bridge_RX_INTERRUPT_ENABLED and Hardware flow control*/
 600:.\Generated_Source\PSoC5/UART_Bridge.c ****                 }
 601:.\Generated_Source\PSoC5/UART_Bridge.c **** 
 602:.\Generated_Source\PSoC5/UART_Bridge.c ****             }
 603:.\Generated_Source\PSoC5/UART_Bridge.c ****             else
 604:.\Generated_Source\PSoC5/UART_Bridge.c ****             {   rxStatus = UART_Bridge_RXSTATUS_REG;
 739              		.loc 1 604 0
 740 0090 46F26543 		movw	r3, #:lower16:1073767525
 741 0094 C4F20003 		movt	r3, #:upper16:1073767525
 742 0098 1B78     		ldrb	r3, [r3, #0]
 743 009a 7B71     		strb	r3, [r7, #5]
 605:.\Generated_Source\PSoC5/UART_Bridge.c ****                 if((rxStatus & UART_Bridge_RX_STS_FIFO_NOTEMPTY) != 0u)
 744              		.loc 1 605 0
 745 009c 7B79     		ldrb	r3, [r7, #5]	@ zero_extendqisi2
 746 009e 03F02003 		and	r3, r3, #32
 747 00a2 002B     		cmp	r3, #0
 748 00a4 0FD0     		beq	.L36
 606:.\Generated_Source\PSoC5/UART_Bridge.c ****                 {   /* Read received data from FIFO*/
 607:.\Generated_Source\PSoC5/UART_Bridge.c ****                     rxData = UART_Bridge_RXDATA_REG;
 749              		.loc 1 607 0
 750 00a6 46F24643 		movw	r3, #:lower16:1073767494
 751 00aa C4F20003 		movt	r3, #:upper16:1073767494
 752 00ae 1B78     		ldrb	r3, [r3, #0]
 753 00b0 3B71     		strb	r3, [r7, #4]
 608:.\Generated_Source\PSoC5/UART_Bridge.c ****                     /*Check status on error*/
 609:.\Generated_Source\PSoC5/UART_Bridge.c ****                     if((rxStatus & (UART_Bridge_RX_STS_BREAK | UART_Bridge_RX_STS_PAR_ERROR |
 754              		.loc 1 609 0
 755 00b2 7B79     		ldrb	r3, [r7, #5]	@ zero_extendqisi2
ARM GAS  C:\DOCUME~1\ADMINI~1\LOCALS~1\Temp\ccTmPqfn.s 			page 25


 756 00b4 03F01E03 		and	r3, r3, #30
 757 00b8 002B     		cmp	r3, #0
 758 00ba 04D0     		beq	.L36
 610:.\Generated_Source\PSoC5/UART_Bridge.c ****                                    UART_Bridge_RX_STS_STOP_ERROR | UART_Bridge_RX_STS_OVERRUN)) != 
 611:.\Generated_Source\PSoC5/UART_Bridge.c ****                     {
 612:.\Generated_Source\PSoC5/UART_Bridge.c ****                         rxData = 0u;
 759              		.loc 1 612 0
 760 00bc 4FF00003 		mov	r3, #0
 761 00c0 3B71     		strb	r3, [r7, #4]
 762 00c2 00E0     		b	.L36
 763              	.L38:
 764              		.loc 1 572 0
 765 00c4 00BF     		nop
 766              	.L36:
 613:.\Generated_Source\PSoC5/UART_Bridge.c ****                     }
 614:.\Generated_Source\PSoC5/UART_Bridge.c ****                 }
 615:.\Generated_Source\PSoC5/UART_Bridge.c ****             }
 616:.\Generated_Source\PSoC5/UART_Bridge.c **** 
 617:.\Generated_Source\PSoC5/UART_Bridge.c ****             /* Enable Rx interrupt. */
 618:.\Generated_Source\PSoC5/UART_Bridge.c ****             #if(UART_Bridge_RX_INTERRUPT_ENABLED)
 619:.\Generated_Source\PSoC5/UART_Bridge.c ****                 UART_Bridge_EnableRxInt();
 767              		.loc 1 619 0
 768 00c6 FFF7FEFF 		bl	UART_Bridge_EnableRxInt
 620:.\Generated_Source\PSoC5/UART_Bridge.c ****             #endif /* UART_Bridge_RX_INTERRUPT_ENABLED */
 621:.\Generated_Source\PSoC5/UART_Bridge.c **** 
 622:.\Generated_Source\PSoC5/UART_Bridge.c ****         #else /* UART_Bridge_RXBUFFERSIZE > UART_Bridge_FIFO_LENGTH */
 623:.\Generated_Source\PSoC5/UART_Bridge.c **** 
 624:.\Generated_Source\PSoC5/UART_Bridge.c ****             rxStatus =UART_Bridge_RXSTATUS_REG;
 625:.\Generated_Source\PSoC5/UART_Bridge.c ****             if((rxStatus & UART_Bridge_RX_STS_FIFO_NOTEMPTY) != 0u)
 626:.\Generated_Source\PSoC5/UART_Bridge.c ****             {   /* Read received data from FIFO*/
 627:.\Generated_Source\PSoC5/UART_Bridge.c ****                 rxData = UART_Bridge_RXDATA_REG;
 628:.\Generated_Source\PSoC5/UART_Bridge.c ****                 /*Check status on error*/
 629:.\Generated_Source\PSoC5/UART_Bridge.c ****                 if((rxStatus & (UART_Bridge_RX_STS_BREAK | UART_Bridge_RX_STS_PAR_ERROR |
 630:.\Generated_Source\PSoC5/UART_Bridge.c ****                                UART_Bridge_RX_STS_STOP_ERROR | UART_Bridge_RX_STS_OVERRUN)) != 0u)
 631:.\Generated_Source\PSoC5/UART_Bridge.c ****                 {
 632:.\Generated_Source\PSoC5/UART_Bridge.c ****                     rxData = 0u;
 633:.\Generated_Source\PSoC5/UART_Bridge.c ****                 }
 634:.\Generated_Source\PSoC5/UART_Bridge.c ****             }
 635:.\Generated_Source\PSoC5/UART_Bridge.c ****         #endif /* UART_Bridge_RXBUFFERSIZE > UART_Bridge_FIFO_LENGTH */
 636:.\Generated_Source\PSoC5/UART_Bridge.c **** 
 637:.\Generated_Source\PSoC5/UART_Bridge.c ****         return(rxData);
 769              		.loc 1 637 0
 770 00ca 3B79     		ldrb	r3, [r7, #4]	@ zero_extendqisi2
 638:.\Generated_Source\PSoC5/UART_Bridge.c ****     }
 771              		.loc 1 638 0
 772 00cc 1846     		mov	r0, r3
 773 00ce 07F10807 		add	r7, r7, #8
 774 00d2 BD46     		mov	sp, r7
 775 00d4 80BD     		pop	{r7, pc}
 776              		.cfi_endproc
 777              	.LFE11:
 778              		.size	UART_Bridge_GetChar, .-UART_Bridge_GetChar
 779 00d6 00BF     		.section	.text.UART_Bridge_GetByte,"ax",%progbits
 780              		.align	2
 781              		.global	UART_Bridge_GetByte
 782              		.thumb
 783              		.thumb_func
ARM GAS  C:\DOCUME~1\ADMINI~1\LOCALS~1\Temp\ccTmPqfn.s 			page 26


 784              		.type	UART_Bridge_GetByte, %function
 785              	UART_Bridge_GetByte:
 786              	.LFB12:
 639:.\Generated_Source\PSoC5/UART_Bridge.c **** 
 640:.\Generated_Source\PSoC5/UART_Bridge.c **** 
 641:.\Generated_Source\PSoC5/UART_Bridge.c ****     /*******************************************************************************
 642:.\Generated_Source\PSoC5/UART_Bridge.c ****     * Function Name: UART_Bridge_GetByte
 643:.\Generated_Source\PSoC5/UART_Bridge.c ****     ********************************************************************************
 644:.\Generated_Source\PSoC5/UART_Bridge.c ****     *
 645:.\Generated_Source\PSoC5/UART_Bridge.c ****     * Summary:
 646:.\Generated_Source\PSoC5/UART_Bridge.c ****     *  Grab the next available byte of data from the recieve FIFO
 647:.\Generated_Source\PSoC5/UART_Bridge.c ****     *
 648:.\Generated_Source\PSoC5/UART_Bridge.c ****     * Parameters:
 649:.\Generated_Source\PSoC5/UART_Bridge.c ****     *  None.
 650:.\Generated_Source\PSoC5/UART_Bridge.c ****     *
 651:.\Generated_Source\PSoC5/UART_Bridge.c ****     * Return:
 652:.\Generated_Source\PSoC5/UART_Bridge.c ****     *  MSB contains Status Register and LSB contains UART RX data
 653:.\Generated_Source\PSoC5/UART_Bridge.c ****     *
 654:.\Generated_Source\PSoC5/UART_Bridge.c ****     * Reentrant:
 655:.\Generated_Source\PSoC5/UART_Bridge.c ****     *  No.
 656:.\Generated_Source\PSoC5/UART_Bridge.c ****     *
 657:.\Generated_Source\PSoC5/UART_Bridge.c ****     *******************************************************************************/
 658:.\Generated_Source\PSoC5/UART_Bridge.c ****     uint16 UART_Bridge_GetByte(void) 
 659:.\Generated_Source\PSoC5/UART_Bridge.c ****     {
 787              		.loc 1 659 0
 788              		.cfi_startproc
 789              		@ args = 0, pretend = 0, frame = 0
 790              		@ frame_needed = 1, uses_anonymous_args = 0
 791 0000 98B5     		push	{r3, r4, r7, lr}
 792              	.LCFI31:
 793              		.cfi_def_cfa_offset 16
 794 0002 00AF     		add	r7, sp, #0
 795              		.cfi_offset 14, -4
 796              		.cfi_offset 7, -8
 797              		.cfi_offset 4, -12
 798              		.cfi_offset 3, -16
 799              	.LCFI32:
 800              		.cfi_def_cfa_register 7
 660:.\Generated_Source\PSoC5/UART_Bridge.c ****         return ( ((uint16)UART_Bridge_ReadRxStatus() << 8u) | UART_Bridge_ReadRxData() );
 801              		.loc 1 660 0
 802 0004 FFF7FEFF 		bl	UART_Bridge_ReadRxStatus
 803 0008 0346     		mov	r3, r0
 804 000a 4FEA0323 		lsl	r3, r3, #8
 805 000e 9CB2     		uxth	r4, r3
 806 0010 FFF7FEFF 		bl	UART_Bridge_ReadRxData
 807 0014 0346     		mov	r3, r0
 808 0016 2246     		mov	r2, r4	@ movhi
 809 0018 42EA0303 		orr	r3, r2, r3
 810 001c 9BB2     		uxth	r3, r3
 811 001e 9BB2     		uxth	r3, r3
 661:.\Generated_Source\PSoC5/UART_Bridge.c ****     }
 812              		.loc 1 661 0
 813 0020 1846     		mov	r0, r3
 814 0022 98BD     		pop	{r3, r4, r7, pc}
 815              		.cfi_endproc
 816              	.LFE12:
 817              		.size	UART_Bridge_GetByte, .-UART_Bridge_GetByte
ARM GAS  C:\DOCUME~1\ADMINI~1\LOCALS~1\Temp\ccTmPqfn.s 			page 27


 818              		.section	.text.UART_Bridge_GetRxBufferSize,"ax",%progbits
 819              		.align	2
 820              		.global	UART_Bridge_GetRxBufferSize
 821              		.thumb
 822              		.thumb_func
 823              		.type	UART_Bridge_GetRxBufferSize, %function
 824              	UART_Bridge_GetRxBufferSize:
 825              	.LFB13:
 662:.\Generated_Source\PSoC5/UART_Bridge.c **** 
 663:.\Generated_Source\PSoC5/UART_Bridge.c **** 
 664:.\Generated_Source\PSoC5/UART_Bridge.c ****     /*******************************************************************************
 665:.\Generated_Source\PSoC5/UART_Bridge.c ****     * Function Name: UART_Bridge_GetRxBufferSize
 666:.\Generated_Source\PSoC5/UART_Bridge.c ****     ********************************************************************************
 667:.\Generated_Source\PSoC5/UART_Bridge.c ****     *
 668:.\Generated_Source\PSoC5/UART_Bridge.c ****     * Summary:
 669:.\Generated_Source\PSoC5/UART_Bridge.c ****     *  Determine the amount of bytes left in the RX buffer and return the count in
 670:.\Generated_Source\PSoC5/UART_Bridge.c ****     *  bytes
 671:.\Generated_Source\PSoC5/UART_Bridge.c ****     *
 672:.\Generated_Source\PSoC5/UART_Bridge.c ****     * Parameters:
 673:.\Generated_Source\PSoC5/UART_Bridge.c ****     *  None.
 674:.\Generated_Source\PSoC5/UART_Bridge.c ****     *
 675:.\Generated_Source\PSoC5/UART_Bridge.c ****     * Return:
 676:.\Generated_Source\PSoC5/UART_Bridge.c ****     *  uint8: Integer count of the number of bytes left
 677:.\Generated_Source\PSoC5/UART_Bridge.c ****     *  in the RX buffer
 678:.\Generated_Source\PSoC5/UART_Bridge.c ****     *
 679:.\Generated_Source\PSoC5/UART_Bridge.c ****     * Global Variables:
 680:.\Generated_Source\PSoC5/UART_Bridge.c ****     *  UART_Bridge_rxBufferWrite - used to calculate left bytes.
 681:.\Generated_Source\PSoC5/UART_Bridge.c ****     *  UART_Bridge_rxBufferRead - used to calculate left bytes.
 682:.\Generated_Source\PSoC5/UART_Bridge.c ****     *  UART_Bridge_rxBufferLoopDetect - checked to decide left bytes amount.
 683:.\Generated_Source\PSoC5/UART_Bridge.c ****     *
 684:.\Generated_Source\PSoC5/UART_Bridge.c ****     * Reentrant:
 685:.\Generated_Source\PSoC5/UART_Bridge.c ****     *  No.
 686:.\Generated_Source\PSoC5/UART_Bridge.c ****     *
 687:.\Generated_Source\PSoC5/UART_Bridge.c ****     * Theory:
 688:.\Generated_Source\PSoC5/UART_Bridge.c ****     *  Allows the user to find out how full the RX Buffer is.
 689:.\Generated_Source\PSoC5/UART_Bridge.c ****     *
 690:.\Generated_Source\PSoC5/UART_Bridge.c ****     *******************************************************************************/
 691:.\Generated_Source\PSoC5/UART_Bridge.c ****     uint8 UART_Bridge_GetRxBufferSize(void)
 692:.\Generated_Source\PSoC5/UART_Bridge.c ****                                                             
 693:.\Generated_Source\PSoC5/UART_Bridge.c ****     {
 826              		.loc 1 693 0
 827              		.cfi_startproc
 828              		@ args = 0, pretend = 0, frame = 8
 829              		@ frame_needed = 1, uses_anonymous_args = 0
 830 0000 80B5     		push	{r7, lr}
 831              	.LCFI33:
 832              		.cfi_def_cfa_offset 8
 833 0002 82B0     		sub	sp, sp, #8
 834              	.LCFI34:
 835              		.cfi_def_cfa_offset 16
 836 0004 00AF     		add	r7, sp, #0
 837              		.cfi_offset 14, -4
 838              		.cfi_offset 7, -8
 839              	.LCFI35:
 840              		.cfi_def_cfa_register 7
 694:.\Generated_Source\PSoC5/UART_Bridge.c ****         uint8 size;
 695:.\Generated_Source\PSoC5/UART_Bridge.c **** 
ARM GAS  C:\DOCUME~1\ADMINI~1\LOCALS~1\Temp\ccTmPqfn.s 			page 28


 696:.\Generated_Source\PSoC5/UART_Bridge.c ****         #if(UART_Bridge_RXBUFFERSIZE > UART_Bridge_FIFO_LENGTH)
 697:.\Generated_Source\PSoC5/UART_Bridge.c **** 
 698:.\Generated_Source\PSoC5/UART_Bridge.c ****             /* Disable Rx interrupt. */
 699:.\Generated_Source\PSoC5/UART_Bridge.c ****             /* Protect variables that could change on interrupt. */
 700:.\Generated_Source\PSoC5/UART_Bridge.c ****             #if(UART_Bridge_RX_INTERRUPT_ENABLED)
 701:.\Generated_Source\PSoC5/UART_Bridge.c ****                 UART_Bridge_DisableRxInt();
 841              		.loc 1 701 0
 842 0006 FFF7FEFF 		bl	UART_Bridge_DisableRxInt
 702:.\Generated_Source\PSoC5/UART_Bridge.c ****             #endif /* UART_Bridge_RX_INTERRUPT_ENABLED */
 703:.\Generated_Source\PSoC5/UART_Bridge.c **** 
 704:.\Generated_Source\PSoC5/UART_Bridge.c ****             if(UART_Bridge_rxBufferRead == UART_Bridge_rxBufferWrite)
 843              		.loc 1 704 0
 844 000a 40F20003 		movw	r3, #:lower16:UART_Bridge_rxBufferRead
 845 000e C0F20003 		movt	r3, #:upper16:UART_Bridge_rxBufferRead
 846 0012 1B78     		ldrb	r3, [r3, #0]
 847 0014 DAB2     		uxtb	r2, r3
 848 0016 40F20003 		movw	r3, #:lower16:UART_Bridge_rxBufferWrite
 849 001a C0F20003 		movt	r3, #:upper16:UART_Bridge_rxBufferWrite
 850 001e 1B78     		ldrb	r3, [r3, #0]
 851 0020 DBB2     		uxtb	r3, r3
 852 0022 9A42     		cmp	r2, r3
 853 0024 0FD1     		bne	.L42
 705:.\Generated_Source\PSoC5/UART_Bridge.c ****             {
 706:.\Generated_Source\PSoC5/UART_Bridge.c ****                 if(UART_Bridge_rxBufferLoopDetect > 0u)
 854              		.loc 1 706 0
 855 0026 40F20003 		movw	r3, #:lower16:UART_Bridge_rxBufferLoopDetect
 856 002a C0F20003 		movt	r3, #:upper16:UART_Bridge_rxBufferLoopDetect
 857 002e 1B78     		ldrb	r3, [r3, #0]
 858 0030 DBB2     		uxtb	r3, r3
 859 0032 002B     		cmp	r3, #0
 860 0034 03D0     		beq	.L43
 707:.\Generated_Source\PSoC5/UART_Bridge.c ****                 {
 708:.\Generated_Source\PSoC5/UART_Bridge.c ****                     size = UART_Bridge_RXBUFFERSIZE;
 861              		.loc 1 708 0
 862 0036 6FF07F03 		mvn	r3, #127
 863 003a FB71     		strb	r3, [r7, #7]
 709:.\Generated_Source\PSoC5/UART_Bridge.c ****                 }
 710:.\Generated_Source\PSoC5/UART_Bridge.c ****                 else
 711:.\Generated_Source\PSoC5/UART_Bridge.c ****                 {
 712:.\Generated_Source\PSoC5/UART_Bridge.c ****                     size = 0u;
 864              		.loc 1 712 0
 865 003c 33E0     		b	.L45
 866              	.L43:
 867 003e 4FF00003 		mov	r3, #0
 868 0042 FB71     		strb	r3, [r7, #7]
 869 0044 2FE0     		b	.L45
 870              	.L42:
 713:.\Generated_Source\PSoC5/UART_Bridge.c ****                 }
 714:.\Generated_Source\PSoC5/UART_Bridge.c ****             }
 715:.\Generated_Source\PSoC5/UART_Bridge.c ****             else if(UART_Bridge_rxBufferRead < UART_Bridge_rxBufferWrite)
 871              		.loc 1 715 0
 872 0046 40F20003 		movw	r3, #:lower16:UART_Bridge_rxBufferRead
 873 004a C0F20003 		movt	r3, #:upper16:UART_Bridge_rxBufferRead
 874 004e 1B78     		ldrb	r3, [r3, #0]
 875 0050 DAB2     		uxtb	r2, r3
 876 0052 40F20003 		movw	r3, #:lower16:UART_Bridge_rxBufferWrite
 877 0056 C0F20003 		movt	r3, #:upper16:UART_Bridge_rxBufferWrite
ARM GAS  C:\DOCUME~1\ADMINI~1\LOCALS~1\Temp\ccTmPqfn.s 			page 29


 878 005a 1B78     		ldrb	r3, [r3, #0]
 879 005c DBB2     		uxtb	r3, r3
 880 005e 9A42     		cmp	r2, r3
 881 0060 0FD2     		bcs	.L46
 716:.\Generated_Source\PSoC5/UART_Bridge.c ****             {
 717:.\Generated_Source\PSoC5/UART_Bridge.c ****                 size = (UART_Bridge_rxBufferWrite - UART_Bridge_rxBufferRead);
 882              		.loc 1 717 0
 883 0062 40F20003 		movw	r3, #:lower16:UART_Bridge_rxBufferWrite
 884 0066 C0F20003 		movt	r3, #:upper16:UART_Bridge_rxBufferWrite
 885 006a 1B78     		ldrb	r3, [r3, #0]
 886 006c DAB2     		uxtb	r2, r3
 887 006e 40F20003 		movw	r3, #:lower16:UART_Bridge_rxBufferRead
 888 0072 C0F20003 		movt	r3, #:upper16:UART_Bridge_rxBufferRead
 889 0076 1B78     		ldrb	r3, [r3, #0]
 890 0078 DBB2     		uxtb	r3, r3
 891 007a C3EB0203 		rsb	r3, r3, r2
 892 007e FB71     		strb	r3, [r7, #7]
 893 0080 11E0     		b	.L45
 894              	.L46:
 718:.\Generated_Source\PSoC5/UART_Bridge.c ****             }
 719:.\Generated_Source\PSoC5/UART_Bridge.c ****             else
 720:.\Generated_Source\PSoC5/UART_Bridge.c ****             {
 721:.\Generated_Source\PSoC5/UART_Bridge.c ****                 size = (UART_Bridge_RXBUFFERSIZE - UART_Bridge_rxBufferRead) + UART_Bridge_rxBuffer
 895              		.loc 1 721 0
 896 0082 40F20003 		movw	r3, #:lower16:UART_Bridge_rxBufferWrite
 897 0086 C0F20003 		movt	r3, #:upper16:UART_Bridge_rxBufferWrite
 898 008a 1B78     		ldrb	r3, [r3, #0]
 899 008c DAB2     		uxtb	r2, r3
 900 008e 40F20003 		movw	r3, #:lower16:UART_Bridge_rxBufferRead
 901 0092 C0F20003 		movt	r3, #:upper16:UART_Bridge_rxBufferRead
 902 0096 1B78     		ldrb	r3, [r3, #0]
 903 0098 DBB2     		uxtb	r3, r3
 904 009a C3EB0203 		rsb	r3, r3, r2
 905 009e DBB2     		uxtb	r3, r3
 906 00a0 A3F18003 		sub	r3, r3, #128
 907 00a4 FB71     		strb	r3, [r7, #7]
 908              	.L45:
 722:.\Generated_Source\PSoC5/UART_Bridge.c ****             }
 723:.\Generated_Source\PSoC5/UART_Bridge.c **** 
 724:.\Generated_Source\PSoC5/UART_Bridge.c ****             /* Enable Rx interrupt. */
 725:.\Generated_Source\PSoC5/UART_Bridge.c ****             #if(UART_Bridge_RX_INTERRUPT_ENABLED)
 726:.\Generated_Source\PSoC5/UART_Bridge.c ****                 UART_Bridge_EnableRxInt();
 909              		.loc 1 726 0
 910 00a6 FFF7FEFF 		bl	UART_Bridge_EnableRxInt
 727:.\Generated_Source\PSoC5/UART_Bridge.c ****             #endif /* End UART_Bridge_RX_INTERRUPT_ENABLED */
 728:.\Generated_Source\PSoC5/UART_Bridge.c **** 
 729:.\Generated_Source\PSoC5/UART_Bridge.c ****         #else /* UART_Bridge_RXBUFFERSIZE > UART_Bridge_FIFO_LENGTH */
 730:.\Generated_Source\PSoC5/UART_Bridge.c **** 
 731:.\Generated_Source\PSoC5/UART_Bridge.c ****             /* We can only know if there is data in the fifo. */
 732:.\Generated_Source\PSoC5/UART_Bridge.c ****             size = ((UART_Bridge_RXSTATUS_REG & UART_Bridge_RX_STS_FIFO_NOTEMPTY) != 0u) ? 1u : 0u;
 733:.\Generated_Source\PSoC5/UART_Bridge.c **** 
 734:.\Generated_Source\PSoC5/UART_Bridge.c ****         #endif /* End UART_Bridge_RXBUFFERSIZE > UART_Bridge_FIFO_LENGTH */
 735:.\Generated_Source\PSoC5/UART_Bridge.c **** 
 736:.\Generated_Source\PSoC5/UART_Bridge.c ****         return(size);
 911              		.loc 1 736 0
 912 00aa FB79     		ldrb	r3, [r7, #7]	@ zero_extendqisi2
 737:.\Generated_Source\PSoC5/UART_Bridge.c ****     }
ARM GAS  C:\DOCUME~1\ADMINI~1\LOCALS~1\Temp\ccTmPqfn.s 			page 30


 913              		.loc 1 737 0
 914 00ac 1846     		mov	r0, r3
 915 00ae 07F10807 		add	r7, r7, #8
 916 00b2 BD46     		mov	sp, r7
 917 00b4 80BD     		pop	{r7, pc}
 918              		.cfi_endproc
 919              	.LFE13:
 920              		.size	UART_Bridge_GetRxBufferSize, .-UART_Bridge_GetRxBufferSize
 921 00b6 00BF     		.section	.text.UART_Bridge_ClearRxBuffer,"ax",%progbits
 922              		.align	2
 923              		.global	UART_Bridge_ClearRxBuffer
 924              		.thumb
 925              		.thumb_func
 926              		.type	UART_Bridge_ClearRxBuffer, %function
 927              	UART_Bridge_ClearRxBuffer:
 928              	.LFB14:
 738:.\Generated_Source\PSoC5/UART_Bridge.c **** 
 739:.\Generated_Source\PSoC5/UART_Bridge.c **** 
 740:.\Generated_Source\PSoC5/UART_Bridge.c ****     /*******************************************************************************
 741:.\Generated_Source\PSoC5/UART_Bridge.c ****     * Function Name: UART_Bridge_ClearRxBuffer
 742:.\Generated_Source\PSoC5/UART_Bridge.c ****     ********************************************************************************
 743:.\Generated_Source\PSoC5/UART_Bridge.c ****     *
 744:.\Generated_Source\PSoC5/UART_Bridge.c ****     * Summary:
 745:.\Generated_Source\PSoC5/UART_Bridge.c ****     *  Clears the RX RAM buffer by setting the read and write pointers both to zero.
 746:.\Generated_Source\PSoC5/UART_Bridge.c ****     *  Clears hardware RX FIFO.
 747:.\Generated_Source\PSoC5/UART_Bridge.c ****     *
 748:.\Generated_Source\PSoC5/UART_Bridge.c ****     * Parameters:
 749:.\Generated_Source\PSoC5/UART_Bridge.c ****     *  None.
 750:.\Generated_Source\PSoC5/UART_Bridge.c ****     *
 751:.\Generated_Source\PSoC5/UART_Bridge.c ****     * Return:
 752:.\Generated_Source\PSoC5/UART_Bridge.c ****     *  None.
 753:.\Generated_Source\PSoC5/UART_Bridge.c ****     *
 754:.\Generated_Source\PSoC5/UART_Bridge.c ****     * Global Variables:
 755:.\Generated_Source\PSoC5/UART_Bridge.c ****     *  UART_Bridge_rxBufferWrite - cleared to zero.
 756:.\Generated_Source\PSoC5/UART_Bridge.c ****     *  UART_Bridge_rxBufferRead - cleared to zero.
 757:.\Generated_Source\PSoC5/UART_Bridge.c ****     *  UART_Bridge_rxBufferLoopDetect - cleared to zero.
 758:.\Generated_Source\PSoC5/UART_Bridge.c ****     *  UART_Bridge_rxBufferOverflow - cleared to zero.
 759:.\Generated_Source\PSoC5/UART_Bridge.c ****     *
 760:.\Generated_Source\PSoC5/UART_Bridge.c ****     * Reentrant:
 761:.\Generated_Source\PSoC5/UART_Bridge.c ****     *  No.
 762:.\Generated_Source\PSoC5/UART_Bridge.c ****     *
 763:.\Generated_Source\PSoC5/UART_Bridge.c ****     * Theory:
 764:.\Generated_Source\PSoC5/UART_Bridge.c ****     *  Setting the pointers to zero makes the system believe there is no data to
 765:.\Generated_Source\PSoC5/UART_Bridge.c ****     *  read and writing will resume at address 0 overwriting any data that may
 766:.\Generated_Source\PSoC5/UART_Bridge.c ****     *  have remained in the RAM.
 767:.\Generated_Source\PSoC5/UART_Bridge.c ****     *
 768:.\Generated_Source\PSoC5/UART_Bridge.c ****     * Side Effects:
 769:.\Generated_Source\PSoC5/UART_Bridge.c ****     *  Any received data not read from the RAM or FIFO buffer will be lost.
 770:.\Generated_Source\PSoC5/UART_Bridge.c ****     *******************************************************************************/
 771:.\Generated_Source\PSoC5/UART_Bridge.c ****     void UART_Bridge_ClearRxBuffer(void) 
 772:.\Generated_Source\PSoC5/UART_Bridge.c ****     {
 929              		.loc 1 772 0
 930              		.cfi_startproc
 931              		@ args = 0, pretend = 0, frame = 8
 932              		@ frame_needed = 1, uses_anonymous_args = 0
 933 0000 80B5     		push	{r7, lr}
 934              	.LCFI36:
ARM GAS  C:\DOCUME~1\ADMINI~1\LOCALS~1\Temp\ccTmPqfn.s 			page 31


 935              		.cfi_def_cfa_offset 8
 936 0002 82B0     		sub	sp, sp, #8
 937              	.LCFI37:
 938              		.cfi_def_cfa_offset 16
 939 0004 00AF     		add	r7, sp, #0
 940              		.cfi_offset 14, -4
 941              		.cfi_offset 7, -8
 942              	.LCFI38:
 943              		.cfi_def_cfa_register 7
 773:.\Generated_Source\PSoC5/UART_Bridge.c ****         uint8 enableInterrupts;
 774:.\Generated_Source\PSoC5/UART_Bridge.c **** 
 775:.\Generated_Source\PSoC5/UART_Bridge.c ****         /* clear the HW FIFO */
 776:.\Generated_Source\PSoC5/UART_Bridge.c ****         /* Enter critical section */
 777:.\Generated_Source\PSoC5/UART_Bridge.c ****         enableInterrupts = CyEnterCriticalSection();
 944              		.loc 1 777 0
 945 0006 FFF7FEFF 		bl	CyEnterCriticalSection
 946 000a 0346     		mov	r3, r0
 947 000c FB71     		strb	r3, [r7, #7]
 778:.\Generated_Source\PSoC5/UART_Bridge.c ****         UART_Bridge_RXDATA_AUX_CTL_REG |=  UART_Bridge_RX_FIFO_CLR;
 948              		.loc 1 778 0
 949 000e 46F29643 		movw	r3, #:lower16:1073767574
 950 0012 C4F20003 		movt	r3, #:upper16:1073767574
 951 0016 46F29642 		movw	r2, #:lower16:1073767574
 952 001a C4F20002 		movt	r2, #:upper16:1073767574
 953 001e 1278     		ldrb	r2, [r2, #0]
 954 0020 D2B2     		uxtb	r2, r2
 955 0022 42F00102 		orr	r2, r2, #1
 956 0026 D2B2     		uxtb	r2, r2
 957 0028 1A70     		strb	r2, [r3, #0]
 779:.\Generated_Source\PSoC5/UART_Bridge.c ****         UART_Bridge_RXDATA_AUX_CTL_REG &= (uint8)~UART_Bridge_RX_FIFO_CLR;
 958              		.loc 1 779 0
 959 002a 46F29643 		movw	r3, #:lower16:1073767574
 960 002e C4F20003 		movt	r3, #:upper16:1073767574
 961 0032 46F29642 		movw	r2, #:lower16:1073767574
 962 0036 C4F20002 		movt	r2, #:upper16:1073767574
 963 003a 1278     		ldrb	r2, [r2, #0]
 964 003c D2B2     		uxtb	r2, r2
 965 003e 02F0FE02 		and	r2, r2, #254
 966 0042 1A70     		strb	r2, [r3, #0]
 780:.\Generated_Source\PSoC5/UART_Bridge.c ****         /* Exit critical section */
 781:.\Generated_Source\PSoC5/UART_Bridge.c ****         CyExitCriticalSection(enableInterrupts);
 967              		.loc 1 781 0
 968 0044 FB79     		ldrb	r3, [r7, #7]	@ zero_extendqisi2
 969 0046 1846     		mov	r0, r3
 970 0048 FFF7FEFF 		bl	CyExitCriticalSection
 782:.\Generated_Source\PSoC5/UART_Bridge.c **** 
 783:.\Generated_Source\PSoC5/UART_Bridge.c ****         #if(UART_Bridge_RXBUFFERSIZE > UART_Bridge_FIFO_LENGTH)
 784:.\Generated_Source\PSoC5/UART_Bridge.c ****             /* Disable Rx interrupt. */
 785:.\Generated_Source\PSoC5/UART_Bridge.c ****             /* Protect variables that could change on interrupt. */
 786:.\Generated_Source\PSoC5/UART_Bridge.c ****             #if(UART_Bridge_RX_INTERRUPT_ENABLED)
 787:.\Generated_Source\PSoC5/UART_Bridge.c ****                 UART_Bridge_DisableRxInt();
 971              		.loc 1 787 0
 972 004c FFF7FEFF 		bl	UART_Bridge_DisableRxInt
 788:.\Generated_Source\PSoC5/UART_Bridge.c ****             #endif /* End UART_Bridge_RX_INTERRUPT_ENABLED */
 789:.\Generated_Source\PSoC5/UART_Bridge.c **** 
 790:.\Generated_Source\PSoC5/UART_Bridge.c ****             UART_Bridge_rxBufferRead = 0u;
 973              		.loc 1 790 0
ARM GAS  C:\DOCUME~1\ADMINI~1\LOCALS~1\Temp\ccTmPqfn.s 			page 32


 974 0050 40F20003 		movw	r3, #:lower16:UART_Bridge_rxBufferRead
 975 0054 C0F20003 		movt	r3, #:upper16:UART_Bridge_rxBufferRead
 976 0058 4FF00002 		mov	r2, #0
 977 005c 1A70     		strb	r2, [r3, #0]
 791:.\Generated_Source\PSoC5/UART_Bridge.c ****             UART_Bridge_rxBufferWrite = 0u;
 978              		.loc 1 791 0
 979 005e 40F20003 		movw	r3, #:lower16:UART_Bridge_rxBufferWrite
 980 0062 C0F20003 		movt	r3, #:upper16:UART_Bridge_rxBufferWrite
 981 0066 4FF00002 		mov	r2, #0
 982 006a 1A70     		strb	r2, [r3, #0]
 792:.\Generated_Source\PSoC5/UART_Bridge.c ****             UART_Bridge_rxBufferLoopDetect = 0u;
 983              		.loc 1 792 0
 984 006c 40F20003 		movw	r3, #:lower16:UART_Bridge_rxBufferLoopDetect
 985 0070 C0F20003 		movt	r3, #:upper16:UART_Bridge_rxBufferLoopDetect
 986 0074 4FF00002 		mov	r2, #0
 987 0078 1A70     		strb	r2, [r3, #0]
 793:.\Generated_Source\PSoC5/UART_Bridge.c ****             UART_Bridge_rxBufferOverflow = 0u;
 988              		.loc 1 793 0
 989 007a 40F20003 		movw	r3, #:lower16:UART_Bridge_rxBufferOverflow
 990 007e C0F20003 		movt	r3, #:upper16:UART_Bridge_rxBufferOverflow
 991 0082 4FF00002 		mov	r2, #0
 992 0086 1A70     		strb	r2, [r3, #0]
 794:.\Generated_Source\PSoC5/UART_Bridge.c **** 
 795:.\Generated_Source\PSoC5/UART_Bridge.c ****             /* Enable Rx interrupt. */
 796:.\Generated_Source\PSoC5/UART_Bridge.c ****             #if(UART_Bridge_RX_INTERRUPT_ENABLED)
 797:.\Generated_Source\PSoC5/UART_Bridge.c ****                 UART_Bridge_EnableRxInt();
 993              		.loc 1 797 0
 994 0088 FFF7FEFF 		bl	UART_Bridge_EnableRxInt
 798:.\Generated_Source\PSoC5/UART_Bridge.c ****             #endif /* End UART_Bridge_RX_INTERRUPT_ENABLED */
 799:.\Generated_Source\PSoC5/UART_Bridge.c ****         #endif /* End UART_Bridge_RXBUFFERSIZE > UART_Bridge_FIFO_LENGTH */
 800:.\Generated_Source\PSoC5/UART_Bridge.c **** 
 801:.\Generated_Source\PSoC5/UART_Bridge.c ****     }
 995              		.loc 1 801 0
 996 008c 07F10807 		add	r7, r7, #8
 997 0090 BD46     		mov	sp, r7
 998 0092 80BD     		pop	{r7, pc}
 999              		.cfi_endproc
 1000              	.LFE14:
 1001              		.size	UART_Bridge_ClearRxBuffer, .-UART_Bridge_ClearRxBuffer
 1002              		.section	.text.UART_Bridge_SetRxAddressMode,"ax",%progbits
 1003              		.align	2
 1004              		.global	UART_Bridge_SetRxAddressMode
 1005              		.thumb
 1006              		.thumb_func
 1007              		.type	UART_Bridge_SetRxAddressMode, %function
 1008              	UART_Bridge_SetRxAddressMode:
 1009              	.LFB15:
 802:.\Generated_Source\PSoC5/UART_Bridge.c **** 
 803:.\Generated_Source\PSoC5/UART_Bridge.c **** 
 804:.\Generated_Source\PSoC5/UART_Bridge.c ****     /*******************************************************************************
 805:.\Generated_Source\PSoC5/UART_Bridge.c ****     * Function Name: UART_Bridge_SetRxAddressMode
 806:.\Generated_Source\PSoC5/UART_Bridge.c ****     ********************************************************************************
 807:.\Generated_Source\PSoC5/UART_Bridge.c ****     *
 808:.\Generated_Source\PSoC5/UART_Bridge.c ****     * Summary:
 809:.\Generated_Source\PSoC5/UART_Bridge.c ****     *  Set the receive addressing mode
 810:.\Generated_Source\PSoC5/UART_Bridge.c ****     *
 811:.\Generated_Source\PSoC5/UART_Bridge.c ****     * Parameters:
ARM GAS  C:\DOCUME~1\ADMINI~1\LOCALS~1\Temp\ccTmPqfn.s 			page 33


 812:.\Generated_Source\PSoC5/UART_Bridge.c ****     *  addressMode: Enumerated value indicating the mode of RX addressing
 813:.\Generated_Source\PSoC5/UART_Bridge.c ****     *  UART_Bridge__B_UART__AM_SW_BYTE_BYTE -  Software Byte-by-Byte address
 814:.\Generated_Source\PSoC5/UART_Bridge.c ****     *                                               detection
 815:.\Generated_Source\PSoC5/UART_Bridge.c ****     *  UART_Bridge__B_UART__AM_SW_DETECT_TO_BUFFER - Software Detect to Buffer
 816:.\Generated_Source\PSoC5/UART_Bridge.c ****     *                                               address detection
 817:.\Generated_Source\PSoC5/UART_Bridge.c ****     *  UART_Bridge__B_UART__AM_HW_BYTE_BY_BYTE - Hardware Byte-by-Byte address
 818:.\Generated_Source\PSoC5/UART_Bridge.c ****     *                                               detection
 819:.\Generated_Source\PSoC5/UART_Bridge.c ****     *  UART_Bridge__B_UART__AM_HW_DETECT_TO_BUFFER - Hardware Detect to Buffer
 820:.\Generated_Source\PSoC5/UART_Bridge.c ****     *                                               address detection
 821:.\Generated_Source\PSoC5/UART_Bridge.c ****     *  UART_Bridge__B_UART__AM_NONE - No address detection
 822:.\Generated_Source\PSoC5/UART_Bridge.c ****     *
 823:.\Generated_Source\PSoC5/UART_Bridge.c ****     * Return:
 824:.\Generated_Source\PSoC5/UART_Bridge.c ****     *  None.
 825:.\Generated_Source\PSoC5/UART_Bridge.c ****     *
 826:.\Generated_Source\PSoC5/UART_Bridge.c ****     * Global Variables:
 827:.\Generated_Source\PSoC5/UART_Bridge.c ****     *  UART_Bridge_rxAddressMode - the parameter stored in this variable for
 828:.\Generated_Source\PSoC5/UART_Bridge.c ****     *   the farther usage in RX ISR.
 829:.\Generated_Source\PSoC5/UART_Bridge.c ****     *  UART_Bridge_rxAddressDetected - set to initial state (0).
 830:.\Generated_Source\PSoC5/UART_Bridge.c ****     *
 831:.\Generated_Source\PSoC5/UART_Bridge.c ****     *******************************************************************************/
 832:.\Generated_Source\PSoC5/UART_Bridge.c ****     void UART_Bridge_SetRxAddressMode(uint8 addressMode)
 833:.\Generated_Source\PSoC5/UART_Bridge.c ****                                                         
 834:.\Generated_Source\PSoC5/UART_Bridge.c ****     {
 1010              		.loc 1 834 0
 1011              		.cfi_startproc
 1012              		@ args = 0, pretend = 0, frame = 8
 1013              		@ frame_needed = 1, uses_anonymous_args = 0
 1014              		@ link register save eliminated.
 1015 0000 80B4     		push	{r7}
 1016              	.LCFI39:
 1017              		.cfi_def_cfa_offset 4
 1018 0002 83B0     		sub	sp, sp, #12
 1019              	.LCFI40:
 1020              		.cfi_def_cfa_offset 16
 1021 0004 00AF     		add	r7, sp, #0
 1022              		.cfi_offset 7, -4
 1023              	.LCFI41:
 1024              		.cfi_def_cfa_register 7
 1025 0006 0346     		mov	r3, r0
 1026 0008 FB71     		strb	r3, [r7, #7]
 835:.\Generated_Source\PSoC5/UART_Bridge.c ****         #if(UART_Bridge_RXHW_ADDRESS_ENABLED)
 836:.\Generated_Source\PSoC5/UART_Bridge.c ****             #if(UART_Bridge_CONTROL_REG_REMOVED)
 837:.\Generated_Source\PSoC5/UART_Bridge.c ****                 if(addressMode != 0u) { }     /* release compiler warning */
 838:.\Generated_Source\PSoC5/UART_Bridge.c ****             #else /* UART_Bridge_CONTROL_REG_REMOVED */
 839:.\Generated_Source\PSoC5/UART_Bridge.c ****                 uint8 tmpCtrl;
 840:.\Generated_Source\PSoC5/UART_Bridge.c ****                 tmpCtrl = UART_Bridge_CONTROL_REG & (uint8)~UART_Bridge_CTRL_RXADDR_MODE_MASK;
 841:.\Generated_Source\PSoC5/UART_Bridge.c ****                 tmpCtrl |= (uint8)(addressMode << UART_Bridge_CTRL_RXADDR_MODE0_SHIFT);
 842:.\Generated_Source\PSoC5/UART_Bridge.c ****                 UART_Bridge_CONTROL_REG = tmpCtrl;
 843:.\Generated_Source\PSoC5/UART_Bridge.c ****                 #if(UART_Bridge_RX_INTERRUPT_ENABLED && \
 844:.\Generated_Source\PSoC5/UART_Bridge.c ****                    (UART_Bridge_RXBUFFERSIZE > UART_Bridge_FIFO_LENGTH) )
 845:.\Generated_Source\PSoC5/UART_Bridge.c ****                     UART_Bridge_rxAddressMode = addressMode;
 846:.\Generated_Source\PSoC5/UART_Bridge.c ****                     UART_Bridge_rxAddressDetected = 0u;
 847:.\Generated_Source\PSoC5/UART_Bridge.c ****                 #endif /* End UART_Bridge_RXBUFFERSIZE > UART_Bridge_FIFO_LENGTH*/
 848:.\Generated_Source\PSoC5/UART_Bridge.c ****             #endif /* End UART_Bridge_CONTROL_REG_REMOVED */
 849:.\Generated_Source\PSoC5/UART_Bridge.c ****         #else /* UART_Bridge_RXHW_ADDRESS_ENABLED */
 850:.\Generated_Source\PSoC5/UART_Bridge.c ****             if(addressMode != 0u) { }     /* release compiler warning */
 851:.\Generated_Source\PSoC5/UART_Bridge.c ****         #endif /* End UART_Bridge_RXHW_ADDRESS_ENABLED */
ARM GAS  C:\DOCUME~1\ADMINI~1\LOCALS~1\Temp\ccTmPqfn.s 			page 34


 852:.\Generated_Source\PSoC5/UART_Bridge.c ****     }
 1027              		.loc 1 852 0
 1028 000a 07F10C07 		add	r7, r7, #12
 1029 000e BD46     		mov	sp, r7
 1030 0010 80BC     		pop	{r7}
 1031 0012 7047     		bx	lr
 1032              		.cfi_endproc
 1033              	.LFE15:
 1034              		.size	UART_Bridge_SetRxAddressMode, .-UART_Bridge_SetRxAddressMode
 1035              		.section	.text.UART_Bridge_SetRxAddress1,"ax",%progbits
 1036              		.align	2
 1037              		.global	UART_Bridge_SetRxAddress1
 1038              		.thumb
 1039              		.thumb_func
 1040              		.type	UART_Bridge_SetRxAddress1, %function
 1041              	UART_Bridge_SetRxAddress1:
 1042              	.LFB16:
 853:.\Generated_Source\PSoC5/UART_Bridge.c **** 
 854:.\Generated_Source\PSoC5/UART_Bridge.c **** 
 855:.\Generated_Source\PSoC5/UART_Bridge.c ****     /*******************************************************************************
 856:.\Generated_Source\PSoC5/UART_Bridge.c ****     * Function Name: UART_Bridge_SetRxAddress1
 857:.\Generated_Source\PSoC5/UART_Bridge.c ****     ********************************************************************************
 858:.\Generated_Source\PSoC5/UART_Bridge.c ****     *
 859:.\Generated_Source\PSoC5/UART_Bridge.c ****     * Summary:
 860:.\Generated_Source\PSoC5/UART_Bridge.c ****     *  Set the first hardware address compare value
 861:.\Generated_Source\PSoC5/UART_Bridge.c ****     *
 862:.\Generated_Source\PSoC5/UART_Bridge.c ****     * Parameters:
 863:.\Generated_Source\PSoC5/UART_Bridge.c ****     *  address
 864:.\Generated_Source\PSoC5/UART_Bridge.c ****     *
 865:.\Generated_Source\PSoC5/UART_Bridge.c ****     * Return:
 866:.\Generated_Source\PSoC5/UART_Bridge.c ****     *  None.
 867:.\Generated_Source\PSoC5/UART_Bridge.c ****     *
 868:.\Generated_Source\PSoC5/UART_Bridge.c ****     *******************************************************************************/
 869:.\Generated_Source\PSoC5/UART_Bridge.c ****     void UART_Bridge_SetRxAddress1(uint8 address) 
 870:.\Generated_Source\PSoC5/UART_Bridge.c **** 
 871:.\Generated_Source\PSoC5/UART_Bridge.c ****     {
 1043              		.loc 1 871 0
 1044              		.cfi_startproc
 1045              		@ args = 0, pretend = 0, frame = 8
 1046              		@ frame_needed = 1, uses_anonymous_args = 0
 1047              		@ link register save eliminated.
 1048 0000 80B4     		push	{r7}
 1049              	.LCFI42:
 1050              		.cfi_def_cfa_offset 4
 1051 0002 83B0     		sub	sp, sp, #12
 1052              	.LCFI43:
 1053              		.cfi_def_cfa_offset 16
 1054 0004 00AF     		add	r7, sp, #0
 1055              		.cfi_offset 7, -4
 1056              	.LCFI44:
 1057              		.cfi_def_cfa_register 7
 1058 0006 0346     		mov	r3, r0
 1059 0008 FB71     		strb	r3, [r7, #7]
 872:.\Generated_Source\PSoC5/UART_Bridge.c ****         UART_Bridge_RXADDRESS1_REG = address;
 1060              		.loc 1 872 0
 1061 000a 46F22643 		movw	r3, #:lower16:1073767462
 1062 000e C4F20003 		movt	r3, #:upper16:1073767462
ARM GAS  C:\DOCUME~1\ADMINI~1\LOCALS~1\Temp\ccTmPqfn.s 			page 35


 1063 0012 FA79     		ldrb	r2, [r7, #7]
 1064 0014 1A70     		strb	r2, [r3, #0]
 873:.\Generated_Source\PSoC5/UART_Bridge.c ****     }
 1065              		.loc 1 873 0
 1066 0016 07F10C07 		add	r7, r7, #12
 1067 001a BD46     		mov	sp, r7
 1068 001c 80BC     		pop	{r7}
 1069 001e 7047     		bx	lr
 1070              		.cfi_endproc
 1071              	.LFE16:
 1072              		.size	UART_Bridge_SetRxAddress1, .-UART_Bridge_SetRxAddress1
 1073              		.section	.text.UART_Bridge_SetRxAddress2,"ax",%progbits
 1074              		.align	2
 1075              		.global	UART_Bridge_SetRxAddress2
 1076              		.thumb
 1077              		.thumb_func
 1078              		.type	UART_Bridge_SetRxAddress2, %function
 1079              	UART_Bridge_SetRxAddress2:
 1080              	.LFB17:
 874:.\Generated_Source\PSoC5/UART_Bridge.c **** 
 875:.\Generated_Source\PSoC5/UART_Bridge.c **** 
 876:.\Generated_Source\PSoC5/UART_Bridge.c ****     /*******************************************************************************
 877:.\Generated_Source\PSoC5/UART_Bridge.c ****     * Function Name: UART_Bridge_SetRxAddress2
 878:.\Generated_Source\PSoC5/UART_Bridge.c ****     ********************************************************************************
 879:.\Generated_Source\PSoC5/UART_Bridge.c ****     *
 880:.\Generated_Source\PSoC5/UART_Bridge.c ****     * Summary:
 881:.\Generated_Source\PSoC5/UART_Bridge.c ****     *  Set the second hardware address compare value
 882:.\Generated_Source\PSoC5/UART_Bridge.c ****     *
 883:.\Generated_Source\PSoC5/UART_Bridge.c ****     * Parameters:
 884:.\Generated_Source\PSoC5/UART_Bridge.c ****     *  address
 885:.\Generated_Source\PSoC5/UART_Bridge.c ****     *
 886:.\Generated_Source\PSoC5/UART_Bridge.c ****     * Return:
 887:.\Generated_Source\PSoC5/UART_Bridge.c ****     *  None.
 888:.\Generated_Source\PSoC5/UART_Bridge.c ****     *
 889:.\Generated_Source\PSoC5/UART_Bridge.c ****     *******************************************************************************/
 890:.\Generated_Source\PSoC5/UART_Bridge.c ****     void UART_Bridge_SetRxAddress2(uint8 address) 
 891:.\Generated_Source\PSoC5/UART_Bridge.c ****     {
 1081              		.loc 1 891 0
 1082              		.cfi_startproc
 1083              		@ args = 0, pretend = 0, frame = 8
 1084              		@ frame_needed = 1, uses_anonymous_args = 0
 1085              		@ link register save eliminated.
 1086 0000 80B4     		push	{r7}
 1087              	.LCFI45:
 1088              		.cfi_def_cfa_offset 4
 1089 0002 83B0     		sub	sp, sp, #12
 1090              	.LCFI46:
 1091              		.cfi_def_cfa_offset 16
 1092 0004 00AF     		add	r7, sp, #0
 1093              		.cfi_offset 7, -4
 1094              	.LCFI47:
 1095              		.cfi_def_cfa_register 7
 1096 0006 0346     		mov	r3, r0
 1097 0008 FB71     		strb	r3, [r7, #7]
 892:.\Generated_Source\PSoC5/UART_Bridge.c ****         UART_Bridge_RXADDRESS2_REG = address;
 1098              		.loc 1 892 0
 1099 000a 46F23643 		movw	r3, #:lower16:1073767478
ARM GAS  C:\DOCUME~1\ADMINI~1\LOCALS~1\Temp\ccTmPqfn.s 			page 36


 1100 000e C4F20003 		movt	r3, #:upper16:1073767478
 1101 0012 FA79     		ldrb	r2, [r7, #7]
 1102 0014 1A70     		strb	r2, [r3, #0]
 893:.\Generated_Source\PSoC5/UART_Bridge.c ****     }
 1103              		.loc 1 893 0
 1104 0016 07F10C07 		add	r7, r7, #12
 1105 001a BD46     		mov	sp, r7
 1106 001c 80BC     		pop	{r7}
 1107 001e 7047     		bx	lr
 1108              		.cfi_endproc
 1109              	.LFE17:
 1110              		.size	UART_Bridge_SetRxAddress2, .-UART_Bridge_SetRxAddress2
 1111              		.section	.text.UART_Bridge_EnableTxInt,"ax",%progbits
 1112              		.align	2
 1113              		.global	UART_Bridge_EnableTxInt
 1114              		.thumb
 1115              		.thumb_func
 1116              		.type	UART_Bridge_EnableTxInt, %function
 1117              	UART_Bridge_EnableTxInt:
 1118              	.LFB18:
 894:.\Generated_Source\PSoC5/UART_Bridge.c **** 
 895:.\Generated_Source\PSoC5/UART_Bridge.c **** #endif  /* UART_Bridge_RX_ENABLED || UART_Bridge_HD_ENABLED*/
 896:.\Generated_Source\PSoC5/UART_Bridge.c **** 
 897:.\Generated_Source\PSoC5/UART_Bridge.c **** 
 898:.\Generated_Source\PSoC5/UART_Bridge.c **** #if( (UART_Bridge_TX_ENABLED) || (UART_Bridge_HD_ENABLED) )
 899:.\Generated_Source\PSoC5/UART_Bridge.c **** 
 900:.\Generated_Source\PSoC5/UART_Bridge.c ****     #if(UART_Bridge_TX_INTERRUPT_ENABLED)
 901:.\Generated_Source\PSoC5/UART_Bridge.c **** 
 902:.\Generated_Source\PSoC5/UART_Bridge.c ****         /*******************************************************************************
 903:.\Generated_Source\PSoC5/UART_Bridge.c ****         * Function Name: UART_Bridge_EnableTxInt
 904:.\Generated_Source\PSoC5/UART_Bridge.c ****         ********************************************************************************
 905:.\Generated_Source\PSoC5/UART_Bridge.c ****         *
 906:.\Generated_Source\PSoC5/UART_Bridge.c ****         * Summary:
 907:.\Generated_Source\PSoC5/UART_Bridge.c ****         *  Enable TX interrupt generation
 908:.\Generated_Source\PSoC5/UART_Bridge.c ****         *
 909:.\Generated_Source\PSoC5/UART_Bridge.c ****         * Parameters:
 910:.\Generated_Source\PSoC5/UART_Bridge.c ****         *  None.
 911:.\Generated_Source\PSoC5/UART_Bridge.c ****         *
 912:.\Generated_Source\PSoC5/UART_Bridge.c ****         * Return:
 913:.\Generated_Source\PSoC5/UART_Bridge.c ****         *  None.
 914:.\Generated_Source\PSoC5/UART_Bridge.c ****         *
 915:.\Generated_Source\PSoC5/UART_Bridge.c ****         * Theory:
 916:.\Generated_Source\PSoC5/UART_Bridge.c ****         *  Enable the interrupt output -or- the interrupt component itself
 917:.\Generated_Source\PSoC5/UART_Bridge.c ****         *
 918:.\Generated_Source\PSoC5/UART_Bridge.c ****         *******************************************************************************/
 919:.\Generated_Source\PSoC5/UART_Bridge.c ****         void UART_Bridge_EnableTxInt(void) 
 920:.\Generated_Source\PSoC5/UART_Bridge.c ****         {
 1119              		.loc 1 920 0
 1120              		.cfi_startproc
 1121              		@ args = 0, pretend = 0, frame = 0
 1122              		@ frame_needed = 1, uses_anonymous_args = 0
 1123              		@ link register save eliminated.
 1124 0000 80B4     		push	{r7}
 1125              	.LCFI48:
 1126              		.cfi_def_cfa_offset 4
 1127 0002 00AF     		add	r7, sp, #0
 1128              		.cfi_offset 7, -4
ARM GAS  C:\DOCUME~1\ADMINI~1\LOCALS~1\Temp\ccTmPqfn.s 			page 37


 1129              	.LCFI49:
 1130              		.cfi_def_cfa_register 7
 921:.\Generated_Source\PSoC5/UART_Bridge.c ****             CyIntEnable(UART_Bridge_TX_VECT_NUM);
 1131              		.loc 1 921 0
 1132 0004 4EF20013 		movw	r3, #:lower16:-536813312
 1133 0008 CEF20003 		movt	r3, #:upper16:-536813312
 1134 000c 4FF00402 		mov	r2, #4
 1135 0010 1A60     		str	r2, [r3, #0]
 922:.\Generated_Source\PSoC5/UART_Bridge.c ****         }
 1136              		.loc 1 922 0
 1137 0012 BD46     		mov	sp, r7
 1138 0014 80BC     		pop	{r7}
 1139 0016 7047     		bx	lr
 1140              		.cfi_endproc
 1141              	.LFE18:
 1142              		.size	UART_Bridge_EnableTxInt, .-UART_Bridge_EnableTxInt
 1143              		.section	.text.UART_Bridge_DisableTxInt,"ax",%progbits
 1144              		.align	2
 1145              		.global	UART_Bridge_DisableTxInt
 1146              		.thumb
 1147              		.thumb_func
 1148              		.type	UART_Bridge_DisableTxInt, %function
 1149              	UART_Bridge_DisableTxInt:
 1150              	.LFB19:
 923:.\Generated_Source\PSoC5/UART_Bridge.c **** 
 924:.\Generated_Source\PSoC5/UART_Bridge.c **** 
 925:.\Generated_Source\PSoC5/UART_Bridge.c ****         /*******************************************************************************
 926:.\Generated_Source\PSoC5/UART_Bridge.c ****         * Function Name: UART_Bridge_DisableTxInt
 927:.\Generated_Source\PSoC5/UART_Bridge.c ****         ********************************************************************************
 928:.\Generated_Source\PSoC5/UART_Bridge.c ****         *
 929:.\Generated_Source\PSoC5/UART_Bridge.c ****         * Summary:
 930:.\Generated_Source\PSoC5/UART_Bridge.c ****         *  Disable TX interrupt generation
 931:.\Generated_Source\PSoC5/UART_Bridge.c ****         *
 932:.\Generated_Source\PSoC5/UART_Bridge.c ****         * Parameters:
 933:.\Generated_Source\PSoC5/UART_Bridge.c ****         *  None.
 934:.\Generated_Source\PSoC5/UART_Bridge.c ****         *
 935:.\Generated_Source\PSoC5/UART_Bridge.c ****         * Return:
 936:.\Generated_Source\PSoC5/UART_Bridge.c ****         *  None.
 937:.\Generated_Source\PSoC5/UART_Bridge.c ****         *
 938:.\Generated_Source\PSoC5/UART_Bridge.c ****         * Theory:
 939:.\Generated_Source\PSoC5/UART_Bridge.c ****         *  Disable the interrupt output -or- the interrupt component itself
 940:.\Generated_Source\PSoC5/UART_Bridge.c ****         *
 941:.\Generated_Source\PSoC5/UART_Bridge.c ****         *******************************************************************************/
 942:.\Generated_Source\PSoC5/UART_Bridge.c ****         void UART_Bridge_DisableTxInt(void) 
 943:.\Generated_Source\PSoC5/UART_Bridge.c ****         {
 1151              		.loc 1 943 0
 1152              		.cfi_startproc
 1153              		@ args = 0, pretend = 0, frame = 0
 1154              		@ frame_needed = 1, uses_anonymous_args = 0
 1155              		@ link register save eliminated.
 1156 0000 80B4     		push	{r7}
 1157              	.LCFI50:
 1158              		.cfi_def_cfa_offset 4
 1159 0002 00AF     		add	r7, sp, #0
 1160              		.cfi_offset 7, -4
 1161              	.LCFI51:
 1162              		.cfi_def_cfa_register 7
ARM GAS  C:\DOCUME~1\ADMINI~1\LOCALS~1\Temp\ccTmPqfn.s 			page 38


 944:.\Generated_Source\PSoC5/UART_Bridge.c ****             CyIntDisable(UART_Bridge_TX_VECT_NUM);
 1163              		.loc 1 944 0
 1164 0004 4EF28013 		movw	r3, #:lower16:-536813184
 1165 0008 CEF20003 		movt	r3, #:upper16:-536813184
 1166 000c 4FF00402 		mov	r2, #4
 1167 0010 1A60     		str	r2, [r3, #0]
 945:.\Generated_Source\PSoC5/UART_Bridge.c ****         }
 1168              		.loc 1 945 0
 1169 0012 BD46     		mov	sp, r7
 1170 0014 80BC     		pop	{r7}
 1171 0016 7047     		bx	lr
 1172              		.cfi_endproc
 1173              	.LFE19:
 1174              		.size	UART_Bridge_DisableTxInt, .-UART_Bridge_DisableTxInt
 1175              		.section	.text.UART_Bridge_SetTxInterruptMode,"ax",%progbits
 1176              		.align	2
 1177              		.global	UART_Bridge_SetTxInterruptMode
 1178              		.thumb
 1179              		.thumb_func
 1180              		.type	UART_Bridge_SetTxInterruptMode, %function
 1181              	UART_Bridge_SetTxInterruptMode:
 1182              	.LFB20:
 946:.\Generated_Source\PSoC5/UART_Bridge.c **** 
 947:.\Generated_Source\PSoC5/UART_Bridge.c ****     #endif /* UART_Bridge_TX_INTERRUPT_ENABLED */
 948:.\Generated_Source\PSoC5/UART_Bridge.c **** 
 949:.\Generated_Source\PSoC5/UART_Bridge.c **** 
 950:.\Generated_Source\PSoC5/UART_Bridge.c ****     /*******************************************************************************
 951:.\Generated_Source\PSoC5/UART_Bridge.c ****     * Function Name: UART_Bridge_SetTxInterruptMode
 952:.\Generated_Source\PSoC5/UART_Bridge.c ****     ********************************************************************************
 953:.\Generated_Source\PSoC5/UART_Bridge.c ****     *
 954:.\Generated_Source\PSoC5/UART_Bridge.c ****     * Summary:
 955:.\Generated_Source\PSoC5/UART_Bridge.c ****     *  Configure which status bits trigger an interrupt event
 956:.\Generated_Source\PSoC5/UART_Bridge.c ****     *
 957:.\Generated_Source\PSoC5/UART_Bridge.c ****     * Parameters:
 958:.\Generated_Source\PSoC5/UART_Bridge.c ****     *  intSrc: An or'd combination of the desired status bit masks (defined in
 959:.\Generated_Source\PSoC5/UART_Bridge.c ****     *          the header file)
 960:.\Generated_Source\PSoC5/UART_Bridge.c ****     *
 961:.\Generated_Source\PSoC5/UART_Bridge.c ****     * Return:
 962:.\Generated_Source\PSoC5/UART_Bridge.c ****     *  None.
 963:.\Generated_Source\PSoC5/UART_Bridge.c ****     *
 964:.\Generated_Source\PSoC5/UART_Bridge.c ****     * Theory:
 965:.\Generated_Source\PSoC5/UART_Bridge.c ****     *  Enables the output of specific status bits to the interrupt controller
 966:.\Generated_Source\PSoC5/UART_Bridge.c ****     *
 967:.\Generated_Source\PSoC5/UART_Bridge.c ****     *******************************************************************************/
 968:.\Generated_Source\PSoC5/UART_Bridge.c ****     void UART_Bridge_SetTxInterruptMode(uint8 intSrc) 
 969:.\Generated_Source\PSoC5/UART_Bridge.c ****     {
 1183              		.loc 1 969 0
 1184              		.cfi_startproc
 1185              		@ args = 0, pretend = 0, frame = 8
 1186              		@ frame_needed = 1, uses_anonymous_args = 0
 1187              		@ link register save eliminated.
 1188 0000 80B4     		push	{r7}
 1189              	.LCFI52:
 1190              		.cfi_def_cfa_offset 4
 1191 0002 83B0     		sub	sp, sp, #12
 1192              	.LCFI53:
 1193              		.cfi_def_cfa_offset 16
ARM GAS  C:\DOCUME~1\ADMINI~1\LOCALS~1\Temp\ccTmPqfn.s 			page 39


 1194 0004 00AF     		add	r7, sp, #0
 1195              		.cfi_offset 7, -4
 1196              	.LCFI54:
 1197              		.cfi_def_cfa_register 7
 1198 0006 0346     		mov	r3, r0
 1199 0008 FB71     		strb	r3, [r7, #7]
 970:.\Generated_Source\PSoC5/UART_Bridge.c ****         UART_Bridge_TXSTATUS_MASK_REG = intSrc;
 1200              		.loc 1 970 0
 1201 000a 46F28E43 		movw	r3, #:lower16:1073767566
 1202 000e C4F20003 		movt	r3, #:upper16:1073767566
 1203 0012 FA79     		ldrb	r2, [r7, #7]
 1204 0014 1A70     		strb	r2, [r3, #0]
 971:.\Generated_Source\PSoC5/UART_Bridge.c ****     }
 1205              		.loc 1 971 0
 1206 0016 07F10C07 		add	r7, r7, #12
 1207 001a BD46     		mov	sp, r7
 1208 001c 80BC     		pop	{r7}
 1209 001e 7047     		bx	lr
 1210              		.cfi_endproc
 1211              	.LFE20:
 1212              		.size	UART_Bridge_SetTxInterruptMode, .-UART_Bridge_SetTxInterruptMode
 1213              		.section	.text.UART_Bridge_WriteTxData,"ax",%progbits
 1214              		.align	2
 1215              		.global	UART_Bridge_WriteTxData
 1216              		.thumb
 1217              		.thumb_func
 1218              		.type	UART_Bridge_WriteTxData, %function
 1219              	UART_Bridge_WriteTxData:
 1220              	.LFB21:
 972:.\Generated_Source\PSoC5/UART_Bridge.c **** 
 973:.\Generated_Source\PSoC5/UART_Bridge.c **** 
 974:.\Generated_Source\PSoC5/UART_Bridge.c ****     /*******************************************************************************
 975:.\Generated_Source\PSoC5/UART_Bridge.c ****     * Function Name: UART_Bridge_WriteTxData
 976:.\Generated_Source\PSoC5/UART_Bridge.c ****     ********************************************************************************
 977:.\Generated_Source\PSoC5/UART_Bridge.c ****     *
 978:.\Generated_Source\PSoC5/UART_Bridge.c ****     * Summary:
 979:.\Generated_Source\PSoC5/UART_Bridge.c ****     *  Write a byte of data to the Transmit FIFO or TX buffer to be sent when the
 980:.\Generated_Source\PSoC5/UART_Bridge.c ****     *  bus is available. WriteTxData sends a byte without checking for buffer room
 981:.\Generated_Source\PSoC5/UART_Bridge.c ****     *  or status. It is up to the user to separately check status.
 982:.\Generated_Source\PSoC5/UART_Bridge.c ****     *
 983:.\Generated_Source\PSoC5/UART_Bridge.c ****     * Parameters:
 984:.\Generated_Source\PSoC5/UART_Bridge.c ****     *  TXDataByte: byte of data to place in the transmit FIFO
 985:.\Generated_Source\PSoC5/UART_Bridge.c ****     *
 986:.\Generated_Source\PSoC5/UART_Bridge.c ****     * Return:
 987:.\Generated_Source\PSoC5/UART_Bridge.c ****     * void
 988:.\Generated_Source\PSoC5/UART_Bridge.c ****     *
 989:.\Generated_Source\PSoC5/UART_Bridge.c ****     * Global Variables:
 990:.\Generated_Source\PSoC5/UART_Bridge.c ****     *  UART_Bridge_txBuffer - RAM buffer pointer for save data for transmission
 991:.\Generated_Source\PSoC5/UART_Bridge.c ****     *  UART_Bridge_txBufferWrite - cyclic index for write to txBuffer,
 992:.\Generated_Source\PSoC5/UART_Bridge.c ****     *    incremented after each byte saved to buffer.
 993:.\Generated_Source\PSoC5/UART_Bridge.c ****     *  UART_Bridge_txBufferRead - cyclic index for read from txBuffer,
 994:.\Generated_Source\PSoC5/UART_Bridge.c ****     *    checked to identify the condition to write to FIFO directly or to TX buffer
 995:.\Generated_Source\PSoC5/UART_Bridge.c ****     *  UART_Bridge_initVar - checked to identify that the component has been
 996:.\Generated_Source\PSoC5/UART_Bridge.c ****     *    initialized.
 997:.\Generated_Source\PSoC5/UART_Bridge.c ****     *
 998:.\Generated_Source\PSoC5/UART_Bridge.c ****     * Reentrant:
 999:.\Generated_Source\PSoC5/UART_Bridge.c ****     *  No.
ARM GAS  C:\DOCUME~1\ADMINI~1\LOCALS~1\Temp\ccTmPqfn.s 			page 40


1000:.\Generated_Source\PSoC5/UART_Bridge.c ****     *
1001:.\Generated_Source\PSoC5/UART_Bridge.c ****     *******************************************************************************/
1002:.\Generated_Source\PSoC5/UART_Bridge.c ****     void UART_Bridge_WriteTxData(uint8 txDataByte) 
1003:.\Generated_Source\PSoC5/UART_Bridge.c ****     {
 1221              		.loc 1 1003 0
 1222              		.cfi_startproc
 1223              		@ args = 0, pretend = 0, frame = 8
 1224              		@ frame_needed = 1, uses_anonymous_args = 0
 1225 0000 80B5     		push	{r7, lr}
 1226              	.LCFI55:
 1227              		.cfi_def_cfa_offset 8
 1228 0002 82B0     		sub	sp, sp, #8
 1229              	.LCFI56:
 1230              		.cfi_def_cfa_offset 16
 1231 0004 00AF     		add	r7, sp, #0
 1232              		.cfi_offset 14, -4
 1233              		.cfi_offset 7, -8
 1234              	.LCFI57:
 1235              		.cfi_def_cfa_register 7
 1236 0006 0346     		mov	r3, r0
 1237 0008 FB71     		strb	r3, [r7, #7]
1004:.\Generated_Source\PSoC5/UART_Bridge.c ****         /* If not Initialized then skip this function*/
1005:.\Generated_Source\PSoC5/UART_Bridge.c ****         if(UART_Bridge_initVar != 0u)
 1238              		.loc 1 1005 0
 1239 000a 40F20003 		movw	r3, #:lower16:UART_Bridge_initVar
 1240 000e C0F20003 		movt	r3, #:upper16:UART_Bridge_initVar
 1241 0012 1B78     		ldrb	r3, [r3, #0]	@ zero_extendqisi2
 1242 0014 002B     		cmp	r3, #0
 1243 0016 49D0     		beq	.L67
1006:.\Generated_Source\PSoC5/UART_Bridge.c ****         {
1007:.\Generated_Source\PSoC5/UART_Bridge.c ****             #if(UART_Bridge_TXBUFFERSIZE > UART_Bridge_FIFO_LENGTH)
1008:.\Generated_Source\PSoC5/UART_Bridge.c **** 
1009:.\Generated_Source\PSoC5/UART_Bridge.c ****                 /* Disable Tx interrupt. */
1010:.\Generated_Source\PSoC5/UART_Bridge.c ****                 /* Protect variables that could change on interrupt. */
1011:.\Generated_Source\PSoC5/UART_Bridge.c ****                 #if(UART_Bridge_TX_INTERRUPT_ENABLED)
1012:.\Generated_Source\PSoC5/UART_Bridge.c ****                     UART_Bridge_DisableTxInt();
 1244              		.loc 1 1012 0
 1245 0018 FFF7FEFF 		bl	UART_Bridge_DisableTxInt
1013:.\Generated_Source\PSoC5/UART_Bridge.c ****                 #endif /* End UART_Bridge_TX_INTERRUPT_ENABLED */
1014:.\Generated_Source\PSoC5/UART_Bridge.c **** 
1015:.\Generated_Source\PSoC5/UART_Bridge.c ****                 if( (UART_Bridge_txBufferRead == UART_Bridge_txBufferWrite) &&
 1246              		.loc 1 1015 0
 1247 001c 40F20003 		movw	r3, #:lower16:UART_Bridge_txBufferRead
 1248 0020 C0F20003 		movt	r3, #:upper16:UART_Bridge_txBufferRead
 1249 0024 1B78     		ldrb	r3, [r3, #0]
 1250 0026 DAB2     		uxtb	r2, r3
 1251 0028 40F20003 		movw	r3, #:lower16:UART_Bridge_txBufferWrite
 1252 002c C0F20003 		movt	r3, #:upper16:UART_Bridge_txBufferWrite
 1253 0030 1B78     		ldrb	r3, [r3, #0]	@ zero_extendqisi2
 1254 0032 9A42     		cmp	r2, r3
 1255 0034 10D1     		bne	.L64
1016:.\Generated_Source\PSoC5/UART_Bridge.c ****                     ((UART_Bridge_TXSTATUS_REG & UART_Bridge_TX_STS_FIFO_FULL) == 0u) )
 1256              		.loc 1 1016 0
 1257 0036 46F26E43 		movw	r3, #:lower16:1073767534
 1258 003a C4F20003 		movt	r3, #:upper16:1073767534
 1259 003e 1B78     		ldrb	r3, [r3, #0]
 1260 0040 DBB2     		uxtb	r3, r3
ARM GAS  C:\DOCUME~1\ADMINI~1\LOCALS~1\Temp\ccTmPqfn.s 			page 41


 1261 0042 03F00403 		and	r3, r3, #4
 1262              		.loc 1 1015 0
 1263 0046 002B     		cmp	r3, #0
 1264 0048 06D1     		bne	.L64
1017:.\Generated_Source\PSoC5/UART_Bridge.c ****                 {
1018:.\Generated_Source\PSoC5/UART_Bridge.c ****                     /* Add directly to the FIFO. */
1019:.\Generated_Source\PSoC5/UART_Bridge.c ****                     UART_Bridge_TXDATA_REG = txDataByte;
 1265              		.loc 1 1019 0
 1266 004a 46F24E43 		movw	r3, #:lower16:1073767502
 1267 004e C4F20003 		movt	r3, #:upper16:1073767502
 1268 0052 FA79     		ldrb	r2, [r7, #7]
 1269 0054 1A70     		strb	r2, [r3, #0]
 1270              		.loc 1 1015 0
 1271 0056 27E0     		b	.L65
 1272              	.L64:
1020:.\Generated_Source\PSoC5/UART_Bridge.c ****                 }
1021:.\Generated_Source\PSoC5/UART_Bridge.c ****                 else
1022:.\Generated_Source\PSoC5/UART_Bridge.c ****                 {
1023:.\Generated_Source\PSoC5/UART_Bridge.c ****                     if(UART_Bridge_txBufferWrite >= UART_Bridge_TXBUFFERSIZE)
 1273              		.loc 1 1023 0
 1274 0058 40F20003 		movw	r3, #:lower16:UART_Bridge_txBufferWrite
 1275 005c C0F20003 		movt	r3, #:upper16:UART_Bridge_txBufferWrite
 1276 0060 1B78     		ldrb	r3, [r3, #0]	@ zero_extendqisi2
 1277 0062 5BB2     		sxtb	r3, r3
 1278 0064 002B     		cmp	r3, #0
 1279 0066 06DA     		bge	.L66
1024:.\Generated_Source\PSoC5/UART_Bridge.c ****                     {
1025:.\Generated_Source\PSoC5/UART_Bridge.c ****                         UART_Bridge_txBufferWrite = 0u;
 1280              		.loc 1 1025 0
 1281 0068 40F20003 		movw	r3, #:lower16:UART_Bridge_txBufferWrite
 1282 006c C0F20003 		movt	r3, #:upper16:UART_Bridge_txBufferWrite
 1283 0070 4FF00002 		mov	r2, #0
 1284 0074 1A70     		strb	r2, [r3, #0]
 1285              	.L66:
1026:.\Generated_Source\PSoC5/UART_Bridge.c ****                     }
1027:.\Generated_Source\PSoC5/UART_Bridge.c **** 
1028:.\Generated_Source\PSoC5/UART_Bridge.c ****                     UART_Bridge_txBuffer[UART_Bridge_txBufferWrite] = txDataByte;
 1286              		.loc 1 1028 0
 1287 0076 40F20003 		movw	r3, #:lower16:UART_Bridge_txBufferWrite
 1288 007a C0F20003 		movt	r3, #:upper16:UART_Bridge_txBufferWrite
 1289 007e 1B78     		ldrb	r3, [r3, #0]	@ zero_extendqisi2
 1290 0080 1A46     		mov	r2, r3
 1291 0082 40F20003 		movw	r3, #:lower16:UART_Bridge_txBuffer
 1292 0086 C0F20003 		movt	r3, #:upper16:UART_Bridge_txBuffer
 1293 008a F979     		ldrb	r1, [r7, #7]
 1294 008c 9954     		strb	r1, [r3, r2]
1029:.\Generated_Source\PSoC5/UART_Bridge.c **** 
1030:.\Generated_Source\PSoC5/UART_Bridge.c ****                     /* Add to the software buffer. */
1031:.\Generated_Source\PSoC5/UART_Bridge.c ****                     UART_Bridge_txBufferWrite++;
 1295              		.loc 1 1031 0
 1296 008e 40F20003 		movw	r3, #:lower16:UART_Bridge_txBufferWrite
 1297 0092 C0F20003 		movt	r3, #:upper16:UART_Bridge_txBufferWrite
 1298 0096 1B78     		ldrb	r3, [r3, #0]	@ zero_extendqisi2
 1299 0098 03F10103 		add	r3, r3, #1
 1300 009c DAB2     		uxtb	r2, r3
 1301 009e 40F20003 		movw	r3, #:lower16:UART_Bridge_txBufferWrite
 1302 00a2 C0F20003 		movt	r3, #:upper16:UART_Bridge_txBufferWrite
ARM GAS  C:\DOCUME~1\ADMINI~1\LOCALS~1\Temp\ccTmPqfn.s 			page 42


 1303 00a6 1A70     		strb	r2, [r3, #0]
 1304              	.L65:
1032:.\Generated_Source\PSoC5/UART_Bridge.c **** 
1033:.\Generated_Source\PSoC5/UART_Bridge.c ****                 }
1034:.\Generated_Source\PSoC5/UART_Bridge.c **** 
1035:.\Generated_Source\PSoC5/UART_Bridge.c ****                 /* Enable Tx interrupt. */
1036:.\Generated_Source\PSoC5/UART_Bridge.c ****                 #if(UART_Bridge_TX_INTERRUPT_ENABLED)
1037:.\Generated_Source\PSoC5/UART_Bridge.c ****                     UART_Bridge_EnableTxInt();
 1305              		.loc 1 1037 0
 1306 00a8 FFF7FEFF 		bl	UART_Bridge_EnableTxInt
 1307              	.L67:
1038:.\Generated_Source\PSoC5/UART_Bridge.c ****                 #endif /* End UART_Bridge_TX_INTERRUPT_ENABLED */
1039:.\Generated_Source\PSoC5/UART_Bridge.c **** 
1040:.\Generated_Source\PSoC5/UART_Bridge.c ****             #else /* UART_Bridge_TXBUFFERSIZE > UART_Bridge_FIFO_LENGTH */
1041:.\Generated_Source\PSoC5/UART_Bridge.c **** 
1042:.\Generated_Source\PSoC5/UART_Bridge.c ****                 /* Add directly to the FIFO. */
1043:.\Generated_Source\PSoC5/UART_Bridge.c ****                 UART_Bridge_TXDATA_REG = txDataByte;
1044:.\Generated_Source\PSoC5/UART_Bridge.c **** 
1045:.\Generated_Source\PSoC5/UART_Bridge.c ****             #endif /* End UART_Bridge_TXBUFFERSIZE > UART_Bridge_FIFO_LENGTH */
1046:.\Generated_Source\PSoC5/UART_Bridge.c ****         }
1047:.\Generated_Source\PSoC5/UART_Bridge.c ****     }
 1308              		.loc 1 1047 0
 1309 00ac 07F10807 		add	r7, r7, #8
 1310 00b0 BD46     		mov	sp, r7
 1311 00b2 80BD     		pop	{r7, pc}
 1312              		.cfi_endproc
 1313              	.LFE21:
 1314              		.size	UART_Bridge_WriteTxData, .-UART_Bridge_WriteTxData
 1315              		.section	.text.UART_Bridge_ReadTxStatus,"ax",%progbits
 1316              		.align	2
 1317              		.global	UART_Bridge_ReadTxStatus
 1318              		.thumb
 1319              		.thumb_func
 1320              		.type	UART_Bridge_ReadTxStatus, %function
 1321              	UART_Bridge_ReadTxStatus:
 1322              	.LFB22:
1048:.\Generated_Source\PSoC5/UART_Bridge.c **** 
1049:.\Generated_Source\PSoC5/UART_Bridge.c **** 
1050:.\Generated_Source\PSoC5/UART_Bridge.c ****     /*******************************************************************************
1051:.\Generated_Source\PSoC5/UART_Bridge.c ****     * Function Name: UART_Bridge_ReadTxStatus
1052:.\Generated_Source\PSoC5/UART_Bridge.c ****     ********************************************************************************
1053:.\Generated_Source\PSoC5/UART_Bridge.c ****     *
1054:.\Generated_Source\PSoC5/UART_Bridge.c ****     * Summary:
1055:.\Generated_Source\PSoC5/UART_Bridge.c ****     *  Read the status register for the component
1056:.\Generated_Source\PSoC5/UART_Bridge.c ****     *
1057:.\Generated_Source\PSoC5/UART_Bridge.c ****     * Parameters:
1058:.\Generated_Source\PSoC5/UART_Bridge.c ****     *  None.
1059:.\Generated_Source\PSoC5/UART_Bridge.c ****     *
1060:.\Generated_Source\PSoC5/UART_Bridge.c ****     * Return:
1061:.\Generated_Source\PSoC5/UART_Bridge.c ****     *  Contents of the status register
1062:.\Generated_Source\PSoC5/UART_Bridge.c ****     *
1063:.\Generated_Source\PSoC5/UART_Bridge.c ****     * Theory:
1064:.\Generated_Source\PSoC5/UART_Bridge.c ****     *  This function reads the status register which is clear on read. It is up to
1065:.\Generated_Source\PSoC5/UART_Bridge.c ****     *  the user to handle all bits in this return value accordingly, even if the bit
1066:.\Generated_Source\PSoC5/UART_Bridge.c ****     *  was not enabled as an interrupt source the event happened and must be handled
1067:.\Generated_Source\PSoC5/UART_Bridge.c ****     *  accordingly.
1068:.\Generated_Source\PSoC5/UART_Bridge.c ****     *
ARM GAS  C:\DOCUME~1\ADMINI~1\LOCALS~1\Temp\ccTmPqfn.s 			page 43


1069:.\Generated_Source\PSoC5/UART_Bridge.c ****     *******************************************************************************/
1070:.\Generated_Source\PSoC5/UART_Bridge.c ****     uint8 UART_Bridge_ReadTxStatus(void) 
1071:.\Generated_Source\PSoC5/UART_Bridge.c ****     {
 1323              		.loc 1 1071 0
 1324              		.cfi_startproc
 1325              		@ args = 0, pretend = 0, frame = 0
 1326              		@ frame_needed = 1, uses_anonymous_args = 0
 1327              		@ link register save eliminated.
 1328 0000 80B4     		push	{r7}
 1329              	.LCFI58:
 1330              		.cfi_def_cfa_offset 4
 1331 0002 00AF     		add	r7, sp, #0
 1332              		.cfi_offset 7, -4
 1333              	.LCFI59:
 1334              		.cfi_def_cfa_register 7
1072:.\Generated_Source\PSoC5/UART_Bridge.c ****         return(UART_Bridge_TXSTATUS_REG);
 1335              		.loc 1 1072 0
 1336 0004 46F26E43 		movw	r3, #:lower16:1073767534
 1337 0008 C4F20003 		movt	r3, #:upper16:1073767534
 1338 000c 1B78     		ldrb	r3, [r3, #0]
 1339 000e DBB2     		uxtb	r3, r3
1073:.\Generated_Source\PSoC5/UART_Bridge.c ****     }
 1340              		.loc 1 1073 0
 1341 0010 1846     		mov	r0, r3
 1342 0012 BD46     		mov	sp, r7
 1343 0014 80BC     		pop	{r7}
 1344 0016 7047     		bx	lr
 1345              		.cfi_endproc
 1346              	.LFE22:
 1347              		.size	UART_Bridge_ReadTxStatus, .-UART_Bridge_ReadTxStatus
 1348              		.section	.text.UART_Bridge_PutChar,"ax",%progbits
 1349              		.align	2
 1350              		.global	UART_Bridge_PutChar
 1351              		.thumb
 1352              		.thumb_func
 1353              		.type	UART_Bridge_PutChar, %function
 1354              	UART_Bridge_PutChar:
 1355              	.LFB23:
1074:.\Generated_Source\PSoC5/UART_Bridge.c **** 
1075:.\Generated_Source\PSoC5/UART_Bridge.c **** 
1076:.\Generated_Source\PSoC5/UART_Bridge.c ****     /*******************************************************************************
1077:.\Generated_Source\PSoC5/UART_Bridge.c ****     * Function Name: UART_Bridge_PutChar
1078:.\Generated_Source\PSoC5/UART_Bridge.c ****     ********************************************************************************
1079:.\Generated_Source\PSoC5/UART_Bridge.c ****     *
1080:.\Generated_Source\PSoC5/UART_Bridge.c ****     * Summary:
1081:.\Generated_Source\PSoC5/UART_Bridge.c ****     *  Wait to send byte until TX register or buffer has room.
1082:.\Generated_Source\PSoC5/UART_Bridge.c ****     *
1083:.\Generated_Source\PSoC5/UART_Bridge.c ****     * Parameters:
1084:.\Generated_Source\PSoC5/UART_Bridge.c ****     *  txDataByte: The 8-bit data value to send across the UART.
1085:.\Generated_Source\PSoC5/UART_Bridge.c ****     *
1086:.\Generated_Source\PSoC5/UART_Bridge.c ****     * Return:
1087:.\Generated_Source\PSoC5/UART_Bridge.c ****     *  None.
1088:.\Generated_Source\PSoC5/UART_Bridge.c ****     *
1089:.\Generated_Source\PSoC5/UART_Bridge.c ****     * Global Variables:
1090:.\Generated_Source\PSoC5/UART_Bridge.c ****     *  UART_Bridge_txBuffer - RAM buffer pointer for save data for transmission
1091:.\Generated_Source\PSoC5/UART_Bridge.c ****     *  UART_Bridge_txBufferWrite - cyclic index for write to txBuffer,
1092:.\Generated_Source\PSoC5/UART_Bridge.c ****     *     checked to identify free space in txBuffer and incremented after each byte
ARM GAS  C:\DOCUME~1\ADMINI~1\LOCALS~1\Temp\ccTmPqfn.s 			page 44


1093:.\Generated_Source\PSoC5/UART_Bridge.c ****     *     saved to buffer.
1094:.\Generated_Source\PSoC5/UART_Bridge.c ****     *  UART_Bridge_txBufferRead - cyclic index for read from txBuffer,
1095:.\Generated_Source\PSoC5/UART_Bridge.c ****     *     checked to identify free space in txBuffer.
1096:.\Generated_Source\PSoC5/UART_Bridge.c ****     *  UART_Bridge_initVar - checked to identify that the component has been
1097:.\Generated_Source\PSoC5/UART_Bridge.c ****     *     initialized.
1098:.\Generated_Source\PSoC5/UART_Bridge.c ****     *
1099:.\Generated_Source\PSoC5/UART_Bridge.c ****     * Reentrant:
1100:.\Generated_Source\PSoC5/UART_Bridge.c ****     *  No.
1101:.\Generated_Source\PSoC5/UART_Bridge.c ****     *
1102:.\Generated_Source\PSoC5/UART_Bridge.c ****     * Theory:
1103:.\Generated_Source\PSoC5/UART_Bridge.c ****     *  Allows the user to transmit any byte of data in a single transfer
1104:.\Generated_Source\PSoC5/UART_Bridge.c ****     *
1105:.\Generated_Source\PSoC5/UART_Bridge.c ****     *******************************************************************************/
1106:.\Generated_Source\PSoC5/UART_Bridge.c ****     void UART_Bridge_PutChar(uint8 txDataByte) 
1107:.\Generated_Source\PSoC5/UART_Bridge.c ****     {
 1356              		.loc 1 1107 0
 1357              		.cfi_startproc
 1358              		@ args = 0, pretend = 0, frame = 16
 1359              		@ frame_needed = 1, uses_anonymous_args = 0
 1360              		@ link register save eliminated.
 1361 0000 80B4     		push	{r7}
 1362              	.LCFI60:
 1363              		.cfi_def_cfa_offset 4
 1364 0002 85B0     		sub	sp, sp, #20
 1365              	.LCFI61:
 1366              		.cfi_def_cfa_offset 24
 1367 0004 00AF     		add	r7, sp, #0
 1368              		.cfi_offset 7, -4
 1369              	.LCFI62:
 1370              		.cfi_def_cfa_register 7
 1371 0006 0346     		mov	r3, r0
 1372 0008 FB71     		strb	r3, [r7, #7]
 1373              	.L73:
1108:.\Generated_Source\PSoC5/UART_Bridge.c ****             #if(UART_Bridge_TXBUFFERSIZE > UART_Bridge_FIFO_LENGTH)
1109:.\Generated_Source\PSoC5/UART_Bridge.c ****                 /* The temporary output pointer is used since it takes two instructions
1110:.\Generated_Source\PSoC5/UART_Bridge.c ****                 *  to increment with a wrap, and we can't risk doing that with the real
1111:.\Generated_Source\PSoC5/UART_Bridge.c ****                 *  pointer and getting an interrupt in between instructions.
1112:.\Generated_Source\PSoC5/UART_Bridge.c ****                 */
1113:.\Generated_Source\PSoC5/UART_Bridge.c ****                 uint8 loc_txBufferWrite;
1114:.\Generated_Source\PSoC5/UART_Bridge.c ****                 uint8 loc_txBufferRead;
1115:.\Generated_Source\PSoC5/UART_Bridge.c **** 
1116:.\Generated_Source\PSoC5/UART_Bridge.c ****                 do{
1117:.\Generated_Source\PSoC5/UART_Bridge.c ****                     /* Block if software buffer is full, so we don't overwrite. */
1118:.\Generated_Source\PSoC5/UART_Bridge.c ****                     #if ((UART_Bridge_TXBUFFERSIZE > UART_Bridge_MAX_BYTE_VALUE) && (CY_PSOC3))
1119:.\Generated_Source\PSoC5/UART_Bridge.c ****                         /* Disable TX interrupt to protect variables that could change on interrupt
1120:.\Generated_Source\PSoC5/UART_Bridge.c ****                         CyIntDisable(UART_Bridge_TX_VECT_NUM);
1121:.\Generated_Source\PSoC5/UART_Bridge.c ****                     #endif /* End TXBUFFERSIZE > 255 */
1122:.\Generated_Source\PSoC5/UART_Bridge.c ****                     loc_txBufferWrite = UART_Bridge_txBufferWrite;
 1374              		.loc 1 1122 0
 1375 000a 40F20003 		movw	r3, #:lower16:UART_Bridge_txBufferWrite
 1376 000e C0F20003 		movt	r3, #:upper16:UART_Bridge_txBufferWrite
 1377 0012 1B78     		ldrb	r3, [r3, #0]
 1378 0014 BB73     		strb	r3, [r7, #14]
1123:.\Generated_Source\PSoC5/UART_Bridge.c ****                     loc_txBufferRead = UART_Bridge_txBufferRead;
 1379              		.loc 1 1123 0
 1380 0016 40F20003 		movw	r3, #:lower16:UART_Bridge_txBufferRead
 1381 001a C0F20003 		movt	r3, #:upper16:UART_Bridge_txBufferRead
ARM GAS  C:\DOCUME~1\ADMINI~1\LOCALS~1\Temp\ccTmPqfn.s 			page 45


 1382 001e 1B78     		ldrb	r3, [r3, #0]
 1383 0020 FB73     		strb	r3, [r7, #15]
1124:.\Generated_Source\PSoC5/UART_Bridge.c ****                     #if ((UART_Bridge_TXBUFFERSIZE > UART_Bridge_MAX_BYTE_VALUE) && (CY_PSOC3))
1125:.\Generated_Source\PSoC5/UART_Bridge.c ****                         /* Enable interrupt to continue transmission */
1126:.\Generated_Source\PSoC5/UART_Bridge.c ****                         CyIntEnable(UART_Bridge_TX_VECT_NUM);
1127:.\Generated_Source\PSoC5/UART_Bridge.c ****                     #endif /* End TXBUFFERSIZE > 255 */
1128:.\Generated_Source\PSoC5/UART_Bridge.c ****                 }while( (loc_txBufferWrite < loc_txBufferRead) ? (loc_txBufferWrite == (loc_txBuffe
1129:.\Generated_Source\PSoC5/UART_Bridge.c ****                                         ((loc_txBufferWrite - loc_txBufferRead) ==
1130:.\Generated_Source\PSoC5/UART_Bridge.c ****                                         (uint8)(UART_Bridge_TXBUFFERSIZE - 1u)) );
 1384              		.loc 1 1130 0
 1385 0022 BA7B     		ldrb	r2, [r7, #14]	@ zero_extendqisi2
 1386 0024 FB7B     		ldrb	r3, [r7, #15]	@ zero_extendqisi2
 1387 0026 9A42     		cmp	r2, r3
 1388 0028 09D2     		bcs	.L71
 1389              		.loc 1 1128 0
 1390 002a BA7B     		ldrb	r2, [r7, #14]	@ zero_extendqisi2
 1391 002c FB7B     		ldrb	r3, [r7, #15]	@ zero_extendqisi2
 1392 002e 03F1FF33 		add	r3, r3, #-1
 1393              		.loc 1 1130 0
 1394 0032 9A42     		cmp	r2, r3
 1395 0034 14BF     		ite	ne
 1396 0036 0023     		movne	r3, #0
 1397 0038 0123     		moveq	r3, #1
 1398 003a DBB2     		uxtb	r3, r3
 1399 003c 08E0     		b	.L72
 1400              	.L71:
 1401              		.loc 1 1129 0
 1402 003e BA7B     		ldrb	r2, [r7, #14]	@ zero_extendqisi2
 1403 0040 FB7B     		ldrb	r3, [r7, #15]	@ zero_extendqisi2
 1404 0042 C3EB0203 		rsb	r3, r3, r2
 1405              		.loc 1 1130 0
 1406 0046 7F2B     		cmp	r3, #127
 1407 0048 14BF     		ite	ne
 1408 004a 0023     		movne	r3, #0
 1409 004c 0123     		moveq	r3, #1
 1410 004e DBB2     		uxtb	r3, r3
 1411              	.L72:
 1412 0050 002B     		cmp	r3, #0
 1413 0052 DAD1     		bne	.L73
1131:.\Generated_Source\PSoC5/UART_Bridge.c **** 
1132:.\Generated_Source\PSoC5/UART_Bridge.c ****                 if( (loc_txBufferRead == loc_txBufferWrite) &&
 1414              		.loc 1 1132 0
 1415 0054 FA7B     		ldrb	r2, [r7, #15]	@ zero_extendqisi2
 1416 0056 BB7B     		ldrb	r3, [r7, #14]	@ zero_extendqisi2
 1417 0058 9A42     		cmp	r2, r3
 1418 005a 10D1     		bne	.L74
1133:.\Generated_Source\PSoC5/UART_Bridge.c ****                     ((UART_Bridge_TXSTATUS_REG & UART_Bridge_TX_STS_FIFO_FULL) == 0u) )
 1419              		.loc 1 1133 0
 1420 005c 46F26E43 		movw	r3, #:lower16:1073767534
 1421 0060 C4F20003 		movt	r3, #:upper16:1073767534
 1422 0064 1B78     		ldrb	r3, [r3, #0]
 1423 0066 DBB2     		uxtb	r3, r3
 1424 0068 03F00403 		and	r3, r3, #4
 1425              		.loc 1 1132 0
 1426 006c 002B     		cmp	r3, #0
 1427 006e 06D1     		bne	.L74
1134:.\Generated_Source\PSoC5/UART_Bridge.c ****                 {
ARM GAS  C:\DOCUME~1\ADMINI~1\LOCALS~1\Temp\ccTmPqfn.s 			page 46


1135:.\Generated_Source\PSoC5/UART_Bridge.c ****                     /* Add directly to the FIFO. */
1136:.\Generated_Source\PSoC5/UART_Bridge.c ****                     UART_Bridge_TXDATA_REG = txDataByte;
 1428              		.loc 1 1136 0
 1429 0070 46F24E43 		movw	r3, #:lower16:1073767502
 1430 0074 C4F20003 		movt	r3, #:upper16:1073767502
 1431 0078 FA79     		ldrb	r2, [r7, #7]
 1432 007a 1A70     		strb	r2, [r3, #0]
 1433              		.loc 1 1132 0
 1434 007c 17E0     		b	.L77
 1435              	.L74:
1137:.\Generated_Source\PSoC5/UART_Bridge.c ****                 }
1138:.\Generated_Source\PSoC5/UART_Bridge.c ****                 else
1139:.\Generated_Source\PSoC5/UART_Bridge.c ****                 {
1140:.\Generated_Source\PSoC5/UART_Bridge.c ****                     if(loc_txBufferWrite >= UART_Bridge_TXBUFFERSIZE)
 1436              		.loc 1 1140 0
 1437 007e BB7B     		ldrb	r3, [r7, #14]	@ zero_extendqisi2
 1438 0080 5BB2     		sxtb	r3, r3
 1439 0082 002B     		cmp	r3, #0
 1440 0084 02DA     		bge	.L76
1141:.\Generated_Source\PSoC5/UART_Bridge.c ****                     {
1142:.\Generated_Source\PSoC5/UART_Bridge.c ****                         loc_txBufferWrite = 0u;
 1441              		.loc 1 1142 0
 1442 0086 4FF00003 		mov	r3, #0
 1443 008a BB73     		strb	r3, [r7, #14]
 1444              	.L76:
1143:.\Generated_Source\PSoC5/UART_Bridge.c ****                     }
1144:.\Generated_Source\PSoC5/UART_Bridge.c ****                     /* Add to the software buffer. */
1145:.\Generated_Source\PSoC5/UART_Bridge.c ****                     UART_Bridge_txBuffer[loc_txBufferWrite] = txDataByte;
 1445              		.loc 1 1145 0
 1446 008c BA7B     		ldrb	r2, [r7, #14]	@ zero_extendqisi2
 1447 008e 40F20003 		movw	r3, #:lower16:UART_Bridge_txBuffer
 1448 0092 C0F20003 		movt	r3, #:upper16:UART_Bridge_txBuffer
 1449 0096 F979     		ldrb	r1, [r7, #7]
 1450 0098 9954     		strb	r1, [r3, r2]
1146:.\Generated_Source\PSoC5/UART_Bridge.c ****                     loc_txBufferWrite++;
 1451              		.loc 1 1146 0
 1452 009a BB7B     		ldrb	r3, [r7, #14]
 1453 009c 03F10103 		add	r3, r3, #1
 1454 00a0 BB73     		strb	r3, [r7, #14]
1147:.\Generated_Source\PSoC5/UART_Bridge.c **** 
1148:.\Generated_Source\PSoC5/UART_Bridge.c ****                     /* Finally, update the real output pointer */
1149:.\Generated_Source\PSoC5/UART_Bridge.c ****                     #if ((UART_Bridge_TXBUFFERSIZE > UART_Bridge_MAX_BYTE_VALUE) && (CY_PSOC3))
1150:.\Generated_Source\PSoC5/UART_Bridge.c ****                         CyIntDisable(UART_Bridge_TX_VECT_NUM);
1151:.\Generated_Source\PSoC5/UART_Bridge.c ****                     #endif /* End TXBUFFERSIZE > 255 */
1152:.\Generated_Source\PSoC5/UART_Bridge.c ****                     UART_Bridge_txBufferWrite = loc_txBufferWrite;
 1455              		.loc 1 1152 0
 1456 00a2 40F20003 		movw	r3, #:lower16:UART_Bridge_txBufferWrite
 1457 00a6 C0F20003 		movt	r3, #:upper16:UART_Bridge_txBufferWrite
 1458 00aa BA7B     		ldrb	r2, [r7, #14]
 1459 00ac 1A70     		strb	r2, [r3, #0]
 1460              	.L77:
1153:.\Generated_Source\PSoC5/UART_Bridge.c ****                     #if ((UART_Bridge_TXBUFFERSIZE > UART_Bridge_MAX_BYTE_VALUE) && (CY_PSOC3))
1154:.\Generated_Source\PSoC5/UART_Bridge.c ****                         CyIntEnable(UART_Bridge_TX_VECT_NUM);
1155:.\Generated_Source\PSoC5/UART_Bridge.c ****                     #endif /* End TXBUFFERSIZE > 255 */
1156:.\Generated_Source\PSoC5/UART_Bridge.c ****                 }
1157:.\Generated_Source\PSoC5/UART_Bridge.c **** 
1158:.\Generated_Source\PSoC5/UART_Bridge.c ****             #else /* UART_Bridge_TXBUFFERSIZE > UART_Bridge_FIFO_LENGTH */
ARM GAS  C:\DOCUME~1\ADMINI~1\LOCALS~1\Temp\ccTmPqfn.s 			page 47


1159:.\Generated_Source\PSoC5/UART_Bridge.c **** 
1160:.\Generated_Source\PSoC5/UART_Bridge.c ****                 while((UART_Bridge_TXSTATUS_REG & UART_Bridge_TX_STS_FIFO_FULL) != 0u)
1161:.\Generated_Source\PSoC5/UART_Bridge.c ****                 {
1162:.\Generated_Source\PSoC5/UART_Bridge.c ****                     ; /* Wait for room in the FIFO. */
1163:.\Generated_Source\PSoC5/UART_Bridge.c ****                 }
1164:.\Generated_Source\PSoC5/UART_Bridge.c **** 
1165:.\Generated_Source\PSoC5/UART_Bridge.c ****                 /* Add directly to the FIFO. */
1166:.\Generated_Source\PSoC5/UART_Bridge.c ****                 UART_Bridge_TXDATA_REG = txDataByte;
1167:.\Generated_Source\PSoC5/UART_Bridge.c **** 
1168:.\Generated_Source\PSoC5/UART_Bridge.c ****             #endif /* End UART_Bridge_TXBUFFERSIZE > UART_Bridge_FIFO_LENGTH */
1169:.\Generated_Source\PSoC5/UART_Bridge.c ****     }
 1461              		.loc 1 1169 0
 1462 00ae 07F11407 		add	r7, r7, #20
 1463 00b2 BD46     		mov	sp, r7
 1464 00b4 80BC     		pop	{r7}
 1465 00b6 7047     		bx	lr
 1466              		.cfi_endproc
 1467              	.LFE23:
 1468              		.size	UART_Bridge_PutChar, .-UART_Bridge_PutChar
 1469              		.section	.text.UART_Bridge_PutString,"ax",%progbits
 1470              		.align	2
 1471              		.global	UART_Bridge_PutString
 1472              		.thumb
 1473              		.thumb_func
 1474              		.type	UART_Bridge_PutString, %function
 1475              	UART_Bridge_PutString:
 1476              	.LFB24:
1170:.\Generated_Source\PSoC5/UART_Bridge.c **** 
1171:.\Generated_Source\PSoC5/UART_Bridge.c **** 
1172:.\Generated_Source\PSoC5/UART_Bridge.c ****     /*******************************************************************************
1173:.\Generated_Source\PSoC5/UART_Bridge.c ****     * Function Name: UART_Bridge_PutString
1174:.\Generated_Source\PSoC5/UART_Bridge.c ****     ********************************************************************************
1175:.\Generated_Source\PSoC5/UART_Bridge.c ****     *
1176:.\Generated_Source\PSoC5/UART_Bridge.c ****     * Summary:
1177:.\Generated_Source\PSoC5/UART_Bridge.c ****     *  Write a Sequence of bytes on the Transmit line. Data comes from RAM or ROM.
1178:.\Generated_Source\PSoC5/UART_Bridge.c ****     *
1179:.\Generated_Source\PSoC5/UART_Bridge.c ****     * Parameters:
1180:.\Generated_Source\PSoC5/UART_Bridge.c ****     *  string: char pointer to character string of Data to Send.
1181:.\Generated_Source\PSoC5/UART_Bridge.c ****     *
1182:.\Generated_Source\PSoC5/UART_Bridge.c ****     * Return:
1183:.\Generated_Source\PSoC5/UART_Bridge.c ****     *  None.
1184:.\Generated_Source\PSoC5/UART_Bridge.c ****     *
1185:.\Generated_Source\PSoC5/UART_Bridge.c ****     * Global Variables:
1186:.\Generated_Source\PSoC5/UART_Bridge.c ****     *  UART_Bridge_initVar - checked to identify that the component has been
1187:.\Generated_Source\PSoC5/UART_Bridge.c ****     *     initialized.
1188:.\Generated_Source\PSoC5/UART_Bridge.c ****     *
1189:.\Generated_Source\PSoC5/UART_Bridge.c ****     * Reentrant:
1190:.\Generated_Source\PSoC5/UART_Bridge.c ****     *  No.
1191:.\Generated_Source\PSoC5/UART_Bridge.c ****     *
1192:.\Generated_Source\PSoC5/UART_Bridge.c ****     * Theory:
1193:.\Generated_Source\PSoC5/UART_Bridge.c ****     *  This function will block if there is not enough memory to place the whole
1194:.\Generated_Source\PSoC5/UART_Bridge.c ****     *  string, it will block until the entire string has been written to the
1195:.\Generated_Source\PSoC5/UART_Bridge.c ****     *  transmit buffer.
1196:.\Generated_Source\PSoC5/UART_Bridge.c ****     *
1197:.\Generated_Source\PSoC5/UART_Bridge.c ****     *******************************************************************************/
1198:.\Generated_Source\PSoC5/UART_Bridge.c ****     void UART_Bridge_PutString(const char8 string[]) 
1199:.\Generated_Source\PSoC5/UART_Bridge.c ****     {
ARM GAS  C:\DOCUME~1\ADMINI~1\LOCALS~1\Temp\ccTmPqfn.s 			page 48


 1477              		.loc 1 1199 0
 1478              		.cfi_startproc
 1479              		@ args = 0, pretend = 0, frame = 16
 1480              		@ frame_needed = 1, uses_anonymous_args = 0
 1481 0000 80B5     		push	{r7, lr}
 1482              	.LCFI63:
 1483              		.cfi_def_cfa_offset 8
 1484 0002 84B0     		sub	sp, sp, #16
 1485              	.LCFI64:
 1486              		.cfi_def_cfa_offset 24
 1487 0004 00AF     		add	r7, sp, #0
 1488              		.cfi_offset 14, -4
 1489              		.cfi_offset 7, -8
 1490              	.LCFI65:
 1491              		.cfi_def_cfa_register 7
 1492 0006 7860     		str	r0, [r7, #4]
1200:.\Generated_Source\PSoC5/UART_Bridge.c ****         uint16 buf_index = 0u;
 1493              		.loc 1 1200 0
 1494 0008 4FF00003 		mov	r3, #0
 1495 000c FB81     		strh	r3, [r7, #14]	@ movhi
1201:.\Generated_Source\PSoC5/UART_Bridge.c ****         /* If not Initialized then skip this function*/
1202:.\Generated_Source\PSoC5/UART_Bridge.c ****         if(UART_Bridge_initVar != 0u)
 1496              		.loc 1 1202 0
 1497 000e 40F20003 		movw	r3, #:lower16:UART_Bridge_initVar
 1498 0012 C0F20003 		movt	r3, #:upper16:UART_Bridge_initVar
 1499 0016 1B78     		ldrb	r3, [r3, #0]	@ zero_extendqisi2
 1500 0018 002B     		cmp	r3, #0
 1501 001a 11D0     		beq	.L82
1203:.\Generated_Source\PSoC5/UART_Bridge.c ****         {
1204:.\Generated_Source\PSoC5/UART_Bridge.c ****             /* This is a blocking function, it will not exit until all data is sent*/
1205:.\Generated_Source\PSoC5/UART_Bridge.c ****             while(string[buf_index] != (char8)0)
 1502              		.loc 1 1205 0
 1503 001c 0AE0     		b	.L80
 1504              	.L81:
1206:.\Generated_Source\PSoC5/UART_Bridge.c ****             {
1207:.\Generated_Source\PSoC5/UART_Bridge.c ****                 UART_Bridge_PutChar((uint8)string[buf_index]);
 1505              		.loc 1 1207 0
 1506 001e FA89     		ldrh	r2, [r7, #14]
 1507 0020 7B68     		ldr	r3, [r7, #4]
 1508 0022 1344     		add	r3, r2, r3
 1509 0024 1B78     		ldrb	r3, [r3, #0]	@ zero_extendqisi2
 1510 0026 1846     		mov	r0, r3
 1511 0028 FFF7FEFF 		bl	UART_Bridge_PutChar
1208:.\Generated_Source\PSoC5/UART_Bridge.c ****                 buf_index++;
 1512              		.loc 1 1208 0
 1513 002c FB89     		ldrh	r3, [r7, #14]	@ movhi
 1514 002e 03F10103 		add	r3, r3, #1
 1515 0032 FB81     		strh	r3, [r7, #14]	@ movhi
 1516              	.L80:
 1517              		.loc 1 1205 0
 1518 0034 FA89     		ldrh	r2, [r7, #14]
 1519 0036 7B68     		ldr	r3, [r7, #4]
 1520 0038 1344     		add	r3, r2, r3
 1521 003a 1B78     		ldrb	r3, [r3, #0]	@ zero_extendqisi2
 1522 003c 002B     		cmp	r3, #0
 1523 003e EED1     		bne	.L81
 1524              	.L82:
ARM GAS  C:\DOCUME~1\ADMINI~1\LOCALS~1\Temp\ccTmPqfn.s 			page 49


1209:.\Generated_Source\PSoC5/UART_Bridge.c ****             }
1210:.\Generated_Source\PSoC5/UART_Bridge.c ****         }
1211:.\Generated_Source\PSoC5/UART_Bridge.c ****     }
 1525              		.loc 1 1211 0
 1526 0040 07F11007 		add	r7, r7, #16
 1527 0044 BD46     		mov	sp, r7
 1528 0046 80BD     		pop	{r7, pc}
 1529              		.cfi_endproc
 1530              	.LFE24:
 1531              		.size	UART_Bridge_PutString, .-UART_Bridge_PutString
 1532              		.section	.text.UART_Bridge_PutArray,"ax",%progbits
 1533              		.align	2
 1534              		.global	UART_Bridge_PutArray
 1535              		.thumb
 1536              		.thumb_func
 1537              		.type	UART_Bridge_PutArray, %function
 1538              	UART_Bridge_PutArray:
 1539              	.LFB25:
1212:.\Generated_Source\PSoC5/UART_Bridge.c **** 
1213:.\Generated_Source\PSoC5/UART_Bridge.c **** 
1214:.\Generated_Source\PSoC5/UART_Bridge.c ****     /*******************************************************************************
1215:.\Generated_Source\PSoC5/UART_Bridge.c ****     * Function Name: UART_Bridge_PutArray
1216:.\Generated_Source\PSoC5/UART_Bridge.c ****     ********************************************************************************
1217:.\Generated_Source\PSoC5/UART_Bridge.c ****     *
1218:.\Generated_Source\PSoC5/UART_Bridge.c ****     * Summary:
1219:.\Generated_Source\PSoC5/UART_Bridge.c ****     *  Write a Sequence of bytes on the Transmit line. Data comes from RAM or ROM.
1220:.\Generated_Source\PSoC5/UART_Bridge.c ****     *
1221:.\Generated_Source\PSoC5/UART_Bridge.c ****     * Parameters:
1222:.\Generated_Source\PSoC5/UART_Bridge.c ****     *  string: Address of the memory array residing in RAM or ROM.
1223:.\Generated_Source\PSoC5/UART_Bridge.c ****     *  byteCount: Number of Bytes to be transmitted.
1224:.\Generated_Source\PSoC5/UART_Bridge.c ****     *
1225:.\Generated_Source\PSoC5/UART_Bridge.c ****     * Return:
1226:.\Generated_Source\PSoC5/UART_Bridge.c ****     *  None.
1227:.\Generated_Source\PSoC5/UART_Bridge.c ****     *
1228:.\Generated_Source\PSoC5/UART_Bridge.c ****     * Global Variables:
1229:.\Generated_Source\PSoC5/UART_Bridge.c ****     *  UART_Bridge_initVar - checked to identify that the component has been
1230:.\Generated_Source\PSoC5/UART_Bridge.c ****     *     initialized.
1231:.\Generated_Source\PSoC5/UART_Bridge.c ****     *
1232:.\Generated_Source\PSoC5/UART_Bridge.c ****     * Reentrant:
1233:.\Generated_Source\PSoC5/UART_Bridge.c ****     *  No.
1234:.\Generated_Source\PSoC5/UART_Bridge.c ****     *
1235:.\Generated_Source\PSoC5/UART_Bridge.c ****     *******************************************************************************/
1236:.\Generated_Source\PSoC5/UART_Bridge.c ****     void UART_Bridge_PutArray(const uint8 string[], uint8 byteCount)
1237:.\Generated_Source\PSoC5/UART_Bridge.c ****                                                                     
1238:.\Generated_Source\PSoC5/UART_Bridge.c ****     {
 1540              		.loc 1 1238 0
 1541              		.cfi_startproc
 1542              		@ args = 0, pretend = 0, frame = 16
 1543              		@ frame_needed = 1, uses_anonymous_args = 0
 1544 0000 80B5     		push	{r7, lr}
 1545              	.LCFI66:
 1546              		.cfi_def_cfa_offset 8
 1547 0002 84B0     		sub	sp, sp, #16
 1548              	.LCFI67:
 1549              		.cfi_def_cfa_offset 24
 1550 0004 00AF     		add	r7, sp, #0
 1551              		.cfi_offset 14, -4
ARM GAS  C:\DOCUME~1\ADMINI~1\LOCALS~1\Temp\ccTmPqfn.s 			page 50


 1552              		.cfi_offset 7, -8
 1553              	.LCFI68:
 1554              		.cfi_def_cfa_register 7
 1555 0006 7860     		str	r0, [r7, #4]
 1556 0008 0B46     		mov	r3, r1
 1557 000a FB70     		strb	r3, [r7, #3]
1239:.\Generated_Source\PSoC5/UART_Bridge.c ****         uint8 buf_index = 0u;
 1558              		.loc 1 1239 0
 1559 000c 4FF00003 		mov	r3, #0
 1560 0010 FB73     		strb	r3, [r7, #15]
1240:.\Generated_Source\PSoC5/UART_Bridge.c ****         /* If not Initialized then skip this function*/
1241:.\Generated_Source\PSoC5/UART_Bridge.c ****         if(UART_Bridge_initVar != 0u)
 1561              		.loc 1 1241 0
 1562 0012 40F20003 		movw	r3, #:lower16:UART_Bridge_initVar
 1563 0016 C0F20003 		movt	r3, #:upper16:UART_Bridge_initVar
 1564 001a 1B78     		ldrb	r3, [r3, #0]	@ zero_extendqisi2
 1565 001c 002B     		cmp	r3, #0
 1566 001e 0ED0     		beq	.L86
 1567              	.L85:
1242:.\Generated_Source\PSoC5/UART_Bridge.c ****         {
1243:.\Generated_Source\PSoC5/UART_Bridge.c ****             do
1244:.\Generated_Source\PSoC5/UART_Bridge.c ****             {
1245:.\Generated_Source\PSoC5/UART_Bridge.c ****                 UART_Bridge_PutChar(string[buf_index]);
 1568              		.loc 1 1245 0
 1569 0020 FA7B     		ldrb	r2, [r7, #15]	@ zero_extendqisi2
 1570 0022 7B68     		ldr	r3, [r7, #4]
 1571 0024 1344     		add	r3, r2, r3
 1572 0026 1B78     		ldrb	r3, [r3, #0]	@ zero_extendqisi2
 1573 0028 1846     		mov	r0, r3
 1574 002a FFF7FEFF 		bl	UART_Bridge_PutChar
1246:.\Generated_Source\PSoC5/UART_Bridge.c ****                 buf_index++;
 1575              		.loc 1 1246 0
 1576 002e FB7B     		ldrb	r3, [r7, #15]
 1577 0030 03F10103 		add	r3, r3, #1
 1578 0034 FB73     		strb	r3, [r7, #15]
1247:.\Generated_Source\PSoC5/UART_Bridge.c ****             }while(buf_index < byteCount);
 1579              		.loc 1 1247 0
 1580 0036 FA7B     		ldrb	r2, [r7, #15]	@ zero_extendqisi2
 1581 0038 FB78     		ldrb	r3, [r7, #3]	@ zero_extendqisi2
 1582 003a 9A42     		cmp	r2, r3
 1583 003c F0D3     		bcc	.L85
 1584              	.L86:
1248:.\Generated_Source\PSoC5/UART_Bridge.c ****         }
1249:.\Generated_Source\PSoC5/UART_Bridge.c ****     }
 1585              		.loc 1 1249 0
 1586 003e 07F11007 		add	r7, r7, #16
 1587 0042 BD46     		mov	sp, r7
 1588 0044 80BD     		pop	{r7, pc}
 1589              		.cfi_endproc
 1590              	.LFE25:
 1591              		.size	UART_Bridge_PutArray, .-UART_Bridge_PutArray
 1592 0046 00BF     		.section	.text.UART_Bridge_PutCRLF,"ax",%progbits
 1593              		.align	2
 1594              		.global	UART_Bridge_PutCRLF
 1595              		.thumb
 1596              		.thumb_func
 1597              		.type	UART_Bridge_PutCRLF, %function
ARM GAS  C:\DOCUME~1\ADMINI~1\LOCALS~1\Temp\ccTmPqfn.s 			page 51


 1598              	UART_Bridge_PutCRLF:
 1599              	.LFB26:
1250:.\Generated_Source\PSoC5/UART_Bridge.c **** 
1251:.\Generated_Source\PSoC5/UART_Bridge.c **** 
1252:.\Generated_Source\PSoC5/UART_Bridge.c ****     /*******************************************************************************
1253:.\Generated_Source\PSoC5/UART_Bridge.c ****     * Function Name: UART_Bridge_PutCRLF
1254:.\Generated_Source\PSoC5/UART_Bridge.c ****     ********************************************************************************
1255:.\Generated_Source\PSoC5/UART_Bridge.c ****     *
1256:.\Generated_Source\PSoC5/UART_Bridge.c ****     * Summary:
1257:.\Generated_Source\PSoC5/UART_Bridge.c ****     *  Write a character and then carriage return and line feed.
1258:.\Generated_Source\PSoC5/UART_Bridge.c ****     *
1259:.\Generated_Source\PSoC5/UART_Bridge.c ****     * Parameters:
1260:.\Generated_Source\PSoC5/UART_Bridge.c ****     *  txDataByte: uint8 Character to send.
1261:.\Generated_Source\PSoC5/UART_Bridge.c ****     *
1262:.\Generated_Source\PSoC5/UART_Bridge.c ****     * Return:
1263:.\Generated_Source\PSoC5/UART_Bridge.c ****     *  None.
1264:.\Generated_Source\PSoC5/UART_Bridge.c ****     *
1265:.\Generated_Source\PSoC5/UART_Bridge.c ****     * Global Variables:
1266:.\Generated_Source\PSoC5/UART_Bridge.c ****     *  UART_Bridge_initVar - checked to identify that the component has been
1267:.\Generated_Source\PSoC5/UART_Bridge.c ****     *     initialized.
1268:.\Generated_Source\PSoC5/UART_Bridge.c ****     *
1269:.\Generated_Source\PSoC5/UART_Bridge.c ****     * Reentrant:
1270:.\Generated_Source\PSoC5/UART_Bridge.c ****     *  No.
1271:.\Generated_Source\PSoC5/UART_Bridge.c ****     *
1272:.\Generated_Source\PSoC5/UART_Bridge.c ****     *******************************************************************************/
1273:.\Generated_Source\PSoC5/UART_Bridge.c ****     void UART_Bridge_PutCRLF(uint8 txDataByte) 
1274:.\Generated_Source\PSoC5/UART_Bridge.c ****     {
 1600              		.loc 1 1274 0
 1601              		.cfi_startproc
 1602              		@ args = 0, pretend = 0, frame = 8
 1603              		@ frame_needed = 1, uses_anonymous_args = 0
 1604 0000 80B5     		push	{r7, lr}
 1605              	.LCFI69:
 1606              		.cfi_def_cfa_offset 8
 1607 0002 82B0     		sub	sp, sp, #8
 1608              	.LCFI70:
 1609              		.cfi_def_cfa_offset 16
 1610 0004 00AF     		add	r7, sp, #0
 1611              		.cfi_offset 14, -4
 1612              		.cfi_offset 7, -8
 1613              	.LCFI71:
 1614              		.cfi_def_cfa_register 7
 1615 0006 0346     		mov	r3, r0
 1616 0008 FB71     		strb	r3, [r7, #7]
1275:.\Generated_Source\PSoC5/UART_Bridge.c ****         /* If not Initialized then skip this function*/
1276:.\Generated_Source\PSoC5/UART_Bridge.c ****         if(UART_Bridge_initVar != 0u)
 1617              		.loc 1 1276 0
 1618 000a 40F20003 		movw	r3, #:lower16:UART_Bridge_initVar
 1619 000e C0F20003 		movt	r3, #:upper16:UART_Bridge_initVar
 1620 0012 1B78     		ldrb	r3, [r3, #0]	@ zero_extendqisi2
 1621 0014 002B     		cmp	r3, #0
 1622 0016 0BD0     		beq	.L89
1277:.\Generated_Source\PSoC5/UART_Bridge.c ****         {
1278:.\Generated_Source\PSoC5/UART_Bridge.c ****             UART_Bridge_PutChar(txDataByte);
 1623              		.loc 1 1278 0
 1624 0018 FB79     		ldrb	r3, [r7, #7]	@ zero_extendqisi2
 1625 001a 1846     		mov	r0, r3
ARM GAS  C:\DOCUME~1\ADMINI~1\LOCALS~1\Temp\ccTmPqfn.s 			page 52


 1626 001c FFF7FEFF 		bl	UART_Bridge_PutChar
1279:.\Generated_Source\PSoC5/UART_Bridge.c ****             UART_Bridge_PutChar(0x0Du);
 1627              		.loc 1 1279 0
 1628 0020 4FF00D00 		mov	r0, #13
 1629 0024 FFF7FEFF 		bl	UART_Bridge_PutChar
1280:.\Generated_Source\PSoC5/UART_Bridge.c ****             UART_Bridge_PutChar(0x0Au);
 1630              		.loc 1 1280 0
 1631 0028 4FF00A00 		mov	r0, #10
 1632 002c FFF7FEFF 		bl	UART_Bridge_PutChar
 1633              	.L89:
1281:.\Generated_Source\PSoC5/UART_Bridge.c ****         }
1282:.\Generated_Source\PSoC5/UART_Bridge.c ****     }
 1634              		.loc 1 1282 0
 1635 0030 07F10807 		add	r7, r7, #8
 1636 0034 BD46     		mov	sp, r7
 1637 0036 80BD     		pop	{r7, pc}
 1638              		.cfi_endproc
 1639              	.LFE26:
 1640              		.size	UART_Bridge_PutCRLF, .-UART_Bridge_PutCRLF
 1641              		.section	.text.UART_Bridge_GetTxBufferSize,"ax",%progbits
 1642              		.align	2
 1643              		.global	UART_Bridge_GetTxBufferSize
 1644              		.thumb
 1645              		.thumb_func
 1646              		.type	UART_Bridge_GetTxBufferSize, %function
 1647              	UART_Bridge_GetTxBufferSize:
 1648              	.LFB27:
1283:.\Generated_Source\PSoC5/UART_Bridge.c **** 
1284:.\Generated_Source\PSoC5/UART_Bridge.c **** 
1285:.\Generated_Source\PSoC5/UART_Bridge.c ****     /*******************************************************************************
1286:.\Generated_Source\PSoC5/UART_Bridge.c ****     * Function Name: UART_Bridge_GetTxBufferSize
1287:.\Generated_Source\PSoC5/UART_Bridge.c ****     ********************************************************************************
1288:.\Generated_Source\PSoC5/UART_Bridge.c ****     *
1289:.\Generated_Source\PSoC5/UART_Bridge.c ****     * Summary:
1290:.\Generated_Source\PSoC5/UART_Bridge.c ****     *  Determine the amount of space left in the TX buffer and return the count in
1291:.\Generated_Source\PSoC5/UART_Bridge.c ****     *  bytes
1292:.\Generated_Source\PSoC5/UART_Bridge.c ****     *
1293:.\Generated_Source\PSoC5/UART_Bridge.c ****     * Parameters:
1294:.\Generated_Source\PSoC5/UART_Bridge.c ****     *  None.
1295:.\Generated_Source\PSoC5/UART_Bridge.c ****     *
1296:.\Generated_Source\PSoC5/UART_Bridge.c ****     * Return:
1297:.\Generated_Source\PSoC5/UART_Bridge.c ****     *  Integer count of the number of bytes left in the TX buffer
1298:.\Generated_Source\PSoC5/UART_Bridge.c ****     *
1299:.\Generated_Source\PSoC5/UART_Bridge.c ****     * Global Variables:
1300:.\Generated_Source\PSoC5/UART_Bridge.c ****     *  UART_Bridge_txBufferWrite - used to calculate left space.
1301:.\Generated_Source\PSoC5/UART_Bridge.c ****     *  UART_Bridge_txBufferRead - used to calculate left space.
1302:.\Generated_Source\PSoC5/UART_Bridge.c ****     *
1303:.\Generated_Source\PSoC5/UART_Bridge.c ****     * Reentrant:
1304:.\Generated_Source\PSoC5/UART_Bridge.c ****     *  No.
1305:.\Generated_Source\PSoC5/UART_Bridge.c ****     *
1306:.\Generated_Source\PSoC5/UART_Bridge.c ****     * Theory:
1307:.\Generated_Source\PSoC5/UART_Bridge.c ****     *  Allows the user to find out how full the TX Buffer is.
1308:.\Generated_Source\PSoC5/UART_Bridge.c ****     *
1309:.\Generated_Source\PSoC5/UART_Bridge.c ****     *******************************************************************************/
1310:.\Generated_Source\PSoC5/UART_Bridge.c ****     uint8 UART_Bridge_GetTxBufferSize(void)
1311:.\Generated_Source\PSoC5/UART_Bridge.c ****                                                             
1312:.\Generated_Source\PSoC5/UART_Bridge.c ****     {
ARM GAS  C:\DOCUME~1\ADMINI~1\LOCALS~1\Temp\ccTmPqfn.s 			page 53


 1649              		.loc 1 1312 0
 1650              		.cfi_startproc
 1651              		@ args = 0, pretend = 0, frame = 8
 1652              		@ frame_needed = 1, uses_anonymous_args = 0
 1653 0000 80B5     		push	{r7, lr}
 1654              	.LCFI72:
 1655              		.cfi_def_cfa_offset 8
 1656 0002 82B0     		sub	sp, sp, #8
 1657              	.LCFI73:
 1658              		.cfi_def_cfa_offset 16
 1659 0004 00AF     		add	r7, sp, #0
 1660              		.cfi_offset 14, -4
 1661              		.cfi_offset 7, -8
 1662              	.LCFI74:
 1663              		.cfi_def_cfa_register 7
1313:.\Generated_Source\PSoC5/UART_Bridge.c ****         uint8 size;
1314:.\Generated_Source\PSoC5/UART_Bridge.c **** 
1315:.\Generated_Source\PSoC5/UART_Bridge.c ****         #if(UART_Bridge_TXBUFFERSIZE > UART_Bridge_FIFO_LENGTH)
1316:.\Generated_Source\PSoC5/UART_Bridge.c **** 
1317:.\Generated_Source\PSoC5/UART_Bridge.c ****             /* Disable Tx interrupt. */
1318:.\Generated_Source\PSoC5/UART_Bridge.c ****             /* Protect variables that could change on interrupt. */
1319:.\Generated_Source\PSoC5/UART_Bridge.c ****             #if(UART_Bridge_TX_INTERRUPT_ENABLED)
1320:.\Generated_Source\PSoC5/UART_Bridge.c ****                 UART_Bridge_DisableTxInt();
 1664              		.loc 1 1320 0
 1665 0006 FFF7FEFF 		bl	UART_Bridge_DisableTxInt
1321:.\Generated_Source\PSoC5/UART_Bridge.c ****             #endif /* End UART_Bridge_TX_INTERRUPT_ENABLED */
1322:.\Generated_Source\PSoC5/UART_Bridge.c **** 
1323:.\Generated_Source\PSoC5/UART_Bridge.c ****             if(UART_Bridge_txBufferRead == UART_Bridge_txBufferWrite)
 1666              		.loc 1 1323 0
 1667 000a 40F20003 		movw	r3, #:lower16:UART_Bridge_txBufferRead
 1668 000e C0F20003 		movt	r3, #:upper16:UART_Bridge_txBufferRead
 1669 0012 1B78     		ldrb	r3, [r3, #0]
 1670 0014 DAB2     		uxtb	r2, r3
 1671 0016 40F20003 		movw	r3, #:lower16:UART_Bridge_txBufferWrite
 1672 001a C0F20003 		movt	r3, #:upper16:UART_Bridge_txBufferWrite
 1673 001e 1B78     		ldrb	r3, [r3, #0]	@ zero_extendqisi2
 1674 0020 9A42     		cmp	r2, r3
 1675 0022 03D1     		bne	.L91
1324:.\Generated_Source\PSoC5/UART_Bridge.c ****             {
1325:.\Generated_Source\PSoC5/UART_Bridge.c ****                 size = 0u;
 1676              		.loc 1 1325 0
 1677 0024 4FF00003 		mov	r3, #0
 1678 0028 FB71     		strb	r3, [r7, #7]
 1679 002a 2CE0     		b	.L92
 1680              	.L91:
1326:.\Generated_Source\PSoC5/UART_Bridge.c ****             }
1327:.\Generated_Source\PSoC5/UART_Bridge.c ****             else if(UART_Bridge_txBufferRead < UART_Bridge_txBufferWrite)
 1681              		.loc 1 1327 0
 1682 002c 40F20003 		movw	r3, #:lower16:UART_Bridge_txBufferRead
 1683 0030 C0F20003 		movt	r3, #:upper16:UART_Bridge_txBufferRead
 1684 0034 1B78     		ldrb	r3, [r3, #0]
 1685 0036 DAB2     		uxtb	r2, r3
 1686 0038 40F20003 		movw	r3, #:lower16:UART_Bridge_txBufferWrite
 1687 003c C0F20003 		movt	r3, #:upper16:UART_Bridge_txBufferWrite
 1688 0040 1B78     		ldrb	r3, [r3, #0]	@ zero_extendqisi2
 1689 0042 9A42     		cmp	r2, r3
 1690 0044 0ED2     		bcs	.L93
ARM GAS  C:\DOCUME~1\ADMINI~1\LOCALS~1\Temp\ccTmPqfn.s 			page 54


1328:.\Generated_Source\PSoC5/UART_Bridge.c ****             {
1329:.\Generated_Source\PSoC5/UART_Bridge.c ****                 size = (UART_Bridge_txBufferWrite - UART_Bridge_txBufferRead);
 1691              		.loc 1 1329 0
 1692 0046 40F20003 		movw	r3, #:lower16:UART_Bridge_txBufferWrite
 1693 004a C0F20003 		movt	r3, #:upper16:UART_Bridge_txBufferWrite
 1694 004e 1A78     		ldrb	r2, [r3, #0]	@ zero_extendqisi2
 1695 0050 40F20003 		movw	r3, #:lower16:UART_Bridge_txBufferRead
 1696 0054 C0F20003 		movt	r3, #:upper16:UART_Bridge_txBufferRead
 1697 0058 1B78     		ldrb	r3, [r3, #0]
 1698 005a DBB2     		uxtb	r3, r3
 1699 005c C3EB0203 		rsb	r3, r3, r2
 1700 0060 FB71     		strb	r3, [r7, #7]
 1701 0062 10E0     		b	.L92
 1702              	.L93:
1330:.\Generated_Source\PSoC5/UART_Bridge.c ****             }
1331:.\Generated_Source\PSoC5/UART_Bridge.c ****             else
1332:.\Generated_Source\PSoC5/UART_Bridge.c ****             {
1333:.\Generated_Source\PSoC5/UART_Bridge.c ****                 size = (UART_Bridge_TXBUFFERSIZE - UART_Bridge_txBufferRead) + UART_Bridge_txBuffer
 1703              		.loc 1 1333 0
 1704 0064 40F20003 		movw	r3, #:lower16:UART_Bridge_txBufferWrite
 1705 0068 C0F20003 		movt	r3, #:upper16:UART_Bridge_txBufferWrite
 1706 006c 1A78     		ldrb	r2, [r3, #0]	@ zero_extendqisi2
 1707 006e 40F20003 		movw	r3, #:lower16:UART_Bridge_txBufferRead
 1708 0072 C0F20003 		movt	r3, #:upper16:UART_Bridge_txBufferRead
 1709 0076 1B78     		ldrb	r3, [r3, #0]
 1710 0078 DBB2     		uxtb	r3, r3
 1711 007a C3EB0203 		rsb	r3, r3, r2
 1712 007e DBB2     		uxtb	r3, r3
 1713 0080 A3F18003 		sub	r3, r3, #128
 1714 0084 FB71     		strb	r3, [r7, #7]
 1715              	.L92:
1334:.\Generated_Source\PSoC5/UART_Bridge.c ****             }
1335:.\Generated_Source\PSoC5/UART_Bridge.c **** 
1336:.\Generated_Source\PSoC5/UART_Bridge.c ****             /* Enable Tx interrupt. */
1337:.\Generated_Source\PSoC5/UART_Bridge.c ****             #if(UART_Bridge_TX_INTERRUPT_ENABLED)
1338:.\Generated_Source\PSoC5/UART_Bridge.c ****                 UART_Bridge_EnableTxInt();
 1716              		.loc 1 1338 0
 1717 0086 FFF7FEFF 		bl	UART_Bridge_EnableTxInt
1339:.\Generated_Source\PSoC5/UART_Bridge.c ****             #endif /* End UART_Bridge_TX_INTERRUPT_ENABLED */
1340:.\Generated_Source\PSoC5/UART_Bridge.c **** 
1341:.\Generated_Source\PSoC5/UART_Bridge.c ****         #else /* UART_Bridge_TXBUFFERSIZE > UART_Bridge_FIFO_LENGTH */
1342:.\Generated_Source\PSoC5/UART_Bridge.c **** 
1343:.\Generated_Source\PSoC5/UART_Bridge.c ****             size = UART_Bridge_TXSTATUS_REG;
1344:.\Generated_Source\PSoC5/UART_Bridge.c **** 
1345:.\Generated_Source\PSoC5/UART_Bridge.c ****             /* Is the fifo is full. */
1346:.\Generated_Source\PSoC5/UART_Bridge.c ****             if((size & UART_Bridge_TX_STS_FIFO_FULL) != 0u)
1347:.\Generated_Source\PSoC5/UART_Bridge.c ****             {
1348:.\Generated_Source\PSoC5/UART_Bridge.c ****                 size = UART_Bridge_FIFO_LENGTH;
1349:.\Generated_Source\PSoC5/UART_Bridge.c ****             }
1350:.\Generated_Source\PSoC5/UART_Bridge.c ****             else if((size & UART_Bridge_TX_STS_FIFO_EMPTY) != 0u)
1351:.\Generated_Source\PSoC5/UART_Bridge.c ****             {
1352:.\Generated_Source\PSoC5/UART_Bridge.c ****                 size = 0u;
1353:.\Generated_Source\PSoC5/UART_Bridge.c ****             }
1354:.\Generated_Source\PSoC5/UART_Bridge.c ****             else
1355:.\Generated_Source\PSoC5/UART_Bridge.c ****             {
1356:.\Generated_Source\PSoC5/UART_Bridge.c ****                 /* We only know there is data in the fifo. */
1357:.\Generated_Source\PSoC5/UART_Bridge.c ****                 size = 1u;
ARM GAS  C:\DOCUME~1\ADMINI~1\LOCALS~1\Temp\ccTmPqfn.s 			page 55


1358:.\Generated_Source\PSoC5/UART_Bridge.c ****             }
1359:.\Generated_Source\PSoC5/UART_Bridge.c **** 
1360:.\Generated_Source\PSoC5/UART_Bridge.c ****         #endif /* End UART_Bridge_TXBUFFERSIZE > UART_Bridge_FIFO_LENGTH */
1361:.\Generated_Source\PSoC5/UART_Bridge.c **** 
1362:.\Generated_Source\PSoC5/UART_Bridge.c ****         return(size);
 1718              		.loc 1 1362 0
 1719 008a FB79     		ldrb	r3, [r7, #7]	@ zero_extendqisi2
1363:.\Generated_Source\PSoC5/UART_Bridge.c ****     }
 1720              		.loc 1 1363 0
 1721 008c 1846     		mov	r0, r3
 1722 008e 07F10807 		add	r7, r7, #8
 1723 0092 BD46     		mov	sp, r7
 1724 0094 80BD     		pop	{r7, pc}
 1725              		.cfi_endproc
 1726              	.LFE27:
 1727              		.size	UART_Bridge_GetTxBufferSize, .-UART_Bridge_GetTxBufferSize
 1728 0096 00BF     		.section	.text.UART_Bridge_ClearTxBuffer,"ax",%progbits
 1729              		.align	2
 1730              		.global	UART_Bridge_ClearTxBuffer
 1731              		.thumb
 1732              		.thumb_func
 1733              		.type	UART_Bridge_ClearTxBuffer, %function
 1734              	UART_Bridge_ClearTxBuffer:
 1735              	.LFB28:
1364:.\Generated_Source\PSoC5/UART_Bridge.c **** 
1365:.\Generated_Source\PSoC5/UART_Bridge.c **** 
1366:.\Generated_Source\PSoC5/UART_Bridge.c ****     /*******************************************************************************
1367:.\Generated_Source\PSoC5/UART_Bridge.c ****     * Function Name: UART_Bridge_ClearTxBuffer
1368:.\Generated_Source\PSoC5/UART_Bridge.c ****     ********************************************************************************
1369:.\Generated_Source\PSoC5/UART_Bridge.c ****     *
1370:.\Generated_Source\PSoC5/UART_Bridge.c ****     * Summary:
1371:.\Generated_Source\PSoC5/UART_Bridge.c ****     *  Clears the TX RAM buffer by setting the read and write pointers both to zero.
1372:.\Generated_Source\PSoC5/UART_Bridge.c ****     *  Clears the hardware TX FIFO.  Any data present in the FIFO will not be sent.
1373:.\Generated_Source\PSoC5/UART_Bridge.c ****     *
1374:.\Generated_Source\PSoC5/UART_Bridge.c ****     * Parameters:
1375:.\Generated_Source\PSoC5/UART_Bridge.c ****     *  None.
1376:.\Generated_Source\PSoC5/UART_Bridge.c ****     *
1377:.\Generated_Source\PSoC5/UART_Bridge.c ****     * Return:
1378:.\Generated_Source\PSoC5/UART_Bridge.c ****     *  None.
1379:.\Generated_Source\PSoC5/UART_Bridge.c ****     *
1380:.\Generated_Source\PSoC5/UART_Bridge.c ****     * Global Variables:
1381:.\Generated_Source\PSoC5/UART_Bridge.c ****     *  UART_Bridge_txBufferWrite - cleared to zero.
1382:.\Generated_Source\PSoC5/UART_Bridge.c ****     *  UART_Bridge_txBufferRead - cleared to zero.
1383:.\Generated_Source\PSoC5/UART_Bridge.c ****     *
1384:.\Generated_Source\PSoC5/UART_Bridge.c ****     * Reentrant:
1385:.\Generated_Source\PSoC5/UART_Bridge.c ****     *  No.
1386:.\Generated_Source\PSoC5/UART_Bridge.c ****     *
1387:.\Generated_Source\PSoC5/UART_Bridge.c ****     * Theory:
1388:.\Generated_Source\PSoC5/UART_Bridge.c ****     *  Setting the pointers to zero makes the system believe there is no data to
1389:.\Generated_Source\PSoC5/UART_Bridge.c ****     *  read and writing will resume at address 0 overwriting any data that may have
1390:.\Generated_Source\PSoC5/UART_Bridge.c ****     *  remained in the RAM.
1391:.\Generated_Source\PSoC5/UART_Bridge.c ****     *
1392:.\Generated_Source\PSoC5/UART_Bridge.c ****     * Side Effects:
1393:.\Generated_Source\PSoC5/UART_Bridge.c ****     *  Any received data not read from the RAM buffer will be lost when overwritten.
1394:.\Generated_Source\PSoC5/UART_Bridge.c ****     *
1395:.\Generated_Source\PSoC5/UART_Bridge.c ****     *******************************************************************************/
1396:.\Generated_Source\PSoC5/UART_Bridge.c ****     void UART_Bridge_ClearTxBuffer(void) 
ARM GAS  C:\DOCUME~1\ADMINI~1\LOCALS~1\Temp\ccTmPqfn.s 			page 56


1397:.\Generated_Source\PSoC5/UART_Bridge.c ****     {
 1736              		.loc 1 1397 0
 1737              		.cfi_startproc
 1738              		@ args = 0, pretend = 0, frame = 8
 1739              		@ frame_needed = 1, uses_anonymous_args = 0
 1740 0000 80B5     		push	{r7, lr}
 1741              	.LCFI75:
 1742              		.cfi_def_cfa_offset 8
 1743 0002 82B0     		sub	sp, sp, #8
 1744              	.LCFI76:
 1745              		.cfi_def_cfa_offset 16
 1746 0004 00AF     		add	r7, sp, #0
 1747              		.cfi_offset 14, -4
 1748              		.cfi_offset 7, -8
 1749              	.LCFI77:
 1750              		.cfi_def_cfa_register 7
1398:.\Generated_Source\PSoC5/UART_Bridge.c ****         uint8 enableInterrupts;
1399:.\Generated_Source\PSoC5/UART_Bridge.c **** 
1400:.\Generated_Source\PSoC5/UART_Bridge.c ****         /* Enter critical section */
1401:.\Generated_Source\PSoC5/UART_Bridge.c ****         enableInterrupts = CyEnterCriticalSection();
 1751              		.loc 1 1401 0
 1752 0006 FFF7FEFF 		bl	CyEnterCriticalSection
 1753 000a 0346     		mov	r3, r0
 1754 000c FB71     		strb	r3, [r7, #7]
1402:.\Generated_Source\PSoC5/UART_Bridge.c ****         /* clear the HW FIFO */
1403:.\Generated_Source\PSoC5/UART_Bridge.c ****         UART_Bridge_TXDATA_AUX_CTL_REG |=  UART_Bridge_TX_FIFO_CLR;
 1755              		.loc 1 1403 0
 1756 000e 46F29E43 		movw	r3, #:lower16:1073767582
 1757 0012 C4F20003 		movt	r3, #:upper16:1073767582
 1758 0016 46F29E42 		movw	r2, #:lower16:1073767582
 1759 001a C4F20002 		movt	r2, #:upper16:1073767582
 1760 001e 1278     		ldrb	r2, [r2, #0]
 1761 0020 D2B2     		uxtb	r2, r2
 1762 0022 42F00102 		orr	r2, r2, #1
 1763 0026 D2B2     		uxtb	r2, r2
 1764 0028 1A70     		strb	r2, [r3, #0]
1404:.\Generated_Source\PSoC5/UART_Bridge.c ****         UART_Bridge_TXDATA_AUX_CTL_REG &= (uint8)~UART_Bridge_TX_FIFO_CLR;
 1765              		.loc 1 1404 0
 1766 002a 46F29E43 		movw	r3, #:lower16:1073767582
 1767 002e C4F20003 		movt	r3, #:upper16:1073767582
 1768 0032 46F29E42 		movw	r2, #:lower16:1073767582
 1769 0036 C4F20002 		movt	r2, #:upper16:1073767582
 1770 003a 1278     		ldrb	r2, [r2, #0]
 1771 003c D2B2     		uxtb	r2, r2
 1772 003e 02F0FE02 		and	r2, r2, #254
 1773 0042 1A70     		strb	r2, [r3, #0]
1405:.\Generated_Source\PSoC5/UART_Bridge.c ****         /* Exit critical section */
1406:.\Generated_Source\PSoC5/UART_Bridge.c ****         CyExitCriticalSection(enableInterrupts);
 1774              		.loc 1 1406 0
 1775 0044 FB79     		ldrb	r3, [r7, #7]	@ zero_extendqisi2
 1776 0046 1846     		mov	r0, r3
 1777 0048 FFF7FEFF 		bl	CyExitCriticalSection
1407:.\Generated_Source\PSoC5/UART_Bridge.c **** 
1408:.\Generated_Source\PSoC5/UART_Bridge.c ****         #if(UART_Bridge_TXBUFFERSIZE > UART_Bridge_FIFO_LENGTH)
1409:.\Generated_Source\PSoC5/UART_Bridge.c **** 
1410:.\Generated_Source\PSoC5/UART_Bridge.c ****             /* Disable Tx interrupt. */
1411:.\Generated_Source\PSoC5/UART_Bridge.c ****             /* Protect variables that could change on interrupt. */
ARM GAS  C:\DOCUME~1\ADMINI~1\LOCALS~1\Temp\ccTmPqfn.s 			page 57


1412:.\Generated_Source\PSoC5/UART_Bridge.c ****             #if(UART_Bridge_TX_INTERRUPT_ENABLED)
1413:.\Generated_Source\PSoC5/UART_Bridge.c ****                 UART_Bridge_DisableTxInt();
 1778              		.loc 1 1413 0
 1779 004c FFF7FEFF 		bl	UART_Bridge_DisableTxInt
1414:.\Generated_Source\PSoC5/UART_Bridge.c ****             #endif /* End UART_Bridge_TX_INTERRUPT_ENABLED */
1415:.\Generated_Source\PSoC5/UART_Bridge.c **** 
1416:.\Generated_Source\PSoC5/UART_Bridge.c ****             UART_Bridge_txBufferRead = 0u;
 1780              		.loc 1 1416 0
 1781 0050 40F20003 		movw	r3, #:lower16:UART_Bridge_txBufferRead
 1782 0054 C0F20003 		movt	r3, #:upper16:UART_Bridge_txBufferRead
 1783 0058 4FF00002 		mov	r2, #0
 1784 005c 1A70     		strb	r2, [r3, #0]
1417:.\Generated_Source\PSoC5/UART_Bridge.c ****             UART_Bridge_txBufferWrite = 0u;
 1785              		.loc 1 1417 0
 1786 005e 40F20003 		movw	r3, #:lower16:UART_Bridge_txBufferWrite
 1787 0062 C0F20003 		movt	r3, #:upper16:UART_Bridge_txBufferWrite
 1788 0066 4FF00002 		mov	r2, #0
 1789 006a 1A70     		strb	r2, [r3, #0]
1418:.\Generated_Source\PSoC5/UART_Bridge.c **** 
1419:.\Generated_Source\PSoC5/UART_Bridge.c ****             /* Enable Tx interrupt. */
1420:.\Generated_Source\PSoC5/UART_Bridge.c ****             #if(UART_Bridge_TX_INTERRUPT_ENABLED)
1421:.\Generated_Source\PSoC5/UART_Bridge.c ****                 UART_Bridge_EnableTxInt();
 1790              		.loc 1 1421 0
 1791 006c FFF7FEFF 		bl	UART_Bridge_EnableTxInt
1422:.\Generated_Source\PSoC5/UART_Bridge.c ****             #endif /* End UART_Bridge_TX_INTERRUPT_ENABLED */
1423:.\Generated_Source\PSoC5/UART_Bridge.c **** 
1424:.\Generated_Source\PSoC5/UART_Bridge.c ****         #endif /* End UART_Bridge_TXBUFFERSIZE > UART_Bridge_FIFO_LENGTH */
1425:.\Generated_Source\PSoC5/UART_Bridge.c ****     }
 1792              		.loc 1 1425 0
 1793 0070 07F10807 		add	r7, r7, #8
 1794 0074 BD46     		mov	sp, r7
 1795 0076 80BD     		pop	{r7, pc}
 1796              		.cfi_endproc
 1797              	.LFE28:
 1798              		.size	UART_Bridge_ClearTxBuffer, .-UART_Bridge_ClearTxBuffer
 1799              		.section	.text.UART_Bridge_SendBreak,"ax",%progbits
 1800              		.align	2
 1801              		.global	UART_Bridge_SendBreak
 1802              		.thumb
 1803              		.thumb_func
 1804              		.type	UART_Bridge_SendBreak, %function
 1805              	UART_Bridge_SendBreak:
 1806              	.LFB29:
1426:.\Generated_Source\PSoC5/UART_Bridge.c **** 
1427:.\Generated_Source\PSoC5/UART_Bridge.c **** 
1428:.\Generated_Source\PSoC5/UART_Bridge.c ****     /*******************************************************************************
1429:.\Generated_Source\PSoC5/UART_Bridge.c ****     * Function Name: UART_Bridge_SendBreak
1430:.\Generated_Source\PSoC5/UART_Bridge.c ****     ********************************************************************************
1431:.\Generated_Source\PSoC5/UART_Bridge.c ****     *
1432:.\Generated_Source\PSoC5/UART_Bridge.c ****     * Summary:
1433:.\Generated_Source\PSoC5/UART_Bridge.c ****     *  Write a Break command to the UART
1434:.\Generated_Source\PSoC5/UART_Bridge.c ****     *
1435:.\Generated_Source\PSoC5/UART_Bridge.c ****     * Parameters:
1436:.\Generated_Source\PSoC5/UART_Bridge.c ****     *  uint8 retMode:  Wait mode,
1437:.\Generated_Source\PSoC5/UART_Bridge.c ****     *   0 - Initialize registers for Break, sends the Break signal and return
1438:.\Generated_Source\PSoC5/UART_Bridge.c ****     *       imediately.
1439:.\Generated_Source\PSoC5/UART_Bridge.c ****     *   1 - Wait until Break sending is complete, reinitialize registers to normal
ARM GAS  C:\DOCUME~1\ADMINI~1\LOCALS~1\Temp\ccTmPqfn.s 			page 58


1440:.\Generated_Source\PSoC5/UART_Bridge.c ****     *       transmission mode then return.
1441:.\Generated_Source\PSoC5/UART_Bridge.c ****     *   2 - Reinitialize registers to normal transmission mode then return.
1442:.\Generated_Source\PSoC5/UART_Bridge.c ****     *   3 - both steps: 0 and 1
1443:.\Generated_Source\PSoC5/UART_Bridge.c ****     *       init registers for Break, send Break signal
1444:.\Generated_Source\PSoC5/UART_Bridge.c ****     *       wait until Break sending is complete, reinit registers to normal
1445:.\Generated_Source\PSoC5/UART_Bridge.c ****     *       transmission mode then return.
1446:.\Generated_Source\PSoC5/UART_Bridge.c ****     *
1447:.\Generated_Source\PSoC5/UART_Bridge.c ****     * Return:
1448:.\Generated_Source\PSoC5/UART_Bridge.c ****     *  None.
1449:.\Generated_Source\PSoC5/UART_Bridge.c ****     *
1450:.\Generated_Source\PSoC5/UART_Bridge.c ****     * Global Variables:
1451:.\Generated_Source\PSoC5/UART_Bridge.c ****     *  UART_Bridge_initVar - checked to identify that the component has been
1452:.\Generated_Source\PSoC5/UART_Bridge.c ****     *     initialized.
1453:.\Generated_Source\PSoC5/UART_Bridge.c ****     *  tx_period - static variable, used for keeping TX period configuration.
1454:.\Generated_Source\PSoC5/UART_Bridge.c ****     *
1455:.\Generated_Source\PSoC5/UART_Bridge.c ****     * Reentrant:
1456:.\Generated_Source\PSoC5/UART_Bridge.c ****     *  No.
1457:.\Generated_Source\PSoC5/UART_Bridge.c ****     *
1458:.\Generated_Source\PSoC5/UART_Bridge.c ****     * Theory:
1459:.\Generated_Source\PSoC5/UART_Bridge.c ****     *  SendBreak function initializes registers to send 13-bit break signal. It is
1460:.\Generated_Source\PSoC5/UART_Bridge.c ****     *  important to return the registers configuration to normal for continue 8-bit
1461:.\Generated_Source\PSoC5/UART_Bridge.c ****     *  operation.
1462:.\Generated_Source\PSoC5/UART_Bridge.c ****     *  Trere are 3 variants for this API usage:
1463:.\Generated_Source\PSoC5/UART_Bridge.c ****     *  1) SendBreak(3) - function will send the Break signal and take care on the
1464:.\Generated_Source\PSoC5/UART_Bridge.c ****     *     configuration returning. Funcition will block CPU untill transmition
1465:.\Generated_Source\PSoC5/UART_Bridge.c ****     *     complete.
1466:.\Generated_Source\PSoC5/UART_Bridge.c ****     *  2) User may want to use bloking time if UART configured to the low speed
1467:.\Generated_Source\PSoC5/UART_Bridge.c ****     *     operation
1468:.\Generated_Source\PSoC5/UART_Bridge.c ****     *     Emample for this case:
1469:.\Generated_Source\PSoC5/UART_Bridge.c ****     *     SendBreak(0);     - init Break signal transmition
1470:.\Generated_Source\PSoC5/UART_Bridge.c ****     *         Add your code here to use CPU time
1471:.\Generated_Source\PSoC5/UART_Bridge.c ****     *     SendBreak(1);     - complete Break operation
1472:.\Generated_Source\PSoC5/UART_Bridge.c ****     *  3) Same to 2) but user may want to init and use the interrupt for complete
1473:.\Generated_Source\PSoC5/UART_Bridge.c ****     *     break operation.
1474:.\Generated_Source\PSoC5/UART_Bridge.c ****     *     Example for this case:
1475:.\Generated_Source\PSoC5/UART_Bridge.c ****     *     Init TX interrupt whith "TX - On TX Complete" parameter
1476:.\Generated_Source\PSoC5/UART_Bridge.c ****     *     SendBreak(0);     - init Break signal transmition
1477:.\Generated_Source\PSoC5/UART_Bridge.c ****     *         Add your code here to use CPU time
1478:.\Generated_Source\PSoC5/UART_Bridge.c ****     *     When interrupt appear with UART_TX_STS_COMPLETE status:
1479:.\Generated_Source\PSoC5/UART_Bridge.c ****     *     SendBreak(2);     - complete Break operation
1480:.\Generated_Source\PSoC5/UART_Bridge.c ****     *
1481:.\Generated_Source\PSoC5/UART_Bridge.c ****     * Side Effects:
1482:.\Generated_Source\PSoC5/UART_Bridge.c ****     *   Uses static variable to keep registers configuration.
1483:.\Generated_Source\PSoC5/UART_Bridge.c ****     *
1484:.\Generated_Source\PSoC5/UART_Bridge.c ****     *******************************************************************************/
1485:.\Generated_Source\PSoC5/UART_Bridge.c ****     void UART_Bridge_SendBreak(uint8 retMode) 
1486:.\Generated_Source\PSoC5/UART_Bridge.c ****     {
 1807              		.loc 1 1486 0
 1808              		.cfi_startproc
 1809              		@ args = 0, pretend = 0, frame = 16
 1810              		@ frame_needed = 1, uses_anonymous_args = 0
 1811              		@ link register save eliminated.
 1812 0000 80B4     		push	{r7}
 1813              	.LCFI78:
 1814              		.cfi_def_cfa_offset 4
 1815 0002 85B0     		sub	sp, sp, #20
 1816              	.LCFI79:
ARM GAS  C:\DOCUME~1\ADMINI~1\LOCALS~1\Temp\ccTmPqfn.s 			page 59


 1817              		.cfi_def_cfa_offset 24
 1818 0004 00AF     		add	r7, sp, #0
 1819              		.cfi_offset 7, -4
 1820              	.LCFI80:
 1821              		.cfi_def_cfa_register 7
 1822 0006 0346     		mov	r3, r0
 1823 0008 FB71     		strb	r3, [r7, #7]
1487:.\Generated_Source\PSoC5/UART_Bridge.c **** 
1488:.\Generated_Source\PSoC5/UART_Bridge.c ****         /* If not Initialized then skip this function*/
1489:.\Generated_Source\PSoC5/UART_Bridge.c ****         if(UART_Bridge_initVar != 0u)
 1824              		.loc 1 1489 0
 1825 000a 40F20003 		movw	r3, #:lower16:UART_Bridge_initVar
 1826 000e C0F20003 		movt	r3, #:upper16:UART_Bridge_initVar
 1827 0012 1B78     		ldrb	r3, [r3, #0]	@ zero_extendqisi2
 1828 0014 002B     		cmp	r3, #0
 1829 0016 54D0     		beq	.L107
 1830              	.LBB2:
1490:.\Generated_Source\PSoC5/UART_Bridge.c ****         {
1491:.\Generated_Source\PSoC5/UART_Bridge.c ****             /*Set the Counter to 13-bits and transmit a 00 byte*/
1492:.\Generated_Source\PSoC5/UART_Bridge.c ****             /*When that is done then reset the counter value back*/
1493:.\Generated_Source\PSoC5/UART_Bridge.c ****             uint8 tmpStat;
1494:.\Generated_Source\PSoC5/UART_Bridge.c **** 
1495:.\Generated_Source\PSoC5/UART_Bridge.c ****             #if(UART_Bridge_HD_ENABLED) /* Half Duplex mode*/
1496:.\Generated_Source\PSoC5/UART_Bridge.c **** 
1497:.\Generated_Source\PSoC5/UART_Bridge.c ****                 if( (retMode == UART_Bridge_SEND_BREAK) ||
1498:.\Generated_Source\PSoC5/UART_Bridge.c ****                     (retMode == UART_Bridge_SEND_WAIT_REINIT ) )
1499:.\Generated_Source\PSoC5/UART_Bridge.c ****                 {
1500:.\Generated_Source\PSoC5/UART_Bridge.c ****                     /* CTRL_HD_SEND_BREAK - sends break bits in HD mode*/
1501:.\Generated_Source\PSoC5/UART_Bridge.c ****                     UART_Bridge_WriteControlRegister(UART_Bridge_ReadControlRegister() |
1502:.\Generated_Source\PSoC5/UART_Bridge.c ****                                                           UART_Bridge_CTRL_HD_SEND_BREAK);
1503:.\Generated_Source\PSoC5/UART_Bridge.c ****                     /* Send zeros*/
1504:.\Generated_Source\PSoC5/UART_Bridge.c ****                     UART_Bridge_TXDATA_REG = 0u;
1505:.\Generated_Source\PSoC5/UART_Bridge.c **** 
1506:.\Generated_Source\PSoC5/UART_Bridge.c ****                     do /*wait until transmit starts*/
1507:.\Generated_Source\PSoC5/UART_Bridge.c ****                     {
1508:.\Generated_Source\PSoC5/UART_Bridge.c ****                         tmpStat = UART_Bridge_TXSTATUS_REG;
1509:.\Generated_Source\PSoC5/UART_Bridge.c ****                     }while((tmpStat & UART_Bridge_TX_STS_FIFO_EMPTY) != 0u);
1510:.\Generated_Source\PSoC5/UART_Bridge.c ****                 }
1511:.\Generated_Source\PSoC5/UART_Bridge.c **** 
1512:.\Generated_Source\PSoC5/UART_Bridge.c ****                 if( (retMode == UART_Bridge_WAIT_FOR_COMPLETE_REINIT) ||
1513:.\Generated_Source\PSoC5/UART_Bridge.c ****                     (retMode == UART_Bridge_SEND_WAIT_REINIT) )
1514:.\Generated_Source\PSoC5/UART_Bridge.c ****                 {
1515:.\Generated_Source\PSoC5/UART_Bridge.c ****                     do /*wait until transmit complete*/
1516:.\Generated_Source\PSoC5/UART_Bridge.c ****                     {
1517:.\Generated_Source\PSoC5/UART_Bridge.c ****                         tmpStat = UART_Bridge_TXSTATUS_REG;
1518:.\Generated_Source\PSoC5/UART_Bridge.c ****                     }while(((uint8)~tmpStat & UART_Bridge_TX_STS_COMPLETE) != 0u);
1519:.\Generated_Source\PSoC5/UART_Bridge.c ****                 }
1520:.\Generated_Source\PSoC5/UART_Bridge.c **** 
1521:.\Generated_Source\PSoC5/UART_Bridge.c ****                 if( (retMode == UART_Bridge_WAIT_FOR_COMPLETE_REINIT) ||
1522:.\Generated_Source\PSoC5/UART_Bridge.c ****                     (retMode == UART_Bridge_REINIT) ||
1523:.\Generated_Source\PSoC5/UART_Bridge.c ****                     (retMode == UART_Bridge_SEND_WAIT_REINIT) )
1524:.\Generated_Source\PSoC5/UART_Bridge.c ****                 {
1525:.\Generated_Source\PSoC5/UART_Bridge.c ****                     UART_Bridge_WriteControlRegister(UART_Bridge_ReadControlRegister() &
1526:.\Generated_Source\PSoC5/UART_Bridge.c ****                                                   (uint8)~UART_Bridge_CTRL_HD_SEND_BREAK);
1527:.\Generated_Source\PSoC5/UART_Bridge.c ****                 }
1528:.\Generated_Source\PSoC5/UART_Bridge.c **** 
1529:.\Generated_Source\PSoC5/UART_Bridge.c ****             #else /* UART_Bridge_HD_ENABLED Full Duplex mode */
ARM GAS  C:\DOCUME~1\ADMINI~1\LOCALS~1\Temp\ccTmPqfn.s 			page 60


1530:.\Generated_Source\PSoC5/UART_Bridge.c **** 
1531:.\Generated_Source\PSoC5/UART_Bridge.c ****                 static uint8 tx_period;
1532:.\Generated_Source\PSoC5/UART_Bridge.c **** 
1533:.\Generated_Source\PSoC5/UART_Bridge.c ****                 if( (retMode == UART_Bridge_SEND_BREAK) ||
 1831              		.loc 1 1533 0
 1832 0018 FB79     		ldrb	r3, [r7, #7]	@ zero_extendqisi2
 1833 001a 002B     		cmp	r3, #0
 1834 001c 02D0     		beq	.L99
 1835 001e FB79     		ldrb	r3, [r7, #7]	@ zero_extendqisi2
 1836 0020 032B     		cmp	r3, #3
 1837 0022 23D1     		bne	.L100
 1838              	.L99:
1534:.\Generated_Source\PSoC5/UART_Bridge.c ****                     (retMode == UART_Bridge_SEND_WAIT_REINIT) )
1535:.\Generated_Source\PSoC5/UART_Bridge.c ****                 {
1536:.\Generated_Source\PSoC5/UART_Bridge.c ****                     /* CTRL_HD_SEND_BREAK - skip to send parity bit at Break signal in Full Duplex 
1537:.\Generated_Source\PSoC5/UART_Bridge.c ****                     #if( (UART_Bridge_PARITY_TYPE != UART_Bridge__B_UART__NONE_REVB) || \
1538:.\Generated_Source\PSoC5/UART_Bridge.c ****                                         (UART_Bridge_PARITY_TYPE_SW != 0u) )
1539:.\Generated_Source\PSoC5/UART_Bridge.c ****                         UART_Bridge_WriteControlRegister(UART_Bridge_ReadControlRegister() |
1540:.\Generated_Source\PSoC5/UART_Bridge.c ****                                                               UART_Bridge_CTRL_HD_SEND_BREAK);
1541:.\Generated_Source\PSoC5/UART_Bridge.c ****                     #endif /* End UART_Bridge_PARITY_TYPE != UART_Bridge__B_UART__NONE_REVB  */
1542:.\Generated_Source\PSoC5/UART_Bridge.c **** 
1543:.\Generated_Source\PSoC5/UART_Bridge.c ****                     #if(UART_Bridge_TXCLKGEN_DP)
1544:.\Generated_Source\PSoC5/UART_Bridge.c ****                         tx_period = UART_Bridge_TXBITCLKTX_COMPLETE_REG;
 1839              		.loc 1 1544 0
 1840 0024 46F23F43 		movw	r3, #:lower16:1073767487
 1841 0028 C4F20003 		movt	r3, #:upper16:1073767487
 1842 002c 1B78     		ldrb	r3, [r3, #0]
 1843 002e DAB2     		uxtb	r2, r3
 1844 0030 40F20003 		movw	r3, #:lower16:tx_period.2388
 1845 0034 C0F20003 		movt	r3, #:upper16:tx_period.2388
 1846 0038 1A70     		strb	r2, [r3, #0]
1545:.\Generated_Source\PSoC5/UART_Bridge.c ****                         UART_Bridge_TXBITCLKTX_COMPLETE_REG = UART_Bridge_TXBITCTR_BREAKBITS;
 1847              		.loc 1 1545 0
 1848 003a 46F23F43 		movw	r3, #:lower16:1073767487
 1849 003e C4F20003 		movt	r3, #:upper16:1073767487
 1850 0042 4FF06702 		mov	r2, #103
 1851 0046 1A70     		strb	r2, [r3, #0]
1546:.\Generated_Source\PSoC5/UART_Bridge.c ****                     #else
1547:.\Generated_Source\PSoC5/UART_Bridge.c ****                         tx_period = UART_Bridge_TXBITCTR_PERIOD_REG;
1548:.\Generated_Source\PSoC5/UART_Bridge.c ****                         UART_Bridge_TXBITCTR_PERIOD_REG = UART_Bridge_TXBITCTR_BREAKBITS8X;
1549:.\Generated_Source\PSoC5/UART_Bridge.c ****                     #endif /* End UART_Bridge_TXCLKGEN_DP */
1550:.\Generated_Source\PSoC5/UART_Bridge.c **** 
1551:.\Generated_Source\PSoC5/UART_Bridge.c ****                     /* Send zeros*/
1552:.\Generated_Source\PSoC5/UART_Bridge.c ****                     UART_Bridge_TXDATA_REG = 0u;
 1852              		.loc 1 1552 0
 1853 0048 46F24E43 		movw	r3, #:lower16:1073767502
 1854 004c C4F20003 		movt	r3, #:upper16:1073767502
 1855 0050 4FF00002 		mov	r2, #0
 1856 0054 1A70     		strb	r2, [r3, #0]
 1857              	.L101:
1553:.\Generated_Source\PSoC5/UART_Bridge.c **** 
1554:.\Generated_Source\PSoC5/UART_Bridge.c ****                     do /* wait until transmit starts */
1555:.\Generated_Source\PSoC5/UART_Bridge.c ****                     {
1556:.\Generated_Source\PSoC5/UART_Bridge.c ****                         tmpStat = UART_Bridge_TXSTATUS_REG;
 1858              		.loc 1 1556 0
 1859 0056 46F26E43 		movw	r3, #:lower16:1073767534
 1860 005a C4F20003 		movt	r3, #:upper16:1073767534
ARM GAS  C:\DOCUME~1\ADMINI~1\LOCALS~1\Temp\ccTmPqfn.s 			page 61


 1861 005e 1B78     		ldrb	r3, [r3, #0]
 1862 0060 FB73     		strb	r3, [r7, #15]
1557:.\Generated_Source\PSoC5/UART_Bridge.c ****                     }while((tmpStat & UART_Bridge_TX_STS_FIFO_EMPTY) != 0u);
 1863              		.loc 1 1557 0
 1864 0062 FB7B     		ldrb	r3, [r7, #15]	@ zero_extendqisi2
 1865 0064 03F00203 		and	r3, r3, #2
 1866 0068 002B     		cmp	r3, #0
 1867 006a F4D1     		bne	.L101
 1868              	.L100:
1558:.\Generated_Source\PSoC5/UART_Bridge.c ****                 }
1559:.\Generated_Source\PSoC5/UART_Bridge.c **** 
1560:.\Generated_Source\PSoC5/UART_Bridge.c ****                 if( (retMode == UART_Bridge_WAIT_FOR_COMPLETE_REINIT) ||
 1869              		.loc 1 1560 0
 1870 006c FB79     		ldrb	r3, [r7, #7]	@ zero_extendqisi2
 1871 006e 012B     		cmp	r3, #1
 1872 0070 02D0     		beq	.L102
 1873 0072 FB79     		ldrb	r3, [r7, #7]	@ zero_extendqisi2
 1874 0074 032B     		cmp	r3, #3
 1875 0076 11D1     		bne	.L103
 1876              	.L102:
1561:.\Generated_Source\PSoC5/UART_Bridge.c ****                     (retMode == UART_Bridge_SEND_WAIT_REINIT) )
1562:.\Generated_Source\PSoC5/UART_Bridge.c ****                 {
1563:.\Generated_Source\PSoC5/UART_Bridge.c ****                     do /*wait until transmit complete*/
1564:.\Generated_Source\PSoC5/UART_Bridge.c ****                     {
1565:.\Generated_Source\PSoC5/UART_Bridge.c ****                         tmpStat = UART_Bridge_TXSTATUS_REG;
 1877              		.loc 1 1565 0
 1878 0078 46F26E43 		movw	r3, #:lower16:1073767534
 1879 007c C4F20003 		movt	r3, #:upper16:1073767534
 1880 0080 1B78     		ldrb	r3, [r3, #0]
 1881 0082 FB73     		strb	r3, [r7, #15]
1566:.\Generated_Source\PSoC5/UART_Bridge.c ****                     }while(((uint8)~tmpStat & UART_Bridge_TX_STS_COMPLETE) != 0u);
 1882              		.loc 1 1566 0
 1883 0084 FB7B     		ldrb	r3, [r7, #15]	@ zero_extendqisi2
 1884 0086 03F00103 		and	r3, r3, #1
 1885 008a 002B     		cmp	r3, #0
 1886 008c 02D1     		bne	.L104
 1887 008e 4FF00103 		mov	r3, #1
 1888 0092 01E0     		b	.L105
 1889              	.L104:
 1890 0094 4FF00003 		mov	r3, #0
 1891              	.L105:
 1892 0098 002B     		cmp	r3, #0
 1893 009a EDD1     		bne	.L102
 1894              	.L103:
1567:.\Generated_Source\PSoC5/UART_Bridge.c ****                 }
1568:.\Generated_Source\PSoC5/UART_Bridge.c **** 
1569:.\Generated_Source\PSoC5/UART_Bridge.c ****                 if( (retMode == UART_Bridge_WAIT_FOR_COMPLETE_REINIT) ||
 1895              		.loc 1 1569 0
 1896 009c FB79     		ldrb	r3, [r7, #7]	@ zero_extendqisi2
 1897 009e 012B     		cmp	r3, #1
 1898 00a0 05D0     		beq	.L106
 1899 00a2 FB79     		ldrb	r3, [r7, #7]	@ zero_extendqisi2
 1900 00a4 022B     		cmp	r3, #2
 1901 00a6 02D0     		beq	.L106
 1902 00a8 FB79     		ldrb	r3, [r7, #7]	@ zero_extendqisi2
 1903 00aa 032B     		cmp	r3, #3
 1904 00ac 09D1     		bne	.L107
ARM GAS  C:\DOCUME~1\ADMINI~1\LOCALS~1\Temp\ccTmPqfn.s 			page 62


 1905              	.L106:
1570:.\Generated_Source\PSoC5/UART_Bridge.c ****                     (retMode == UART_Bridge_REINIT) ||
1571:.\Generated_Source\PSoC5/UART_Bridge.c ****                     (retMode == UART_Bridge_SEND_WAIT_REINIT) )
1572:.\Generated_Source\PSoC5/UART_Bridge.c ****                 {
1573:.\Generated_Source\PSoC5/UART_Bridge.c **** 
1574:.\Generated_Source\PSoC5/UART_Bridge.c ****                     #if(UART_Bridge_TXCLKGEN_DP)
1575:.\Generated_Source\PSoC5/UART_Bridge.c ****                         UART_Bridge_TXBITCLKTX_COMPLETE_REG = tx_period;
 1906              		.loc 1 1575 0
 1907 00ae 46F23F43 		movw	r3, #:lower16:1073767487
 1908 00b2 C4F20003 		movt	r3, #:upper16:1073767487
 1909 00b6 40F20002 		movw	r2, #:lower16:tx_period.2388
 1910 00ba C0F20002 		movt	r2, #:upper16:tx_period.2388
 1911 00be 1278     		ldrb	r2, [r2, #0]	@ zero_extendqisi2
 1912 00c0 1A70     		strb	r2, [r3, #0]
 1913              	.L107:
 1914              	.LBE2:
1576:.\Generated_Source\PSoC5/UART_Bridge.c ****                     #else
1577:.\Generated_Source\PSoC5/UART_Bridge.c ****                         UART_Bridge_TXBITCTR_PERIOD_REG = tx_period;
1578:.\Generated_Source\PSoC5/UART_Bridge.c ****                     #endif /* End UART_Bridge_TXCLKGEN_DP */
1579:.\Generated_Source\PSoC5/UART_Bridge.c **** 
1580:.\Generated_Source\PSoC5/UART_Bridge.c ****                     #if( (UART_Bridge_PARITY_TYPE != UART_Bridge__B_UART__NONE_REVB) || \
1581:.\Generated_Source\PSoC5/UART_Bridge.c ****                          (UART_Bridge_PARITY_TYPE_SW != 0u) )
1582:.\Generated_Source\PSoC5/UART_Bridge.c ****                         UART_Bridge_WriteControlRegister(UART_Bridge_ReadControlRegister() &
1583:.\Generated_Source\PSoC5/UART_Bridge.c ****                                                       (uint8)~UART_Bridge_CTRL_HD_SEND_BREAK);
1584:.\Generated_Source\PSoC5/UART_Bridge.c ****                     #endif /* End UART_Bridge_PARITY_TYPE != NONE */
1585:.\Generated_Source\PSoC5/UART_Bridge.c ****                 }
1586:.\Generated_Source\PSoC5/UART_Bridge.c ****             #endif    /* End UART_Bridge_HD_ENABLED */
1587:.\Generated_Source\PSoC5/UART_Bridge.c ****         }
1588:.\Generated_Source\PSoC5/UART_Bridge.c ****     }
 1915              		.loc 1 1588 0
 1916 00c2 07F11407 		add	r7, r7, #20
 1917 00c6 BD46     		mov	sp, r7
 1918 00c8 80BC     		pop	{r7}
 1919 00ca 7047     		bx	lr
 1920              		.cfi_endproc
 1921              	.LFE29:
 1922              		.size	UART_Bridge_SendBreak, .-UART_Bridge_SendBreak
 1923              		.section	.text.UART_Bridge_SetTxAddressMode,"ax",%progbits
 1924              		.align	2
 1925              		.global	UART_Bridge_SetTxAddressMode
 1926              		.thumb
 1927              		.thumb_func
 1928              		.type	UART_Bridge_SetTxAddressMode, %function
 1929              	UART_Bridge_SetTxAddressMode:
 1930              	.LFB30:
1589:.\Generated_Source\PSoC5/UART_Bridge.c **** 
1590:.\Generated_Source\PSoC5/UART_Bridge.c **** 
1591:.\Generated_Source\PSoC5/UART_Bridge.c ****     /*******************************************************************************
1592:.\Generated_Source\PSoC5/UART_Bridge.c ****     * Function Name: UART_Bridge_SetTxAddressMode
1593:.\Generated_Source\PSoC5/UART_Bridge.c ****     ********************************************************************************
1594:.\Generated_Source\PSoC5/UART_Bridge.c ****     *
1595:.\Generated_Source\PSoC5/UART_Bridge.c ****     * Summary:
1596:.\Generated_Source\PSoC5/UART_Bridge.c ****     *  Set the transmit addressing mode
1597:.\Generated_Source\PSoC5/UART_Bridge.c ****     *
1598:.\Generated_Source\PSoC5/UART_Bridge.c ****     * Parameters:
1599:.\Generated_Source\PSoC5/UART_Bridge.c ****     *  addressMode: 0 -> Space
1600:.\Generated_Source\PSoC5/UART_Bridge.c ****     *               1 -> Mark
ARM GAS  C:\DOCUME~1\ADMINI~1\LOCALS~1\Temp\ccTmPqfn.s 			page 63


1601:.\Generated_Source\PSoC5/UART_Bridge.c ****     *
1602:.\Generated_Source\PSoC5/UART_Bridge.c ****     * Return:
1603:.\Generated_Source\PSoC5/UART_Bridge.c ****     *  None.
1604:.\Generated_Source\PSoC5/UART_Bridge.c ****     *
1605:.\Generated_Source\PSoC5/UART_Bridge.c ****     *******************************************************************************/
1606:.\Generated_Source\PSoC5/UART_Bridge.c ****     void UART_Bridge_SetTxAddressMode(uint8 addressMode) 
1607:.\Generated_Source\PSoC5/UART_Bridge.c ****     {
 1931              		.loc 1 1607 0
 1932              		.cfi_startproc
 1933              		@ args = 0, pretend = 0, frame = 8
 1934              		@ frame_needed = 1, uses_anonymous_args = 0
 1935              		@ link register save eliminated.
 1936 0000 80B4     		push	{r7}
 1937              	.LCFI81:
 1938              		.cfi_def_cfa_offset 4
 1939 0002 83B0     		sub	sp, sp, #12
 1940              	.LCFI82:
 1941              		.cfi_def_cfa_offset 16
 1942 0004 00AF     		add	r7, sp, #0
 1943              		.cfi_offset 7, -4
 1944              	.LCFI83:
 1945              		.cfi_def_cfa_register 7
 1946 0006 0346     		mov	r3, r0
 1947 0008 FB71     		strb	r3, [r7, #7]
1608:.\Generated_Source\PSoC5/UART_Bridge.c ****         /* Mark/Space sending enable*/
1609:.\Generated_Source\PSoC5/UART_Bridge.c ****         if(addressMode != 0u)
1610:.\Generated_Source\PSoC5/UART_Bridge.c ****         {
1611:.\Generated_Source\PSoC5/UART_Bridge.c ****             #if( UART_Bridge_CONTROL_REG_REMOVED == 0u )
1612:.\Generated_Source\PSoC5/UART_Bridge.c ****                 UART_Bridge_WriteControlRegister(UART_Bridge_ReadControlRegister() |
1613:.\Generated_Source\PSoC5/UART_Bridge.c ****                                                       UART_Bridge_CTRL_MARK);
1614:.\Generated_Source\PSoC5/UART_Bridge.c ****             #endif /* End UART_Bridge_CONTROL_REG_REMOVED == 0u */
1615:.\Generated_Source\PSoC5/UART_Bridge.c ****         }
1616:.\Generated_Source\PSoC5/UART_Bridge.c ****         else
1617:.\Generated_Source\PSoC5/UART_Bridge.c ****         {
1618:.\Generated_Source\PSoC5/UART_Bridge.c ****             #if( UART_Bridge_CONTROL_REG_REMOVED == 0u )
1619:.\Generated_Source\PSoC5/UART_Bridge.c ****                 UART_Bridge_WriteControlRegister(UART_Bridge_ReadControlRegister() &
1620:.\Generated_Source\PSoC5/UART_Bridge.c ****                                                     (uint8)~UART_Bridge_CTRL_MARK);
1621:.\Generated_Source\PSoC5/UART_Bridge.c ****             #endif /* End UART_Bridge_CONTROL_REG_REMOVED == 0u */
1622:.\Generated_Source\PSoC5/UART_Bridge.c ****         }
1623:.\Generated_Source\PSoC5/UART_Bridge.c ****     }
 1948              		.loc 1 1623 0
 1949 000a 07F10C07 		add	r7, r7, #12
 1950 000e BD46     		mov	sp, r7
 1951 0010 80BC     		pop	{r7}
 1952 0012 7047     		bx	lr
 1953              		.cfi_endproc
 1954              	.LFE30:
 1955              		.size	UART_Bridge_SetTxAddressMode, .-UART_Bridge_SetTxAddressMode
 1956              		.bss
 1957              	tx_period.2388:
 1958 0007 00       		.space	1
 1959              		.text
 1960              	.Letext0:
 1961              		.section	.debug_loc,"",%progbits
 1962              	.Ldebug_loc0:
 1963              	.LLST0:
 1964 0000 00000000 		.4byte	.LFB0
ARM GAS  C:\DOCUME~1\ADMINI~1\LOCALS~1\Temp\ccTmPqfn.s 			page 64


 1965 0004 02000000 		.4byte	.LCFI0
 1966 0008 0100     		.2byte	0x1
 1967 000a 5D       		.byte	0x5d
 1968 000b 02000000 		.4byte	.LCFI0
 1969 000f 04000000 		.4byte	.LCFI1
 1970 0013 0200     		.2byte	0x2
 1971 0015 7D       		.byte	0x7d
 1972 0016 08       		.sleb128 8
 1973 0017 04000000 		.4byte	.LCFI1
 1974 001b 2A000000 		.4byte	.LFE0
 1975 001f 0200     		.2byte	0x2
 1976 0021 77       		.byte	0x77
 1977 0022 08       		.sleb128 8
 1978 0023 00000000 		.4byte	0x0
 1979 0027 00000000 		.4byte	0x0
 1980              	.LLST1:
 1981 002b 00000000 		.4byte	.LFB1
 1982 002f 02000000 		.4byte	.LCFI2
 1983 0033 0100     		.2byte	0x1
 1984 0035 5D       		.byte	0x5d
 1985 0036 02000000 		.4byte	.LCFI2
 1986 003a 04000000 		.4byte	.LCFI3
 1987 003e 0200     		.2byte	0x2
 1988 0040 7D       		.byte	0x7d
 1989 0041 08       		.sleb128 8
 1990 0042 04000000 		.4byte	.LCFI3
 1991 0046 84000000 		.4byte	.LFE1
 1992 004a 0200     		.2byte	0x2
 1993 004c 77       		.byte	0x77
 1994 004d 08       		.sleb128 8
 1995 004e 00000000 		.4byte	0x0
 1996 0052 00000000 		.4byte	0x0
 1997              	.LLST2:
 1998 0056 00000000 		.4byte	.LFB2
 1999 005a 02000000 		.4byte	.LCFI4
 2000 005e 0100     		.2byte	0x1
 2001 0060 5D       		.byte	0x5d
 2002 0061 02000000 		.4byte	.LCFI4
 2003 0065 04000000 		.4byte	.LCFI5
 2004 0069 0200     		.2byte	0x2
 2005 006b 7D       		.byte	0x7d
 2006 006c 08       		.sleb128 8
 2007 006d 04000000 		.4byte	.LCFI5
 2008 0071 06000000 		.4byte	.LCFI6
 2009 0075 0200     		.2byte	0x2
 2010 0077 7D       		.byte	0x7d
 2011 0078 10       		.sleb128 16
 2012 0079 06000000 		.4byte	.LCFI6
 2013 007d 8E000000 		.4byte	.LFE2
 2014 0081 0200     		.2byte	0x2
 2015 0083 77       		.byte	0x77
 2016 0084 10       		.sleb128 16
 2017 0085 00000000 		.4byte	0x0
 2018 0089 00000000 		.4byte	0x0
 2019              	.LLST3:
 2020 008d 00000000 		.4byte	.LFB3
 2021 0091 02000000 		.4byte	.LCFI7
ARM GAS  C:\DOCUME~1\ADMINI~1\LOCALS~1\Temp\ccTmPqfn.s 			page 65


 2022 0095 0100     		.2byte	0x1
 2023 0097 5D       		.byte	0x5d
 2024 0098 02000000 		.4byte	.LCFI7
 2025 009c 04000000 		.4byte	.LCFI8
 2026 00a0 0200     		.2byte	0x2
 2027 00a2 7D       		.byte	0x7d
 2028 00a3 08       		.sleb128 8
 2029 00a4 04000000 		.4byte	.LCFI8
 2030 00a8 06000000 		.4byte	.LCFI9
 2031 00ac 0200     		.2byte	0x2
 2032 00ae 7D       		.byte	0x7d
 2033 00af 10       		.sleb128 16
 2034 00b0 06000000 		.4byte	.LCFI9
 2035 00b4 74000000 		.4byte	.LFE3
 2036 00b8 0200     		.2byte	0x2
 2037 00ba 77       		.byte	0x77
 2038 00bb 10       		.sleb128 16
 2039 00bc 00000000 		.4byte	0x0
 2040 00c0 00000000 		.4byte	0x0
 2041              	.LLST4:
 2042 00c4 00000000 		.4byte	.LFB4
 2043 00c8 02000000 		.4byte	.LCFI10
 2044 00cc 0100     		.2byte	0x1
 2045 00ce 5D       		.byte	0x5d
 2046 00cf 02000000 		.4byte	.LCFI10
 2047 00d3 04000000 		.4byte	.LCFI11
 2048 00d7 0200     		.2byte	0x2
 2049 00d9 7D       		.byte	0x7d
 2050 00da 04       		.sleb128 4
 2051 00db 04000000 		.4byte	.LCFI11
 2052 00df 10000000 		.4byte	.LFE4
 2053 00e3 0200     		.2byte	0x2
 2054 00e5 77       		.byte	0x77
 2055 00e6 04       		.sleb128 4
 2056 00e7 00000000 		.4byte	0x0
 2057 00eb 00000000 		.4byte	0x0
 2058              	.LLST5:
 2059 00ef 00000000 		.4byte	.LFB5
 2060 00f3 02000000 		.4byte	.LCFI12
 2061 00f7 0100     		.2byte	0x1
 2062 00f9 5D       		.byte	0x5d
 2063 00fa 02000000 		.4byte	.LCFI12
 2064 00fe 04000000 		.4byte	.LCFI13
 2065 0102 0200     		.2byte	0x2
 2066 0104 7D       		.byte	0x7d
 2067 0105 04       		.sleb128 4
 2068 0106 04000000 		.4byte	.LCFI13
 2069 010a 06000000 		.4byte	.LCFI14
 2070 010e 0200     		.2byte	0x2
 2071 0110 7D       		.byte	0x7d
 2072 0111 10       		.sleb128 16
 2073 0112 06000000 		.4byte	.LCFI14
 2074 0116 14000000 		.4byte	.LFE5
 2075 011a 0200     		.2byte	0x2
 2076 011c 77       		.byte	0x77
 2077 011d 10       		.sleb128 16
 2078 011e 00000000 		.4byte	0x0
ARM GAS  C:\DOCUME~1\ADMINI~1\LOCALS~1\Temp\ccTmPqfn.s 			page 66


 2079 0122 00000000 		.4byte	0x0
 2080              	.LLST6:
 2081 0126 00000000 		.4byte	.LFB6
 2082 012a 02000000 		.4byte	.LCFI15
 2083 012e 0100     		.2byte	0x1
 2084 0130 5D       		.byte	0x5d
 2085 0131 02000000 		.4byte	.LCFI15
 2086 0135 04000000 		.4byte	.LCFI16
 2087 0139 0200     		.2byte	0x2
 2088 013b 7D       		.byte	0x7d
 2089 013c 04       		.sleb128 4
 2090 013d 04000000 		.4byte	.LCFI16
 2091 0141 18000000 		.4byte	.LFE6
 2092 0145 0200     		.2byte	0x2
 2093 0147 77       		.byte	0x77
 2094 0148 04       		.sleb128 4
 2095 0149 00000000 		.4byte	0x0
 2096 014d 00000000 		.4byte	0x0
 2097              	.LLST7:
 2098 0151 00000000 		.4byte	.LFB7
 2099 0155 02000000 		.4byte	.LCFI17
 2100 0159 0100     		.2byte	0x1
 2101 015b 5D       		.byte	0x5d
 2102 015c 02000000 		.4byte	.LCFI17
 2103 0160 04000000 		.4byte	.LCFI18
 2104 0164 0200     		.2byte	0x2
 2105 0166 7D       		.byte	0x7d
 2106 0167 04       		.sleb128 4
 2107 0168 04000000 		.4byte	.LCFI18
 2108 016c 18000000 		.4byte	.LFE7
 2109 0170 0200     		.2byte	0x2
 2110 0172 77       		.byte	0x77
 2111 0173 04       		.sleb128 4
 2112 0174 00000000 		.4byte	0x0
 2113 0178 00000000 		.4byte	0x0
 2114              	.LLST8:
 2115 017c 00000000 		.4byte	.LFB8
 2116 0180 02000000 		.4byte	.LCFI19
 2117 0184 0100     		.2byte	0x1
 2118 0186 5D       		.byte	0x5d
 2119 0187 02000000 		.4byte	.LCFI19
 2120 018b 04000000 		.4byte	.LCFI20
 2121 018f 0200     		.2byte	0x2
 2122 0191 7D       		.byte	0x7d
 2123 0192 04       		.sleb128 4
 2124 0193 04000000 		.4byte	.LCFI20
 2125 0197 06000000 		.4byte	.LCFI21
 2126 019b 0200     		.2byte	0x2
 2127 019d 7D       		.byte	0x7d
 2128 019e 10       		.sleb128 16
 2129 019f 06000000 		.4byte	.LCFI21
 2130 01a3 20000000 		.4byte	.LFE8
 2131 01a7 0200     		.2byte	0x2
 2132 01a9 77       		.byte	0x77
 2133 01aa 10       		.sleb128 16
 2134 01ab 00000000 		.4byte	0x0
 2135 01af 00000000 		.4byte	0x0
ARM GAS  C:\DOCUME~1\ADMINI~1\LOCALS~1\Temp\ccTmPqfn.s 			page 67


 2136              	.LLST9:
 2137 01b3 00000000 		.4byte	.LFB9
 2138 01b7 02000000 		.4byte	.LCFI22
 2139 01bb 0100     		.2byte	0x1
 2140 01bd 5D       		.byte	0x5d
 2141 01be 02000000 		.4byte	.LCFI22
 2142 01c2 04000000 		.4byte	.LCFI23
 2143 01c6 0200     		.2byte	0x2
 2144 01c8 7D       		.byte	0x7d
 2145 01c9 08       		.sleb128 8
 2146 01ca 04000000 		.4byte	.LCFI23
 2147 01ce 06000000 		.4byte	.LCFI24
 2148 01d2 0200     		.2byte	0x2
 2149 01d4 7D       		.byte	0x7d
 2150 01d5 10       		.sleb128 16
 2151 01d6 06000000 		.4byte	.LCFI24
 2152 01da AA000000 		.4byte	.LFE9
 2153 01de 0200     		.2byte	0x2
 2154 01e0 77       		.byte	0x77
 2155 01e1 10       		.sleb128 16
 2156 01e2 00000000 		.4byte	0x0
 2157 01e6 00000000 		.4byte	0x0
 2158              	.LLST10:
 2159 01ea 00000000 		.4byte	.LFB10
 2160 01ee 02000000 		.4byte	.LCFI25
 2161 01f2 0100     		.2byte	0x1
 2162 01f4 5D       		.byte	0x5d
 2163 01f5 02000000 		.4byte	.LCFI25
 2164 01f9 04000000 		.4byte	.LCFI26
 2165 01fd 0200     		.2byte	0x2
 2166 01ff 7D       		.byte	0x7d
 2167 0200 04       		.sleb128 4
 2168 0201 04000000 		.4byte	.LCFI26
 2169 0205 06000000 		.4byte	.LCFI27
 2170 0209 0200     		.2byte	0x2
 2171 020b 7D       		.byte	0x7d
 2172 020c 10       		.sleb128 16
 2173 020d 06000000 		.4byte	.LCFI27
 2174 0211 50000000 		.4byte	.LFE10
 2175 0215 0200     		.2byte	0x2
 2176 0217 77       		.byte	0x77
 2177 0218 10       		.sleb128 16
 2178 0219 00000000 		.4byte	0x0
 2179 021d 00000000 		.4byte	0x0
 2180              	.LLST11:
 2181 0221 00000000 		.4byte	.LFB11
 2182 0225 02000000 		.4byte	.LCFI28
 2183 0229 0100     		.2byte	0x1
 2184 022b 5D       		.byte	0x5d
 2185 022c 02000000 		.4byte	.LCFI28
 2186 0230 04000000 		.4byte	.LCFI29
 2187 0234 0200     		.2byte	0x2
 2188 0236 7D       		.byte	0x7d
 2189 0237 08       		.sleb128 8
 2190 0238 04000000 		.4byte	.LCFI29
 2191 023c 06000000 		.4byte	.LCFI30
 2192 0240 0200     		.2byte	0x2
ARM GAS  C:\DOCUME~1\ADMINI~1\LOCALS~1\Temp\ccTmPqfn.s 			page 68


 2193 0242 7D       		.byte	0x7d
 2194 0243 10       		.sleb128 16
 2195 0244 06000000 		.4byte	.LCFI30
 2196 0248 D6000000 		.4byte	.LFE11
 2197 024c 0200     		.2byte	0x2
 2198 024e 77       		.byte	0x77
 2199 024f 10       		.sleb128 16
 2200 0250 00000000 		.4byte	0x0
 2201 0254 00000000 		.4byte	0x0
 2202              	.LLST12:
 2203 0258 00000000 		.4byte	.LFB12
 2204 025c 02000000 		.4byte	.LCFI31
 2205 0260 0100     		.2byte	0x1
 2206 0262 5D       		.byte	0x5d
 2207 0263 02000000 		.4byte	.LCFI31
 2208 0267 04000000 		.4byte	.LCFI32
 2209 026b 0200     		.2byte	0x2
 2210 026d 7D       		.byte	0x7d
 2211 026e 10       		.sleb128 16
 2212 026f 04000000 		.4byte	.LCFI32
 2213 0273 24000000 		.4byte	.LFE12
 2214 0277 0200     		.2byte	0x2
 2215 0279 77       		.byte	0x77
 2216 027a 10       		.sleb128 16
 2217 027b 00000000 		.4byte	0x0
 2218 027f 00000000 		.4byte	0x0
 2219              	.LLST13:
 2220 0283 00000000 		.4byte	.LFB13
 2221 0287 02000000 		.4byte	.LCFI33
 2222 028b 0100     		.2byte	0x1
 2223 028d 5D       		.byte	0x5d
 2224 028e 02000000 		.4byte	.LCFI33
 2225 0292 04000000 		.4byte	.LCFI34
 2226 0296 0200     		.2byte	0x2
 2227 0298 7D       		.byte	0x7d
 2228 0299 08       		.sleb128 8
 2229 029a 04000000 		.4byte	.LCFI34
 2230 029e 06000000 		.4byte	.LCFI35
 2231 02a2 0200     		.2byte	0x2
 2232 02a4 7D       		.byte	0x7d
 2233 02a5 10       		.sleb128 16
 2234 02a6 06000000 		.4byte	.LCFI35
 2235 02aa B6000000 		.4byte	.LFE13
 2236 02ae 0200     		.2byte	0x2
 2237 02b0 77       		.byte	0x77
 2238 02b1 10       		.sleb128 16
 2239 02b2 00000000 		.4byte	0x0
 2240 02b6 00000000 		.4byte	0x0
 2241              	.LLST14:
 2242 02ba 00000000 		.4byte	.LFB14
 2243 02be 02000000 		.4byte	.LCFI36
 2244 02c2 0100     		.2byte	0x1
 2245 02c4 5D       		.byte	0x5d
 2246 02c5 02000000 		.4byte	.LCFI36
 2247 02c9 04000000 		.4byte	.LCFI37
 2248 02cd 0200     		.2byte	0x2
 2249 02cf 7D       		.byte	0x7d
ARM GAS  C:\DOCUME~1\ADMINI~1\LOCALS~1\Temp\ccTmPqfn.s 			page 69


 2250 02d0 08       		.sleb128 8
 2251 02d1 04000000 		.4byte	.LCFI37
 2252 02d5 06000000 		.4byte	.LCFI38
 2253 02d9 0200     		.2byte	0x2
 2254 02db 7D       		.byte	0x7d
 2255 02dc 10       		.sleb128 16
 2256 02dd 06000000 		.4byte	.LCFI38
 2257 02e1 94000000 		.4byte	.LFE14
 2258 02e5 0200     		.2byte	0x2
 2259 02e7 77       		.byte	0x77
 2260 02e8 10       		.sleb128 16
 2261 02e9 00000000 		.4byte	0x0
 2262 02ed 00000000 		.4byte	0x0
 2263              	.LLST15:
 2264 02f1 00000000 		.4byte	.LFB15
 2265 02f5 02000000 		.4byte	.LCFI39
 2266 02f9 0100     		.2byte	0x1
 2267 02fb 5D       		.byte	0x5d
 2268 02fc 02000000 		.4byte	.LCFI39
 2269 0300 04000000 		.4byte	.LCFI40
 2270 0304 0200     		.2byte	0x2
 2271 0306 7D       		.byte	0x7d
 2272 0307 04       		.sleb128 4
 2273 0308 04000000 		.4byte	.LCFI40
 2274 030c 06000000 		.4byte	.LCFI41
 2275 0310 0200     		.2byte	0x2
 2276 0312 7D       		.byte	0x7d
 2277 0313 10       		.sleb128 16
 2278 0314 06000000 		.4byte	.LCFI41
 2279 0318 14000000 		.4byte	.LFE15
 2280 031c 0200     		.2byte	0x2
 2281 031e 77       		.byte	0x77
 2282 031f 10       		.sleb128 16
 2283 0320 00000000 		.4byte	0x0
 2284 0324 00000000 		.4byte	0x0
 2285              	.LLST16:
 2286 0328 00000000 		.4byte	.LFB16
 2287 032c 02000000 		.4byte	.LCFI42
 2288 0330 0100     		.2byte	0x1
 2289 0332 5D       		.byte	0x5d
 2290 0333 02000000 		.4byte	.LCFI42
 2291 0337 04000000 		.4byte	.LCFI43
 2292 033b 0200     		.2byte	0x2
 2293 033d 7D       		.byte	0x7d
 2294 033e 04       		.sleb128 4
 2295 033f 04000000 		.4byte	.LCFI43
 2296 0343 06000000 		.4byte	.LCFI44
 2297 0347 0200     		.2byte	0x2
 2298 0349 7D       		.byte	0x7d
 2299 034a 10       		.sleb128 16
 2300 034b 06000000 		.4byte	.LCFI44
 2301 034f 20000000 		.4byte	.LFE16
 2302 0353 0200     		.2byte	0x2
 2303 0355 77       		.byte	0x77
 2304 0356 10       		.sleb128 16
 2305 0357 00000000 		.4byte	0x0
 2306 035b 00000000 		.4byte	0x0
ARM GAS  C:\DOCUME~1\ADMINI~1\LOCALS~1\Temp\ccTmPqfn.s 			page 70


 2307              	.LLST17:
 2308 035f 00000000 		.4byte	.LFB17
 2309 0363 02000000 		.4byte	.LCFI45
 2310 0367 0100     		.2byte	0x1
 2311 0369 5D       		.byte	0x5d
 2312 036a 02000000 		.4byte	.LCFI45
 2313 036e 04000000 		.4byte	.LCFI46
 2314 0372 0200     		.2byte	0x2
 2315 0374 7D       		.byte	0x7d
 2316 0375 04       		.sleb128 4
 2317 0376 04000000 		.4byte	.LCFI46
 2318 037a 06000000 		.4byte	.LCFI47
 2319 037e 0200     		.2byte	0x2
 2320 0380 7D       		.byte	0x7d
 2321 0381 10       		.sleb128 16
 2322 0382 06000000 		.4byte	.LCFI47
 2323 0386 20000000 		.4byte	.LFE17
 2324 038a 0200     		.2byte	0x2
 2325 038c 77       		.byte	0x77
 2326 038d 10       		.sleb128 16
 2327 038e 00000000 		.4byte	0x0
 2328 0392 00000000 		.4byte	0x0
 2329              	.LLST18:
 2330 0396 00000000 		.4byte	.LFB18
 2331 039a 02000000 		.4byte	.LCFI48
 2332 039e 0100     		.2byte	0x1
 2333 03a0 5D       		.byte	0x5d
 2334 03a1 02000000 		.4byte	.LCFI48
 2335 03a5 04000000 		.4byte	.LCFI49
 2336 03a9 0200     		.2byte	0x2
 2337 03ab 7D       		.byte	0x7d
 2338 03ac 04       		.sleb128 4
 2339 03ad 04000000 		.4byte	.LCFI49
 2340 03b1 18000000 		.4byte	.LFE18
 2341 03b5 0200     		.2byte	0x2
 2342 03b7 77       		.byte	0x77
 2343 03b8 04       		.sleb128 4
 2344 03b9 00000000 		.4byte	0x0
 2345 03bd 00000000 		.4byte	0x0
 2346              	.LLST19:
 2347 03c1 00000000 		.4byte	.LFB19
 2348 03c5 02000000 		.4byte	.LCFI50
 2349 03c9 0100     		.2byte	0x1
 2350 03cb 5D       		.byte	0x5d
 2351 03cc 02000000 		.4byte	.LCFI50
 2352 03d0 04000000 		.4byte	.LCFI51
 2353 03d4 0200     		.2byte	0x2
 2354 03d6 7D       		.byte	0x7d
 2355 03d7 04       		.sleb128 4
 2356 03d8 04000000 		.4byte	.LCFI51
 2357 03dc 18000000 		.4byte	.LFE19
 2358 03e0 0200     		.2byte	0x2
 2359 03e2 77       		.byte	0x77
 2360 03e3 04       		.sleb128 4
 2361 03e4 00000000 		.4byte	0x0
 2362 03e8 00000000 		.4byte	0x0
 2363              	.LLST20:
ARM GAS  C:\DOCUME~1\ADMINI~1\LOCALS~1\Temp\ccTmPqfn.s 			page 71


 2364 03ec 00000000 		.4byte	.LFB20
 2365 03f0 02000000 		.4byte	.LCFI52
 2366 03f4 0100     		.2byte	0x1
 2367 03f6 5D       		.byte	0x5d
 2368 03f7 02000000 		.4byte	.LCFI52
 2369 03fb 04000000 		.4byte	.LCFI53
 2370 03ff 0200     		.2byte	0x2
 2371 0401 7D       		.byte	0x7d
 2372 0402 04       		.sleb128 4
 2373 0403 04000000 		.4byte	.LCFI53
 2374 0407 06000000 		.4byte	.LCFI54
 2375 040b 0200     		.2byte	0x2
 2376 040d 7D       		.byte	0x7d
 2377 040e 10       		.sleb128 16
 2378 040f 06000000 		.4byte	.LCFI54
 2379 0413 20000000 		.4byte	.LFE20
 2380 0417 0200     		.2byte	0x2
 2381 0419 77       		.byte	0x77
 2382 041a 10       		.sleb128 16
 2383 041b 00000000 		.4byte	0x0
 2384 041f 00000000 		.4byte	0x0
 2385              	.LLST21:
 2386 0423 00000000 		.4byte	.LFB21
 2387 0427 02000000 		.4byte	.LCFI55
 2388 042b 0100     		.2byte	0x1
 2389 042d 5D       		.byte	0x5d
 2390 042e 02000000 		.4byte	.LCFI55
 2391 0432 04000000 		.4byte	.LCFI56
 2392 0436 0200     		.2byte	0x2
 2393 0438 7D       		.byte	0x7d
 2394 0439 08       		.sleb128 8
 2395 043a 04000000 		.4byte	.LCFI56
 2396 043e 06000000 		.4byte	.LCFI57
 2397 0442 0200     		.2byte	0x2
 2398 0444 7D       		.byte	0x7d
 2399 0445 10       		.sleb128 16
 2400 0446 06000000 		.4byte	.LCFI57
 2401 044a B4000000 		.4byte	.LFE21
 2402 044e 0200     		.2byte	0x2
 2403 0450 77       		.byte	0x77
 2404 0451 10       		.sleb128 16
 2405 0452 00000000 		.4byte	0x0
 2406 0456 00000000 		.4byte	0x0
 2407              	.LLST22:
 2408 045a 00000000 		.4byte	.LFB22
 2409 045e 02000000 		.4byte	.LCFI58
 2410 0462 0100     		.2byte	0x1
 2411 0464 5D       		.byte	0x5d
 2412 0465 02000000 		.4byte	.LCFI58
 2413 0469 04000000 		.4byte	.LCFI59
 2414 046d 0200     		.2byte	0x2
 2415 046f 7D       		.byte	0x7d
 2416 0470 04       		.sleb128 4
 2417 0471 04000000 		.4byte	.LCFI59
 2418 0475 18000000 		.4byte	.LFE22
 2419 0479 0200     		.2byte	0x2
 2420 047b 77       		.byte	0x77
ARM GAS  C:\DOCUME~1\ADMINI~1\LOCALS~1\Temp\ccTmPqfn.s 			page 72


 2421 047c 04       		.sleb128 4
 2422 047d 00000000 		.4byte	0x0
 2423 0481 00000000 		.4byte	0x0
 2424              	.LLST23:
 2425 0485 00000000 		.4byte	.LFB23
 2426 0489 02000000 		.4byte	.LCFI60
 2427 048d 0100     		.2byte	0x1
 2428 048f 5D       		.byte	0x5d
 2429 0490 02000000 		.4byte	.LCFI60
 2430 0494 04000000 		.4byte	.LCFI61
 2431 0498 0200     		.2byte	0x2
 2432 049a 7D       		.byte	0x7d
 2433 049b 04       		.sleb128 4
 2434 049c 04000000 		.4byte	.LCFI61
 2435 04a0 06000000 		.4byte	.LCFI62
 2436 04a4 0200     		.2byte	0x2
 2437 04a6 7D       		.byte	0x7d
 2438 04a7 18       		.sleb128 24
 2439 04a8 06000000 		.4byte	.LCFI62
 2440 04ac B8000000 		.4byte	.LFE23
 2441 04b0 0200     		.2byte	0x2
 2442 04b2 77       		.byte	0x77
 2443 04b3 18       		.sleb128 24
 2444 04b4 00000000 		.4byte	0x0
 2445 04b8 00000000 		.4byte	0x0
 2446              	.LLST24:
 2447 04bc 00000000 		.4byte	.LFB24
 2448 04c0 02000000 		.4byte	.LCFI63
 2449 04c4 0100     		.2byte	0x1
 2450 04c6 5D       		.byte	0x5d
 2451 04c7 02000000 		.4byte	.LCFI63
 2452 04cb 04000000 		.4byte	.LCFI64
 2453 04cf 0200     		.2byte	0x2
 2454 04d1 7D       		.byte	0x7d
 2455 04d2 08       		.sleb128 8
 2456 04d3 04000000 		.4byte	.LCFI64
 2457 04d7 06000000 		.4byte	.LCFI65
 2458 04db 0200     		.2byte	0x2
 2459 04dd 7D       		.byte	0x7d
 2460 04de 18       		.sleb128 24
 2461 04df 06000000 		.4byte	.LCFI65
 2462 04e3 48000000 		.4byte	.LFE24
 2463 04e7 0200     		.2byte	0x2
 2464 04e9 77       		.byte	0x77
 2465 04ea 18       		.sleb128 24
 2466 04eb 00000000 		.4byte	0x0
 2467 04ef 00000000 		.4byte	0x0
 2468              	.LLST25:
 2469 04f3 00000000 		.4byte	.LFB25
 2470 04f7 02000000 		.4byte	.LCFI66
 2471 04fb 0100     		.2byte	0x1
 2472 04fd 5D       		.byte	0x5d
 2473 04fe 02000000 		.4byte	.LCFI66
 2474 0502 04000000 		.4byte	.LCFI67
 2475 0506 0200     		.2byte	0x2
 2476 0508 7D       		.byte	0x7d
 2477 0509 08       		.sleb128 8
ARM GAS  C:\DOCUME~1\ADMINI~1\LOCALS~1\Temp\ccTmPqfn.s 			page 73


 2478 050a 04000000 		.4byte	.LCFI67
 2479 050e 06000000 		.4byte	.LCFI68
 2480 0512 0200     		.2byte	0x2
 2481 0514 7D       		.byte	0x7d
 2482 0515 18       		.sleb128 24
 2483 0516 06000000 		.4byte	.LCFI68
 2484 051a 46000000 		.4byte	.LFE25
 2485 051e 0200     		.2byte	0x2
 2486 0520 77       		.byte	0x77
 2487 0521 18       		.sleb128 24
 2488 0522 00000000 		.4byte	0x0
 2489 0526 00000000 		.4byte	0x0
 2490              	.LLST26:
 2491 052a 00000000 		.4byte	.LFB26
 2492 052e 02000000 		.4byte	.LCFI69
 2493 0532 0100     		.2byte	0x1
 2494 0534 5D       		.byte	0x5d
 2495 0535 02000000 		.4byte	.LCFI69
 2496 0539 04000000 		.4byte	.LCFI70
 2497 053d 0200     		.2byte	0x2
 2498 053f 7D       		.byte	0x7d
 2499 0540 08       		.sleb128 8
 2500 0541 04000000 		.4byte	.LCFI70
 2501 0545 06000000 		.4byte	.LCFI71
 2502 0549 0200     		.2byte	0x2
 2503 054b 7D       		.byte	0x7d
 2504 054c 10       		.sleb128 16
 2505 054d 06000000 		.4byte	.LCFI71
 2506 0551 38000000 		.4byte	.LFE26
 2507 0555 0200     		.2byte	0x2
 2508 0557 77       		.byte	0x77
 2509 0558 10       		.sleb128 16
 2510 0559 00000000 		.4byte	0x0
 2511 055d 00000000 		.4byte	0x0
 2512              	.LLST27:
 2513 0561 00000000 		.4byte	.LFB27
 2514 0565 02000000 		.4byte	.LCFI72
 2515 0569 0100     		.2byte	0x1
 2516 056b 5D       		.byte	0x5d
 2517 056c 02000000 		.4byte	.LCFI72
 2518 0570 04000000 		.4byte	.LCFI73
 2519 0574 0200     		.2byte	0x2
 2520 0576 7D       		.byte	0x7d
 2521 0577 08       		.sleb128 8
 2522 0578 04000000 		.4byte	.LCFI73
 2523 057c 06000000 		.4byte	.LCFI74
 2524 0580 0200     		.2byte	0x2
 2525 0582 7D       		.byte	0x7d
 2526 0583 10       		.sleb128 16
 2527 0584 06000000 		.4byte	.LCFI74
 2528 0588 96000000 		.4byte	.LFE27
 2529 058c 0200     		.2byte	0x2
 2530 058e 77       		.byte	0x77
 2531 058f 10       		.sleb128 16
 2532 0590 00000000 		.4byte	0x0
 2533 0594 00000000 		.4byte	0x0
 2534              	.LLST28:
ARM GAS  C:\DOCUME~1\ADMINI~1\LOCALS~1\Temp\ccTmPqfn.s 			page 74


 2535 0598 00000000 		.4byte	.LFB28
 2536 059c 02000000 		.4byte	.LCFI75
 2537 05a0 0100     		.2byte	0x1
 2538 05a2 5D       		.byte	0x5d
 2539 05a3 02000000 		.4byte	.LCFI75
 2540 05a7 04000000 		.4byte	.LCFI76
 2541 05ab 0200     		.2byte	0x2
 2542 05ad 7D       		.byte	0x7d
 2543 05ae 08       		.sleb128 8
 2544 05af 04000000 		.4byte	.LCFI76
 2545 05b3 06000000 		.4byte	.LCFI77
 2546 05b7 0200     		.2byte	0x2
 2547 05b9 7D       		.byte	0x7d
 2548 05ba 10       		.sleb128 16
 2549 05bb 06000000 		.4byte	.LCFI77
 2550 05bf 78000000 		.4byte	.LFE28
 2551 05c3 0200     		.2byte	0x2
 2552 05c5 77       		.byte	0x77
 2553 05c6 10       		.sleb128 16
 2554 05c7 00000000 		.4byte	0x0
 2555 05cb 00000000 		.4byte	0x0
 2556              	.LLST29:
 2557 05cf 00000000 		.4byte	.LFB29
 2558 05d3 02000000 		.4byte	.LCFI78
 2559 05d7 0100     		.2byte	0x1
 2560 05d9 5D       		.byte	0x5d
 2561 05da 02000000 		.4byte	.LCFI78
 2562 05de 04000000 		.4byte	.LCFI79
 2563 05e2 0200     		.2byte	0x2
 2564 05e4 7D       		.byte	0x7d
 2565 05e5 04       		.sleb128 4
 2566 05e6 04000000 		.4byte	.LCFI79
 2567 05ea 06000000 		.4byte	.LCFI80
 2568 05ee 0200     		.2byte	0x2
 2569 05f0 7D       		.byte	0x7d
 2570 05f1 18       		.sleb128 24
 2571 05f2 06000000 		.4byte	.LCFI80
 2572 05f6 CC000000 		.4byte	.LFE29
 2573 05fa 0200     		.2byte	0x2
 2574 05fc 77       		.byte	0x77
 2575 05fd 18       		.sleb128 24
 2576 05fe 00000000 		.4byte	0x0
 2577 0602 00000000 		.4byte	0x0
 2578              	.LLST30:
 2579 0606 00000000 		.4byte	.LFB30
 2580 060a 02000000 		.4byte	.LCFI81
 2581 060e 0100     		.2byte	0x1
 2582 0610 5D       		.byte	0x5d
 2583 0611 02000000 		.4byte	.LCFI81
 2584 0615 04000000 		.4byte	.LCFI82
 2585 0619 0200     		.2byte	0x2
 2586 061b 7D       		.byte	0x7d
 2587 061c 04       		.sleb128 4
 2588 061d 04000000 		.4byte	.LCFI82
 2589 0621 06000000 		.4byte	.LCFI83
 2590 0625 0200     		.2byte	0x2
 2591 0627 7D       		.byte	0x7d
ARM GAS  C:\DOCUME~1\ADMINI~1\LOCALS~1\Temp\ccTmPqfn.s 			page 75


 2592 0628 10       		.sleb128 16
 2593 0629 06000000 		.4byte	.LCFI83
 2594 062d 14000000 		.4byte	.LFE30
 2595 0631 0200     		.2byte	0x2
 2596 0633 77       		.byte	0x77
 2597 0634 10       		.sleb128 16
 2598 0635 00000000 		.4byte	0x0
 2599 0639 00000000 		.4byte	0x0
 2600              		.file 2 ".\\Generated_Source\\PSoC5\\/cytypes.h"
 2601              		.section	.debug_info
 2602 0000 B9060000 		.4byte	0x6b9
 2603 0004 0200     		.2byte	0x2
 2604 0006 00000000 		.4byte	.Ldebug_abbrev0
 2605 000a 04       		.byte	0x4
 2606 000b 01       		.uleb128 0x1
 2607 000c 61000000 		.4byte	.LASF75
 2608 0010 01       		.byte	0x1
 2609 0011 F9010000 		.4byte	.LASF76
 2610 0015 52040000 		.4byte	.LASF77
 2611 0019 00000000 		.4byte	0x0
 2612 001d 00000000 		.4byte	0x0
 2613 0021 00000000 		.4byte	.Ldebug_ranges0+0x0
 2614 0025 00000000 		.4byte	.Ldebug_line0
 2615 0029 02       		.uleb128 0x2
 2616 002a 01       		.byte	0x1
 2617 002b 06       		.byte	0x6
 2618 002c 93000000 		.4byte	.LASF0
 2619 0030 02       		.uleb128 0x2
 2620 0031 01       		.byte	0x1
 2621 0032 08       		.byte	0x8
 2622 0033 D9030000 		.4byte	.LASF1
 2623 0037 02       		.uleb128 0x2
 2624 0038 02       		.byte	0x2
 2625 0039 05       		.byte	0x5
 2626 003a E7030000 		.4byte	.LASF2
 2627 003e 02       		.uleb128 0x2
 2628 003f 02       		.byte	0x2
 2629 0040 07       		.byte	0x7
 2630 0041 3A020000 		.4byte	.LASF3
 2631 0045 02       		.uleb128 0x2
 2632 0046 04       		.byte	0x4
 2633 0047 05       		.byte	0x5
 2634 0048 B3000000 		.4byte	.LASF4
 2635 004c 02       		.uleb128 0x2
 2636 004d 04       		.byte	0x4
 2637 004e 07       		.byte	0x7
 2638 004f A4010000 		.4byte	.LASF5
 2639 0053 02       		.uleb128 0x2
 2640 0054 08       		.byte	0x8
 2641 0055 05       		.byte	0x5
 2642 0056 85000000 		.4byte	.LASF6
 2643 005a 02       		.uleb128 0x2
 2644 005b 08       		.byte	0x8
 2645 005c 07       		.byte	0x7
 2646 005d 4A000000 		.4byte	.LASF7
 2647 0061 03       		.uleb128 0x3
 2648 0062 04       		.byte	0x4
ARM GAS  C:\DOCUME~1\ADMINI~1\LOCALS~1\Temp\ccTmPqfn.s 			page 76


 2649 0063 05       		.byte	0x5
 2650 0064 696E7400 		.ascii	"int\000"
 2651 0068 02       		.uleb128 0x2
 2652 0069 04       		.byte	0x4
 2653 006a 07       		.byte	0x7
 2654 006b 97010000 		.4byte	.LASF8
 2655 006f 04       		.uleb128 0x4
 2656 0070 BC000000 		.4byte	.LASF9
 2657 0074 02       		.byte	0x2
 2658 0075 4C       		.byte	0x4c
 2659 0076 30000000 		.4byte	0x30
 2660 007a 04       		.uleb128 0x4
 2661 007b 00000000 		.4byte	.LASF10
 2662 007f 02       		.byte	0x2
 2663 0080 4D       		.byte	0x4d
 2664 0081 3E000000 		.4byte	0x3e
 2665 0085 02       		.uleb128 0x2
 2666 0086 04       		.byte	0x4
 2667 0087 04       		.byte	0x4
 2668 0088 BF030000 		.4byte	.LASF11
 2669 008c 02       		.uleb128 0x2
 2670 008d 08       		.byte	0x8
 2671 008e 04       		.byte	0x4
 2672 008f DB000000 		.4byte	.LASF12
 2673 0093 04       		.uleb128 0x4
 2674 0094 AB040000 		.4byte	.LASF13
 2675 0098 02       		.byte	0x2
 2676 0099 5D       		.byte	0x5d
 2677 009a 9E000000 		.4byte	0x9e
 2678 009e 02       		.uleb128 0x2
 2679 009f 01       		.byte	0x1
 2680 00a0 08       		.byte	0x8
 2681 00a1 33040000 		.4byte	.LASF14
 2682 00a5 05       		.uleb128 0x5
 2683 00a6 6F000000 		.4byte	0x6f
 2684 00aa 06       		.uleb128 0x6
 2685 00ab 04       		.byte	0x4
 2686 00ac 07       		.byte	0x7
 2687 00ad 07       		.uleb128 0x7
 2688 00ae 01       		.byte	0x1
 2689 00af 77050000 		.4byte	.LASF15
 2690 00b3 01       		.byte	0x1
 2691 00b4 49       		.byte	0x49
 2692 00b5 01       		.byte	0x1
 2693 00b6 00000000 		.4byte	.LFB0
 2694 00ba 2A000000 		.4byte	.LFE0
 2695 00be 00000000 		.4byte	.LLST0
 2696 00c2 07       		.uleb128 0x7
 2697 00c3 01       		.byte	0x1
 2698 00c4 05010000 		.4byte	.LASF16
 2699 00c8 01       		.byte	0x1
 2700 00c9 65       		.byte	0x65
 2701 00ca 01       		.byte	0x1
 2702 00cb 00000000 		.4byte	.LFB1
 2703 00cf 84000000 		.4byte	.LFE1
 2704 00d3 2B000000 		.4byte	.LLST1
 2705 00d7 08       		.uleb128 0x8
ARM GAS  C:\DOCUME~1\ADMINI~1\LOCALS~1\Temp\ccTmPqfn.s 			page 77


 2706 00d8 01       		.byte	0x1
 2707 00d9 0B050000 		.4byte	.LASF17
 2708 00dd 01       		.byte	0x1
 2709 00de AE       		.byte	0xae
 2710 00df 01       		.byte	0x1
 2711 00e0 00000000 		.4byte	.LFB2
 2712 00e4 8E000000 		.4byte	.LFE2
 2713 00e8 56000000 		.4byte	.LLST2
 2714 00ec FF000000 		.4byte	0xff
 2715 00f0 09       		.uleb128 0x9
 2716 00f1 1E050000 		.4byte	.LASF19
 2717 00f5 01       		.byte	0x1
 2718 00f6 B0       		.byte	0xb0
 2719 00f7 6F000000 		.4byte	0x6f
 2720 00fb 02       		.byte	0x2
 2721 00fc 91       		.byte	0x91
 2722 00fd 77       		.sleb128 -9
 2723 00fe 00       		.byte	0x0
 2724 00ff 08       		.uleb128 0x8
 2725 0100 01       		.byte	0x1
 2726 0101 E6040000 		.4byte	.LASF18
 2727 0105 01       		.byte	0x1
 2728 0106 E3       		.byte	0xe3
 2729 0107 01       		.byte	0x1
 2730 0108 00000000 		.4byte	.LFB3
 2731 010c 74000000 		.4byte	.LFE3
 2732 0110 8D000000 		.4byte	.LLST3
 2733 0114 27010000 		.4byte	0x127
 2734 0118 09       		.uleb128 0x9
 2735 0119 1E050000 		.4byte	.LASF19
 2736 011d 01       		.byte	0x1
 2737 011e E5       		.byte	0xe5
 2738 011f 6F000000 		.4byte	0x6f
 2739 0123 02       		.byte	0x2
 2740 0124 91       		.byte	0x91
 2741 0125 77       		.sleb128 -9
 2742 0126 00       		.byte	0x0
 2743 0127 0A       		.uleb128 0xa
 2744 0128 01       		.byte	0x1
 2745 0129 36050000 		.4byte	.LASF34
 2746 012d 01       		.byte	0x1
 2747 012e 1901     		.2byte	0x119
 2748 0130 01       		.byte	0x1
 2749 0131 6F000000 		.4byte	0x6f
 2750 0135 00000000 		.4byte	.LFB4
 2751 0139 10000000 		.4byte	.LFE4
 2752 013d C4000000 		.4byte	.LLST4
 2753 0141 0B       		.uleb128 0xb
 2754 0142 01       		.byte	0x1
 2755 0143 35030000 		.4byte	.LASF20
 2756 0147 01       		.byte	0x1
 2757 0148 3101     		.2byte	0x131
 2758 014a 01       		.byte	0x1
 2759 014b 00000000 		.4byte	.LFB5
 2760 014f 14000000 		.4byte	.LFE5
 2761 0153 EF000000 		.4byte	.LLST5
 2762 0157 6B010000 		.4byte	0x16b
ARM GAS  C:\DOCUME~1\ADMINI~1\LOCALS~1\Temp\ccTmPqfn.s 			page 78


 2763 015b 0C       		.uleb128 0xc
 2764 015c 16010000 		.4byte	.LASF24
 2765 0160 01       		.byte	0x1
 2766 0161 3101     		.2byte	0x131
 2767 0163 6F000000 		.4byte	0x6f
 2768 0167 02       		.byte	0x2
 2769 0168 91       		.byte	0x91
 2770 0169 77       		.sleb128 -9
 2771 016a 00       		.byte	0x0
 2772 016b 0D       		.uleb128 0xd
 2773 016c 01       		.byte	0x1
 2774 016d 6D000000 		.4byte	.LASF21
 2775 0171 01       		.byte	0x1
 2776 0172 5001     		.2byte	0x150
 2777 0174 01       		.byte	0x1
 2778 0175 00000000 		.4byte	.LFB6
 2779 0179 18000000 		.4byte	.LFE6
 2780 017d 26010000 		.4byte	.LLST6
 2781 0181 0D       		.uleb128 0xd
 2782 0182 01       		.byte	0x1
 2783 0183 57010000 		.4byte	.LASF22
 2784 0187 01       		.byte	0x1
 2785 0188 6701     		.2byte	0x167
 2786 018a 01       		.byte	0x1
 2787 018b 00000000 		.4byte	.LFB7
 2788 018f 18000000 		.4byte	.LFE7
 2789 0193 51010000 		.4byte	.LLST7
 2790 0197 0B       		.uleb128 0xb
 2791 0198 01       		.byte	0x1
 2792 0199 19000000 		.4byte	.LASF23
 2793 019d 01       		.byte	0x1
 2794 019e 8101     		.2byte	0x181
 2795 01a0 01       		.byte	0x1
 2796 01a1 00000000 		.4byte	.LFB8
 2797 01a5 20000000 		.4byte	.LFE8
 2798 01a9 7C010000 		.4byte	.LLST8
 2799 01ad C1010000 		.4byte	0x1c1
 2800 01b1 0C       		.uleb128 0xc
 2801 01b2 AF020000 		.4byte	.LASF25
 2802 01b6 01       		.byte	0x1
 2803 01b7 8101     		.2byte	0x181
 2804 01b9 6F000000 		.4byte	0x6f
 2805 01bd 02       		.byte	0x2
 2806 01be 91       		.byte	0x91
 2807 01bf 77       		.sleb128 -9
 2808 01c0 00       		.byte	0x0
 2809 01c1 0E       		.uleb128 0xe
 2810 01c2 01       		.byte	0x1
 2811 01c3 EE000000 		.4byte	.LASF29
 2812 01c7 01       		.byte	0x1
 2813 01c8 A201     		.2byte	0x1a2
 2814 01ca 01       		.byte	0x1
 2815 01cb 6F000000 		.4byte	0x6f
 2816 01cf 00000000 		.4byte	.LFB9
 2817 01d3 AA000000 		.4byte	.LFE9
 2818 01d7 B3010000 		.4byte	.LLST9
 2819 01db 0D020000 		.4byte	0x20d
ARM GAS  C:\DOCUME~1\ADMINI~1\LOCALS~1\Temp\ccTmPqfn.s 			page 79


 2820 01df 0F       		.uleb128 0xf
 2821 01e0 18040000 		.4byte	.LASF26
 2822 01e4 01       		.byte	0x1
 2823 01e5 A401     		.2byte	0x1a4
 2824 01e7 6F000000 		.4byte	0x6f
 2825 01eb 02       		.byte	0x2
 2826 01ec 91       		.byte	0x91
 2827 01ed 75       		.sleb128 -11
 2828 01ee 0F       		.uleb128 0xf
 2829 01ef 77020000 		.4byte	.LASF27
 2830 01f3 01       		.byte	0x1
 2831 01f4 A701     		.2byte	0x1a7
 2832 01f6 6F000000 		.4byte	0x6f
 2833 01fa 02       		.byte	0x2
 2834 01fb 91       		.byte	0x91
 2835 01fc 76       		.sleb128 -10
 2836 01fd 0F       		.uleb128 0xf
 2837 01fe 07000000 		.4byte	.LASF28
 2838 0202 01       		.byte	0x1
 2839 0203 A801     		.2byte	0x1a8
 2840 0205 6F000000 		.4byte	0x6f
 2841 0209 02       		.byte	0x2
 2842 020a 91       		.byte	0x91
 2843 020b 77       		.sleb128 -9
 2844 020c 00       		.byte	0x0
 2845 020d 0E       		.uleb128 0xe
 2846 020e 01       		.byte	0x1
 2847 020f 8A030000 		.4byte	.LASF30
 2848 0213 01       		.byte	0x1
 2849 0214 FD01     		.2byte	0x1fd
 2850 0216 01       		.byte	0x1
 2851 0217 6F000000 		.4byte	0x6f
 2852 021b 00000000 		.4byte	.LFB10
 2853 021f 50000000 		.4byte	.LFE10
 2854 0223 EA010000 		.4byte	.LLST10
 2855 0227 3B020000 		.4byte	0x23b
 2856 022b 0F       		.uleb128 0xf
 2857 022c 2F050000 		.4byte	.LASF31
 2858 0230 01       		.byte	0x1
 2859 0231 FF01     		.2byte	0x1ff
 2860 0233 6F000000 		.4byte	0x6f
 2861 0237 02       		.byte	0x2
 2862 0238 91       		.byte	0x91
 2863 0239 77       		.sleb128 -9
 2864 023a 00       		.byte	0x0
 2865 023b 0E       		.uleb128 0xe
 2866 023c 01       		.byte	0x1
 2867 023d C5030000 		.4byte	.LASF32
 2868 0241 01       		.byte	0x1
 2869 0242 2C02     		.2byte	0x22c
 2870 0244 01       		.byte	0x1
 2871 0245 6F000000 		.4byte	0x6f
 2872 0249 00000000 		.4byte	.LFB11
 2873 024d D6000000 		.4byte	.LFE11
 2874 0251 21020000 		.4byte	.LLST11
 2875 0255 96020000 		.4byte	0x296
 2876 0259 0F       		.uleb128 0xf
ARM GAS  C:\DOCUME~1\ADMINI~1\LOCALS~1\Temp\ccTmPqfn.s 			page 80


 2877 025a 18040000 		.4byte	.LASF26
 2878 025e 01       		.byte	0x1
 2879 025f 2E02     		.2byte	0x22e
 2880 0261 6F000000 		.4byte	0x6f
 2881 0265 02       		.byte	0x2
 2882 0266 91       		.byte	0x91
 2883 0267 74       		.sleb128 -12
 2884 0268 0F       		.uleb128 0xf
 2885 0269 6E050000 		.4byte	.LASF33
 2886 026d 01       		.byte	0x1
 2887 026e 2F02     		.2byte	0x22f
 2888 0270 6F000000 		.4byte	0x6f
 2889 0274 02       		.byte	0x2
 2890 0275 91       		.byte	0x91
 2891 0276 75       		.sleb128 -11
 2892 0277 0F       		.uleb128 0xf
 2893 0278 77020000 		.4byte	.LASF27
 2894 027c 01       		.byte	0x1
 2895 027d 3202     		.2byte	0x232
 2896 027f 6F000000 		.4byte	0x6f
 2897 0283 02       		.byte	0x2
 2898 0284 91       		.byte	0x91
 2899 0285 76       		.sleb128 -10
 2900 0286 0F       		.uleb128 0xf
 2901 0287 07000000 		.4byte	.LASF28
 2902 028b 01       		.byte	0x1
 2903 028c 3302     		.2byte	0x233
 2904 028e 6F000000 		.4byte	0x6f
 2905 0292 02       		.byte	0x2
 2906 0293 91       		.byte	0x91
 2907 0294 77       		.sleb128 -9
 2908 0295 00       		.byte	0x0
 2909 0296 0A       		.uleb128 0xa
 2910 0297 01       		.byte	0x1
 2911 0298 9F000000 		.4byte	.LASF35
 2912 029c 01       		.byte	0x1
 2913 029d 9202     		.2byte	0x292
 2914 029f 01       		.byte	0x1
 2915 02a0 7A000000 		.4byte	0x7a
 2916 02a4 00000000 		.4byte	.LFB12
 2917 02a8 24000000 		.4byte	.LFE12
 2918 02ac 58020000 		.4byte	.LLST12
 2919 02b0 0E       		.uleb128 0xe
 2920 02b1 01       		.byte	0x1
 2921 02b2 CA040000 		.4byte	.LASF36
 2922 02b6 01       		.byte	0x1
 2923 02b7 B302     		.2byte	0x2b3
 2924 02b9 01       		.byte	0x1
 2925 02ba 6F000000 		.4byte	0x6f
 2926 02be 00000000 		.4byte	.LFB13
 2927 02c2 B6000000 		.4byte	.LFE13
 2928 02c6 83020000 		.4byte	.LLST13
 2929 02ca DE020000 		.4byte	0x2de
 2930 02ce 0F       		.uleb128 0xf
 2931 02cf 35020000 		.4byte	.LASF37
 2932 02d3 01       		.byte	0x1
 2933 02d4 B602     		.2byte	0x2b6
ARM GAS  C:\DOCUME~1\ADMINI~1\LOCALS~1\Temp\ccTmPqfn.s 			page 81


 2934 02d6 6F000000 		.4byte	0x6f
 2935 02da 02       		.byte	0x2
 2936 02db 91       		.byte	0x91
 2937 02dc 77       		.sleb128 -9
 2938 02dd 00       		.byte	0x0
 2939 02de 0B       		.uleb128 0xb
 2940 02df 01       		.byte	0x1
 2941 02e0 A6050000 		.4byte	.LASF38
 2942 02e4 01       		.byte	0x1
 2943 02e5 0303     		.2byte	0x303
 2944 02e7 01       		.byte	0x1
 2945 02e8 00000000 		.4byte	.LFB14
 2946 02ec 94000000 		.4byte	.LFE14
 2947 02f0 BA020000 		.4byte	.LLST14
 2948 02f4 08030000 		.4byte	0x308
 2949 02f8 0F       		.uleb128 0xf
 2950 02f9 1E050000 		.4byte	.LASF19
 2951 02fd 01       		.byte	0x1
 2952 02fe 0503     		.2byte	0x305
 2953 0300 6F000000 		.4byte	0x6f
 2954 0304 02       		.byte	0x2
 2955 0305 91       		.byte	0x91
 2956 0306 77       		.sleb128 -9
 2957 0307 00       		.byte	0x0
 2958 0308 0B       		.uleb128 0xb
 2959 0309 01       		.byte	0x1
 2960 030a 89050000 		.4byte	.LASF39
 2961 030e 01       		.byte	0x1
 2962 030f 4003     		.2byte	0x340
 2963 0311 01       		.byte	0x1
 2964 0312 00000000 		.4byte	.LFB15
 2965 0316 14000000 		.4byte	.LFE15
 2966 031a F1020000 		.4byte	.LLST15
 2967 031e 32030000 		.4byte	0x332
 2968 0322 0C       		.uleb128 0xc
 2969 0323 E2000000 		.4byte	.LASF40
 2970 0327 01       		.byte	0x1
 2971 0328 4003     		.2byte	0x340
 2972 032a 6F000000 		.4byte	0x6f
 2973 032e 02       		.byte	0x2
 2974 032f 91       		.byte	0x91
 2975 0330 77       		.sleb128 -9
 2976 0331 00       		.byte	0x0
 2977 0332 0B       		.uleb128 0xb
 2978 0333 01       		.byte	0x1
 2979 0334 56030000 		.4byte	.LASF41
 2980 0338 01       		.byte	0x1
 2981 0339 6503     		.2byte	0x365
 2982 033b 01       		.byte	0x1
 2983 033c 00000000 		.4byte	.LFB16
 2984 0340 20000000 		.4byte	.LFE16
 2985 0344 28030000 		.4byte	.LLST16
 2986 0348 5C030000 		.4byte	0x35c
 2987 034c 0C       		.uleb128 0xc
 2988 034d FB020000 		.4byte	.LASF42
 2989 0351 01       		.byte	0x1
 2990 0352 6503     		.2byte	0x365
ARM GAS  C:\DOCUME~1\ADMINI~1\LOCALS~1\Temp\ccTmPqfn.s 			page 82


 2991 0354 6F000000 		.4byte	0x6f
 2992 0358 02       		.byte	0x2
 2993 0359 91       		.byte	0x91
 2994 035a 77       		.sleb128 -9
 2995 035b 00       		.byte	0x0
 2996 035c 0B       		.uleb128 0xb
 2997 035d 01       		.byte	0x1
 2998 035e 70030000 		.4byte	.LASF43
 2999 0362 01       		.byte	0x1
 3000 0363 7A03     		.2byte	0x37a
 3001 0365 01       		.byte	0x1
 3002 0366 00000000 		.4byte	.LFB17
 3003 036a 20000000 		.4byte	.LFE17
 3004 036e 5F030000 		.4byte	.LLST17
 3005 0372 86030000 		.4byte	0x386
 3006 0376 0C       		.uleb128 0xc
 3007 0377 FB020000 		.4byte	.LASF42
 3008 037b 01       		.byte	0x1
 3009 037c 7A03     		.2byte	0x37a
 3010 037e 6F000000 		.4byte	0x6f
 3011 0382 02       		.byte	0x2
 3012 0383 91       		.byte	0x91
 3013 0384 77       		.sleb128 -9
 3014 0385 00       		.byte	0x0
 3015 0386 0D       		.uleb128 0xd
 3016 0387 01       		.byte	0x1
 3017 0388 E1010000 		.4byte	.LASF44
 3018 038c 01       		.byte	0x1
 3019 038d 9703     		.2byte	0x397
 3020 038f 01       		.byte	0x1
 3021 0390 00000000 		.4byte	.LFB18
 3022 0394 18000000 		.4byte	.LFE18
 3023 0398 96030000 		.4byte	.LLST18
 3024 039c 0D       		.uleb128 0xd
 3025 039d 01       		.byte	0x1
 3026 039e 1C030000 		.4byte	.LASF45
 3027 03a2 01       		.byte	0x1
 3028 03a3 AE03     		.2byte	0x3ae
 3029 03a5 01       		.byte	0x1
 3030 03a6 00000000 		.4byte	.LFB19
 3031 03aa 18000000 		.4byte	.LFE19
 3032 03ae C1030000 		.4byte	.LLST19
 3033 03b2 0B       		.uleb128 0xb
 3034 03b3 01       		.byte	0x1
 3035 03b4 70010000 		.4byte	.LASF46
 3036 03b8 01       		.byte	0x1
 3037 03b9 C803     		.2byte	0x3c8
 3038 03bb 01       		.byte	0x1
 3039 03bc 00000000 		.4byte	.LFB20
 3040 03c0 20000000 		.4byte	.LFE20
 3041 03c4 EC030000 		.4byte	.LLST20
 3042 03c8 DC030000 		.4byte	0x3dc
 3043 03cc 0C       		.uleb128 0xc
 3044 03cd AF020000 		.4byte	.LASF25
 3045 03d1 01       		.byte	0x1
 3046 03d2 C803     		.2byte	0x3c8
 3047 03d4 6F000000 		.4byte	0x6f
ARM GAS  C:\DOCUME~1\ADMINI~1\LOCALS~1\Temp\ccTmPqfn.s 			page 83


 3048 03d8 02       		.byte	0x2
 3049 03d9 91       		.byte	0x91
 3050 03da 77       		.sleb128 -9
 3051 03db 00       		.byte	0x0
 3052 03dc 0B       		.uleb128 0xb
 3053 03dd 01       		.byte	0x1
 3054 03de 56050000 		.4byte	.LASF47
 3055 03e2 01       		.byte	0x1
 3056 03e3 EA03     		.2byte	0x3ea
 3057 03e5 01       		.byte	0x1
 3058 03e6 00000000 		.4byte	.LFB21
 3059 03ea B4000000 		.4byte	.LFE21
 3060 03ee 23040000 		.4byte	.LLST21
 3061 03f2 06040000 		.4byte	0x406
 3062 03f6 0C       		.uleb128 0xc
 3063 03f7 38000000 		.4byte	.LASF48
 3064 03fb 01       		.byte	0x1
 3065 03fc EA03     		.2byte	0x3ea
 3066 03fe 6F000000 		.4byte	0x6f
 3067 0402 02       		.byte	0x2
 3068 0403 91       		.byte	0x91
 3069 0404 77       		.sleb128 -9
 3070 0405 00       		.byte	0x0
 3071 0406 0A       		.uleb128 0xa
 3072 0407 01       		.byte	0x1
 3073 0408 03030000 		.4byte	.LASF49
 3074 040c 01       		.byte	0x1
 3075 040d 2E04     		.2byte	0x42e
 3076 040f 01       		.byte	0x1
 3077 0410 6F000000 		.4byte	0x6f
 3078 0414 00000000 		.4byte	.LFB22
 3079 0418 18000000 		.4byte	.LFE22
 3080 041c 5A040000 		.4byte	.LLST22
 3081 0420 0B       		.uleb128 0xb
 3082 0421 01       		.byte	0x1
 3083 0422 1F040000 		.4byte	.LASF50
 3084 0426 01       		.byte	0x1
 3085 0427 5204     		.2byte	0x452
 3086 0429 01       		.byte	0x1
 3087 042a 00000000 		.4byte	.LFB23
 3088 042e B8000000 		.4byte	.LFE23
 3089 0432 85040000 		.4byte	.LLST23
 3090 0436 68040000 		.4byte	0x468
 3091 043a 0C       		.uleb128 0xc
 3092 043b 38000000 		.4byte	.LASF48
 3093 043f 01       		.byte	0x1
 3094 0440 5204     		.2byte	0x452
 3095 0442 6F000000 		.4byte	0x6f
 3096 0446 02       		.byte	0x2
 3097 0447 91       		.byte	0x91
 3098 0448 6F       		.sleb128 -17
 3099 0449 0F       		.uleb128 0xf
 3100 044a E9020000 		.4byte	.LASF51
 3101 044e 01       		.byte	0x1
 3102 044f 5904     		.2byte	0x459
 3103 0451 6F000000 		.4byte	0x6f
 3104 0455 02       		.byte	0x2
ARM GAS  C:\DOCUME~1\ADMINI~1\LOCALS~1\Temp\ccTmPqfn.s 			page 84


 3105 0456 91       		.byte	0x91
 3106 0457 76       		.sleb128 -10
 3107 0458 0F       		.uleb128 0xf
 3108 0459 D0010000 		.4byte	.LASF52
 3109 045d 01       		.byte	0x1
 3110 045e 5A04     		.2byte	0x45a
 3111 0460 6F000000 		.4byte	0x6f
 3112 0464 02       		.byte	0x2
 3113 0465 91       		.byte	0x91
 3114 0466 77       		.sleb128 -9
 3115 0467 00       		.byte	0x0
 3116 0468 0B       		.uleb128 0xb
 3117 0469 01       		.byte	0x1
 3118 046a D3020000 		.4byte	.LASF53
 3119 046e 01       		.byte	0x1
 3120 046f AE04     		.2byte	0x4ae
 3121 0471 01       		.byte	0x1
 3122 0472 00000000 		.4byte	.LFB24
 3123 0476 48000000 		.4byte	.LFE24
 3124 047a BC040000 		.4byte	.LLST24
 3125 047e A1040000 		.4byte	0x4a1
 3126 0482 0C       		.uleb128 0xc
 3127 0483 43000000 		.4byte	.LASF54
 3128 0487 01       		.byte	0x1
 3129 0488 AE04     		.2byte	0x4ae
 3130 048a A1040000 		.4byte	0x4a1
 3131 048e 02       		.byte	0x2
 3132 048f 91       		.byte	0x91
 3133 0490 6C       		.sleb128 -20
 3134 0491 0F       		.uleb128 0xf
 3135 0492 C0050000 		.4byte	.LASF55
 3136 0496 01       		.byte	0x1
 3137 0497 B004     		.2byte	0x4b0
 3138 0499 7A000000 		.4byte	0x7a
 3139 049d 02       		.byte	0x2
 3140 049e 91       		.byte	0x91
 3141 049f 76       		.sleb128 -10
 3142 04a0 00       		.byte	0x0
 3143 04a1 10       		.uleb128 0x10
 3144 04a2 04       		.byte	0x4
 3145 04a3 A7040000 		.4byte	0x4a7
 3146 04a7 11       		.uleb128 0x11
 3147 04a8 93000000 		.4byte	0x93
 3148 04ac 0B       		.uleb128 0xb
 3149 04ad 01       		.byte	0x1
 3150 04ae B6020000 		.4byte	.LASF56
 3151 04b2 01       		.byte	0x1
 3152 04b3 D404     		.2byte	0x4d4
 3153 04b5 01       		.byte	0x1
 3154 04b6 00000000 		.4byte	.LFB25
 3155 04ba 46000000 		.4byte	.LFE25
 3156 04be F3040000 		.4byte	.LLST25
 3157 04c2 F4040000 		.4byte	0x4f4
 3158 04c6 0C       		.uleb128 0xc
 3159 04c7 43000000 		.4byte	.LASF54
 3160 04cb 01       		.byte	0x1
 3161 04cc D404     		.2byte	0x4d4
ARM GAS  C:\DOCUME~1\ADMINI~1\LOCALS~1\Temp\ccTmPqfn.s 			page 85


 3162 04ce F4040000 		.4byte	0x4f4
 3163 04d2 02       		.byte	0x2
 3164 04d3 91       		.byte	0x91
 3165 04d4 6C       		.sleb128 -20
 3166 04d5 0C       		.uleb128 0xc
 3167 04d6 F1030000 		.4byte	.LASF57
 3168 04da 01       		.byte	0x1
 3169 04db D404     		.2byte	0x4d4
 3170 04dd 6F000000 		.4byte	0x6f
 3171 04e1 02       		.byte	0x2
 3172 04e2 91       		.byte	0x91
 3173 04e3 6B       		.sleb128 -21
 3174 04e4 0F       		.uleb128 0xf
 3175 04e5 C0050000 		.4byte	.LASF55
 3176 04e9 01       		.byte	0x1
 3177 04ea D704     		.2byte	0x4d7
 3178 04ec 6F000000 		.4byte	0x6f
 3179 04f0 02       		.byte	0x2
 3180 04f1 91       		.byte	0x91
 3181 04f2 77       		.sleb128 -9
 3182 04f3 00       		.byte	0x0
 3183 04f4 10       		.uleb128 0x10
 3184 04f5 04       		.byte	0x4
 3185 04f6 FA040000 		.4byte	0x4fa
 3186 04fa 11       		.uleb128 0x11
 3187 04fb 6F000000 		.4byte	0x6f
 3188 04ff 0B       		.uleb128 0xb
 3189 0500 01       		.byte	0x1
 3190 0501 F7040000 		.4byte	.LASF58
 3191 0505 01       		.byte	0x1
 3192 0506 F904     		.2byte	0x4f9
 3193 0508 01       		.byte	0x1
 3194 0509 00000000 		.4byte	.LFB26
 3195 050d 38000000 		.4byte	.LFE26
 3196 0511 2A050000 		.4byte	.LLST26
 3197 0515 29050000 		.4byte	0x529
 3198 0519 0C       		.uleb128 0xc
 3199 051a 38000000 		.4byte	.LASF48
 3200 051e 01       		.byte	0x1
 3201 051f F904     		.2byte	0x4f9
 3202 0521 6F000000 		.4byte	0x6f
 3203 0525 02       		.byte	0x2
 3204 0526 91       		.byte	0x91
 3205 0527 77       		.sleb128 -9
 3206 0528 00       		.byte	0x0
 3207 0529 0E       		.uleb128 0xe
 3208 052a 01       		.byte	0x1
 3209 052b A3030000 		.4byte	.LASF59
 3210 052f 01       		.byte	0x1
 3211 0530 1E05     		.2byte	0x51e
 3212 0532 01       		.byte	0x1
 3213 0533 6F000000 		.4byte	0x6f
 3214 0537 00000000 		.4byte	.LFB27
 3215 053b 96000000 		.4byte	.LFE27
 3216 053f 61050000 		.4byte	.LLST27
 3217 0543 57050000 		.4byte	0x557
 3218 0547 0F       		.uleb128 0xf
ARM GAS  C:\DOCUME~1\ADMINI~1\LOCALS~1\Temp\ccTmPqfn.s 			page 86


 3219 0548 35020000 		.4byte	.LASF37
 3220 054c 01       		.byte	0x1
 3221 054d 2105     		.2byte	0x521
 3222 054f 6F000000 		.4byte	0x6f
 3223 0553 02       		.byte	0x2
 3224 0554 91       		.byte	0x91
 3225 0555 77       		.sleb128 -9
 3226 0556 00       		.byte	0x0
 3227 0557 0B       		.uleb128 0xb
 3228 0558 01       		.byte	0x1
 3229 0559 B6010000 		.4byte	.LASF60
 3230 055d 01       		.byte	0x1
 3231 055e 7405     		.2byte	0x574
 3232 0560 01       		.byte	0x1
 3233 0561 00000000 		.4byte	.LFB28
 3234 0565 78000000 		.4byte	.LFE28
 3235 0569 98050000 		.4byte	.LLST28
 3236 056d 81050000 		.4byte	0x581
 3237 0571 0F       		.uleb128 0xf
 3238 0572 1E050000 		.4byte	.LASF19
 3239 0576 01       		.byte	0x1
 3240 0577 7605     		.2byte	0x576
 3241 0579 6F000000 		.4byte	0x6f
 3242 057d 02       		.byte	0x2
 3243 057e 91       		.byte	0x91
 3244 057f 77       		.sleb128 -9
 3245 0580 00       		.byte	0x0
 3246 0581 0B       		.uleb128 0xb
 3247 0582 01       		.byte	0x1
 3248 0583 61020000 		.4byte	.LASF61
 3249 0587 01       		.byte	0x1
 3250 0588 CD05     		.2byte	0x5cd
 3251 058a 01       		.byte	0x1
 3252 058b 00000000 		.4byte	.LFB29
 3253 058f CC000000 		.4byte	.LFE29
 3254 0593 CF050000 		.4byte	.LLST29
 3255 0597 D6050000 		.4byte	0x5d6
 3256 059b 0C       		.uleb128 0xc
 3257 059c 8F010000 		.4byte	.LASF62
 3258 05a0 01       		.byte	0x1
 3259 05a1 CD05     		.2byte	0x5cd
 3260 05a3 6F000000 		.4byte	0x6f
 3261 05a7 02       		.byte	0x2
 3262 05a8 91       		.byte	0x91
 3263 05a9 6F       		.sleb128 -17
 3264 05aa 12       		.uleb128 0x12
 3265 05ab 18000000 		.4byte	.LBB2
 3266 05af C2000000 		.4byte	.LBE2
 3267 05b3 0F       		.uleb128 0xf
 3268 05b4 CB020000 		.4byte	.LASF63
 3269 05b8 01       		.byte	0x1
 3270 05b9 D505     		.2byte	0x5d5
 3271 05bb 6F000000 		.4byte	0x6f
 3272 05bf 02       		.byte	0x2
 3273 05c0 91       		.byte	0x91
 3274 05c1 77       		.sleb128 -9
 3275 05c2 0F       		.uleb128 0xf
ARM GAS  C:\DOCUME~1\ADMINI~1\LOCALS~1\Temp\ccTmPqfn.s 			page 87


 3276 05c3 A5020000 		.4byte	.LASF64
 3277 05c7 01       		.byte	0x1
 3278 05c8 FB05     		.2byte	0x5fb
 3279 05ca 6F000000 		.4byte	0x6f
 3280 05ce 05       		.byte	0x5
 3281 05cf 03       		.byte	0x3
 3282 05d0 07000000 		.4byte	tx_period.2388
 3283 05d4 00       		.byte	0x0
 3284 05d5 00       		.byte	0x0
 3285 05d6 0B       		.uleb128 0xb
 3286 05d7 01       		.byte	0x1
 3287 05d8 FB030000 		.4byte	.LASF65
 3288 05dc 01       		.byte	0x1
 3289 05dd 4606     		.2byte	0x646
 3290 05df 01       		.byte	0x1
 3291 05e0 00000000 		.4byte	.LFB30
 3292 05e4 14000000 		.4byte	.LFE30
 3293 05e8 06060000 		.4byte	.LLST30
 3294 05ec 00060000 		.4byte	0x600
 3295 05f0 0C       		.uleb128 0xc
 3296 05f1 E2000000 		.4byte	.LASF40
 3297 05f5 01       		.byte	0x1
 3298 05f6 4606     		.2byte	0x646
 3299 05f8 6F000000 		.4byte	0x6f
 3300 05fc 02       		.byte	0x2
 3301 05fd 91       		.byte	0x91
 3302 05fe 77       		.sleb128 -9
 3303 05ff 00       		.byte	0x0
 3304 0600 13       		.uleb128 0x13
 3305 0601 4D020000 		.4byte	.LASF66
 3306 0605 01       		.byte	0x1
 3307 0606 1C       		.byte	0x1c
 3308 0607 6F000000 		.4byte	0x6f
 3309 060b 01       		.byte	0x1
 3310 060c 05       		.byte	0x5
 3311 060d 03       		.byte	0x3
 3312 060e 00000000 		.4byte	UART_Bridge_initVar
 3313 0612 14       		.uleb128 0x14
 3314 0613 6F000000 		.4byte	0x6f
 3315 0617 22060000 		.4byte	0x622
 3316 061b 15       		.uleb128 0x15
 3317 061c AA000000 		.4byte	0xaa
 3318 0620 7F       		.byte	0x7f
 3319 0621 00       		.byte	0x0
 3320 0622 13       		.uleb128 0x13
 3321 0623 20020000 		.4byte	.LASF67
 3322 0627 01       		.byte	0x1
 3323 0628 1E       		.byte	0x1e
 3324 0629 34060000 		.4byte	0x634
 3325 062d 01       		.byte	0x1
 3326 062e 05       		.byte	0x5
 3327 062f 03       		.byte	0x3
 3328 0630 00000000 		.4byte	UART_Bridge_txBuffer
 3329 0634 05       		.uleb128 0x5
 3330 0635 12060000 		.4byte	0x612
 3331 0639 13       		.uleb128 0x13
 3332 063a C2000000 		.4byte	.LASF68
ARM GAS  C:\DOCUME~1\ADMINI~1\LOCALS~1\Temp\ccTmPqfn.s 			page 88


 3333 063e 01       		.byte	0x1
 3334 063f 1F       		.byte	0x1f
 3335 0640 A5000000 		.4byte	0xa5
 3336 0644 01       		.byte	0x1
 3337 0645 05       		.byte	0x5
 3338 0646 03       		.byte	0x3
 3339 0647 00000000 		.4byte	UART_Bridge_txBufferRead
 3340 064b 13       		.uleb128 0x13
 3341 064c 38040000 		.4byte	.LASF69
 3342 0650 01       		.byte	0x1
 3343 0651 20       		.byte	0x20
 3344 0652 6F000000 		.4byte	0x6f
 3345 0656 01       		.byte	0x1
 3346 0657 05       		.byte	0x5
 3347 0658 03       		.byte	0x3
 3348 0659 00000000 		.4byte	UART_Bridge_txBufferWrite
 3349 065d 13       		.uleb128 0x13
 3350 065e CA050000 		.4byte	.LASF70
 3351 0662 01       		.byte	0x1
 3352 0663 24       		.byte	0x24
 3353 0664 6F060000 		.4byte	0x66f
 3354 0668 01       		.byte	0x1
 3355 0669 05       		.byte	0x5
 3356 066a 03       		.byte	0x3
 3357 066b 00000000 		.4byte	UART_Bridge_rxBuffer
 3358 066f 05       		.uleb128 0x5
 3359 0670 12060000 		.4byte	0x612
 3360 0674 13       		.uleb128 0x13
 3361 0675 B1040000 		.4byte	.LASF71
 3362 0679 01       		.byte	0x1
 3363 067a 25       		.byte	0x25
 3364 067b A5000000 		.4byte	0xa5
 3365 067f 01       		.byte	0x1
 3366 0680 05       		.byte	0x5
 3367 0681 03       		.byte	0x3
 3368 0682 00000000 		.4byte	UART_Bridge_rxBufferRead
 3369 0686 13       		.uleb128 0x13
 3370 0687 1E010000 		.4byte	.LASF72
 3371 068b 01       		.byte	0x1
 3372 068c 26       		.byte	0x26
 3373 068d A5000000 		.4byte	0xa5
 3374 0691 01       		.byte	0x1
 3375 0692 05       		.byte	0x5
 3376 0693 03       		.byte	0x3
 3377 0694 00000000 		.4byte	UART_Bridge_rxBufferWrite
 3378 0698 13       		.uleb128 0x13
 3379 0699 38010000 		.4byte	.LASF73
 3380 069d 01       		.byte	0x1
 3381 069e 27       		.byte	0x27
 3382 069f A5000000 		.4byte	0xa5
 3383 06a3 01       		.byte	0x1
 3384 06a4 05       		.byte	0x5
 3385 06a5 03       		.byte	0x3
 3386 06a6 00000000 		.4byte	UART_Bridge_rxBufferLoopDetect
 3387 06aa 13       		.uleb128 0x13
 3388 06ab 88020000 		.4byte	.LASF74
 3389 06af 01       		.byte	0x1
ARM GAS  C:\DOCUME~1\ADMINI~1\LOCALS~1\Temp\ccTmPqfn.s 			page 89


 3390 06b0 28       		.byte	0x28
 3391 06b1 A5000000 		.4byte	0xa5
 3392 06b5 01       		.byte	0x1
 3393 06b6 05       		.byte	0x5
 3394 06b7 03       		.byte	0x3
 3395 06b8 00000000 		.4byte	UART_Bridge_rxBufferOverflow
 3396 06bc 00       		.byte	0x0
 3397              		.section	.debug_abbrev
 3398 0000 01       		.uleb128 0x1
 3399 0001 11       		.uleb128 0x11
 3400 0002 01       		.byte	0x1
 3401 0003 25       		.uleb128 0x25
 3402 0004 0E       		.uleb128 0xe
 3403 0005 13       		.uleb128 0x13
 3404 0006 0B       		.uleb128 0xb
 3405 0007 03       		.uleb128 0x3
 3406 0008 0E       		.uleb128 0xe
 3407 0009 1B       		.uleb128 0x1b
 3408 000a 0E       		.uleb128 0xe
 3409 000b 11       		.uleb128 0x11
 3410 000c 01       		.uleb128 0x1
 3411 000d 52       		.uleb128 0x52
 3412 000e 01       		.uleb128 0x1
 3413 000f 55       		.uleb128 0x55
 3414 0010 06       		.uleb128 0x6
 3415 0011 10       		.uleb128 0x10
 3416 0012 06       		.uleb128 0x6
 3417 0013 00       		.byte	0x0
 3418 0014 00       		.byte	0x0
 3419 0015 02       		.uleb128 0x2
 3420 0016 24       		.uleb128 0x24
 3421 0017 00       		.byte	0x0
 3422 0018 0B       		.uleb128 0xb
 3423 0019 0B       		.uleb128 0xb
 3424 001a 3E       		.uleb128 0x3e
 3425 001b 0B       		.uleb128 0xb
 3426 001c 03       		.uleb128 0x3
 3427 001d 0E       		.uleb128 0xe
 3428 001e 00       		.byte	0x0
 3429 001f 00       		.byte	0x0
 3430 0020 03       		.uleb128 0x3
 3431 0021 24       		.uleb128 0x24
 3432 0022 00       		.byte	0x0
 3433 0023 0B       		.uleb128 0xb
 3434 0024 0B       		.uleb128 0xb
 3435 0025 3E       		.uleb128 0x3e
 3436 0026 0B       		.uleb128 0xb
 3437 0027 03       		.uleb128 0x3
 3438 0028 08       		.uleb128 0x8
 3439 0029 00       		.byte	0x0
 3440 002a 00       		.byte	0x0
 3441 002b 04       		.uleb128 0x4
 3442 002c 16       		.uleb128 0x16
 3443 002d 00       		.byte	0x0
 3444 002e 03       		.uleb128 0x3
 3445 002f 0E       		.uleb128 0xe
 3446 0030 3A       		.uleb128 0x3a
ARM GAS  C:\DOCUME~1\ADMINI~1\LOCALS~1\Temp\ccTmPqfn.s 			page 90


 3447 0031 0B       		.uleb128 0xb
 3448 0032 3B       		.uleb128 0x3b
 3449 0033 0B       		.uleb128 0xb
 3450 0034 49       		.uleb128 0x49
 3451 0035 13       		.uleb128 0x13
 3452 0036 00       		.byte	0x0
 3453 0037 00       		.byte	0x0
 3454 0038 05       		.uleb128 0x5
 3455 0039 35       		.uleb128 0x35
 3456 003a 00       		.byte	0x0
 3457 003b 49       		.uleb128 0x49
 3458 003c 13       		.uleb128 0x13
 3459 003d 00       		.byte	0x0
 3460 003e 00       		.byte	0x0
 3461 003f 06       		.uleb128 0x6
 3462 0040 24       		.uleb128 0x24
 3463 0041 00       		.byte	0x0
 3464 0042 0B       		.uleb128 0xb
 3465 0043 0B       		.uleb128 0xb
 3466 0044 3E       		.uleb128 0x3e
 3467 0045 0B       		.uleb128 0xb
 3468 0046 00       		.byte	0x0
 3469 0047 00       		.byte	0x0
 3470 0048 07       		.uleb128 0x7
 3471 0049 2E       		.uleb128 0x2e
 3472 004a 00       		.byte	0x0
 3473 004b 3F       		.uleb128 0x3f
 3474 004c 0C       		.uleb128 0xc
 3475 004d 03       		.uleb128 0x3
 3476 004e 0E       		.uleb128 0xe
 3477 004f 3A       		.uleb128 0x3a
 3478 0050 0B       		.uleb128 0xb
 3479 0051 3B       		.uleb128 0x3b
 3480 0052 0B       		.uleb128 0xb
 3481 0053 27       		.uleb128 0x27
 3482 0054 0C       		.uleb128 0xc
 3483 0055 11       		.uleb128 0x11
 3484 0056 01       		.uleb128 0x1
 3485 0057 12       		.uleb128 0x12
 3486 0058 01       		.uleb128 0x1
 3487 0059 40       		.uleb128 0x40
 3488 005a 06       		.uleb128 0x6
 3489 005b 00       		.byte	0x0
 3490 005c 00       		.byte	0x0
 3491 005d 08       		.uleb128 0x8
 3492 005e 2E       		.uleb128 0x2e
 3493 005f 01       		.byte	0x1
 3494 0060 3F       		.uleb128 0x3f
 3495 0061 0C       		.uleb128 0xc
 3496 0062 03       		.uleb128 0x3
 3497 0063 0E       		.uleb128 0xe
 3498 0064 3A       		.uleb128 0x3a
 3499 0065 0B       		.uleb128 0xb
 3500 0066 3B       		.uleb128 0x3b
 3501 0067 0B       		.uleb128 0xb
 3502 0068 27       		.uleb128 0x27
 3503 0069 0C       		.uleb128 0xc
ARM GAS  C:\DOCUME~1\ADMINI~1\LOCALS~1\Temp\ccTmPqfn.s 			page 91


 3504 006a 11       		.uleb128 0x11
 3505 006b 01       		.uleb128 0x1
 3506 006c 12       		.uleb128 0x12
 3507 006d 01       		.uleb128 0x1
 3508 006e 40       		.uleb128 0x40
 3509 006f 06       		.uleb128 0x6
 3510 0070 01       		.uleb128 0x1
 3511 0071 13       		.uleb128 0x13
 3512 0072 00       		.byte	0x0
 3513 0073 00       		.byte	0x0
 3514 0074 09       		.uleb128 0x9
 3515 0075 34       		.uleb128 0x34
 3516 0076 00       		.byte	0x0
 3517 0077 03       		.uleb128 0x3
 3518 0078 0E       		.uleb128 0xe
 3519 0079 3A       		.uleb128 0x3a
 3520 007a 0B       		.uleb128 0xb
 3521 007b 3B       		.uleb128 0x3b
 3522 007c 0B       		.uleb128 0xb
 3523 007d 49       		.uleb128 0x49
 3524 007e 13       		.uleb128 0x13
 3525 007f 02       		.uleb128 0x2
 3526 0080 0A       		.uleb128 0xa
 3527 0081 00       		.byte	0x0
 3528 0082 00       		.byte	0x0
 3529 0083 0A       		.uleb128 0xa
 3530 0084 2E       		.uleb128 0x2e
 3531 0085 00       		.byte	0x0
 3532 0086 3F       		.uleb128 0x3f
 3533 0087 0C       		.uleb128 0xc
 3534 0088 03       		.uleb128 0x3
 3535 0089 0E       		.uleb128 0xe
 3536 008a 3A       		.uleb128 0x3a
 3537 008b 0B       		.uleb128 0xb
 3538 008c 3B       		.uleb128 0x3b
 3539 008d 05       		.uleb128 0x5
 3540 008e 27       		.uleb128 0x27
 3541 008f 0C       		.uleb128 0xc
 3542 0090 49       		.uleb128 0x49
 3543 0091 13       		.uleb128 0x13
 3544 0092 11       		.uleb128 0x11
 3545 0093 01       		.uleb128 0x1
 3546 0094 12       		.uleb128 0x12
 3547 0095 01       		.uleb128 0x1
 3548 0096 40       		.uleb128 0x40
 3549 0097 06       		.uleb128 0x6
 3550 0098 00       		.byte	0x0
 3551 0099 00       		.byte	0x0
 3552 009a 0B       		.uleb128 0xb
 3553 009b 2E       		.uleb128 0x2e
 3554 009c 01       		.byte	0x1
 3555 009d 3F       		.uleb128 0x3f
 3556 009e 0C       		.uleb128 0xc
 3557 009f 03       		.uleb128 0x3
 3558 00a0 0E       		.uleb128 0xe
 3559 00a1 3A       		.uleb128 0x3a
 3560 00a2 0B       		.uleb128 0xb
ARM GAS  C:\DOCUME~1\ADMINI~1\LOCALS~1\Temp\ccTmPqfn.s 			page 92


 3561 00a3 3B       		.uleb128 0x3b
 3562 00a4 05       		.uleb128 0x5
 3563 00a5 27       		.uleb128 0x27
 3564 00a6 0C       		.uleb128 0xc
 3565 00a7 11       		.uleb128 0x11
 3566 00a8 01       		.uleb128 0x1
 3567 00a9 12       		.uleb128 0x12
 3568 00aa 01       		.uleb128 0x1
 3569 00ab 40       		.uleb128 0x40
 3570 00ac 06       		.uleb128 0x6
 3571 00ad 01       		.uleb128 0x1
 3572 00ae 13       		.uleb128 0x13
 3573 00af 00       		.byte	0x0
 3574 00b0 00       		.byte	0x0
 3575 00b1 0C       		.uleb128 0xc
 3576 00b2 05       		.uleb128 0x5
 3577 00b3 00       		.byte	0x0
 3578 00b4 03       		.uleb128 0x3
 3579 00b5 0E       		.uleb128 0xe
 3580 00b6 3A       		.uleb128 0x3a
 3581 00b7 0B       		.uleb128 0xb
 3582 00b8 3B       		.uleb128 0x3b
 3583 00b9 05       		.uleb128 0x5
 3584 00ba 49       		.uleb128 0x49
 3585 00bb 13       		.uleb128 0x13
 3586 00bc 02       		.uleb128 0x2
 3587 00bd 0A       		.uleb128 0xa
 3588 00be 00       		.byte	0x0
 3589 00bf 00       		.byte	0x0
 3590 00c0 0D       		.uleb128 0xd
 3591 00c1 2E       		.uleb128 0x2e
 3592 00c2 00       		.byte	0x0
 3593 00c3 3F       		.uleb128 0x3f
 3594 00c4 0C       		.uleb128 0xc
 3595 00c5 03       		.uleb128 0x3
 3596 00c6 0E       		.uleb128 0xe
 3597 00c7 3A       		.uleb128 0x3a
 3598 00c8 0B       		.uleb128 0xb
 3599 00c9 3B       		.uleb128 0x3b
 3600 00ca 05       		.uleb128 0x5
 3601 00cb 27       		.uleb128 0x27
 3602 00cc 0C       		.uleb128 0xc
 3603 00cd 11       		.uleb128 0x11
 3604 00ce 01       		.uleb128 0x1
 3605 00cf 12       		.uleb128 0x12
 3606 00d0 01       		.uleb128 0x1
 3607 00d1 40       		.uleb128 0x40
 3608 00d2 06       		.uleb128 0x6
 3609 00d3 00       		.byte	0x0
 3610 00d4 00       		.byte	0x0
 3611 00d5 0E       		.uleb128 0xe
 3612 00d6 2E       		.uleb128 0x2e
 3613 00d7 01       		.byte	0x1
 3614 00d8 3F       		.uleb128 0x3f
 3615 00d9 0C       		.uleb128 0xc
 3616 00da 03       		.uleb128 0x3
 3617 00db 0E       		.uleb128 0xe
ARM GAS  C:\DOCUME~1\ADMINI~1\LOCALS~1\Temp\ccTmPqfn.s 			page 93


 3618 00dc 3A       		.uleb128 0x3a
 3619 00dd 0B       		.uleb128 0xb
 3620 00de 3B       		.uleb128 0x3b
 3621 00df 05       		.uleb128 0x5
 3622 00e0 27       		.uleb128 0x27
 3623 00e1 0C       		.uleb128 0xc
 3624 00e2 49       		.uleb128 0x49
 3625 00e3 13       		.uleb128 0x13
 3626 00e4 11       		.uleb128 0x11
 3627 00e5 01       		.uleb128 0x1
 3628 00e6 12       		.uleb128 0x12
 3629 00e7 01       		.uleb128 0x1
 3630 00e8 40       		.uleb128 0x40
 3631 00e9 06       		.uleb128 0x6
 3632 00ea 01       		.uleb128 0x1
 3633 00eb 13       		.uleb128 0x13
 3634 00ec 00       		.byte	0x0
 3635 00ed 00       		.byte	0x0
 3636 00ee 0F       		.uleb128 0xf
 3637 00ef 34       		.uleb128 0x34
 3638 00f0 00       		.byte	0x0
 3639 00f1 03       		.uleb128 0x3
 3640 00f2 0E       		.uleb128 0xe
 3641 00f3 3A       		.uleb128 0x3a
 3642 00f4 0B       		.uleb128 0xb
 3643 00f5 3B       		.uleb128 0x3b
 3644 00f6 05       		.uleb128 0x5
 3645 00f7 49       		.uleb128 0x49
 3646 00f8 13       		.uleb128 0x13
 3647 00f9 02       		.uleb128 0x2
 3648 00fa 0A       		.uleb128 0xa
 3649 00fb 00       		.byte	0x0
 3650 00fc 00       		.byte	0x0
 3651 00fd 10       		.uleb128 0x10
 3652 00fe 0F       		.uleb128 0xf
 3653 00ff 00       		.byte	0x0
 3654 0100 0B       		.uleb128 0xb
 3655 0101 0B       		.uleb128 0xb
 3656 0102 49       		.uleb128 0x49
 3657 0103 13       		.uleb128 0x13
 3658 0104 00       		.byte	0x0
 3659 0105 00       		.byte	0x0
 3660 0106 11       		.uleb128 0x11
 3661 0107 26       		.uleb128 0x26
 3662 0108 00       		.byte	0x0
 3663 0109 49       		.uleb128 0x49
 3664 010a 13       		.uleb128 0x13
 3665 010b 00       		.byte	0x0
 3666 010c 00       		.byte	0x0
 3667 010d 12       		.uleb128 0x12
 3668 010e 0B       		.uleb128 0xb
 3669 010f 01       		.byte	0x1
 3670 0110 11       		.uleb128 0x11
 3671 0111 01       		.uleb128 0x1
 3672 0112 12       		.uleb128 0x12
 3673 0113 01       		.uleb128 0x1
 3674 0114 00       		.byte	0x0
ARM GAS  C:\DOCUME~1\ADMINI~1\LOCALS~1\Temp\ccTmPqfn.s 			page 94


 3675 0115 00       		.byte	0x0
 3676 0116 13       		.uleb128 0x13
 3677 0117 34       		.uleb128 0x34
 3678 0118 00       		.byte	0x0
 3679 0119 03       		.uleb128 0x3
 3680 011a 0E       		.uleb128 0xe
 3681 011b 3A       		.uleb128 0x3a
 3682 011c 0B       		.uleb128 0xb
 3683 011d 3B       		.uleb128 0x3b
 3684 011e 0B       		.uleb128 0xb
 3685 011f 49       		.uleb128 0x49
 3686 0120 13       		.uleb128 0x13
 3687 0121 3F       		.uleb128 0x3f
 3688 0122 0C       		.uleb128 0xc
 3689 0123 02       		.uleb128 0x2
 3690 0124 0A       		.uleb128 0xa
 3691 0125 00       		.byte	0x0
 3692 0126 00       		.byte	0x0
 3693 0127 14       		.uleb128 0x14
 3694 0128 01       		.uleb128 0x1
 3695 0129 01       		.byte	0x1
 3696 012a 49       		.uleb128 0x49
 3697 012b 13       		.uleb128 0x13
 3698 012c 01       		.uleb128 0x1
 3699 012d 13       		.uleb128 0x13
 3700 012e 00       		.byte	0x0
 3701 012f 00       		.byte	0x0
 3702 0130 15       		.uleb128 0x15
 3703 0131 21       		.uleb128 0x21
 3704 0132 00       		.byte	0x0
 3705 0133 49       		.uleb128 0x49
 3706 0134 13       		.uleb128 0x13
 3707 0135 2F       		.uleb128 0x2f
 3708 0136 0B       		.uleb128 0xb
 3709 0137 00       		.byte	0x0
 3710 0138 00       		.byte	0x0
 3711 0139 00       		.byte	0x0
 3712              		.section	.debug_pubnames,"",%progbits
 3713 0000 82040000 		.4byte	0x482
 3714 0004 0200     		.2byte	0x2
 3715 0006 00000000 		.4byte	.Ldebug_info0
 3716 000a BD060000 		.4byte	0x6bd
 3717 000e AD000000 		.4byte	0xad
 3718 0012 55415254 		.ascii	"UART_Bridge_Start\000"
 3718      5F427269 
 3718      6467655F 
 3718      53746172 
 3718      7400
 3719 0024 C2000000 		.4byte	0xc2
 3720 0028 55415254 		.ascii	"UART_Bridge_Init\000"
 3720      5F427269 
 3720      6467655F 
 3720      496E6974 
 3720      00
 3721 0039 D7000000 		.4byte	0xd7
 3722 003d 55415254 		.ascii	"UART_Bridge_Enable\000"
 3722      5F427269 
ARM GAS  C:\DOCUME~1\ADMINI~1\LOCALS~1\Temp\ccTmPqfn.s 			page 95


 3722      6467655F 
 3722      456E6162 
 3722      6C6500
 3723 0050 FF000000 		.4byte	0xff
 3724 0054 55415254 		.ascii	"UART_Bridge_Stop\000"
 3724      5F427269 
 3724      6467655F 
 3724      53746F70 
 3724      00
 3725 0065 27010000 		.4byte	0x127
 3726 0069 55415254 		.ascii	"UART_Bridge_ReadControlRegister\000"
 3726      5F427269 
 3726      6467655F 
 3726      52656164 
 3726      436F6E74 
 3727 0089 41010000 		.4byte	0x141
 3728 008d 55415254 		.ascii	"UART_Bridge_WriteControlRegister\000"
 3728      5F427269 
 3728      6467655F 
 3728      57726974 
 3728      65436F6E 
 3729 00ae 6B010000 		.4byte	0x16b
 3730 00b2 55415254 		.ascii	"UART_Bridge_EnableRxInt\000"
 3730      5F427269 
 3730      6467655F 
 3730      456E6162 
 3730      6C655278 
 3731 00ca 81010000 		.4byte	0x181
 3732 00ce 55415254 		.ascii	"UART_Bridge_DisableRxInt\000"
 3732      5F427269 
 3732      6467655F 
 3732      44697361 
 3732      626C6552 
 3733 00e7 97010000 		.4byte	0x197
 3734 00eb 55415254 		.ascii	"UART_Bridge_SetRxInterruptMode\000"
 3734      5F427269 
 3734      6467655F 
 3734      53657452 
 3734      78496E74 
 3735 010a C1010000 		.4byte	0x1c1
 3736 010e 55415254 		.ascii	"UART_Bridge_ReadRxData\000"
 3736      5F427269 
 3736      6467655F 
 3736      52656164 
 3736      52784461 
 3737 0125 0D020000 		.4byte	0x20d
 3738 0129 55415254 		.ascii	"UART_Bridge_ReadRxStatus\000"
 3738      5F427269 
 3738      6467655F 
 3738      52656164 
 3738      52785374 
 3739 0142 3B020000 		.4byte	0x23b
 3740 0146 55415254 		.ascii	"UART_Bridge_GetChar\000"
 3740      5F427269 
 3740      6467655F 
 3740      47657443 
 3740      68617200 
ARM GAS  C:\DOCUME~1\ADMINI~1\LOCALS~1\Temp\ccTmPqfn.s 			page 96


 3741 015a 96020000 		.4byte	0x296
 3742 015e 55415254 		.ascii	"UART_Bridge_GetByte\000"
 3742      5F427269 
 3742      6467655F 
 3742      47657442 
 3742      79746500 
 3743 0172 B0020000 		.4byte	0x2b0
 3744 0176 55415254 		.ascii	"UART_Bridge_GetRxBufferSize\000"
 3744      5F427269 
 3744      6467655F 
 3744      47657452 
 3744      78427566 
 3745 0192 DE020000 		.4byte	0x2de
 3746 0196 55415254 		.ascii	"UART_Bridge_ClearRxBuffer\000"
 3746      5F427269 
 3746      6467655F 
 3746      436C6561 
 3746      72527842 
 3747 01b0 08030000 		.4byte	0x308
 3748 01b4 55415254 		.ascii	"UART_Bridge_SetRxAddressMode\000"
 3748      5F427269 
 3748      6467655F 
 3748      53657452 
 3748      78416464 
 3749 01d1 32030000 		.4byte	0x332
 3750 01d5 55415254 		.ascii	"UART_Bridge_SetRxAddress1\000"
 3750      5F427269 
 3750      6467655F 
 3750      53657452 
 3750      78416464 
 3751 01ef 5C030000 		.4byte	0x35c
 3752 01f3 55415254 		.ascii	"UART_Bridge_SetRxAddress2\000"
 3752      5F427269 
 3752      6467655F 
 3752      53657452 
 3752      78416464 
 3753 020d 86030000 		.4byte	0x386
 3754 0211 55415254 		.ascii	"UART_Bridge_EnableTxInt\000"
 3754      5F427269 
 3754      6467655F 
 3754      456E6162 
 3754      6C655478 
 3755 0229 9C030000 		.4byte	0x39c
 3756 022d 55415254 		.ascii	"UART_Bridge_DisableTxInt\000"
 3756      5F427269 
 3756      6467655F 
 3756      44697361 
 3756      626C6554 
 3757 0246 B2030000 		.4byte	0x3b2
 3758 024a 55415254 		.ascii	"UART_Bridge_SetTxInterruptMode\000"
 3758      5F427269 
 3758      6467655F 
 3758      53657454 
 3758      78496E74 
 3759 0269 DC030000 		.4byte	0x3dc
 3760 026d 55415254 		.ascii	"UART_Bridge_WriteTxData\000"
 3760      5F427269 
ARM GAS  C:\DOCUME~1\ADMINI~1\LOCALS~1\Temp\ccTmPqfn.s 			page 97


 3760      6467655F 
 3760      57726974 
 3760      65547844 
 3761 0285 06040000 		.4byte	0x406
 3762 0289 55415254 		.ascii	"UART_Bridge_ReadTxStatus\000"
 3762      5F427269 
 3762      6467655F 
 3762      52656164 
 3762      54785374 
 3763 02a2 20040000 		.4byte	0x420
 3764 02a6 55415254 		.ascii	"UART_Bridge_PutChar\000"
 3764      5F427269 
 3764      6467655F 
 3764      50757443 
 3764      68617200 
 3765 02ba 68040000 		.4byte	0x468
 3766 02be 55415254 		.ascii	"UART_Bridge_PutString\000"
 3766      5F427269 
 3766      6467655F 
 3766      50757453 
 3766      7472696E 
 3767 02d4 AC040000 		.4byte	0x4ac
 3768 02d8 55415254 		.ascii	"UART_Bridge_PutArray\000"
 3768      5F427269 
 3768      6467655F 
 3768      50757441 
 3768      72726179 
 3769 02ed FF040000 		.4byte	0x4ff
 3770 02f1 55415254 		.ascii	"UART_Bridge_PutCRLF\000"
 3770      5F427269 
 3770      6467655F 
 3770      50757443 
 3770      524C4600 
 3771 0305 29050000 		.4byte	0x529
 3772 0309 55415254 		.ascii	"UART_Bridge_GetTxBufferSize\000"
 3772      5F427269 
 3772      6467655F 
 3772      47657454 
 3772      78427566 
 3773 0325 57050000 		.4byte	0x557
 3774 0329 55415254 		.ascii	"UART_Bridge_ClearTxBuffer\000"
 3774      5F427269 
 3774      6467655F 
 3774      436C6561 
 3774      72547842 
 3775 0343 81050000 		.4byte	0x581
 3776 0347 55415254 		.ascii	"UART_Bridge_SendBreak\000"
 3776      5F427269 
 3776      6467655F 
 3776      53656E64 
 3776      42726561 
 3777 035d D6050000 		.4byte	0x5d6
 3778 0361 55415254 		.ascii	"UART_Bridge_SetTxAddressMode\000"
 3778      5F427269 
 3778      6467655F 
 3778      53657454 
 3778      78416464 
ARM GAS  C:\DOCUME~1\ADMINI~1\LOCALS~1\Temp\ccTmPqfn.s 			page 98


 3779 037e 00060000 		.4byte	0x600
 3780 0382 55415254 		.ascii	"UART_Bridge_initVar\000"
 3780      5F427269 
 3780      6467655F 
 3780      696E6974 
 3780      56617200 
 3781 0396 22060000 		.4byte	0x622
 3782 039a 55415254 		.ascii	"UART_Bridge_txBuffer\000"
 3782      5F427269 
 3782      6467655F 
 3782      74784275 
 3782      66666572 
 3783 03af 39060000 		.4byte	0x639
 3784 03b3 55415254 		.ascii	"UART_Bridge_txBufferRead\000"
 3784      5F427269 
 3784      6467655F 
 3784      74784275 
 3784      66666572 
 3785 03cc 4B060000 		.4byte	0x64b
 3786 03d0 55415254 		.ascii	"UART_Bridge_txBufferWrite\000"
 3786      5F427269 
 3786      6467655F 
 3786      74784275 
 3786      66666572 
 3787 03ea 5D060000 		.4byte	0x65d
 3788 03ee 55415254 		.ascii	"UART_Bridge_rxBuffer\000"
 3788      5F427269 
 3788      6467655F 
 3788      72784275 
 3788      66666572 
 3789 0403 74060000 		.4byte	0x674
 3790 0407 55415254 		.ascii	"UART_Bridge_rxBufferRead\000"
 3790      5F427269 
 3790      6467655F 
 3790      72784275 
 3790      66666572 
 3791 0420 86060000 		.4byte	0x686
 3792 0424 55415254 		.ascii	"UART_Bridge_rxBufferWrite\000"
 3792      5F427269 
 3792      6467655F 
 3792      72784275 
 3792      66666572 
 3793 043e 98060000 		.4byte	0x698
 3794 0442 55415254 		.ascii	"UART_Bridge_rxBufferLoopDetect\000"
 3794      5F427269 
 3794      6467655F 
 3794      72784275 
 3794      66666572 
 3795 0461 AA060000 		.4byte	0x6aa
 3796 0465 55415254 		.ascii	"UART_Bridge_rxBufferOverflow\000"
 3796      5F427269 
 3796      6467655F 
 3796      72784275 
 3796      66666572 
 3797 0482 00000000 		.4byte	0x0
 3798              		.section	.debug_aranges,"",%progbits
 3799 0000 0C010000 		.4byte	0x10c
ARM GAS  C:\DOCUME~1\ADMINI~1\LOCALS~1\Temp\ccTmPqfn.s 			page 99


 3800 0004 0200     		.2byte	0x2
 3801 0006 00000000 		.4byte	.Ldebug_info0
 3802 000a 04       		.byte	0x4
 3803 000b 00       		.byte	0x0
 3804 000c 0000     		.2byte	0x0
 3805 000e 0000     		.2byte	0x0
 3806 0010 00000000 		.4byte	.LFB0
 3807 0014 2A000000 		.4byte	.LFE0-.LFB0
 3808 0018 00000000 		.4byte	.LFB1
 3809 001c 84000000 		.4byte	.LFE1-.LFB1
 3810 0020 00000000 		.4byte	.LFB2
 3811 0024 8E000000 		.4byte	.LFE2-.LFB2
 3812 0028 00000000 		.4byte	.LFB3
 3813 002c 74000000 		.4byte	.LFE3-.LFB3
 3814 0030 00000000 		.4byte	.LFB4
 3815 0034 10000000 		.4byte	.LFE4-.LFB4
 3816 0038 00000000 		.4byte	.LFB5
 3817 003c 14000000 		.4byte	.LFE5-.LFB5
 3818 0040 00000000 		.4byte	.LFB6
 3819 0044 18000000 		.4byte	.LFE6-.LFB6
 3820 0048 00000000 		.4byte	.LFB7
 3821 004c 18000000 		.4byte	.LFE7-.LFB7
 3822 0050 00000000 		.4byte	.LFB8
 3823 0054 20000000 		.4byte	.LFE8-.LFB8
 3824 0058 00000000 		.4byte	.LFB9
 3825 005c AA000000 		.4byte	.LFE9-.LFB9
 3826 0060 00000000 		.4byte	.LFB10
 3827 0064 50000000 		.4byte	.LFE10-.LFB10
 3828 0068 00000000 		.4byte	.LFB11
 3829 006c D6000000 		.4byte	.LFE11-.LFB11
 3830 0070 00000000 		.4byte	.LFB12
 3831 0074 24000000 		.4byte	.LFE12-.LFB12
 3832 0078 00000000 		.4byte	.LFB13
 3833 007c B6000000 		.4byte	.LFE13-.LFB13
 3834 0080 00000000 		.4byte	.LFB14
 3835 0084 94000000 		.4byte	.LFE14-.LFB14
 3836 0088 00000000 		.4byte	.LFB15
 3837 008c 14000000 		.4byte	.LFE15-.LFB15
 3838 0090 00000000 		.4byte	.LFB16
 3839 0094 20000000 		.4byte	.LFE16-.LFB16
 3840 0098 00000000 		.4byte	.LFB17
 3841 009c 20000000 		.4byte	.LFE17-.LFB17
 3842 00a0 00000000 		.4byte	.LFB18
 3843 00a4 18000000 		.4byte	.LFE18-.LFB18
 3844 00a8 00000000 		.4byte	.LFB19
 3845 00ac 18000000 		.4byte	.LFE19-.LFB19
 3846 00b0 00000000 		.4byte	.LFB20
 3847 00b4 20000000 		.4byte	.LFE20-.LFB20
 3848 00b8 00000000 		.4byte	.LFB21
 3849 00bc B4000000 		.4byte	.LFE21-.LFB21
 3850 00c0 00000000 		.4byte	.LFB22
 3851 00c4 18000000 		.4byte	.LFE22-.LFB22
 3852 00c8 00000000 		.4byte	.LFB23
 3853 00cc B8000000 		.4byte	.LFE23-.LFB23
 3854 00d0 00000000 		.4byte	.LFB24
 3855 00d4 48000000 		.4byte	.LFE24-.LFB24
 3856 00d8 00000000 		.4byte	.LFB25
ARM GAS  C:\DOCUME~1\ADMINI~1\LOCALS~1\Temp\ccTmPqfn.s 			page 100


 3857 00dc 46000000 		.4byte	.LFE25-.LFB25
 3858 00e0 00000000 		.4byte	.LFB26
 3859 00e4 38000000 		.4byte	.LFE26-.LFB26
 3860 00e8 00000000 		.4byte	.LFB27
 3861 00ec 96000000 		.4byte	.LFE27-.LFB27
 3862 00f0 00000000 		.4byte	.LFB28
 3863 00f4 78000000 		.4byte	.LFE28-.LFB28
 3864 00f8 00000000 		.4byte	.LFB29
 3865 00fc CC000000 		.4byte	.LFE29-.LFB29
 3866 0100 00000000 		.4byte	.LFB30
 3867 0104 14000000 		.4byte	.LFE30-.LFB30
 3868 0108 00000000 		.4byte	0x0
 3869 010c 00000000 		.4byte	0x0
 3870              		.section	.debug_ranges,"",%progbits
 3871              	.Ldebug_ranges0:
 3872 0000 00000000 		.4byte	.Ltext0
 3873 0004 00000000 		.4byte	.Letext0
 3874 0008 00000000 		.4byte	.LFB0
 3875 000c 2A000000 		.4byte	.LFE0
 3876 0010 00000000 		.4byte	.LFB1
 3877 0014 84000000 		.4byte	.LFE1
 3878 0018 00000000 		.4byte	.LFB2
 3879 001c 8E000000 		.4byte	.LFE2
 3880 0020 00000000 		.4byte	.LFB3
 3881 0024 74000000 		.4byte	.LFE3
 3882 0028 00000000 		.4byte	.LFB4
 3883 002c 10000000 		.4byte	.LFE4
 3884 0030 00000000 		.4byte	.LFB5
 3885 0034 14000000 		.4byte	.LFE5
 3886 0038 00000000 		.4byte	.LFB6
 3887 003c 18000000 		.4byte	.LFE6
 3888 0040 00000000 		.4byte	.LFB7
 3889 0044 18000000 		.4byte	.LFE7
 3890 0048 00000000 		.4byte	.LFB8
 3891 004c 20000000 		.4byte	.LFE8
 3892 0050 00000000 		.4byte	.LFB9
 3893 0054 AA000000 		.4byte	.LFE9
 3894 0058 00000000 		.4byte	.LFB10
 3895 005c 50000000 		.4byte	.LFE10
 3896 0060 00000000 		.4byte	.LFB11
 3897 0064 D6000000 		.4byte	.LFE11
 3898 0068 00000000 		.4byte	.LFB12
 3899 006c 24000000 		.4byte	.LFE12
 3900 0070 00000000 		.4byte	.LFB13
 3901 0074 B6000000 		.4byte	.LFE13
 3902 0078 00000000 		.4byte	.LFB14
 3903 007c 94000000 		.4byte	.LFE14
 3904 0080 00000000 		.4byte	.LFB15
 3905 0084 14000000 		.4byte	.LFE15
 3906 0088 00000000 		.4byte	.LFB16
 3907 008c 20000000 		.4byte	.LFE16
 3908 0090 00000000 		.4byte	.LFB17
 3909 0094 20000000 		.4byte	.LFE17
 3910 0098 00000000 		.4byte	.LFB18
 3911 009c 18000000 		.4byte	.LFE18
 3912 00a0 00000000 		.4byte	.LFB19
 3913 00a4 18000000 		.4byte	.LFE19
ARM GAS  C:\DOCUME~1\ADMINI~1\LOCALS~1\Temp\ccTmPqfn.s 			page 101


 3914 00a8 00000000 		.4byte	.LFB20
 3915 00ac 20000000 		.4byte	.LFE20
 3916 00b0 00000000 		.4byte	.LFB21
 3917 00b4 B4000000 		.4byte	.LFE21
 3918 00b8 00000000 		.4byte	.LFB22
 3919 00bc 18000000 		.4byte	.LFE22
 3920 00c0 00000000 		.4byte	.LFB23
 3921 00c4 B8000000 		.4byte	.LFE23
 3922 00c8 00000000 		.4byte	.LFB24
 3923 00cc 48000000 		.4byte	.LFE24
 3924 00d0 00000000 		.4byte	.LFB25
 3925 00d4 46000000 		.4byte	.LFE25
 3926 00d8 00000000 		.4byte	.LFB26
 3927 00dc 38000000 		.4byte	.LFE26
 3928 00e0 00000000 		.4byte	.LFB27
 3929 00e4 96000000 		.4byte	.LFE27
 3930 00e8 00000000 		.4byte	.LFB28
 3931 00ec 78000000 		.4byte	.LFE28
 3932 00f0 00000000 		.4byte	.LFB29
 3933 00f4 CC000000 		.4byte	.LFE29
 3934 00f8 00000000 		.4byte	.LFB30
 3935 00fc 14000000 		.4byte	.LFE30
 3936 0100 00000000 		.4byte	0x0
 3937 0104 00000000 		.4byte	0x0
 3938              		.section	.debug_str,"MS",%progbits,1
 3939              	.LASF10:
 3940 0000 75696E74 		.ascii	"uint16\000"
 3940      313600
 3941              	.LASF28:
 3942 0007 6C6F635F 		.ascii	"loc_rxBufferWrite\000"
 3942      72784275 
 3942      66666572 
 3942      57726974 
 3942      6500
 3943              	.LASF23:
 3944 0019 55415254 		.ascii	"UART_Bridge_SetRxInterruptMode\000"
 3944      5F427269 
 3944      6467655F 
 3944      53657452 
 3944      78496E74 
 3945              	.LASF48:
 3946 0038 74784461 		.ascii	"txDataByte\000"
 3946      74614279 
 3946      746500
 3947              	.LASF54:
 3948 0043 73747269 		.ascii	"string\000"
 3948      6E6700
 3949              	.LASF7:
 3950 004a 6C6F6E67 		.ascii	"long long unsigned int\000"
 3950      206C6F6E 
 3950      6720756E 
 3950      7369676E 
 3950      65642069 
 3951              	.LASF75:
 3952 0061 474E5520 		.ascii	"GNU C 4.4.1\000"
 3952      4320342E 
 3952      342E3100 
ARM GAS  C:\DOCUME~1\ADMINI~1\LOCALS~1\Temp\ccTmPqfn.s 			page 102


 3953              	.LASF21:
 3954 006d 55415254 		.ascii	"UART_Bridge_EnableRxInt\000"
 3954      5F427269 
 3954      6467655F 
 3954      456E6162 
 3954      6C655278 
 3955              	.LASF6:
 3956 0085 6C6F6E67 		.ascii	"long long int\000"
 3956      206C6F6E 
 3956      6720696E 
 3956      7400
 3957              	.LASF0:
 3958 0093 7369676E 		.ascii	"signed char\000"
 3958      65642063 
 3958      68617200 
 3959              	.LASF35:
 3960 009f 55415254 		.ascii	"UART_Bridge_GetByte\000"
 3960      5F427269 
 3960      6467655F 
 3960      47657442 
 3960      79746500 
 3961              	.LASF4:
 3962 00b3 6C6F6E67 		.ascii	"long int\000"
 3962      20696E74 
 3962      00
 3963              	.LASF9:
 3964 00bc 75696E74 		.ascii	"uint8\000"
 3964      3800
 3965              	.LASF68:
 3966 00c2 55415254 		.ascii	"UART_Bridge_txBufferRead\000"
 3966      5F427269 
 3966      6467655F 
 3966      74784275 
 3966      66666572 
 3967              	.LASF12:
 3968 00db 646F7562 		.ascii	"double\000"
 3968      6C6500
 3969              	.LASF40:
 3970 00e2 61646472 		.ascii	"addressMode\000"
 3970      6573734D 
 3970      6F646500 
 3971              	.LASF29:
 3972 00ee 55415254 		.ascii	"UART_Bridge_ReadRxData\000"
 3972      5F427269 
 3972      6467655F 
 3972      52656164 
 3972      52784461 
 3973              	.LASF16:
 3974 0105 55415254 		.ascii	"UART_Bridge_Init\000"
 3974      5F427269 
 3974      6467655F 
 3974      496E6974 
 3974      00
 3975              	.LASF24:
 3976 0116 636F6E74 		.ascii	"control\000"
 3976      726F6C00 
 3977              	.LASF72:
ARM GAS  C:\DOCUME~1\ADMINI~1\LOCALS~1\Temp\ccTmPqfn.s 			page 103


 3978 011e 55415254 		.ascii	"UART_Bridge_rxBufferWrite\000"
 3978      5F427269 
 3978      6467655F 
 3978      72784275 
 3978      66666572 
 3979              	.LASF73:
 3980 0138 55415254 		.ascii	"UART_Bridge_rxBufferLoopDetect\000"
 3980      5F427269 
 3980      6467655F 
 3980      72784275 
 3980      66666572 
 3981              	.LASF22:
 3982 0157 55415254 		.ascii	"UART_Bridge_DisableRxInt\000"
 3982      5F427269 
 3982      6467655F 
 3982      44697361 
 3982      626C6552 
 3983              	.LASF46:
 3984 0170 55415254 		.ascii	"UART_Bridge_SetTxInterruptMode\000"
 3984      5F427269 
 3984      6467655F 
 3984      53657454 
 3984      78496E74 
 3985              	.LASF62:
 3986 018f 7265744D 		.ascii	"retMode\000"
 3986      6F646500 
 3987              	.LASF8:
 3988 0197 756E7369 		.ascii	"unsigned int\000"
 3988      676E6564 
 3988      20696E74 
 3988      00
 3989              	.LASF5:
 3990 01a4 6C6F6E67 		.ascii	"long unsigned int\000"
 3990      20756E73 
 3990      69676E65 
 3990      6420696E 
 3990      7400
 3991              	.LASF60:
 3992 01b6 55415254 		.ascii	"UART_Bridge_ClearTxBuffer\000"
 3992      5F427269 
 3992      6467655F 
 3992      436C6561 
 3992      72547842 
 3993              	.LASF52:
 3994 01d0 6C6F635F 		.ascii	"loc_txBufferRead\000"
 3994      74784275 
 3994      66666572 
 3994      52656164 
 3994      00
 3995              	.LASF44:
 3996 01e1 55415254 		.ascii	"UART_Bridge_EnableTxInt\000"
 3996      5F427269 
 3996      6467655F 
 3996      456E6162 
 3996      6C655478 
 3997              	.LASF76:
 3998 01f9 2E5C4765 		.ascii	".\\Generated_Source\\PSoC5\\UART_Bridge.c\000"
ARM GAS  C:\DOCUME~1\ADMINI~1\LOCALS~1\Temp\ccTmPqfn.s 			page 104


 3998      6E657261 
 3998      7465645F 
 3998      536F7572 
 3998      63655C50 
 3999              	.LASF67:
 4000 0220 55415254 		.ascii	"UART_Bridge_txBuffer\000"
 4000      5F427269 
 4000      6467655F 
 4000      74784275 
 4000      66666572 
 4001              	.LASF37:
 4002 0235 73697A65 		.ascii	"size\000"
 4002      00
 4003              	.LASF3:
 4004 023a 73686F72 		.ascii	"short unsigned int\000"
 4004      7420756E 
 4004      7369676E 
 4004      65642069 
 4004      6E7400
 4005              	.LASF66:
 4006 024d 55415254 		.ascii	"UART_Bridge_initVar\000"
 4006      5F427269 
 4006      6467655F 
 4006      696E6974 
 4006      56617200 
 4007              	.LASF61:
 4008 0261 55415254 		.ascii	"UART_Bridge_SendBreak\000"
 4008      5F427269 
 4008      6467655F 
 4008      53656E64 
 4008      42726561 
 4009              	.LASF27:
 4010 0277 6C6F635F 		.ascii	"loc_rxBufferRead\000"
 4010      72784275 
 4010      66666572 
 4010      52656164 
 4010      00
 4011              	.LASF74:
 4012 0288 55415254 		.ascii	"UART_Bridge_rxBufferOverflow\000"
 4012      5F427269 
 4012      6467655F 
 4012      72784275 
 4012      66666572 
 4013              	.LASF64:
 4014 02a5 74785F70 		.ascii	"tx_period\000"
 4014      6572696F 
 4014      6400
 4015              	.LASF25:
 4016 02af 696E7453 		.ascii	"intSrc\000"
 4016      726300
 4017              	.LASF56:
 4018 02b6 55415254 		.ascii	"UART_Bridge_PutArray\000"
 4018      5F427269 
 4018      6467655F 
 4018      50757441 
 4018      72726179 
 4019              	.LASF63:
ARM GAS  C:\DOCUME~1\ADMINI~1\LOCALS~1\Temp\ccTmPqfn.s 			page 105


 4020 02cb 746D7053 		.ascii	"tmpStat\000"
 4020      74617400 
 4021              	.LASF53:
 4022 02d3 55415254 		.ascii	"UART_Bridge_PutString\000"
 4022      5F427269 
 4022      6467655F 
 4022      50757453 
 4022      7472696E 
 4023              	.LASF51:
 4024 02e9 6C6F635F 		.ascii	"loc_txBufferWrite\000"
 4024      74784275 
 4024      66666572 
 4024      57726974 
 4024      6500
 4025              	.LASF42:
 4026 02fb 61646472 		.ascii	"address\000"
 4026      65737300 
 4027              	.LASF49:
 4028 0303 55415254 		.ascii	"UART_Bridge_ReadTxStatus\000"
 4028      5F427269 
 4028      6467655F 
 4028      52656164 
 4028      54785374 
 4029              	.LASF45:
 4030 031c 55415254 		.ascii	"UART_Bridge_DisableTxInt\000"
 4030      5F427269 
 4030      6467655F 
 4030      44697361 
 4030      626C6554 
 4031              	.LASF20:
 4032 0335 55415254 		.ascii	"UART_Bridge_WriteControlRegister\000"
 4032      5F427269 
 4032      6467655F 
 4032      57726974 
 4032      65436F6E 
 4033              	.LASF41:
 4034 0356 55415254 		.ascii	"UART_Bridge_SetRxAddress1\000"
 4034      5F427269 
 4034      6467655F 
 4034      53657452 
 4034      78416464 
 4035              	.LASF43:
 4036 0370 55415254 		.ascii	"UART_Bridge_SetRxAddress2\000"
 4036      5F427269 
 4036      6467655F 
 4036      53657452 
 4036      78416464 
 4037              	.LASF30:
 4038 038a 55415254 		.ascii	"UART_Bridge_ReadRxStatus\000"
 4038      5F427269 
 4038      6467655F 
 4038      52656164 
 4038      52785374 
 4039              	.LASF59:
 4040 03a3 55415254 		.ascii	"UART_Bridge_GetTxBufferSize\000"
 4040      5F427269 
 4040      6467655F 
ARM GAS  C:\DOCUME~1\ADMINI~1\LOCALS~1\Temp\ccTmPqfn.s 			page 106


 4040      47657454 
 4040      78427566 
 4041              	.LASF11:
 4042 03bf 666C6F61 		.ascii	"float\000"
 4042      7400
 4043              	.LASF32:
 4044 03c5 55415254 		.ascii	"UART_Bridge_GetChar\000"
 4044      5F427269 
 4044      6467655F 
 4044      47657443 
 4044      68617200 
 4045              	.LASF1:
 4046 03d9 756E7369 		.ascii	"unsigned char\000"
 4046      676E6564 
 4046      20636861 
 4046      7200
 4047              	.LASF2:
 4048 03e7 73686F72 		.ascii	"short int\000"
 4048      7420696E 
 4048      7400
 4049              	.LASF57:
 4050 03f1 62797465 		.ascii	"byteCount\000"
 4050      436F756E 
 4050      7400
 4051              	.LASF65:
 4052 03fb 55415254 		.ascii	"UART_Bridge_SetTxAddressMode\000"
 4052      5F427269 
 4052      6467655F 
 4052      53657454 
 4052      78416464 
 4053              	.LASF26:
 4054 0418 72784461 		.ascii	"rxData\000"
 4054      746100
 4055              	.LASF50:
 4056 041f 55415254 		.ascii	"UART_Bridge_PutChar\000"
 4056      5F427269 
 4056      6467655F 
 4056      50757443 
 4056      68617200 
 4057              	.LASF14:
 4058 0433 63686172 		.ascii	"char\000"
 4058      00
 4059              	.LASF69:
 4060 0438 55415254 		.ascii	"UART_Bridge_txBufferWrite\000"
 4060      5F427269 
 4060      6467655F 
 4060      74784275 
 4060      66666572 
 4061              	.LASF77:
 4062 0452 5C5C7073 		.ascii	"\\\\psf\\Home\\Desktop\\USB-Audio-PSOC5LP\\Firmware"
 4062      665C486F 
 4062      6D655C44 
 4062      65736B74 
 4062      6F705C55 
 4063 047f 5C4B6974 		.ascii	"\\KitProg version 2_03\\KitProg\\KitProg.cydsn\000"
 4063      50726F67 
 4063      20766572 
ARM GAS  C:\DOCUME~1\ADMINI~1\LOCALS~1\Temp\ccTmPqfn.s 			page 107


 4063      73696F6E 
 4063      20325F30 
 4064              	.LASF13:
 4065 04ab 63686172 		.ascii	"char8\000"
 4065      3800
 4066              	.LASF71:
 4067 04b1 55415254 		.ascii	"UART_Bridge_rxBufferRead\000"
 4067      5F427269 
 4067      6467655F 
 4067      72784275 
 4067      66666572 
 4068              	.LASF36:
 4069 04ca 55415254 		.ascii	"UART_Bridge_GetRxBufferSize\000"
 4069      5F427269 
 4069      6467655F 
 4069      47657452 
 4069      78427566 
 4070              	.LASF18:
 4071 04e6 55415254 		.ascii	"UART_Bridge_Stop\000"
 4071      5F427269 
 4071      6467655F 
 4071      53746F70 
 4071      00
 4072              	.LASF58:
 4073 04f7 55415254 		.ascii	"UART_Bridge_PutCRLF\000"
 4073      5F427269 
 4073      6467655F 
 4073      50757443 
 4073      524C4600 
 4074              	.LASF17:
 4075 050b 55415254 		.ascii	"UART_Bridge_Enable\000"
 4075      5F427269 
 4075      6467655F 
 4075      456E6162 
 4075      6C6500
 4076              	.LASF19:
 4077 051e 656E6162 		.ascii	"enableInterrupts\000"
 4077      6C65496E 
 4077      74657272 
 4077      75707473 
 4077      00
 4078              	.LASF31:
 4079 052f 73746174 		.ascii	"status\000"
 4079      757300
 4080              	.LASF34:
 4081 0536 55415254 		.ascii	"UART_Bridge_ReadControlRegister\000"
 4081      5F427269 
 4081      6467655F 
 4081      52656164 
 4081      436F6E74 
 4082              	.LASF47:
 4083 0556 55415254 		.ascii	"UART_Bridge_WriteTxData\000"
 4083      5F427269 
 4083      6467655F 
 4083      57726974 
 4083      65547844 
 4084              	.LASF33:
ARM GAS  C:\DOCUME~1\ADMINI~1\LOCALS~1\Temp\ccTmPqfn.s 			page 108


 4085 056e 72785374 		.ascii	"rxStatus\000"
 4085      61747573 
 4085      00
 4086              	.LASF15:
 4087 0577 55415254 		.ascii	"UART_Bridge_Start\000"
 4087      5F427269 
 4087      6467655F 
 4087      53746172 
 4087      7400
 4088              	.LASF39:
 4089 0589 55415254 		.ascii	"UART_Bridge_SetRxAddressMode\000"
 4089      5F427269 
 4089      6467655F 
 4089      53657452 
 4089      78416464 
 4090              	.LASF38:
 4091 05a6 55415254 		.ascii	"UART_Bridge_ClearRxBuffer\000"
 4091      5F427269 
 4091      6467655F 
 4091      436C6561 
 4091      72527842 
 4092              	.LASF55:
 4093 05c0 6275665F 		.ascii	"buf_index\000"
 4093      696E6465 
 4093      7800
 4094              	.LASF70:
 4095 05ca 55415254 		.ascii	"UART_Bridge_rxBuffer\000"
 4095      5F427269 
 4095      6467655F 
 4095      72784275 
 4095      66666572 
 4096              		.ident	"GCC: (Sourcery G++ Lite 2010q1-188) 4.4.1"
