ARM GAS  C:\DOCUME~1\ADMINI~1\LOCALS~1\Temp\ccsjOqfn.s 			page 1


   1              		.syntax unified
   2              		.cpu cortex-m3
   3              		.fpu softvfp
   4              		.eabi_attribute 20, 1
   5              		.eabi_attribute 21, 1
   6              		.eabi_attribute 23, 3
   7              		.eabi_attribute 24, 1
   8              		.eabi_attribute 25, 1
   9              		.eabi_attribute 26, 1
  10              		.eabi_attribute 30, 6
  11              		.eabi_attribute 18, 4
  12              		.thumb
  13              		.file	"UART_Bridge_INT.c"
  20 0000 CE000000 		.text
  20      02007900 
  20      00000201 
  20      FB0E0D00 
  20      01010101 
  21              	.Ltext0:
  22              		.cfi_sections	.debug_frame
  23              		.section	.text.UART_Bridge_RXISR,"ax",%progbits
  24              		.align	2
  25              		.global	UART_Bridge_RXISR
  26              		.thumb
  27              		.thumb_func
  28              		.type	UART_Bridge_RXISR, %function
  29              	UART_Bridge_RXISR:
  30              	.LFB0:
  31              		.file 1 ".\\Generated_Source\\PSoC5\\UART_Bridge_INT.c"
   1:.\Generated_Source\PSoC5/UART_Bridge_INT.c **** /*******************************************************************************
   2:.\Generated_Source\PSoC5/UART_Bridge_INT.c **** * File Name: UART_Bridge_INT.c
   3:.\Generated_Source\PSoC5/UART_Bridge_INT.c **** * Version 2.30
   4:.\Generated_Source\PSoC5/UART_Bridge_INT.c **** *
   5:.\Generated_Source\PSoC5/UART_Bridge_INT.c **** * Description:
   6:.\Generated_Source\PSoC5/UART_Bridge_INT.c **** *  This file provides all Interrupt Service functionality of the UART component
   7:.\Generated_Source\PSoC5/UART_Bridge_INT.c **** *
   8:.\Generated_Source\PSoC5/UART_Bridge_INT.c **** * Note:
   9:.\Generated_Source\PSoC5/UART_Bridge_INT.c **** *  Any unusual or non-standard behavior should be noted here. Other-
  10:.\Generated_Source\PSoC5/UART_Bridge_INT.c **** *  wise, this section should remain blank.
  11:.\Generated_Source\PSoC5/UART_Bridge_INT.c **** *
  12:.\Generated_Source\PSoC5/UART_Bridge_INT.c **** ********************************************************************************
  13:.\Generated_Source\PSoC5/UART_Bridge_INT.c **** * Copyright 2008-2012, Cypress Semiconductor Corporation.  All rights reserved.
  14:.\Generated_Source\PSoC5/UART_Bridge_INT.c **** * You may use this file only in accordance with the license, terms, conditions,
  15:.\Generated_Source\PSoC5/UART_Bridge_INT.c **** * disclaimers, and limitations in the end user license agreement accompanying
  16:.\Generated_Source\PSoC5/UART_Bridge_INT.c **** * the software package with which this file was provided.
  17:.\Generated_Source\PSoC5/UART_Bridge_INT.c **** *******************************************************************************/
  18:.\Generated_Source\PSoC5/UART_Bridge_INT.c **** 
  19:.\Generated_Source\PSoC5/UART_Bridge_INT.c **** #include "UART_Bridge.h"
  20:.\Generated_Source\PSoC5/UART_Bridge_INT.c **** #include "CyLib.h"
  21:.\Generated_Source\PSoC5/UART_Bridge_INT.c **** 
  22:.\Generated_Source\PSoC5/UART_Bridge_INT.c **** 
ARM GAS  C:\DOCUME~1\ADMINI~1\LOCALS~1\Temp\ccsjOqfn.s 			page 2


  23:.\Generated_Source\PSoC5/UART_Bridge_INT.c **** /***************************************
  24:.\Generated_Source\PSoC5/UART_Bridge_INT.c **** * Custom Declratations
  25:.\Generated_Source\PSoC5/UART_Bridge_INT.c **** ***************************************/
  26:.\Generated_Source\PSoC5/UART_Bridge_INT.c **** /* `#START CUSTOM_DECLARATIONS` Place your declaration here */
  27:.\Generated_Source\PSoC5/UART_Bridge_INT.c **** 
  28:.\Generated_Source\PSoC5/UART_Bridge_INT.c **** /* `#END` */
  29:.\Generated_Source\PSoC5/UART_Bridge_INT.c **** 
  30:.\Generated_Source\PSoC5/UART_Bridge_INT.c **** #if( (UART_Bridge_RX_ENABLED || UART_Bridge_HD_ENABLED) && \
  31:.\Generated_Source\PSoC5/UART_Bridge_INT.c ****      (UART_Bridge_RXBUFFERSIZE > UART_Bridge_FIFO_LENGTH))
  32:.\Generated_Source\PSoC5/UART_Bridge_INT.c **** 
  33:.\Generated_Source\PSoC5/UART_Bridge_INT.c **** 
  34:.\Generated_Source\PSoC5/UART_Bridge_INT.c ****     /*******************************************************************************
  35:.\Generated_Source\PSoC5/UART_Bridge_INT.c ****     * Function Name: UART_Bridge_RXISR
  36:.\Generated_Source\PSoC5/UART_Bridge_INT.c ****     ********************************************************************************
  37:.\Generated_Source\PSoC5/UART_Bridge_INT.c ****     *
  38:.\Generated_Source\PSoC5/UART_Bridge_INT.c ****     * Summary:
  39:.\Generated_Source\PSoC5/UART_Bridge_INT.c ****     *  Interrupt Service Routine for RX portion of the UART
  40:.\Generated_Source\PSoC5/UART_Bridge_INT.c ****     *
  41:.\Generated_Source\PSoC5/UART_Bridge_INT.c ****     * Parameters:
  42:.\Generated_Source\PSoC5/UART_Bridge_INT.c ****     *  None.
  43:.\Generated_Source\PSoC5/UART_Bridge_INT.c ****     *
  44:.\Generated_Source\PSoC5/UART_Bridge_INT.c ****     * Return:
  45:.\Generated_Source\PSoC5/UART_Bridge_INT.c ****     *  None.
  46:.\Generated_Source\PSoC5/UART_Bridge_INT.c ****     *
  47:.\Generated_Source\PSoC5/UART_Bridge_INT.c ****     * Global Variables:
  48:.\Generated_Source\PSoC5/UART_Bridge_INT.c ****     *  UART_Bridge_rxBuffer - RAM buffer pointer for save received data.
  49:.\Generated_Source\PSoC5/UART_Bridge_INT.c ****     *  UART_Bridge_rxBufferWrite - cyclic index for write to rxBuffer,
  50:.\Generated_Source\PSoC5/UART_Bridge_INT.c ****     *     increments after each byte saved to buffer.
  51:.\Generated_Source\PSoC5/UART_Bridge_INT.c ****     *  UART_Bridge_rxBufferRead - cyclic index for read from rxBuffer,
  52:.\Generated_Source\PSoC5/UART_Bridge_INT.c ****     *     checked to detect overflow condition.
  53:.\Generated_Source\PSoC5/UART_Bridge_INT.c ****     *  UART_Bridge_rxBufferOverflow - software overflow flag. Set to one
  54:.\Generated_Source\PSoC5/UART_Bridge_INT.c ****     *     when UART_Bridge_rxBufferWrite index overtakes
  55:.\Generated_Source\PSoC5/UART_Bridge_INT.c ****     *     UART_Bridge_rxBufferRead index.
  56:.\Generated_Source\PSoC5/UART_Bridge_INT.c ****     *  UART_Bridge_rxBufferLoopDetect - additional variable to detect overflow.
  57:.\Generated_Source\PSoC5/UART_Bridge_INT.c ****     *     Set to one when UART_Bridge_rxBufferWrite is equal to
  58:.\Generated_Source\PSoC5/UART_Bridge_INT.c ****     *    UART_Bridge_rxBufferRead
  59:.\Generated_Source\PSoC5/UART_Bridge_INT.c ****     *  UART_Bridge_rxAddressMode - this variable contains the Address mode,
  60:.\Generated_Source\PSoC5/UART_Bridge_INT.c ****     *     selected in customizer or set by UART_SetRxAddressMode() API.
  61:.\Generated_Source\PSoC5/UART_Bridge_INT.c ****     *  UART_Bridge_rxAddressDetected - set to 1 when correct address received,
  62:.\Generated_Source\PSoC5/UART_Bridge_INT.c ****     *     and analysed to store following addressed data bytes to the buffer.
  63:.\Generated_Source\PSoC5/UART_Bridge_INT.c ****     *     When not correct address received, set to 0 to skip following data bytes.
  64:.\Generated_Source\PSoC5/UART_Bridge_INT.c ****     *
  65:.\Generated_Source\PSoC5/UART_Bridge_INT.c ****     *******************************************************************************/
  66:.\Generated_Source\PSoC5/UART_Bridge_INT.c ****     CY_ISR(UART_Bridge_RXISR)
  67:.\Generated_Source\PSoC5/UART_Bridge_INT.c ****     {
  32              		.loc 1 67 0
  33              		.cfi_startproc
  34              		@ args = 0, pretend = 0, frame = 8
  35              		@ frame_needed = 1, uses_anonymous_args = 0
  36              		@ link register save eliminated.
  37 0000 80B4     		push	{r7}
  38              	.LCFI0:
  39              		.cfi_def_cfa_offset 4
  40 0002 83B0     		sub	sp, sp, #12
  41              	.LCFI1:
  42              		.cfi_def_cfa_offset 16
  43 0004 00AF     		add	r7, sp, #0
ARM GAS  C:\DOCUME~1\ADMINI~1\LOCALS~1\Temp\ccsjOqfn.s 			page 3


  44              		.cfi_offset 7, -4
  45              	.LCFI2:
  46              		.cfi_def_cfa_register 7
  68:.\Generated_Source\PSoC5/UART_Bridge_INT.c ****         uint8 readData;
  69:.\Generated_Source\PSoC5/UART_Bridge_INT.c ****         uint8 increment_pointer = 0u;
  47              		.loc 1 69 0
  48 0006 4FF00003 		mov	r3, #0
  49 000a FB71     		strb	r3, [r7, #7]
  70:.\Generated_Source\PSoC5/UART_Bridge_INT.c ****         #if(CY_PSOC3)
  71:.\Generated_Source\PSoC5/UART_Bridge_INT.c ****             uint8 int_en;
  72:.\Generated_Source\PSoC5/UART_Bridge_INT.c ****         #endif /* CY_PSOC3 */
  73:.\Generated_Source\PSoC5/UART_Bridge_INT.c **** 
  74:.\Generated_Source\PSoC5/UART_Bridge_INT.c ****         /* User code required at start of ISR */
  75:.\Generated_Source\PSoC5/UART_Bridge_INT.c ****         /* `#START UART_Bridge_RXISR_START` */
  76:.\Generated_Source\PSoC5/UART_Bridge_INT.c **** 
  77:.\Generated_Source\PSoC5/UART_Bridge_INT.c ****         /* `#END` */
  78:.\Generated_Source\PSoC5/UART_Bridge_INT.c **** 
  79:.\Generated_Source\PSoC5/UART_Bridge_INT.c ****         #if(CY_PSOC3)   /* Make sure nested interrupt is enabled */
  80:.\Generated_Source\PSoC5/UART_Bridge_INT.c ****             int_en = EA;
  81:.\Generated_Source\PSoC5/UART_Bridge_INT.c ****             CyGlobalIntEnable;
  82:.\Generated_Source\PSoC5/UART_Bridge_INT.c ****         #endif /* CY_PSOC3 */
  83:.\Generated_Source\PSoC5/UART_Bridge_INT.c **** 
  84:.\Generated_Source\PSoC5/UART_Bridge_INT.c ****         readData = UART_Bridge_RXSTATUS_REG;
  50              		.loc 1 84 0
  51 000c 46F26543 		movw	r3, #:lower16:1073767525
  52 0010 C4F20003 		movt	r3, #:upper16:1073767525
  53 0014 1B78     		ldrb	r3, [r3, #0]
  54 0016 BB71     		strb	r3, [r7, #6]
  85:.\Generated_Source\PSoC5/UART_Bridge_INT.c **** 
  86:.\Generated_Source\PSoC5/UART_Bridge_INT.c ****         if((readData & (UART_Bridge_RX_STS_BREAK | UART_Bridge_RX_STS_PAR_ERROR |
  87:.\Generated_Source\PSoC5/UART_Bridge_INT.c ****                         UART_Bridge_RX_STS_STOP_ERROR | UART_Bridge_RX_STS_OVERRUN)) != 0u)
  88:.\Generated_Source\PSoC5/UART_Bridge_INT.c ****         {
  89:.\Generated_Source\PSoC5/UART_Bridge_INT.c ****             /* ERROR handling. */
  90:.\Generated_Source\PSoC5/UART_Bridge_INT.c ****             /* `#START UART_Bridge_RXISR_ERROR` */
  91:.\Generated_Source\PSoC5/UART_Bridge_INT.c **** 
  92:.\Generated_Source\PSoC5/UART_Bridge_INT.c ****             /* `#END` */
  93:.\Generated_Source\PSoC5/UART_Bridge_INT.c ****         }
  94:.\Generated_Source\PSoC5/UART_Bridge_INT.c **** 
  95:.\Generated_Source\PSoC5/UART_Bridge_INT.c ****         while((readData & UART_Bridge_RX_STS_FIFO_NOTEMPTY) != 0u)
  55              		.loc 1 95 0
  56 0018 5FE0     		b	.L2
  57              	.L6:
  96:.\Generated_Source\PSoC5/UART_Bridge_INT.c ****         {
  97:.\Generated_Source\PSoC5/UART_Bridge_INT.c **** 
  98:.\Generated_Source\PSoC5/UART_Bridge_INT.c ****             #if (UART_Bridge_RXHW_ADDRESS_ENABLED)
  99:.\Generated_Source\PSoC5/UART_Bridge_INT.c ****                 if(UART_Bridge_rxAddressMode == (uint8)UART_Bridge__B_UART__AM_SW_DETECT_TO_BUFFER)
 100:.\Generated_Source\PSoC5/UART_Bridge_INT.c ****                 {
 101:.\Generated_Source\PSoC5/UART_Bridge_INT.c ****                     if((readData & UART_Bridge_RX_STS_MRKSPC) != 0u)
 102:.\Generated_Source\PSoC5/UART_Bridge_INT.c ****                     {
 103:.\Generated_Source\PSoC5/UART_Bridge_INT.c ****                         if ((readData & UART_Bridge_RX_STS_ADDR_MATCH) != 0u)
 104:.\Generated_Source\PSoC5/UART_Bridge_INT.c ****                         {
 105:.\Generated_Source\PSoC5/UART_Bridge_INT.c ****                             UART_Bridge_rxAddressDetected = 1u;
 106:.\Generated_Source\PSoC5/UART_Bridge_INT.c ****                         }
 107:.\Generated_Source\PSoC5/UART_Bridge_INT.c ****                         else
 108:.\Generated_Source\PSoC5/UART_Bridge_INT.c ****                         {
 109:.\Generated_Source\PSoC5/UART_Bridge_INT.c ****                             UART_Bridge_rxAddressDetected = 0u;
 110:.\Generated_Source\PSoC5/UART_Bridge_INT.c ****                         }
ARM GAS  C:\DOCUME~1\ADMINI~1\LOCALS~1\Temp\ccsjOqfn.s 			page 4


 111:.\Generated_Source\PSoC5/UART_Bridge_INT.c ****                     }
 112:.\Generated_Source\PSoC5/UART_Bridge_INT.c **** 
 113:.\Generated_Source\PSoC5/UART_Bridge_INT.c ****                     readData = UART_Bridge_RXDATA_REG;
 114:.\Generated_Source\PSoC5/UART_Bridge_INT.c ****                     if(UART_Bridge_rxAddressDetected != 0u)
 115:.\Generated_Source\PSoC5/UART_Bridge_INT.c ****                     {   /* store only addressed data */
 116:.\Generated_Source\PSoC5/UART_Bridge_INT.c ****                         UART_Bridge_rxBuffer[UART_Bridge_rxBufferWrite] = readData;
 117:.\Generated_Source\PSoC5/UART_Bridge_INT.c ****                         increment_pointer = 1u;
 118:.\Generated_Source\PSoC5/UART_Bridge_INT.c ****                     }
 119:.\Generated_Source\PSoC5/UART_Bridge_INT.c ****                 }
 120:.\Generated_Source\PSoC5/UART_Bridge_INT.c ****                 else /* without software addressing */
 121:.\Generated_Source\PSoC5/UART_Bridge_INT.c ****                 {
 122:.\Generated_Source\PSoC5/UART_Bridge_INT.c ****                     UART_Bridge_rxBuffer[UART_Bridge_rxBufferWrite] = UART_Bridge_RXDATA_REG;
 123:.\Generated_Source\PSoC5/UART_Bridge_INT.c ****                     increment_pointer = 1u;
 124:.\Generated_Source\PSoC5/UART_Bridge_INT.c ****                 }
 125:.\Generated_Source\PSoC5/UART_Bridge_INT.c ****             #else  /* without addressing */
 126:.\Generated_Source\PSoC5/UART_Bridge_INT.c ****                 UART_Bridge_rxBuffer[UART_Bridge_rxBufferWrite] = UART_Bridge_RXDATA_REG;
  58              		.loc 1 126 0
  59 001a 40F20003 		movw	r3, #:lower16:UART_Bridge_rxBufferWrite
  60 001e C0F20003 		movt	r3, #:upper16:UART_Bridge_rxBufferWrite
  61 0022 1B78     		ldrb	r3, [r3, #0]
  62 0024 DBB2     		uxtb	r3, r3
  63 0026 1A46     		mov	r2, r3
  64 0028 46F24643 		movw	r3, #:lower16:1073767494
  65 002c C4F20003 		movt	r3, #:upper16:1073767494
  66 0030 1B78     		ldrb	r3, [r3, #0]
  67 0032 D9B2     		uxtb	r1, r3
  68 0034 40F20003 		movw	r3, #:lower16:UART_Bridge_rxBuffer
  69 0038 C0F20003 		movt	r3, #:upper16:UART_Bridge_rxBuffer
  70 003c 9954     		strb	r1, [r3, r2]
 127:.\Generated_Source\PSoC5/UART_Bridge_INT.c ****                 increment_pointer = 1u;
  71              		.loc 1 127 0
  72 003e 4FF00103 		mov	r3, #1
  73 0042 FB71     		strb	r3, [r7, #7]
 128:.\Generated_Source\PSoC5/UART_Bridge_INT.c ****             #endif /* End SW_DETECT_TO_BUFFER */
 129:.\Generated_Source\PSoC5/UART_Bridge_INT.c **** 
 130:.\Generated_Source\PSoC5/UART_Bridge_INT.c ****             /* do not increment buffer pointer when skip not adderessed data */
 131:.\Generated_Source\PSoC5/UART_Bridge_INT.c ****             if( increment_pointer != 0u )
  74              		.loc 1 131 0
  75 0044 FB79     		ldrb	r3, [r7, #7]	@ zero_extendqisi2
  76 0046 002B     		cmp	r3, #0
  77 0048 41D0     		beq	.L3
 132:.\Generated_Source\PSoC5/UART_Bridge_INT.c ****             {
 133:.\Generated_Source\PSoC5/UART_Bridge_INT.c ****                 if(UART_Bridge_rxBufferLoopDetect != 0u)
  78              		.loc 1 133 0
  79 004a 40F20003 		movw	r3, #:lower16:UART_Bridge_rxBufferLoopDetect
  80 004e C0F20003 		movt	r3, #:upper16:UART_Bridge_rxBufferLoopDetect
  81 0052 1B78     		ldrb	r3, [r3, #0]
  82 0054 DBB2     		uxtb	r3, r3
  83 0056 002B     		cmp	r3, #0
  84 0058 06D0     		beq	.L4
 134:.\Generated_Source\PSoC5/UART_Bridge_INT.c ****                 {   /* Set Software Buffer status Overflow */
 135:.\Generated_Source\PSoC5/UART_Bridge_INT.c ****                     UART_Bridge_rxBufferOverflow = 1u;
  85              		.loc 1 135 0
  86 005a 40F20003 		movw	r3, #:lower16:UART_Bridge_rxBufferOverflow
  87 005e C0F20003 		movt	r3, #:upper16:UART_Bridge_rxBufferOverflow
  88 0062 4FF00102 		mov	r2, #1
  89 0066 1A70     		strb	r2, [r3, #0]
ARM GAS  C:\DOCUME~1\ADMINI~1\LOCALS~1\Temp\ccsjOqfn.s 			page 5


  90              	.L4:
 136:.\Generated_Source\PSoC5/UART_Bridge_INT.c ****                 }
 137:.\Generated_Source\PSoC5/UART_Bridge_INT.c ****                 /* Set next pointer. */
 138:.\Generated_Source\PSoC5/UART_Bridge_INT.c ****                 UART_Bridge_rxBufferWrite++;
  91              		.loc 1 138 0
  92 0068 40F20003 		movw	r3, #:lower16:UART_Bridge_rxBufferWrite
  93 006c C0F20003 		movt	r3, #:upper16:UART_Bridge_rxBufferWrite
  94 0070 1B78     		ldrb	r3, [r3, #0]
  95 0072 DBB2     		uxtb	r3, r3
  96 0074 03F10103 		add	r3, r3, #1
  97 0078 DAB2     		uxtb	r2, r3
  98 007a 40F20003 		movw	r3, #:lower16:UART_Bridge_rxBufferWrite
  99 007e C0F20003 		movt	r3, #:upper16:UART_Bridge_rxBufferWrite
 100 0082 1A70     		strb	r2, [r3, #0]
 139:.\Generated_Source\PSoC5/UART_Bridge_INT.c **** 
 140:.\Generated_Source\PSoC5/UART_Bridge_INT.c ****                 /* Check pointer for a loop condition */
 141:.\Generated_Source\PSoC5/UART_Bridge_INT.c ****                 if(UART_Bridge_rxBufferWrite >= UART_Bridge_RXBUFFERSIZE)
 101              		.loc 1 141 0
 102 0084 40F20003 		movw	r3, #:lower16:UART_Bridge_rxBufferWrite
 103 0088 C0F20003 		movt	r3, #:upper16:UART_Bridge_rxBufferWrite
 104 008c 1B78     		ldrb	r3, [r3, #0]
 105 008e DBB2     		uxtb	r3, r3
 106 0090 5BB2     		sxtb	r3, r3
 107 0092 002B     		cmp	r3, #0
 108 0094 06DA     		bge	.L5
 142:.\Generated_Source\PSoC5/UART_Bridge_INT.c ****                 {
 143:.\Generated_Source\PSoC5/UART_Bridge_INT.c ****                     UART_Bridge_rxBufferWrite = 0u;
 109              		.loc 1 143 0
 110 0096 40F20003 		movw	r3, #:lower16:UART_Bridge_rxBufferWrite
 111 009a C0F20003 		movt	r3, #:upper16:UART_Bridge_rxBufferWrite
 112 009e 4FF00002 		mov	r2, #0
 113 00a2 1A70     		strb	r2, [r3, #0]
 114              	.L5:
 144:.\Generated_Source\PSoC5/UART_Bridge_INT.c ****                 }
 145:.\Generated_Source\PSoC5/UART_Bridge_INT.c ****                 /* Detect pre-overload condition and set flag */
 146:.\Generated_Source\PSoC5/UART_Bridge_INT.c ****                 if(UART_Bridge_rxBufferWrite == UART_Bridge_rxBufferRead)
 115              		.loc 1 146 0
 116 00a4 40F20003 		movw	r3, #:lower16:UART_Bridge_rxBufferWrite
 117 00a8 C0F20003 		movt	r3, #:upper16:UART_Bridge_rxBufferWrite
 118 00ac 1B78     		ldrb	r3, [r3, #0]
 119 00ae DAB2     		uxtb	r2, r3
 120 00b0 40F20003 		movw	r3, #:lower16:UART_Bridge_rxBufferRead
 121 00b4 C0F20003 		movt	r3, #:upper16:UART_Bridge_rxBufferRead
 122 00b8 1B78     		ldrb	r3, [r3, #0]
 123 00ba DBB2     		uxtb	r3, r3
 124 00bc 9A42     		cmp	r2, r3
 125 00be 06D1     		bne	.L3
 147:.\Generated_Source\PSoC5/UART_Bridge_INT.c ****                 {
 148:.\Generated_Source\PSoC5/UART_Bridge_INT.c ****                     UART_Bridge_rxBufferLoopDetect = 1u;
 126              		.loc 1 148 0
 127 00c0 40F20003 		movw	r3, #:lower16:UART_Bridge_rxBufferLoopDetect
 128 00c4 C0F20003 		movt	r3, #:upper16:UART_Bridge_rxBufferLoopDetect
 129 00c8 4FF00102 		mov	r2, #1
 130 00cc 1A70     		strb	r2, [r3, #0]
 131              	.L3:
 149:.\Generated_Source\PSoC5/UART_Bridge_INT.c ****                     /* When Hardware Flow Control selected */
 150:.\Generated_Source\PSoC5/UART_Bridge_INT.c ****                     #if(UART_Bridge_FLOW_CONTROL != 0u)
ARM GAS  C:\DOCUME~1\ADMINI~1\LOCALS~1\Temp\ccsjOqfn.s 			page 6


 151:.\Generated_Source\PSoC5/UART_Bridge_INT.c ****                     /* Disable RX interrupt mask, it will be enabled when user read data from the b
 152:.\Generated_Source\PSoC5/UART_Bridge_INT.c ****                         UART_Bridge_RXSTATUS_MASK_REG  &= (uint8)~UART_Bridge_RX_STS_FIFO_NOTEMPTY;
 153:.\Generated_Source\PSoC5/UART_Bridge_INT.c ****                         CyIntClearPending(UART_Bridge_RX_VECT_NUM);
 154:.\Generated_Source\PSoC5/UART_Bridge_INT.c ****                         break; /* Break the reading of the FIFO loop, leave the data there for gene
 155:.\Generated_Source\PSoC5/UART_Bridge_INT.c ****                     #endif /* End UART_Bridge_FLOW_CONTROL != 0 */
 156:.\Generated_Source\PSoC5/UART_Bridge_INT.c ****                 }
 157:.\Generated_Source\PSoC5/UART_Bridge_INT.c ****             }
 158:.\Generated_Source\PSoC5/UART_Bridge_INT.c **** 
 159:.\Generated_Source\PSoC5/UART_Bridge_INT.c ****             /* Check again if there is data. */
 160:.\Generated_Source\PSoC5/UART_Bridge_INT.c ****             readData = UART_Bridge_RXSTATUS_REG;
 132              		.loc 1 160 0
 133 00ce 46F26543 		movw	r3, #:lower16:1073767525
 134 00d2 C4F20003 		movt	r3, #:upper16:1073767525
 135 00d6 1B78     		ldrb	r3, [r3, #0]
 136 00d8 BB71     		strb	r3, [r7, #6]
 137              	.L2:
 138              		.loc 1 95 0
 139 00da BB79     		ldrb	r3, [r7, #6]	@ zero_extendqisi2
 140 00dc 03F02003 		and	r3, r3, #32
 141 00e0 002B     		cmp	r3, #0
 142 00e2 9AD1     		bne	.L6
 161:.\Generated_Source\PSoC5/UART_Bridge_INT.c ****         }
 162:.\Generated_Source\PSoC5/UART_Bridge_INT.c **** 
 163:.\Generated_Source\PSoC5/UART_Bridge_INT.c ****         /* User code required at end of ISR (Optional) */
 164:.\Generated_Source\PSoC5/UART_Bridge_INT.c ****         /* `#START UART_Bridge_RXISR_END` */
 165:.\Generated_Source\PSoC5/UART_Bridge_INT.c **** 
 166:.\Generated_Source\PSoC5/UART_Bridge_INT.c ****         /* `#END` */
 167:.\Generated_Source\PSoC5/UART_Bridge_INT.c **** 
 168:.\Generated_Source\PSoC5/UART_Bridge_INT.c ****         #if(CY_PSOC3)
 169:.\Generated_Source\PSoC5/UART_Bridge_INT.c ****             EA = int_en;
 170:.\Generated_Source\PSoC5/UART_Bridge_INT.c ****         #endif /* CY_PSOC3 */
 171:.\Generated_Source\PSoC5/UART_Bridge_INT.c **** 
 172:.\Generated_Source\PSoC5/UART_Bridge_INT.c ****     }
 143              		.loc 1 172 0
 144 00e4 07F10C07 		add	r7, r7, #12
 145 00e8 BD46     		mov	sp, r7
 146 00ea 80BC     		pop	{r7}
 147 00ec 7047     		bx	lr
 148              		.cfi_endproc
 149              	.LFE0:
 150              		.size	UART_Bridge_RXISR, .-UART_Bridge_RXISR
 151 00ee 00BF     		.section	.text.UART_Bridge_TXISR,"ax",%progbits
 152              		.align	2
 153              		.global	UART_Bridge_TXISR
 154              		.thumb
 155              		.thumb_func
 156              		.type	UART_Bridge_TXISR, %function
 157              	UART_Bridge_TXISR:
 158              	.LFB1:
 173:.\Generated_Source\PSoC5/UART_Bridge_INT.c **** 
 174:.\Generated_Source\PSoC5/UART_Bridge_INT.c **** #endif /* End UART_Bridge_RX_ENABLED && (UART_Bridge_RXBUFFERSIZE > UART_Bridge_FIFO_LENGTH) */
 175:.\Generated_Source\PSoC5/UART_Bridge_INT.c **** 
 176:.\Generated_Source\PSoC5/UART_Bridge_INT.c **** 
 177:.\Generated_Source\PSoC5/UART_Bridge_INT.c **** #if(UART_Bridge_TX_ENABLED && (UART_Bridge_TXBUFFERSIZE > UART_Bridge_FIFO_LENGTH))
 178:.\Generated_Source\PSoC5/UART_Bridge_INT.c **** 
 179:.\Generated_Source\PSoC5/UART_Bridge_INT.c **** 
 180:.\Generated_Source\PSoC5/UART_Bridge_INT.c ****     /*******************************************************************************
ARM GAS  C:\DOCUME~1\ADMINI~1\LOCALS~1\Temp\ccsjOqfn.s 			page 7


 181:.\Generated_Source\PSoC5/UART_Bridge_INT.c ****     * Function Name: UART_Bridge_TXISR
 182:.\Generated_Source\PSoC5/UART_Bridge_INT.c ****     ********************************************************************************
 183:.\Generated_Source\PSoC5/UART_Bridge_INT.c ****     *
 184:.\Generated_Source\PSoC5/UART_Bridge_INT.c ****     * Summary:
 185:.\Generated_Source\PSoC5/UART_Bridge_INT.c ****     * Interrupt Service Routine for the TX portion of the UART
 186:.\Generated_Source\PSoC5/UART_Bridge_INT.c ****     *
 187:.\Generated_Source\PSoC5/UART_Bridge_INT.c ****     * Parameters:
 188:.\Generated_Source\PSoC5/UART_Bridge_INT.c ****     *  None.
 189:.\Generated_Source\PSoC5/UART_Bridge_INT.c ****     *
 190:.\Generated_Source\PSoC5/UART_Bridge_INT.c ****     * Return:
 191:.\Generated_Source\PSoC5/UART_Bridge_INT.c ****     *  None.
 192:.\Generated_Source\PSoC5/UART_Bridge_INT.c ****     *
 193:.\Generated_Source\PSoC5/UART_Bridge_INT.c ****     * Global Variables:
 194:.\Generated_Source\PSoC5/UART_Bridge_INT.c ****     *  UART_Bridge_txBuffer - RAM buffer pointer for transmit data from.
 195:.\Generated_Source\PSoC5/UART_Bridge_INT.c ****     *  UART_Bridge_txBufferRead - cyclic index for read and transmit data
 196:.\Generated_Source\PSoC5/UART_Bridge_INT.c ****     *     from txBuffer, increments after each transmited byte.
 197:.\Generated_Source\PSoC5/UART_Bridge_INT.c ****     *  UART_Bridge_rxBufferWrite - cyclic index for write to txBuffer,
 198:.\Generated_Source\PSoC5/UART_Bridge_INT.c ****     *     checked to detect available for transmission bytes.
 199:.\Generated_Source\PSoC5/UART_Bridge_INT.c ****     *
 200:.\Generated_Source\PSoC5/UART_Bridge_INT.c ****     *******************************************************************************/
 201:.\Generated_Source\PSoC5/UART_Bridge_INT.c ****     CY_ISR(UART_Bridge_TXISR)
 202:.\Generated_Source\PSoC5/UART_Bridge_INT.c ****     {
 159              		.loc 1 202 0
 160              		.cfi_startproc
 161              		@ args = 0, pretend = 0, frame = 0
 162              		@ frame_needed = 1, uses_anonymous_args = 0
 163              		@ link register save eliminated.
 164 0000 80B4     		push	{r7}
 165              	.LCFI3:
 166              		.cfi_def_cfa_offset 4
 167 0002 00AF     		add	r7, sp, #0
 168              		.cfi_offset 7, -4
 169              	.LCFI4:
 170              		.cfi_def_cfa_register 7
 203:.\Generated_Source\PSoC5/UART_Bridge_INT.c **** 
 204:.\Generated_Source\PSoC5/UART_Bridge_INT.c ****         #if(CY_PSOC3)
 205:.\Generated_Source\PSoC5/UART_Bridge_INT.c ****             uint8 int_en;
 206:.\Generated_Source\PSoC5/UART_Bridge_INT.c ****         #endif /* CY_PSOC3 */
 207:.\Generated_Source\PSoC5/UART_Bridge_INT.c **** 
 208:.\Generated_Source\PSoC5/UART_Bridge_INT.c ****         /* User code required at start of ISR */
 209:.\Generated_Source\PSoC5/UART_Bridge_INT.c ****         /* `#START UART_Bridge_TXISR_START` */
 210:.\Generated_Source\PSoC5/UART_Bridge_INT.c **** 
 211:.\Generated_Source\PSoC5/UART_Bridge_INT.c ****         /* `#END` */
 212:.\Generated_Source\PSoC5/UART_Bridge_INT.c **** 
 213:.\Generated_Source\PSoC5/UART_Bridge_INT.c ****         #if(CY_PSOC3)   /* Make sure nested interrupt is enabled */
 214:.\Generated_Source\PSoC5/UART_Bridge_INT.c ****             int_en = EA;
 215:.\Generated_Source\PSoC5/UART_Bridge_INT.c ****             CyGlobalIntEnable;
 216:.\Generated_Source\PSoC5/UART_Bridge_INT.c ****         #endif /* CY_PSOC3 */
 217:.\Generated_Source\PSoC5/UART_Bridge_INT.c **** 
 218:.\Generated_Source\PSoC5/UART_Bridge_INT.c ****         while((UART_Bridge_txBufferRead != UART_Bridge_txBufferWrite) &&
 171              		.loc 1 218 0
 172 0004 2FE0     		b	.L9
 173              	.L12:
 219:.\Generated_Source\PSoC5/UART_Bridge_INT.c ****              ((UART_Bridge_TXSTATUS_REG & UART_Bridge_TX_STS_FIFO_FULL) == 0u))
 220:.\Generated_Source\PSoC5/UART_Bridge_INT.c ****         {
 221:.\Generated_Source\PSoC5/UART_Bridge_INT.c ****             /* Check pointer. */
 222:.\Generated_Source\PSoC5/UART_Bridge_INT.c ****             if(UART_Bridge_txBufferRead >= UART_Bridge_TXBUFFERSIZE)
ARM GAS  C:\DOCUME~1\ADMINI~1\LOCALS~1\Temp\ccsjOqfn.s 			page 8


 174              		.loc 1 222 0
 175 0006 40F20003 		movw	r3, #:lower16:UART_Bridge_txBufferRead
 176 000a C0F20003 		movt	r3, #:upper16:UART_Bridge_txBufferRead
 177 000e 1B78     		ldrb	r3, [r3, #0]
 178 0010 DBB2     		uxtb	r3, r3
 179 0012 5BB2     		sxtb	r3, r3
 180 0014 002B     		cmp	r3, #0
 181 0016 06DA     		bge	.L10
 223:.\Generated_Source\PSoC5/UART_Bridge_INT.c ****             {
 224:.\Generated_Source\PSoC5/UART_Bridge_INT.c ****                 UART_Bridge_txBufferRead = 0u;
 182              		.loc 1 224 0
 183 0018 40F20003 		movw	r3, #:lower16:UART_Bridge_txBufferRead
 184 001c C0F20003 		movt	r3, #:upper16:UART_Bridge_txBufferRead
 185 0020 4FF00002 		mov	r2, #0
 186 0024 1A70     		strb	r2, [r3, #0]
 187              	.L10:
 225:.\Generated_Source\PSoC5/UART_Bridge_INT.c ****             }
 226:.\Generated_Source\PSoC5/UART_Bridge_INT.c **** 
 227:.\Generated_Source\PSoC5/UART_Bridge_INT.c ****             UART_Bridge_TXDATA_REG = UART_Bridge_txBuffer[UART_Bridge_txBufferRead];
 188              		.loc 1 227 0
 189 0026 46F24E43 		movw	r3, #:lower16:1073767502
 190 002a C4F20003 		movt	r3, #:upper16:1073767502
 191 002e 40F20002 		movw	r2, #:lower16:UART_Bridge_txBufferRead
 192 0032 C0F20002 		movt	r2, #:upper16:UART_Bridge_txBufferRead
 193 0036 1278     		ldrb	r2, [r2, #0]
 194 0038 D2B2     		uxtb	r2, r2
 195 003a 1146     		mov	r1, r2
 196 003c 40F20002 		movw	r2, #:lower16:UART_Bridge_txBuffer
 197 0040 C0F20002 		movt	r2, #:upper16:UART_Bridge_txBuffer
 198 0044 525C     		ldrb	r2, [r2, r1]
 199 0046 D2B2     		uxtb	r2, r2
 200 0048 1A70     		strb	r2, [r3, #0]
 228:.\Generated_Source\PSoC5/UART_Bridge_INT.c **** 
 229:.\Generated_Source\PSoC5/UART_Bridge_INT.c ****             /* Set next pointer. */
 230:.\Generated_Source\PSoC5/UART_Bridge_INT.c ****             UART_Bridge_txBufferRead++;
 201              		.loc 1 230 0
 202 004a 40F20003 		movw	r3, #:lower16:UART_Bridge_txBufferRead
 203 004e C0F20003 		movt	r3, #:upper16:UART_Bridge_txBufferRead
 204 0052 1B78     		ldrb	r3, [r3, #0]
 205 0054 DBB2     		uxtb	r3, r3
 206 0056 03F10103 		add	r3, r3, #1
 207 005a DAB2     		uxtb	r2, r3
 208 005c 40F20003 		movw	r3, #:lower16:UART_Bridge_txBufferRead
 209 0060 C0F20003 		movt	r3, #:upper16:UART_Bridge_txBufferRead
 210 0064 1A70     		strb	r2, [r3, #0]
 211              	.L9:
 212              		.loc 1 218 0
 213 0066 40F20003 		movw	r3, #:lower16:UART_Bridge_txBufferRead
 214 006a C0F20003 		movt	r3, #:upper16:UART_Bridge_txBufferRead
 215 006e 1B78     		ldrb	r3, [r3, #0]
 216 0070 DAB2     		uxtb	r2, r3
 217 0072 40F20003 		movw	r3, #:lower16:UART_Bridge_txBufferWrite
 218 0076 C0F20003 		movt	r3, #:upper16:UART_Bridge_txBufferWrite
 219 007a 1B78     		ldrb	r3, [r3, #0]	@ zero_extendqisi2
 220 007c 9A42     		cmp	r2, r3
 221 007e 09D0     		beq	.L13
 222              		.loc 1 219 0
ARM GAS  C:\DOCUME~1\ADMINI~1\LOCALS~1\Temp\ccsjOqfn.s 			page 9


 223 0080 46F26E43 		movw	r3, #:lower16:1073767534
 224 0084 C4F20003 		movt	r3, #:upper16:1073767534
 225 0088 1B78     		ldrb	r3, [r3, #0]
 226 008a DBB2     		uxtb	r3, r3
 227 008c 03F00403 		and	r3, r3, #4
 228              		.loc 1 218 0
 229 0090 002B     		cmp	r3, #0
 230 0092 B8D0     		beq	.L12
 231              	.L13:
 231:.\Generated_Source\PSoC5/UART_Bridge_INT.c ****         }
 232:.\Generated_Source\PSoC5/UART_Bridge_INT.c **** 
 233:.\Generated_Source\PSoC5/UART_Bridge_INT.c ****         /* User code required at end of ISR (Optional) */
 234:.\Generated_Source\PSoC5/UART_Bridge_INT.c ****         /* `#START UART_Bridge_TXISR_END` */
 235:.\Generated_Source\PSoC5/UART_Bridge_INT.c **** 
 236:.\Generated_Source\PSoC5/UART_Bridge_INT.c ****         /* `#END` */
 237:.\Generated_Source\PSoC5/UART_Bridge_INT.c **** 
 238:.\Generated_Source\PSoC5/UART_Bridge_INT.c ****         #if(CY_PSOC3)
 239:.\Generated_Source\PSoC5/UART_Bridge_INT.c ****             EA = int_en;
 240:.\Generated_Source\PSoC5/UART_Bridge_INT.c ****         #endif /* CY_PSOC3 */
 241:.\Generated_Source\PSoC5/UART_Bridge_INT.c **** 
 242:.\Generated_Source\PSoC5/UART_Bridge_INT.c ****     }
 232              		.loc 1 242 0
 233 0094 BD46     		mov	sp, r7
 234 0096 80BC     		pop	{r7}
 235 0098 7047     		bx	lr
 236              		.cfi_endproc
 237              	.LFE1:
 238              		.size	UART_Bridge_TXISR, .-UART_Bridge_TXISR
 239 009a 00BF     		.text
 240              	.Letext0: