ARM GAS  C:\DOCUME~1\ADMINI~1\LOCALS~1\Temp\cc7imiBl.s 			page 1


   1              		.syntax unified
   2              		.cpu cortex-m3
   3              		.fpu softvfp
   4              		.eabi_attribute 20, 1
   5              		.eabi_attribute 21, 1
   6              		.eabi_attribute 23, 3
   7              		.eabi_attribute 24, 1
   8              		.eabi_attribute 25, 1
   9              		.eabi_attribute 26, 1
  10              		.eabi_attribute 30, 6
  11              		.eabi_attribute 18, 4
  12              		.thumb
  13              		.file	"USBFS_cdc.c"
  20 0000 FF010000 		.text
  20      02007C00 
  20      00000201 
  20      FB0E0D00 
  20      01010101 
  21              	.Ltext0:
  22              		.cfi_sections	.debug_frame
  23              		.comm	USBFS_lineCoding,7,4
  24              		.comm	USBFS_lineChanged,1,1
  25              		.comm	USBFS_lineControlBitmap,2,2
  26              		.comm	USBFS_cdc_data_in_ep,1,1
  27              		.comm	USBFS_cdc_data_out_ep,1,1
  28              		.section	.text.USBFS_DispatchCDCClassRqst,"ax",%progbits
  29              		.align	2
  30              		.global	USBFS_DispatchCDCClassRqst
  31              		.thumb
  32              		.thumb_func
  33              		.type	USBFS_DispatchCDCClassRqst, %function
  34              	USBFS_DispatchCDCClassRqst:
  35              	.LFB0:
  36              		.file 1 ".\\Generated_Source\\PSoC5\\USBFS_cdc.c"
   1:.\Generated_Source\PSoC5/USBFS_cdc.c **** /*******************************************************************************
   2:.\Generated_Source\PSoC5/USBFS_cdc.c **** * File Name: USBFS_cdc.c
   3:.\Generated_Source\PSoC5/USBFS_cdc.c **** * Version 2.50
   4:.\Generated_Source\PSoC5/USBFS_cdc.c **** *
   5:.\Generated_Source\PSoC5/USBFS_cdc.c **** * Description:
   6:.\Generated_Source\PSoC5/USBFS_cdc.c **** *  USB HID Class request handler.
   7:.\Generated_Source\PSoC5/USBFS_cdc.c **** *
   8:.\Generated_Source\PSoC5/USBFS_cdc.c **** * Note:
   9:.\Generated_Source\PSoC5/USBFS_cdc.c **** *
  10:.\Generated_Source\PSoC5/USBFS_cdc.c **** ********************************************************************************
  11:.\Generated_Source\PSoC5/USBFS_cdc.c **** * Copyright 2012, Cypress Semiconductor Corporation.  All rights reserved.
  12:.\Generated_Source\PSoC5/USBFS_cdc.c **** * You may use this file only in accordance with the license, terms, conditions,
  13:.\Generated_Source\PSoC5/USBFS_cdc.c **** * disclaimers, and limitations in the end user license agreement accompanying
  14:.\Generated_Source\PSoC5/USBFS_cdc.c **** * the software package with which this file was provided.
  15:.\Generated_Source\PSoC5/USBFS_cdc.c **** *******************************************************************************/
  16:.\Generated_Source\PSoC5/USBFS_cdc.c **** 
  17:.\Generated_Source\PSoC5/USBFS_cdc.c **** #include "USBFS.h"
ARM GAS  C:\DOCUME~1\ADMINI~1\LOCALS~1\Temp\cc7imiBl.s 			page 2


  18:.\Generated_Source\PSoC5/USBFS_cdc.c **** 
  19:.\Generated_Source\PSoC5/USBFS_cdc.c **** #if defined(USBFS_ENABLE_CDC_CLASS)
  20:.\Generated_Source\PSoC5/USBFS_cdc.c **** 
  21:.\Generated_Source\PSoC5/USBFS_cdc.c **** #include <string.h>
  22:.\Generated_Source\PSoC5/USBFS_cdc.c **** #include "USBFS_cdc.h"
  23:.\Generated_Source\PSoC5/USBFS_cdc.c **** 
  24:.\Generated_Source\PSoC5/USBFS_cdc.c **** 
  25:.\Generated_Source\PSoC5/USBFS_cdc.c **** /***************************************
  26:.\Generated_Source\PSoC5/USBFS_cdc.c **** *    CDC Variables
  27:.\Generated_Source\PSoC5/USBFS_cdc.c **** ***************************************/
  28:.\Generated_Source\PSoC5/USBFS_cdc.c **** 
  29:.\Generated_Source\PSoC5/USBFS_cdc.c **** volatile uint8 USBFS_lineCoding[USBFS_LINE_CODING_SIZE];
  30:.\Generated_Source\PSoC5/USBFS_cdc.c **** volatile uint8 USBFS_lineChanged;
  31:.\Generated_Source\PSoC5/USBFS_cdc.c **** volatile uint16 USBFS_lineControlBitmap;
  32:.\Generated_Source\PSoC5/USBFS_cdc.c **** volatile uint8 USBFS_cdc_data_in_ep;
  33:.\Generated_Source\PSoC5/USBFS_cdc.c **** volatile uint8 USBFS_cdc_data_out_ep;
  34:.\Generated_Source\PSoC5/USBFS_cdc.c **** 
  35:.\Generated_Source\PSoC5/USBFS_cdc.c **** 
  36:.\Generated_Source\PSoC5/USBFS_cdc.c **** /***************************************
  37:.\Generated_Source\PSoC5/USBFS_cdc.c **** * Custom Declarations
  38:.\Generated_Source\PSoC5/USBFS_cdc.c **** ***************************************/
  39:.\Generated_Source\PSoC5/USBFS_cdc.c **** 
  40:.\Generated_Source\PSoC5/USBFS_cdc.c **** /* `#START CDC_CUSTOM_DECLARATIONS` Place your declaration here */
  41:.\Generated_Source\PSoC5/USBFS_cdc.c **** 
  42:.\Generated_Source\PSoC5/USBFS_cdc.c **** /* `#END` */
  43:.\Generated_Source\PSoC5/USBFS_cdc.c **** 
  44:.\Generated_Source\PSoC5/USBFS_cdc.c **** 
  45:.\Generated_Source\PSoC5/USBFS_cdc.c **** /***************************************
  46:.\Generated_Source\PSoC5/USBFS_cdc.c **** * External data references
  47:.\Generated_Source\PSoC5/USBFS_cdc.c **** ***************************************/
  48:.\Generated_Source\PSoC5/USBFS_cdc.c **** 
  49:.\Generated_Source\PSoC5/USBFS_cdc.c **** extern volatile T_USBFS_EP_CTL_BLOCK USBFS_EP[];
  50:.\Generated_Source\PSoC5/USBFS_cdc.c **** extern volatile T_USBFS_TD USBFS_currentTD;
  51:.\Generated_Source\PSoC5/USBFS_cdc.c **** extern volatile uint8 USBFS_transferState;
  52:.\Generated_Source\PSoC5/USBFS_cdc.c **** 
  53:.\Generated_Source\PSoC5/USBFS_cdc.c **** 
  54:.\Generated_Source\PSoC5/USBFS_cdc.c **** /***************************************
  55:.\Generated_Source\PSoC5/USBFS_cdc.c **** * External function references
  56:.\Generated_Source\PSoC5/USBFS_cdc.c **** ***************************************/
  57:.\Generated_Source\PSoC5/USBFS_cdc.c **** 
  58:.\Generated_Source\PSoC5/USBFS_cdc.c **** uint8 USBFS_InitControlRead(void) ;
  59:.\Generated_Source\PSoC5/USBFS_cdc.c **** uint8 USBFS_InitControlWrite(void) ;
  60:.\Generated_Source\PSoC5/USBFS_cdc.c **** uint8 USBFS_InitNoDataControlTransfer(void) ;
  61:.\Generated_Source\PSoC5/USBFS_cdc.c **** 
  62:.\Generated_Source\PSoC5/USBFS_cdc.c **** 
  63:.\Generated_Source\PSoC5/USBFS_cdc.c **** /*******************************************************************************
  64:.\Generated_Source\PSoC5/USBFS_cdc.c **** * Function Name: USBFS_DispatchCDCClassRqst
  65:.\Generated_Source\PSoC5/USBFS_cdc.c **** ********************************************************************************
  66:.\Generated_Source\PSoC5/USBFS_cdc.c **** *
  67:.\Generated_Source\PSoC5/USBFS_cdc.c **** * Summary:
  68:.\Generated_Source\PSoC5/USBFS_cdc.c **** *  This routine dispatches CDC class requests.
  69:.\Generated_Source\PSoC5/USBFS_cdc.c **** *
  70:.\Generated_Source\PSoC5/USBFS_cdc.c **** * Parameters:
  71:.\Generated_Source\PSoC5/USBFS_cdc.c **** *  None.
  72:.\Generated_Source\PSoC5/USBFS_cdc.c **** *
  73:.\Generated_Source\PSoC5/USBFS_cdc.c **** * Return:
  74:.\Generated_Source\PSoC5/USBFS_cdc.c **** *  requestHandled
ARM GAS  C:\DOCUME~1\ADMINI~1\LOCALS~1\Temp\cc7imiBl.s 			page 3


  75:.\Generated_Source\PSoC5/USBFS_cdc.c **** *
  76:.\Generated_Source\PSoC5/USBFS_cdc.c **** * Global variables:
  77:.\Generated_Source\PSoC5/USBFS_cdc.c **** *   USBFS_lineCoding: Contains the current line coding structure.
  78:.\Generated_Source\PSoC5/USBFS_cdc.c **** *     It is set by the Host using SET_LINE_CODING request and returned to the
  79:.\Generated_Source\PSoC5/USBFS_cdc.c **** *     user code by the USBFS_GetDTERate(), USBFS_GetCharFormat(),
  80:.\Generated_Source\PSoC5/USBFS_cdc.c **** *     USBFS_GetParityType(), USBFS_GetDataBits() APIs.
  81:.\Generated_Source\PSoC5/USBFS_cdc.c **** *   USBFS_lineControlBitmap: Contains the current control signal
  82:.\Generated_Source\PSoC5/USBFS_cdc.c **** *     bitmap. It is set by the Host using SET_CONTROL_LINE request and returned
  83:.\Generated_Source\PSoC5/USBFS_cdc.c **** *     to the user code by the USBFS_GetLineControl() API.
  84:.\Generated_Source\PSoC5/USBFS_cdc.c **** *   USBFS_lineChanged: This variable is used as a flag for the
  85:.\Generated_Source\PSoC5/USBFS_cdc.c **** *     USBFS_IsLineChanged() API, to be aware that Host has been sent request
  86:.\Generated_Source\PSoC5/USBFS_cdc.c **** *     for changing Line Coding or Control Bitmap.
  87:.\Generated_Source\PSoC5/USBFS_cdc.c **** *
  88:.\Generated_Source\PSoC5/USBFS_cdc.c **** * Reentrant:
  89:.\Generated_Source\PSoC5/USBFS_cdc.c **** *  No.
  90:.\Generated_Source\PSoC5/USBFS_cdc.c **** *
  91:.\Generated_Source\PSoC5/USBFS_cdc.c **** *******************************************************************************/
  92:.\Generated_Source\PSoC5/USBFS_cdc.c **** uint8 USBFS_DispatchCDCClassRqst() 
  93:.\Generated_Source\PSoC5/USBFS_cdc.c **** {
  37              		.loc 1 93 0
  38              		.cfi_startproc
  39              		@ args = 0, pretend = 0, frame = 8
  40              		@ frame_needed = 1, uses_anonymous_args = 0
  41 0000 80B5     		push	{r7, lr}
  42              	.LCFI0:
  43              		.cfi_def_cfa_offset 8
  44 0002 82B0     		sub	sp, sp, #8
  45              	.LCFI1:
  46              		.cfi_def_cfa_offset 16
  47 0004 00AF     		add	r7, sp, #0
  48              		.cfi_offset 14, -4
  49              		.cfi_offset 7, -8
  50              	.LCFI2:
  51              		.cfi_def_cfa_register 7
  94:.\Generated_Source\PSoC5/USBFS_cdc.c ****     uint8 requestHandled = USBFS_FALSE;
  52              		.loc 1 94 0
  53 0006 4FF00003 		mov	r3, #0
  54 000a FB71     		strb	r3, [r7, #7]
  95:.\Generated_Source\PSoC5/USBFS_cdc.c **** 
  96:.\Generated_Source\PSoC5/USBFS_cdc.c ****     if ((CY_GET_REG8(USBFS_bmRequestType) & USBFS_RQST_DIR_MASK) == USBFS_RQST_DIR_D2H)
  55              		.loc 1 96 0
  56 000c 46F20003 		movw	r3, #:lower16:1073766400
  57 0010 C4F20003 		movt	r3, #:upper16:1073766400
  58 0014 1B78     		ldrb	r3, [r3, #0]
  59 0016 DBB2     		uxtb	r3, r3
  60 0018 5BB2     		sxtb	r3, r3
  61 001a 002B     		cmp	r3, #0
  62 001c 1CDA     		bge	.L2
  97:.\Generated_Source\PSoC5/USBFS_cdc.c ****     {   /* Control Read */
  98:.\Generated_Source\PSoC5/USBFS_cdc.c ****         switch (CY_GET_REG8(USBFS_bRequest))
  63              		.loc 1 98 0
  64 001e 46F20103 		movw	r3, #:lower16:1073766401
  65 0022 C4F20003 		movt	r3, #:upper16:1073766401
  66 0026 1B78     		ldrb	r3, [r3, #0]
  67 0028 DBB2     		uxtb	r3, r3
  68 002a 212B     		cmp	r3, #33
  69 002c 6AD1     		bne	.L9
ARM GAS  C:\DOCUME~1\ADMINI~1\LOCALS~1\Temp\cc7imiBl.s 			page 4


  70              	.L4:
  99:.\Generated_Source\PSoC5/USBFS_cdc.c ****         {
 100:.\Generated_Source\PSoC5/USBFS_cdc.c ****             case USBFS_CDC_GET_LINE_CODING:
 101:.\Generated_Source\PSoC5/USBFS_cdc.c ****                 USBFS_currentTD.count = USBFS_LINE_CODING_SIZE;
  71              		.loc 1 101 0
  72 002e 40F20003 		movw	r3, #:lower16:USBFS_currentTD
  73 0032 C0F20003 		movt	r3, #:upper16:USBFS_currentTD
  74 0036 4FF00702 		mov	r2, #7
  75 003a 1A80     		strh	r2, [r3, #0]	@ movhi
 102:.\Generated_Source\PSoC5/USBFS_cdc.c ****                 USBFS_currentTD.pData = USBFS_lineCoding;
  76              		.loc 1 102 0
  77 003c 40F20003 		movw	r3, #:lower16:USBFS_currentTD
  78 0040 C0F20003 		movt	r3, #:upper16:USBFS_currentTD
  79 0044 40F20002 		movw	r2, #:lower16:USBFS_lineCoding
  80 0048 C0F20002 		movt	r2, #:upper16:USBFS_lineCoding
  81 004c 5A60     		str	r2, [r3, #4]
 103:.\Generated_Source\PSoC5/USBFS_cdc.c ****                 requestHandled  = USBFS_InitControlRead();
  82              		.loc 1 103 0
  83 004e FFF7FEFF 		bl	USBFS_InitControlRead
  84 0052 0346     		mov	r3, r0
  85 0054 FB71     		strb	r3, [r7, #7]
  86 0056 56E0     		b	.L5
  87              	.L2:
 104:.\Generated_Source\PSoC5/USBFS_cdc.c ****                 break;
 105:.\Generated_Source\PSoC5/USBFS_cdc.c **** 
 106:.\Generated_Source\PSoC5/USBFS_cdc.c ****             /* `#START CDC_READ_REQUESTS` Place other request handler here */
 107:.\Generated_Source\PSoC5/USBFS_cdc.c **** 
 108:.\Generated_Source\PSoC5/USBFS_cdc.c ****             /* `#END` */
 109:.\Generated_Source\PSoC5/USBFS_cdc.c **** 
 110:.\Generated_Source\PSoC5/USBFS_cdc.c ****             default:    /* requestHandled is initialezed as FALSE by default */
 111:.\Generated_Source\PSoC5/USBFS_cdc.c ****                 break;
 112:.\Generated_Source\PSoC5/USBFS_cdc.c ****         }
 113:.\Generated_Source\PSoC5/USBFS_cdc.c ****     }
 114:.\Generated_Source\PSoC5/USBFS_cdc.c ****     else if ((CY_GET_REG8(USBFS_bmRequestType) & USBFS_RQST_DIR_MASK) == \
  88              		.loc 1 114 0
  89 0058 46F20003 		movw	r3, #:lower16:1073766400
  90 005c C4F20003 		movt	r3, #:upper16:1073766400
  91 0060 1B78     		ldrb	r3, [r3, #0]
  92 0062 DBB2     		uxtb	r3, r3
  93 0064 5BB2     		sxtb	r3, r3
  94 0066 002B     		cmp	r3, #0
  95 0068 4DDB     		blt	.L5
 115:.\Generated_Source\PSoC5/USBFS_cdc.c ****                                                                             USBFS_RQST_DIR_H2D)
 116:.\Generated_Source\PSoC5/USBFS_cdc.c ****     {   /* Control Write */
 117:.\Generated_Source\PSoC5/USBFS_cdc.c ****         switch (CY_GET_REG8(USBFS_bRequest))
  96              		.loc 1 117 0
  97 006a 46F20103 		movw	r3, #:lower16:1073766401
  98 006e C4F20003 		movt	r3, #:upper16:1073766401
  99 0072 1B78     		ldrb	r3, [r3, #0]
 100 0074 DBB2     		uxtb	r3, r3
 101 0076 202B     		cmp	r3, #32
 102 0078 02D0     		beq	.L6
 103 007a 222B     		cmp	r3, #34
 104 007c 23D0     		beq	.L7
 105 007e 42E0     		b	.L5
 106              	.L6:
 118:.\Generated_Source\PSoC5/USBFS_cdc.c ****         {
ARM GAS  C:\DOCUME~1\ADMINI~1\LOCALS~1\Temp\cc7imiBl.s 			page 5


 119:.\Generated_Source\PSoC5/USBFS_cdc.c ****             case USBFS_CDC_SET_LINE_CODING:
 120:.\Generated_Source\PSoC5/USBFS_cdc.c ****                 USBFS_currentTD.count = USBFS_LINE_CODING_SIZE;
 107              		.loc 1 120 0
 108 0080 40F20003 		movw	r3, #:lower16:USBFS_currentTD
 109 0084 C0F20003 		movt	r3, #:upper16:USBFS_currentTD
 110 0088 4FF00702 		mov	r2, #7
 111 008c 1A80     		strh	r2, [r3, #0]	@ movhi
 121:.\Generated_Source\PSoC5/USBFS_cdc.c ****                 USBFS_currentTD.pData = USBFS_lineCoding;
 112              		.loc 1 121 0
 113 008e 40F20003 		movw	r3, #:lower16:USBFS_currentTD
 114 0092 C0F20003 		movt	r3, #:upper16:USBFS_currentTD
 115 0096 40F20002 		movw	r2, #:lower16:USBFS_lineCoding
 116 009a C0F20002 		movt	r2, #:upper16:USBFS_lineCoding
 117 009e 5A60     		str	r2, [r3, #4]
 122:.\Generated_Source\PSoC5/USBFS_cdc.c ****                 USBFS_lineChanged |= USBFS_LINE_CODING_CHANGED;
 118              		.loc 1 122 0
 119 00a0 40F20003 		movw	r3, #:lower16:USBFS_lineChanged
 120 00a4 C0F20003 		movt	r3, #:upper16:USBFS_lineChanged
 121 00a8 1B78     		ldrb	r3, [r3, #0]
 122 00aa DBB2     		uxtb	r3, r3
 123 00ac 43F00103 		orr	r3, r3, #1
 124 00b0 DAB2     		uxtb	r2, r3
 125 00b2 40F20003 		movw	r3, #:lower16:USBFS_lineChanged
 126 00b6 C0F20003 		movt	r3, #:upper16:USBFS_lineChanged
 127 00ba 1A70     		strb	r2, [r3, #0]
 123:.\Generated_Source\PSoC5/USBFS_cdc.c ****                 requestHandled = USBFS_InitControlWrite();
 128              		.loc 1 123 0
 129 00bc FFF7FEFF 		bl	USBFS_InitControlWrite
 130 00c0 0346     		mov	r3, r0
 131 00c2 FB71     		strb	r3, [r7, #7]
 124:.\Generated_Source\PSoC5/USBFS_cdc.c ****                 break;
 132              		.loc 1 124 0
 133 00c4 1FE0     		b	.L5
 134              	.L7:
 125:.\Generated_Source\PSoC5/USBFS_cdc.c **** 
 126:.\Generated_Source\PSoC5/USBFS_cdc.c ****             case USBFS_CDC_SET_CONTROL_LINE_STATE:
 127:.\Generated_Source\PSoC5/USBFS_cdc.c ****                 USBFS_lineControlBitmap = CY_GET_REG8(USBFS_wValueLo);
 135              		.loc 1 127 0
 136 00c6 46F20203 		movw	r3, #:lower16:1073766402
 137 00ca C4F20003 		movt	r3, #:upper16:1073766402
 138 00ce 1B78     		ldrb	r3, [r3, #0]
 139 00d0 DBB2     		uxtb	r3, r3
 140 00d2 1A46     		mov	r2, r3
 141 00d4 40F20003 		movw	r3, #:lower16:USBFS_lineControlBitmap
 142 00d8 C0F20003 		movt	r3, #:upper16:USBFS_lineControlBitmap
 143 00dc 1A80     		strh	r2, [r3, #0]	@ movhi
 128:.\Generated_Source\PSoC5/USBFS_cdc.c ****                 USBFS_lineChanged |= USBFS_LINE_CONTROL_CHANGED;
 144              		.loc 1 128 0
 145 00de 40F20003 		movw	r3, #:lower16:USBFS_lineChanged
 146 00e2 C0F20003 		movt	r3, #:upper16:USBFS_lineChanged
 147 00e6 1B78     		ldrb	r3, [r3, #0]
 148 00e8 DBB2     		uxtb	r3, r3
 149 00ea 43F00203 		orr	r3, r3, #2
 150 00ee DAB2     		uxtb	r2, r3
 151 00f0 40F20003 		movw	r3, #:lower16:USBFS_lineChanged
 152 00f4 C0F20003 		movt	r3, #:upper16:USBFS_lineChanged
 153 00f8 1A70     		strb	r2, [r3, #0]
ARM GAS  C:\DOCUME~1\ADMINI~1\LOCALS~1\Temp\cc7imiBl.s 			page 6


 129:.\Generated_Source\PSoC5/USBFS_cdc.c ****                 requestHandled = USBFS_InitNoDataControlTransfer();
 154              		.loc 1 129 0
 155 00fa FFF7FEFF 		bl	USBFS_InitNoDataControlTransfer
 156 00fe 0346     		mov	r3, r0
 157 0100 FB71     		strb	r3, [r7, #7]
 158 0102 00E0     		b	.L5
 159              	.L9:
 160              		.loc 1 103 0
 161 0104 00BF     		nop
 162              	.L5:
 130:.\Generated_Source\PSoC5/USBFS_cdc.c ****                 break;
 131:.\Generated_Source\PSoC5/USBFS_cdc.c **** 
 132:.\Generated_Source\PSoC5/USBFS_cdc.c ****             /* `#START CDC_WRITE_REQUESTS` Place other request handler here */
 133:.\Generated_Source\PSoC5/USBFS_cdc.c **** 
 134:.\Generated_Source\PSoC5/USBFS_cdc.c ****             /* `#END` */
 135:.\Generated_Source\PSoC5/USBFS_cdc.c **** 
 136:.\Generated_Source\PSoC5/USBFS_cdc.c ****             default:    /* requestHandled is initialezed as FALSE by default */
 137:.\Generated_Source\PSoC5/USBFS_cdc.c ****                 break;
 138:.\Generated_Source\PSoC5/USBFS_cdc.c ****         }
 139:.\Generated_Source\PSoC5/USBFS_cdc.c ****     }
 140:.\Generated_Source\PSoC5/USBFS_cdc.c ****     else
 141:.\Generated_Source\PSoC5/USBFS_cdc.c ****     {   /* requestHandled is initialezed as FALSE by default */
 142:.\Generated_Source\PSoC5/USBFS_cdc.c ****     }
 143:.\Generated_Source\PSoC5/USBFS_cdc.c **** 
 144:.\Generated_Source\PSoC5/USBFS_cdc.c ****     return(requestHandled);
 163              		.loc 1 144 0
 164 0106 FB79     		ldrb	r3, [r7, #7]	@ zero_extendqisi2
 145:.\Generated_Source\PSoC5/USBFS_cdc.c **** }
 165              		.loc 1 145 0
 166 0108 1846     		mov	r0, r3
 167 010a 07F10807 		add	r7, r7, #8
 168 010e BD46     		mov	sp, r7
 169 0110 80BD     		pop	{r7, pc}
 170              		.cfi_endproc
 171              	.LFE0:
 172              		.size	USBFS_DispatchCDCClassRqst, .-USBFS_DispatchCDCClassRqst
 173 0112 00BF     		.section	.text.USBFS_CDC_Init,"ax",%progbits
 174              		.align	2
 175              		.global	USBFS_CDC_Init
 176              		.thumb
 177              		.thumb_func
 178              		.type	USBFS_CDC_Init, %function
 179              	USBFS_CDC_Init:
 180              	.LFB1:
 146:.\Generated_Source\PSoC5/USBFS_cdc.c **** 
 147:.\Generated_Source\PSoC5/USBFS_cdc.c **** 
 148:.\Generated_Source\PSoC5/USBFS_cdc.c **** /***************************************
 149:.\Generated_Source\PSoC5/USBFS_cdc.c **** * Optional CDC APIs
 150:.\Generated_Source\PSoC5/USBFS_cdc.c **** ***************************************/
 151:.\Generated_Source\PSoC5/USBFS_cdc.c **** #if (USBFS_ENABLE_CDC_CLASS_API != 0u)
 152:.\Generated_Source\PSoC5/USBFS_cdc.c **** 
 153:.\Generated_Source\PSoC5/USBFS_cdc.c **** 
 154:.\Generated_Source\PSoC5/USBFS_cdc.c ****     /*******************************************************************************
 155:.\Generated_Source\PSoC5/USBFS_cdc.c ****     * Function Name: USBFS_CDC_Init
 156:.\Generated_Source\PSoC5/USBFS_cdc.c ****     ********************************************************************************
 157:.\Generated_Source\PSoC5/USBFS_cdc.c ****     *
 158:.\Generated_Source\PSoC5/USBFS_cdc.c ****     * Summary:
ARM GAS  C:\DOCUME~1\ADMINI~1\LOCALS~1\Temp\cc7imiBl.s 			page 7


 159:.\Generated_Source\PSoC5/USBFS_cdc.c ****     *  This function initialize the CDC interface to be ready for the receive data
 160:.\Generated_Source\PSoC5/USBFS_cdc.c ****     *  from the PC.
 161:.\Generated_Source\PSoC5/USBFS_cdc.c ****     *
 162:.\Generated_Source\PSoC5/USBFS_cdc.c ****     * Parameters:
 163:.\Generated_Source\PSoC5/USBFS_cdc.c ****     *  None.
 164:.\Generated_Source\PSoC5/USBFS_cdc.c ****     *
 165:.\Generated_Source\PSoC5/USBFS_cdc.c ****     * Return:
 166:.\Generated_Source\PSoC5/USBFS_cdc.c ****     *  None.
 167:.\Generated_Source\PSoC5/USBFS_cdc.c ****     *
 168:.\Generated_Source\PSoC5/USBFS_cdc.c ****     * Global variables:
 169:.\Generated_Source\PSoC5/USBFS_cdc.c ****     *   USBFS_lineChanged: Initialized to zero.
 170:.\Generated_Source\PSoC5/USBFS_cdc.c ****     *   USBFS_cdc_data_out_ep: Used as an OUT endpoint number.
 171:.\Generated_Source\PSoC5/USBFS_cdc.c ****     *
 172:.\Generated_Source\PSoC5/USBFS_cdc.c ****     * Reentrant:
 173:.\Generated_Source\PSoC5/USBFS_cdc.c ****     *  No.
 174:.\Generated_Source\PSoC5/USBFS_cdc.c ****     *
 175:.\Generated_Source\PSoC5/USBFS_cdc.c ****     *******************************************************************************/
 176:.\Generated_Source\PSoC5/USBFS_cdc.c ****     void USBFS_CDC_Init(void) 
 177:.\Generated_Source\PSoC5/USBFS_cdc.c ****     {
 181              		.loc 1 177 0
 182              		.cfi_startproc
 183              		@ args = 0, pretend = 0, frame = 0
 184              		@ frame_needed = 1, uses_anonymous_args = 0
 185 0000 80B5     		push	{r7, lr}
 186              	.LCFI3:
 187              		.cfi_def_cfa_offset 8
 188 0002 00AF     		add	r7, sp, #0
 189              		.cfi_offset 14, -4
 190              		.cfi_offset 7, -8
 191              	.LCFI4:
 192              		.cfi_def_cfa_register 7
 178:.\Generated_Source\PSoC5/USBFS_cdc.c ****         USBFS_lineChanged = 0u;
 193              		.loc 1 178 0
 194 0004 40F20003 		movw	r3, #:lower16:USBFS_lineChanged
 195 0008 C0F20003 		movt	r3, #:upper16:USBFS_lineChanged
 196 000c 4FF00002 		mov	r2, #0
 197 0010 1A70     		strb	r2, [r3, #0]
 179:.\Generated_Source\PSoC5/USBFS_cdc.c ****         USBFS_EnableOutEP(USBFS_cdc_data_out_ep);
 198              		.loc 1 179 0
 199 0012 40F20003 		movw	r3, #:lower16:USBFS_cdc_data_out_ep
 200 0016 C0F20003 		movt	r3, #:upper16:USBFS_cdc_data_out_ep
 201 001a 1B78     		ldrb	r3, [r3, #0]
 202 001c DBB2     		uxtb	r3, r3
 203 001e 1846     		mov	r0, r3
 204 0020 FFF7FEFF 		bl	USBFS_EnableOutEP
 180:.\Generated_Source\PSoC5/USBFS_cdc.c ****     }
 205              		.loc 1 180 0
 206 0024 80BD     		pop	{r7, pc}
 207              		.cfi_endproc
 208              	.LFE1:
 209              		.size	USBFS_CDC_Init, .-USBFS_CDC_Init
 210 0026 00BF     		.section	.text.USBFS_PutData,"ax",%progbits
 211              		.align	2
 212              		.global	USBFS_PutData
 213              		.thumb
 214              		.thumb_func
 215              		.type	USBFS_PutData, %function
ARM GAS  C:\DOCUME~1\ADMINI~1\LOCALS~1\Temp\cc7imiBl.s 			page 8


 216              	USBFS_PutData:
 217              	.LFB2:
 181:.\Generated_Source\PSoC5/USBFS_cdc.c **** 
 182:.\Generated_Source\PSoC5/USBFS_cdc.c **** 
 183:.\Generated_Source\PSoC5/USBFS_cdc.c ****     /*******************************************************************************
 184:.\Generated_Source\PSoC5/USBFS_cdc.c ****     * Function Name: USBFS_PutData
 185:.\Generated_Source\PSoC5/USBFS_cdc.c ****     ********************************************************************************
 186:.\Generated_Source\PSoC5/USBFS_cdc.c ****     *
 187:.\Generated_Source\PSoC5/USBFS_cdc.c ****     * Summary:
 188:.\Generated_Source\PSoC5/USBFS_cdc.c ****     *  Sends a specified number of bytes from the location specified by a
 189:.\Generated_Source\PSoC5/USBFS_cdc.c ****     *  pointer to the PC.
 190:.\Generated_Source\PSoC5/USBFS_cdc.c ****     *
 191:.\Generated_Source\PSoC5/USBFS_cdc.c ****     * Parameters:
 192:.\Generated_Source\PSoC5/USBFS_cdc.c ****     *  pData: pointer to the buffer containing data to be sent.
 193:.\Generated_Source\PSoC5/USBFS_cdc.c ****     *  length: Specifies the number of bytes to send from the pData
 194:.\Generated_Source\PSoC5/USBFS_cdc.c ****     *  buffer. Maximum length will be limited by the maximum packet
 195:.\Generated_Source\PSoC5/USBFS_cdc.c ****     *  size for the endpoint.
 196:.\Generated_Source\PSoC5/USBFS_cdc.c ****     *
 197:.\Generated_Source\PSoC5/USBFS_cdc.c ****     * Return:
 198:.\Generated_Source\PSoC5/USBFS_cdc.c ****     *  None.
 199:.\Generated_Source\PSoC5/USBFS_cdc.c ****     *
 200:.\Generated_Source\PSoC5/USBFS_cdc.c ****     * Global variables:
 201:.\Generated_Source\PSoC5/USBFS_cdc.c ****     *   USBFS_cdc_data_in_ep: CDC IN endpoint number used for sending
 202:.\Generated_Source\PSoC5/USBFS_cdc.c ****     *     data.
 203:.\Generated_Source\PSoC5/USBFS_cdc.c ****     *
 204:.\Generated_Source\PSoC5/USBFS_cdc.c ****     * Reentrant:
 205:.\Generated_Source\PSoC5/USBFS_cdc.c ****     *  No.
 206:.\Generated_Source\PSoC5/USBFS_cdc.c ****     *
 207:.\Generated_Source\PSoC5/USBFS_cdc.c ****     *******************************************************************************/
 208:.\Generated_Source\PSoC5/USBFS_cdc.c ****     void USBFS_PutData(uint8* pData, uint16 length) 
 209:.\Generated_Source\PSoC5/USBFS_cdc.c ****     {
 218              		.loc 1 209 0
 219              		.cfi_startproc
 220              		@ args = 0, pretend = 0, frame = 8
 221              		@ frame_needed = 1, uses_anonymous_args = 0
 222 0000 80B5     		push	{r7, lr}
 223              	.LCFI5:
 224              		.cfi_def_cfa_offset 8
 225 0002 82B0     		sub	sp, sp, #8
 226              	.LCFI6:
 227              		.cfi_def_cfa_offset 16
 228 0004 00AF     		add	r7, sp, #0
 229              		.cfi_offset 14, -4
 230              		.cfi_offset 7, -8
 231              	.LCFI7:
 232              		.cfi_def_cfa_register 7
 233 0006 7860     		str	r0, [r7, #4]
 234 0008 0B46     		mov	r3, r1
 235 000a 7B80     		strh	r3, [r7, #2]	@ movhi
 210:.\Generated_Source\PSoC5/USBFS_cdc.c ****         /* Limits length to maximim packet size for the EP */
 211:.\Generated_Source\PSoC5/USBFS_cdc.c ****         if(length > USBFS_EP[USBFS_cdc_data_in_ep].bufferSize)
 236              		.loc 1 211 0
 237 000c 40F20003 		movw	r3, #:lower16:USBFS_cdc_data_in_ep
 238 0010 C0F20003 		movt	r3, #:upper16:USBFS_cdc_data_in_ep
 239 0014 1B78     		ldrb	r3, [r3, #0]
 240 0016 DBB2     		uxtb	r3, r3
 241 0018 1946     		mov	r1, r3
ARM GAS  C:\DOCUME~1\ADMINI~1\LOCALS~1\Temp\cc7imiBl.s 			page 9


 242 001a 40F20002 		movw	r2, #:lower16:USBFS_EP
 243 001e C0F20002 		movt	r2, #:upper16:USBFS_EP
 244 0022 0B46     		mov	r3, r1
 245 0024 4FEA4303 		lsl	r3, r3, #1
 246 0028 0B44     		add	r3, r3, r1
 247 002a 4FEA8303 		lsl	r3, r3, #2
 248 002e 1344     		add	r3, r3, r2
 249 0030 03F10803 		add	r3, r3, #8
 250 0034 1B88     		ldrh	r3, [r3, #0]	@ movhi
 251 0036 9BB2     		uxth	r3, r3
 252 0038 7A88     		ldrh	r2, [r7, #2]
 253 003a 9A42     		cmp	r2, r3
 254 003c 15D9     		bls	.L13
 212:.\Generated_Source\PSoC5/USBFS_cdc.c ****         {
 213:.\Generated_Source\PSoC5/USBFS_cdc.c ****             length = USBFS_EP[USBFS_cdc_data_in_ep].bufferSize;
 255              		.loc 1 213 0
 256 003e 40F20003 		movw	r3, #:lower16:USBFS_cdc_data_in_ep
 257 0042 C0F20003 		movt	r3, #:upper16:USBFS_cdc_data_in_ep
 258 0046 1B78     		ldrb	r3, [r3, #0]
 259 0048 DBB2     		uxtb	r3, r3
 260 004a 1946     		mov	r1, r3
 261 004c 40F20002 		movw	r2, #:lower16:USBFS_EP
 262 0050 C0F20002 		movt	r2, #:upper16:USBFS_EP
 263 0054 0B46     		mov	r3, r1
 264 0056 4FEA4303 		lsl	r3, r3, #1
 265 005a 0B44     		add	r3, r3, r1
 266 005c 4FEA8303 		lsl	r3, r3, #2
 267 0060 1344     		add	r3, r3, r2
 268 0062 03F10803 		add	r3, r3, #8
 269 0066 1B88     		ldrh	r3, [r3, #0]	@ movhi
 270 0068 7B80     		strh	r3, [r7, #2]	@ movhi
 271              	.L13:
 214:.\Generated_Source\PSoC5/USBFS_cdc.c ****         }
 215:.\Generated_Source\PSoC5/USBFS_cdc.c ****         USBFS_LoadInEP(USBFS_cdc_data_in_ep, pData, length);
 272              		.loc 1 215 0
 273 006a 40F20003 		movw	r3, #:lower16:USBFS_cdc_data_in_ep
 274 006e C0F20003 		movt	r3, #:upper16:USBFS_cdc_data_in_ep
 275 0072 1B78     		ldrb	r3, [r3, #0]
 276 0074 DAB2     		uxtb	r2, r3
 277 0076 7B88     		ldrh	r3, [r7, #2]
 278 0078 1046     		mov	r0, r2
 279 007a 7968     		ldr	r1, [r7, #4]
 280 007c 1A46     		mov	r2, r3
 281 007e FFF7FEFF 		bl	USBFS_LoadInEP
 216:.\Generated_Source\PSoC5/USBFS_cdc.c ****     }
 282              		.loc 1 216 0
 283 0082 07F10807 		add	r7, r7, #8
 284 0086 BD46     		mov	sp, r7
 285 0088 80BD     		pop	{r7, pc}
 286              		.cfi_endproc
 287              	.LFE2:
 288              		.size	USBFS_PutData, .-USBFS_PutData
 289 008a 00BF     		.section	.text.USBFS_PutString,"ax",%progbits
 290              		.align	2
 291              		.global	USBFS_PutString
 292              		.thumb
 293              		.thumb_func
ARM GAS  C:\DOCUME~1\ADMINI~1\LOCALS~1\Temp\cc7imiBl.s 			page 10


 294              		.type	USBFS_PutString, %function
 295              	USBFS_PutString:
 296              	.LFB3:
 217:.\Generated_Source\PSoC5/USBFS_cdc.c **** 
 218:.\Generated_Source\PSoC5/USBFS_cdc.c **** 
 219:.\Generated_Source\PSoC5/USBFS_cdc.c ****     /*******************************************************************************
 220:.\Generated_Source\PSoC5/USBFS_cdc.c ****     * Function Name: USBFS_PutString
 221:.\Generated_Source\PSoC5/USBFS_cdc.c ****     ********************************************************************************
 222:.\Generated_Source\PSoC5/USBFS_cdc.c ****     *
 223:.\Generated_Source\PSoC5/USBFS_cdc.c ****     * Summary:
 224:.\Generated_Source\PSoC5/USBFS_cdc.c ****     *  Sends a null terminated string to the PC.
 225:.\Generated_Source\PSoC5/USBFS_cdc.c ****     *
 226:.\Generated_Source\PSoC5/USBFS_cdc.c ****     * Parameters:
 227:.\Generated_Source\PSoC5/USBFS_cdc.c ****     *  string: pointer to the string to be sent to the PC
 228:.\Generated_Source\PSoC5/USBFS_cdc.c ****     *
 229:.\Generated_Source\PSoC5/USBFS_cdc.c ****     * Return:
 230:.\Generated_Source\PSoC5/USBFS_cdc.c ****     *  None.
 231:.\Generated_Source\PSoC5/USBFS_cdc.c ****     *
 232:.\Generated_Source\PSoC5/USBFS_cdc.c ****     * Global variables:
 233:.\Generated_Source\PSoC5/USBFS_cdc.c ****     *   USBFS_cdc_data_in_ep: CDC IN endpoint number used for sending
 234:.\Generated_Source\PSoC5/USBFS_cdc.c ****     *     data.
 235:.\Generated_Source\PSoC5/USBFS_cdc.c ****     *
 236:.\Generated_Source\PSoC5/USBFS_cdc.c ****     * Reentrant:
 237:.\Generated_Source\PSoC5/USBFS_cdc.c ****     *  No.
 238:.\Generated_Source\PSoC5/USBFS_cdc.c ****     *
 239:.\Generated_Source\PSoC5/USBFS_cdc.c ****     * Theory:
 240:.\Generated_Source\PSoC5/USBFS_cdc.c ****     *  This function will block if there is not enough memory to place the whole
 241:.\Generated_Source\PSoC5/USBFS_cdc.c ****     *  string, it will block until the entire string has been written to the
 242:.\Generated_Source\PSoC5/USBFS_cdc.c ****     *  transmit buffer.
 243:.\Generated_Source\PSoC5/USBFS_cdc.c ****     *
 244:.\Generated_Source\PSoC5/USBFS_cdc.c ****     *******************************************************************************/
 245:.\Generated_Source\PSoC5/USBFS_cdc.c ****     void USBFS_PutString(char8* string) 
 246:.\Generated_Source\PSoC5/USBFS_cdc.c ****     {
 297              		.loc 1 246 0
 298              		.cfi_startproc
 299              		@ args = 0, pretend = 0, frame = 16
 300              		@ frame_needed = 1, uses_anonymous_args = 0
 301 0000 80B5     		push	{r7, lr}
 302              	.LCFI8:
 303              		.cfi_def_cfa_offset 8
 304 0002 84B0     		sub	sp, sp, #16
 305              	.LCFI9:
 306              		.cfi_def_cfa_offset 24
 307 0004 00AF     		add	r7, sp, #0
 308              		.cfi_offset 14, -4
 309              		.cfi_offset 7, -8
 310              	.LCFI10:
 311              		.cfi_def_cfa_register 7
 312 0006 7860     		str	r0, [r7, #4]
 247:.\Generated_Source\PSoC5/USBFS_cdc.c ****         uint16 str_length;
 248:.\Generated_Source\PSoC5/USBFS_cdc.c ****         uint16 send_length;
 249:.\Generated_Source\PSoC5/USBFS_cdc.c **** 
 250:.\Generated_Source\PSoC5/USBFS_cdc.c ****         /* Get length of the null terminated string */
 251:.\Generated_Source\PSoC5/USBFS_cdc.c ****         str_length = strlen(string);
 313              		.loc 1 251 0
 314 0008 7868     		ldr	r0, [r7, #4]
 315 000a FFF7FEFF 		bl	strlen
ARM GAS  C:\DOCUME~1\ADMINI~1\LOCALS~1\Temp\cc7imiBl.s 			page 11


 316 000e 0346     		mov	r3, r0
 317 0010 BB81     		strh	r3, [r7, #12]	@ movhi
 318              	.L20:
 252:.\Generated_Source\PSoC5/USBFS_cdc.c ****         do
 253:.\Generated_Source\PSoC5/USBFS_cdc.c ****         {
 254:.\Generated_Source\PSoC5/USBFS_cdc.c ****             /* Limits length to maximim packet size for the EP */
 255:.\Generated_Source\PSoC5/USBFS_cdc.c ****             send_length = (str_length > USBFS_EP[USBFS_cdc_data_in_ep].bufferSize) ?
 319              		.loc 1 255 0
 320 0012 40F20003 		movw	r3, #:lower16:USBFS_cdc_data_in_ep
 321 0016 C0F20003 		movt	r3, #:upper16:USBFS_cdc_data_in_ep
 322 001a 1B78     		ldrb	r3, [r3, #0]
 323 001c DBB2     		uxtb	r3, r3
 324 001e 1946     		mov	r1, r3
 325 0020 40F20002 		movw	r2, #:lower16:USBFS_EP
 326 0024 C0F20002 		movt	r2, #:upper16:USBFS_EP
 327 0028 0B46     		mov	r3, r1
 328 002a 4FEA4303 		lsl	r3, r3, #1
 329 002e 0B44     		add	r3, r3, r1
 330 0030 4FEA8303 		lsl	r3, r3, #2
 331 0034 1344     		add	r3, r3, r2
 332 0036 03F10803 		add	r3, r3, #8
 333 003a 1B88     		ldrh	r3, [r3, #0]	@ movhi
 334 003c 9BB2     		uxth	r3, r3
 335 003e BA89     		ldrh	r2, [r7, #12]
 336 0040 9A42     		cmp	r2, r3
 337 0042 16D9     		bls	.L16
 338 0044 40F20003 		movw	r3, #:lower16:USBFS_cdc_data_in_ep
 339 0048 C0F20003 		movt	r3, #:upper16:USBFS_cdc_data_in_ep
 340 004c 1B78     		ldrb	r3, [r3, #0]
 341 004e DBB2     		uxtb	r3, r3
 342 0050 1946     		mov	r1, r3
 343 0052 40F20002 		movw	r2, #:lower16:USBFS_EP
 344 0056 C0F20002 		movt	r2, #:upper16:USBFS_EP
 345 005a 0B46     		mov	r3, r1
 346 005c 4FEA4303 		lsl	r3, r3, #1
 347 0060 0B44     		add	r3, r3, r1
 348 0062 4FEA8303 		lsl	r3, r3, #2
 349 0066 1344     		add	r3, r3, r2
 350 0068 03F10803 		add	r3, r3, #8
 351 006c 1B88     		ldrh	r3, [r3, #0]	@ movhi
 352 006e 9BB2     		uxth	r3, r3
 353 0070 00E0     		b	.L17
 354              	.L16:
 355 0072 BB89     		ldrh	r3, [r7, #12]
 356              	.L17:
 357 0074 FB81     		strh	r3, [r7, #14]	@ movhi
 256:.\Generated_Source\PSoC5/USBFS_cdc.c ****                           USBFS_EP[USBFS_cdc_data_in_ep].bufferSize : str_length;
 257:.\Generated_Source\PSoC5/USBFS_cdc.c ****              /* Enable IN transfer */
 258:.\Generated_Source\PSoC5/USBFS_cdc.c ****             USBFS_LoadInEP(USBFS_cdc_data_in_ep, (uint8 *)string, send_length);
 358              		.loc 1 258 0
 359 0076 40F20003 		movw	r3, #:lower16:USBFS_cdc_data_in_ep
 360 007a C0F20003 		movt	r3, #:upper16:USBFS_cdc_data_in_ep
 361 007e 1B78     		ldrb	r3, [r3, #0]
 362 0080 DAB2     		uxtb	r2, r3
 363 0082 FB89     		ldrh	r3, [r7, #14]
 364 0084 1046     		mov	r0, r2
 365 0086 7968     		ldr	r1, [r7, #4]
ARM GAS  C:\DOCUME~1\ADMINI~1\LOCALS~1\Temp\cc7imiBl.s 			page 12


 366 0088 1A46     		mov	r2, r3
 367 008a FFF7FEFF 		bl	USBFS_LoadInEP
 259:.\Generated_Source\PSoC5/USBFS_cdc.c ****             str_length -= send_length;
 368              		.loc 1 259 0
 369 008e BA89     		ldrh	r2, [r7, #12]	@ movhi
 370 0090 FB89     		ldrh	r3, [r7, #14]	@ movhi
 371 0092 C3EB0203 		rsb	r3, r3, r2
 372 0096 BB81     		strh	r3, [r7, #12]	@ movhi
 260:.\Generated_Source\PSoC5/USBFS_cdc.c **** 
 261:.\Generated_Source\PSoC5/USBFS_cdc.c ****             /* If more data are present to send */
 262:.\Generated_Source\PSoC5/USBFS_cdc.c ****             if(str_length > 0)
 373              		.loc 1 262 0
 374 0098 BB89     		ldrh	r3, [r7, #12]
 375 009a 002B     		cmp	r3, #0
 376 009c 19D0     		beq	.L18
 263:.\Generated_Source\PSoC5/USBFS_cdc.c ****             {
 264:.\Generated_Source\PSoC5/USBFS_cdc.c ****                 string += send_length;
 377              		.loc 1 264 0
 378 009e FB89     		ldrh	r3, [r7, #14]
 379 00a0 7A68     		ldr	r2, [r7, #4]
 380 00a2 1344     		add	r3, r2, r3
 381 00a4 7B60     		str	r3, [r7, #4]
 382              	.L19:
 265:.\Generated_Source\PSoC5/USBFS_cdc.c ****                 /* Wait for the Host to read it. */
 266:.\Generated_Source\PSoC5/USBFS_cdc.c ****                 while(USBFS_EP[USBFS_cdc_data_in_ep].apiEpState ==
 383              		.loc 1 266 0
 384 00a6 40F20003 		movw	r3, #:lower16:USBFS_cdc_data_in_ep
 385 00aa C0F20003 		movt	r3, #:upper16:USBFS_cdc_data_in_ep
 386 00ae 1B78     		ldrb	r3, [r3, #0]
 387 00b0 DBB2     		uxtb	r3, r3
 388 00b2 1946     		mov	r1, r3
 389 00b4 40F20002 		movw	r2, #:lower16:USBFS_EP
 390 00b8 C0F20002 		movt	r2, #:upper16:USBFS_EP
 391 00bc 0B46     		mov	r3, r1
 392 00be 4FEA4303 		lsl	r3, r3, #1
 393 00c2 0B44     		add	r3, r3, r1
 394 00c4 4FEA8303 		lsl	r3, r3, #2
 395 00c8 1344     		add	r3, r3, r2
 396 00ca 5B78     		ldrb	r3, [r3, #1]
 397 00cc DBB2     		uxtb	r3, r3
 398 00ce 002B     		cmp	r3, #0
 399 00d0 E9D0     		beq	.L19
 400              	.L18:
 267:.\Generated_Source\PSoC5/USBFS_cdc.c ****                                           USBFS_IN_BUFFER_FULL);
 268:.\Generated_Source\PSoC5/USBFS_cdc.c ****             }
 269:.\Generated_Source\PSoC5/USBFS_cdc.c ****         }while(str_length > 0);
 401              		.loc 1 269 0
 402 00d2 BB89     		ldrh	r3, [r7, #12]
 403 00d4 002B     		cmp	r3, #0
 404 00d6 9CD1     		bne	.L20
 270:.\Generated_Source\PSoC5/USBFS_cdc.c ****     }
 405              		.loc 1 270 0
 406 00d8 07F11007 		add	r7, r7, #16
 407 00dc BD46     		mov	sp, r7
 408 00de 80BD     		pop	{r7, pc}
 409              		.cfi_endproc
 410              	.LFE3:
ARM GAS  C:\DOCUME~1\ADMINI~1\LOCALS~1\Temp\cc7imiBl.s 			page 13


 411              		.size	USBFS_PutString, .-USBFS_PutString
 412              		.section	.text.USBFS_PutChar,"ax",%progbits
 413              		.align	2
 414              		.global	USBFS_PutChar
 415              		.thumb
 416              		.thumb_func
 417              		.type	USBFS_PutChar, %function
 418              	USBFS_PutChar:
 419              	.LFB4:
 271:.\Generated_Source\PSoC5/USBFS_cdc.c **** 
 272:.\Generated_Source\PSoC5/USBFS_cdc.c **** 
 273:.\Generated_Source\PSoC5/USBFS_cdc.c ****     /*******************************************************************************
 274:.\Generated_Source\PSoC5/USBFS_cdc.c ****     * Function Name: USBFS_PutChar
 275:.\Generated_Source\PSoC5/USBFS_cdc.c ****     ********************************************************************************
 276:.\Generated_Source\PSoC5/USBFS_cdc.c ****     *
 277:.\Generated_Source\PSoC5/USBFS_cdc.c ****     * Summary:
 278:.\Generated_Source\PSoC5/USBFS_cdc.c ****     *  Writes a single character to the PC.
 279:.\Generated_Source\PSoC5/USBFS_cdc.c ****     *
 280:.\Generated_Source\PSoC5/USBFS_cdc.c ****     * Parameters:
 281:.\Generated_Source\PSoC5/USBFS_cdc.c ****     *  txDataByte: Character to be sent to the PC.
 282:.\Generated_Source\PSoC5/USBFS_cdc.c ****     *
 283:.\Generated_Source\PSoC5/USBFS_cdc.c ****     * Return:
 284:.\Generated_Source\PSoC5/USBFS_cdc.c ****     *  None.
 285:.\Generated_Source\PSoC5/USBFS_cdc.c ****     *
 286:.\Generated_Source\PSoC5/USBFS_cdc.c ****     * Global variables:
 287:.\Generated_Source\PSoC5/USBFS_cdc.c ****     *   USBFS_cdc_data_in_ep: CDC IN endpoint number used for sending
 288:.\Generated_Source\PSoC5/USBFS_cdc.c ****     *     data.
 289:.\Generated_Source\PSoC5/USBFS_cdc.c ****     *
 290:.\Generated_Source\PSoC5/USBFS_cdc.c ****     * Reentrant:
 291:.\Generated_Source\PSoC5/USBFS_cdc.c ****     *  No.
 292:.\Generated_Source\PSoC5/USBFS_cdc.c ****     *
 293:.\Generated_Source\PSoC5/USBFS_cdc.c ****     *******************************************************************************/
 294:.\Generated_Source\PSoC5/USBFS_cdc.c ****     void USBFS_PutChar(char8 txDataByte) 
 295:.\Generated_Source\PSoC5/USBFS_cdc.c ****     {
 420              		.loc 1 295 0
 421              		.cfi_startproc
 422              		@ args = 0, pretend = 0, frame = 8
 423              		@ frame_needed = 1, uses_anonymous_args = 0
 424 0000 80B5     		push	{r7, lr}
 425              	.LCFI11:
 426              		.cfi_def_cfa_offset 8
 427 0002 82B0     		sub	sp, sp, #8
 428              	.LCFI12:
 429              		.cfi_def_cfa_offset 16
 430 0004 00AF     		add	r7, sp, #0
 431              		.cfi_offset 14, -4
 432              		.cfi_offset 7, -8
 433              	.LCFI13:
 434              		.cfi_def_cfa_register 7
 435 0006 0346     		mov	r3, r0
 436 0008 FB71     		strb	r3, [r7, #7]
 296:.\Generated_Source\PSoC5/USBFS_cdc.c ****         USBFS_LoadInEP(USBFS_cdc_data_in_ep, (uint8 *)&txDataByte, 1u);
 437              		.loc 1 296 0
 438 000a 40F20003 		movw	r3, #:lower16:USBFS_cdc_data_in_ep
 439 000e C0F20003 		movt	r3, #:upper16:USBFS_cdc_data_in_ep
 440 0012 1B78     		ldrb	r3, [r3, #0]
 441 0014 DAB2     		uxtb	r2, r3
ARM GAS  C:\DOCUME~1\ADMINI~1\LOCALS~1\Temp\cc7imiBl.s 			page 14


 442 0016 07F10703 		add	r3, r7, #7
 443 001a 1046     		mov	r0, r2
 444 001c 1946     		mov	r1, r3
 445 001e 4FF00102 		mov	r2, #1
 446 0022 FFF7FEFF 		bl	USBFS_LoadInEP
 297:.\Generated_Source\PSoC5/USBFS_cdc.c ****     }
 447              		.loc 1 297 0
 448 0026 07F10807 		add	r7, r7, #8
 449 002a BD46     		mov	sp, r7
 450 002c 80BD     		pop	{r7, pc}
 451              		.cfi_endproc
 452              	.LFE4:
 453              		.size	USBFS_PutChar, .-USBFS_PutChar
 454 002e 00BF     		.section	.text.USBFS_PutCRLF,"ax",%progbits
 455              		.align	2
 456              		.global	USBFS_PutCRLF
 457              		.thumb
 458              		.thumb_func
 459              		.type	USBFS_PutCRLF, %function
 460              	USBFS_PutCRLF:
 461              	.LFB5:
 298:.\Generated_Source\PSoC5/USBFS_cdc.c **** 
 299:.\Generated_Source\PSoC5/USBFS_cdc.c **** 
 300:.\Generated_Source\PSoC5/USBFS_cdc.c ****     /*******************************************************************************
 301:.\Generated_Source\PSoC5/USBFS_cdc.c ****     * Function Name: USBFS_PutCRLF
 302:.\Generated_Source\PSoC5/USBFS_cdc.c ****     ********************************************************************************
 303:.\Generated_Source\PSoC5/USBFS_cdc.c ****     *
 304:.\Generated_Source\PSoC5/USBFS_cdc.c ****     * Summary:
 305:.\Generated_Source\PSoC5/USBFS_cdc.c ****     *  Sends a carriage return (0x0D) and line feed (0x0A) to the PC
 306:.\Generated_Source\PSoC5/USBFS_cdc.c ****     *
 307:.\Generated_Source\PSoC5/USBFS_cdc.c ****     * Parameters:
 308:.\Generated_Source\PSoC5/USBFS_cdc.c ****     *  None.
 309:.\Generated_Source\PSoC5/USBFS_cdc.c ****     *
 310:.\Generated_Source\PSoC5/USBFS_cdc.c ****     * Return:
 311:.\Generated_Source\PSoC5/USBFS_cdc.c ****     *  None.
 312:.\Generated_Source\PSoC5/USBFS_cdc.c ****     *
 313:.\Generated_Source\PSoC5/USBFS_cdc.c ****     * Global variables:
 314:.\Generated_Source\PSoC5/USBFS_cdc.c ****     *   USBFS_cdc_data_in_ep: CDC IN endpoint number used for sending
 315:.\Generated_Source\PSoC5/USBFS_cdc.c ****     *     data.
 316:.\Generated_Source\PSoC5/USBFS_cdc.c ****     *
 317:.\Generated_Source\PSoC5/USBFS_cdc.c ****     * Reentrant:
 318:.\Generated_Source\PSoC5/USBFS_cdc.c ****     *  No.
 319:.\Generated_Source\PSoC5/USBFS_cdc.c ****     *
 320:.\Generated_Source\PSoC5/USBFS_cdc.c ****     *******************************************************************************/
 321:.\Generated_Source\PSoC5/USBFS_cdc.c ****     void USBFS_PutCRLF(void) 
 322:.\Generated_Source\PSoC5/USBFS_cdc.c ****     {
 462              		.loc 1 322 0
 463              		.cfi_startproc
 464              		@ args = 0, pretend = 0, frame = 8
 465              		@ frame_needed = 1, uses_anonymous_args = 0
 466 0000 80B5     		push	{r7, lr}
 467              	.LCFI14:
 468              		.cfi_def_cfa_offset 8
 469 0002 82B0     		sub	sp, sp, #8
 470              	.LCFI15:
 471              		.cfi_def_cfa_offset 16
 472 0004 00AF     		add	r7, sp, #0
ARM GAS  C:\DOCUME~1\ADMINI~1\LOCALS~1\Temp\cc7imiBl.s 			page 15


 473              		.cfi_offset 14, -4
 474              		.cfi_offset 7, -8
 475              	.LCFI16:
 476              		.cfi_def_cfa_register 7
 323:.\Generated_Source\PSoC5/USBFS_cdc.c ****         const uint8 CYCODE txData[] = {0x0Du, 0x0Au};
 477              		.loc 1 323 0
 478 0006 40F20003 		movw	r3, #:lower16:C.18.2186
 479 000a C0F20003 		movt	r3, #:upper16:C.18.2186
 480 000e 1B88     		ldrh	r3, [r3, #0]	@ movhi
 481 0010 BB80     		strh	r3, [r7, #4]	@ movhi
 324:.\Generated_Source\PSoC5/USBFS_cdc.c **** 
 325:.\Generated_Source\PSoC5/USBFS_cdc.c ****         USBFS_LoadInEP(USBFS_cdc_data_in_ep, (uint8 *)txData, 2u);
 482              		.loc 1 325 0
 483 0012 40F20003 		movw	r3, #:lower16:USBFS_cdc_data_in_ep
 484 0016 C0F20003 		movt	r3, #:upper16:USBFS_cdc_data_in_ep
 485 001a 1B78     		ldrb	r3, [r3, #0]
 486 001c DAB2     		uxtb	r2, r3
 487 001e 07F10403 		add	r3, r7, #4
 488 0022 1046     		mov	r0, r2
 489 0024 1946     		mov	r1, r3
 490 0026 4FF00202 		mov	r2, #2
 491 002a FFF7FEFF 		bl	USBFS_LoadInEP
 326:.\Generated_Source\PSoC5/USBFS_cdc.c ****     }
 492              		.loc 1 326 0
 493 002e 07F10807 		add	r7, r7, #8
 494 0032 BD46     		mov	sp, r7
 495 0034 80BD     		pop	{r7, pc}
 496              		.cfi_endproc
 497              	.LFE5:
 498              		.size	USBFS_PutCRLF, .-USBFS_PutCRLF
 499 0036 00BF     		.section	.text.USBFS_GetCount,"ax",%progbits
 500              		.align	2
 501              		.global	USBFS_GetCount
 502              		.thumb
 503              		.thumb_func
 504              		.type	USBFS_GetCount, %function
 505              	USBFS_GetCount:
 506              	.LFB6:
 327:.\Generated_Source\PSoC5/USBFS_cdc.c **** 
 328:.\Generated_Source\PSoC5/USBFS_cdc.c **** 
 329:.\Generated_Source\PSoC5/USBFS_cdc.c ****     /*******************************************************************************
 330:.\Generated_Source\PSoC5/USBFS_cdc.c ****     * Function Name: USBFS_GetCount
 331:.\Generated_Source\PSoC5/USBFS_cdc.c ****     ********************************************************************************
 332:.\Generated_Source\PSoC5/USBFS_cdc.c ****     *
 333:.\Generated_Source\PSoC5/USBFS_cdc.c ****     * Summary:
 334:.\Generated_Source\PSoC5/USBFS_cdc.c ****     *  This function returns the number of bytes that were received from the PC.
 335:.\Generated_Source\PSoC5/USBFS_cdc.c ****     *
 336:.\Generated_Source\PSoC5/USBFS_cdc.c ****     * Parameters:
 337:.\Generated_Source\PSoC5/USBFS_cdc.c ****     *  None.
 338:.\Generated_Source\PSoC5/USBFS_cdc.c ****     *
 339:.\Generated_Source\PSoC5/USBFS_cdc.c ****     * Return:
 340:.\Generated_Source\PSoC5/USBFS_cdc.c ****     *  Returns the number of received bytes.
 341:.\Generated_Source\PSoC5/USBFS_cdc.c ****     *
 342:.\Generated_Source\PSoC5/USBFS_cdc.c ****     * Global variables:
 343:.\Generated_Source\PSoC5/USBFS_cdc.c ****     *   USBFS_cdc_data_out_ep: CDC OUT endpoint number used.
 344:.\Generated_Source\PSoC5/USBFS_cdc.c ****     *
 345:.\Generated_Source\PSoC5/USBFS_cdc.c ****     *******************************************************************************/
ARM GAS  C:\DOCUME~1\ADMINI~1\LOCALS~1\Temp\cc7imiBl.s 			page 16


 346:.\Generated_Source\PSoC5/USBFS_cdc.c ****     uint16 USBFS_GetCount(void) 
 347:.\Generated_Source\PSoC5/USBFS_cdc.c ****     {
 507              		.loc 1 347 0
 508              		.cfi_startproc
 509              		@ args = 0, pretend = 0, frame = 8
 510              		@ frame_needed = 1, uses_anonymous_args = 0
 511 0000 80B5     		push	{r7, lr}
 512              	.LCFI17:
 513              		.cfi_def_cfa_offset 8
 514 0002 82B0     		sub	sp, sp, #8
 515              	.LCFI18:
 516              		.cfi_def_cfa_offset 16
 517 0004 00AF     		add	r7, sp, #0
 518              		.cfi_offset 14, -4
 519              		.cfi_offset 7, -8
 520              	.LCFI19:
 521              		.cfi_def_cfa_register 7
 348:.\Generated_Source\PSoC5/USBFS_cdc.c ****         uint8 bytesCount = 0u;
 522              		.loc 1 348 0
 523 0006 4FF00003 		mov	r3, #0
 524 000a FB71     		strb	r3, [r7, #7]
 349:.\Generated_Source\PSoC5/USBFS_cdc.c **** 
 350:.\Generated_Source\PSoC5/USBFS_cdc.c ****         if (USBFS_EP[USBFS_cdc_data_out_ep].apiEpState == USBFS_OUT_BUFFER_FULL)
 525              		.loc 1 350 0
 526 000c 40F20003 		movw	r3, #:lower16:USBFS_cdc_data_out_ep
 527 0010 C0F20003 		movt	r3, #:upper16:USBFS_cdc_data_out_ep
 528 0014 1B78     		ldrb	r3, [r3, #0]
 529 0016 DBB2     		uxtb	r3, r3
 530 0018 1946     		mov	r1, r3
 531 001a 40F20002 		movw	r2, #:lower16:USBFS_EP
 532 001e C0F20002 		movt	r2, #:upper16:USBFS_EP
 533 0022 0B46     		mov	r3, r1
 534 0024 4FEA4303 		lsl	r3, r3, #1
 535 0028 0B44     		add	r3, r3, r1
 536 002a 4FEA8303 		lsl	r3, r3, #2
 537 002e 1344     		add	r3, r3, r2
 538 0030 5B78     		ldrb	r3, [r3, #1]
 539 0032 DBB2     		uxtb	r3, r3
 540 0034 012B     		cmp	r3, #1
 541 0036 0AD1     		bne	.L27
 351:.\Generated_Source\PSoC5/USBFS_cdc.c ****         {
 352:.\Generated_Source\PSoC5/USBFS_cdc.c ****             bytesCount = USBFS_GetEPCount(USBFS_cdc_data_out_ep);
 542              		.loc 1 352 0
 543 0038 40F20003 		movw	r3, #:lower16:USBFS_cdc_data_out_ep
 544 003c C0F20003 		movt	r3, #:upper16:USBFS_cdc_data_out_ep
 545 0040 1B78     		ldrb	r3, [r3, #0]
 546 0042 DBB2     		uxtb	r3, r3
 547 0044 1846     		mov	r0, r3
 548 0046 FFF7FEFF 		bl	USBFS_GetEPCount
 549 004a 0346     		mov	r3, r0
 550 004c FB71     		strb	r3, [r7, #7]
 551              	.L27:
 353:.\Generated_Source\PSoC5/USBFS_cdc.c ****         }
 354:.\Generated_Source\PSoC5/USBFS_cdc.c **** 
 355:.\Generated_Source\PSoC5/USBFS_cdc.c ****         return(bytesCount);
 552              		.loc 1 355 0
 553 004e FB79     		ldrb	r3, [r7, #7]	@ zero_extendqisi2
ARM GAS  C:\DOCUME~1\ADMINI~1\LOCALS~1\Temp\cc7imiBl.s 			page 17


 356:.\Generated_Source\PSoC5/USBFS_cdc.c ****     }
 554              		.loc 1 356 0
 555 0050 1846     		mov	r0, r3
 556 0052 07F10807 		add	r7, r7, #8
 557 0056 BD46     		mov	sp, r7
 558 0058 80BD     		pop	{r7, pc}
 559              		.cfi_endproc
 560              	.LFE6:
 561              		.size	USBFS_GetCount, .-USBFS_GetCount
 562 005a 00BF     		.section	.text.USBFS_DataIsReady,"ax",%progbits
 563              		.align	2
 564              		.global	USBFS_DataIsReady
 565              		.thumb
 566              		.thumb_func
 567              		.type	USBFS_DataIsReady, %function
 568              	USBFS_DataIsReady:
 569              	.LFB7:
 357:.\Generated_Source\PSoC5/USBFS_cdc.c **** 
 358:.\Generated_Source\PSoC5/USBFS_cdc.c **** 
 359:.\Generated_Source\PSoC5/USBFS_cdc.c ****     /*******************************************************************************
 360:.\Generated_Source\PSoC5/USBFS_cdc.c ****     * Function Name: USBFS_DataIsReady
 361:.\Generated_Source\PSoC5/USBFS_cdc.c ****     ********************************************************************************
 362:.\Generated_Source\PSoC5/USBFS_cdc.c ****     *
 363:.\Generated_Source\PSoC5/USBFS_cdc.c ****     * Summary:
 364:.\Generated_Source\PSoC5/USBFS_cdc.c ****     *  Returns a nonzero value if the component received data or received
 365:.\Generated_Source\PSoC5/USBFS_cdc.c ****     *  zero-length packet. The GetAll() or GetData() API should be called to read
 366:.\Generated_Source\PSoC5/USBFS_cdc.c ****     *  data from the buffer and reinit OUT endpoint even when zero-length packet
 367:.\Generated_Source\PSoC5/USBFS_cdc.c ****     *  received.
 368:.\Generated_Source\PSoC5/USBFS_cdc.c ****     *
 369:.\Generated_Source\PSoC5/USBFS_cdc.c ****     * Parameters:
 370:.\Generated_Source\PSoC5/USBFS_cdc.c ****     *  None.
 371:.\Generated_Source\PSoC5/USBFS_cdc.c ****     *
 372:.\Generated_Source\PSoC5/USBFS_cdc.c ****     * Return:
 373:.\Generated_Source\PSoC5/USBFS_cdc.c ****     *  If the OUT packet received this function returns a nonzero value.
 374:.\Generated_Source\PSoC5/USBFS_cdc.c ****     *  Otherwise zero is returned.
 375:.\Generated_Source\PSoC5/USBFS_cdc.c ****     *
 376:.\Generated_Source\PSoC5/USBFS_cdc.c ****     * Global variables:
 377:.\Generated_Source\PSoC5/USBFS_cdc.c ****     *   USBFS_cdc_data_out_ep: CDC OUT endpoint number used.
 378:.\Generated_Source\PSoC5/USBFS_cdc.c ****     *
 379:.\Generated_Source\PSoC5/USBFS_cdc.c ****     *******************************************************************************/
 380:.\Generated_Source\PSoC5/USBFS_cdc.c ****     uint8 USBFS_DataIsReady(void) 
 381:.\Generated_Source\PSoC5/USBFS_cdc.c ****     {
 570              		.loc 1 381 0
 571              		.cfi_startproc
 572              		@ args = 0, pretend = 0, frame = 0
 573              		@ frame_needed = 1, uses_anonymous_args = 0
 574              		@ link register save eliminated.
 575 0000 80B4     		push	{r7}
 576              	.LCFI20:
 577              		.cfi_def_cfa_offset 4
 578 0002 00AF     		add	r7, sp, #0
 579              		.cfi_offset 7, -4
 580              	.LCFI21:
 581              		.cfi_def_cfa_register 7
 382:.\Generated_Source\PSoC5/USBFS_cdc.c ****         return(USBFS_EP[USBFS_cdc_data_out_ep].apiEpState);
 582              		.loc 1 382 0
 583 0004 40F20003 		movw	r3, #:lower16:USBFS_cdc_data_out_ep
ARM GAS  C:\DOCUME~1\ADMINI~1\LOCALS~1\Temp\cc7imiBl.s 			page 18


 584 0008 C0F20003 		movt	r3, #:upper16:USBFS_cdc_data_out_ep
 585 000c 1B78     		ldrb	r3, [r3, #0]
 586 000e DBB2     		uxtb	r3, r3
 587 0010 1946     		mov	r1, r3
 588 0012 40F20002 		movw	r2, #:lower16:USBFS_EP
 589 0016 C0F20002 		movt	r2, #:upper16:USBFS_EP
 590 001a 0B46     		mov	r3, r1
 591 001c 4FEA4303 		lsl	r3, r3, #1
 592 0020 0B44     		add	r3, r3, r1
 593 0022 4FEA8303 		lsl	r3, r3, #2
 594 0026 1344     		add	r3, r3, r2
 595 0028 5B78     		ldrb	r3, [r3, #1]
 596 002a DBB2     		uxtb	r3, r3
 383:.\Generated_Source\PSoC5/USBFS_cdc.c ****     }
 597              		.loc 1 383 0
 598 002c 1846     		mov	r0, r3
 599 002e BD46     		mov	sp, r7
 600 0030 80BC     		pop	{r7}
 601 0032 7047     		bx	lr
 602              		.cfi_endproc
 603              	.LFE7:
 604              		.size	USBFS_DataIsReady, .-USBFS_DataIsReady
 605              		.section	.text.USBFS_CDCIsReady,"ax",%progbits
 606              		.align	2
 607              		.global	USBFS_CDCIsReady
 608              		.thumb
 609              		.thumb_func
 610              		.type	USBFS_CDCIsReady, %function
 611              	USBFS_CDCIsReady:
 612              	.LFB8:
 384:.\Generated_Source\PSoC5/USBFS_cdc.c **** 
 385:.\Generated_Source\PSoC5/USBFS_cdc.c **** 
 386:.\Generated_Source\PSoC5/USBFS_cdc.c ****     /*******************************************************************************
 387:.\Generated_Source\PSoC5/USBFS_cdc.c ****     * Function Name: USBFS_CDCIsReady
 388:.\Generated_Source\PSoC5/USBFS_cdc.c ****     ********************************************************************************
 389:.\Generated_Source\PSoC5/USBFS_cdc.c ****     *
 390:.\Generated_Source\PSoC5/USBFS_cdc.c ****     * Summary:
 391:.\Generated_Source\PSoC5/USBFS_cdc.c ****     *  Returns a nonzero value if the component is ready to send more data to the
 392:.\Generated_Source\PSoC5/USBFS_cdc.c ****     *  PC. Otherwise returns zero. Should be called before sending new data to
 393:.\Generated_Source\PSoC5/USBFS_cdc.c ****     *  ensure the previous data has finished sending.This function returns the
 394:.\Generated_Source\PSoC5/USBFS_cdc.c ****     *  number of bytes that were received from the PC.
 395:.\Generated_Source\PSoC5/USBFS_cdc.c ****     *
 396:.\Generated_Source\PSoC5/USBFS_cdc.c ****     * Parameters:
 397:.\Generated_Source\PSoC5/USBFS_cdc.c ****     *  None.
 398:.\Generated_Source\PSoC5/USBFS_cdc.c ****     *
 399:.\Generated_Source\PSoC5/USBFS_cdc.c ****     * Return:
 400:.\Generated_Source\PSoC5/USBFS_cdc.c ****     *  If the buffer can accept new data then this function returns a nonzero value.
 401:.\Generated_Source\PSoC5/USBFS_cdc.c ****     *  Otherwise zero is returned.
 402:.\Generated_Source\PSoC5/USBFS_cdc.c ****     *
 403:.\Generated_Source\PSoC5/USBFS_cdc.c ****     * Global variables:
 404:.\Generated_Source\PSoC5/USBFS_cdc.c ****     *   USBFS_cdc_data_in_ep: CDC IN endpoint number used.
 405:.\Generated_Source\PSoC5/USBFS_cdc.c ****     *
 406:.\Generated_Source\PSoC5/USBFS_cdc.c ****     *******************************************************************************/
 407:.\Generated_Source\PSoC5/USBFS_cdc.c ****     uint8 USBFS_CDCIsReady(void) 
 408:.\Generated_Source\PSoC5/USBFS_cdc.c ****     {
 613              		.loc 1 408 0
 614              		.cfi_startproc
ARM GAS  C:\DOCUME~1\ADMINI~1\LOCALS~1\Temp\cc7imiBl.s 			page 19


 615              		@ args = 0, pretend = 0, frame = 0
 616              		@ frame_needed = 1, uses_anonymous_args = 0
 617              		@ link register save eliminated.
 618 0000 80B4     		push	{r7}
 619              	.LCFI22:
 620              		.cfi_def_cfa_offset 4
 621 0002 00AF     		add	r7, sp, #0
 622              		.cfi_offset 7, -4
 623              	.LCFI23:
 624              		.cfi_def_cfa_register 7
 409:.\Generated_Source\PSoC5/USBFS_cdc.c ****         return(USBFS_EP[USBFS_cdc_data_in_ep].apiEpState);
 625              		.loc 1 409 0
 626 0004 40F20003 		movw	r3, #:lower16:USBFS_cdc_data_in_ep
 627 0008 C0F20003 		movt	r3, #:upper16:USBFS_cdc_data_in_ep
 628 000c 1B78     		ldrb	r3, [r3, #0]
 629 000e DBB2     		uxtb	r3, r3
 630 0010 1946     		mov	r1, r3
 631 0012 40F20002 		movw	r2, #:lower16:USBFS_EP
 632 0016 C0F20002 		movt	r2, #:upper16:USBFS_EP
 633 001a 0B46     		mov	r3, r1
 634 001c 4FEA4303 		lsl	r3, r3, #1
 635 0020 0B44     		add	r3, r3, r1
 636 0022 4FEA8303 		lsl	r3, r3, #2
 637 0026 1344     		add	r3, r3, r2
 638 0028 5B78     		ldrb	r3, [r3, #1]
 639 002a DBB2     		uxtb	r3, r3
 410:.\Generated_Source\PSoC5/USBFS_cdc.c ****     }
 640              		.loc 1 410 0
 641 002c 1846     		mov	r0, r3
 642 002e BD46     		mov	sp, r7
 643 0030 80BC     		pop	{r7}
 644 0032 7047     		bx	lr
 645              		.cfi_endproc
 646              	.LFE8:
 647              		.size	USBFS_CDCIsReady, .-USBFS_CDCIsReady
 648              		.section	.text.USBFS_GetData,"ax",%progbits
 649              		.align	2
 650              		.global	USBFS_GetData
 651              		.thumb
 652              		.thumb_func
 653              		.type	USBFS_GetData, %function
 654              	USBFS_GetData:
 655              	.LFB9:
 411:.\Generated_Source\PSoC5/USBFS_cdc.c **** 
 412:.\Generated_Source\PSoC5/USBFS_cdc.c **** 
 413:.\Generated_Source\PSoC5/USBFS_cdc.c ****     /*******************************************************************************
 414:.\Generated_Source\PSoC5/USBFS_cdc.c ****     * Function Name: USBFS_GetData
 415:.\Generated_Source\PSoC5/USBFS_cdc.c ****     ********************************************************************************
 416:.\Generated_Source\PSoC5/USBFS_cdc.c ****     *
 417:.\Generated_Source\PSoC5/USBFS_cdc.c ****     * Summary:
 418:.\Generated_Source\PSoC5/USBFS_cdc.c ****     *  Gets a specified number of bytes from the input buffer and places it in a
 419:.\Generated_Source\PSoC5/USBFS_cdc.c ****     *  data array specified by the passed pointer.
 420:.\Generated_Source\PSoC5/USBFS_cdc.c ****     *  USBFS_DataIsReady() API should be called before, to be sure
 421:.\Generated_Source\PSoC5/USBFS_cdc.c ****     *  that data is received from the Host.
 422:.\Generated_Source\PSoC5/USBFS_cdc.c ****     *
 423:.\Generated_Source\PSoC5/USBFS_cdc.c ****     * Parameters:
 424:.\Generated_Source\PSoC5/USBFS_cdc.c ****     *  pData: Pointer to the data array where data will be placed.
ARM GAS  C:\DOCUME~1\ADMINI~1\LOCALS~1\Temp\cc7imiBl.s 			page 20


 425:.\Generated_Source\PSoC5/USBFS_cdc.c ****     *  Length: Number of bytes to read into the data array from the RX buffer.
 426:.\Generated_Source\PSoC5/USBFS_cdc.c ****     *          Maximum length is limited by the the number of received bytes.
 427:.\Generated_Source\PSoC5/USBFS_cdc.c ****     *
 428:.\Generated_Source\PSoC5/USBFS_cdc.c ****     * Return:
 429:.\Generated_Source\PSoC5/USBFS_cdc.c ****     *  Number of bytes received.
 430:.\Generated_Source\PSoC5/USBFS_cdc.c ****     *
 431:.\Generated_Source\PSoC5/USBFS_cdc.c ****     * Global variables:
 432:.\Generated_Source\PSoC5/USBFS_cdc.c ****     *   USBFS_cdc_data_out_ep: CDC OUT endpoint number used.
 433:.\Generated_Source\PSoC5/USBFS_cdc.c ****     *
 434:.\Generated_Source\PSoC5/USBFS_cdc.c ****     * Reentrant:
 435:.\Generated_Source\PSoC5/USBFS_cdc.c ****     *  No.
 436:.\Generated_Source\PSoC5/USBFS_cdc.c ****     *
 437:.\Generated_Source\PSoC5/USBFS_cdc.c ****     *******************************************************************************/
 438:.\Generated_Source\PSoC5/USBFS_cdc.c ****     uint16 USBFS_GetData(uint8* pData, uint16 length) 
 439:.\Generated_Source\PSoC5/USBFS_cdc.c ****     {
 656              		.loc 1 439 0
 657              		.cfi_startproc
 658              		@ args = 0, pretend = 0, frame = 8
 659              		@ frame_needed = 1, uses_anonymous_args = 0
 660 0000 80B5     		push	{r7, lr}
 661              	.LCFI24:
 662              		.cfi_def_cfa_offset 8
 663 0002 82B0     		sub	sp, sp, #8
 664              	.LCFI25:
 665              		.cfi_def_cfa_offset 16
 666 0004 00AF     		add	r7, sp, #0
 667              		.cfi_offset 14, -4
 668              		.cfi_offset 7, -8
 669              	.LCFI26:
 670              		.cfi_def_cfa_register 7
 671 0006 7860     		str	r0, [r7, #4]
 672 0008 0B46     		mov	r3, r1
 673 000a 7B80     		strh	r3, [r7, #2]	@ movhi
 440:.\Generated_Source\PSoC5/USBFS_cdc.c ****         return(USBFS_ReadOutEP(USBFS_cdc_data_out_ep, pData, length));
 674              		.loc 1 440 0
 675 000c 40F20003 		movw	r3, #:lower16:USBFS_cdc_data_out_ep
 676 0010 C0F20003 		movt	r3, #:upper16:USBFS_cdc_data_out_ep
 677 0014 1B78     		ldrb	r3, [r3, #0]
 678 0016 DAB2     		uxtb	r2, r3
 679 0018 7B88     		ldrh	r3, [r7, #2]
 680 001a 1046     		mov	r0, r2
 681 001c 7968     		ldr	r1, [r7, #4]
 682 001e 1A46     		mov	r2, r3
 683 0020 FFF7FEFF 		bl	USBFS_ReadOutEP
 684 0024 0346     		mov	r3, r0
 441:.\Generated_Source\PSoC5/USBFS_cdc.c ****     }
 685              		.loc 1 441 0
 686 0026 1846     		mov	r0, r3
 687 0028 07F10807 		add	r7, r7, #8
 688 002c BD46     		mov	sp, r7
 689 002e 80BD     		pop	{r7, pc}
 690              		.cfi_endproc
 691              	.LFE9:
 692              		.size	USBFS_GetData, .-USBFS_GetData
 693              		.section	.text.USBFS_GetAll,"ax",%progbits
 694              		.align	2
 695              		.global	USBFS_GetAll
ARM GAS  C:\DOCUME~1\ADMINI~1\LOCALS~1\Temp\cc7imiBl.s 			page 21


 696              		.thumb
 697              		.thumb_func
 698              		.type	USBFS_GetAll, %function
 699              	USBFS_GetAll:
 700              	.LFB10:
 442:.\Generated_Source\PSoC5/USBFS_cdc.c **** 
 443:.\Generated_Source\PSoC5/USBFS_cdc.c **** 
 444:.\Generated_Source\PSoC5/USBFS_cdc.c ****     /*******************************************************************************
 445:.\Generated_Source\PSoC5/USBFS_cdc.c ****     * Function Name: USBFS_GetAll
 446:.\Generated_Source\PSoC5/USBFS_cdc.c ****     ********************************************************************************
 447:.\Generated_Source\PSoC5/USBFS_cdc.c ****     *
 448:.\Generated_Source\PSoC5/USBFS_cdc.c ****     * Summary:
 449:.\Generated_Source\PSoC5/USBFS_cdc.c ****     *  Gets all bytes of received data from the input buffer and places it into a
 450:.\Generated_Source\PSoC5/USBFS_cdc.c ****     *  specified data array. USBFS_DataIsReady() API should be called
 451:.\Generated_Source\PSoC5/USBFS_cdc.c ****     *  before, to be sure that data is received from the Host.
 452:.\Generated_Source\PSoC5/USBFS_cdc.c ****     *
 453:.\Generated_Source\PSoC5/USBFS_cdc.c ****     * Parameters:
 454:.\Generated_Source\PSoC5/USBFS_cdc.c ****     *  pData: Pointer to the data array where data will be placed.
 455:.\Generated_Source\PSoC5/USBFS_cdc.c ****     *
 456:.\Generated_Source\PSoC5/USBFS_cdc.c ****     * Return:
 457:.\Generated_Source\PSoC5/USBFS_cdc.c ****     *  Number of bytes received.
 458:.\Generated_Source\PSoC5/USBFS_cdc.c ****     *
 459:.\Generated_Source\PSoC5/USBFS_cdc.c ****     * Global variables:
 460:.\Generated_Source\PSoC5/USBFS_cdc.c ****     *   USBFS_cdc_data_out_ep: CDC OUT endpoint number used.
 461:.\Generated_Source\PSoC5/USBFS_cdc.c ****     *   USBFS_EP[].bufferSize: EP max packet size is used as a length
 462:.\Generated_Source\PSoC5/USBFS_cdc.c ****     *     to read all data from the EP buffer.
 463:.\Generated_Source\PSoC5/USBFS_cdc.c ****     *
 464:.\Generated_Source\PSoC5/USBFS_cdc.c ****     * Reentrant:
 465:.\Generated_Source\PSoC5/USBFS_cdc.c ****     *  No.
 466:.\Generated_Source\PSoC5/USBFS_cdc.c ****     *
 467:.\Generated_Source\PSoC5/USBFS_cdc.c ****     *******************************************************************************/
 468:.\Generated_Source\PSoC5/USBFS_cdc.c ****     uint16 USBFS_GetAll(uint8* pData) 
 469:.\Generated_Source\PSoC5/USBFS_cdc.c ****     {
 701              		.loc 1 469 0
 702              		.cfi_startproc
 703              		@ args = 0, pretend = 0, frame = 8
 704              		@ frame_needed = 1, uses_anonymous_args = 0
 705 0000 80B5     		push	{r7, lr}
 706              	.LCFI27:
 707              		.cfi_def_cfa_offset 8
 708 0002 82B0     		sub	sp, sp, #8
 709              	.LCFI28:
 710              		.cfi_def_cfa_offset 16
 711 0004 00AF     		add	r7, sp, #0
 712              		.cfi_offset 14, -4
 713              		.cfi_offset 7, -8
 714              	.LCFI29:
 715              		.cfi_def_cfa_register 7
 716 0006 7860     		str	r0, [r7, #4]
 470:.\Generated_Source\PSoC5/USBFS_cdc.c ****         return (USBFS_ReadOutEP(USBFS_cdc_data_out_ep, pData,
 717              		.loc 1 470 0
 718 0008 40F20003 		movw	r3, #:lower16:USBFS_cdc_data_out_ep
 719 000c C0F20003 		movt	r3, #:upper16:USBFS_cdc_data_out_ep
 720 0010 1B78     		ldrb	r3, [r3, #0]
 721 0012 D8B2     		uxtb	r0, r3
 722 0014 40F20003 		movw	r3, #:lower16:USBFS_cdc_data_out_ep
 723 0018 C0F20003 		movt	r3, #:upper16:USBFS_cdc_data_out_ep
ARM GAS  C:\DOCUME~1\ADMINI~1\LOCALS~1\Temp\cc7imiBl.s 			page 22


 724 001c 1B78     		ldrb	r3, [r3, #0]
 725 001e DBB2     		uxtb	r3, r3
 726 0020 1946     		mov	r1, r3
 727 0022 40F20002 		movw	r2, #:lower16:USBFS_EP
 728 0026 C0F20002 		movt	r2, #:upper16:USBFS_EP
 729 002a 0B46     		mov	r3, r1
 730 002c 4FEA4303 		lsl	r3, r3, #1
 731 0030 0B44     		add	r3, r3, r1
 732 0032 4FEA8303 		lsl	r3, r3, #2
 733 0036 1344     		add	r3, r3, r2
 734 0038 03F10803 		add	r3, r3, #8
 735 003c 1B88     		ldrh	r3, [r3, #0]	@ movhi
 736 003e 9BB2     		uxth	r3, r3
 737 0040 7968     		ldr	r1, [r7, #4]
 738 0042 1A46     		mov	r2, r3
 739 0044 FFF7FEFF 		bl	USBFS_ReadOutEP
 740 0048 0346     		mov	r3, r0
 471:.\Generated_Source\PSoC5/USBFS_cdc.c ****                                            USBFS_EP[USBFS_cdc_data_out_ep].bufferSize));
 472:.\Generated_Source\PSoC5/USBFS_cdc.c ****     }
 741              		.loc 1 472 0
 742 004a 1846     		mov	r0, r3
 743 004c 07F10807 		add	r7, r7, #8
 744 0050 BD46     		mov	sp, r7
 745 0052 80BD     		pop	{r7, pc}
 746              		.cfi_endproc
 747              	.LFE10:
 748              		.size	USBFS_GetAll, .-USBFS_GetAll
 749              		.section	.text.USBFS_GetChar,"ax",%progbits
 750              		.align	2
 751              		.global	USBFS_GetChar
 752              		.thumb
 753              		.thumb_func
 754              		.type	USBFS_GetChar, %function
 755              	USBFS_GetChar:
 756              	.LFB11:
 473:.\Generated_Source\PSoC5/USBFS_cdc.c **** 
 474:.\Generated_Source\PSoC5/USBFS_cdc.c **** 
 475:.\Generated_Source\PSoC5/USBFS_cdc.c ****     /*******************************************************************************
 476:.\Generated_Source\PSoC5/USBFS_cdc.c ****     * Function Name: USBFS_GetChar
 477:.\Generated_Source\PSoC5/USBFS_cdc.c ****     ********************************************************************************
 478:.\Generated_Source\PSoC5/USBFS_cdc.c ****     *
 479:.\Generated_Source\PSoC5/USBFS_cdc.c ****     * Summary:
 480:.\Generated_Source\PSoC5/USBFS_cdc.c ****     *  Reads one byte of received data from the buffer.
 481:.\Generated_Source\PSoC5/USBFS_cdc.c ****     *
 482:.\Generated_Source\PSoC5/USBFS_cdc.c ****     * Parameters:
 483:.\Generated_Source\PSoC5/USBFS_cdc.c ****     *  None.
 484:.\Generated_Source\PSoC5/USBFS_cdc.c ****     *
 485:.\Generated_Source\PSoC5/USBFS_cdc.c ****     * Return:
 486:.\Generated_Source\PSoC5/USBFS_cdc.c ****     *  Received one character.
 487:.\Generated_Source\PSoC5/USBFS_cdc.c ****     *
 488:.\Generated_Source\PSoC5/USBFS_cdc.c ****     * Global variables:
 489:.\Generated_Source\PSoC5/USBFS_cdc.c ****     *   USBFS_cdc_data_out_ep: CDC OUT endpoint number used.
 490:.\Generated_Source\PSoC5/USBFS_cdc.c ****     *
 491:.\Generated_Source\PSoC5/USBFS_cdc.c ****     * Reentrant:
 492:.\Generated_Source\PSoC5/USBFS_cdc.c ****     *  No.
 493:.\Generated_Source\PSoC5/USBFS_cdc.c ****     *
 494:.\Generated_Source\PSoC5/USBFS_cdc.c ****     *******************************************************************************/
ARM GAS  C:\DOCUME~1\ADMINI~1\LOCALS~1\Temp\cc7imiBl.s 			page 23


 495:.\Generated_Source\PSoC5/USBFS_cdc.c ****     uint8 USBFS_GetChar(void) 
 496:.\Generated_Source\PSoC5/USBFS_cdc.c ****     {
 757              		.loc 1 496 0
 758              		.cfi_startproc
 759              		@ args = 0, pretend = 0, frame = 8
 760              		@ frame_needed = 1, uses_anonymous_args = 0
 761 0000 80B5     		push	{r7, lr}
 762              	.LCFI30:
 763              		.cfi_def_cfa_offset 8
 764 0002 82B0     		sub	sp, sp, #8
 765              	.LCFI31:
 766              		.cfi_def_cfa_offset 16
 767 0004 00AF     		add	r7, sp, #0
 768              		.cfi_offset 14, -4
 769              		.cfi_offset 7, -8
 770              	.LCFI32:
 771              		.cfi_def_cfa_register 7
 497:.\Generated_Source\PSoC5/USBFS_cdc.c ****          uint8 rxData;
 498:.\Generated_Source\PSoC5/USBFS_cdc.c **** 
 499:.\Generated_Source\PSoC5/USBFS_cdc.c ****         USBFS_ReadOutEP(USBFS_cdc_data_out_ep, &rxData, 1u);
 772              		.loc 1 499 0
 773 0006 40F20003 		movw	r3, #:lower16:USBFS_cdc_data_out_ep
 774 000a C0F20003 		movt	r3, #:upper16:USBFS_cdc_data_out_ep
 775 000e 1B78     		ldrb	r3, [r3, #0]
 776 0010 DAB2     		uxtb	r2, r3
 777 0012 07F10703 		add	r3, r7, #7
 778 0016 1046     		mov	r0, r2
 779 0018 1946     		mov	r1, r3
 780 001a 4FF00102 		mov	r2, #1
 781 001e FFF7FEFF 		bl	USBFS_ReadOutEP
 500:.\Generated_Source\PSoC5/USBFS_cdc.c **** 
 501:.\Generated_Source\PSoC5/USBFS_cdc.c ****         return(rxData);
 782              		.loc 1 501 0
 783 0022 FB79     		ldrb	r3, [r7, #7]	@ zero_extendqisi2
 502:.\Generated_Source\PSoC5/USBFS_cdc.c ****     }
 784              		.loc 1 502 0
 785 0024 1846     		mov	r0, r3
 786 0026 07F10807 		add	r7, r7, #8
 787 002a BD46     		mov	sp, r7
 788 002c 80BD     		pop	{r7, pc}
 789              		.cfi_endproc
 790              	.LFE11:
 791              		.size	USBFS_GetChar, .-USBFS_GetChar
 792 002e 00BF     		.section	.text.USBFS_IsLineChanged,"ax",%progbits
 793              		.align	2
 794              		.global	USBFS_IsLineChanged
 795              		.thumb
 796              		.thumb_func
 797              		.type	USBFS_IsLineChanged, %function
 798              	USBFS_IsLineChanged:
 799              	.LFB12:
 503:.\Generated_Source\PSoC5/USBFS_cdc.c **** 
 504:.\Generated_Source\PSoC5/USBFS_cdc.c ****     /*******************************************************************************
 505:.\Generated_Source\PSoC5/USBFS_cdc.c ****     * Function Name: USBFS_IsLineChanged
 506:.\Generated_Source\PSoC5/USBFS_cdc.c ****     ********************************************************************************
 507:.\Generated_Source\PSoC5/USBFS_cdc.c ****     *
 508:.\Generated_Source\PSoC5/USBFS_cdc.c ****     * Summary:
ARM GAS  C:\DOCUME~1\ADMINI~1\LOCALS~1\Temp\cc7imiBl.s 			page 24


 509:.\Generated_Source\PSoC5/USBFS_cdc.c ****     *  This function returns clear on read status of the line.
 510:.\Generated_Source\PSoC5/USBFS_cdc.c ****     *
 511:.\Generated_Source\PSoC5/USBFS_cdc.c ****     * Parameters:
 512:.\Generated_Source\PSoC5/USBFS_cdc.c ****     *  None.
 513:.\Generated_Source\PSoC5/USBFS_cdc.c ****     *
 514:.\Generated_Source\PSoC5/USBFS_cdc.c ****     * Return:
 515:.\Generated_Source\PSoC5/USBFS_cdc.c ****     *  If SET_LINE_CODING or CDC_SET_CONTROL_LINE_STATE request received then not
 516:.\Generated_Source\PSoC5/USBFS_cdc.c ****     *  zero value returned. Otherwise zero is returned.
 517:.\Generated_Source\PSoC5/USBFS_cdc.c ****     *
 518:.\Generated_Source\PSoC5/USBFS_cdc.c ****     * Global variables:
 519:.\Generated_Source\PSoC5/USBFS_cdc.c ****     *  USBFS_transferState - it is checked to be sure then OUT data
 520:.\Generated_Source\PSoC5/USBFS_cdc.c ****     *    phase has been compleate, and data written to the lineCoding or Control
 521:.\Generated_Source\PSoC5/USBFS_cdc.c ****     *    Bitmap buffer.
 522:.\Generated_Source\PSoC5/USBFS_cdc.c ****     *  USBFS_lineChanged: used as a flag to be aware that Host has been
 523:.\Generated_Source\PSoC5/USBFS_cdc.c ****     *    sent request for changing Line Coding or Control Bitmap.
 524:.\Generated_Source\PSoC5/USBFS_cdc.c ****     *
 525:.\Generated_Source\PSoC5/USBFS_cdc.c ****     *******************************************************************************/
 526:.\Generated_Source\PSoC5/USBFS_cdc.c ****     uint8 USBFS_IsLineChanged(void) 
 527:.\Generated_Source\PSoC5/USBFS_cdc.c ****     {
 800              		.loc 1 527 0
 801              		.cfi_startproc
 802              		@ args = 0, pretend = 0, frame = 8
 803              		@ frame_needed = 1, uses_anonymous_args = 0
 804              		@ link register save eliminated.
 805 0000 80B4     		push	{r7}
 806              	.LCFI33:
 807              		.cfi_def_cfa_offset 4
 808 0002 83B0     		sub	sp, sp, #12
 809              	.LCFI34:
 810              		.cfi_def_cfa_offset 16
 811 0004 00AF     		add	r7, sp, #0
 812              		.cfi_offset 7, -4
 813              	.LCFI35:
 814              		.cfi_def_cfa_register 7
 528:.\Generated_Source\PSoC5/USBFS_cdc.c ****         uint8 state = 0u;
 815              		.loc 1 528 0
 816 0006 4FF00003 		mov	r3, #0
 817 000a FB71     		strb	r3, [r7, #7]
 529:.\Generated_Source\PSoC5/USBFS_cdc.c ****         /* transferState is checked to be sure then OUT data phase has been compleate */
 530:.\Generated_Source\PSoC5/USBFS_cdc.c ****         if((USBFS_lineChanged != 0u) &&
 818              		.loc 1 530 0
 819 000c 40F20003 		movw	r3, #:lower16:USBFS_lineChanged
 820 0010 C0F20003 		movt	r3, #:upper16:USBFS_lineChanged
 821 0014 1B78     		ldrb	r3, [r3, #0]
 822 0016 DBB2     		uxtb	r3, r3
 823 0018 002B     		cmp	r3, #0
 824 001a 14D0     		beq	.L40
 531:.\Generated_Source\PSoC5/USBFS_cdc.c ****            (USBFS_transferState == USBFS_TRANS_STATE_IDLE))
 825              		.loc 1 531 0
 826 001c 40F20003 		movw	r3, #:lower16:USBFS_transferState
 827 0020 C0F20003 		movt	r3, #:upper16:USBFS_transferState
 828 0024 1B78     		ldrb	r3, [r3, #0]
 829 0026 DBB2     		uxtb	r3, r3
 830              		.loc 1 530 0
 831 0028 002B     		cmp	r3, #0
 832 002a 0CD1     		bne	.L40
 532:.\Generated_Source\PSoC5/USBFS_cdc.c ****         {
ARM GAS  C:\DOCUME~1\ADMINI~1\LOCALS~1\Temp\cc7imiBl.s 			page 25


 533:.\Generated_Source\PSoC5/USBFS_cdc.c ****             state = USBFS_lineChanged;
 833              		.loc 1 533 0
 834 002c 40F20003 		movw	r3, #:lower16:USBFS_lineChanged
 835 0030 C0F20003 		movt	r3, #:upper16:USBFS_lineChanged
 836 0034 1B78     		ldrb	r3, [r3, #0]
 837 0036 FB71     		strb	r3, [r7, #7]
 534:.\Generated_Source\PSoC5/USBFS_cdc.c ****             USBFS_lineChanged = 0u;
 838              		.loc 1 534 0
 839 0038 40F20003 		movw	r3, #:lower16:USBFS_lineChanged
 840 003c C0F20003 		movt	r3, #:upper16:USBFS_lineChanged
 841 0040 4FF00002 		mov	r2, #0
 842 0044 1A70     		strb	r2, [r3, #0]
 843              	.L40:
 535:.\Generated_Source\PSoC5/USBFS_cdc.c ****         }
 536:.\Generated_Source\PSoC5/USBFS_cdc.c ****         return(state);
 844              		.loc 1 536 0
 845 0046 FB79     		ldrb	r3, [r7, #7]	@ zero_extendqisi2
 537:.\Generated_Source\PSoC5/USBFS_cdc.c ****     }
 846              		.loc 1 537 0
 847 0048 1846     		mov	r0, r3
 848 004a 07F10C07 		add	r7, r7, #12
 849 004e BD46     		mov	sp, r7
 850 0050 80BC     		pop	{r7}
 851 0052 7047     		bx	lr
 852              		.cfi_endproc
 853              	.LFE12:
 854              		.size	USBFS_IsLineChanged, .-USBFS_IsLineChanged
 855              		.section	.text.USBFS_GetDTERate,"ax",%progbits
 856              		.align	2
 857              		.global	USBFS_GetDTERate
 858              		.thumb
 859              		.thumb_func
 860              		.type	USBFS_GetDTERate, %function
 861              	USBFS_GetDTERate:
 862              	.LFB13:
 538:.\Generated_Source\PSoC5/USBFS_cdc.c **** 
 539:.\Generated_Source\PSoC5/USBFS_cdc.c **** 
 540:.\Generated_Source\PSoC5/USBFS_cdc.c ****     /*******************************************************************************
 541:.\Generated_Source\PSoC5/USBFS_cdc.c ****     * Function Name: USBFS_GetDTERate
 542:.\Generated_Source\PSoC5/USBFS_cdc.c ****     ********************************************************************************
 543:.\Generated_Source\PSoC5/USBFS_cdc.c ****     *
 544:.\Generated_Source\PSoC5/USBFS_cdc.c ****     * Summary:
 545:.\Generated_Source\PSoC5/USBFS_cdc.c ****     *  Returns the data terminal rate set for this port in bits per second.
 546:.\Generated_Source\PSoC5/USBFS_cdc.c ****     *
 547:.\Generated_Source\PSoC5/USBFS_cdc.c ****     * Parameters:
 548:.\Generated_Source\PSoC5/USBFS_cdc.c ****     *  None.
 549:.\Generated_Source\PSoC5/USBFS_cdc.c ****     *
 550:.\Generated_Source\PSoC5/USBFS_cdc.c ****     * Return:
 551:.\Generated_Source\PSoC5/USBFS_cdc.c ****     *  Returns a uint32 value of the data rate in bits per second.
 552:.\Generated_Source\PSoC5/USBFS_cdc.c ****     *
 553:.\Generated_Source\PSoC5/USBFS_cdc.c ****     * Global variables:
 554:.\Generated_Source\PSoC5/USBFS_cdc.c ****     *  USBFS_lineCoding: First four bytes converted to uint32
 555:.\Generated_Source\PSoC5/USBFS_cdc.c ****     *    depend on compiler, and returned as a data rate.
 556:.\Generated_Source\PSoC5/USBFS_cdc.c ****     *
 557:.\Generated_Source\PSoC5/USBFS_cdc.c ****     *******************************************************************************/
 558:.\Generated_Source\PSoC5/USBFS_cdc.c ****     uint32 USBFS_GetDTERate(void) 
 559:.\Generated_Source\PSoC5/USBFS_cdc.c ****     {
ARM GAS  C:\DOCUME~1\ADMINI~1\LOCALS~1\Temp\cc7imiBl.s 			page 26


 863              		.loc 1 559 0
 864              		.cfi_startproc
 865              		@ args = 0, pretend = 0, frame = 8
 866              		@ frame_needed = 1, uses_anonymous_args = 0
 867              		@ link register save eliminated.
 868 0000 80B4     		push	{r7}
 869              	.LCFI36:
 870              		.cfi_def_cfa_offset 4
 871 0002 83B0     		sub	sp, sp, #12
 872              	.LCFI37:
 873              		.cfi_def_cfa_offset 16
 874 0004 00AF     		add	r7, sp, #0
 875              		.cfi_offset 7, -4
 876              	.LCFI38:
 877              		.cfi_def_cfa_register 7
 560:.\Generated_Source\PSoC5/USBFS_cdc.c ****         uint32 rate;
 561:.\Generated_Source\PSoC5/USBFS_cdc.c ****         /* Data terminal rate has little endian format. */
 562:.\Generated_Source\PSoC5/USBFS_cdc.c ****         #if defined(__C51__)
 563:.\Generated_Source\PSoC5/USBFS_cdc.c ****             /*   KEIL for the 8051 is a Big Endian compiler. This requires four bytes swapping. */
 564:.\Generated_Source\PSoC5/USBFS_cdc.c ****             ((uint8 *)&rate)[0u] = USBFS_lineCoding[USBFS_LINE_CODING_RATE + 3u];
 565:.\Generated_Source\PSoC5/USBFS_cdc.c ****             ((uint8 *)&rate)[1u] = USBFS_lineCoding[USBFS_LINE_CODING_RATE + 2u];
 566:.\Generated_Source\PSoC5/USBFS_cdc.c ****             ((uint8 *)&rate)[2u] = USBFS_lineCoding[USBFS_LINE_CODING_RATE + 1u];
 567:.\Generated_Source\PSoC5/USBFS_cdc.c ****             ((uint8 *)&rate)[3u] = USBFS_lineCoding[USBFS_LINE_CODING_RATE];
 568:.\Generated_Source\PSoC5/USBFS_cdc.c ****         #elif defined(__GNUC__) || defined(__ARMCC_VERSION)
 569:.\Generated_Source\PSoC5/USBFS_cdc.c ****             /* ARM compilers (GCC and RealView) are little-endian */
 570:.\Generated_Source\PSoC5/USBFS_cdc.c ****             USBFS_CONVERT_DWORD *convert =
 571:.\Generated_Source\PSoC5/USBFS_cdc.c ****                 (USBFS_CONVERT_DWORD *)&USBFS_lineCoding[USBFS_LINE_CODING_RATE];
 878              		.loc 1 571 0
 879 0006 40F20003 		movw	r3, #:lower16:USBFS_lineCoding
 880 000a C0F20003 		movt	r3, #:upper16:USBFS_lineCoding
 881 000e 7B60     		str	r3, [r7, #4]
 572:.\Generated_Source\PSoC5/USBFS_cdc.c ****             rate = convert->dword;
 882              		.loc 1 572 0
 883 0010 7B68     		ldr	r3, [r7, #4]
 884 0012 1B68     		ldr	r3, [r3, #0]
 885 0014 3B60     		str	r3, [r7, #0]
 573:.\Generated_Source\PSoC5/USBFS_cdc.c ****         #endif /* End Compillers */
 574:.\Generated_Source\PSoC5/USBFS_cdc.c ****         return(rate);
 886              		.loc 1 574 0
 887 0016 3B68     		ldr	r3, [r7, #0]
 575:.\Generated_Source\PSoC5/USBFS_cdc.c ****     }
 888              		.loc 1 575 0
 889 0018 1846     		mov	r0, r3
 890 001a 07F10C07 		add	r7, r7, #12
 891 001e BD46     		mov	sp, r7
 892 0020 80BC     		pop	{r7}
 893 0022 7047     		bx	lr
 894              		.cfi_endproc
 895              	.LFE13:
 896              		.size	USBFS_GetDTERate, .-USBFS_GetDTERate
 897              		.section	.text.USBFS_GetCharFormat,"ax",%progbits
 898              		.align	2
 899              		.global	USBFS_GetCharFormat
 900              		.thumb
 901              		.thumb_func
 902              		.type	USBFS_GetCharFormat, %function
 903              	USBFS_GetCharFormat:
ARM GAS  C:\DOCUME~1\ADMINI~1\LOCALS~1\Temp\cc7imiBl.s 			page 27


 904              	.LFB14:
 576:.\Generated_Source\PSoC5/USBFS_cdc.c **** 
 577:.\Generated_Source\PSoC5/USBFS_cdc.c **** 
 578:.\Generated_Source\PSoC5/USBFS_cdc.c ****     /*******************************************************************************
 579:.\Generated_Source\PSoC5/USBFS_cdc.c ****     * Function Name: USBFS_GetCharFormat
 580:.\Generated_Source\PSoC5/USBFS_cdc.c ****     ********************************************************************************
 581:.\Generated_Source\PSoC5/USBFS_cdc.c ****     *
 582:.\Generated_Source\PSoC5/USBFS_cdc.c ****     * Summary:
 583:.\Generated_Source\PSoC5/USBFS_cdc.c ****     *  Returns the number of stop bits.
 584:.\Generated_Source\PSoC5/USBFS_cdc.c ****     *
 585:.\Generated_Source\PSoC5/USBFS_cdc.c ****     * Parameters:
 586:.\Generated_Source\PSoC5/USBFS_cdc.c ****     *  None.
 587:.\Generated_Source\PSoC5/USBFS_cdc.c ****     *
 588:.\Generated_Source\PSoC5/USBFS_cdc.c ****     * Return:
 589:.\Generated_Source\PSoC5/USBFS_cdc.c ****     *  Returns the number of stop bits.
 590:.\Generated_Source\PSoC5/USBFS_cdc.c ****     *
 591:.\Generated_Source\PSoC5/USBFS_cdc.c ****     * Global variables:
 592:.\Generated_Source\PSoC5/USBFS_cdc.c ****     *  USBFS_lineCoding: used to get a parameter.
 593:.\Generated_Source\PSoC5/USBFS_cdc.c ****     *
 594:.\Generated_Source\PSoC5/USBFS_cdc.c ****     *******************************************************************************/
 595:.\Generated_Source\PSoC5/USBFS_cdc.c ****     uint8 USBFS_GetCharFormat(void) 
 596:.\Generated_Source\PSoC5/USBFS_cdc.c ****     {
 905              		.loc 1 596 0
 906              		.cfi_startproc
 907              		@ args = 0, pretend = 0, frame = 0
 908              		@ frame_needed = 1, uses_anonymous_args = 0
 909              		@ link register save eliminated.
 910 0000 80B4     		push	{r7}
 911              	.LCFI39:
 912              		.cfi_def_cfa_offset 4
 913 0002 00AF     		add	r7, sp, #0
 914              		.cfi_offset 7, -4
 915              	.LCFI40:
 916              		.cfi_def_cfa_register 7
 597:.\Generated_Source\PSoC5/USBFS_cdc.c ****         return(USBFS_lineCoding[USBFS_LINE_CODING_STOP_BITS]);
 917              		.loc 1 597 0
 918 0004 40F20003 		movw	r3, #:lower16:USBFS_lineCoding
 919 0008 C0F20003 		movt	r3, #:upper16:USBFS_lineCoding
 920 000c 1B79     		ldrb	r3, [r3, #4]
 921 000e DBB2     		uxtb	r3, r3
 598:.\Generated_Source\PSoC5/USBFS_cdc.c ****     }
 922              		.loc 1 598 0
 923 0010 1846     		mov	r0, r3
 924 0012 BD46     		mov	sp, r7
 925 0014 80BC     		pop	{r7}
 926 0016 7047     		bx	lr
 927              		.cfi_endproc
 928              	.LFE14:
 929              		.size	USBFS_GetCharFormat, .-USBFS_GetCharFormat
 930              		.section	.text.USBFS_GetParityType,"ax",%progbits
 931              		.align	2
 932              		.global	USBFS_GetParityType
 933              		.thumb
 934              		.thumb_func
 935              		.type	USBFS_GetParityType, %function
 936              	USBFS_GetParityType:
 937              	.LFB15:
ARM GAS  C:\DOCUME~1\ADMINI~1\LOCALS~1\Temp\cc7imiBl.s 			page 28


 599:.\Generated_Source\PSoC5/USBFS_cdc.c **** 
 600:.\Generated_Source\PSoC5/USBFS_cdc.c **** 
 601:.\Generated_Source\PSoC5/USBFS_cdc.c ****     /*******************************************************************************
 602:.\Generated_Source\PSoC5/USBFS_cdc.c ****     * Function Name: USBFS_GetParityType
 603:.\Generated_Source\PSoC5/USBFS_cdc.c ****     ********************************************************************************
 604:.\Generated_Source\PSoC5/USBFS_cdc.c ****     *
 605:.\Generated_Source\PSoC5/USBFS_cdc.c ****     * Summary:
 606:.\Generated_Source\PSoC5/USBFS_cdc.c ****     *  Returns the parity type for the CDC port.
 607:.\Generated_Source\PSoC5/USBFS_cdc.c ****     *
 608:.\Generated_Source\PSoC5/USBFS_cdc.c ****     * Parameters:
 609:.\Generated_Source\PSoC5/USBFS_cdc.c ****     *  None.
 610:.\Generated_Source\PSoC5/USBFS_cdc.c ****     *
 611:.\Generated_Source\PSoC5/USBFS_cdc.c ****     * Return:
 612:.\Generated_Source\PSoC5/USBFS_cdc.c ****     *  Returns the parity type.
 613:.\Generated_Source\PSoC5/USBFS_cdc.c ****     *
 614:.\Generated_Source\PSoC5/USBFS_cdc.c ****     * Global variables:
 615:.\Generated_Source\PSoC5/USBFS_cdc.c ****     *  USBFS_lineCoding: used to get a parameter.
 616:.\Generated_Source\PSoC5/USBFS_cdc.c ****     *
 617:.\Generated_Source\PSoC5/USBFS_cdc.c ****     *******************************************************************************/
 618:.\Generated_Source\PSoC5/USBFS_cdc.c ****     uint8 USBFS_GetParityType(void) 
 619:.\Generated_Source\PSoC5/USBFS_cdc.c ****     {
 938              		.loc 1 619 0
 939              		.cfi_startproc
 940              		@ args = 0, pretend = 0, frame = 0
 941              		@ frame_needed = 1, uses_anonymous_args = 0
 942              		@ link register save eliminated.
 943 0000 80B4     		push	{r7}
 944              	.LCFI41:
 945              		.cfi_def_cfa_offset 4
 946 0002 00AF     		add	r7, sp, #0
 947              		.cfi_offset 7, -4
 948              	.LCFI42:
 949              		.cfi_def_cfa_register 7
 620:.\Generated_Source\PSoC5/USBFS_cdc.c ****         return(USBFS_lineCoding[USBFS_LINE_CODING_PARITY]);
 950              		.loc 1 620 0
 951 0004 40F20003 		movw	r3, #:lower16:USBFS_lineCoding
 952 0008 C0F20003 		movt	r3, #:upper16:USBFS_lineCoding
 953 000c 5B79     		ldrb	r3, [r3, #5]
 954 000e DBB2     		uxtb	r3, r3
 621:.\Generated_Source\PSoC5/USBFS_cdc.c ****     }
 955              		.loc 1 621 0
 956 0010 1846     		mov	r0, r3
 957 0012 BD46     		mov	sp, r7
 958 0014 80BC     		pop	{r7}
 959 0016 7047     		bx	lr
 960              		.cfi_endproc
 961              	.LFE15:
 962              		.size	USBFS_GetParityType, .-USBFS_GetParityType
 963              		.section	.text.USBFS_GetDataBits,"ax",%progbits
 964              		.align	2
 965              		.global	USBFS_GetDataBits
 966              		.thumb
 967              		.thumb_func
 968              		.type	USBFS_GetDataBits, %function
 969              	USBFS_GetDataBits:
 970              	.LFB16:
 622:.\Generated_Source\PSoC5/USBFS_cdc.c **** 
ARM GAS  C:\DOCUME~1\ADMINI~1\LOCALS~1\Temp\cc7imiBl.s 			page 29


 623:.\Generated_Source\PSoC5/USBFS_cdc.c **** 
 624:.\Generated_Source\PSoC5/USBFS_cdc.c ****     /*******************************************************************************
 625:.\Generated_Source\PSoC5/USBFS_cdc.c ****     * Function Name: USBFS_GetDataBits
 626:.\Generated_Source\PSoC5/USBFS_cdc.c ****     ********************************************************************************
 627:.\Generated_Source\PSoC5/USBFS_cdc.c ****     *
 628:.\Generated_Source\PSoC5/USBFS_cdc.c ****     * Summary:
 629:.\Generated_Source\PSoC5/USBFS_cdc.c ****     *  Returns the number of data bits for the CDC port.
 630:.\Generated_Source\PSoC5/USBFS_cdc.c ****     *
 631:.\Generated_Source\PSoC5/USBFS_cdc.c ****     * Parameters:
 632:.\Generated_Source\PSoC5/USBFS_cdc.c ****     *  None.
 633:.\Generated_Source\PSoC5/USBFS_cdc.c ****     *
 634:.\Generated_Source\PSoC5/USBFS_cdc.c ****     * Return:
 635:.\Generated_Source\PSoC5/USBFS_cdc.c ****     *  Returns the number of data bits.
 636:.\Generated_Source\PSoC5/USBFS_cdc.c ****     *  The number of data bits can be 5, 6, 7, 8 or 16.
 637:.\Generated_Source\PSoC5/USBFS_cdc.c ****     *
 638:.\Generated_Source\PSoC5/USBFS_cdc.c ****     * Global variables:
 639:.\Generated_Source\PSoC5/USBFS_cdc.c ****     *  USBFS_lineCoding: used to get a parameter.
 640:.\Generated_Source\PSoC5/USBFS_cdc.c ****     *
 641:.\Generated_Source\PSoC5/USBFS_cdc.c ****     *******************************************************************************/
 642:.\Generated_Source\PSoC5/USBFS_cdc.c ****     uint8 USBFS_GetDataBits(void) 
 643:.\Generated_Source\PSoC5/USBFS_cdc.c ****     {
 971              		.loc 1 643 0
 972              		.cfi_startproc
 973              		@ args = 0, pretend = 0, frame = 0
 974              		@ frame_needed = 1, uses_anonymous_args = 0
 975              		@ link register save eliminated.
 976 0000 80B4     		push	{r7}
 977              	.LCFI43:
 978              		.cfi_def_cfa_offset 4
 979 0002 00AF     		add	r7, sp, #0
 980              		.cfi_offset 7, -4
 981              	.LCFI44:
 982              		.cfi_def_cfa_register 7
 644:.\Generated_Source\PSoC5/USBFS_cdc.c ****         return(USBFS_lineCoding[USBFS_LINE_CODING_DATA_BITS]);
 983              		.loc 1 644 0
 984 0004 40F20003 		movw	r3, #:lower16:USBFS_lineCoding
 985 0008 C0F20003 		movt	r3, #:upper16:USBFS_lineCoding
 986 000c 9B79     		ldrb	r3, [r3, #6]
 987 000e DBB2     		uxtb	r3, r3
 645:.\Generated_Source\PSoC5/USBFS_cdc.c ****     }
 988              		.loc 1 645 0
 989 0010 1846     		mov	r0, r3
 990 0012 BD46     		mov	sp, r7
 991 0014 80BC     		pop	{r7}
 992 0016 7047     		bx	lr
 993              		.cfi_endproc
 994              	.LFE16:
 995              		.size	USBFS_GetDataBits, .-USBFS_GetDataBits
 996              		.section	.text.USBFS_GetLineControl,"ax",%progbits
 997              		.align	2
 998              		.global	USBFS_GetLineControl
 999              		.thumb
 1000              		.thumb_func
 1001              		.type	USBFS_GetLineControl, %function
 1002              	USBFS_GetLineControl:
 1003              	.LFB17:
 646:.\Generated_Source\PSoC5/USBFS_cdc.c **** 
ARM GAS  C:\DOCUME~1\ADMINI~1\LOCALS~1\Temp\cc7imiBl.s 			page 30


 647:.\Generated_Source\PSoC5/USBFS_cdc.c **** 
 648:.\Generated_Source\PSoC5/USBFS_cdc.c ****     /*******************************************************************************
 649:.\Generated_Source\PSoC5/USBFS_cdc.c ****     * Function Name: USBFS_GetLineControl
 650:.\Generated_Source\PSoC5/USBFS_cdc.c ****     ********************************************************************************
 651:.\Generated_Source\PSoC5/USBFS_cdc.c ****     *
 652:.\Generated_Source\PSoC5/USBFS_cdc.c ****     * Summary:
 653:.\Generated_Source\PSoC5/USBFS_cdc.c ****     *  Returns Line control bitmap.
 654:.\Generated_Source\PSoC5/USBFS_cdc.c ****     *
 655:.\Generated_Source\PSoC5/USBFS_cdc.c ****     * Parameters:
 656:.\Generated_Source\PSoC5/USBFS_cdc.c ****     *  None.
 657:.\Generated_Source\PSoC5/USBFS_cdc.c ****     *
 658:.\Generated_Source\PSoC5/USBFS_cdc.c ****     * Return:
 659:.\Generated_Source\PSoC5/USBFS_cdc.c ****     *  Returns Line control bitmap.
 660:.\Generated_Source\PSoC5/USBFS_cdc.c ****     *
 661:.\Generated_Source\PSoC5/USBFS_cdc.c ****     * Global variables:
 662:.\Generated_Source\PSoC5/USBFS_cdc.c ****     *  USBFS_lineControlBitmap: used to get a parameter.
 663:.\Generated_Source\PSoC5/USBFS_cdc.c ****     *
 664:.\Generated_Source\PSoC5/USBFS_cdc.c ****     *******************************************************************************/
 665:.\Generated_Source\PSoC5/USBFS_cdc.c ****     uint16 USBFS_GetLineControl(void) 
 666:.\Generated_Source\PSoC5/USBFS_cdc.c ****     {
 1004              		.loc 1 666 0
 1005              		.cfi_startproc
 1006              		@ args = 0, pretend = 0, frame = 0
 1007              		@ frame_needed = 1, uses_anonymous_args = 0
 1008              		@ link register save eliminated.
 1009 0000 80B4     		push	{r7}
 1010              	.LCFI45:
 1011              		.cfi_def_cfa_offset 4
 1012 0002 00AF     		add	r7, sp, #0
 1013              		.cfi_offset 7, -4
 1014              	.LCFI46:
 1015              		.cfi_def_cfa_register 7
 667:.\Generated_Source\PSoC5/USBFS_cdc.c ****         return(USBFS_lineControlBitmap);
 1016              		.loc 1 667 0
 1017 0004 40F20003 		movw	r3, #:lower16:USBFS_lineControlBitmap
 1018 0008 C0F20003 		movt	r3, #:upper16:USBFS_lineControlBitmap
 1019 000c 1B88     		ldrh	r3, [r3, #0]	@ movhi
 1020 000e 9BB2     		uxth	r3, r3
 668:.\Generated_Source\PSoC5/USBFS_cdc.c ****     }
 1021              		.loc 1 668 0
 1022 0010 1846     		mov	r0, r3
 1023 0012 BD46     		mov	sp, r7
 1024 0014 80BC     		pop	{r7}
 1025 0016 7047     		bx	lr
 1026              		.cfi_endproc
 1027              	.LFE17:
 1028              		.size	USBFS_GetLineControl, .-USBFS_GetLineControl
 1029              		.section	.rodata
 1030              		.align	2
 1031              		.type	C.18.2186, %object
 1032              		.size	C.18.2186, 2
 1033              	C.18.2186:
 1034 0000 0D       		.byte	13
 1035 0001 0A       		.byte	10
 1036 0002 0000     		.text
 1037              	.Letext0: