ARM GAS  C:\DOCUME~1\ADMINI~1\LOCALS~1\Temp\cceK9gio.s 			page 1


   1              		.syntax unified
   2              		.cpu cortex-m3
   3              		.fpu softvfp
   4              		.eabi_attribute 20, 1
   5              		.eabi_attribute 21, 1
   6              		.eabi_attribute 23, 3
   7              		.eabi_attribute 24, 1
   8              		.eabi_attribute 25, 1
   9              		.eabi_attribute 26, 1
  10              		.eabi_attribute 30, 6
  11              		.eabi_attribute 18, 4
  12              		.thumb
  13              		.file	"USBFS_drv.c"
  20 0000 19020000 		.text
  20      02006D00 
  20      00000201 
  20      FB0E0D00 
  20      01010101 
  21              	.Ltext0:
  22              		.cfi_sections	.debug_frame
  23              		.comm	USBFS_EP,108,4
  24              		.comm	USBFS_configuration,1,1
  25              		.comm	USBFS_interfaceNumber,1,1
  26              		.comm	USBFS_configurationChanged,1,1
  27              		.comm	USBFS_deviceAddress,1,1
  28              		.comm	USBFS_deviceStatus,1,1
  29              		.comm	USBFS_interfaceSetting,4,4
  30              		.comm	USBFS_interfaceSetting_last,4,4
  31              		.comm	USBFS_interfaceStatus,4,4
  32              		.comm	USBFS_device,1,1
  33              		.comm	USBFS_interfaceClass,4,4
  34              		.comm	USBFS_ep0Toggle,1,1
  35              		.comm	USBFS_lastPacketSize,1,1
  36              		.comm	USBFS_transferState,1,1
  37              		.comm	USBFS_currentTD,12,4
  38              		.comm	USBFS_ep0Mode,1,1
  39              		.comm	USBFS_ep0Count,1,1
  40              		.comm	USBFS_transferByteCount,2,2
  41              		.section	.text.USBFS_EP_0_ISR,"ax",%progbits
  42              		.align	2
  43              		.global	USBFS_EP_0_ISR
  44              		.thumb
  45              		.thumb_func
  46              		.type	USBFS_EP_0_ISR, %function
  47              	USBFS_EP_0_ISR:
  48              	.LFB0:
  49              		.file 1 ".\\Generated_Source\\PSoC5\\USBFS_drv.c"
   1:.\Generated_Source\PSoC5/USBFS_drv.c **** /*******************************************************************************
   2:.\Generated_Source\PSoC5/USBFS_drv.c **** * File Name: USBFS_drv.c
   3:.\Generated_Source\PSoC5/USBFS_drv.c **** * Version 2.50
   4:.\Generated_Source\PSoC5/USBFS_drv.c **** *
ARM GAS  C:\DOCUME~1\ADMINI~1\LOCALS~1\Temp\cceK9gio.s 			page 2


   5:.\Generated_Source\PSoC5/USBFS_drv.c **** * Description:
   6:.\Generated_Source\PSoC5/USBFS_drv.c **** *  Endpoint 0 Driver for the USBFS Component.
   7:.\Generated_Source\PSoC5/USBFS_drv.c **** *
   8:.\Generated_Source\PSoC5/USBFS_drv.c **** * Note:
   9:.\Generated_Source\PSoC5/USBFS_drv.c **** *
  10:.\Generated_Source\PSoC5/USBFS_drv.c **** ********************************************************************************
  11:.\Generated_Source\PSoC5/USBFS_drv.c **** * Copyright 2008-2012, Cypress Semiconductor Corporation.  All rights reserved.
  12:.\Generated_Source\PSoC5/USBFS_drv.c **** * You may use this file only in accordance with the license, terms, conditions,
  13:.\Generated_Source\PSoC5/USBFS_drv.c **** * disclaimers, and limitations in the end user license agreement accompanying
  14:.\Generated_Source\PSoC5/USBFS_drv.c **** * the software package with which this file was provided.
  15:.\Generated_Source\PSoC5/USBFS_drv.c **** *******************************************************************************/
  16:.\Generated_Source\PSoC5/USBFS_drv.c **** 
  17:.\Generated_Source\PSoC5/USBFS_drv.c **** #include "USBFS.h"
  18:.\Generated_Source\PSoC5/USBFS_drv.c **** 
  19:.\Generated_Source\PSoC5/USBFS_drv.c **** 
  20:.\Generated_Source\PSoC5/USBFS_drv.c **** /***************************************
  21:.\Generated_Source\PSoC5/USBFS_drv.c **** * Forward references for the EP0 ISR
  22:.\Generated_Source\PSoC5/USBFS_drv.c **** ***************************************/
  23:.\Generated_Source\PSoC5/USBFS_drv.c **** 
  24:.\Generated_Source\PSoC5/USBFS_drv.c **** void  USBFS_HandleSetup(void) ;
  25:.\Generated_Source\PSoC5/USBFS_drv.c **** void  USBFS_HandleIN(void) ;
  26:.\Generated_Source\PSoC5/USBFS_drv.c **** void  USBFS_HandleOUT(void) ;
  27:.\Generated_Source\PSoC5/USBFS_drv.c **** uint8 USBFS_InitControlRead(void) ;
  28:.\Generated_Source\PSoC5/USBFS_drv.c **** void  USBFS_ControlReadDataStage(void) ;
  29:.\Generated_Source\PSoC5/USBFS_drv.c **** void  USBFS_ControlReadStatusStage(void) ;
  30:.\Generated_Source\PSoC5/USBFS_drv.c **** void  USBFS_ControlReadPrematureStatus(void)
  31:.\Generated_Source\PSoC5/USBFS_drv.c ****                                                 ;
  32:.\Generated_Source\PSoC5/USBFS_drv.c **** uint8 USBFS_InitControlWrite(void) ;
  33:.\Generated_Source\PSoC5/USBFS_drv.c **** uint8 USBFS_InitZeroLengthControlTransfer(void)
  34:.\Generated_Source\PSoC5/USBFS_drv.c ****                                                 ;
  35:.\Generated_Source\PSoC5/USBFS_drv.c **** void  USBFS_ControlWriteDataStage(void) ;
  36:.\Generated_Source\PSoC5/USBFS_drv.c **** void  USBFS_ControlWriteStatusStage(void) ;
  37:.\Generated_Source\PSoC5/USBFS_drv.c **** void  USBFS_ControlWritePrematureStatus(void)
  38:.\Generated_Source\PSoC5/USBFS_drv.c ****                                                 ;
  39:.\Generated_Source\PSoC5/USBFS_drv.c **** uint8 USBFS_InitNoDataControlTransfer(void) ;
  40:.\Generated_Source\PSoC5/USBFS_drv.c **** void  USBFS_NoDataControlStatusStage(void) ;
  41:.\Generated_Source\PSoC5/USBFS_drv.c **** void  USBFS_InitializeStatusBlock(void) ;
  42:.\Generated_Source\PSoC5/USBFS_drv.c **** void  USBFS_UpdateStatusBlock(uint8 completionCode) ;
  43:.\Generated_Source\PSoC5/USBFS_drv.c **** 
  44:.\Generated_Source\PSoC5/USBFS_drv.c **** 
  45:.\Generated_Source\PSoC5/USBFS_drv.c **** /***************************************
  46:.\Generated_Source\PSoC5/USBFS_drv.c **** * Request Handlers
  47:.\Generated_Source\PSoC5/USBFS_drv.c **** ***************************************/
  48:.\Generated_Source\PSoC5/USBFS_drv.c **** 
  49:.\Generated_Source\PSoC5/USBFS_drv.c **** uint8 USBFS_HandleStandardRqst(void) ;
  50:.\Generated_Source\PSoC5/USBFS_drv.c **** uint8 USBFS_DispatchClassRqst(void) ;
  51:.\Generated_Source\PSoC5/USBFS_drv.c **** uint8 USBFS_HandleVendorRqst(void) ;
  52:.\Generated_Source\PSoC5/USBFS_drv.c **** 
  53:.\Generated_Source\PSoC5/USBFS_drv.c **** 
  54:.\Generated_Source\PSoC5/USBFS_drv.c **** /***************************************
  55:.\Generated_Source\PSoC5/USBFS_drv.c **** * External data references
  56:.\Generated_Source\PSoC5/USBFS_drv.c **** ***************************************/
  57:.\Generated_Source\PSoC5/USBFS_drv.c **** 
  58:.\Generated_Source\PSoC5/USBFS_drv.c **** 
  59:.\Generated_Source\PSoC5/USBFS_drv.c **** /***************************************
  60:.\Generated_Source\PSoC5/USBFS_drv.c **** * Global data allocation
  61:.\Generated_Source\PSoC5/USBFS_drv.c **** ***************************************/
ARM GAS  C:\DOCUME~1\ADMINI~1\LOCALS~1\Temp\cceK9gio.s 			page 3


  62:.\Generated_Source\PSoC5/USBFS_drv.c **** 
  63:.\Generated_Source\PSoC5/USBFS_drv.c **** volatile T_USBFS_EP_CTL_BLOCK USBFS_EP[USBFS_MAX_EP];
  64:.\Generated_Source\PSoC5/USBFS_drv.c **** volatile uint8 USBFS_configuration;
  65:.\Generated_Source\PSoC5/USBFS_drv.c **** volatile uint8 USBFS_interfaceNumber;
  66:.\Generated_Source\PSoC5/USBFS_drv.c **** volatile uint8 USBFS_configurationChanged;
  67:.\Generated_Source\PSoC5/USBFS_drv.c **** volatile uint8 USBFS_deviceAddress;
  68:.\Generated_Source\PSoC5/USBFS_drv.c **** volatile uint8 USBFS_deviceStatus;
  69:.\Generated_Source\PSoC5/USBFS_drv.c **** volatile uint8 USBFS_interfaceSetting[USBFS_MAX_INTERFACES_NUMBER];
  70:.\Generated_Source\PSoC5/USBFS_drv.c **** volatile uint8 USBFS_interfaceSetting_last[USBFS_MAX_INTERFACES_NUMBER];
  71:.\Generated_Source\PSoC5/USBFS_drv.c **** volatile uint8 USBFS_interfaceStatus[USBFS_MAX_INTERFACES_NUMBER];
  72:.\Generated_Source\PSoC5/USBFS_drv.c **** volatile uint8 USBFS_device;
  73:.\Generated_Source\PSoC5/USBFS_drv.c **** const uint8 CYCODE *USBFS_interfaceClass;
  74:.\Generated_Source\PSoC5/USBFS_drv.c **** 
  75:.\Generated_Source\PSoC5/USBFS_drv.c **** 
  76:.\Generated_Source\PSoC5/USBFS_drv.c **** /***************************************
  77:.\Generated_Source\PSoC5/USBFS_drv.c **** * Local data allocation
  78:.\Generated_Source\PSoC5/USBFS_drv.c **** ***************************************/
  79:.\Generated_Source\PSoC5/USBFS_drv.c **** 
  80:.\Generated_Source\PSoC5/USBFS_drv.c **** volatile uint8 USBFS_ep0Toggle;
  81:.\Generated_Source\PSoC5/USBFS_drv.c **** volatile uint8 USBFS_lastPacketSize;
  82:.\Generated_Source\PSoC5/USBFS_drv.c **** volatile uint8 USBFS_transferState;
  83:.\Generated_Source\PSoC5/USBFS_drv.c **** volatile T_USBFS_TD USBFS_currentTD;
  84:.\Generated_Source\PSoC5/USBFS_drv.c **** volatile uint8 USBFS_ep0Mode;
  85:.\Generated_Source\PSoC5/USBFS_drv.c **** volatile uint8 USBFS_ep0Count;
  86:.\Generated_Source\PSoC5/USBFS_drv.c **** volatile uint16 USBFS_transferByteCount;
  87:.\Generated_Source\PSoC5/USBFS_drv.c **** 
  88:.\Generated_Source\PSoC5/USBFS_drv.c **** 
  89:.\Generated_Source\PSoC5/USBFS_drv.c **** /*******************************************************************************
  90:.\Generated_Source\PSoC5/USBFS_drv.c **** * Function Name: USBFS_ep_0_Interrupt
  91:.\Generated_Source\PSoC5/USBFS_drv.c **** ********************************************************************************
  92:.\Generated_Source\PSoC5/USBFS_drv.c **** *
  93:.\Generated_Source\PSoC5/USBFS_drv.c **** * Summary:
  94:.\Generated_Source\PSoC5/USBFS_drv.c **** *  This Interrupt Service Routine handles Endpoint 0 (Control Pipe) traffic.
  95:.\Generated_Source\PSoC5/USBFS_drv.c **** *  It dispactches setup requests and handles the data and status stages.
  96:.\Generated_Source\PSoC5/USBFS_drv.c **** *
  97:.\Generated_Source\PSoC5/USBFS_drv.c **** * Parameters:
  98:.\Generated_Source\PSoC5/USBFS_drv.c **** *  None.
  99:.\Generated_Source\PSoC5/USBFS_drv.c **** *
 100:.\Generated_Source\PSoC5/USBFS_drv.c **** * Return:
 101:.\Generated_Source\PSoC5/USBFS_drv.c **** *  None.
 102:.\Generated_Source\PSoC5/USBFS_drv.c **** *
 103:.\Generated_Source\PSoC5/USBFS_drv.c **** *******************************************************************************/
 104:.\Generated_Source\PSoC5/USBFS_drv.c **** CY_ISR(USBFS_EP_0_ISR)
 105:.\Generated_Source\PSoC5/USBFS_drv.c **** {
  50              		.loc 1 105 0
  51              		.cfi_startproc
  52              		@ args = 0, pretend = 0, frame = 8
  53              		@ frame_needed = 1, uses_anonymous_args = 0
  54 0000 80B5     		push	{r7, lr}
  55              	.LCFI0:
  56              		.cfi_def_cfa_offset 8
  57 0002 82B0     		sub	sp, sp, #8
  58              	.LCFI1:
  59              		.cfi_def_cfa_offset 16
  60 0004 00AF     		add	r7, sp, #0
  61              		.cfi_offset 14, -4
  62              		.cfi_offset 7, -8
ARM GAS  C:\DOCUME~1\ADMINI~1\LOCALS~1\Temp\cceK9gio.s 			page 4


  63              	.LCFI2:
  64              		.cfi_def_cfa_register 7
 106:.\Generated_Source\PSoC5/USBFS_drv.c ****     uint8 bRegTemp;
 107:.\Generated_Source\PSoC5/USBFS_drv.c ****     uint8 modifyReg;
 108:.\Generated_Source\PSoC5/USBFS_drv.c **** 
 109:.\Generated_Source\PSoC5/USBFS_drv.c **** 
 110:.\Generated_Source\PSoC5/USBFS_drv.c ****     bRegTemp = CY_GET_REG8(USBFS_EP0_CR_PTR);
  65              		.loc 1 110 0
  66 0006 46F22803 		movw	r3, #:lower16:1073766440
  67 000a C4F20003 		movt	r3, #:upper16:1073766440
  68 000e 1B78     		ldrb	r3, [r3, #0]
  69 0010 BB71     		strb	r3, [r7, #6]
 111:.\Generated_Source\PSoC5/USBFS_drv.c ****     if (bRegTemp & USBFS_MODE_ACKD)
  70              		.loc 1 111 0
  71 0012 BB79     		ldrb	r3, [r7, #6]	@ zero_extendqisi2
  72 0014 03F01003 		and	r3, r3, #16
  73 0018 002B     		cmp	r3, #0
  74 001a 00F08E80 		beq	.L11
 112:.\Generated_Source\PSoC5/USBFS_drv.c ****     {
 113:.\Generated_Source\PSoC5/USBFS_drv.c ****         modifyReg = 1u;
  75              		.loc 1 113 0
  76 001e 4FF00103 		mov	r3, #1
  77 0022 FB71     		strb	r3, [r7, #7]
 114:.\Generated_Source\PSoC5/USBFS_drv.c ****         if (bRegTemp & USBFS_MODE_SETUP_RCVD)
  78              		.loc 1 114 0
  79 0024 BB79     		ldrb	r3, [r7, #6]	@ zero_extendqisi2
  80 0026 5BB2     		sxtb	r3, r3
  81 0028 002B     		cmp	r3, #0
  82 002a 17DA     		bge	.L3
 115:.\Generated_Source\PSoC5/USBFS_drv.c ****         {
 116:.\Generated_Source\PSoC5/USBFS_drv.c ****             if((bRegTemp & USBFS_MODE_MASK) != USBFS_MODE_NAK_IN_OUT)
  83              		.loc 1 116 0
  84 002c BB79     		ldrb	r3, [r7, #6]	@ zero_extendqisi2
  85 002e 03F00F03 		and	r3, r3, #15
  86 0032 012B     		cmp	r3, #1
  87 0034 03D0     		beq	.L4
 117:.\Generated_Source\PSoC5/USBFS_drv.c ****             {
 118:.\Generated_Source\PSoC5/USBFS_drv.c ****                 modifyReg = 0u;                                     /* When mode not NAK_IN_OUT => 
  88              		.loc 1 118 0
  89 0036 4FF00003 		mov	r3, #0
  90 003a FB71     		strb	r3, [r7, #7]
 119:.\Generated_Source\PSoC5/USBFS_drv.c ****             }
 120:.\Generated_Source\PSoC5/USBFS_drv.c ****             else
 121:.\Generated_Source\PSoC5/USBFS_drv.c ****             {
 122:.\Generated_Source\PSoC5/USBFS_drv.c ****                 USBFS_HandleSetup();
 123:.\Generated_Source\PSoC5/USBFS_drv.c ****                 if(USBFS_ep0Mode & USBFS_MODE_SETUP_RCVD)
 124:.\Generated_Source\PSoC5/USBFS_drv.c ****                 {
 125:.\Generated_Source\PSoC5/USBFS_drv.c ****                     modifyReg = 0u;                         /* if SETUP bit set -> exit without mod
  91              		.loc 1 125 0
  92 003c 23E0     		b	.L6
  93              	.L4:
  94              		.loc 1 122 0
  95 003e FFF7FEFF 		bl	USBFS_HandleSetup
  96              		.loc 1 123 0
  97 0042 40F20003 		movw	r3, #:lower16:USBFS_ep0Mode
  98 0046 C0F20003 		movt	r3, #:upper16:USBFS_ep0Mode
  99 004a 1B78     		ldrb	r3, [r3, #0]
ARM GAS  C:\DOCUME~1\ADMINI~1\LOCALS~1\Temp\cceK9gio.s 			page 5


 100 004c DBB2     		uxtb	r3, r3
 101 004e 5BB2     		sxtb	r3, r3
 102 0050 002B     		cmp	r3, #0
 103 0052 17DA     		bge	.L12
 104              		.loc 1 125 0
 105 0054 4FF00003 		mov	r3, #0
 106 0058 FB71     		strb	r3, [r7, #7]
 107 005a 14E0     		b	.L6
 108              	.L3:
 126:.\Generated_Source\PSoC5/USBFS_drv.c ****                 }
 127:.\Generated_Source\PSoC5/USBFS_drv.c **** 
 128:.\Generated_Source\PSoC5/USBFS_drv.c ****             }
 129:.\Generated_Source\PSoC5/USBFS_drv.c ****         }
 130:.\Generated_Source\PSoC5/USBFS_drv.c ****         else if (bRegTemp & USBFS_MODE_IN_RCVD)
 109              		.loc 1 130 0
 110 005c BB79     		ldrb	r3, [r7, #6]	@ zero_extendqisi2
 111 005e 03F04003 		and	r3, r3, #64
 112 0062 002B     		cmp	r3, #0
 113 0064 02D0     		beq	.L7
 131:.\Generated_Source\PSoC5/USBFS_drv.c ****         {
 132:.\Generated_Source\PSoC5/USBFS_drv.c ****             USBFS_HandleIN();
 114              		.loc 1 132 0
 115 0066 FFF7FEFF 		bl	USBFS_HandleIN
 116 006a 0CE0     		b	.L6
 117              	.L7:
 133:.\Generated_Source\PSoC5/USBFS_drv.c ****         }
 134:.\Generated_Source\PSoC5/USBFS_drv.c ****         else if (bRegTemp & USBFS_MODE_OUT_RCVD)
 118              		.loc 1 134 0
 119 006c BB79     		ldrb	r3, [r7, #6]	@ zero_extendqisi2
 120 006e 03F02003 		and	r3, r3, #32
 121 0072 002B     		cmp	r3, #0
 122 0074 02D0     		beq	.L8
 135:.\Generated_Source\PSoC5/USBFS_drv.c ****         {
 136:.\Generated_Source\PSoC5/USBFS_drv.c ****             USBFS_HandleOUT();
 123              		.loc 1 136 0
 124 0076 FFF7FEFF 		bl	USBFS_HandleOUT
 125 007a 04E0     		b	.L6
 126              	.L8:
 137:.\Generated_Source\PSoC5/USBFS_drv.c ****         }
 138:.\Generated_Source\PSoC5/USBFS_drv.c ****         else
 139:.\Generated_Source\PSoC5/USBFS_drv.c ****         {
 140:.\Generated_Source\PSoC5/USBFS_drv.c ****             modifyReg = 0u;
 127              		.loc 1 140 0
 128 007c 4FF00003 		mov	r3, #0
 129 0080 FB71     		strb	r3, [r7, #7]
 130 0082 00E0     		b	.L6
 131              	.L12:
 132              		.loc 1 125 0
 133 0084 00BF     		nop
 134              	.L6:
 141:.\Generated_Source\PSoC5/USBFS_drv.c ****         }
 142:.\Generated_Source\PSoC5/USBFS_drv.c ****         if(modifyReg != 0u)
 135              		.loc 1 142 0
 136 0086 FB79     		ldrb	r3, [r7, #7]	@ zero_extendqisi2
 137 0088 002B     		cmp	r3, #0
 138 008a 56D0     		beq	.L11
 143:.\Generated_Source\PSoC5/USBFS_drv.c ****         {
ARM GAS  C:\DOCUME~1\ADMINI~1\LOCALS~1\Temp\cceK9gio.s 			page 6


 144:.\Generated_Source\PSoC5/USBFS_drv.c ****             bRegTemp = CY_GET_REG8(USBFS_EP0_CR_PTR);    /* unlock registers */
 139              		.loc 1 144 0
 140 008c 46F22803 		movw	r3, #:lower16:1073766440
 141 0090 C4F20003 		movt	r3, #:upper16:1073766440
 142 0094 1B78     		ldrb	r3, [r3, #0]
 143 0096 BB71     		strb	r3, [r7, #6]
 145:.\Generated_Source\PSoC5/USBFS_drv.c ****             if((bRegTemp & USBFS_MODE_SETUP_RCVD) == 0)  /* Check if SETUP bit is not set, otherwis
 144              		.loc 1 145 0
 145 0098 BB79     		ldrb	r3, [r7, #6]	@ zero_extendqisi2
 146 009a 5BB2     		sxtb	r3, r3
 147 009c 002B     		cmp	r3, #0
 148 009e 4CDB     		blt	.L11
 146:.\Generated_Source\PSoC5/USBFS_drv.c ****             {
 147:.\Generated_Source\PSoC5/USBFS_drv.c ****                 /* Update the count register */
 148:.\Generated_Source\PSoC5/USBFS_drv.c ****                 bRegTemp = USBFS_ep0Toggle | USBFS_ep0Count;
 149              		.loc 1 148 0
 150 00a0 40F20003 		movw	r3, #:lower16:USBFS_ep0Toggle
 151 00a4 C0F20003 		movt	r3, #:upper16:USBFS_ep0Toggle
 152 00a8 1B78     		ldrb	r3, [r3, #0]
 153 00aa DAB2     		uxtb	r2, r3
 154 00ac 40F20003 		movw	r3, #:lower16:USBFS_ep0Count
 155 00b0 C0F20003 		movt	r3, #:upper16:USBFS_ep0Count
 156 00b4 1B78     		ldrb	r3, [r3, #0]
 157 00b6 DBB2     		uxtb	r3, r3
 158 00b8 42EA0303 		orr	r3, r2, r3
 159 00bc BB71     		strb	r3, [r7, #6]
 149:.\Generated_Source\PSoC5/USBFS_drv.c ****                 CY_SET_REG8(USBFS_EP0_CNT_PTR, bRegTemp);
 160              		.loc 1 149 0
 161 00be 46F22903 		movw	r3, #:lower16:1073766441
 162 00c2 C4F20003 		movt	r3, #:upper16:1073766441
 163 00c6 BA79     		ldrb	r2, [r7, #6]
 164 00c8 1A70     		strb	r2, [r3, #0]
 150:.\Generated_Source\PSoC5/USBFS_drv.c ****                 if(bRegTemp == CY_GET_REG8(USBFS_EP0_CNT_PTR))   /* continue if writing was succesf
 165              		.loc 1 150 0
 166 00ca 46F22903 		movw	r3, #:lower16:1073766441
 167 00ce C4F20003 		movt	r3, #:upper16:1073766441
 168 00d2 1B78     		ldrb	r3, [r3, #0]
 169 00d4 DBB2     		uxtb	r3, r3
 170 00d6 BA79     		ldrb	r2, [r7, #6]	@ zero_extendqisi2
 171 00d8 9A42     		cmp	r2, r3
 172 00da 2ED1     		bne	.L11
 173              	.L10:
 151:.\Generated_Source\PSoC5/USBFS_drv.c ****                 {
 152:.\Generated_Source\PSoC5/USBFS_drv.c ****                     do
 153:.\Generated_Source\PSoC5/USBFS_drv.c ****                     {
 154:.\Generated_Source\PSoC5/USBFS_drv.c ****                         modifyReg = USBFS_ep0Mode;       /* init temporary variable */
 174              		.loc 1 154 0
 175 00dc 40F20003 		movw	r3, #:lower16:USBFS_ep0Mode
 176 00e0 C0F20003 		movt	r3, #:upper16:USBFS_ep0Mode
 177 00e4 1B78     		ldrb	r3, [r3, #0]
 178 00e6 FB71     		strb	r3, [r7, #7]
 155:.\Generated_Source\PSoC5/USBFS_drv.c ****                         /* unlock registers */
 156:.\Generated_Source\PSoC5/USBFS_drv.c ****                         bRegTemp = CY_GET_REG8(USBFS_EP0_CR_PTR) & USBFS_MODE_SETUP_RCVD;
 179              		.loc 1 156 0
 180 00e8 46F22803 		movw	r3, #:lower16:1073766440
 181 00ec C4F20003 		movt	r3, #:upper16:1073766440
 182 00f0 1B78     		ldrb	r3, [r3, #0]
ARM GAS  C:\DOCUME~1\ADMINI~1\LOCALS~1\Temp\cceK9gio.s 			page 7


 183 00f2 DBB2     		uxtb	r3, r3
 184 00f4 23F07F03 		bic	r3, r3, #127
 185 00f8 BB71     		strb	r3, [r7, #6]
 157:.\Generated_Source\PSoC5/USBFS_drv.c ****                         if(bRegTemp == 0)                           /* Check if SETUP bit is not se
 186              		.loc 1 157 0
 187 00fa BB79     		ldrb	r3, [r7, #6]	@ zero_extendqisi2
 188 00fc 002B     		cmp	r3, #0
 189 00fe 13D1     		bne	.L9
 158:.\Generated_Source\PSoC5/USBFS_drv.c ****                         {
 159:.\Generated_Source\PSoC5/USBFS_drv.c ****                             /* Set the Mode Register  */
 160:.\Generated_Source\PSoC5/USBFS_drv.c ****                             CY_SET_REG8(USBFS_EP0_CR_PTR, USBFS_ep0Mode);
 190              		.loc 1 160 0
 191 0100 46F22803 		movw	r3, #:lower16:1073766440
 192 0104 C4F20003 		movt	r3, #:upper16:1073766440
 193 0108 40F20002 		movw	r2, #:lower16:USBFS_ep0Mode
 194 010c C0F20002 		movt	r2, #:upper16:USBFS_ep0Mode
 195 0110 1278     		ldrb	r2, [r2, #0]
 196 0112 D2B2     		uxtb	r2, r2
 197 0114 1A70     		strb	r2, [r3, #0]
 161:.\Generated_Source\PSoC5/USBFS_drv.c ****                             /* writing check */
 162:.\Generated_Source\PSoC5/USBFS_drv.c ****                             modifyReg = CY_GET_REG8(USBFS_EP0_CR_PTR) & USBFS_MODE_MASK;
 198              		.loc 1 162 0
 199 0116 46F22803 		movw	r3, #:lower16:1073766440
 200 011a C4F20003 		movt	r3, #:upper16:1073766440
 201 011e 1B78     		ldrb	r3, [r3, #0]
 202 0120 DBB2     		uxtb	r3, r3
 203 0122 03F00F03 		and	r3, r3, #15
 204 0126 FB71     		strb	r3, [r7, #7]
 205              	.L9:
 163:.\Generated_Source\PSoC5/USBFS_drv.c ****                         }
 164:.\Generated_Source\PSoC5/USBFS_drv.c ****                     }while(modifyReg != USBFS_ep0Mode);  /* repeat if writing was not successful */
 206              		.loc 1 164 0
 207 0128 40F20003 		movw	r3, #:lower16:USBFS_ep0Mode
 208 012c C0F20003 		movt	r3, #:upper16:USBFS_ep0Mode
 209 0130 1B78     		ldrb	r3, [r3, #0]
 210 0132 DBB2     		uxtb	r3, r3
 211 0134 FA79     		ldrb	r2, [r7, #7]	@ zero_extendqisi2
 212 0136 9A42     		cmp	r2, r3
 213 0138 D0D1     		bne	.L10
 214              	.L11:
 165:.\Generated_Source\PSoC5/USBFS_drv.c ****                 }
 166:.\Generated_Source\PSoC5/USBFS_drv.c ****             }
 167:.\Generated_Source\PSoC5/USBFS_drv.c ****         }
 168:.\Generated_Source\PSoC5/USBFS_drv.c ****     }
 169:.\Generated_Source\PSoC5/USBFS_drv.c **** }
 215              		.loc 1 169 0
 216 013a 07F10807 		add	r7, r7, #8
 217 013e BD46     		mov	sp, r7
 218 0140 80BD     		pop	{r7, pc}
 219              		.cfi_endproc
 220              	.LFE0:
 221              		.size	USBFS_EP_0_ISR, .-USBFS_EP_0_ISR
 222 0142 00BF     		.section	.text.USBFS_HandleSetup,"ax",%progbits
 223              		.align	2
 224              		.global	USBFS_HandleSetup
 225              		.thumb
 226              		.thumb_func
ARM GAS  C:\DOCUME~1\ADMINI~1\LOCALS~1\Temp\cceK9gio.s 			page 8


 227              		.type	USBFS_HandleSetup, %function
 228              	USBFS_HandleSetup:
 229              	.LFB1:
 170:.\Generated_Source\PSoC5/USBFS_drv.c **** 
 171:.\Generated_Source\PSoC5/USBFS_drv.c **** 
 172:.\Generated_Source\PSoC5/USBFS_drv.c **** /*******************************************************************************
 173:.\Generated_Source\PSoC5/USBFS_drv.c **** * Function Name: USBFS_HandleSetup
 174:.\Generated_Source\PSoC5/USBFS_drv.c **** ********************************************************************************
 175:.\Generated_Source\PSoC5/USBFS_drv.c **** *
 176:.\Generated_Source\PSoC5/USBFS_drv.c **** * Summary:
 177:.\Generated_Source\PSoC5/USBFS_drv.c **** *  This Routine dispatches requests for the four USB request types
 178:.\Generated_Source\PSoC5/USBFS_drv.c **** *
 179:.\Generated_Source\PSoC5/USBFS_drv.c **** * Parameters:
 180:.\Generated_Source\PSoC5/USBFS_drv.c **** *  None.
 181:.\Generated_Source\PSoC5/USBFS_drv.c **** *
 182:.\Generated_Source\PSoC5/USBFS_drv.c **** * Return:
 183:.\Generated_Source\PSoC5/USBFS_drv.c **** *  None.
 184:.\Generated_Source\PSoC5/USBFS_drv.c **** *
 185:.\Generated_Source\PSoC5/USBFS_drv.c **** * Reentrant:
 186:.\Generated_Source\PSoC5/USBFS_drv.c **** *  No.
 187:.\Generated_Source\PSoC5/USBFS_drv.c **** *
 188:.\Generated_Source\PSoC5/USBFS_drv.c **** *******************************************************************************/
 189:.\Generated_Source\PSoC5/USBFS_drv.c **** void USBFS_HandleSetup(void) 
 190:.\Generated_Source\PSoC5/USBFS_drv.c **** {
 230              		.loc 1 190 0
 231              		.cfi_startproc
 232              		@ args = 0, pretend = 0, frame = 8
 233              		@ frame_needed = 1, uses_anonymous_args = 0
 234 0000 80B5     		push	{r7, lr}
 235              	.LCFI3:
 236              		.cfi_def_cfa_offset 8
 237 0002 82B0     		sub	sp, sp, #8
 238              	.LCFI4:
 239              		.cfi_def_cfa_offset 16
 240 0004 00AF     		add	r7, sp, #0
 241              		.cfi_offset 14, -4
 242              		.cfi_offset 7, -8
 243              	.LCFI5:
 244              		.cfi_def_cfa_register 7
 191:.\Generated_Source\PSoC5/USBFS_drv.c ****     uint8 requestHandled;
 192:.\Generated_Source\PSoC5/USBFS_drv.c **** 
 193:.\Generated_Source\PSoC5/USBFS_drv.c ****     requestHandled = CY_GET_REG8(USBFS_EP0_CR_PTR);      /* unlock registers */
 245              		.loc 1 193 0
 246 0006 46F22803 		movw	r3, #:lower16:1073766440
 247 000a C4F20003 		movt	r3, #:upper16:1073766440
 248 000e 1B78     		ldrb	r3, [r3, #0]
 249 0010 FB71     		strb	r3, [r7, #7]
 194:.\Generated_Source\PSoC5/USBFS_drv.c ****     CY_SET_REG8(USBFS_EP0_CR_PTR, requestHandled);       /* clear setup bit */
 250              		.loc 1 194 0
 251 0012 46F22803 		movw	r3, #:lower16:1073766440
 252 0016 C4F20003 		movt	r3, #:upper16:1073766440
 253 001a FA79     		ldrb	r2, [r7, #7]
 254 001c 1A70     		strb	r2, [r3, #0]
 195:.\Generated_Source\PSoC5/USBFS_drv.c ****     requestHandled = CY_GET_REG8(USBFS_EP0_CR_PTR);      /* reread register */
 255              		.loc 1 195 0
 256 001e 46F22803 		movw	r3, #:lower16:1073766440
 257 0022 C4F20003 		movt	r3, #:upper16:1073766440
ARM GAS  C:\DOCUME~1\ADMINI~1\LOCALS~1\Temp\cceK9gio.s 			page 9


 258 0026 1B78     		ldrb	r3, [r3, #0]
 259 0028 FB71     		strb	r3, [r7, #7]
 196:.\Generated_Source\PSoC5/USBFS_drv.c ****     if(requestHandled & USBFS_MODE_SETUP_RCVD)
 260              		.loc 1 196 0
 261 002a FB79     		ldrb	r3, [r7, #7]	@ zero_extendqisi2
 262 002c 5BB2     		sxtb	r3, r3
 263 002e 002B     		cmp	r3, #0
 264 0030 06DA     		bge	.L14
 197:.\Generated_Source\PSoC5/USBFS_drv.c ****     {
 198:.\Generated_Source\PSoC5/USBFS_drv.c ****         USBFS_ep0Mode = requestHandled;        /* if SETUP bit set -> exit without modifying the mo
 265              		.loc 1 198 0
 266 0032 40F20003 		movw	r3, #:lower16:USBFS_ep0Mode
 267 0036 C0F20003 		movt	r3, #:upper16:USBFS_ep0Mode
 268 003a FA79     		ldrb	r2, [r7, #7]
 269 003c 1A70     		strb	r2, [r3, #0]
 270 003e 2DE0     		b	.L21
 271              	.L14:
 199:.\Generated_Source\PSoC5/USBFS_drv.c ****     }
 200:.\Generated_Source\PSoC5/USBFS_drv.c ****     else
 201:.\Generated_Source\PSoC5/USBFS_drv.c ****     {
 202:.\Generated_Source\PSoC5/USBFS_drv.c ****         /* In case the previous transfer did not complete, close it out */
 203:.\Generated_Source\PSoC5/USBFS_drv.c ****         USBFS_UpdateStatusBlock(USBFS_XFER_PREMATURE);
 272              		.loc 1 203 0
 273 0040 4FF00200 		mov	r0, #2
 274 0044 FFF7FEFF 		bl	USBFS_UpdateStatusBlock
 204:.\Generated_Source\PSoC5/USBFS_drv.c **** 
 205:.\Generated_Source\PSoC5/USBFS_drv.c ****         switch (CY_GET_REG8(USBFS_bmRequestType) & USBFS_RQST_TYPE_MASK)
 275              		.loc 1 205 0
 276 0048 46F20003 		movw	r3, #:lower16:1073766400
 277 004c C4F20003 		movt	r3, #:upper16:1073766400
 278 0050 1B78     		ldrb	r3, [r3, #0]
 279 0052 DBB2     		uxtb	r3, r3
 280 0054 03F06003 		and	r3, r3, #96
 281 0058 202B     		cmp	r3, #32
 282 005a 08D0     		beq	.L18
 283 005c 402B     		cmp	r3, #64
 284 005e 0BD0     		beq	.L19
 285 0060 002B     		cmp	r3, #0
 286 0062 0ED1     		bne	.L22
 287              	.L17:
 206:.\Generated_Source\PSoC5/USBFS_drv.c ****         {
 207:.\Generated_Source\PSoC5/USBFS_drv.c ****             case USBFS_RQST_TYPE_STD:
 208:.\Generated_Source\PSoC5/USBFS_drv.c ****                 requestHandled = USBFS_HandleStandardRqst();
 288              		.loc 1 208 0
 289 0064 FFF7FEFF 		bl	USBFS_HandleStandardRqst
 290 0068 0346     		mov	r3, r0
 291 006a FB71     		strb	r3, [r7, #7]
 209:.\Generated_Source\PSoC5/USBFS_drv.c ****                 break;
 292              		.loc 1 209 0
 293 006c 0CE0     		b	.L20
 294              	.L18:
 210:.\Generated_Source\PSoC5/USBFS_drv.c ****             case USBFS_RQST_TYPE_CLS:
 211:.\Generated_Source\PSoC5/USBFS_drv.c ****                 requestHandled = USBFS_DispatchClassRqst();
 295              		.loc 1 211 0
 296 006e FFF7FEFF 		bl	USBFS_DispatchClassRqst
 297 0072 0346     		mov	r3, r0
 298 0074 FB71     		strb	r3, [r7, #7]
ARM GAS  C:\DOCUME~1\ADMINI~1\LOCALS~1\Temp\cceK9gio.s 			page 10


 212:.\Generated_Source\PSoC5/USBFS_drv.c ****                 break;
 299              		.loc 1 212 0
 300 0076 07E0     		b	.L20
 301              	.L19:
 213:.\Generated_Source\PSoC5/USBFS_drv.c ****             case USBFS_RQST_TYPE_VND:
 214:.\Generated_Source\PSoC5/USBFS_drv.c ****                 requestHandled = USBFS_HandleVendorRqst();
 302              		.loc 1 214 0
 303 0078 FFF7FEFF 		bl	USBFS_HandleVendorRqst
 304 007c 0346     		mov	r3, r0
 305 007e FB71     		strb	r3, [r7, #7]
 215:.\Generated_Source\PSoC5/USBFS_drv.c ****                 break;
 306              		.loc 1 215 0
 307 0080 02E0     		b	.L20
 308              	.L22:
 216:.\Generated_Source\PSoC5/USBFS_drv.c ****             default:
 217:.\Generated_Source\PSoC5/USBFS_drv.c ****                 requestHandled = USBFS_FALSE;
 309              		.loc 1 217 0
 310 0082 4FF00003 		mov	r3, #0
 311 0086 FB71     		strb	r3, [r7, #7]
 312              	.L20:
 218:.\Generated_Source\PSoC5/USBFS_drv.c ****                 break;
 219:.\Generated_Source\PSoC5/USBFS_drv.c ****         }
 220:.\Generated_Source\PSoC5/USBFS_drv.c ****         if (requestHandled == USBFS_FALSE)
 313              		.loc 1 220 0
 314 0088 FB79     		ldrb	r3, [r7, #7]	@ zero_extendqisi2
 315 008a 002B     		cmp	r3, #0
 316 008c 06D1     		bne	.L21
 221:.\Generated_Source\PSoC5/USBFS_drv.c ****         {
 222:.\Generated_Source\PSoC5/USBFS_drv.c ****             USBFS_ep0Mode = USBFS_MODE_STALL_IN_OUT;
 317              		.loc 1 222 0
 318 008e 40F20003 		movw	r3, #:lower16:USBFS_ep0Mode
 319 0092 C0F20003 		movt	r3, #:upper16:USBFS_ep0Mode
 320 0096 4FF00302 		mov	r2, #3
 321 009a 1A70     		strb	r2, [r3, #0]
 322              	.L21:
 223:.\Generated_Source\PSoC5/USBFS_drv.c ****         }
 224:.\Generated_Source\PSoC5/USBFS_drv.c ****     }
 225:.\Generated_Source\PSoC5/USBFS_drv.c **** }
 323              		.loc 1 225 0
 324 009c 07F10807 		add	r7, r7, #8
 325 00a0 BD46     		mov	sp, r7
 326 00a2 80BD     		pop	{r7, pc}
 327              		.cfi_endproc
 328              	.LFE1:
 329              		.size	USBFS_HandleSetup, .-USBFS_HandleSetup
 330              		.section	.text.USBFS_HandleIN,"ax",%progbits
 331              		.align	2
 332              		.global	USBFS_HandleIN
 333              		.thumb
 334              		.thumb_func
 335              		.type	USBFS_HandleIN, %function
 336              	USBFS_HandleIN:
 337              	.LFB2:
 226:.\Generated_Source\PSoC5/USBFS_drv.c **** 
 227:.\Generated_Source\PSoC5/USBFS_drv.c **** 
 228:.\Generated_Source\PSoC5/USBFS_drv.c **** /*******************************************************************************
 229:.\Generated_Source\PSoC5/USBFS_drv.c **** * Function Name: USBFS_HandleIN
ARM GAS  C:\DOCUME~1\ADMINI~1\LOCALS~1\Temp\cceK9gio.s 			page 11


 230:.\Generated_Source\PSoC5/USBFS_drv.c **** ********************************************************************************
 231:.\Generated_Source\PSoC5/USBFS_drv.c **** *
 232:.\Generated_Source\PSoC5/USBFS_drv.c **** * Summary:
 233:.\Generated_Source\PSoC5/USBFS_drv.c **** *  This routine handles EP0 IN transfers.
 234:.\Generated_Source\PSoC5/USBFS_drv.c **** *
 235:.\Generated_Source\PSoC5/USBFS_drv.c **** * Parameters:
 236:.\Generated_Source\PSoC5/USBFS_drv.c **** *  None.
 237:.\Generated_Source\PSoC5/USBFS_drv.c **** *
 238:.\Generated_Source\PSoC5/USBFS_drv.c **** * Return:
 239:.\Generated_Source\PSoC5/USBFS_drv.c **** *  None.
 240:.\Generated_Source\PSoC5/USBFS_drv.c **** *
 241:.\Generated_Source\PSoC5/USBFS_drv.c **** * Reentrant:
 242:.\Generated_Source\PSoC5/USBFS_drv.c **** *  No.
 243:.\Generated_Source\PSoC5/USBFS_drv.c **** *
 244:.\Generated_Source\PSoC5/USBFS_drv.c **** *******************************************************************************/
 245:.\Generated_Source\PSoC5/USBFS_drv.c **** void USBFS_HandleIN(void) 
 246:.\Generated_Source\PSoC5/USBFS_drv.c **** {
 338              		.loc 1 246 0
 339              		.cfi_startproc
 340              		@ args = 0, pretend = 0, frame = 0
 341              		@ frame_needed = 1, uses_anonymous_args = 0
 342 0000 80B5     		push	{r7, lr}
 343              	.LCFI6:
 344              		.cfi_def_cfa_offset 8
 345 0002 00AF     		add	r7, sp, #0
 346              		.cfi_offset 14, -4
 347              		.cfi_offset 7, -8
 348              	.LCFI7:
 349              		.cfi_def_cfa_register 7
 247:.\Generated_Source\PSoC5/USBFS_drv.c ****     switch (USBFS_transferState)
 350              		.loc 1 247 0
 351 0004 40F20003 		movw	r3, #:lower16:USBFS_transferState
 352 0008 C0F20003 		movt	r3, #:upper16:USBFS_transferState
 353 000c 1B78     		ldrb	r3, [r3, #0]
 354 000e DBB2     		uxtb	r3, r3
 355 0010 062B     		cmp	r3, #6
 356 0012 19D8     		bhi	.L30
 357 0014 01A2     		adr	r2, .L29
 358 0016 52F823F0 		ldr	pc, [r2, r3, lsl #2]
 359 001a 00BF     		.align	2
 360              	.L29:
 361 001c 49000000 		.word	.L30+1
 362 0020 49000000 		.word	.L30+1
 363 0024 39000000 		.word	.L26+1
 364 0028 49000000 		.word	.L30+1
 365 002c 3F000000 		.word	.L27+1
 366 0030 49000000 		.word	.L30+1
 367 0034 45000000 		.word	.L28+1
 368              	.L26:
 248:.\Generated_Source\PSoC5/USBFS_drv.c ****     {
 249:.\Generated_Source\PSoC5/USBFS_drv.c ****         case USBFS_TRANS_STATE_IDLE:
 250:.\Generated_Source\PSoC5/USBFS_drv.c ****             break;
 251:.\Generated_Source\PSoC5/USBFS_drv.c ****         case USBFS_TRANS_STATE_CONTROL_READ:
 252:.\Generated_Source\PSoC5/USBFS_drv.c ****             USBFS_ControlReadDataStage();
 369              		.loc 1 252 0
 370 0038 FFF7FEFF 		bl	USBFS_ControlReadDataStage
 253:.\Generated_Source\PSoC5/USBFS_drv.c ****             break;
ARM GAS  C:\DOCUME~1\ADMINI~1\LOCALS~1\Temp\cceK9gio.s 			page 12


 371              		.loc 1 253 0
 372 003c 04E0     		b	.L30
 373              	.L27:
 254:.\Generated_Source\PSoC5/USBFS_drv.c ****         case USBFS_TRANS_STATE_CONTROL_WRITE:
 255:.\Generated_Source\PSoC5/USBFS_drv.c ****             USBFS_ControlWriteStatusStage();
 374              		.loc 1 255 0
 375 003e FFF7FEFF 		bl	USBFS_ControlWriteStatusStage
 256:.\Generated_Source\PSoC5/USBFS_drv.c ****             break;
 376              		.loc 1 256 0
 377 0042 01E0     		b	.L30
 378              	.L28:
 257:.\Generated_Source\PSoC5/USBFS_drv.c ****         case USBFS_TRANS_STATE_NO_DATA_CONTROL:
 258:.\Generated_Source\PSoC5/USBFS_drv.c ****             USBFS_NoDataControlStatusStage();
 379              		.loc 1 258 0
 380 0044 FFF7FEFF 		bl	USBFS_NoDataControlStatusStage
 381              	.L30:
 259:.\Generated_Source\PSoC5/USBFS_drv.c ****             break;
 260:.\Generated_Source\PSoC5/USBFS_drv.c ****         default:    /* there are no more states */
 261:.\Generated_Source\PSoC5/USBFS_drv.c ****             break;
 262:.\Generated_Source\PSoC5/USBFS_drv.c ****     }
 263:.\Generated_Source\PSoC5/USBFS_drv.c **** }
 382              		.loc 1 263 0
 383 0048 80BD     		pop	{r7, pc}
 384              		.cfi_endproc
 385              	.LFE2:
 386              		.size	USBFS_HandleIN, .-USBFS_HandleIN
 387 004a 00BF     		.section	.text.USBFS_HandleOUT,"ax",%progbits
 388              		.align	2
 389              		.global	USBFS_HandleOUT
 390              		.thumb
 391              		.thumb_func
 392              		.type	USBFS_HandleOUT, %function
 393              	USBFS_HandleOUT:
 394              	.LFB3:
 264:.\Generated_Source\PSoC5/USBFS_drv.c **** 
 265:.\Generated_Source\PSoC5/USBFS_drv.c **** 
 266:.\Generated_Source\PSoC5/USBFS_drv.c **** /*******************************************************************************
 267:.\Generated_Source\PSoC5/USBFS_drv.c **** * Function Name: USBFS_HandleOUT
 268:.\Generated_Source\PSoC5/USBFS_drv.c **** ********************************************************************************
 269:.\Generated_Source\PSoC5/USBFS_drv.c **** *
 270:.\Generated_Source\PSoC5/USBFS_drv.c **** * Summary:
 271:.\Generated_Source\PSoC5/USBFS_drv.c **** *  This routine handles EP0 OUT transfers.
 272:.\Generated_Source\PSoC5/USBFS_drv.c **** *
 273:.\Generated_Source\PSoC5/USBFS_drv.c **** * Parameters:
 274:.\Generated_Source\PSoC5/USBFS_drv.c **** *  None.
 275:.\Generated_Source\PSoC5/USBFS_drv.c **** *
 276:.\Generated_Source\PSoC5/USBFS_drv.c **** * Return:
 277:.\Generated_Source\PSoC5/USBFS_drv.c **** *  None.
 278:.\Generated_Source\PSoC5/USBFS_drv.c **** *
 279:.\Generated_Source\PSoC5/USBFS_drv.c **** * Reentrant:
 280:.\Generated_Source\PSoC5/USBFS_drv.c **** *  No.
 281:.\Generated_Source\PSoC5/USBFS_drv.c **** *
 282:.\Generated_Source\PSoC5/USBFS_drv.c **** *******************************************************************************/
 283:.\Generated_Source\PSoC5/USBFS_drv.c **** void USBFS_HandleOUT(void) 
 284:.\Generated_Source\PSoC5/USBFS_drv.c **** {
 395              		.loc 1 284 0
 396              		.cfi_startproc
ARM GAS  C:\DOCUME~1\ADMINI~1\LOCALS~1\Temp\cceK9gio.s 			page 13


 397              		@ args = 0, pretend = 0, frame = 0
 398              		@ frame_needed = 1, uses_anonymous_args = 0
 399 0000 80B5     		push	{r7, lr}
 400              	.LCFI8:
 401              		.cfi_def_cfa_offset 8
 402 0002 00AF     		add	r7, sp, #0
 403              		.cfi_offset 14, -4
 404              		.cfi_offset 7, -8
 405              	.LCFI9:
 406              		.cfi_def_cfa_register 7
 285:.\Generated_Source\PSoC5/USBFS_drv.c ****     switch (USBFS_transferState)
 407              		.loc 1 285 0
 408 0004 40F20003 		movw	r3, #:lower16:USBFS_transferState
 409 0008 C0F20003 		movt	r3, #:upper16:USBFS_transferState
 410 000c 1B78     		ldrb	r3, [r3, #0]
 411 000e DBB2     		uxtb	r3, r3
 412 0010 062B     		cmp	r3, #6
 413 0012 22D8     		bhi	.L38
 414 0014 01A2     		adr	r2, .L37
 415 0016 52F823F0 		ldr	pc, [r2, r3, lsl #2]
 416 001a 00BF     		.align	2
 417              	.L37:
 418 001c 5B000000 		.word	.L38+1
 419 0020 5B000000 		.word	.L38+1
 420 0024 39000000 		.word	.L34+1
 421 0028 5B000000 		.word	.L38+1
 422 002c 3F000000 		.word	.L35+1
 423 0030 5B000000 		.word	.L38+1
 424 0034 45000000 		.word	.L36+1
 425              	.L34:
 286:.\Generated_Source\PSoC5/USBFS_drv.c ****     {
 287:.\Generated_Source\PSoC5/USBFS_drv.c ****         case USBFS_TRANS_STATE_IDLE:
 288:.\Generated_Source\PSoC5/USBFS_drv.c ****             break;
 289:.\Generated_Source\PSoC5/USBFS_drv.c ****         case USBFS_TRANS_STATE_CONTROL_READ:
 290:.\Generated_Source\PSoC5/USBFS_drv.c ****             USBFS_ControlReadStatusStage();
 426              		.loc 1 290 0
 427 0038 FFF7FEFF 		bl	USBFS_ControlReadStatusStage
 291:.\Generated_Source\PSoC5/USBFS_drv.c ****             break;
 428              		.loc 1 291 0
 429 003c 0DE0     		b	.L38
 430              	.L35:
 292:.\Generated_Source\PSoC5/USBFS_drv.c ****         case USBFS_TRANS_STATE_CONTROL_WRITE:
 293:.\Generated_Source\PSoC5/USBFS_drv.c ****             USBFS_ControlWriteDataStage();
 431              		.loc 1 293 0
 432 003e FFF7FEFF 		bl	USBFS_ControlWriteDataStage
 294:.\Generated_Source\PSoC5/USBFS_drv.c ****             break;
 433              		.loc 1 294 0
 434 0042 0AE0     		b	.L38
 435              	.L36:
 295:.\Generated_Source\PSoC5/USBFS_drv.c ****         case USBFS_TRANS_STATE_NO_DATA_CONTROL:
 296:.\Generated_Source\PSoC5/USBFS_drv.c ****             /* Update the completion block */
 297:.\Generated_Source\PSoC5/USBFS_drv.c ****             USBFS_UpdateStatusBlock(USBFS_XFER_ERROR);
 436              		.loc 1 297 0
 437 0044 4FF00300 		mov	r0, #3
 438 0048 FFF7FEFF 		bl	USBFS_UpdateStatusBlock
 298:.\Generated_Source\PSoC5/USBFS_drv.c ****             /* We expect no more data, so stall INs and OUTs */
 299:.\Generated_Source\PSoC5/USBFS_drv.c ****             USBFS_ep0Mode = USBFS_MODE_STALL_IN_OUT;
ARM GAS  C:\DOCUME~1\ADMINI~1\LOCALS~1\Temp\cceK9gio.s 			page 14


 439              		.loc 1 299 0
 440 004c 40F20003 		movw	r3, #:lower16:USBFS_ep0Mode
 441 0050 C0F20003 		movt	r3, #:upper16:USBFS_ep0Mode
 442 0054 4FF00302 		mov	r2, #3
 443 0058 1A70     		strb	r2, [r3, #0]
 444              	.L38:
 300:.\Generated_Source\PSoC5/USBFS_drv.c ****             break;
 301:.\Generated_Source\PSoC5/USBFS_drv.c ****         default:    /* there are no more states */
 302:.\Generated_Source\PSoC5/USBFS_drv.c ****             break;
 303:.\Generated_Source\PSoC5/USBFS_drv.c ****     }
 304:.\Generated_Source\PSoC5/USBFS_drv.c **** }
 445              		.loc 1 304 0
 446 005a 80BD     		pop	{r7, pc}
 447              		.cfi_endproc
 448              	.LFE3:
 449              		.size	USBFS_HandleOUT, .-USBFS_HandleOUT
 450              		.section	.text.USBFS_LoadEP0,"ax",%progbits
 451              		.align	2
 452              		.global	USBFS_LoadEP0
 453              		.thumb
 454              		.thumb_func
 455              		.type	USBFS_LoadEP0, %function
 456              	USBFS_LoadEP0:
 457              	.LFB4:
 305:.\Generated_Source\PSoC5/USBFS_drv.c **** 
 306:.\Generated_Source\PSoC5/USBFS_drv.c **** 
 307:.\Generated_Source\PSoC5/USBFS_drv.c **** /*******************************************************************************
 308:.\Generated_Source\PSoC5/USBFS_drv.c **** * Function Name: USBFS_LoadEP0
 309:.\Generated_Source\PSoC5/USBFS_drv.c **** ********************************************************************************
 310:.\Generated_Source\PSoC5/USBFS_drv.c **** *
 311:.\Generated_Source\PSoC5/USBFS_drv.c **** * Summary:
 312:.\Generated_Source\PSoC5/USBFS_drv.c **** *  This routine loads the EP0 data registers for OUT transfers.  It uses the
 313:.\Generated_Source\PSoC5/USBFS_drv.c **** *  currentTD (previously initialized by the _InitControlWrite function and
 314:.\Generated_Source\PSoC5/USBFS_drv.c **** *  updated for each OUT transfer, and the bLastPacketSize) to determine how
 315:.\Generated_Source\PSoC5/USBFS_drv.c **** *  many uint8s to transfer on the current OUT.
 316:.\Generated_Source\PSoC5/USBFS_drv.c **** *
 317:.\Generated_Source\PSoC5/USBFS_drv.c **** *  If the number of uint8s remaining is zero and the last transfer was full,
 318:.\Generated_Source\PSoC5/USBFS_drv.c **** *  we need to send a zero length packet.  Otherwise we send the minimum
 319:.\Generated_Source\PSoC5/USBFS_drv.c **** *  of the control endpoint size (8) or remaining number of uint8s for the
 320:.\Generated_Source\PSoC5/USBFS_drv.c **** *  transaction.
 321:.\Generated_Source\PSoC5/USBFS_drv.c **** *
 322:.\Generated_Source\PSoC5/USBFS_drv.c **** * Parameters:
 323:.\Generated_Source\PSoC5/USBFS_drv.c **** *  None.
 324:.\Generated_Source\PSoC5/USBFS_drv.c **** *
 325:.\Generated_Source\PSoC5/USBFS_drv.c **** * Return:
 326:.\Generated_Source\PSoC5/USBFS_drv.c **** *  None.
 327:.\Generated_Source\PSoC5/USBFS_drv.c **** *
 328:.\Generated_Source\PSoC5/USBFS_drv.c **** * Global variables:
 329:.\Generated_Source\PSoC5/USBFS_drv.c **** *  USBFS_transferByteCount - Update the transfer byte count from the
 330:.\Generated_Source\PSoC5/USBFS_drv.c **** *     last transaction.
 331:.\Generated_Source\PSoC5/USBFS_drv.c **** *  USBFS_ep0Count - counts the data loaded to the SIE memory in
 332:.\Generated_Source\PSoC5/USBFS_drv.c **** *     current packet.
 333:.\Generated_Source\PSoC5/USBFS_drv.c **** *  USBFS_lastPacketSize - remebers the USBFS_ep0Count value for the
 334:.\Generated_Source\PSoC5/USBFS_drv.c **** *     next packet.
 335:.\Generated_Source\PSoC5/USBFS_drv.c **** *  USBFS_transferByteCount - suma of the previos bytes transferred
 336:.\Generated_Source\PSoC5/USBFS_drv.c **** *     on previous packets(suma of USBFS_lastPacketSize)
 337:.\Generated_Source\PSoC5/USBFS_drv.c **** *  USBFS_ep0Toggle - inverted
ARM GAS  C:\DOCUME~1\ADMINI~1\LOCALS~1\Temp\cceK9gio.s 			page 15


 338:.\Generated_Source\PSoC5/USBFS_drv.c **** *  USBFS_ep0Mode  - prepare for mode register content.
 339:.\Generated_Source\PSoC5/USBFS_drv.c **** *  USBFS_transferState - set to TRANS_STATE_CONTROL_READ
 340:.\Generated_Source\PSoC5/USBFS_drv.c **** *
 341:.\Generated_Source\PSoC5/USBFS_drv.c **** * Reentrant:
 342:.\Generated_Source\PSoC5/USBFS_drv.c **** *  No.
 343:.\Generated_Source\PSoC5/USBFS_drv.c **** *
 344:.\Generated_Source\PSoC5/USBFS_drv.c **** *******************************************************************************/
 345:.\Generated_Source\PSoC5/USBFS_drv.c **** void USBFS_LoadEP0(void) 
 346:.\Generated_Source\PSoC5/USBFS_drv.c **** {
 458              		.loc 1 346 0
 459              		.cfi_startproc
 460              		@ args = 0, pretend = 0, frame = 0
 461              		@ frame_needed = 1, uses_anonymous_args = 0
 462              		@ link register save eliminated.
 463 0000 80B4     		push	{r7}
 464              	.LCFI10:
 465              		.cfi_def_cfa_offset 4
 466 0002 00AF     		add	r7, sp, #0
 467              		.cfi_offset 7, -4
 468              	.LCFI11:
 469              		.cfi_def_cfa_register 7
 347:.\Generated_Source\PSoC5/USBFS_drv.c ****     /* Update the transfer byte count from the last transaction */
 348:.\Generated_Source\PSoC5/USBFS_drv.c ****     USBFS_transferByteCount += USBFS_lastPacketSize;
 470              		.loc 1 348 0
 471 0004 40F20003 		movw	r3, #:lower16:USBFS_lastPacketSize
 472 0008 C0F20003 		movt	r3, #:upper16:USBFS_lastPacketSize
 473 000c 1B78     		ldrb	r3, [r3, #0]
 474 000e DBB2     		uxtb	r3, r3
 475 0010 1A46     		mov	r2, r3
 476 0012 40F20003 		movw	r3, #:lower16:USBFS_transferByteCount
 477 0016 C0F20003 		movt	r3, #:upper16:USBFS_transferByteCount
 478 001a 1B88     		ldrh	r3, [r3, #0]	@ movhi
 479 001c 9BB2     		uxth	r3, r3
 480 001e 1344     		add	r3, r2, r3
 481 0020 9AB2     		uxth	r2, r3
 482 0022 40F20003 		movw	r3, #:lower16:USBFS_transferByteCount
 483 0026 C0F20003 		movt	r3, #:upper16:USBFS_transferByteCount
 484 002a 1A80     		strh	r2, [r3, #0]	@ movhi
 349:.\Generated_Source\PSoC5/USBFS_drv.c ****     /* Now load the next transaction */
 350:.\Generated_Source\PSoC5/USBFS_drv.c ****     USBFS_ep0Count = 0u;
 485              		.loc 1 350 0
 486 002c 40F20003 		movw	r3, #:lower16:USBFS_ep0Count
 487 0030 C0F20003 		movt	r3, #:upper16:USBFS_ep0Count
 488 0034 4FF00002 		mov	r2, #0
 489 0038 1A70     		strb	r2, [r3, #0]
 351:.\Generated_Source\PSoC5/USBFS_drv.c ****     while ((USBFS_currentTD.count > 0u) && (USBFS_ep0Count < 8u))
 490              		.loc 1 351 0
 491 003a 34E0     		b	.L40
 492              	.L42:
 352:.\Generated_Source\PSoC5/USBFS_drv.c ****     {
 353:.\Generated_Source\PSoC5/USBFS_drv.c ****         USBFS_EP0_DR0_PTR[USBFS_ep0Count] = *USBFS_currentTD.pData++;
 493              		.loc 1 353 0
 494 003c 40F20003 		movw	r3, #:lower16:USBFS_ep0Count
 495 0040 C0F20003 		movt	r3, #:upper16:USBFS_ep0Count
 496 0044 1B78     		ldrb	r3, [r3, #0]
 497 0046 DBB2     		uxtb	r3, r3
 498 0048 03F18043 		add	r3, r3, #1073741824
ARM GAS  C:\DOCUME~1\ADMINI~1\LOCALS~1\Temp\cceK9gio.s 			page 16


 499 004c 03F5C043 		add	r3, r3, #24576
 500 0050 40F20002 		movw	r2, #:lower16:USBFS_currentTD
 501 0054 C0F20002 		movt	r2, #:upper16:USBFS_currentTD
 502 0058 5268     		ldr	r2, [r2, #4]
 503 005a 1178     		ldrb	r1, [r2, #0]
 504 005c C9B2     		uxtb	r1, r1
 505 005e 1970     		strb	r1, [r3, #0]
 506 0060 02F10102 		add	r2, r2, #1
 507 0064 40F20003 		movw	r3, #:lower16:USBFS_currentTD
 508 0068 C0F20003 		movt	r3, #:upper16:USBFS_currentTD
 509 006c 5A60     		str	r2, [r3, #4]
 354:.\Generated_Source\PSoC5/USBFS_drv.c ****         USBFS_ep0Count++;
 510              		.loc 1 354 0
 511 006e 40F20003 		movw	r3, #:lower16:USBFS_ep0Count
 512 0072 C0F20003 		movt	r3, #:upper16:USBFS_ep0Count
 513 0076 1B78     		ldrb	r3, [r3, #0]
 514 0078 DBB2     		uxtb	r3, r3
 515 007a 03F10103 		add	r3, r3, #1
 516 007e DAB2     		uxtb	r2, r3
 517 0080 40F20003 		movw	r3, #:lower16:USBFS_ep0Count
 518 0084 C0F20003 		movt	r3, #:upper16:USBFS_ep0Count
 519 0088 1A70     		strb	r2, [r3, #0]
 355:.\Generated_Source\PSoC5/USBFS_drv.c ****         USBFS_currentTD.count--;
 520              		.loc 1 355 0
 521 008a 40F20003 		movw	r3, #:lower16:USBFS_currentTD
 522 008e C0F20003 		movt	r3, #:upper16:USBFS_currentTD
 523 0092 1B88     		ldrh	r3, [r3, #0]	@ movhi
 524 0094 9BB2     		uxth	r3, r3
 525 0096 03F1FF33 		add	r3, r3, #-1
 526 009a 9AB2     		uxth	r2, r3
 527 009c 40F20003 		movw	r3, #:lower16:USBFS_currentTD
 528 00a0 C0F20003 		movt	r3, #:upper16:USBFS_currentTD
 529 00a4 1A80     		strh	r2, [r3, #0]	@ movhi
 530              	.L40:
 531              		.loc 1 351 0
 532 00a6 40F20003 		movw	r3, #:lower16:USBFS_currentTD
 533 00aa C0F20003 		movt	r3, #:upper16:USBFS_currentTD
 534 00ae 1B88     		ldrh	r3, [r3, #0]	@ movhi
 535 00b0 9BB2     		uxth	r3, r3
 536 00b2 002B     		cmp	r3, #0
 537 00b4 07D0     		beq	.L41
 538 00b6 40F20003 		movw	r3, #:lower16:USBFS_ep0Count
 539 00ba C0F20003 		movt	r3, #:upper16:USBFS_ep0Count
 540 00be 1B78     		ldrb	r3, [r3, #0]
 541 00c0 DBB2     		uxtb	r3, r3
 542 00c2 072B     		cmp	r3, #7
 543 00c4 BAD9     		bls	.L42
 544              	.L41:
 356:.\Generated_Source\PSoC5/USBFS_drv.c ****     }
 357:.\Generated_Source\PSoC5/USBFS_drv.c ****     /* Support zero-length packet*/
 358:.\Generated_Source\PSoC5/USBFS_drv.c ****     if( (USBFS_ep0Count > 0u) || (USBFS_lastPacketSize == 8u) )
 545              		.loc 1 358 0
 546 00c6 40F20003 		movw	r3, #:lower16:USBFS_ep0Count
 547 00ca C0F20003 		movt	r3, #:upper16:USBFS_ep0Count
 548 00ce 1B78     		ldrb	r3, [r3, #0]
 549 00d0 DBB2     		uxtb	r3, r3
 550 00d2 002B     		cmp	r3, #0
ARM GAS  C:\DOCUME~1\ADMINI~1\LOCALS~1\Temp\cceK9gio.s 			page 17


 551 00d4 07D1     		bne	.L43
 552 00d6 40F20003 		movw	r3, #:lower16:USBFS_lastPacketSize
 553 00da C0F20003 		movt	r3, #:upper16:USBFS_lastPacketSize
 554 00de 1B78     		ldrb	r3, [r3, #0]
 555 00e0 DBB2     		uxtb	r3, r3
 556 00e2 082B     		cmp	r3, #8
 557 00e4 1ED1     		bne	.L44
 558              	.L43:
 359:.\Generated_Source\PSoC5/USBFS_drv.c ****     {
 360:.\Generated_Source\PSoC5/USBFS_drv.c ****         /* Update the data toggle */
 361:.\Generated_Source\PSoC5/USBFS_drv.c ****         USBFS_ep0Toggle ^= USBFS_EP0_CNT_DATA_TOGGLE;
 559              		.loc 1 361 0
 560 00e6 40F20003 		movw	r3, #:lower16:USBFS_ep0Toggle
 561 00ea C0F20003 		movt	r3, #:upper16:USBFS_ep0Toggle
 562 00ee 1B78     		ldrb	r3, [r3, #0]
 563 00f0 DAB2     		uxtb	r2, r3
 564 00f2 6FF07F03 		mvn	r3, #127
 565 00f6 82EA0303 		eor	r3, r2, r3
 566 00fa DAB2     		uxtb	r2, r3
 567 00fc 40F20003 		movw	r3, #:lower16:USBFS_ep0Toggle
 568 0100 C0F20003 		movt	r3, #:upper16:USBFS_ep0Toggle
 569 0104 1A70     		strb	r2, [r3, #0]
 362:.\Generated_Source\PSoC5/USBFS_drv.c ****         /* Set the Mode Register  */
 363:.\Generated_Source\PSoC5/USBFS_drv.c ****         USBFS_ep0Mode = USBFS_MODE_ACK_IN_STATUS_OUT;
 570              		.loc 1 363 0
 571 0106 40F20003 		movw	r3, #:lower16:USBFS_ep0Mode
 572 010a C0F20003 		movt	r3, #:upper16:USBFS_ep0Mode
 573 010e 4FF00F02 		mov	r2, #15
 574 0112 1A70     		strb	r2, [r3, #0]
 364:.\Generated_Source\PSoC5/USBFS_drv.c ****         /* Update the state (or stay the same) */
 365:.\Generated_Source\PSoC5/USBFS_drv.c ****         USBFS_transferState = USBFS_TRANS_STATE_CONTROL_READ;
 575              		.loc 1 365 0
 576 0114 40F20003 		movw	r3, #:lower16:USBFS_transferState
 577 0118 C0F20003 		movt	r3, #:upper16:USBFS_transferState
 578 011c 4FF00202 		mov	r2, #2
 579 0120 1A70     		strb	r2, [r3, #0]
 580              		.loc 1 358 0
 581 0122 0DE0     		b	.L45
 582              	.L44:
 366:.\Generated_Source\PSoC5/USBFS_drv.c ****     }
 367:.\Generated_Source\PSoC5/USBFS_drv.c ****     else
 368:.\Generated_Source\PSoC5/USBFS_drv.c ****     {
 369:.\Generated_Source\PSoC5/USBFS_drv.c ****         /* Expect Status Stage Out */
 370:.\Generated_Source\PSoC5/USBFS_drv.c ****         USBFS_ep0Mode = USBFS_MODE_STATUS_OUT_ONLY;
 583              		.loc 1 370 0
 584 0124 40F20003 		movw	r3, #:lower16:USBFS_ep0Mode
 585 0128 C0F20003 		movt	r3, #:upper16:USBFS_ep0Mode
 586 012c 4FF00202 		mov	r2, #2
 587 0130 1A70     		strb	r2, [r3, #0]
 371:.\Generated_Source\PSoC5/USBFS_drv.c ****         /* Update the state (or stay the same) */
 372:.\Generated_Source\PSoC5/USBFS_drv.c ****         USBFS_transferState = USBFS_TRANS_STATE_CONTROL_READ;
 588              		.loc 1 372 0
 589 0132 40F20003 		movw	r3, #:lower16:USBFS_transferState
 590 0136 C0F20003 		movt	r3, #:upper16:USBFS_transferState
 591 013a 4FF00202 		mov	r2, #2
 592 013e 1A70     		strb	r2, [r3, #0]
 593              	.L45:
ARM GAS  C:\DOCUME~1\ADMINI~1\LOCALS~1\Temp\cceK9gio.s 			page 18


 373:.\Generated_Source\PSoC5/USBFS_drv.c ****     }
 374:.\Generated_Source\PSoC5/USBFS_drv.c **** 
 375:.\Generated_Source\PSoC5/USBFS_drv.c ****     /* Save the packet size for next time */
 376:.\Generated_Source\PSoC5/USBFS_drv.c ****     USBFS_lastPacketSize = USBFS_ep0Count;
 594              		.loc 1 376 0
 595 0140 40F20003 		movw	r3, #:lower16:USBFS_ep0Count
 596 0144 C0F20003 		movt	r3, #:upper16:USBFS_ep0Count
 597 0148 1B78     		ldrb	r3, [r3, #0]
 598 014a DAB2     		uxtb	r2, r3
 599 014c 40F20003 		movw	r3, #:lower16:USBFS_lastPacketSize
 600 0150 C0F20003 		movt	r3, #:upper16:USBFS_lastPacketSize
 601 0154 1A70     		strb	r2, [r3, #0]
 377:.\Generated_Source\PSoC5/USBFS_drv.c **** }
 602              		.loc 1 377 0
 603 0156 BD46     		mov	sp, r7
 604 0158 80BC     		pop	{r7}
 605 015a 7047     		bx	lr
 606              		.cfi_endproc
 607              	.LFE4:
 608              		.size	USBFS_LoadEP0, .-USBFS_LoadEP0
 609              		.section	.text.USBFS_InitControlRead,"ax",%progbits
 610              		.align	2
 611              		.global	USBFS_InitControlRead
 612              		.thumb
 613              		.thumb_func
 614              		.type	USBFS_InitControlRead, %function
 615              	USBFS_InitControlRead:
 616              	.LFB5:
 378:.\Generated_Source\PSoC5/USBFS_drv.c **** 
 379:.\Generated_Source\PSoC5/USBFS_drv.c **** 
 380:.\Generated_Source\PSoC5/USBFS_drv.c **** /*******************************************************************************
 381:.\Generated_Source\PSoC5/USBFS_drv.c **** * Function Name: USBFS_InitControlRead
 382:.\Generated_Source\PSoC5/USBFS_drv.c **** ********************************************************************************
 383:.\Generated_Source\PSoC5/USBFS_drv.c **** *
 384:.\Generated_Source\PSoC5/USBFS_drv.c **** * Summary:
 385:.\Generated_Source\PSoC5/USBFS_drv.c **** *  Initialize a control read transaction, usable to send data to the host.
 386:.\Generated_Source\PSoC5/USBFS_drv.c **** *  The following global variables shold be initialized before this function
 387:.\Generated_Source\PSoC5/USBFS_drv.c **** *  called. To send zero length packet use InitZeroLengthControlTransfer
 388:.\Generated_Source\PSoC5/USBFS_drv.c **** *  function.
 389:.\Generated_Source\PSoC5/USBFS_drv.c **** *
 390:.\Generated_Source\PSoC5/USBFS_drv.c **** * Parameters:
 391:.\Generated_Source\PSoC5/USBFS_drv.c **** *  None.
 392:.\Generated_Source\PSoC5/USBFS_drv.c **** *
 393:.\Generated_Source\PSoC5/USBFS_drv.c **** * Return:
 394:.\Generated_Source\PSoC5/USBFS_drv.c **** *  requestHandled state.
 395:.\Generated_Source\PSoC5/USBFS_drv.c **** *
 396:.\Generated_Source\PSoC5/USBFS_drv.c **** * Global variables:
 397:.\Generated_Source\PSoC5/USBFS_drv.c **** *  USBFS_currentTD.count - counts of data to be sent.
 398:.\Generated_Source\PSoC5/USBFS_drv.c **** *  USBFS_currentTD.pData - data pointer.
 399:.\Generated_Source\PSoC5/USBFS_drv.c **** *
 400:.\Generated_Source\PSoC5/USBFS_drv.c **** * Reentrant:
 401:.\Generated_Source\PSoC5/USBFS_drv.c **** *  No.
 402:.\Generated_Source\PSoC5/USBFS_drv.c **** *
 403:.\Generated_Source\PSoC5/USBFS_drv.c **** *******************************************************************************/
 404:.\Generated_Source\PSoC5/USBFS_drv.c **** uint8 USBFS_InitControlRead(void) 
 405:.\Generated_Source\PSoC5/USBFS_drv.c **** {
 617              		.loc 1 405 0
ARM GAS  C:\DOCUME~1\ADMINI~1\LOCALS~1\Temp\cceK9gio.s 			page 19


 618              		.cfi_startproc
 619              		@ args = 0, pretend = 0, frame = 8
 620              		@ frame_needed = 1, uses_anonymous_args = 0
 621 0000 80B5     		push	{r7, lr}
 622              	.LCFI12:
 623              		.cfi_def_cfa_offset 8
 624 0002 82B0     		sub	sp, sp, #8
 625              	.LCFI13:
 626              		.cfi_def_cfa_offset 16
 627 0004 00AF     		add	r7, sp, #0
 628              		.cfi_offset 14, -4
 629              		.cfi_offset 7, -8
 630              	.LCFI14:
 631              		.cfi_def_cfa_register 7
 406:.\Generated_Source\PSoC5/USBFS_drv.c ****     uint16 xferCount;
 407:.\Generated_Source\PSoC5/USBFS_drv.c ****     if(USBFS_currentTD.count == 0)
 632              		.loc 1 407 0
 633 0006 40F20003 		movw	r3, #:lower16:USBFS_currentTD
 634 000a C0F20003 		movt	r3, #:upper16:USBFS_currentTD
 635 000e 1B88     		ldrh	r3, [r3, #0]	@ movhi
 636 0010 9BB2     		uxth	r3, r3
 637 0012 002B     		cmp	r3, #0
 638 0014 02D1     		bne	.L48
 408:.\Generated_Source\PSoC5/USBFS_drv.c ****     {
 409:.\Generated_Source\PSoC5/USBFS_drv.c ****         USBFS_InitZeroLengthControlTransfer();
 639              		.loc 1 409 0
 640 0016 FFF7FEFF 		bl	USBFS_InitZeroLengthControlTransfer
 641 001a 33E0     		b	.L49
 642              	.L48:
 410:.\Generated_Source\PSoC5/USBFS_drv.c ****     }
 411:.\Generated_Source\PSoC5/USBFS_drv.c ****     else
 412:.\Generated_Source\PSoC5/USBFS_drv.c ****     {
 413:.\Generated_Source\PSoC5/USBFS_drv.c ****         /* Set up the state machine */
 414:.\Generated_Source\PSoC5/USBFS_drv.c ****         USBFS_transferState = USBFS_TRANS_STATE_CONTROL_READ;
 643              		.loc 1 414 0
 644 001c 40F20003 		movw	r3, #:lower16:USBFS_transferState
 645 0020 C0F20003 		movt	r3, #:upper16:USBFS_transferState
 646 0024 4FF00202 		mov	r2, #2
 647 0028 1A70     		strb	r2, [r3, #0]
 415:.\Generated_Source\PSoC5/USBFS_drv.c ****         /* Set the toggle, it gets updated in LoadEP */
 416:.\Generated_Source\PSoC5/USBFS_drv.c ****         USBFS_ep0Toggle = 0u;
 648              		.loc 1 416 0
 649 002a 40F20003 		movw	r3, #:lower16:USBFS_ep0Toggle
 650 002e C0F20003 		movt	r3, #:upper16:USBFS_ep0Toggle
 651 0032 4FF00002 		mov	r2, #0
 652 0036 1A70     		strb	r2, [r3, #0]
 417:.\Generated_Source\PSoC5/USBFS_drv.c ****         /* Initialize the Status Block */
 418:.\Generated_Source\PSoC5/USBFS_drv.c ****         USBFS_InitializeStatusBlock();
 653              		.loc 1 418 0
 654 0038 FFF7FEFF 		bl	USBFS_InitializeStatusBlock
 419:.\Generated_Source\PSoC5/USBFS_drv.c ****         xferCount = (((uint16)CY_GET_REG8(USBFS_lengthHi) << 8u) | (CY_GET_REG8(USBFS_lengthLo)));
 655              		.loc 1 419 0
 656 003c 46F20703 		movw	r3, #:lower16:1073766407
 657 0040 C4F20003 		movt	r3, #:upper16:1073766407
 658 0044 1B78     		ldrb	r3, [r3, #0]
 659 0046 DBB2     		uxtb	r3, r3
 660 0048 4FEA0323 		lsl	r3, r3, #8
ARM GAS  C:\DOCUME~1\ADMINI~1\LOCALS~1\Temp\cceK9gio.s 			page 20


 661 004c 9AB2     		uxth	r2, r3
 662 004e 46F20603 		movw	r3, #:lower16:1073766406
 663 0052 C4F20003 		movt	r3, #:upper16:1073766406
 664 0056 1B78     		ldrb	r3, [r3, #0]
 665 0058 DBB2     		uxtb	r3, r3
 666 005a 42EA0303 		orr	r3, r2, r3
 667 005e 9BB2     		uxth	r3, r3
 668 0060 FB80     		strh	r3, [r7, #6]	@ movhi
 420:.\Generated_Source\PSoC5/USBFS_drv.c **** 
 421:.\Generated_Source\PSoC5/USBFS_drv.c ****         if (USBFS_currentTD.count > xferCount)
 669              		.loc 1 421 0
 670 0062 40F20003 		movw	r3, #:lower16:USBFS_currentTD
 671 0066 C0F20003 		movt	r3, #:upper16:USBFS_currentTD
 672 006a 1B88     		ldrh	r3, [r3, #0]	@ movhi
 673 006c 9BB2     		uxth	r3, r3
 674 006e FA88     		ldrh	r2, [r7, #6]
 675 0070 9A42     		cmp	r2, r3
 676 0072 05D2     		bcs	.L50
 422:.\Generated_Source\PSoC5/USBFS_drv.c ****         {
 423:.\Generated_Source\PSoC5/USBFS_drv.c ****             USBFS_currentTD.count = xferCount;
 677              		.loc 1 423 0
 678 0074 40F20003 		movw	r3, #:lower16:USBFS_currentTD
 679 0078 C0F20003 		movt	r3, #:upper16:USBFS_currentTD
 680 007c FA88     		ldrh	r2, [r7, #6]	@ movhi
 681 007e 1A80     		strh	r2, [r3, #0]	@ movhi
 682              	.L50:
 424:.\Generated_Source\PSoC5/USBFS_drv.c ****         }
 425:.\Generated_Source\PSoC5/USBFS_drv.c ****         USBFS_LoadEP0();
 683              		.loc 1 425 0
 684 0080 FFF7FEFF 		bl	USBFS_LoadEP0
 685              	.L49:
 426:.\Generated_Source\PSoC5/USBFS_drv.c ****     }
 427:.\Generated_Source\PSoC5/USBFS_drv.c **** 
 428:.\Generated_Source\PSoC5/USBFS_drv.c ****     return(USBFS_TRUE);
 686              		.loc 1 428 0
 687 0084 4FF00103 		mov	r3, #1
 429:.\Generated_Source\PSoC5/USBFS_drv.c **** }
 688              		.loc 1 429 0
 689 0088 1846     		mov	r0, r3
 690 008a 07F10807 		add	r7, r7, #8
 691 008e BD46     		mov	sp, r7
 692 0090 80BD     		pop	{r7, pc}
 693              		.cfi_endproc
 694              	.LFE5:
 695              		.size	USBFS_InitControlRead, .-USBFS_InitControlRead
 696 0092 00BF     		.section	.text.USBFS_InitZeroLengthControlTransfer,"ax",%progbits
 697              		.align	2
 698              		.global	USBFS_InitZeroLengthControlTransfer
 699              		.thumb
 700              		.thumb_func
 701              		.type	USBFS_InitZeroLengthControlTransfer, %function
 702              	USBFS_InitZeroLengthControlTransfer:
 703              	.LFB6:
 430:.\Generated_Source\PSoC5/USBFS_drv.c **** 
 431:.\Generated_Source\PSoC5/USBFS_drv.c **** 
 432:.\Generated_Source\PSoC5/USBFS_drv.c **** /*******************************************************************************
 433:.\Generated_Source\PSoC5/USBFS_drv.c **** * Function Name: USBFS_InitZeroLengthControlTransfer
ARM GAS  C:\DOCUME~1\ADMINI~1\LOCALS~1\Temp\cceK9gio.s 			page 21


 434:.\Generated_Source\PSoC5/USBFS_drv.c **** ********************************************************************************
 435:.\Generated_Source\PSoC5/USBFS_drv.c **** *
 436:.\Generated_Source\PSoC5/USBFS_drv.c **** * Summary:
 437:.\Generated_Source\PSoC5/USBFS_drv.c **** *  Initialize a zero length data IN transfer.
 438:.\Generated_Source\PSoC5/USBFS_drv.c **** *
 439:.\Generated_Source\PSoC5/USBFS_drv.c **** * Parameters:
 440:.\Generated_Source\PSoC5/USBFS_drv.c **** *  None.
 441:.\Generated_Source\PSoC5/USBFS_drv.c **** *
 442:.\Generated_Source\PSoC5/USBFS_drv.c **** * Return:
 443:.\Generated_Source\PSoC5/USBFS_drv.c **** *  requestHandled state.
 444:.\Generated_Source\PSoC5/USBFS_drv.c **** *
 445:.\Generated_Source\PSoC5/USBFS_drv.c **** * Global variables:
 446:.\Generated_Source\PSoC5/USBFS_drv.c **** *  USBFS_ep0Toggle - set to EP0_CNT_DATA_TOGGLE
 447:.\Generated_Source\PSoC5/USBFS_drv.c **** *  USBFS_ep0Mode  - prepare for mode register content.
 448:.\Generated_Source\PSoC5/USBFS_drv.c **** *  USBFS_transferState - set to TRANS_STATE_CONTROL_READ
 449:.\Generated_Source\PSoC5/USBFS_drv.c **** *  USBFS_ep0Count - cleared, means the zero-length packet.
 450:.\Generated_Source\PSoC5/USBFS_drv.c **** *  USBFS_lastPacketSize - cleared.
 451:.\Generated_Source\PSoC5/USBFS_drv.c **** *
 452:.\Generated_Source\PSoC5/USBFS_drv.c **** * Reentrant:
 453:.\Generated_Source\PSoC5/USBFS_drv.c **** *  No.
 454:.\Generated_Source\PSoC5/USBFS_drv.c **** *
 455:.\Generated_Source\PSoC5/USBFS_drv.c **** *******************************************************************************/
 456:.\Generated_Source\PSoC5/USBFS_drv.c **** uint8 USBFS_InitZeroLengthControlTransfer(void)
 457:.\Generated_Source\PSoC5/USBFS_drv.c ****                                                 
 458:.\Generated_Source\PSoC5/USBFS_drv.c **** {
 704              		.loc 1 458 0
 705              		.cfi_startproc
 706              		@ args = 0, pretend = 0, frame = 0
 707              		@ frame_needed = 1, uses_anonymous_args = 0
 708              		@ link register save eliminated.
 709 0000 80B4     		push	{r7}
 710              	.LCFI15:
 711              		.cfi_def_cfa_offset 4
 712 0002 00AF     		add	r7, sp, #0
 713              		.cfi_offset 7, -4
 714              	.LCFI16:
 715              		.cfi_def_cfa_register 7
 459:.\Generated_Source\PSoC5/USBFS_drv.c ****     /* Update the state */
 460:.\Generated_Source\PSoC5/USBFS_drv.c ****     USBFS_transferState = USBFS_TRANS_STATE_CONTROL_READ;
 716              		.loc 1 460 0
 717 0004 40F20003 		movw	r3, #:lower16:USBFS_transferState
 718 0008 C0F20003 		movt	r3, #:upper16:USBFS_transferState
 719 000c 4FF00202 		mov	r2, #2
 720 0010 1A70     		strb	r2, [r3, #0]
 461:.\Generated_Source\PSoC5/USBFS_drv.c ****     /* Set the data toggle */
 462:.\Generated_Source\PSoC5/USBFS_drv.c ****     USBFS_ep0Toggle = USBFS_EP0_CNT_DATA_TOGGLE;
 721              		.loc 1 462 0
 722 0012 40F20003 		movw	r3, #:lower16:USBFS_ep0Toggle
 723 0016 C0F20003 		movt	r3, #:upper16:USBFS_ep0Toggle
 724 001a 6FF07F02 		mvn	r2, #127
 725 001e 1A70     		strb	r2, [r3, #0]
 463:.\Generated_Source\PSoC5/USBFS_drv.c ****     /* Set the Mode Register  */
 464:.\Generated_Source\PSoC5/USBFS_drv.c ****     USBFS_ep0Mode = USBFS_MODE_ACK_IN_STATUS_OUT;
 726              		.loc 1 464 0
 727 0020 40F20003 		movw	r3, #:lower16:USBFS_ep0Mode
 728 0024 C0F20003 		movt	r3, #:upper16:USBFS_ep0Mode
 729 0028 4FF00F02 		mov	r2, #15
ARM GAS  C:\DOCUME~1\ADMINI~1\LOCALS~1\Temp\cceK9gio.s 			page 22


 730 002c 1A70     		strb	r2, [r3, #0]
 465:.\Generated_Source\PSoC5/USBFS_drv.c ****     /* Save the packet size for next time */
 466:.\Generated_Source\PSoC5/USBFS_drv.c ****     USBFS_lastPacketSize = 0u;
 731              		.loc 1 466 0
 732 002e 40F20003 		movw	r3, #:lower16:USBFS_lastPacketSize
 733 0032 C0F20003 		movt	r3, #:upper16:USBFS_lastPacketSize
 734 0036 4FF00002 		mov	r2, #0
 735 003a 1A70     		strb	r2, [r3, #0]
 467:.\Generated_Source\PSoC5/USBFS_drv.c ****     USBFS_ep0Count = 0u;
 736              		.loc 1 467 0
 737 003c 40F20003 		movw	r3, #:lower16:USBFS_ep0Count
 738 0040 C0F20003 		movt	r3, #:upper16:USBFS_ep0Count
 739 0044 4FF00002 		mov	r2, #0
 740 0048 1A70     		strb	r2, [r3, #0]
 468:.\Generated_Source\PSoC5/USBFS_drv.c **** 
 469:.\Generated_Source\PSoC5/USBFS_drv.c ****     return(USBFS_TRUE);
 741              		.loc 1 469 0
 742 004a 4FF00103 		mov	r3, #1
 470:.\Generated_Source\PSoC5/USBFS_drv.c **** }
 743              		.loc 1 470 0
 744 004e 1846     		mov	r0, r3
 745 0050 BD46     		mov	sp, r7
 746 0052 80BC     		pop	{r7}
 747 0054 7047     		bx	lr
 748              		.cfi_endproc
 749              	.LFE6:
 750              		.size	USBFS_InitZeroLengthControlTransfer, .-USBFS_InitZeroLengthControlTransfer
 751 0056 00BF     		.section	.text.USBFS_ControlReadDataStage,"ax",%progbits
 752              		.align	2
 753              		.global	USBFS_ControlReadDataStage
 754              		.thumb
 755              		.thumb_func
 756              		.type	USBFS_ControlReadDataStage, %function
 757              	USBFS_ControlReadDataStage:
 758              	.LFB7:
 471:.\Generated_Source\PSoC5/USBFS_drv.c **** 
 472:.\Generated_Source\PSoC5/USBFS_drv.c **** 
 473:.\Generated_Source\PSoC5/USBFS_drv.c **** /*******************************************************************************
 474:.\Generated_Source\PSoC5/USBFS_drv.c **** * Function Name: USBFS_ControlReadDataStage
 475:.\Generated_Source\PSoC5/USBFS_drv.c **** ********************************************************************************
 476:.\Generated_Source\PSoC5/USBFS_drv.c **** *
 477:.\Generated_Source\PSoC5/USBFS_drv.c **** * Summary:
 478:.\Generated_Source\PSoC5/USBFS_drv.c **** *  Handle the Data Stage of a control read transfer.
 479:.\Generated_Source\PSoC5/USBFS_drv.c **** *
 480:.\Generated_Source\PSoC5/USBFS_drv.c **** * Parameters:
 481:.\Generated_Source\PSoC5/USBFS_drv.c **** *  None.
 482:.\Generated_Source\PSoC5/USBFS_drv.c **** *
 483:.\Generated_Source\PSoC5/USBFS_drv.c **** * Return:
 484:.\Generated_Source\PSoC5/USBFS_drv.c **** *  None.
 485:.\Generated_Source\PSoC5/USBFS_drv.c **** *
 486:.\Generated_Source\PSoC5/USBFS_drv.c **** * Reentrant:
 487:.\Generated_Source\PSoC5/USBFS_drv.c **** *  No.
 488:.\Generated_Source\PSoC5/USBFS_drv.c **** *
 489:.\Generated_Source\PSoC5/USBFS_drv.c **** *******************************************************************************/
 490:.\Generated_Source\PSoC5/USBFS_drv.c **** void USBFS_ControlReadDataStage(void) 
 491:.\Generated_Source\PSoC5/USBFS_drv.c **** 
 492:.\Generated_Source\PSoC5/USBFS_drv.c **** {
ARM GAS  C:\DOCUME~1\ADMINI~1\LOCALS~1\Temp\cceK9gio.s 			page 23


 759              		.loc 1 492 0
 760              		.cfi_startproc
 761              		@ args = 0, pretend = 0, frame = 0
 762              		@ frame_needed = 1, uses_anonymous_args = 0
 763 0000 80B5     		push	{r7, lr}
 764              	.LCFI17:
 765              		.cfi_def_cfa_offset 8
 766 0002 00AF     		add	r7, sp, #0
 767              		.cfi_offset 14, -4
 768              		.cfi_offset 7, -8
 769              	.LCFI18:
 770              		.cfi_def_cfa_register 7
 493:.\Generated_Source\PSoC5/USBFS_drv.c ****     USBFS_LoadEP0();
 771              		.loc 1 493 0
 772 0004 FFF7FEFF 		bl	USBFS_LoadEP0
 494:.\Generated_Source\PSoC5/USBFS_drv.c **** }
 773              		.loc 1 494 0
 774 0008 80BD     		pop	{r7, pc}
 775              		.cfi_endproc
 776              	.LFE7:
 777              		.size	USBFS_ControlReadDataStage, .-USBFS_ControlReadDataStage
 778 000a 00BF     		.section	.text.USBFS_ControlReadStatusStage,"ax",%progbits
 779              		.align	2
 780              		.global	USBFS_ControlReadStatusStage
 781              		.thumb
 782              		.thumb_func
 783              		.type	USBFS_ControlReadStatusStage, %function
 784              	USBFS_ControlReadStatusStage:
 785              	.LFB8:
 495:.\Generated_Source\PSoC5/USBFS_drv.c **** 
 496:.\Generated_Source\PSoC5/USBFS_drv.c **** 
 497:.\Generated_Source\PSoC5/USBFS_drv.c **** /*******************************************************************************
 498:.\Generated_Source\PSoC5/USBFS_drv.c **** * Function Name: USBFS_ControlReadStatusStage
 499:.\Generated_Source\PSoC5/USBFS_drv.c **** ********************************************************************************
 500:.\Generated_Source\PSoC5/USBFS_drv.c **** *
 501:.\Generated_Source\PSoC5/USBFS_drv.c **** * Summary:
 502:.\Generated_Source\PSoC5/USBFS_drv.c **** *  Handle the Status Stage of a control read transfer.
 503:.\Generated_Source\PSoC5/USBFS_drv.c **** *
 504:.\Generated_Source\PSoC5/USBFS_drv.c **** * Parameters:
 505:.\Generated_Source\PSoC5/USBFS_drv.c **** *  None.
 506:.\Generated_Source\PSoC5/USBFS_drv.c **** *
 507:.\Generated_Source\PSoC5/USBFS_drv.c **** * Return:
 508:.\Generated_Source\PSoC5/USBFS_drv.c **** *  None.
 509:.\Generated_Source\PSoC5/USBFS_drv.c **** *
 510:.\Generated_Source\PSoC5/USBFS_drv.c **** * Global variables:
 511:.\Generated_Source\PSoC5/USBFS_drv.c **** *  USBFS_USBFS_transferByteCount - updated with last packet size.
 512:.\Generated_Source\PSoC5/USBFS_drv.c **** *  USBFS_transferState - set to TRANS_STATE_IDLE.
 513:.\Generated_Source\PSoC5/USBFS_drv.c **** *  USBFS_ep0Mode  - set to MODE_STALL_IN_OUT.
 514:.\Generated_Source\PSoC5/USBFS_drv.c **** *
 515:.\Generated_Source\PSoC5/USBFS_drv.c **** * Reentrant:
 516:.\Generated_Source\PSoC5/USBFS_drv.c **** *  No.
 517:.\Generated_Source\PSoC5/USBFS_drv.c **** *
 518:.\Generated_Source\PSoC5/USBFS_drv.c **** *******************************************************************************/
 519:.\Generated_Source\PSoC5/USBFS_drv.c **** void USBFS_ControlReadStatusStage(void) 
 520:.\Generated_Source\PSoC5/USBFS_drv.c **** {
 786              		.loc 1 520 0
 787              		.cfi_startproc
ARM GAS  C:\DOCUME~1\ADMINI~1\LOCALS~1\Temp\cceK9gio.s 			page 24


 788              		@ args = 0, pretend = 0, frame = 0
 789              		@ frame_needed = 1, uses_anonymous_args = 0
 790 0000 80B5     		push	{r7, lr}
 791              	.LCFI19:
 792              		.cfi_def_cfa_offset 8
 793 0002 00AF     		add	r7, sp, #0
 794              		.cfi_offset 14, -4
 795              		.cfi_offset 7, -8
 796              	.LCFI20:
 797              		.cfi_def_cfa_register 7
 521:.\Generated_Source\PSoC5/USBFS_drv.c ****     /* Update the transfer byte count */
 522:.\Generated_Source\PSoC5/USBFS_drv.c ****     USBFS_transferByteCount += USBFS_lastPacketSize;
 798              		.loc 1 522 0
 799 0004 40F20003 		movw	r3, #:lower16:USBFS_lastPacketSize
 800 0008 C0F20003 		movt	r3, #:upper16:USBFS_lastPacketSize
 801 000c 1B78     		ldrb	r3, [r3, #0]
 802 000e DBB2     		uxtb	r3, r3
 803 0010 1A46     		mov	r2, r3
 804 0012 40F20003 		movw	r3, #:lower16:USBFS_transferByteCount
 805 0016 C0F20003 		movt	r3, #:upper16:USBFS_transferByteCount
 806 001a 1B88     		ldrh	r3, [r3, #0]	@ movhi
 807 001c 9BB2     		uxth	r3, r3
 808 001e 1344     		add	r3, r2, r3
 809 0020 9AB2     		uxth	r2, r3
 810 0022 40F20003 		movw	r3, #:lower16:USBFS_transferByteCount
 811 0026 C0F20003 		movt	r3, #:upper16:USBFS_transferByteCount
 812 002a 1A80     		strh	r2, [r3, #0]	@ movhi
 523:.\Generated_Source\PSoC5/USBFS_drv.c ****     /* Go Idle */
 524:.\Generated_Source\PSoC5/USBFS_drv.c ****     USBFS_transferState = USBFS_TRANS_STATE_IDLE;
 813              		.loc 1 524 0
 814 002c 40F20003 		movw	r3, #:lower16:USBFS_transferState
 815 0030 C0F20003 		movt	r3, #:upper16:USBFS_transferState
 816 0034 4FF00002 		mov	r2, #0
 817 0038 1A70     		strb	r2, [r3, #0]
 525:.\Generated_Source\PSoC5/USBFS_drv.c ****     /* Update the completion block */
 526:.\Generated_Source\PSoC5/USBFS_drv.c ****     USBFS_UpdateStatusBlock(USBFS_XFER_STATUS_ACK);
 818              		.loc 1 526 0
 819 003a 4FF00100 		mov	r0, #1
 820 003e FFF7FEFF 		bl	USBFS_UpdateStatusBlock
 527:.\Generated_Source\PSoC5/USBFS_drv.c ****      /* We expect no more data, so stall INs and OUTs */
 528:.\Generated_Source\PSoC5/USBFS_drv.c ****     USBFS_ep0Mode =  USBFS_MODE_STALL_IN_OUT;
 821              		.loc 1 528 0
 822 0042 40F20003 		movw	r3, #:lower16:USBFS_ep0Mode
 823 0046 C0F20003 		movt	r3, #:upper16:USBFS_ep0Mode
 824 004a 4FF00302 		mov	r2, #3
 825 004e 1A70     		strb	r2, [r3, #0]
 529:.\Generated_Source\PSoC5/USBFS_drv.c **** }
 826              		.loc 1 529 0
 827 0050 80BD     		pop	{r7, pc}
 828              		.cfi_endproc
 829              	.LFE8:
 830              		.size	USBFS_ControlReadStatusStage, .-USBFS_ControlReadStatusStage
 831 0052 00BF     		.section	.text.USBFS_InitControlWrite,"ax",%progbits
 832              		.align	2
 833              		.global	USBFS_InitControlWrite
 834              		.thumb
 835              		.thumb_func
ARM GAS  C:\DOCUME~1\ADMINI~1\LOCALS~1\Temp\cceK9gio.s 			page 25


 836              		.type	USBFS_InitControlWrite, %function
 837              	USBFS_InitControlWrite:
 838              	.LFB9:
 530:.\Generated_Source\PSoC5/USBFS_drv.c **** 
 531:.\Generated_Source\PSoC5/USBFS_drv.c **** 
 532:.\Generated_Source\PSoC5/USBFS_drv.c **** /*******************************************************************************
 533:.\Generated_Source\PSoC5/USBFS_drv.c **** * Function Name: USBFS_InitControlWrite
 534:.\Generated_Source\PSoC5/USBFS_drv.c **** ********************************************************************************
 535:.\Generated_Source\PSoC5/USBFS_drv.c **** *
 536:.\Generated_Source\PSoC5/USBFS_drv.c **** * Summary:
 537:.\Generated_Source\PSoC5/USBFS_drv.c **** *  Initialize a control write transaction
 538:.\Generated_Source\PSoC5/USBFS_drv.c **** *
 539:.\Generated_Source\PSoC5/USBFS_drv.c **** * Parameters:
 540:.\Generated_Source\PSoC5/USBFS_drv.c **** *  None.
 541:.\Generated_Source\PSoC5/USBFS_drv.c **** *
 542:.\Generated_Source\PSoC5/USBFS_drv.c **** * Return:
 543:.\Generated_Source\PSoC5/USBFS_drv.c **** *  requestHandled state.
 544:.\Generated_Source\PSoC5/USBFS_drv.c **** *
 545:.\Generated_Source\PSoC5/USBFS_drv.c **** * Global variables:
 546:.\Generated_Source\PSoC5/USBFS_drv.c **** *  USBFS_USBFS_transferState - set to TRANS_STATE_CONTROL_WRITE
 547:.\Generated_Source\PSoC5/USBFS_drv.c **** *  USBFS_ep0Toggle - set to EP0_CNT_DATA_TOGGLE
 548:.\Generated_Source\PSoC5/USBFS_drv.c **** *  USBFS_ep0Mode  - set to MODE_ACK_OUT_STATUS_IN
 549:.\Generated_Source\PSoC5/USBFS_drv.c **** *
 550:.\Generated_Source\PSoC5/USBFS_drv.c **** * Reentrant:
 551:.\Generated_Source\PSoC5/USBFS_drv.c **** *  No.
 552:.\Generated_Source\PSoC5/USBFS_drv.c **** *
 553:.\Generated_Source\PSoC5/USBFS_drv.c **** *******************************************************************************/
 554:.\Generated_Source\PSoC5/USBFS_drv.c **** uint8 USBFS_InitControlWrite(void) 
 555:.\Generated_Source\PSoC5/USBFS_drv.c **** {
 839              		.loc 1 555 0
 840              		.cfi_startproc
 841              		@ args = 0, pretend = 0, frame = 8
 842              		@ frame_needed = 1, uses_anonymous_args = 0
 843 0000 80B5     		push	{r7, lr}
 844              	.LCFI21:
 845              		.cfi_def_cfa_offset 8
 846 0002 82B0     		sub	sp, sp, #8
 847              	.LCFI22:
 848              		.cfi_def_cfa_offset 16
 849 0004 00AF     		add	r7, sp, #0
 850              		.cfi_offset 14, -4
 851              		.cfi_offset 7, -8
 852              	.LCFI23:
 853              		.cfi_def_cfa_register 7
 556:.\Generated_Source\PSoC5/USBFS_drv.c ****     uint16 xferCount;
 557:.\Generated_Source\PSoC5/USBFS_drv.c **** 
 558:.\Generated_Source\PSoC5/USBFS_drv.c ****     /* Set up the state machine */
 559:.\Generated_Source\PSoC5/USBFS_drv.c ****     USBFS_transferState = USBFS_TRANS_STATE_CONTROL_WRITE;
 854              		.loc 1 559 0
 855 0006 40F20003 		movw	r3, #:lower16:USBFS_transferState
 856 000a C0F20003 		movt	r3, #:upper16:USBFS_transferState
 857 000e 4FF00402 		mov	r2, #4
 858 0012 1A70     		strb	r2, [r3, #0]
 560:.\Generated_Source\PSoC5/USBFS_drv.c ****     /* This migh not be necessary */
 561:.\Generated_Source\PSoC5/USBFS_drv.c ****     USBFS_ep0Toggle = USBFS_EP0_CNT_DATA_TOGGLE;
 859              		.loc 1 561 0
 860 0014 40F20003 		movw	r3, #:lower16:USBFS_ep0Toggle
ARM GAS  C:\DOCUME~1\ADMINI~1\LOCALS~1\Temp\cceK9gio.s 			page 26


 861 0018 C0F20003 		movt	r3, #:upper16:USBFS_ep0Toggle
 862 001c 6FF07F02 		mvn	r2, #127
 863 0020 1A70     		strb	r2, [r3, #0]
 562:.\Generated_Source\PSoC5/USBFS_drv.c ****     /* Initialize the Status Block */
 563:.\Generated_Source\PSoC5/USBFS_drv.c ****     USBFS_InitializeStatusBlock();
 864              		.loc 1 563 0
 865 0022 FFF7FEFF 		bl	USBFS_InitializeStatusBlock
 564:.\Generated_Source\PSoC5/USBFS_drv.c **** 
 565:.\Generated_Source\PSoC5/USBFS_drv.c ****     xferCount = (((uint16)CY_GET_REG8(USBFS_lengthHi) << 8u) | (CY_GET_REG8(USBFS_lengthLo)));
 866              		.loc 1 565 0
 867 0026 46F20703 		movw	r3, #:lower16:1073766407
 868 002a C4F20003 		movt	r3, #:upper16:1073766407
 869 002e 1B78     		ldrb	r3, [r3, #0]
 870 0030 DBB2     		uxtb	r3, r3
 871 0032 4FEA0323 		lsl	r3, r3, #8
 872 0036 9AB2     		uxth	r2, r3
 873 0038 46F20603 		movw	r3, #:lower16:1073766406
 874 003c C4F20003 		movt	r3, #:upper16:1073766406
 875 0040 1B78     		ldrb	r3, [r3, #0]
 876 0042 DBB2     		uxtb	r3, r3
 877 0044 42EA0303 		orr	r3, r2, r3
 878 0048 9BB2     		uxth	r3, r3
 879 004a FB80     		strh	r3, [r7, #6]	@ movhi
 566:.\Generated_Source\PSoC5/USBFS_drv.c **** 
 567:.\Generated_Source\PSoC5/USBFS_drv.c ****     if (USBFS_currentTD.count > xferCount)
 880              		.loc 1 567 0
 881 004c 40F20003 		movw	r3, #:lower16:USBFS_currentTD
 882 0050 C0F20003 		movt	r3, #:upper16:USBFS_currentTD
 883 0054 1B88     		ldrh	r3, [r3, #0]	@ movhi
 884 0056 9BB2     		uxth	r3, r3
 885 0058 FA88     		ldrh	r2, [r7, #6]
 886 005a 9A42     		cmp	r2, r3
 887 005c 05D2     		bcs	.L59
 568:.\Generated_Source\PSoC5/USBFS_drv.c ****     {
 569:.\Generated_Source\PSoC5/USBFS_drv.c ****         USBFS_currentTD.count = xferCount;
 888              		.loc 1 569 0
 889 005e 40F20003 		movw	r3, #:lower16:USBFS_currentTD
 890 0062 C0F20003 		movt	r3, #:upper16:USBFS_currentTD
 891 0066 FA88     		ldrh	r2, [r7, #6]	@ movhi
 892 0068 1A80     		strh	r2, [r3, #0]	@ movhi
 893              	.L59:
 570:.\Generated_Source\PSoC5/USBFS_drv.c ****     }
 571:.\Generated_Source\PSoC5/USBFS_drv.c **** 
 572:.\Generated_Source\PSoC5/USBFS_drv.c ****     /* Expect Data or Status Stage */
 573:.\Generated_Source\PSoC5/USBFS_drv.c ****     USBFS_ep0Mode = USBFS_MODE_ACK_OUT_STATUS_IN;
 894              		.loc 1 573 0
 895 006a 40F20003 		movw	r3, #:lower16:USBFS_ep0Mode
 896 006e C0F20003 		movt	r3, #:upper16:USBFS_ep0Mode
 897 0072 4FF00B02 		mov	r2, #11
 898 0076 1A70     		strb	r2, [r3, #0]
 574:.\Generated_Source\PSoC5/USBFS_drv.c **** 
 575:.\Generated_Source\PSoC5/USBFS_drv.c ****     return(USBFS_TRUE);
 899              		.loc 1 575 0
 900 0078 4FF00103 		mov	r3, #1
 576:.\Generated_Source\PSoC5/USBFS_drv.c **** }
 901              		.loc 1 576 0
 902 007c 1846     		mov	r0, r3
ARM GAS  C:\DOCUME~1\ADMINI~1\LOCALS~1\Temp\cceK9gio.s 			page 27


 903 007e 07F10807 		add	r7, r7, #8
 904 0082 BD46     		mov	sp, r7
 905 0084 80BD     		pop	{r7, pc}
 906              		.cfi_endproc
 907              	.LFE9:
 908              		.size	USBFS_InitControlWrite, .-USBFS_InitControlWrite
 909 0086 00BF     		.section	.text.USBFS_ControlWriteDataStage,"ax",%progbits
 910              		.align	2
 911              		.global	USBFS_ControlWriteDataStage
 912              		.thumb
 913              		.thumb_func
 914              		.type	USBFS_ControlWriteDataStage, %function
 915              	USBFS_ControlWriteDataStage:
 916              	.LFB10:
 577:.\Generated_Source\PSoC5/USBFS_drv.c **** 
 578:.\Generated_Source\PSoC5/USBFS_drv.c **** 
 579:.\Generated_Source\PSoC5/USBFS_drv.c **** /*******************************************************************************
 580:.\Generated_Source\PSoC5/USBFS_drv.c **** * Function Name: USBFS_ControlWriteDataStage
 581:.\Generated_Source\PSoC5/USBFS_drv.c **** ********************************************************************************
 582:.\Generated_Source\PSoC5/USBFS_drv.c **** *
 583:.\Generated_Source\PSoC5/USBFS_drv.c **** * Summary:
 584:.\Generated_Source\PSoC5/USBFS_drv.c **** *  Handle the Data Stage of a control write transfer
 585:.\Generated_Source\PSoC5/USBFS_drv.c **** *       1. Get the data (We assume the destination was validated previously)
 586:.\Generated_Source\PSoC5/USBFS_drv.c **** *       2. Update the count and data toggle
 587:.\Generated_Source\PSoC5/USBFS_drv.c **** *       3. Update the mode register for the next transaction
 588:.\Generated_Source\PSoC5/USBFS_drv.c **** *
 589:.\Generated_Source\PSoC5/USBFS_drv.c **** * Parameters:
 590:.\Generated_Source\PSoC5/USBFS_drv.c **** *  None.
 591:.\Generated_Source\PSoC5/USBFS_drv.c **** *
 592:.\Generated_Source\PSoC5/USBFS_drv.c **** * Return:
 593:.\Generated_Source\PSoC5/USBFS_drv.c **** *  None.
 594:.\Generated_Source\PSoC5/USBFS_drv.c **** *
 595:.\Generated_Source\PSoC5/USBFS_drv.c **** * Global variables:
 596:.\Generated_Source\PSoC5/USBFS_drv.c **** *  USBFS_transferByteCount - Update the transfer byte count from the
 597:.\Generated_Source\PSoC5/USBFS_drv.c **** *    last transaction.
 598:.\Generated_Source\PSoC5/USBFS_drv.c **** *  USBFS_ep0Count - counts the data loaded from the SIE memory
 599:.\Generated_Source\PSoC5/USBFS_drv.c **** *    in current packet.
 600:.\Generated_Source\PSoC5/USBFS_drv.c **** *  USBFS_transferByteCount - suma of the previos bytes transferred
 601:.\Generated_Source\PSoC5/USBFS_drv.c **** *    on previous packets(suma of USBFS_lastPacketSize)
 602:.\Generated_Source\PSoC5/USBFS_drv.c **** *  USBFS_ep0Toggle - inverted
 603:.\Generated_Source\PSoC5/USBFS_drv.c **** *  USBFS_ep0Mode  - set to MODE_ACK_OUT_STATUS_IN.
 604:.\Generated_Source\PSoC5/USBFS_drv.c **** *
 605:.\Generated_Source\PSoC5/USBFS_drv.c **** * Reentrant:
 606:.\Generated_Source\PSoC5/USBFS_drv.c **** *  No.
 607:.\Generated_Source\PSoC5/USBFS_drv.c **** *
 608:.\Generated_Source\PSoC5/USBFS_drv.c **** *******************************************************************************/
 609:.\Generated_Source\PSoC5/USBFS_drv.c **** void USBFS_ControlWriteDataStage(void) 
 610:.\Generated_Source\PSoC5/USBFS_drv.c **** {
 917              		.loc 1 610 0
 918              		.cfi_startproc
 919              		@ args = 0, pretend = 0, frame = 8
 920              		@ frame_needed = 1, uses_anonymous_args = 0
 921              		@ link register save eliminated.
 922 0000 80B4     		push	{r7}
 923              	.LCFI24:
 924              		.cfi_def_cfa_offset 4
 925 0002 83B0     		sub	sp, sp, #12
ARM GAS  C:\DOCUME~1\ADMINI~1\LOCALS~1\Temp\cceK9gio.s 			page 28


 926              	.LCFI25:
 927              		.cfi_def_cfa_offset 16
 928 0004 00AF     		add	r7, sp, #0
 929              		.cfi_offset 7, -4
 930              	.LCFI26:
 931              		.cfi_def_cfa_register 7
 611:.\Generated_Source\PSoC5/USBFS_drv.c ****     uint8 *pReg = (uint8 *)USBFS_EP0_DR0_PTR;
 932              		.loc 1 611 0
 933 0006 46F20003 		movw	r3, #:lower16:1073766400
 934 000a C4F20003 		movt	r3, #:upper16:1073766400
 935 000e 7B60     		str	r3, [r7, #4]
 612:.\Generated_Source\PSoC5/USBFS_drv.c **** 
 613:.\Generated_Source\PSoC5/USBFS_drv.c ****     USBFS_ep0Count = (CY_GET_REG8(USBFS_EP0_CNT_PTR ) & 0x0Fu) - 2u;
 936              		.loc 1 613 0
 937 0010 46F22903 		movw	r3, #:lower16:1073766441
 938 0014 C4F20003 		movt	r3, #:upper16:1073766441
 939 0018 1B78     		ldrb	r3, [r3, #0]
 940 001a DBB2     		uxtb	r3, r3
 941 001c 03F00F03 		and	r3, r3, #15
 942 0020 A3F10203 		sub	r3, r3, #2
 943 0024 DAB2     		uxtb	r2, r3
 944 0026 40F20003 		movw	r3, #:lower16:USBFS_ep0Count
 945 002a C0F20003 		movt	r3, #:upper16:USBFS_ep0Count
 946 002e 1A70     		strb	r2, [r3, #0]
 614:.\Generated_Source\PSoC5/USBFS_drv.c **** 
 615:.\Generated_Source\PSoC5/USBFS_drv.c ****     USBFS_transferByteCount += USBFS_ep0Count;
 947              		.loc 1 615 0
 948 0030 40F20003 		movw	r3, #:lower16:USBFS_ep0Count
 949 0034 C0F20003 		movt	r3, #:upper16:USBFS_ep0Count
 950 0038 1B78     		ldrb	r3, [r3, #0]
 951 003a DBB2     		uxtb	r3, r3
 952 003c 1A46     		mov	r2, r3
 953 003e 40F20003 		movw	r3, #:lower16:USBFS_transferByteCount
 954 0042 C0F20003 		movt	r3, #:upper16:USBFS_transferByteCount
 955 0046 1B88     		ldrh	r3, [r3, #0]	@ movhi
 956 0048 9BB2     		uxth	r3, r3
 957 004a 1344     		add	r3, r2, r3
 958 004c 9AB2     		uxth	r2, r3
 959 004e 40F20003 		movw	r3, #:lower16:USBFS_transferByteCount
 960 0052 C0F20003 		movt	r3, #:upper16:USBFS_transferByteCount
 961 0056 1A80     		strh	r2, [r3, #0]	@ movhi
 616:.\Generated_Source\PSoC5/USBFS_drv.c **** 
 617:.\Generated_Source\PSoC5/USBFS_drv.c ****     while ((USBFS_currentTD.count > 0u) && (USBFS_ep0Count > 0u))
 962              		.loc 1 617 0
 963 0058 2FE0     		b	.L62
 964              	.L64:
 618:.\Generated_Source\PSoC5/USBFS_drv.c ****     {
 619:.\Generated_Source\PSoC5/USBFS_drv.c ****         *USBFS_currentTD.pData++ = CY_GET_REG8(pReg++);
 965              		.loc 1 619 0
 966 005a 40F20003 		movw	r3, #:lower16:USBFS_currentTD
 967 005e C0F20003 		movt	r3, #:upper16:USBFS_currentTD
 968 0062 5B68     		ldr	r3, [r3, #4]
 969 0064 7A68     		ldr	r2, [r7, #4]
 970 0066 1278     		ldrb	r2, [r2, #0]
 971 0068 D2B2     		uxtb	r2, r2
 972 006a 1A70     		strb	r2, [r3, #0]
 973 006c 03F10102 		add	r2, r3, #1
ARM GAS  C:\DOCUME~1\ADMINI~1\LOCALS~1\Temp\cceK9gio.s 			page 29


 974 0070 40F20003 		movw	r3, #:lower16:USBFS_currentTD
 975 0074 C0F20003 		movt	r3, #:upper16:USBFS_currentTD
 976 0078 5A60     		str	r2, [r3, #4]
 977 007a 7B68     		ldr	r3, [r7, #4]
 978 007c 03F10103 		add	r3, r3, #1
 979 0080 7B60     		str	r3, [r7, #4]
 620:.\Generated_Source\PSoC5/USBFS_drv.c ****         USBFS_ep0Count--;
 980              		.loc 1 620 0
 981 0082 40F20003 		movw	r3, #:lower16:USBFS_ep0Count
 982 0086 C0F20003 		movt	r3, #:upper16:USBFS_ep0Count
 983 008a 1B78     		ldrb	r3, [r3, #0]
 984 008c DBB2     		uxtb	r3, r3
 985 008e 03F1FF33 		add	r3, r3, #-1
 986 0092 DAB2     		uxtb	r2, r3
 987 0094 40F20003 		movw	r3, #:lower16:USBFS_ep0Count
 988 0098 C0F20003 		movt	r3, #:upper16:USBFS_ep0Count
 989 009c 1A70     		strb	r2, [r3, #0]
 621:.\Generated_Source\PSoC5/USBFS_drv.c ****         USBFS_currentTD.count--;
 990              		.loc 1 621 0
 991 009e 40F20003 		movw	r3, #:lower16:USBFS_currentTD
 992 00a2 C0F20003 		movt	r3, #:upper16:USBFS_currentTD
 993 00a6 1B88     		ldrh	r3, [r3, #0]	@ movhi
 994 00a8 9BB2     		uxth	r3, r3
 995 00aa 03F1FF33 		add	r3, r3, #-1
 996 00ae 9AB2     		uxth	r2, r3
 997 00b0 40F20003 		movw	r3, #:lower16:USBFS_currentTD
 998 00b4 C0F20003 		movt	r3, #:upper16:USBFS_currentTD
 999 00b8 1A80     		strh	r2, [r3, #0]	@ movhi
 1000              	.L62:
 1001              		.loc 1 617 0
 1002 00ba 40F20003 		movw	r3, #:lower16:USBFS_currentTD
 1003 00be C0F20003 		movt	r3, #:upper16:USBFS_currentTD
 1004 00c2 1B88     		ldrh	r3, [r3, #0]	@ movhi
 1005 00c4 9BB2     		uxth	r3, r3
 1006 00c6 002B     		cmp	r3, #0
 1007 00c8 07D0     		beq	.L63
 1008 00ca 40F20003 		movw	r3, #:lower16:USBFS_ep0Count
 1009 00ce C0F20003 		movt	r3, #:upper16:USBFS_ep0Count
 1010 00d2 1B78     		ldrb	r3, [r3, #0]
 1011 00d4 DBB2     		uxtb	r3, r3
 1012 00d6 002B     		cmp	r3, #0
 1013 00d8 BFD1     		bne	.L64
 1014              	.L63:
 622:.\Generated_Source\PSoC5/USBFS_drv.c ****     }
 623:.\Generated_Source\PSoC5/USBFS_drv.c ****     /* Update the data toggle */
 624:.\Generated_Source\PSoC5/USBFS_drv.c ****     USBFS_ep0Toggle ^= USBFS_EP0_CNT_DATA_TOGGLE;
 1015              		.loc 1 624 0
 1016 00da 40F20003 		movw	r3, #:lower16:USBFS_ep0Toggle
 1017 00de C0F20003 		movt	r3, #:upper16:USBFS_ep0Toggle
 1018 00e2 1B78     		ldrb	r3, [r3, #0]
 1019 00e4 DAB2     		uxtb	r2, r3
 1020 00e6 6FF07F03 		mvn	r3, #127
 1021 00ea 82EA0303 		eor	r3, r2, r3
 1022 00ee DAB2     		uxtb	r2, r3
 1023 00f0 40F20003 		movw	r3, #:lower16:USBFS_ep0Toggle
 1024 00f4 C0F20003 		movt	r3, #:upper16:USBFS_ep0Toggle
 1025 00f8 1A70     		strb	r2, [r3, #0]
ARM GAS  C:\DOCUME~1\ADMINI~1\LOCALS~1\Temp\cceK9gio.s 			page 30


 625:.\Generated_Source\PSoC5/USBFS_drv.c ****     /* Expect Data or Status Stage */
 626:.\Generated_Source\PSoC5/USBFS_drv.c ****     USBFS_ep0Mode = USBFS_MODE_ACK_OUT_STATUS_IN;
 1026              		.loc 1 626 0
 1027 00fa 40F20003 		movw	r3, #:lower16:USBFS_ep0Mode
 1028 00fe C0F20003 		movt	r3, #:upper16:USBFS_ep0Mode
 1029 0102 4FF00B02 		mov	r2, #11
 1030 0106 1A70     		strb	r2, [r3, #0]
 627:.\Generated_Source\PSoC5/USBFS_drv.c **** }
 1031              		.loc 1 627 0
 1032 0108 07F10C07 		add	r7, r7, #12
 1033 010c BD46     		mov	sp, r7
 1034 010e 80BC     		pop	{r7}
 1035 0110 7047     		bx	lr
 1036              		.cfi_endproc
 1037              	.LFE10:
 1038              		.size	USBFS_ControlWriteDataStage, .-USBFS_ControlWriteDataStage
 1039 0112 00BF     		.section	.text.USBFS_ControlWriteStatusStage,"ax",%progbits
 1040              		.align	2
 1041              		.global	USBFS_ControlWriteStatusStage
 1042              		.thumb
 1043              		.thumb_func
 1044              		.type	USBFS_ControlWriteStatusStage, %function
 1045              	USBFS_ControlWriteStatusStage:
 1046              	.LFB11:
 628:.\Generated_Source\PSoC5/USBFS_drv.c **** 
 629:.\Generated_Source\PSoC5/USBFS_drv.c **** 
 630:.\Generated_Source\PSoC5/USBFS_drv.c **** /*******************************************************************************
 631:.\Generated_Source\PSoC5/USBFS_drv.c **** * Function Name: USBFS_ControlWriteStatusStage
 632:.\Generated_Source\PSoC5/USBFS_drv.c **** ********************************************************************************
 633:.\Generated_Source\PSoC5/USBFS_drv.c **** *
 634:.\Generated_Source\PSoC5/USBFS_drv.c **** * Summary:
 635:.\Generated_Source\PSoC5/USBFS_drv.c **** *  Handle the Status Stage of a control write transfer
 636:.\Generated_Source\PSoC5/USBFS_drv.c **** *
 637:.\Generated_Source\PSoC5/USBFS_drv.c **** * Parameters:
 638:.\Generated_Source\PSoC5/USBFS_drv.c **** *  None.
 639:.\Generated_Source\PSoC5/USBFS_drv.c **** *
 640:.\Generated_Source\PSoC5/USBFS_drv.c **** * Return:
 641:.\Generated_Source\PSoC5/USBFS_drv.c **** *  None.
 642:.\Generated_Source\PSoC5/USBFS_drv.c **** *
 643:.\Generated_Source\PSoC5/USBFS_drv.c **** * Global variables:
 644:.\Generated_Source\PSoC5/USBFS_drv.c **** *  USBFS_transferState - set to TRANS_STATE_IDLE.
 645:.\Generated_Source\PSoC5/USBFS_drv.c **** *  USBFS_USBFS_ep0Mode  - set to MODE_STALL_IN_OUT.
 646:.\Generated_Source\PSoC5/USBFS_drv.c **** *
 647:.\Generated_Source\PSoC5/USBFS_drv.c **** * Reentrant:
 648:.\Generated_Source\PSoC5/USBFS_drv.c **** *  No.
 649:.\Generated_Source\PSoC5/USBFS_drv.c **** *
 650:.\Generated_Source\PSoC5/USBFS_drv.c **** *******************************************************************************/
 651:.\Generated_Source\PSoC5/USBFS_drv.c **** void USBFS_ControlWriteStatusStage(void) 
 652:.\Generated_Source\PSoC5/USBFS_drv.c **** {
 1047              		.loc 1 652 0
 1048              		.cfi_startproc
 1049              		@ args = 0, pretend = 0, frame = 0
 1050              		@ frame_needed = 1, uses_anonymous_args = 0
 1051 0000 80B5     		push	{r7, lr}
 1052              	.LCFI27:
 1053              		.cfi_def_cfa_offset 8
 1054 0002 00AF     		add	r7, sp, #0
ARM GAS  C:\DOCUME~1\ADMINI~1\LOCALS~1\Temp\cceK9gio.s 			page 31


 1055              		.cfi_offset 14, -4
 1056              		.cfi_offset 7, -8
 1057              	.LCFI28:
 1058              		.cfi_def_cfa_register 7
 653:.\Generated_Source\PSoC5/USBFS_drv.c ****     /* Go Idle */
 654:.\Generated_Source\PSoC5/USBFS_drv.c ****     USBFS_transferState = USBFS_TRANS_STATE_IDLE;
 1059              		.loc 1 654 0
 1060 0004 40F20003 		movw	r3, #:lower16:USBFS_transferState
 1061 0008 C0F20003 		movt	r3, #:upper16:USBFS_transferState
 1062 000c 4FF00002 		mov	r2, #0
 1063 0010 1A70     		strb	r2, [r3, #0]
 655:.\Generated_Source\PSoC5/USBFS_drv.c ****     /* Update the completion block */
 656:.\Generated_Source\PSoC5/USBFS_drv.c ****     USBFS_UpdateStatusBlock(USBFS_XFER_STATUS_ACK);
 1064              		.loc 1 656 0
 1065 0012 4FF00100 		mov	r0, #1
 1066 0016 FFF7FEFF 		bl	USBFS_UpdateStatusBlock
 657:.\Generated_Source\PSoC5/USBFS_drv.c ****      /* We expect no more data, so stall INs and OUTs */
 658:.\Generated_Source\PSoC5/USBFS_drv.c ****     USBFS_ep0Mode = USBFS_MODE_STALL_IN_OUT;
 1067              		.loc 1 658 0
 1068 001a 40F20003 		movw	r3, #:lower16:USBFS_ep0Mode
 1069 001e C0F20003 		movt	r3, #:upper16:USBFS_ep0Mode
 1070 0022 4FF00302 		mov	r2, #3
 1071 0026 1A70     		strb	r2, [r3, #0]
 659:.\Generated_Source\PSoC5/USBFS_drv.c **** }
 1072              		.loc 1 659 0
 1073 0028 80BD     		pop	{r7, pc}
 1074              		.cfi_endproc
 1075              	.LFE11:
 1076              		.size	USBFS_ControlWriteStatusStage, .-USBFS_ControlWriteStatusStage
 1077 002a 00BF     		.section	.text.USBFS_InitNoDataControlTransfer,"ax",%progbits
 1078              		.align	2
 1079              		.global	USBFS_InitNoDataControlTransfer
 1080              		.thumb
 1081              		.thumb_func
 1082              		.type	USBFS_InitNoDataControlTransfer, %function
 1083              	USBFS_InitNoDataControlTransfer:
 1084              	.LFB12:
 660:.\Generated_Source\PSoC5/USBFS_drv.c **** 
 661:.\Generated_Source\PSoC5/USBFS_drv.c **** 
 662:.\Generated_Source\PSoC5/USBFS_drv.c **** /*******************************************************************************
 663:.\Generated_Source\PSoC5/USBFS_drv.c **** * Function Name: USBFS_InitNoDataControlTransfer
 664:.\Generated_Source\PSoC5/USBFS_drv.c **** ********************************************************************************
 665:.\Generated_Source\PSoC5/USBFS_drv.c **** *
 666:.\Generated_Source\PSoC5/USBFS_drv.c **** * Summary:
 667:.\Generated_Source\PSoC5/USBFS_drv.c **** *  Initialize a no data control transfer
 668:.\Generated_Source\PSoC5/USBFS_drv.c **** *
 669:.\Generated_Source\PSoC5/USBFS_drv.c **** * Parameters:
 670:.\Generated_Source\PSoC5/USBFS_drv.c **** *  None.
 671:.\Generated_Source\PSoC5/USBFS_drv.c **** *
 672:.\Generated_Source\PSoC5/USBFS_drv.c **** * Return:
 673:.\Generated_Source\PSoC5/USBFS_drv.c **** *  requestHandled state.
 674:.\Generated_Source\PSoC5/USBFS_drv.c **** *
 675:.\Generated_Source\PSoC5/USBFS_drv.c **** * Global variables:
 676:.\Generated_Source\PSoC5/USBFS_drv.c **** *  USBFS_transferState - set to TRANS_STATE_NO_DATA_CONTROL.
 677:.\Generated_Source\PSoC5/USBFS_drv.c **** *  USBFS_ep0Mode  - set to MODE_STATUS_IN_ONLY.
 678:.\Generated_Source\PSoC5/USBFS_drv.c **** *  USBFS_ep0Count - cleared.
 679:.\Generated_Source\PSoC5/USBFS_drv.c **** *  USBFS_ep0Toggle - set to EP0_CNT_DATA_TOGGLE
ARM GAS  C:\DOCUME~1\ADMINI~1\LOCALS~1\Temp\cceK9gio.s 			page 32


 680:.\Generated_Source\PSoC5/USBFS_drv.c **** *
 681:.\Generated_Source\PSoC5/USBFS_drv.c **** * Reentrant:
 682:.\Generated_Source\PSoC5/USBFS_drv.c **** *  No.
 683:.\Generated_Source\PSoC5/USBFS_drv.c **** *
 684:.\Generated_Source\PSoC5/USBFS_drv.c **** *******************************************************************************/
 685:.\Generated_Source\PSoC5/USBFS_drv.c **** uint8 USBFS_InitNoDataControlTransfer(void) 
 686:.\Generated_Source\PSoC5/USBFS_drv.c **** {
 1085              		.loc 1 686 0
 1086              		.cfi_startproc
 1087              		@ args = 0, pretend = 0, frame = 0
 1088              		@ frame_needed = 1, uses_anonymous_args = 0
 1089              		@ link register save eliminated.
 1090 0000 80B4     		push	{r7}
 1091              	.LCFI29:
 1092              		.cfi_def_cfa_offset 4
 1093 0002 00AF     		add	r7, sp, #0
 1094              		.cfi_offset 7, -4
 1095              	.LCFI30:
 1096              		.cfi_def_cfa_register 7
 687:.\Generated_Source\PSoC5/USBFS_drv.c ****     USBFS_transferState = USBFS_TRANS_STATE_NO_DATA_CONTROL;
 1097              		.loc 1 687 0
 1098 0004 40F20003 		movw	r3, #:lower16:USBFS_transferState
 1099 0008 C0F20003 		movt	r3, #:upper16:USBFS_transferState
 1100 000c 4FF00602 		mov	r2, #6
 1101 0010 1A70     		strb	r2, [r3, #0]
 688:.\Generated_Source\PSoC5/USBFS_drv.c ****     USBFS_ep0Mode = USBFS_MODE_STATUS_IN_ONLY;
 1102              		.loc 1 688 0
 1103 0012 40F20003 		movw	r3, #:lower16:USBFS_ep0Mode
 1104 0016 C0F20003 		movt	r3, #:upper16:USBFS_ep0Mode
 1105 001a 4FF00602 		mov	r2, #6
 1106 001e 1A70     		strb	r2, [r3, #0]
 689:.\Generated_Source\PSoC5/USBFS_drv.c ****     USBFS_ep0Toggle = USBFS_EP0_CNT_DATA_TOGGLE;
 1107              		.loc 1 689 0
 1108 0020 40F20003 		movw	r3, #:lower16:USBFS_ep0Toggle
 1109 0024 C0F20003 		movt	r3, #:upper16:USBFS_ep0Toggle
 1110 0028 6FF07F02 		mvn	r2, #127
 1111 002c 1A70     		strb	r2, [r3, #0]
 690:.\Generated_Source\PSoC5/USBFS_drv.c ****     USBFS_ep0Count = 0u;
 1112              		.loc 1 690 0
 1113 002e 40F20003 		movw	r3, #:lower16:USBFS_ep0Count
 1114 0032 C0F20003 		movt	r3, #:upper16:USBFS_ep0Count
 1115 0036 4FF00002 		mov	r2, #0
 1116 003a 1A70     		strb	r2, [r3, #0]
 691:.\Generated_Source\PSoC5/USBFS_drv.c **** 
 692:.\Generated_Source\PSoC5/USBFS_drv.c ****     return(USBFS_TRUE);
 1117              		.loc 1 692 0
 1118 003c 4FF00103 		mov	r3, #1
 693:.\Generated_Source\PSoC5/USBFS_drv.c **** }
 1119              		.loc 1 693 0
 1120 0040 1846     		mov	r0, r3
 1121 0042 BD46     		mov	sp, r7
 1122 0044 80BC     		pop	{r7}
 1123 0046 7047     		bx	lr
 1124              		.cfi_endproc
 1125              	.LFE12:
 1126              		.size	USBFS_InitNoDataControlTransfer, .-USBFS_InitNoDataControlTransfer
 1127              		.section	.text.USBFS_NoDataControlStatusStage,"ax",%progbits
ARM GAS  C:\DOCUME~1\ADMINI~1\LOCALS~1\Temp\cceK9gio.s 			page 33


 1128              		.align	2
 1129              		.global	USBFS_NoDataControlStatusStage
 1130              		.thumb
 1131              		.thumb_func
 1132              		.type	USBFS_NoDataControlStatusStage, %function
 1133              	USBFS_NoDataControlStatusStage:
 1134              	.LFB13:
 694:.\Generated_Source\PSoC5/USBFS_drv.c **** 
 695:.\Generated_Source\PSoC5/USBFS_drv.c **** 
 696:.\Generated_Source\PSoC5/USBFS_drv.c **** /*******************************************************************************
 697:.\Generated_Source\PSoC5/USBFS_drv.c **** * Function Name: USBFS_NoDataControlStatusStage
 698:.\Generated_Source\PSoC5/USBFS_drv.c **** ********************************************************************************
 699:.\Generated_Source\PSoC5/USBFS_drv.c **** * Summary:
 700:.\Generated_Source\PSoC5/USBFS_drv.c **** *  Handle the Status Stage of a no data control transfer.
 701:.\Generated_Source\PSoC5/USBFS_drv.c **** *
 702:.\Generated_Source\PSoC5/USBFS_drv.c **** *  SET_ADDRESS is special, since we need to receive the status stage with
 703:.\Generated_Source\PSoC5/USBFS_drv.c **** *  the old address.
 704:.\Generated_Source\PSoC5/USBFS_drv.c **** *
 705:.\Generated_Source\PSoC5/USBFS_drv.c **** * Parameters:
 706:.\Generated_Source\PSoC5/USBFS_drv.c **** *  None.
 707:.\Generated_Source\PSoC5/USBFS_drv.c **** *
 708:.\Generated_Source\PSoC5/USBFS_drv.c **** * Return:
 709:.\Generated_Source\PSoC5/USBFS_drv.c **** *  None.
 710:.\Generated_Source\PSoC5/USBFS_drv.c **** *
 711:.\Generated_Source\PSoC5/USBFS_drv.c **** * Global variables:
 712:.\Generated_Source\PSoC5/USBFS_drv.c **** *  USBFS_transferState - set to TRANS_STATE_IDLE.
 713:.\Generated_Source\PSoC5/USBFS_drv.c **** *  USBFS_ep0Mode  - set to MODE_STALL_IN_OUT.
 714:.\Generated_Source\PSoC5/USBFS_drv.c **** *  USBFS_ep0Toggle - set to EP0_CNT_DATA_TOGGLE
 715:.\Generated_Source\PSoC5/USBFS_drv.c **** *  USBFS_deviceAddress - used to set new address and cleared
 716:.\Generated_Source\PSoC5/USBFS_drv.c **** *
 717:.\Generated_Source\PSoC5/USBFS_drv.c **** * Reentrant:
 718:.\Generated_Source\PSoC5/USBFS_drv.c **** *  No.
 719:.\Generated_Source\PSoC5/USBFS_drv.c **** *
 720:.\Generated_Source\PSoC5/USBFS_drv.c **** *******************************************************************************/
 721:.\Generated_Source\PSoC5/USBFS_drv.c **** void USBFS_NoDataControlStatusStage(void) 
 722:.\Generated_Source\PSoC5/USBFS_drv.c **** {
 1135              		.loc 1 722 0
 1136              		.cfi_startproc
 1137              		@ args = 0, pretend = 0, frame = 0
 1138              		@ frame_needed = 1, uses_anonymous_args = 0
 1139 0000 80B5     		push	{r7, lr}
 1140              	.LCFI31:
 1141              		.cfi_def_cfa_offset 8
 1142 0002 00AF     		add	r7, sp, #0
 1143              		.cfi_offset 14, -4
 1144              		.cfi_offset 7, -8
 1145              	.LCFI32:
 1146              		.cfi_def_cfa_register 7
 723:.\Generated_Source\PSoC5/USBFS_drv.c ****     /* Change the USB address register if we got a SET_ADDRESS. */
 724:.\Generated_Source\PSoC5/USBFS_drv.c ****     if (USBFS_deviceAddress != 0u)
 1147              		.loc 1 724 0
 1148 0004 40F20003 		movw	r3, #:lower16:USBFS_deviceAddress
 1149 0008 C0F20003 		movt	r3, #:upper16:USBFS_deviceAddress
 1150 000c 1B78     		ldrb	r3, [r3, #0]
 1151 000e DBB2     		uxtb	r3, r3
 1152 0010 002B     		cmp	r3, #0
 1153 0012 16D0     		beq	.L71
ARM GAS  C:\DOCUME~1\ADMINI~1\LOCALS~1\Temp\cceK9gio.s 			page 34


 725:.\Generated_Source\PSoC5/USBFS_drv.c ****     {
 726:.\Generated_Source\PSoC5/USBFS_drv.c ****         CY_SET_REG8(USBFS_CR0_PTR, USBFS_deviceAddress | USBFS_CR0_ENABLE);
 1154              		.loc 1 726 0
 1155 0014 46F20803 		movw	r3, #:lower16:1073766408
 1156 0018 C4F20003 		movt	r3, #:upper16:1073766408
 1157 001c 40F20002 		movw	r2, #:lower16:USBFS_deviceAddress
 1158 0020 C0F20002 		movt	r2, #:upper16:USBFS_deviceAddress
 1159 0024 1278     		ldrb	r2, [r2, #0]
 1160 0026 D2B2     		uxtb	r2, r2
 1161 0028 6FEA4262 		mvn	r2, r2, lsl #25
 1162 002c 6FEA5262 		mvn	r2, r2, lsr #25
 1163 0030 D2B2     		uxtb	r2, r2
 1164 0032 1A70     		strb	r2, [r3, #0]
 727:.\Generated_Source\PSoC5/USBFS_drv.c ****         USBFS_deviceAddress = 0u;
 1165              		.loc 1 727 0
 1166 0034 40F20003 		movw	r3, #:lower16:USBFS_deviceAddress
 1167 0038 C0F20003 		movt	r3, #:upper16:USBFS_deviceAddress
 1168 003c 4FF00002 		mov	r2, #0
 1169 0040 1A70     		strb	r2, [r3, #0]
 1170              	.L71:
 728:.\Generated_Source\PSoC5/USBFS_drv.c ****     }
 729:.\Generated_Source\PSoC5/USBFS_drv.c ****     /* Go Idle */
 730:.\Generated_Source\PSoC5/USBFS_drv.c ****     USBFS_transferState = USBFS_TRANS_STATE_IDLE;
 1171              		.loc 1 730 0
 1172 0042 40F20003 		movw	r3, #:lower16:USBFS_transferState
 1173 0046 C0F20003 		movt	r3, #:upper16:USBFS_transferState
 1174 004a 4FF00002 		mov	r2, #0
 1175 004e 1A70     		strb	r2, [r3, #0]
 731:.\Generated_Source\PSoC5/USBFS_drv.c ****     /* Update the completion block */
 732:.\Generated_Source\PSoC5/USBFS_drv.c ****     USBFS_UpdateStatusBlock(USBFS_XFER_STATUS_ACK);
 1176              		.loc 1 732 0
 1177 0050 4FF00100 		mov	r0, #1
 1178 0054 FFF7FEFF 		bl	USBFS_UpdateStatusBlock
 733:.\Generated_Source\PSoC5/USBFS_drv.c ****      /* We expect no more data, so stall INs and OUTs */
 734:.\Generated_Source\PSoC5/USBFS_drv.c ****     USBFS_ep0Mode = USBFS_MODE_STALL_IN_OUT;
 1179              		.loc 1 734 0
 1180 0058 40F20003 		movw	r3, #:lower16:USBFS_ep0Mode
 1181 005c C0F20003 		movt	r3, #:upper16:USBFS_ep0Mode
 1182 0060 4FF00302 		mov	r2, #3
 1183 0064 1A70     		strb	r2, [r3, #0]
 735:.\Generated_Source\PSoC5/USBFS_drv.c **** }
 1184              		.loc 1 735 0
 1185 0066 80BD     		pop	{r7, pc}
 1186              		.cfi_endproc
 1187              	.LFE13:
 1188              		.size	USBFS_NoDataControlStatusStage, .-USBFS_NoDataControlStatusStage
 1189              		.section	.text.USBFS_UpdateStatusBlock,"ax",%progbits
 1190              		.align	2
 1191              		.global	USBFS_UpdateStatusBlock
 1192              		.thumb
 1193              		.thumb_func
 1194              		.type	USBFS_UpdateStatusBlock, %function
 1195              	USBFS_UpdateStatusBlock:
 1196              	.LFB14:
 736:.\Generated_Source\PSoC5/USBFS_drv.c **** 
 737:.\Generated_Source\PSoC5/USBFS_drv.c **** 
 738:.\Generated_Source\PSoC5/USBFS_drv.c **** /*******************************************************************************
ARM GAS  C:\DOCUME~1\ADMINI~1\LOCALS~1\Temp\cceK9gio.s 			page 35


 739:.\Generated_Source\PSoC5/USBFS_drv.c **** * Function Name: USBFS_UpdateStatusBlock
 740:.\Generated_Source\PSoC5/USBFS_drv.c **** ********************************************************************************
 741:.\Generated_Source\PSoC5/USBFS_drv.c **** *
 742:.\Generated_Source\PSoC5/USBFS_drv.c **** * Summary:
 743:.\Generated_Source\PSoC5/USBFS_drv.c **** *  Update the Completion Status Block for a Request.  The block is updated
 744:.\Generated_Source\PSoC5/USBFS_drv.c **** *  with the completion code the USBFS_transferByteCount.  The
 745:.\Generated_Source\PSoC5/USBFS_drv.c **** *  StatusBlock Pointer is set to NULL.
 746:.\Generated_Source\PSoC5/USBFS_drv.c **** *
 747:.\Generated_Source\PSoC5/USBFS_drv.c **** * Parameters:
 748:.\Generated_Source\PSoC5/USBFS_drv.c **** *  completionCode - status.
 749:.\Generated_Source\PSoC5/USBFS_drv.c **** *
 750:.\Generated_Source\PSoC5/USBFS_drv.c **** * Return:
 751:.\Generated_Source\PSoC5/USBFS_drv.c **** *  None.
 752:.\Generated_Source\PSoC5/USBFS_drv.c **** *
 753:.\Generated_Source\PSoC5/USBFS_drv.c **** * Global variables:
 754:.\Generated_Source\PSoC5/USBFS_drv.c **** *  USBFS_currentTD.pStatusBlock->status - updated by the 
 755:.\Generated_Source\PSoC5/USBFS_drv.c **** *    completionCode parameter.
 756:.\Generated_Source\PSoC5/USBFS_drv.c **** *  USBFS_currentTD.pStatusBlock->length - updated.
 757:.\Generated_Source\PSoC5/USBFS_drv.c **** *  USBFS_currentTD.pStatusBlock - cleared.
 758:.\Generated_Source\PSoC5/USBFS_drv.c **** *
 759:.\Generated_Source\PSoC5/USBFS_drv.c **** * Reentrant:
 760:.\Generated_Source\PSoC5/USBFS_drv.c **** *  No.
 761:.\Generated_Source\PSoC5/USBFS_drv.c **** *
 762:.\Generated_Source\PSoC5/USBFS_drv.c **** *******************************************************************************/
 763:.\Generated_Source\PSoC5/USBFS_drv.c **** void USBFS_UpdateStatusBlock(uint8 completionCode) 
 764:.\Generated_Source\PSoC5/USBFS_drv.c **** {
 1197              		.loc 1 764 0
 1198              		.cfi_startproc
 1199              		@ args = 0, pretend = 0, frame = 8
 1200              		@ frame_needed = 1, uses_anonymous_args = 0
 1201              		@ link register save eliminated.
 1202 0000 80B4     		push	{r7}
 1203              	.LCFI33:
 1204              		.cfi_def_cfa_offset 4
 1205 0002 83B0     		sub	sp, sp, #12
 1206              	.LCFI34:
 1207              		.cfi_def_cfa_offset 16
 1208 0004 00AF     		add	r7, sp, #0
 1209              		.cfi_offset 7, -4
 1210              	.LCFI35:
 1211              		.cfi_def_cfa_register 7
 1212 0006 0346     		mov	r3, r0
 1213 0008 FB71     		strb	r3, [r7, #7]
 765:.\Generated_Source\PSoC5/USBFS_drv.c ****     if (USBFS_currentTD.pStatusBlock != NULL)
 1214              		.loc 1 765 0
 1215 000a 40F20003 		movw	r3, #:lower16:USBFS_currentTD
 1216 000e C0F20003 		movt	r3, #:upper16:USBFS_currentTD
 1217 0012 9B68     		ldr	r3, [r3, #8]
 1218 0014 002B     		cmp	r3, #0
 1219 0016 19D0     		beq	.L75
 766:.\Generated_Source\PSoC5/USBFS_drv.c ****     {
 767:.\Generated_Source\PSoC5/USBFS_drv.c ****         USBFS_currentTD.pStatusBlock->status = completionCode;
 1220              		.loc 1 767 0
 1221 0018 40F20003 		movw	r3, #:lower16:USBFS_currentTD
 1222 001c C0F20003 		movt	r3, #:upper16:USBFS_currentTD
 1223 0020 9B68     		ldr	r3, [r3, #8]
 1224 0022 FA79     		ldrb	r2, [r7, #7]
ARM GAS  C:\DOCUME~1\ADMINI~1\LOCALS~1\Temp\cceK9gio.s 			page 36


 1225 0024 1A70     		strb	r2, [r3, #0]
 768:.\Generated_Source\PSoC5/USBFS_drv.c ****         USBFS_currentTD.pStatusBlock->length = USBFS_transferByteCount;
 1226              		.loc 1 768 0
 1227 0026 40F20003 		movw	r3, #:lower16:USBFS_currentTD
 1228 002a C0F20003 		movt	r3, #:upper16:USBFS_currentTD
 1229 002e 9A68     		ldr	r2, [r3, #8]
 1230 0030 40F20003 		movw	r3, #:lower16:USBFS_transferByteCount
 1231 0034 C0F20003 		movt	r3, #:upper16:USBFS_transferByteCount
 1232 0038 1B88     		ldrh	r3, [r3, #0]	@ movhi
 1233 003a 9BB2     		uxth	r3, r3
 1234 003c 5380     		strh	r3, [r2, #2]	@ movhi
 769:.\Generated_Source\PSoC5/USBFS_drv.c ****         USBFS_currentTD.pStatusBlock = NULL;
 1235              		.loc 1 769 0
 1236 003e 40F20003 		movw	r3, #:lower16:USBFS_currentTD
 1237 0042 C0F20003 		movt	r3, #:upper16:USBFS_currentTD
 1238 0046 4FF00002 		mov	r2, #0
 1239 004a 9A60     		str	r2, [r3, #8]
 1240              	.L75:
 770:.\Generated_Source\PSoC5/USBFS_drv.c ****     }
 771:.\Generated_Source\PSoC5/USBFS_drv.c **** }
 1241              		.loc 1 771 0
 1242 004c 07F10C07 		add	r7, r7, #12
 1243 0050 BD46     		mov	sp, r7
 1244 0052 80BC     		pop	{r7}
 1245 0054 7047     		bx	lr
 1246              		.cfi_endproc
 1247              	.LFE14:
 1248              		.size	USBFS_UpdateStatusBlock, .-USBFS_UpdateStatusBlock
 1249 0056 00BF     		.section	.text.USBFS_InitializeStatusBlock,"ax",%progbits
 1250              		.align	2
 1251              		.global	USBFS_InitializeStatusBlock
 1252              		.thumb
 1253              		.thumb_func
 1254              		.type	USBFS_InitializeStatusBlock, %function
 1255              	USBFS_InitializeStatusBlock:
 1256              	.LFB15:
 772:.\Generated_Source\PSoC5/USBFS_drv.c **** 
 773:.\Generated_Source\PSoC5/USBFS_drv.c **** 
 774:.\Generated_Source\PSoC5/USBFS_drv.c **** /*******************************************************************************
 775:.\Generated_Source\PSoC5/USBFS_drv.c **** * Function Name: USBFS_InitializeStatusBlock
 776:.\Generated_Source\PSoC5/USBFS_drv.c **** ********************************************************************************
 777:.\Generated_Source\PSoC5/USBFS_drv.c **** *
 778:.\Generated_Source\PSoC5/USBFS_drv.c **** * Summary:
 779:.\Generated_Source\PSoC5/USBFS_drv.c **** *  Initialize the Completion Status Block for a Request.  The completion
 780:.\Generated_Source\PSoC5/USBFS_drv.c **** *  code is set to USB_XFER_IDLE.
 781:.\Generated_Source\PSoC5/USBFS_drv.c **** *
 782:.\Generated_Source\PSoC5/USBFS_drv.c **** *  Also, initializes USBFS_transferByteCount.  Save some space,
 783:.\Generated_Source\PSoC5/USBFS_drv.c **** *  this is the only consumer.
 784:.\Generated_Source\PSoC5/USBFS_drv.c **** *
 785:.\Generated_Source\PSoC5/USBFS_drv.c **** * Parameters:
 786:.\Generated_Source\PSoC5/USBFS_drv.c **** *  None.
 787:.\Generated_Source\PSoC5/USBFS_drv.c **** *
 788:.\Generated_Source\PSoC5/USBFS_drv.c **** * Return:
 789:.\Generated_Source\PSoC5/USBFS_drv.c **** *  None.
 790:.\Generated_Source\PSoC5/USBFS_drv.c **** *
 791:.\Generated_Source\PSoC5/USBFS_drv.c **** * Global variables:
 792:.\Generated_Source\PSoC5/USBFS_drv.c **** *  USBFS_currentTD.pStatusBlock->status - set to XFER_IDLE.
ARM GAS  C:\DOCUME~1\ADMINI~1\LOCALS~1\Temp\cceK9gio.s 			page 37


 793:.\Generated_Source\PSoC5/USBFS_drv.c **** *  USBFS_currentTD.pStatusBlock->length - cleared.
 794:.\Generated_Source\PSoC5/USBFS_drv.c **** *  USBFS_transferByteCount - cleared.
 795:.\Generated_Source\PSoC5/USBFS_drv.c **** *
 796:.\Generated_Source\PSoC5/USBFS_drv.c **** * Reentrant:
 797:.\Generated_Source\PSoC5/USBFS_drv.c **** *  No.
 798:.\Generated_Source\PSoC5/USBFS_drv.c **** *
 799:.\Generated_Source\PSoC5/USBFS_drv.c **** *******************************************************************************/
 800:.\Generated_Source\PSoC5/USBFS_drv.c **** void USBFS_InitializeStatusBlock(void) 
 801:.\Generated_Source\PSoC5/USBFS_drv.c **** {
 1257              		.loc 1 801 0
 1258              		.cfi_startproc
 1259              		@ args = 0, pretend = 0, frame = 0
 1260              		@ frame_needed = 1, uses_anonymous_args = 0
 1261              		@ link register save eliminated.
 1262 0000 80B4     		push	{r7}
 1263              	.LCFI36:
 1264              		.cfi_def_cfa_offset 4
 1265 0002 00AF     		add	r7, sp, #0
 1266              		.cfi_offset 7, -4
 1267              	.LCFI37:
 1268              		.cfi_def_cfa_register 7
 802:.\Generated_Source\PSoC5/USBFS_drv.c ****     USBFS_transferByteCount = 0u;
 1269              		.loc 1 802 0
 1270 0004 40F20003 		movw	r3, #:lower16:USBFS_transferByteCount
 1271 0008 C0F20003 		movt	r3, #:upper16:USBFS_transferByteCount
 1272 000c 4FF00002 		mov	r2, #0
 1273 0010 1A80     		strh	r2, [r3, #0]	@ movhi
 803:.\Generated_Source\PSoC5/USBFS_drv.c ****     if(USBFS_currentTD.pStatusBlock != NULL)
 1274              		.loc 1 803 0
 1275 0012 40F20003 		movw	r3, #:lower16:USBFS_currentTD
 1276 0016 C0F20003 		movt	r3, #:upper16:USBFS_currentTD
 1277 001a 9B68     		ldr	r3, [r3, #8]
 1278 001c 002B     		cmp	r3, #0
 1279 001e 0FD0     		beq	.L78
 804:.\Generated_Source\PSoC5/USBFS_drv.c ****     {
 805:.\Generated_Source\PSoC5/USBFS_drv.c ****         USBFS_currentTD.pStatusBlock->status = USBFS_XFER_IDLE;
 1280              		.loc 1 805 0
 1281 0020 40F20003 		movw	r3, #:lower16:USBFS_currentTD
 1282 0024 C0F20003 		movt	r3, #:upper16:USBFS_currentTD
 1283 0028 9B68     		ldr	r3, [r3, #8]
 1284 002a 4FF00002 		mov	r2, #0
 1285 002e 1A70     		strb	r2, [r3, #0]
 806:.\Generated_Source\PSoC5/USBFS_drv.c ****         USBFS_currentTD.pStatusBlock->length = 0u;
 1286              		.loc 1 806 0
 1287 0030 40F20003 		movw	r3, #:lower16:USBFS_currentTD
 1288 0034 C0F20003 		movt	r3, #:upper16:USBFS_currentTD
 1289 0038 9B68     		ldr	r3, [r3, #8]
 1290 003a 4FF00002 		mov	r2, #0
 1291 003e 5A80     		strh	r2, [r3, #2]	@ movhi
 1292              	.L78:
 807:.\Generated_Source\PSoC5/USBFS_drv.c ****     }
 808:.\Generated_Source\PSoC5/USBFS_drv.c **** }
 1293              		.loc 1 808 0
 1294 0040 BD46     		mov	sp, r7
 1295 0042 80BC     		pop	{r7}
 1296 0044 7047     		bx	lr
 1297              		.cfi_endproc
ARM GAS  C:\DOCUME~1\ADMINI~1\LOCALS~1\Temp\cceK9gio.s 			page 38


 1298              	.LFE15:
 1299              		.size	USBFS_InitializeStatusBlock, .-USBFS_InitializeStatusBlock
 1300 0046 00BF     		.text
 1301              	.Letext0: