ARM GAS  C:\DOCUME~1\ADMINI~1\LOCALS~1\Temp\ccIflNry.s 			page 1


   1              		.syntax unified
   2              		.cpu cortex-m3
   3              		.fpu softvfp
   4              		.eabi_attribute 20, 1
   5              		.eabi_attribute 21, 1
   6              		.eabi_attribute 23, 3
   7              		.eabi_attribute 24, 1
   8              		.eabi_attribute 25, 1
   9              		.eabi_attribute 26, 1
  10              		.eabi_attribute 30, 6
  11              		.eabi_attribute 18, 4
  12              		.thumb
  13              		.file	"USBFS_hid.c"
  20 0000 5F010000 		.text
  20      02006D00 
  20      00000201 
  20      FB0E0D00 
  20      01010101 
  21              	.Ltext0:
  22              		.cfi_sections	.debug_frame
  23              		.comm	USBFS_hidProtocol,4,4
  24              		.comm	USBFS_hidIdleRate,4,4
  25              		.comm	USBFS_hidIdleTimer,4,4
  26              		.section	.text.USBFS_UpdateHIDTimer,"ax",%progbits
  27              		.align	2
  28              		.global	USBFS_UpdateHIDTimer
  29              		.thumb
  30              		.thumb_func
  31              		.type	USBFS_UpdateHIDTimer, %function
  32              	USBFS_UpdateHIDTimer:
  33              	.LFB0:
  34              		.file 1 ".\\Generated_Source\\PSoC5\\USBFS_hid.c"
   1:.\Generated_Source\PSoC5/USBFS_hid.c **** /*******************************************************************************
   2:.\Generated_Source\PSoC5/USBFS_hid.c **** * File Name: USBFS_hid.c
   3:.\Generated_Source\PSoC5/USBFS_hid.c **** * Version 2.50
   4:.\Generated_Source\PSoC5/USBFS_hid.c **** *
   5:.\Generated_Source\PSoC5/USBFS_hid.c **** * Description:
   6:.\Generated_Source\PSoC5/USBFS_hid.c **** *  USB HID Class request handler.
   7:.\Generated_Source\PSoC5/USBFS_hid.c **** *
   8:.\Generated_Source\PSoC5/USBFS_hid.c **** * Note:
   9:.\Generated_Source\PSoC5/USBFS_hid.c **** *
  10:.\Generated_Source\PSoC5/USBFS_hid.c **** ********************************************************************************
  11:.\Generated_Source\PSoC5/USBFS_hid.c **** * Copyright 2008-2012, Cypress Semiconductor Corporation.  All rights reserved.
  12:.\Generated_Source\PSoC5/USBFS_hid.c **** * You may use this file only in accordance with the license, terms, conditions,
  13:.\Generated_Source\PSoC5/USBFS_hid.c **** * disclaimers, and limitations in the end user license agreement accompanying
  14:.\Generated_Source\PSoC5/USBFS_hid.c **** * the software package with which this file was provided.
  15:.\Generated_Source\PSoC5/USBFS_hid.c **** *******************************************************************************/
  16:.\Generated_Source\PSoC5/USBFS_hid.c **** 
  17:.\Generated_Source\PSoC5/USBFS_hid.c **** #include "USBFS.h"
  18:.\Generated_Source\PSoC5/USBFS_hid.c **** 
  19:.\Generated_Source\PSoC5/USBFS_hid.c **** #if defined(USBFS_ENABLE_HID_CLASS)
ARM GAS  C:\DOCUME~1\ADMINI~1\LOCALS~1\Temp\ccIflNry.s 			page 2


  20:.\Generated_Source\PSoC5/USBFS_hid.c **** 
  21:.\Generated_Source\PSoC5/USBFS_hid.c **** #include "USBFS_hid.h"
  22:.\Generated_Source\PSoC5/USBFS_hid.c **** 
  23:.\Generated_Source\PSoC5/USBFS_hid.c **** 
  24:.\Generated_Source\PSoC5/USBFS_hid.c **** /***************************************
  25:.\Generated_Source\PSoC5/USBFS_hid.c **** *    HID Variables
  26:.\Generated_Source\PSoC5/USBFS_hid.c **** ***************************************/
  27:.\Generated_Source\PSoC5/USBFS_hid.c **** 
  28:.\Generated_Source\PSoC5/USBFS_hid.c **** volatile uint8 USBFS_hidProtocol[USBFS_MAX_INTERFACES_NUMBER];  /* HID device protocol status */
  29:.\Generated_Source\PSoC5/USBFS_hid.c **** volatile uint8 USBFS_hidIdleRate[USBFS_MAX_INTERFACES_NUMBER];  /* HID device idle reload value */
  30:.\Generated_Source\PSoC5/USBFS_hid.c **** volatile uint8 USBFS_hidIdleTimer[USBFS_MAX_INTERFACES_NUMBER]; /* HID device idle rate value */
  31:.\Generated_Source\PSoC5/USBFS_hid.c **** 
  32:.\Generated_Source\PSoC5/USBFS_hid.c **** 
  33:.\Generated_Source\PSoC5/USBFS_hid.c **** /***************************************
  34:.\Generated_Source\PSoC5/USBFS_hid.c **** * Custom Declarations
  35:.\Generated_Source\PSoC5/USBFS_hid.c **** ***************************************/
  36:.\Generated_Source\PSoC5/USBFS_hid.c **** 
  37:.\Generated_Source\PSoC5/USBFS_hid.c **** /* `#START HID_CUSTOM_DECLARATIONS` Place your declaration here */
  38:.\Generated_Source\PSoC5/USBFS_hid.c **** 
  39:.\Generated_Source\PSoC5/USBFS_hid.c **** /* `#END` */
  40:.\Generated_Source\PSoC5/USBFS_hid.c **** 
  41:.\Generated_Source\PSoC5/USBFS_hid.c **** 
  42:.\Generated_Source\PSoC5/USBFS_hid.c **** /***************************************
  43:.\Generated_Source\PSoC5/USBFS_hid.c **** *    External references
  44:.\Generated_Source\PSoC5/USBFS_hid.c **** ***************************************/
  45:.\Generated_Source\PSoC5/USBFS_hid.c **** 
  46:.\Generated_Source\PSoC5/USBFS_hid.c **** uint8 USBFS_InitControlRead(void) ;
  47:.\Generated_Source\PSoC5/USBFS_hid.c **** uint8 USBFS_InitControlWrite(void) ;
  48:.\Generated_Source\PSoC5/USBFS_hid.c **** uint8 USBFS_InitNoDataControlTransfer(void) ;
  49:.\Generated_Source\PSoC5/USBFS_hid.c **** T_USBFS_LUT *USBFS_GetConfigTablePtr(uint8 c)
  50:.\Generated_Source\PSoC5/USBFS_hid.c ****                                                             ;
  51:.\Generated_Source\PSoC5/USBFS_hid.c **** T_USBFS_LUT *USBFS_GetDeviceTablePtr(void)
  52:.\Generated_Source\PSoC5/USBFS_hid.c ****                                                             ;
  53:.\Generated_Source\PSoC5/USBFS_hid.c **** 
  54:.\Generated_Source\PSoC5/USBFS_hid.c **** extern volatile T_USBFS_TD USBFS_currentTD;
  55:.\Generated_Source\PSoC5/USBFS_hid.c **** extern uint8 CYCODE USBFS_HIDREPORT_DESCRIPTORS[];
  56:.\Generated_Source\PSoC5/USBFS_hid.c **** extern volatile uint8 USBFS_configuration;
  57:.\Generated_Source\PSoC5/USBFS_hid.c **** extern volatile uint8 USBFS_interfaceSetting[];
  58:.\Generated_Source\PSoC5/USBFS_hid.c **** 
  59:.\Generated_Source\PSoC5/USBFS_hid.c **** 
  60:.\Generated_Source\PSoC5/USBFS_hid.c **** /***************************************
  61:.\Generated_Source\PSoC5/USBFS_hid.c **** *    Internal references
  62:.\Generated_Source\PSoC5/USBFS_hid.c **** ***************************************/
  63:.\Generated_Source\PSoC5/USBFS_hid.c **** 
  64:.\Generated_Source\PSoC5/USBFS_hid.c **** void USBFS_FindReport(void) ;
  65:.\Generated_Source\PSoC5/USBFS_hid.c **** void USBFS_FindReportDescriptor(void) ;
  66:.\Generated_Source\PSoC5/USBFS_hid.c **** void USBFS_FindHidClassDecriptor(void) ;
  67:.\Generated_Source\PSoC5/USBFS_hid.c **** 
  68:.\Generated_Source\PSoC5/USBFS_hid.c **** 
  69:.\Generated_Source\PSoC5/USBFS_hid.c **** /*******************************************************************************
  70:.\Generated_Source\PSoC5/USBFS_hid.c **** * Function Name: USBFS_UpdateHIDTimer
  71:.\Generated_Source\PSoC5/USBFS_hid.c **** ********************************************************************************
  72:.\Generated_Source\PSoC5/USBFS_hid.c **** *
  73:.\Generated_Source\PSoC5/USBFS_hid.c **** * Summary:
  74:.\Generated_Source\PSoC5/USBFS_hid.c **** *  Updates the HID report timer and reloads it if expired
  75:.\Generated_Source\PSoC5/USBFS_hid.c **** *
  76:.\Generated_Source\PSoC5/USBFS_hid.c **** * Parameters:
ARM GAS  C:\DOCUME~1\ADMINI~1\LOCALS~1\Temp\ccIflNry.s 			page 3


  77:.\Generated_Source\PSoC5/USBFS_hid.c **** *  interface:  Interface Number.
  78:.\Generated_Source\PSoC5/USBFS_hid.c **** *
  79:.\Generated_Source\PSoC5/USBFS_hid.c **** * Return:
  80:.\Generated_Source\PSoC5/USBFS_hid.c **** *  status.
  81:.\Generated_Source\PSoC5/USBFS_hid.c **** *
  82:.\Generated_Source\PSoC5/USBFS_hid.c **** * Reentrant:
  83:.\Generated_Source\PSoC5/USBFS_hid.c **** *  No.
  84:.\Generated_Source\PSoC5/USBFS_hid.c **** *
  85:.\Generated_Source\PSoC5/USBFS_hid.c **** *******************************************************************************/
  86:.\Generated_Source\PSoC5/USBFS_hid.c **** uint8 USBFS_UpdateHIDTimer(uint8 interface) 
  87:.\Generated_Source\PSoC5/USBFS_hid.c **** {
  35              		.loc 1 87 0
  36              		.cfi_startproc
  37              		@ args = 0, pretend = 0, frame = 16
  38              		@ frame_needed = 1, uses_anonymous_args = 0
  39              		@ link register save eliminated.
  40 0000 80B4     		push	{r7}
  41              	.LCFI0:
  42              		.cfi_def_cfa_offset 4
  43 0002 85B0     		sub	sp, sp, #20
  44              	.LCFI1:
  45              		.cfi_def_cfa_offset 24
  46 0004 00AF     		add	r7, sp, #0
  47              		.cfi_offset 7, -4
  48              	.LCFI2:
  49              		.cfi_def_cfa_register 7
  50 0006 0346     		mov	r3, r0
  51 0008 FB71     		strb	r3, [r7, #7]
  88:.\Generated_Source\PSoC5/USBFS_hid.c ****     uint8 status = USBFS_IDLE_TIMER_INDEFINITE;
  52              		.loc 1 88 0
  53 000a 4FF00003 		mov	r3, #0
  54 000e FB73     		strb	r3, [r7, #15]
  89:.\Generated_Source\PSoC5/USBFS_hid.c **** 
  90:.\Generated_Source\PSoC5/USBFS_hid.c ****     if(USBFS_hidIdleRate[interface] != 0u)
  55              		.loc 1 90 0
  56 0010 FA79     		ldrb	r2, [r7, #7]	@ zero_extendqisi2
  57 0012 40F20003 		movw	r3, #:lower16:USBFS_hidIdleRate
  58 0016 C0F20003 		movt	r3, #:upper16:USBFS_hidIdleRate
  59 001a 9B5C     		ldrb	r3, [r3, r2]
  60 001c DBB2     		uxtb	r3, r3
  61 001e 002B     		cmp	r3, #0
  62 0020 2BD0     		beq	.L2
  91:.\Generated_Source\PSoC5/USBFS_hid.c ****     {
  92:.\Generated_Source\PSoC5/USBFS_hid.c ****         if(USBFS_hidIdleTimer[interface] > 0u)
  63              		.loc 1 92 0
  64 0022 FA79     		ldrb	r2, [r7, #7]	@ zero_extendqisi2
  65 0024 40F20003 		movw	r3, #:lower16:USBFS_hidIdleTimer
  66 0028 C0F20003 		movt	r3, #:upper16:USBFS_hidIdleTimer
  67 002c 9B5C     		ldrb	r3, [r3, r2]
  68 002e DBB2     		uxtb	r3, r3
  69 0030 002B     		cmp	r3, #0
  70 0032 12D0     		beq	.L3
  93:.\Generated_Source\PSoC5/USBFS_hid.c ****         {
  94:.\Generated_Source\PSoC5/USBFS_hid.c ****             USBFS_hidIdleTimer[interface]--;
  71              		.loc 1 94 0
  72 0034 FA79     		ldrb	r2, [r7, #7]	@ zero_extendqisi2
  73 0036 40F20003 		movw	r3, #:lower16:USBFS_hidIdleTimer
ARM GAS  C:\DOCUME~1\ADMINI~1\LOCALS~1\Temp\ccIflNry.s 			page 4


  74 003a C0F20003 		movt	r3, #:upper16:USBFS_hidIdleTimer
  75 003e 9B5C     		ldrb	r3, [r3, r2]
  76 0040 DBB2     		uxtb	r3, r3
  77 0042 03F1FF33 		add	r3, r3, #-1
  78 0046 D9B2     		uxtb	r1, r3
  79 0048 40F20003 		movw	r3, #:lower16:USBFS_hidIdleTimer
  80 004c C0F20003 		movt	r3, #:upper16:USBFS_hidIdleTimer
  81 0050 9954     		strb	r1, [r3, r2]
  95:.\Generated_Source\PSoC5/USBFS_hid.c ****             status = USBFS_IDLE_TIMER_RUNNING;
  82              		.loc 1 95 0
  83 0052 4FF00203 		mov	r3, #2
  84 0056 FB73     		strb	r3, [r7, #15]
  85 0058 0FE0     		b	.L2
  86              	.L3:
  96:.\Generated_Source\PSoC5/USBFS_hid.c ****         }
  97:.\Generated_Source\PSoC5/USBFS_hid.c ****         else
  98:.\Generated_Source\PSoC5/USBFS_hid.c ****         {
  99:.\Generated_Source\PSoC5/USBFS_hid.c ****             USBFS_hidIdleTimer[interface] = USBFS_hidIdleRate[interface];
  87              		.loc 1 99 0
  88 005a FA79     		ldrb	r2, [r7, #7]	@ zero_extendqisi2
  89 005c F979     		ldrb	r1, [r7, #7]	@ zero_extendqisi2
  90 005e 40F20003 		movw	r3, #:lower16:USBFS_hidIdleRate
  91 0062 C0F20003 		movt	r3, #:upper16:USBFS_hidIdleRate
  92 0066 5B5C     		ldrb	r3, [r3, r1]
  93 0068 D9B2     		uxtb	r1, r3
  94 006a 40F20003 		movw	r3, #:lower16:USBFS_hidIdleTimer
  95 006e C0F20003 		movt	r3, #:upper16:USBFS_hidIdleTimer
  96 0072 9954     		strb	r1, [r3, r2]
 100:.\Generated_Source\PSoC5/USBFS_hid.c ****             status = USBFS_IDLE_TIMER_EXPIRED;
  97              		.loc 1 100 0
  98 0074 4FF00103 		mov	r3, #1
  99 0078 FB73     		strb	r3, [r7, #15]
 100              	.L2:
 101:.\Generated_Source\PSoC5/USBFS_hid.c ****         }
 102:.\Generated_Source\PSoC5/USBFS_hid.c ****     }
 103:.\Generated_Source\PSoC5/USBFS_hid.c **** 
 104:.\Generated_Source\PSoC5/USBFS_hid.c ****     return(status);
 101              		.loc 1 104 0
 102 007a FB7B     		ldrb	r3, [r7, #15]	@ zero_extendqisi2
 105:.\Generated_Source\PSoC5/USBFS_hid.c **** }
 103              		.loc 1 105 0
 104 007c 1846     		mov	r0, r3
 105 007e 07F11407 		add	r7, r7, #20
 106 0082 BD46     		mov	sp, r7
 107 0084 80BC     		pop	{r7}
 108 0086 7047     		bx	lr
 109              		.cfi_endproc
 110              	.LFE0:
 111              		.size	USBFS_UpdateHIDTimer, .-USBFS_UpdateHIDTimer
 112              		.section	.text.USBFS_GetProtocol,"ax",%progbits
 113              		.align	2
 114              		.global	USBFS_GetProtocol
 115              		.thumb
 116              		.thumb_func
 117              		.type	USBFS_GetProtocol, %function
 118              	USBFS_GetProtocol:
 119              	.LFB1:
ARM GAS  C:\DOCUME~1\ADMINI~1\LOCALS~1\Temp\ccIflNry.s 			page 5


 106:.\Generated_Source\PSoC5/USBFS_hid.c **** 
 107:.\Generated_Source\PSoC5/USBFS_hid.c **** 
 108:.\Generated_Source\PSoC5/USBFS_hid.c **** /*******************************************************************************
 109:.\Generated_Source\PSoC5/USBFS_hid.c **** * Function Name: USBFS_GetProtocol
 110:.\Generated_Source\PSoC5/USBFS_hid.c **** ********************************************************************************
 111:.\Generated_Source\PSoC5/USBFS_hid.c **** *
 112:.\Generated_Source\PSoC5/USBFS_hid.c **** * Summary:
 113:.\Generated_Source\PSoC5/USBFS_hid.c **** *  Returns the selected protocol value to the application
 114:.\Generated_Source\PSoC5/USBFS_hid.c **** *
 115:.\Generated_Source\PSoC5/USBFS_hid.c **** * Parameters:
 116:.\Generated_Source\PSoC5/USBFS_hid.c **** *  interface:  Interface Number.
 117:.\Generated_Source\PSoC5/USBFS_hid.c **** *
 118:.\Generated_Source\PSoC5/USBFS_hid.c **** * Return:
 119:.\Generated_Source\PSoC5/USBFS_hid.c **** *  Interface protocol.
 120:.\Generated_Source\PSoC5/USBFS_hid.c **** *
 121:.\Generated_Source\PSoC5/USBFS_hid.c **** *******************************************************************************/
 122:.\Generated_Source\PSoC5/USBFS_hid.c **** uint8 USBFS_GetProtocol(uint8 interface) 
 123:.\Generated_Source\PSoC5/USBFS_hid.c **** {
 120              		.loc 1 123 0
 121              		.cfi_startproc
 122              		@ args = 0, pretend = 0, frame = 8
 123              		@ frame_needed = 1, uses_anonymous_args = 0
 124              		@ link register save eliminated.
 125 0000 80B4     		push	{r7}
 126              	.LCFI3:
 127              		.cfi_def_cfa_offset 4
 128 0002 83B0     		sub	sp, sp, #12
 129              	.LCFI4:
 130              		.cfi_def_cfa_offset 16
 131 0004 00AF     		add	r7, sp, #0
 132              		.cfi_offset 7, -4
 133              	.LCFI5:
 134              		.cfi_def_cfa_register 7
 135 0006 0346     		mov	r3, r0
 136 0008 FB71     		strb	r3, [r7, #7]
 124:.\Generated_Source\PSoC5/USBFS_hid.c ****     return(USBFS_hidProtocol[interface]);
 137              		.loc 1 124 0
 138 000a FA79     		ldrb	r2, [r7, #7]	@ zero_extendqisi2
 139 000c 40F20003 		movw	r3, #:lower16:USBFS_hidProtocol
 140 0010 C0F20003 		movt	r3, #:upper16:USBFS_hidProtocol
 141 0014 9B5C     		ldrb	r3, [r3, r2]
 142 0016 DBB2     		uxtb	r3, r3
 125:.\Generated_Source\PSoC5/USBFS_hid.c **** }
 143              		.loc 1 125 0
 144 0018 1846     		mov	r0, r3
 145 001a 07F10C07 		add	r7, r7, #12
 146 001e BD46     		mov	sp, r7
 147 0020 80BC     		pop	{r7}
 148 0022 7047     		bx	lr
 149              		.cfi_endproc
 150              	.LFE1:
 151              		.size	USBFS_GetProtocol, .-USBFS_GetProtocol
 152              		.section	.text.USBFS_DispatchHIDClassRqst,"ax",%progbits
 153              		.align	2
 154              		.global	USBFS_DispatchHIDClassRqst
 155              		.thumb
 156              		.thumb_func
ARM GAS  C:\DOCUME~1\ADMINI~1\LOCALS~1\Temp\ccIflNry.s 			page 6


 157              		.type	USBFS_DispatchHIDClassRqst, %function
 158              	USBFS_DispatchHIDClassRqst:
 159              	.LFB2:
 126:.\Generated_Source\PSoC5/USBFS_hid.c **** 
 127:.\Generated_Source\PSoC5/USBFS_hid.c **** 
 128:.\Generated_Source\PSoC5/USBFS_hid.c **** /*******************************************************************************
 129:.\Generated_Source\PSoC5/USBFS_hid.c **** * Function Name: USBFS_DispatchHIDClassRqst
 130:.\Generated_Source\PSoC5/USBFS_hid.c **** ********************************************************************************
 131:.\Generated_Source\PSoC5/USBFS_hid.c **** *
 132:.\Generated_Source\PSoC5/USBFS_hid.c **** * Summary:
 133:.\Generated_Source\PSoC5/USBFS_hid.c **** *  This routine dispatches class requests
 134:.\Generated_Source\PSoC5/USBFS_hid.c **** *
 135:.\Generated_Source\PSoC5/USBFS_hid.c **** * Parameters:
 136:.\Generated_Source\PSoC5/USBFS_hid.c **** *  None.
 137:.\Generated_Source\PSoC5/USBFS_hid.c **** *
 138:.\Generated_Source\PSoC5/USBFS_hid.c **** * Return:
 139:.\Generated_Source\PSoC5/USBFS_hid.c **** *  requestHandled
 140:.\Generated_Source\PSoC5/USBFS_hid.c **** *
 141:.\Generated_Source\PSoC5/USBFS_hid.c **** * Reentrant:
 142:.\Generated_Source\PSoC5/USBFS_hid.c **** *  No.
 143:.\Generated_Source\PSoC5/USBFS_hid.c **** *
 144:.\Generated_Source\PSoC5/USBFS_hid.c **** *******************************************************************************/
 145:.\Generated_Source\PSoC5/USBFS_hid.c **** uint8 USBFS_DispatchHIDClassRqst() 
 146:.\Generated_Source\PSoC5/USBFS_hid.c **** {
 160              		.loc 1 146 0
 161              		.cfi_startproc
 162              		@ args = 0, pretend = 0, frame = 8
 163              		@ frame_needed = 1, uses_anonymous_args = 0
 164 0000 80B5     		push	{r7, lr}
 165              	.LCFI6:
 166              		.cfi_def_cfa_offset 8
 167 0002 82B0     		sub	sp, sp, #8
 168              	.LCFI7:
 169              		.cfi_def_cfa_offset 16
 170 0004 00AF     		add	r7, sp, #0
 171              		.cfi_offset 14, -4
 172              		.cfi_offset 7, -8
 173              	.LCFI8:
 174              		.cfi_def_cfa_register 7
 147:.\Generated_Source\PSoC5/USBFS_hid.c ****     uint8 requestHandled = USBFS_FALSE;
 175              		.loc 1 147 0
 176 0006 4FF00003 		mov	r3, #0
 177 000a BB71     		strb	r3, [r7, #6]
 148:.\Generated_Source\PSoC5/USBFS_hid.c ****     uint8 interfaceNumber;
 149:.\Generated_Source\PSoC5/USBFS_hid.c **** 
 150:.\Generated_Source\PSoC5/USBFS_hid.c ****     interfaceNumber = CY_GET_REG8(USBFS_wIndexLo);
 178              		.loc 1 150 0
 179 000c 46F20403 		movw	r3, #:lower16:1073766404
 180 0010 C4F20003 		movt	r3, #:upper16:1073766404
 181 0014 1B78     		ldrb	r3, [r3, #0]
 182 0016 FB71     		strb	r3, [r7, #7]
 151:.\Generated_Source\PSoC5/USBFS_hid.c ****     if ((CY_GET_REG8(USBFS_bmRequestType) & USBFS_RQST_DIR_MASK) == USBFS_RQST_DIR_D2H)
 183              		.loc 1 151 0
 184 0018 46F20003 		movw	r3, #:lower16:1073766400
 185 001c C4F20003 		movt	r3, #:upper16:1073766400
 186 0020 1B78     		ldrb	r3, [r3, #0]
 187 0022 DBB2     		uxtb	r3, r3
ARM GAS  C:\DOCUME~1\ADMINI~1\LOCALS~1\Temp\ccIflNry.s 			page 7


 188 0024 5BB2     		sxtb	r3, r3
 189 0026 002B     		cmp	r3, #0
 190 0028 80F29A80 		bge	.L8
 152:.\Generated_Source\PSoC5/USBFS_hid.c ****     {   /* Control Read */
 153:.\Generated_Source\PSoC5/USBFS_hid.c ****         switch (CY_GET_REG8(USBFS_bRequest))
 191              		.loc 1 153 0
 192 002c 46F20103 		movw	r3, #:lower16:1073766401
 193 0030 C4F20003 		movt	r3, #:upper16:1073766401
 194 0034 1B78     		ldrb	r3, [r3, #0]
 195 0036 DBB2     		uxtb	r3, r3
 196 0038 03F1FF33 		add	r3, r3, #-1
 197 003c 052B     		cmp	r3, #5
 198 003e 00F21F81 		bhi	.L30
 199 0042 01A2     		adr	r2, .L14
 200 0044 52F823F0 		ldr	pc, [r2, r3, lsl #2]
 201              		.align	2
 202              	.L14:
 203 0048 C3000000 		.word	.L10+1
 204 004c E3000000 		.word	.L11+1
 205 0050 2B010000 		.word	.L12+1
 206 0054 81020000 		.word	.L30+1
 207 0058 81020000 		.word	.L30+1
 208 005c 61000000 		.word	.L13+1
 209              	.L13:
 154:.\Generated_Source\PSoC5/USBFS_hid.c ****         {
 155:.\Generated_Source\PSoC5/USBFS_hid.c ****             case USBFS_GET_DESCRIPTOR:
 156:.\Generated_Source\PSoC5/USBFS_hid.c ****                 if (CY_GET_REG8(USBFS_wValueHi) == USBFS_DESCR_HID_CLASS)
 210              		.loc 1 156 0
 211 0060 46F20303 		movw	r3, #:lower16:1073766403
 212 0064 C4F20003 		movt	r3, #:upper16:1073766403
 213 0068 1B78     		ldrb	r3, [r3, #0]
 214 006a DBB2     		uxtb	r3, r3
 215 006c 212B     		cmp	r3, #33
 216 006e 0FD1     		bne	.L15
 157:.\Generated_Source\PSoC5/USBFS_hid.c ****                 {
 158:.\Generated_Source\PSoC5/USBFS_hid.c ****                     USBFS_FindHidClassDecriptor();
 217              		.loc 1 158 0
 218 0070 FFF7FEFF 		bl	USBFS_FindHidClassDecriptor
 159:.\Generated_Source\PSoC5/USBFS_hid.c ****                     if (USBFS_currentTD.count != 0u)
 219              		.loc 1 159 0
 220 0074 40F20003 		movw	r3, #:lower16:USBFS_currentTD
 221 0078 C0F20003 		movt	r3, #:upper16:USBFS_currentTD
 222 007c 1B88     		ldrh	r3, [r3, #0]	@ movhi
 223 007e 9BB2     		uxth	r3, r3
 224 0080 002B     		cmp	r3, #0
 225 0082 00F0FF80 		beq	.L31
 160:.\Generated_Source\PSoC5/USBFS_hid.c ****                     {
 161:.\Generated_Source\PSoC5/USBFS_hid.c ****                         requestHandled = USBFS_InitControlRead();
 226              		.loc 1 161 0
 227 0086 FFF7FEFF 		bl	USBFS_InitControlRead
 228 008a 0346     		mov	r3, r0
 229 008c BB71     		strb	r3, [r7, #6]
 162:.\Generated_Source\PSoC5/USBFS_hid.c ****                     }
 163:.\Generated_Source\PSoC5/USBFS_hid.c ****                 }
 164:.\Generated_Source\PSoC5/USBFS_hid.c ****                 else if (CY_GET_REG8(USBFS_wValueHi) == USBFS_DESCR_HID_REPORT)
 165:.\Generated_Source\PSoC5/USBFS_hid.c ****                 {
 166:.\Generated_Source\PSoC5/USBFS_hid.c ****                     USBFS_FindReportDescriptor();
ARM GAS  C:\DOCUME~1\ADMINI~1\LOCALS~1\Temp\ccIflNry.s 			page 8


 167:.\Generated_Source\PSoC5/USBFS_hid.c ****                     if (USBFS_currentTD.count != 0u)
 168:.\Generated_Source\PSoC5/USBFS_hid.c ****                     {
 169:.\Generated_Source\PSoC5/USBFS_hid.c ****                         requestHandled = USBFS_InitControlRead();
 170:.\Generated_Source\PSoC5/USBFS_hid.c ****                     }
 171:.\Generated_Source\PSoC5/USBFS_hid.c ****                 }
 172:.\Generated_Source\PSoC5/USBFS_hid.c ****                 else
 173:.\Generated_Source\PSoC5/USBFS_hid.c ****                 {   /* requestHandled is initialezed as FALSE by default */
 174:.\Generated_Source\PSoC5/USBFS_hid.c ****                 }
 175:.\Generated_Source\PSoC5/USBFS_hid.c ****                 break;
 230              		.loc 1 175 0
 231 008e 0CE1     		b	.L20
 232              	.L15:
 233              		.loc 1 164 0
 234 0090 46F20303 		movw	r3, #:lower16:1073766403
 235 0094 C4F20003 		movt	r3, #:upper16:1073766403
 236 0098 1B78     		ldrb	r3, [r3, #0]
 237 009a DBB2     		uxtb	r3, r3
 238 009c 222B     		cmp	r3, #34
 239 009e 40F0F380 		bne	.L32
 240              		.loc 1 166 0
 241 00a2 FFF7FEFF 		bl	USBFS_FindReportDescriptor
 242              		.loc 1 167 0
 243 00a6 40F20003 		movw	r3, #:lower16:USBFS_currentTD
 244 00aa C0F20003 		movt	r3, #:upper16:USBFS_currentTD
 245 00ae 1B88     		ldrh	r3, [r3, #0]	@ movhi
 246 00b0 9BB2     		uxth	r3, r3
 247 00b2 002B     		cmp	r3, #0
 248 00b4 00F0EA80 		beq	.L33
 249              		.loc 1 169 0
 250 00b8 FFF7FEFF 		bl	USBFS_InitControlRead
 251 00bc 0346     		mov	r3, r0
 252 00be BB71     		strb	r3, [r7, #6]
 253              		.loc 1 175 0
 254 00c0 F3E0     		b	.L20
 255              	.L10:
 176:.\Generated_Source\PSoC5/USBFS_hid.c ****             case USBFS_HID_GET_REPORT:
 177:.\Generated_Source\PSoC5/USBFS_hid.c ****                 USBFS_FindReport();
 256              		.loc 1 177 0
 257 00c2 FFF7FEFF 		bl	USBFS_FindReport
 178:.\Generated_Source\PSoC5/USBFS_hid.c ****                 if (USBFS_currentTD.count != 0u)
 258              		.loc 1 178 0
 259 00c6 40F20003 		movw	r3, #:lower16:USBFS_currentTD
 260 00ca C0F20003 		movt	r3, #:upper16:USBFS_currentTD
 261 00ce 1B88     		ldrh	r3, [r3, #0]	@ movhi
 262 00d0 9BB2     		uxth	r3, r3
 263 00d2 002B     		cmp	r3, #0
 264 00d4 00F0DC80 		beq	.L34
 179:.\Generated_Source\PSoC5/USBFS_hid.c ****                 {
 180:.\Generated_Source\PSoC5/USBFS_hid.c ****                     requestHandled = USBFS_InitControlRead();
 265              		.loc 1 180 0
 266 00d8 FFF7FEFF 		bl	USBFS_InitControlRead
 267 00dc 0346     		mov	r3, r0
 268 00de BB71     		strb	r3, [r7, #6]
 181:.\Generated_Source\PSoC5/USBFS_hid.c ****                 }
 182:.\Generated_Source\PSoC5/USBFS_hid.c ****                 break;
 269              		.loc 1 182 0
 270 00e0 E3E0     		b	.L20
ARM GAS  C:\DOCUME~1\ADMINI~1\LOCALS~1\Temp\ccIflNry.s 			page 9


 271              	.L11:
 183:.\Generated_Source\PSoC5/USBFS_hid.c **** 
 184:.\Generated_Source\PSoC5/USBFS_hid.c ****             case USBFS_HID_GET_IDLE:
 185:.\Generated_Source\PSoC5/USBFS_hid.c ****                 /* This function does not support multiple reports per interface*/
 186:.\Generated_Source\PSoC5/USBFS_hid.c ****                 /* Validate interfaceNumber and Report ID (should be 0) */
 187:.\Generated_Source\PSoC5/USBFS_hid.c ****                 if( (interfaceNumber < USBFS_MAX_INTERFACES_NUMBER) &&
 272              		.loc 1 187 0
 273 00e2 FB79     		ldrb	r3, [r7, #7]	@ zero_extendqisi2
 274 00e4 032B     		cmp	r3, #3
 275 00e6 00F2D580 		bhi	.L35
 188:.\Generated_Source\PSoC5/USBFS_hid.c ****                     (CY_GET_REG8(USBFS_wValueLo) == 0u ) ) /* do not support Idle per Report ID */
 276              		.loc 1 188 0
 277 00ea 46F20203 		movw	r3, #:lower16:1073766402
 278 00ee C4F20003 		movt	r3, #:upper16:1073766402
 279 00f2 1B78     		ldrb	r3, [r3, #0]
 280 00f4 DBB2     		uxtb	r3, r3
 281              		.loc 1 187 0
 282 00f6 002B     		cmp	r3, #0
 283 00f8 40F0CE80 		bne	.L36
 189:.\Generated_Source\PSoC5/USBFS_hid.c ****                 {
 190:.\Generated_Source\PSoC5/USBFS_hid.c ****                     USBFS_currentTD.count = 1u;
 284              		.loc 1 190 0
 285 00fc 40F20003 		movw	r3, #:lower16:USBFS_currentTD
 286 0100 C0F20003 		movt	r3, #:upper16:USBFS_currentTD
 287 0104 4FF00102 		mov	r2, #1
 288 0108 1A80     		strh	r2, [r3, #0]	@ movhi
 191:.\Generated_Source\PSoC5/USBFS_hid.c ****                     USBFS_currentTD.pData = &USBFS_hidIdleRate[interfaceNumber];
 289              		.loc 1 191 0
 290 010a FA79     		ldrb	r2, [r7, #7]	@ zero_extendqisi2
 291 010c 40F20003 		movw	r3, #:lower16:USBFS_hidIdleRate
 292 0110 C0F20003 		movt	r3, #:upper16:USBFS_hidIdleRate
 293 0114 1A44     		add	r2, r2, r3
 294 0116 40F20003 		movw	r3, #:lower16:USBFS_currentTD
 295 011a C0F20003 		movt	r3, #:upper16:USBFS_currentTD
 296 011e 5A60     		str	r2, [r3, #4]
 192:.\Generated_Source\PSoC5/USBFS_hid.c ****                     requestHandled  = USBFS_InitControlRead();
 297              		.loc 1 192 0
 298 0120 FFF7FEFF 		bl	USBFS_InitControlRead
 299 0124 0346     		mov	r3, r0
 300 0126 BB71     		strb	r3, [r7, #6]
 193:.\Generated_Source\PSoC5/USBFS_hid.c ****                 }
 194:.\Generated_Source\PSoC5/USBFS_hid.c ****                 break;
 301              		.loc 1 194 0
 302 0128 BFE0     		b	.L20
 303              	.L12:
 195:.\Generated_Source\PSoC5/USBFS_hid.c ****             case USBFS_HID_GET_PROTOCOL:
 196:.\Generated_Source\PSoC5/USBFS_hid.c ****                 /* Validate interfaceNumber */
 197:.\Generated_Source\PSoC5/USBFS_hid.c ****                 if( interfaceNumber < USBFS_MAX_INTERFACES_NUMBER)
 304              		.loc 1 197 0
 305 012a FB79     		ldrb	r3, [r7, #7]	@ zero_extendqisi2
 306 012c 032B     		cmp	r3, #3
 307 012e 00F2B580 		bhi	.L37
 198:.\Generated_Source\PSoC5/USBFS_hid.c ****                 {
 199:.\Generated_Source\PSoC5/USBFS_hid.c ****                     USBFS_currentTD.count = 1u;
 308              		.loc 1 199 0
 309 0132 40F20003 		movw	r3, #:lower16:USBFS_currentTD
 310 0136 C0F20003 		movt	r3, #:upper16:USBFS_currentTD
ARM GAS  C:\DOCUME~1\ADMINI~1\LOCALS~1\Temp\ccIflNry.s 			page 10


 311 013a 4FF00102 		mov	r2, #1
 312 013e 1A80     		strh	r2, [r3, #0]	@ movhi
 200:.\Generated_Source\PSoC5/USBFS_hid.c ****                     USBFS_currentTD.pData = &USBFS_hidProtocol[interfaceNumber];
 313              		.loc 1 200 0
 314 0140 FA79     		ldrb	r2, [r7, #7]	@ zero_extendqisi2
 315 0142 40F20003 		movw	r3, #:lower16:USBFS_hidProtocol
 316 0146 C0F20003 		movt	r3, #:upper16:USBFS_hidProtocol
 317 014a 1A44     		add	r2, r2, r3
 318 014c 40F20003 		movw	r3, #:lower16:USBFS_currentTD
 319 0150 C0F20003 		movt	r3, #:upper16:USBFS_currentTD
 320 0154 5A60     		str	r2, [r3, #4]
 201:.\Generated_Source\PSoC5/USBFS_hid.c ****                     requestHandled  = USBFS_InitControlRead();
 321              		.loc 1 201 0
 322 0156 FFF7FEFF 		bl	USBFS_InitControlRead
 323 015a 0346     		mov	r3, r0
 324 015c BB71     		strb	r3, [r7, #6]
 325 015e A4E0     		b	.L20
 326              	.L8:
 202:.\Generated_Source\PSoC5/USBFS_hid.c ****                 }
 203:.\Generated_Source\PSoC5/USBFS_hid.c ****                 break;
 204:.\Generated_Source\PSoC5/USBFS_hid.c ****             default:    /* requestHandled is initialezed as FALSE by default */
 205:.\Generated_Source\PSoC5/USBFS_hid.c ****                 break;
 206:.\Generated_Source\PSoC5/USBFS_hid.c ****         }
 207:.\Generated_Source\PSoC5/USBFS_hid.c ****     }
 208:.\Generated_Source\PSoC5/USBFS_hid.c ****     else if ((CY_GET_REG8(USBFS_bmRequestType) & USBFS_RQST_DIR_MASK) ==
 327              		.loc 1 208 0
 328 0160 46F20003 		movw	r3, #:lower16:1073766400
 329 0164 C4F20003 		movt	r3, #:upper16:1073766400
 330 0168 1B78     		ldrb	r3, [r3, #0]
 331 016a DBB2     		uxtb	r3, r3
 332 016c 5BB2     		sxtb	r3, r3
 333 016e 002B     		cmp	r3, #0
 334 0170 C0F29B80 		blt	.L20
 209:.\Generated_Source\PSoC5/USBFS_hid.c ****                                                                             USBFS_RQST_DIR_H2D)
 210:.\Generated_Source\PSoC5/USBFS_hid.c ****     {   /* Control Write */
 211:.\Generated_Source\PSoC5/USBFS_hid.c ****         switch (CY_GET_REG8(USBFS_bRequest))
 335              		.loc 1 211 0
 336 0174 46F20103 		movw	r3, #:lower16:1073766401
 337 0178 C4F20003 		movt	r3, #:upper16:1073766401
 338 017c 1B78     		ldrb	r3, [r3, #0]
 339 017e DBB2     		uxtb	r3, r3
 340 0180 092B     		cmp	r3, #9
 341 0182 07D0     		beq	.L21
 342 0184 092B     		cmp	r3, #9
 343 0186 C0F29080 		blt	.L20
 344 018a 0A2B     		cmp	r3, #10
 345 018c 11D0     		beq	.L22
 346 018e 0B2B     		cmp	r3, #11
 347 0190 5AD0     		beq	.L23
 348 0192 8AE0     		b	.L20
 349              	.L21:
 212:.\Generated_Source\PSoC5/USBFS_hid.c ****         {
 213:.\Generated_Source\PSoC5/USBFS_hid.c ****             case USBFS_HID_SET_REPORT:
 214:.\Generated_Source\PSoC5/USBFS_hid.c ****                 USBFS_FindReport();
 350              		.loc 1 214 0
 351 0194 FFF7FEFF 		bl	USBFS_FindReport
 215:.\Generated_Source\PSoC5/USBFS_hid.c ****                 if (USBFS_currentTD.count != 0u)
ARM GAS  C:\DOCUME~1\ADMINI~1\LOCALS~1\Temp\ccIflNry.s 			page 11


 352              		.loc 1 215 0
 353 0198 40F20003 		movw	r3, #:lower16:USBFS_currentTD
 354 019c C0F20003 		movt	r3, #:upper16:USBFS_currentTD
 355 01a0 1B88     		ldrh	r3, [r3, #0]	@ movhi
 356 01a2 9BB2     		uxth	r3, r3
 357 01a4 002B     		cmp	r3, #0
 358 01a6 7BD0     		beq	.L38
 216:.\Generated_Source\PSoC5/USBFS_hid.c ****                 {
 217:.\Generated_Source\PSoC5/USBFS_hid.c ****                     requestHandled = USBFS_InitControlWrite();
 359              		.loc 1 217 0
 360 01a8 FFF7FEFF 		bl	USBFS_InitControlWrite
 361 01ac 0346     		mov	r3, r0
 362 01ae BB71     		strb	r3, [r7, #6]
 218:.\Generated_Source\PSoC5/USBFS_hid.c ****                 }
 219:.\Generated_Source\PSoC5/USBFS_hid.c ****                 break;
 363              		.loc 1 219 0
 364 01b0 7BE0     		b	.L20
 365              	.L22:
 220:.\Generated_Source\PSoC5/USBFS_hid.c ****             case USBFS_HID_SET_IDLE:
 221:.\Generated_Source\PSoC5/USBFS_hid.c ****                 /* This function does not support multiple reports per interface */
 222:.\Generated_Source\PSoC5/USBFS_hid.c ****                 /* Validate interfaceNumber and Report ID (should be 0) */
 223:.\Generated_Source\PSoC5/USBFS_hid.c ****                 if( (interfaceNumber < USBFS_MAX_INTERFACES_NUMBER) &&
 366              		.loc 1 223 0
 367 01b2 FB79     		ldrb	r3, [r7, #7]	@ zero_extendqisi2
 368 01b4 032B     		cmp	r3, #3
 369 01b6 75D8     		bhi	.L39
 224:.\Generated_Source\PSoC5/USBFS_hid.c ****                     (CY_GET_REG8(USBFS_wValueLo) == 0u ) ) /* do not support Idle per Report ID */
 370              		.loc 1 224 0
 371 01b8 46F20203 		movw	r3, #:lower16:1073766402
 372 01bc C4F20003 		movt	r3, #:upper16:1073766402
 373 01c0 1B78     		ldrb	r3, [r3, #0]
 374 01c2 DBB2     		uxtb	r3, r3
 375              		.loc 1 223 0
 376 01c4 002B     		cmp	r3, #0
 377 01c6 6FD1     		bne	.L40
 225:.\Generated_Source\PSoC5/USBFS_hid.c ****                 {
 226:.\Generated_Source\PSoC5/USBFS_hid.c ****                     USBFS_hidIdleRate[interfaceNumber] = CY_GET_REG8(USBFS_wValueHi);
 378              		.loc 1 226 0
 379 01c8 FA79     		ldrb	r2, [r7, #7]	@ zero_extendqisi2
 380 01ca 46F20303 		movw	r3, #:lower16:1073766403
 381 01ce C4F20003 		movt	r3, #:upper16:1073766403
 382 01d2 1B78     		ldrb	r3, [r3, #0]
 383 01d4 D9B2     		uxtb	r1, r3
 384 01d6 40F20003 		movw	r3, #:lower16:USBFS_hidIdleRate
 385 01da C0F20003 		movt	r3, #:upper16:USBFS_hidIdleRate
 386 01de 9954     		strb	r1, [r3, r2]
 227:.\Generated_Source\PSoC5/USBFS_hid.c ****                     /* With regards to HID spec: "7.2.4 Set_Idle Request"
 228:.\Generated_Source\PSoC5/USBFS_hid.c ****                     *  Latency. If the current period has gone past the
 229:.\Generated_Source\PSoC5/USBFS_hid.c ****                     *  newly proscribed time duration, then a report
 230:.\Generated_Source\PSoC5/USBFS_hid.c ****                     *  will be generated immediately.
 231:.\Generated_Source\PSoC5/USBFS_hid.c ****                     */
 232:.\Generated_Source\PSoC5/USBFS_hid.c ****                     if(USBFS_hidIdleRate[interfaceNumber] <
 387              		.loc 1 232 0
 388 01e0 FA79     		ldrb	r2, [r7, #7]	@ zero_extendqisi2
 389 01e2 40F20003 		movw	r3, #:lower16:USBFS_hidIdleRate
 390 01e6 C0F20003 		movt	r3, #:upper16:USBFS_hidIdleRate
 391 01ea 9B5C     		ldrb	r3, [r3, r2]
ARM GAS  C:\DOCUME~1\ADMINI~1\LOCALS~1\Temp\ccIflNry.s 			page 12


 392 01ec DAB2     		uxtb	r2, r3
 393 01ee F979     		ldrb	r1, [r7, #7]	@ zero_extendqisi2
 233:.\Generated_Source\PSoC5/USBFS_hid.c ****                        USBFS_hidIdleTimer[interfaceNumber])
 394              		.loc 1 233 0
 395 01f0 40F20003 		movw	r3, #:lower16:USBFS_hidIdleTimer
 396 01f4 C0F20003 		movt	r3, #:upper16:USBFS_hidIdleTimer
 397 01f8 5B5C     		ldrb	r3, [r3, r1]
 398 01fa DBB2     		uxtb	r3, r3
 399              		.loc 1 232 0
 400 01fc 9A42     		cmp	r2, r3
 401 01fe 08D2     		bcs	.L26
 234:.\Generated_Source\PSoC5/USBFS_hid.c ****                     {
 235:.\Generated_Source\PSoC5/USBFS_hid.c ****                         /* Set the timer to zero and let the UpdateHIDTimer() API return IDLE_TIMER
 236:.\Generated_Source\PSoC5/USBFS_hid.c ****                         USBFS_hidIdleTimer[interfaceNumber] = 0u;
 402              		.loc 1 236 0
 403 0200 FA79     		ldrb	r2, [r7, #7]	@ zero_extendqisi2
 404 0202 40F20003 		movw	r3, #:lower16:USBFS_hidIdleTimer
 405 0206 C0F20003 		movt	r3, #:upper16:USBFS_hidIdleTimer
 406 020a 4FF00001 		mov	r1, #0
 407 020e 9954     		strb	r1, [r3, r2]
 408 0210 15E0     		b	.L27
 409              	.L26:
 237:.\Generated_Source\PSoC5/USBFS_hid.c ****                     }
 238:.\Generated_Source\PSoC5/USBFS_hid.c ****                     /* If the new request is received within 4 milliseconds
 239:.\Generated_Source\PSoC5/USBFS_hid.c ****                     *  (1 count) of the end of the current period, then the
 240:.\Generated_Source\PSoC5/USBFS_hid.c ****                     *  new request will have no effect until after the report.
 241:.\Generated_Source\PSoC5/USBFS_hid.c ****                     */
 242:.\Generated_Source\PSoC5/USBFS_hid.c ****                     else if(USBFS_hidIdleTimer[interfaceNumber] <= 1u)
 410              		.loc 1 242 0
 411 0212 FA79     		ldrb	r2, [r7, #7]	@ zero_extendqisi2
 412 0214 40F20003 		movw	r3, #:lower16:USBFS_hidIdleTimer
 413 0218 C0F20003 		movt	r3, #:upper16:USBFS_hidIdleTimer
 414 021c 9B5C     		ldrb	r3, [r3, r2]
 415 021e DBB2     		uxtb	r3, r3
 416 0220 012B     		cmp	r3, #1
 417 0222 0CD9     		bls	.L27
 418              	.L28:
 243:.\Generated_Source\PSoC5/USBFS_hid.c ****                     {
 244:.\Generated_Source\PSoC5/USBFS_hid.c ****                         /* Do nothing.
 245:.\Generated_Source\PSoC5/USBFS_hid.c ****                         * Let the UpdateHIDTimer() API continue to work and
 246:.\Generated_Source\PSoC5/USBFS_hid.c ****                         * return IDLE_TIMER_EXPIRED status
 247:.\Generated_Source\PSoC5/USBFS_hid.c ****                         */
 248:.\Generated_Source\PSoC5/USBFS_hid.c ****                     }
 249:.\Generated_Source\PSoC5/USBFS_hid.c ****                     else
 250:.\Generated_Source\PSoC5/USBFS_hid.c ****                     {   /* Reload the timer*/
 251:.\Generated_Source\PSoC5/USBFS_hid.c ****                         USBFS_hidIdleTimer[interfaceNumber] =
 419              		.loc 1 251 0
 420 0224 FA79     		ldrb	r2, [r7, #7]	@ zero_extendqisi2
 252:.\Generated_Source\PSoC5/USBFS_hid.c ****                         USBFS_hidIdleRate[interfaceNumber];
 421              		.loc 1 252 0
 422 0226 F979     		ldrb	r1, [r7, #7]	@ zero_extendqisi2
 423 0228 40F20003 		movw	r3, #:lower16:USBFS_hidIdleRate
 424 022c C0F20003 		movt	r3, #:upper16:USBFS_hidIdleRate
 425 0230 5B5C     		ldrb	r3, [r3, r1]
 426 0232 D9B2     		uxtb	r1, r3
 427              		.loc 1 251 0
 428 0234 40F20003 		movw	r3, #:lower16:USBFS_hidIdleTimer
ARM GAS  C:\DOCUME~1\ADMINI~1\LOCALS~1\Temp\ccIflNry.s 			page 13


 429 0238 C0F20003 		movt	r3, #:upper16:USBFS_hidIdleTimer
 430 023c 9954     		strb	r1, [r3, r2]
 431              	.L27:
 253:.\Generated_Source\PSoC5/USBFS_hid.c ****                     }
 254:.\Generated_Source\PSoC5/USBFS_hid.c ****                     requestHandled = USBFS_InitNoDataControlTransfer();
 432              		.loc 1 254 0
 433 023e FFF7FEFF 		bl	USBFS_InitNoDataControlTransfer
 434 0242 0346     		mov	r3, r0
 435 0244 BB71     		strb	r3, [r7, #6]
 255:.\Generated_Source\PSoC5/USBFS_hid.c ****                 }
 256:.\Generated_Source\PSoC5/USBFS_hid.c ****                 break;
 436              		.loc 1 256 0
 437 0246 30E0     		b	.L20
 438              	.L23:
 257:.\Generated_Source\PSoC5/USBFS_hid.c **** 
 258:.\Generated_Source\PSoC5/USBFS_hid.c ****             case USBFS_HID_SET_PROTOCOL:
 259:.\Generated_Source\PSoC5/USBFS_hid.c ****                 /* Validate interfaceNumber and protocol (must be 0 or 1) */
 260:.\Generated_Source\PSoC5/USBFS_hid.c ****                 if( (interfaceNumber < USBFS_MAX_INTERFACES_NUMBER) &&
 439              		.loc 1 260 0
 440 0248 FB79     		ldrb	r3, [r7, #7]	@ zero_extendqisi2
 441 024a 032B     		cmp	r3, #3
 442 024c 2DD8     		bhi	.L20
 261:.\Generated_Source\PSoC5/USBFS_hid.c ****                     (CY_GET_REG8(USBFS_wValueLo) <= 1u) )
 443              		.loc 1 261 0
 444 024e 46F20203 		movw	r3, #:lower16:1073766402
 445 0252 C4F20003 		movt	r3, #:upper16:1073766402
 446 0256 1B78     		ldrb	r3, [r3, #0]
 447 0258 DBB2     		uxtb	r3, r3
 448              		.loc 1 260 0
 449 025a 012B     		cmp	r3, #1
 450 025c 25D8     		bhi	.L20
 262:.\Generated_Source\PSoC5/USBFS_hid.c ****                 {
 263:.\Generated_Source\PSoC5/USBFS_hid.c ****                     USBFS_hidProtocol[interfaceNumber] = CY_GET_REG8(USBFS_wValueLo);
 451              		.loc 1 263 0
 452 025e FA79     		ldrb	r2, [r7, #7]	@ zero_extendqisi2
 453 0260 46F20203 		movw	r3, #:lower16:1073766402
 454 0264 C4F20003 		movt	r3, #:upper16:1073766402
 455 0268 1B78     		ldrb	r3, [r3, #0]
 456 026a D9B2     		uxtb	r1, r3
 457 026c 40F20003 		movw	r3, #:lower16:USBFS_hidProtocol
 458 0270 C0F20003 		movt	r3, #:upper16:USBFS_hidProtocol
 459 0274 9954     		strb	r1, [r3, r2]
 264:.\Generated_Source\PSoC5/USBFS_hid.c ****                     requestHandled = USBFS_InitNoDataControlTransfer();
 460              		.loc 1 264 0
 461 0276 FFF7FEFF 		bl	USBFS_InitNoDataControlTransfer
 462 027a 0346     		mov	r3, r0
 463 027c BB71     		strb	r3, [r7, #6]
 464 027e 14E0     		b	.L20
 465              	.L30:
 466              		.loc 1 201 0
 467 0280 00BF     		nop
 468 0282 12E0     		b	.L20
 469              	.L31:
 470              		.loc 1 175 0
 471 0284 00BF     		nop
 472 0286 10E0     		b	.L20
 473              	.L32:
ARM GAS  C:\DOCUME~1\ADMINI~1\LOCALS~1\Temp\ccIflNry.s 			page 14


 474 0288 00BF     		nop
 475 028a 0EE0     		b	.L20
 476              	.L33:
 477 028c 00BF     		nop
 478 028e 0CE0     		b	.L20
 479              	.L34:
 480              		.loc 1 182 0
 481 0290 00BF     		nop
 482 0292 0AE0     		b	.L20
 483              	.L35:
 484              		.loc 1 194 0
 485 0294 00BF     		nop
 486 0296 08E0     		b	.L20
 487              	.L36:
 488 0298 00BF     		nop
 489 029a 06E0     		b	.L20
 490              	.L37:
 491              		.loc 1 201 0
 492 029c 00BF     		nop
 493 029e 04E0     		b	.L20
 494              	.L38:
 495              		.loc 1 219 0
 496 02a0 00BF     		nop
 497 02a2 02E0     		b	.L20
 498              	.L39:
 499              		.loc 1 256 0
 500 02a4 00BF     		nop
 501 02a6 00E0     		b	.L20
 502              	.L40:
 503 02a8 00BF     		nop
 504              	.L20:
 265:.\Generated_Source\PSoC5/USBFS_hid.c ****                 }
 266:.\Generated_Source\PSoC5/USBFS_hid.c ****                 break;
 267:.\Generated_Source\PSoC5/USBFS_hid.c ****             default:    /* requestHandled is initialezed as FALSE by default */
 268:.\Generated_Source\PSoC5/USBFS_hid.c ****                 break;
 269:.\Generated_Source\PSoC5/USBFS_hid.c ****         }
 270:.\Generated_Source\PSoC5/USBFS_hid.c ****     }
 271:.\Generated_Source\PSoC5/USBFS_hid.c ****     else
 272:.\Generated_Source\PSoC5/USBFS_hid.c ****     {   /* requestHandled is initialezed as FALSE by default */
 273:.\Generated_Source\PSoC5/USBFS_hid.c ****     }
 274:.\Generated_Source\PSoC5/USBFS_hid.c **** 
 275:.\Generated_Source\PSoC5/USBFS_hid.c ****     return(requestHandled);
 505              		.loc 1 275 0
 506 02aa BB79     		ldrb	r3, [r7, #6]	@ zero_extendqisi2
 276:.\Generated_Source\PSoC5/USBFS_hid.c **** }
 507              		.loc 1 276 0
 508 02ac 1846     		mov	r0, r3
 509 02ae 07F10807 		add	r7, r7, #8
 510 02b2 BD46     		mov	sp, r7
 511 02b4 80BD     		pop	{r7, pc}
 512              		.cfi_endproc
 513              	.LFE2:
 514              		.size	USBFS_DispatchHIDClassRqst, .-USBFS_DispatchHIDClassRqst
 515 02b6 00BF     		.section	.text.USBFS_FindHidClassDecriptor,"ax",%progbits
 516              		.align	2
 517              		.global	USBFS_FindHidClassDecriptor
 518              		.thumb
ARM GAS  C:\DOCUME~1\ADMINI~1\LOCALS~1\Temp\ccIflNry.s 			page 15


 519              		.thumb_func
 520              		.type	USBFS_FindHidClassDecriptor, %function
 521              	USBFS_FindHidClassDecriptor:
 522              	.LFB3:
 277:.\Generated_Source\PSoC5/USBFS_hid.c **** 
 278:.\Generated_Source\PSoC5/USBFS_hid.c **** 
 279:.\Generated_Source\PSoC5/USBFS_hid.c **** /*******************************************************************************
 280:.\Generated_Source\PSoC5/USBFS_hid.c **** * Function Name: USB_FindHidClassDescriptor
 281:.\Generated_Source\PSoC5/USBFS_hid.c **** ********************************************************************************
 282:.\Generated_Source\PSoC5/USBFS_hid.c **** *
 283:.\Generated_Source\PSoC5/USBFS_hid.c **** * Summary:
 284:.\Generated_Source\PSoC5/USBFS_hid.c **** *  This routine find Hid Class Descriptor pointer based on the Interface number
 285:.\Generated_Source\PSoC5/USBFS_hid.c **** *  and Alternate setting then loads the currentTD structure with the address of
 286:.\Generated_Source\PSoC5/USBFS_hid.c **** *  the buffer and the size.
 287:.\Generated_Source\PSoC5/USBFS_hid.c **** *  The HID Class Descriptor resides inside the config descriptor.
 288:.\Generated_Source\PSoC5/USBFS_hid.c **** *
 289:.\Generated_Source\PSoC5/USBFS_hid.c **** * Parameters:
 290:.\Generated_Source\PSoC5/USBFS_hid.c **** *  None.
 291:.\Generated_Source\PSoC5/USBFS_hid.c **** *
 292:.\Generated_Source\PSoC5/USBFS_hid.c **** * Return:
 293:.\Generated_Source\PSoC5/USBFS_hid.c **** *  currentTD
 294:.\Generated_Source\PSoC5/USBFS_hid.c **** *
 295:.\Generated_Source\PSoC5/USBFS_hid.c **** * Reentrant:
 296:.\Generated_Source\PSoC5/USBFS_hid.c **** *  No.
 297:.\Generated_Source\PSoC5/USBFS_hid.c **** *
 298:.\Generated_Source\PSoC5/USBFS_hid.c **** *******************************************************************************/
 299:.\Generated_Source\PSoC5/USBFS_hid.c **** void USBFS_FindHidClassDecriptor() 
 300:.\Generated_Source\PSoC5/USBFS_hid.c **** {
 523              		.loc 1 300 0
 524              		.cfi_startproc
 525              		@ args = 0, pretend = 0, frame = 16
 526              		@ frame_needed = 1, uses_anonymous_args = 0
 527 0000 80B5     		push	{r7, lr}
 528              	.LCFI9:
 529              		.cfi_def_cfa_offset 8
 530 0002 84B0     		sub	sp, sp, #16
 531              	.LCFI10:
 532              		.cfi_def_cfa_offset 24
 533 0004 00AF     		add	r7, sp, #0
 534              		.cfi_offset 14, -4
 535              		.cfi_offset 7, -8
 536              	.LCFI11:
 537              		.cfi_def_cfa_register 7
 301:.\Generated_Source\PSoC5/USBFS_hid.c ****     T_USBFS_LUT *pTmp;
 302:.\Generated_Source\PSoC5/USBFS_hid.c ****     volatile uint8 *pDescr;
 303:.\Generated_Source\PSoC5/USBFS_hid.c ****     uint8 interfaceN;
 304:.\Generated_Source\PSoC5/USBFS_hid.c **** 
 305:.\Generated_Source\PSoC5/USBFS_hid.c ****     pTmp = USBFS_GetConfigTablePtr(USBFS_configuration - 1u);
 538              		.loc 1 305 0
 539 0006 40F20003 		movw	r3, #:lower16:USBFS_configuration
 540 000a C0F20003 		movt	r3, #:upper16:USBFS_configuration
 541 000e 1B78     		ldrb	r3, [r3, #0]
 542 0010 DBB2     		uxtb	r3, r3
 543 0012 03F1FF33 		add	r3, r3, #-1
 544 0016 DBB2     		uxtb	r3, r3
 545 0018 1846     		mov	r0, r3
 546 001a FFF7FEFF 		bl	USBFS_GetConfigTablePtr
ARM GAS  C:\DOCUME~1\ADMINI~1\LOCALS~1\Temp\ccIflNry.s 			page 16


 547 001e 0346     		mov	r3, r0
 548 0020 7B60     		str	r3, [r7, #4]
 306:.\Generated_Source\PSoC5/USBFS_hid.c ****     interfaceN = CY_GET_REG8(USBFS_wIndexLo);
 549              		.loc 1 306 0
 550 0022 46F20403 		movw	r3, #:lower16:1073766404
 551 0026 C4F20003 		movt	r3, #:upper16:1073766404
 552 002a 1B78     		ldrb	r3, [r3, #0]
 553 002c FB73     		strb	r3, [r7, #15]
 307:.\Generated_Source\PSoC5/USBFS_hid.c ****     /* Third entry in the LUT starts the Interface Table pointers */
 308:.\Generated_Source\PSoC5/USBFS_hid.c ****     pTmp += 2;
 554              		.loc 1 308 0
 555 002e 7B68     		ldr	r3, [r7, #4]
 556 0030 03F11003 		add	r3, r3, #16
 557 0034 7B60     		str	r3, [r7, #4]
 309:.\Generated_Source\PSoC5/USBFS_hid.c ****     /* Now use the request interface number*/
 310:.\Generated_Source\PSoC5/USBFS_hid.c ****     pTmp = &pTmp[interfaceN];
 558              		.loc 1 310 0
 559 0036 FB7B     		ldrb	r3, [r7, #15]	@ zero_extendqisi2
 560 0038 4FEAC303 		lsl	r3, r3, #3
 561 003c 7A68     		ldr	r2, [r7, #4]
 562 003e 1344     		add	r3, r2, r3
 563 0040 7B60     		str	r3, [r7, #4]
 311:.\Generated_Source\PSoC5/USBFS_hid.c ****     /*USB_DEVICEx_CONFIGURATIONy_INTERFACEz_TABLE*/
 312:.\Generated_Source\PSoC5/USBFS_hid.c ****     pTmp = (T_USBFS_LUT *) pTmp->p_list;
 564              		.loc 1 312 0
 565 0042 7B68     		ldr	r3, [r7, #4]
 566 0044 5B68     		ldr	r3, [r3, #4]
 567 0046 7B60     		str	r3, [r7, #4]
 313:.\Generated_Source\PSoC5/USBFS_hid.c ****     /* Now use Alternate setting number */
 314:.\Generated_Source\PSoC5/USBFS_hid.c ****     pTmp = &pTmp[USBFS_interfaceSetting[interfaceN]];
 568              		.loc 1 314 0
 569 0048 FA7B     		ldrb	r2, [r7, #15]	@ zero_extendqisi2
 570 004a 40F20003 		movw	r3, #:lower16:USBFS_interfaceSetting
 571 004e C0F20003 		movt	r3, #:upper16:USBFS_interfaceSetting
 572 0052 9B5C     		ldrb	r3, [r3, r2]
 573 0054 DBB2     		uxtb	r3, r3
 574 0056 4FEAC303 		lsl	r3, r3, #3
 575 005a 7A68     		ldr	r2, [r7, #4]
 576 005c 1344     		add	r3, r2, r3
 577 005e 7B60     		str	r3, [r7, #4]
 315:.\Generated_Source\PSoC5/USBFS_hid.c ****     /*USB_DEVICEx_CONFIGURATIONy_INTERFACEz_ALTERNATEi_HID_TABLE*/
 316:.\Generated_Source\PSoC5/USBFS_hid.c ****     pTmp = (T_USBFS_LUT *) pTmp->p_list;
 578              		.loc 1 316 0
 579 0060 7B68     		ldr	r3, [r7, #4]
 580 0062 5B68     		ldr	r3, [r3, #4]
 581 0064 7B60     		str	r3, [r7, #4]
 317:.\Generated_Source\PSoC5/USBFS_hid.c ****     /* Fifth entry in the LUT points to Hid Class Descriptor in Configuration Descriptor*/
 318:.\Generated_Source\PSoC5/USBFS_hid.c ****     pTmp += 4;
 582              		.loc 1 318 0
 583 0066 7B68     		ldr	r3, [r7, #4]
 584 0068 03F12003 		add	r3, r3, #32
 585 006c 7B60     		str	r3, [r7, #4]
 319:.\Generated_Source\PSoC5/USBFS_hid.c ****     pDescr = (volatile uint8 *)pTmp->p_list;
 586              		.loc 1 319 0
 587 006e 7B68     		ldr	r3, [r7, #4]
 588 0070 5B68     		ldr	r3, [r3, #4]
 589 0072 BB60     		str	r3, [r7, #8]
ARM GAS  C:\DOCUME~1\ADMINI~1\LOCALS~1\Temp\ccIflNry.s 			page 17


 320:.\Generated_Source\PSoC5/USBFS_hid.c ****     USBFS_currentTD.count = pDescr[0u];
 590              		.loc 1 320 0
 591 0074 BB68     		ldr	r3, [r7, #8]
 592 0076 1B78     		ldrb	r3, [r3, #0]
 593 0078 DBB2     		uxtb	r3, r3
 594 007a 1A46     		mov	r2, r3
 595 007c 40F20003 		movw	r3, #:lower16:USBFS_currentTD
 596 0080 C0F20003 		movt	r3, #:upper16:USBFS_currentTD
 597 0084 1A80     		strh	r2, [r3, #0]	@ movhi
 321:.\Generated_Source\PSoC5/USBFS_hid.c ****     USBFS_currentTD.pData = pDescr;
 598              		.loc 1 321 0
 599 0086 40F20003 		movw	r3, #:lower16:USBFS_currentTD
 600 008a C0F20003 		movt	r3, #:upper16:USBFS_currentTD
 601 008e BA68     		ldr	r2, [r7, #8]
 602 0090 5A60     		str	r2, [r3, #4]
 322:.\Generated_Source\PSoC5/USBFS_hid.c **** }
 603              		.loc 1 322 0
 604 0092 07F11007 		add	r7, r7, #16
 605 0096 BD46     		mov	sp, r7
 606 0098 80BD     		pop	{r7, pc}
 607              		.cfi_endproc
 608              	.LFE3:
 609              		.size	USBFS_FindHidClassDecriptor, .-USBFS_FindHidClassDecriptor
 610 009a 00BF     		.section	.text.USBFS_FindReportDescriptor,"ax",%progbits
 611              		.align	2
 612              		.global	USBFS_FindReportDescriptor
 613              		.thumb
 614              		.thumb_func
 615              		.type	USBFS_FindReportDescriptor, %function
 616              	USBFS_FindReportDescriptor:
 617              	.LFB4:
 323:.\Generated_Source\PSoC5/USBFS_hid.c **** 
 324:.\Generated_Source\PSoC5/USBFS_hid.c **** 
 325:.\Generated_Source\PSoC5/USBFS_hid.c **** /*******************************************************************************
 326:.\Generated_Source\PSoC5/USBFS_hid.c **** * Function Name: USB_FindReportDescriptor
 327:.\Generated_Source\PSoC5/USBFS_hid.c **** ********************************************************************************
 328:.\Generated_Source\PSoC5/USBFS_hid.c **** *
 329:.\Generated_Source\PSoC5/USBFS_hid.c **** * Summary:
 330:.\Generated_Source\PSoC5/USBFS_hid.c **** *  This routine find Hid Report Descriptor pointer based on the Interface
 331:.\Generated_Source\PSoC5/USBFS_hid.c **** *  number, then loads the currentTD structure with the address of the buffer
 332:.\Generated_Source\PSoC5/USBFS_hid.c **** *  and the size.
 333:.\Generated_Source\PSoC5/USBFS_hid.c **** *  Hid Report Descriptor is located after IN/OUT/FEATURE reports.
 334:.\Generated_Source\PSoC5/USBFS_hid.c **** *
 335:.\Generated_Source\PSoC5/USBFS_hid.c **** * Parameters:
 336:.\Generated_Source\PSoC5/USBFS_hid.c **** *   void
 337:.\Generated_Source\PSoC5/USBFS_hid.c **** *
 338:.\Generated_Source\PSoC5/USBFS_hid.c **** * Return:
 339:.\Generated_Source\PSoC5/USBFS_hid.c **** *  currentTD
 340:.\Generated_Source\PSoC5/USBFS_hid.c **** *
 341:.\Generated_Source\PSoC5/USBFS_hid.c **** * Reentrant:
 342:.\Generated_Source\PSoC5/USBFS_hid.c **** *  No.
 343:.\Generated_Source\PSoC5/USBFS_hid.c **** *
 344:.\Generated_Source\PSoC5/USBFS_hid.c **** *******************************************************************************/
 345:.\Generated_Source\PSoC5/USBFS_hid.c **** void USBFS_FindReportDescriptor() 
 346:.\Generated_Source\PSoC5/USBFS_hid.c **** {
 618              		.loc 1 346 0
 619              		.cfi_startproc
ARM GAS  C:\DOCUME~1\ADMINI~1\LOCALS~1\Temp\ccIflNry.s 			page 18


 620              		@ args = 0, pretend = 0, frame = 16
 621              		@ frame_needed = 1, uses_anonymous_args = 0
 622 0000 80B5     		push	{r7, lr}
 623              	.LCFI12:
 624              		.cfi_def_cfa_offset 8
 625 0002 84B0     		sub	sp, sp, #16
 626              	.LCFI13:
 627              		.cfi_def_cfa_offset 24
 628 0004 00AF     		add	r7, sp, #0
 629              		.cfi_offset 14, -4
 630              		.cfi_offset 7, -8
 631              	.LCFI14:
 632              		.cfi_def_cfa_register 7
 347:.\Generated_Source\PSoC5/USBFS_hid.c ****     T_USBFS_LUT *pTmp;
 348:.\Generated_Source\PSoC5/USBFS_hid.c ****     volatile uint8 *pDescr;
 349:.\Generated_Source\PSoC5/USBFS_hid.c ****     uint8 interfaceN;
 350:.\Generated_Source\PSoC5/USBFS_hid.c **** 
 351:.\Generated_Source\PSoC5/USBFS_hid.c ****     pTmp = USBFS_GetConfigTablePtr(USBFS_configuration - 1u);
 633              		.loc 1 351 0
 634 0006 40F20003 		movw	r3, #:lower16:USBFS_configuration
 635 000a C0F20003 		movt	r3, #:upper16:USBFS_configuration
 636 000e 1B78     		ldrb	r3, [r3, #0]
 637 0010 DBB2     		uxtb	r3, r3
 638 0012 03F1FF33 		add	r3, r3, #-1
 639 0016 DBB2     		uxtb	r3, r3
 640 0018 1846     		mov	r0, r3
 641 001a FFF7FEFF 		bl	USBFS_GetConfigTablePtr
 642 001e 0346     		mov	r3, r0
 643 0020 7B60     		str	r3, [r7, #4]
 352:.\Generated_Source\PSoC5/USBFS_hid.c ****     interfaceN = CY_GET_REG8(USBFS_wIndexLo);
 644              		.loc 1 352 0
 645 0022 46F20403 		movw	r3, #:lower16:1073766404
 646 0026 C4F20003 		movt	r3, #:upper16:1073766404
 647 002a 1B78     		ldrb	r3, [r3, #0]
 648 002c FB73     		strb	r3, [r7, #15]
 353:.\Generated_Source\PSoC5/USBFS_hid.c ****     /* Third entry in the LUT starts the Interface Table pointers */
 354:.\Generated_Source\PSoC5/USBFS_hid.c ****     pTmp += 2u;
 649              		.loc 1 354 0
 650 002e 7B68     		ldr	r3, [r7, #4]
 651 0030 03F11003 		add	r3, r3, #16
 652 0034 7B60     		str	r3, [r7, #4]
 355:.\Generated_Source\PSoC5/USBFS_hid.c ****     /* Now use the request interface number*/
 356:.\Generated_Source\PSoC5/USBFS_hid.c ****     pTmp = &pTmp[interfaceN];
 653              		.loc 1 356 0
 654 0036 FB7B     		ldrb	r3, [r7, #15]	@ zero_extendqisi2
 655 0038 4FEAC303 		lsl	r3, r3, #3
 656 003c 7A68     		ldr	r2, [r7, #4]
 657 003e 1344     		add	r3, r2, r3
 658 0040 7B60     		str	r3, [r7, #4]
 357:.\Generated_Source\PSoC5/USBFS_hid.c ****     /*USB_DEVICEx_CONFIGURATIONy_INTERFACEz_TABLE*/
 358:.\Generated_Source\PSoC5/USBFS_hid.c ****     pTmp = (T_USBFS_LUT *) pTmp->p_list;
 659              		.loc 1 358 0
 660 0042 7B68     		ldr	r3, [r7, #4]
 661 0044 5B68     		ldr	r3, [r3, #4]
 662 0046 7B60     		str	r3, [r7, #4]
 359:.\Generated_Source\PSoC5/USBFS_hid.c ****     /* Now use Alternate setting number */
 360:.\Generated_Source\PSoC5/USBFS_hid.c ****     pTmp = &pTmp[USBFS_interfaceSetting[interfaceN]];
ARM GAS  C:\DOCUME~1\ADMINI~1\LOCALS~1\Temp\ccIflNry.s 			page 19


 663              		.loc 1 360 0
 664 0048 FA7B     		ldrb	r2, [r7, #15]	@ zero_extendqisi2
 665 004a 40F20003 		movw	r3, #:lower16:USBFS_interfaceSetting
 666 004e C0F20003 		movt	r3, #:upper16:USBFS_interfaceSetting
 667 0052 9B5C     		ldrb	r3, [r3, r2]
 668 0054 DBB2     		uxtb	r3, r3
 669 0056 4FEAC303 		lsl	r3, r3, #3
 670 005a 7A68     		ldr	r2, [r7, #4]
 671 005c 1344     		add	r3, r2, r3
 672 005e 7B60     		str	r3, [r7, #4]
 361:.\Generated_Source\PSoC5/USBFS_hid.c ****     /*USB_DEVICEx_CONFIGURATIONy_INTERFACEz_ALTERNATEi_HID_TABLE*/
 362:.\Generated_Source\PSoC5/USBFS_hid.c ****     pTmp = (T_USBFS_LUT *) pTmp->p_list;
 673              		.loc 1 362 0
 674 0060 7B68     		ldr	r3, [r7, #4]
 675 0062 5B68     		ldr	r3, [r3, #4]
 676 0064 7B60     		str	r3, [r7, #4]
 363:.\Generated_Source\PSoC5/USBFS_hid.c ****     /* Fourth entry in the LUT starts the Hid Report Descriptor */
 364:.\Generated_Source\PSoC5/USBFS_hid.c ****     pTmp += 3;
 677              		.loc 1 364 0
 678 0066 7B68     		ldr	r3, [r7, #4]
 679 0068 03F11803 		add	r3, r3, #24
 680 006c 7B60     		str	r3, [r7, #4]
 365:.\Generated_Source\PSoC5/USBFS_hid.c ****     pDescr = (volatile uint8 *)pTmp->p_list;
 681              		.loc 1 365 0
 682 006e 7B68     		ldr	r3, [r7, #4]
 683 0070 5B68     		ldr	r3, [r3, #4]
 684 0072 BB60     		str	r3, [r7, #8]
 366:.\Generated_Source\PSoC5/USBFS_hid.c ****     USBFS_currentTD.count =  (((uint16)pDescr[1] << 8u) | pDescr[0u]);
 685              		.loc 1 366 0
 686 0074 BB68     		ldr	r3, [r7, #8]
 687 0076 03F10103 		add	r3, r3, #1
 688 007a 1B78     		ldrb	r3, [r3, #0]
 689 007c DBB2     		uxtb	r3, r3
 690 007e 4FEA0323 		lsl	r3, r3, #8
 691 0082 9AB2     		uxth	r2, r3
 692 0084 BB68     		ldr	r3, [r7, #8]
 693 0086 1B78     		ldrb	r3, [r3, #0]
 694 0088 DBB2     		uxtb	r3, r3
 695 008a 42EA0303 		orr	r3, r2, r3
 696 008e 9BB2     		uxth	r3, r3
 697 0090 9AB2     		uxth	r2, r3
 698 0092 40F20003 		movw	r3, #:lower16:USBFS_currentTD
 699 0096 C0F20003 		movt	r3, #:upper16:USBFS_currentTD
 700 009a 1A80     		strh	r2, [r3, #0]	@ movhi
 367:.\Generated_Source\PSoC5/USBFS_hid.c ****     USBFS_currentTD.pData = &pDescr[2u];
 701              		.loc 1 367 0
 702 009c BB68     		ldr	r3, [r7, #8]
 703 009e 03F10202 		add	r2, r3, #2
 704 00a2 40F20003 		movw	r3, #:lower16:USBFS_currentTD
 705 00a6 C0F20003 		movt	r3, #:upper16:USBFS_currentTD
 706 00aa 5A60     		str	r2, [r3, #4]
 368:.\Generated_Source\PSoC5/USBFS_hid.c **** }
 707              		.loc 1 368 0
 708 00ac 07F11007 		add	r7, r7, #16
 709 00b0 BD46     		mov	sp, r7
 710 00b2 80BD     		pop	{r7, pc}
 711              		.cfi_endproc
ARM GAS  C:\DOCUME~1\ADMINI~1\LOCALS~1\Temp\ccIflNry.s 			page 20


 712              	.LFE4:
 713              		.size	USBFS_FindReportDescriptor, .-USBFS_FindReportDescriptor
 714              		.section	.text.USBFS_FindReport,"ax",%progbits
 715              		.align	2
 716              		.global	USBFS_FindReport
 717              		.thumb
 718              		.thumb_func
 719              		.type	USBFS_FindReport, %function
 720              	USBFS_FindReport:
 721              	.LFB5:
 369:.\Generated_Source\PSoC5/USBFS_hid.c **** 
 370:.\Generated_Source\PSoC5/USBFS_hid.c **** 
 371:.\Generated_Source\PSoC5/USBFS_hid.c **** /*******************************************************************************
 372:.\Generated_Source\PSoC5/USBFS_hid.c **** * Function Name: USBFS_FindReport
 373:.\Generated_Source\PSoC5/USBFS_hid.c **** ********************************************************************************
 374:.\Generated_Source\PSoC5/USBFS_hid.c **** *
 375:.\Generated_Source\PSoC5/USBFS_hid.c **** * Summary:
 376:.\Generated_Source\PSoC5/USBFS_hid.c **** *  This routine sets up a transfer based on the Interface number, Report Type
 377:.\Generated_Source\PSoC5/USBFS_hid.c **** *  and Report ID, then loads the currentTD structure with the address of the
 378:.\Generated_Source\PSoC5/USBFS_hid.c **** *  buffer and the size.  The caller has to decide if it is a control read or
 379:.\Generated_Source\PSoC5/USBFS_hid.c **** *  control write.
 380:.\Generated_Source\PSoC5/USBFS_hid.c **** *
 381:.\Generated_Source\PSoC5/USBFS_hid.c **** * Parameters:
 382:.\Generated_Source\PSoC5/USBFS_hid.c **** *  None.
 383:.\Generated_Source\PSoC5/USBFS_hid.c **** *
 384:.\Generated_Source\PSoC5/USBFS_hid.c **** * Return:
 385:.\Generated_Source\PSoC5/USBFS_hid.c **** *  currentTD
 386:.\Generated_Source\PSoC5/USBFS_hid.c **** *
 387:.\Generated_Source\PSoC5/USBFS_hid.c **** * Reentrant:
 388:.\Generated_Source\PSoC5/USBFS_hid.c **** *  No.
 389:.\Generated_Source\PSoC5/USBFS_hid.c **** *
 390:.\Generated_Source\PSoC5/USBFS_hid.c **** *******************************************************************************/
 391:.\Generated_Source\PSoC5/USBFS_hid.c **** void USBFS_FindReport() 
 392:.\Generated_Source\PSoC5/USBFS_hid.c **** {
 722              		.loc 1 392 0
 723              		.cfi_startproc
 724              		@ args = 0, pretend = 0, frame = 16
 725              		@ frame_needed = 1, uses_anonymous_args = 0
 726 0000 80B5     		push	{r7, lr}
 727              	.LCFI15:
 728              		.cfi_def_cfa_offset 8
 729 0002 84B0     		sub	sp, sp, #16
 730              	.LCFI16:
 731              		.cfi_def_cfa_offset 24
 732 0004 00AF     		add	r7, sp, #0
 733              		.cfi_offset 14, -4
 734              		.cfi_offset 7, -8
 735              	.LCFI17:
 736              		.cfi_def_cfa_register 7
 393:.\Generated_Source\PSoC5/USBFS_hid.c ****     T_USBFS_LUT *pTmp;
 394:.\Generated_Source\PSoC5/USBFS_hid.c ****     T_USBFS_TD *pTD;
 395:.\Generated_Source\PSoC5/USBFS_hid.c ****     uint8 interfaceN;
 396:.\Generated_Source\PSoC5/USBFS_hid.c ****     uint8 reportType;
 397:.\Generated_Source\PSoC5/USBFS_hid.c **** 
 398:.\Generated_Source\PSoC5/USBFS_hid.c ****     /* `#START HID_FINDREPORT` Place custom handling here */
 399:.\Generated_Source\PSoC5/USBFS_hid.c **** 
 400:.\Generated_Source\PSoC5/USBFS_hid.c ****     /* `#END` */
ARM GAS  C:\DOCUME~1\ADMINI~1\LOCALS~1\Temp\ccIflNry.s 			page 21


 401:.\Generated_Source\PSoC5/USBFS_hid.c ****     USBFS_currentTD.count = 0u;   /* Init not supported condition */
 737              		.loc 1 401 0
 738 0006 40F20003 		movw	r3, #:lower16:USBFS_currentTD
 739 000a C0F20003 		movt	r3, #:upper16:USBFS_currentTD
 740 000e 4FF00002 		mov	r2, #0
 741 0012 1A80     		strh	r2, [r3, #0]	@ movhi
 402:.\Generated_Source\PSoC5/USBFS_hid.c ****     pTmp = USBFS_GetConfigTablePtr(USBFS_configuration - 1u);
 742              		.loc 1 402 0
 743 0014 40F20003 		movw	r3, #:lower16:USBFS_configuration
 744 0018 C0F20003 		movt	r3, #:upper16:USBFS_configuration
 745 001c 1B78     		ldrb	r3, [r3, #0]
 746 001e DBB2     		uxtb	r3, r3
 747 0020 03F1FF33 		add	r3, r3, #-1
 748 0024 DBB2     		uxtb	r3, r3
 749 0026 1846     		mov	r0, r3
 750 0028 FFF7FEFF 		bl	USBFS_GetConfigTablePtr
 751 002c 0346     		mov	r3, r0
 752 002e 7B60     		str	r3, [r7, #4]
 403:.\Generated_Source\PSoC5/USBFS_hid.c ****     reportType = CY_GET_REG8(USBFS_wValueHi);
 753              		.loc 1 403 0
 754 0030 46F20303 		movw	r3, #:lower16:1073766403
 755 0034 C4F20003 		movt	r3, #:upper16:1073766403
 756 0038 1B78     		ldrb	r3, [r3, #0]
 757 003a FB73     		strb	r3, [r7, #15]
 404:.\Generated_Source\PSoC5/USBFS_hid.c ****     interfaceN = CY_GET_REG8(USBFS_wIndexLo);
 758              		.loc 1 404 0
 759 003c 46F20403 		movw	r3, #:lower16:1073766404
 760 0040 C4F20003 		movt	r3, #:upper16:1073766404
 761 0044 1B78     		ldrb	r3, [r3, #0]
 762 0046 BB73     		strb	r3, [r7, #14]
 405:.\Generated_Source\PSoC5/USBFS_hid.c ****     /* Third entry in the LUT COnfiguration Table starts the Interface Table pointers */
 406:.\Generated_Source\PSoC5/USBFS_hid.c ****     pTmp += 2;
 763              		.loc 1 406 0
 764 0048 7B68     		ldr	r3, [r7, #4]
 765 004a 03F11003 		add	r3, r3, #16
 766 004e 7B60     		str	r3, [r7, #4]
 407:.\Generated_Source\PSoC5/USBFS_hid.c ****     /* Now use the request interface number */
 408:.\Generated_Source\PSoC5/USBFS_hid.c ****     pTmp = &pTmp[interfaceN];
 767              		.loc 1 408 0
 768 0050 BB7B     		ldrb	r3, [r7, #14]	@ zero_extendqisi2
 769 0052 4FEAC303 		lsl	r3, r3, #3
 770 0056 7A68     		ldr	r2, [r7, #4]
 771 0058 1344     		add	r3, r2, r3
 772 005a 7B60     		str	r3, [r7, #4]
 409:.\Generated_Source\PSoC5/USBFS_hid.c ****     /*USB_DEVICEx_CONFIGURATIONy_INTERFACEz_TABLE*/
 410:.\Generated_Source\PSoC5/USBFS_hid.c ****     pTmp = (T_USBFS_LUT *) pTmp->p_list;
 773              		.loc 1 410 0
 774 005c 7B68     		ldr	r3, [r7, #4]
 775 005e 5B68     		ldr	r3, [r3, #4]
 776 0060 7B60     		str	r3, [r7, #4]
 411:.\Generated_Source\PSoC5/USBFS_hid.c ****     if(interfaceN < USBFS_MAX_INTERFACES_NUMBER)
 777              		.loc 1 411 0
 778 0062 BB7B     		ldrb	r3, [r7, #14]	@ zero_extendqisi2
 779 0064 032B     		cmp	r3, #3
 780 0066 49D8     		bhi	.L47
 412:.\Generated_Source\PSoC5/USBFS_hid.c ****     {
 413:.\Generated_Source\PSoC5/USBFS_hid.c ****         /* Now use Alternate setting number */
ARM GAS  C:\DOCUME~1\ADMINI~1\LOCALS~1\Temp\ccIflNry.s 			page 22


 414:.\Generated_Source\PSoC5/USBFS_hid.c ****         pTmp = &pTmp[USBFS_interfaceSetting[interfaceN]];
 781              		.loc 1 414 0
 782 0068 BA7B     		ldrb	r2, [r7, #14]	@ zero_extendqisi2
 783 006a 40F20003 		movw	r3, #:lower16:USBFS_interfaceSetting
 784 006e C0F20003 		movt	r3, #:upper16:USBFS_interfaceSetting
 785 0072 9B5C     		ldrb	r3, [r3, r2]
 786 0074 DBB2     		uxtb	r3, r3
 787 0076 4FEAC303 		lsl	r3, r3, #3
 788 007a 7A68     		ldr	r2, [r7, #4]
 789 007c 1344     		add	r3, r2, r3
 790 007e 7B60     		str	r3, [r7, #4]
 415:.\Generated_Source\PSoC5/USBFS_hid.c ****         /*USB_DEVICEx_CONFIGURATIONy_INTERFACEz_ALTERNATEi_HID_TABLE*/
 416:.\Generated_Source\PSoC5/USBFS_hid.c ****         pTmp = (T_USBFS_LUT *) pTmp->p_list;
 791              		.loc 1 416 0
 792 0080 7B68     		ldr	r3, [r7, #4]
 793 0082 5B68     		ldr	r3, [r3, #4]
 794 0084 7B60     		str	r3, [r7, #4]
 417:.\Generated_Source\PSoC5/USBFS_hid.c ****         /* Validate reportType to comply with "7.2.1 Get_Report Request" */
 418:.\Generated_Source\PSoC5/USBFS_hid.c ****         if((reportType >= USBFS_HID_GET_REPORT_INPUT) &&
 795              		.loc 1 418 0
 796 0086 FB7B     		ldrb	r3, [r7, #15]	@ zero_extendqisi2
 797 0088 002B     		cmp	r3, #0
 798 008a 37D0     		beq	.L47
 799 008c FB7B     		ldrb	r3, [r7, #15]	@ zero_extendqisi2
 800 008e 032B     		cmp	r3, #3
 801 0090 34D8     		bhi	.L47
 419:.\Generated_Source\PSoC5/USBFS_hid.c ****            (reportType <= USBFS_HID_GET_REPORT_FEATURE))
 420:.\Generated_Source\PSoC5/USBFS_hid.c ****         {
 421:.\Generated_Source\PSoC5/USBFS_hid.c ****             /* Get the entry proper TD (IN, OUT or Feature Report Table)*/
 422:.\Generated_Source\PSoC5/USBFS_hid.c ****             pTmp = &pTmp[reportType - 1u];
 802              		.loc 1 422 0
 803 0092 FB7B     		ldrb	r3, [r7, #15]	@ zero_extendqisi2
 804 0094 03F1FF33 		add	r3, r3, #-1
 805 0098 4FEAC303 		lsl	r3, r3, #3
 806 009c 7A68     		ldr	r2, [r7, #4]
 807 009e 1344     		add	r3, r2, r3
 808 00a0 7B60     		str	r3, [r7, #4]
 423:.\Generated_Source\PSoC5/USBFS_hid.c ****             reportType = CY_GET_REG8(USBFS_wValueLo);    /* Get reportID */
 809              		.loc 1 423 0
 810 00a2 46F20203 		movw	r3, #:lower16:1073766402
 811 00a6 C4F20003 		movt	r3, #:upper16:1073766402
 812 00aa 1B78     		ldrb	r3, [r3, #0]
 813 00ac FB73     		strb	r3, [r7, #15]
 424:.\Generated_Source\PSoC5/USBFS_hid.c ****             /* Validate table support by the HID descriptor, compare table count with reportID */
 425:.\Generated_Source\PSoC5/USBFS_hid.c ****             if(pTmp->c >= reportType)
 814              		.loc 1 425 0
 815 00ae 7B68     		ldr	r3, [r7, #4]
 816 00b0 1B78     		ldrb	r3, [r3, #0]	@ zero_extendqisi2
 817 00b2 FA7B     		ldrb	r2, [r7, #15]	@ zero_extendqisi2
 818 00b4 9A42     		cmp	r2, r3
 819 00b6 21D8     		bhi	.L47
 426:.\Generated_Source\PSoC5/USBFS_hid.c ****             {
 427:.\Generated_Source\PSoC5/USBFS_hid.c ****                 pTD = (T_USBFS_TD *) pTmp->p_list;
 820              		.loc 1 427 0
 821 00b8 7B68     		ldr	r3, [r7, #4]
 822 00ba 5B68     		ldr	r3, [r3, #4]
 823 00bc BB60     		str	r3, [r7, #8]
ARM GAS  C:\DOCUME~1\ADMINI~1\LOCALS~1\Temp\ccIflNry.s 			page 23


 428:.\Generated_Source\PSoC5/USBFS_hid.c ****                 pTD = &pTD[reportType];                          /* select entry depend on report I
 824              		.loc 1 428 0
 825 00be FA7B     		ldrb	r2, [r7, #15]	@ zero_extendqisi2
 826 00c0 1346     		mov	r3, r2
 827 00c2 4FEA4303 		lsl	r3, r3, #1
 828 00c6 1344     		add	r3, r3, r2
 829 00c8 4FEA8303 		lsl	r3, r3, #2
 830 00cc BA68     		ldr	r2, [r7, #8]
 831 00ce 1344     		add	r3, r2, r3
 832 00d0 BB60     		str	r3, [r7, #8]
 429:.\Generated_Source\PSoC5/USBFS_hid.c ****                 USBFS_currentTD.pData = pTD->pData;   /* Bufer pointer */
 833              		.loc 1 429 0
 834 00d2 BB68     		ldr	r3, [r7, #8]
 835 00d4 5A68     		ldr	r2, [r3, #4]
 836 00d6 40F20003 		movw	r3, #:lower16:USBFS_currentTD
 837 00da C0F20003 		movt	r3, #:upper16:USBFS_currentTD
 838 00de 5A60     		str	r2, [r3, #4]
 430:.\Generated_Source\PSoC5/USBFS_hid.c ****                 USBFS_currentTD.count = pTD->count;   /* Bufer Size */
 839              		.loc 1 430 0
 840 00e0 BB68     		ldr	r3, [r7, #8]
 841 00e2 1A88     		ldrh	r2, [r3, #0]
 842 00e4 40F20003 		movw	r3, #:lower16:USBFS_currentTD
 843 00e8 C0F20003 		movt	r3, #:upper16:USBFS_currentTD
 844 00ec 1A80     		strh	r2, [r3, #0]	@ movhi
 431:.\Generated_Source\PSoC5/USBFS_hid.c ****                 USBFS_currentTD.pStatusBlock = pTD->pStatusBlock;
 845              		.loc 1 431 0
 846 00ee BB68     		ldr	r3, [r7, #8]
 847 00f0 9A68     		ldr	r2, [r3, #8]
 848 00f2 40F20003 		movw	r3, #:lower16:USBFS_currentTD
 849 00f6 C0F20003 		movt	r3, #:upper16:USBFS_currentTD
 850 00fa 9A60     		str	r2, [r3, #8]
 851              	.L47:
 432:.\Generated_Source\PSoC5/USBFS_hid.c ****             }
 433:.\Generated_Source\PSoC5/USBFS_hid.c ****         }
 434:.\Generated_Source\PSoC5/USBFS_hid.c ****     }
 435:.\Generated_Source\PSoC5/USBFS_hid.c **** }
 852              		.loc 1 435 0
 853 00fc 07F11007 		add	r7, r7, #16
 854 0100 BD46     		mov	sp, r7
 855 0102 80BD     		pop	{r7, pc}
 856              		.cfi_endproc
 857              	.LFE5:
 858              		.size	USBFS_FindReport, .-USBFS_FindReport
 859              		.text
 860              	.Letext0: