ARM GAS  C:\DOCUME~1\ADMINI~1\LOCALS~1\Temp\ccOjxVk4.s 			page 1


   1              		.syntax unified
   2              		.cpu cortex-m3
   3              		.fpu softvfp
   4              		.eabi_attribute 20, 1
   5              		.eabi_attribute 21, 1
   6              		.eabi_attribute 23, 3
   7              		.eabi_attribute 24, 1
   8              		.eabi_attribute 25, 1
   9              		.eabi_attribute 26, 1
  10              		.eabi_attribute 30, 6
  11              		.eabi_attribute 18, 4
  12              		.thumb
  13              		.file	"USBFS_HID_interface.c"
  14              		.section	.debug_abbrev,"",%progbits
  15              	.Ldebug_abbrev0:
  16              		.section	.debug_info,"",%progbits
  17              	.Ldebug_info0:
  18              		.section	.debug_line,"",%progbits
  19              	.Ldebug_line0:
  20 0000 33020000 		.text
  20      02007200 
  20      00000201 
  20      FB0E0D00 
  20      01010101 
  21              	.Ltext0:
  22              		.cfi_sections	.debug_frame
  23              		.comm	bOutEndpointData,64,4
  24              		.comm	bInEndpointData,64,4
  25              		.comm	bBulkInEndpointData,513,4
  26              		.comm	bOutPacketIndex,1,1
  27              		.comm	bInPacketIndex,1,1
  28              		.comm	bHostInterface,1,1
  29              		.comm	i2cSpeed,1,1
  30              		.comm	voltage,2,2
  31              		.section	.text.SendToUSB,"ax",%progbits
  32              		.align	2
  33              		.global	SendToUSB
  34              		.thumb
  35              		.thumb_func
  36              		.type	SendToUSB, %function
  37              	SendToUSB:
  38              	.LFB29:
  39              		.file 1 ".\\USBFS_HID_interface.c"
   1:.\USBFS_HID_interface.c **** /*****************************************************************************
   2:.\USBFS_HID_interface.c **** * File Name: USBFS_HID_interface.c
   3:.\USBFS_HID_interface.c **** * Version 2.03
   4:.\USBFS_HID_interface.c **** *
   5:.\USBFS_HID_interface.c **** * Description: Handles the the USB-I2C Bridge functionality. 
   6:.\USBFS_HID_interface.c **** *
   7:.\USBFS_HID_interface.c **** * Owner:
   8:.\USBFS_HID_interface.c **** *	Ranjith M, Applications Engineer (rnjt@cypress.com)
   9:.\USBFS_HID_interface.c **** *
  10:.\USBFS_HID_interface.c **** * Related Document:
  11:.\USBFS_HID_interface.c **** * 	001-85925 - CY8CKIT-042 PSoC 4 Pioneer Kit IROS
  12:.\USBFS_HID_interface.c **** *	RNJT#21
  13:.\USBFS_HID_interface.c **** *
  14:.\USBFS_HID_interface.c **** * Hardware Dependency:
ARM GAS  C:\DOCUME~1\ADMINI~1\LOCALS~1\Temp\ccOjxVk4.s 			page 2


  15:.\USBFS_HID_interface.c **** * 	CY8CKIT-042 (KitProg) 
  16:.\USBFS_HID_interface.c **** *
  17:.\USBFS_HID_interface.c **** * Code Tested With:
  18:.\USBFS_HID_interface.c **** * 	Creator 2.2
  19:.\USBFS_HID_interface.c **** *	GCC1 4.4.1
  20:.\USBFS_HID_interface.c **** *	CY8CKIT-042 Rev 1
  21:.\USBFS_HID_interface.c **** *
  22:.\USBFS_HID_interface.c **** ******************************************************************************
  23:.\USBFS_HID_interface.c **** * Copyright (2013), Cypress Semiconductor Corporation.
  24:.\USBFS_HID_interface.c **** ******************************************************************************
  25:.\USBFS_HID_interface.c **** * This software is owned by Cypress Semiconductor Corporation (Cypress) and is
  26:.\USBFS_HID_interface.c **** * protected by and subject to worldwide patent protection (United States and
  27:.\USBFS_HID_interface.c **** * foreign), United States copyright laws and international treaty provisions.
  28:.\USBFS_HID_interface.c **** * Cypress hereby grants to licensee a personal, non-exclusive, non-transferable
  29:.\USBFS_HID_interface.c **** * license to copy, use, modify, create derivative works of, and compile the
  30:.\USBFS_HID_interface.c **** * Cypress Source Code and derivative works for the sole purpose of creating
  31:.\USBFS_HID_interface.c **** * custom software in support of licensee product to be used only in conjunction
  32:.\USBFS_HID_interface.c **** * with a Cypress integrated circuit as specified in the applicable agreement.
  33:.\USBFS_HID_interface.c **** * Any reproduction, modification, translation, compilation, or representation of
  34:.\USBFS_HID_interface.c **** * this software except as specified above is prohibited without the express
  35:.\USBFS_HID_interface.c **** * written permission of Cypress.
  36:.\USBFS_HID_interface.c **** *
  37:.\USBFS_HID_interface.c **** * Disclaimer: CYPRESS MAKES NO WARRANTY OF ANY KIND, EXPRESS OR IMPLIED, WITH
  38:.\USBFS_HID_interface.c **** * REGARD TO THIS MATERIAL, INCLUDING, BUT NOT LIMITED TO, THE IMPLIED
  39:.\USBFS_HID_interface.c **** * WARRANTIES OF MERCHANTABILITY AND FITNESS FOR A PARTICULAR PURPOSE.
  40:.\USBFS_HID_interface.c **** * Cypress reserves the right to make changes without further notice to the
  41:.\USBFS_HID_interface.c **** * materials described herein. Cypress does not assume any liability arising out
  42:.\USBFS_HID_interface.c **** * of the application or use of any product or circuit described herein. Cypress
  43:.\USBFS_HID_interface.c **** * does not authorize its products for use as critical components in life-support
  44:.\USBFS_HID_interface.c **** * systems where a malfunction or failure may reasonably be expected to result in
  45:.\USBFS_HID_interface.c **** * significant injury to the user. The inclusion of Cypress' product in a life-
  46:.\USBFS_HID_interface.c **** * support systems application implies that the manufacturer assumes all risk of
  47:.\USBFS_HID_interface.c **** * such use and in doing so indemnifies Cypress against all charges. Use may be
  48:.\USBFS_HID_interface.c **** * limited by and subject to the applicable Cypress software license agreement.
  49:.\USBFS_HID_interface.c **** *****************************************************************************/
  50:.\USBFS_HID_interface.c **** 
  51:.\USBFS_HID_interface.c **** #include "kitprog.h"
  52:.\USBFS_HID_interface.c **** 
  53:.\USBFS_HID_interface.c **** /*****************************************************************************
  54:.\USBFS_HID_interface.c **** * Local Function Prototypes
  55:.\USBFS_HID_interface.c **** *****************************************************************************/
  56:.\USBFS_HID_interface.c **** void SendToUSB(void);
  57:.\USBFS_HID_interface.c **** static uint8 I2CRestart(void);
  58:.\USBFS_HID_interface.c **** static void I2CTransaction(uint8 bControlByte, uint8 bLength, 
  59:.\USBFS_HID_interface.c ****                     uint8 *bCommandData, uint8 * bReturnData);
  60:.\USBFS_HID_interface.c **** static void I2CPinPullUpDriveLow(void);
  61:.\USBFS_HID_interface.c **** static void I2CPinTriState(void);
  62:.\USBFS_HID_interface.c **** void I2CPullUpDisable(void);
  63:.\USBFS_HID_interface.c **** /*****************************************************************************
  64:.\USBFS_HID_interface.c **** * Global Variable Declarations
  65:.\USBFS_HID_interface.c **** *****************************************************************************/
  66:.\USBFS_HID_interface.c **** 
  67:.\USBFS_HID_interface.c **** 
  68:.\USBFS_HID_interface.c **** /*****************************************************************************
  69:.\USBFS_HID_interface.c **** * Local Global Variable Declarations
  70:.\USBFS_HID_interface.c **** *****************************************************************************/
  71:.\USBFS_HID_interface.c **** 
ARM GAS  C:\DOCUME~1\ADMINI~1\LOCALS~1\Temp\ccOjxVk4.s 			page 3


  72:.\USBFS_HID_interface.c **** uint8 bOutEndpointData[64];
  73:.\USBFS_HID_interface.c **** uint8 bInEndpointData[64];
  74:.\USBFS_HID_interface.c **** uint8 bBulkInEndpointData[513];
  75:.\USBFS_HID_interface.c **** uint8 bOutPacketIndex;
  76:.\USBFS_HID_interface.c **** uint8 bInPacketIndex;
  77:.\USBFS_HID_interface.c **** uint8 bHostInterface;
  78:.\USBFS_HID_interface.c **** uint8 i2cSpeed;
  79:.\USBFS_HID_interface.c **** uint16 voltage;
  80:.\USBFS_HID_interface.c **** 
  81:.\USBFS_HID_interface.c **** /*******************************************************************************
  82:.\USBFS_HID_interface.c **** * Function Name: SendToUSB()
  83:.\USBFS_HID_interface.c **** ********************************************************************************
  84:.\USBFS_HID_interface.c **** * Summary:
  85:.\USBFS_HID_interface.c **** *  Send data to USB IN endpoint
  86:.\USBFS_HID_interface.c **** *
  87:.\USBFS_HID_interface.c **** * Parameters:
  88:.\USBFS_HID_interface.c **** *  void
  89:.\USBFS_HID_interface.c **** *
  90:.\USBFS_HID_interface.c **** * Return:
  91:.\USBFS_HID_interface.c **** *  void
  92:.\USBFS_HID_interface.c **** *
  93:.\USBFS_HID_interface.c **** *******************************************************************************/
  94:.\USBFS_HID_interface.c **** void SendToUSB(void)
  95:.\USBFS_HID_interface.c **** {
  40              		.loc 1 95 0
  41              		.cfi_startproc
  42              		@ args = 0, pretend = 0, frame = 0
  43              		@ frame_needed = 1, uses_anonymous_args = 0
  44 0000 80B5     		push	{r7, lr}
  45              	.LCFI0:
  46              		.cfi_def_cfa_offset 8
  47 0002 00AF     		add	r7, sp, #0
  48              		.cfi_offset 14, -4
  49              		.cfi_offset 7, -8
  50              	.LCFI1:
  51              		.cfi_def_cfa_register 7
  52              	.L2:
  96:.\USBFS_HID_interface.c ****     while(USBFS_bGetEPState(HOST_IN_EP) != USBFS_IN_BUFFER_EMPTY)
  53              		.loc 1 96 0
  54 0004 4FF00300 		mov	r0, #3
  55 0008 FFF7FEFF 		bl	USBFS_GetEPState
  56 000c 0346     		mov	r3, r0
  57 000e 012B     		cmp	r3, #1
  58 0010 F8D1     		bne	.L2
  97:.\USBFS_HID_interface.c **** 	{
  98:.\USBFS_HID_interface.c **** 		/* Wait for the previous IN endpoint trasaction to complete */
  99:.\USBFS_HID_interface.c **** 	}
 100:.\USBFS_HID_interface.c ****     USBFS_LoadInEP(HOST_IN_EP, bInEndpointData, 64);
  59              		.loc 1 100 0
  60 0012 4FF00300 		mov	r0, #3
  61 0016 40F20001 		movw	r1, #:lower16:bInEndpointData
  62 001a C0F20001 		movt	r1, #:upper16:bInEndpointData
  63 001e 4FF04002 		mov	r2, #64
  64 0022 FFF7FEFF 		bl	USBFS_LoadInEP
 101:.\USBFS_HID_interface.c ****     USBFS_EnableOutEP(HOST_OUT_EP);
  65              		.loc 1 101 0
  66 0026 4FF00400 		mov	r0, #4
ARM GAS  C:\DOCUME~1\ADMINI~1\LOCALS~1\Temp\ccOjxVk4.s 			page 4


  67 002a FFF7FEFF 		bl	USBFS_EnableOutEP
 102:.\USBFS_HID_interface.c **** 	return;
 103:.\USBFS_HID_interface.c **** }
  68              		.loc 1 103 0
  69 002e 80BD     		pop	{r7, pc}
  70              		.cfi_endproc
  71              	.LFE29:
  72              		.size	SendToUSB, .-SendToUSB
  73              		.section	.text.I2CRestart,"ax",%progbits
  74              		.align	2
  75              		.thumb
  76              		.thumb_func
  77              		.type	I2CRestart, %function
  78              	I2CRestart:
  79              	.LFB30:
 104:.\USBFS_HID_interface.c **** /*******************************************************************************
 105:.\USBFS_HID_interface.c **** * Function Name: I2CRestart()
 106:.\USBFS_HID_interface.c **** ********************************************************************************
 107:.\USBFS_HID_interface.c **** * Summary:
 108:.\USBFS_HID_interface.c **** *  Restart try to free I2C bus from hanging devices
 109:.\USBFS_HID_interface.c **** *
 110:.\USBFS_HID_interface.c **** * Parameters:
 111:.\USBFS_HID_interface.c **** *  void
 112:.\USBFS_HID_interface.c **** *
 113:.\USBFS_HID_interface.c **** * Return:
 114:.\USBFS_HID_interface.c **** *  status, 0 fail, 1 success
 115:.\USBFS_HID_interface.c **** *
 116:.\USBFS_HID_interface.c **** *******************************************************************************/    
 117:.\USBFS_HID_interface.c **** uint8 I2CRestart(void)
 118:.\USBFS_HID_interface.c **** {
  80              		.loc 1 118 0
  81              		.cfi_startproc
  82              		@ args = 0, pretend = 0, frame = 8
  83              		@ frame_needed = 1, uses_anonymous_args = 0
  84 0000 80B5     		push	{r7, lr}
  85              	.LCFI2:
  86              		.cfi_def_cfa_offset 8
  87 0002 82B0     		sub	sp, sp, #8
  88              	.LCFI3:
  89              		.cfi_def_cfa_offset 16
  90 0004 00AF     		add	r7, sp, #0
  91              		.cfi_offset 14, -4
  92              		.cfi_offset 7, -8
  93              	.LCFI4:
  94              		.cfi_def_cfa_register 7
 119:.\USBFS_HID_interface.c ****     uint8 bCount;
 120:.\USBFS_HID_interface.c ****     uint8 bStatus;
 121:.\USBFS_HID_interface.c **** 	
 122:.\USBFS_HID_interface.c **** 	/* Stop the I2C hardware */
 123:.\USBFS_HID_interface.c ****     I2CHW_Stop();
  95              		.loc 1 123 0
  96 0006 FFF7FEFF 		bl	I2CHW_Stop
 124:.\USBFS_HID_interface.c **** 	
 125:.\USBFS_HID_interface.c **** 	/* Allow the DSI to drive the I2C SDA and SCL pins */
 126:.\USBFS_HID_interface.c ****     I2C_DSIBypassDisable();
  97              		.loc 1 126 0
  98 000a FFF7FEFF 		bl	I2C_DSIBypassDisable
ARM GAS  C:\DOCUME~1\ADMINI~1\LOCALS~1\Temp\ccOjxVk4.s 			page 5


 127:.\USBFS_HID_interface.c ****     
 128:.\USBFS_HID_interface.c ****     /* Make sure the SDA line is not pulled low by master */
 129:.\USBFS_HID_interface.c ****     Pin_I2C_SDA_Write(1);
  99              		.loc 1 129 0
 100 000e 4FF00100 		mov	r0, #1
 101 0012 FFF7FEFF 		bl	Pin_I2C_SDA_Write
 130:.\USBFS_HID_interface.c ****     
 131:.\USBFS_HID_interface.c ****     /* send clock signal on SCL and wait for SDA to turn free */
 132:.\USBFS_HID_interface.c **** 	Pin_I2C_SCL_Write(0);
 102              		.loc 1 132 0
 103 0016 4FF00000 		mov	r0, #0
 104 001a FFF7FEFF 		bl	Pin_I2C_SCL_Write
 133:.\USBFS_HID_interface.c ****     for (bCount = 0; bCount < TIMEOUT; bCount++) 
 105              		.loc 1 133 0
 106 001e 4FF00003 		mov	r3, #0
 107 0022 BB71     		strb	r3, [r7, #6]
 108 0024 18E0     		b	.L5
 109              	.L8:
 134:.\USBFS_HID_interface.c ****     {
 135:.\USBFS_HID_interface.c ****         if(Pin_I2C_SDA_Read()) 
 110              		.loc 1 135 0
 111 0026 FFF7FEFF 		bl	Pin_I2C_SDA_Read
 112 002a 0346     		mov	r3, r0
 113 002c 002B     		cmp	r3, #0
 114 002e 17D1     		bne	.L12
 115              	.L6:
 136:.\USBFS_HID_interface.c **** 		{
 137:.\USBFS_HID_interface.c **** 			/* break loop if SDA released by slave */
 138:.\USBFS_HID_interface.c **** 			break;
 139:.\USBFS_HID_interface.c **** 		}
 140:.\USBFS_HID_interface.c **** 		
 141:.\USBFS_HID_interface.c **** 		/* clock on the SCL line */
 142:.\USBFS_HID_interface.c ****         Pin_I2C_SCL_Write(1); 
 116              		.loc 1 142 0
 117 0030 4FF00100 		mov	r0, #1
 118 0034 FFF7FEFF 		bl	Pin_I2C_SCL_Write
 143:.\USBFS_HID_interface.c ****         CyDelayUs(40);        
 119              		.loc 1 143 0
 120 0038 4FF02800 		mov	r0, #40
 121 003c FFF7FEFF 		bl	CyDelayUs
 144:.\USBFS_HID_interface.c ****         Pin_I2C_SCL_Write(0);        
 122              		.loc 1 144 0
 123 0040 4FF00000 		mov	r0, #0
 124 0044 FFF7FEFF 		bl	Pin_I2C_SCL_Write
 145:.\USBFS_HID_interface.c ****         CyDelayUs(40);
 125              		.loc 1 145 0
 126 0048 4FF02800 		mov	r0, #40
 127 004c FFF7FEFF 		bl	CyDelayUs
 128              		.loc 1 133 0
 129 0050 BB79     		ldrb	r3, [r7, #6]
 130 0052 03F10103 		add	r3, r3, #1
 131 0056 BB71     		strb	r3, [r7, #6]
 132              	.L5:
 133 0058 BB79     		ldrb	r3, [r7, #6]	@ zero_extendqisi2
 134 005a 312B     		cmp	r3, #49
 135 005c E3D9     		bls	.L8
 136 005e 00E0     		b	.L7
ARM GAS  C:\DOCUME~1\ADMINI~1\LOCALS~1\Temp\ccOjxVk4.s 			page 6


 137              	.L12:
 138              		.loc 1 138 0
 139 0060 00BF     		nop
 140              	.L7:
 146:.\USBFS_HID_interface.c ****     }
 147:.\USBFS_HID_interface.c **** 	
 148:.\USBFS_HID_interface.c **** 	/* Generate stop condition */
 149:.\USBFS_HID_interface.c ****     Pin_I2C_SDA_Write(0);
 141              		.loc 1 149 0
 142 0062 4FF00000 		mov	r0, #0
 143 0066 FFF7FEFF 		bl	Pin_I2C_SDA_Write
 150:.\USBFS_HID_interface.c ****     Pin_I2C_SCL_Write(1);    
 144              		.loc 1 150 0
 145 006a 4FF00100 		mov	r0, #1
 146 006e FFF7FEFF 		bl	Pin_I2C_SCL_Write
 151:.\USBFS_HID_interface.c ****     CyDelayUs(80);
 147              		.loc 1 151 0
 148 0072 4FF05000 		mov	r0, #80
 149 0076 FFF7FEFF 		bl	CyDelayUs
 152:.\USBFS_HID_interface.c ****     Pin_I2C_SDA_Write(1);
 150              		.loc 1 152 0
 151 007a 4FF00100 		mov	r0, #1
 152 007e FFF7FEFF 		bl	Pin_I2C_SDA_Write
 153:.\USBFS_HID_interface.c **** 	
 154:.\USBFS_HID_interface.c ****     /* wait for stable signal */
 155:.\USBFS_HID_interface.c ****     CyDelayUs(80);
 153              		.loc 1 155 0
 154 0082 4FF05000 		mov	r0, #80
 155 0086 FFF7FEFF 		bl	CyDelayUs
 156:.\USBFS_HID_interface.c **** 	/* If SCL and SCL lines free, return SUCCESS */
 157:.\USBFS_HID_interface.c ****     if (Pin_I2C_SDA_Read() && Pin_I2C_SCL_Read()) 
 156              		.loc 1 157 0
 157 008a FFF7FEFF 		bl	Pin_I2C_SDA_Read
 158 008e 0346     		mov	r3, r0
 159 0090 002B     		cmp	r3, #0
 160 0092 08D0     		beq	.L9
 161 0094 FFF7FEFF 		bl	Pin_I2C_SCL_Read
 162 0098 0346     		mov	r3, r0
 163 009a 002B     		cmp	r3, #0
 164 009c 03D0     		beq	.L9
 158:.\USBFS_HID_interface.c ****     {
 159:.\USBFS_HID_interface.c ****         bStatus = RESTART_SUCCESS;
 165              		.loc 1 159 0
 166 009e 4FF00103 		mov	r3, #1
 167 00a2 FB71     		strb	r3, [r7, #7]
 168              		.loc 1 157 0
 169 00a4 02E0     		b	.L10
 170              	.L9:
 160:.\USBFS_HID_interface.c ****     }
 161:.\USBFS_HID_interface.c ****     else 
 162:.\USBFS_HID_interface.c ****     {
 163:.\USBFS_HID_interface.c ****         bStatus = RESTART_FAIL;
 171              		.loc 1 163 0
 172 00a6 4FF00003 		mov	r3, #0
 173 00aa FB71     		strb	r3, [r7, #7]
 174              	.L10:
 164:.\USBFS_HID_interface.c ****     }
ARM GAS  C:\DOCUME~1\ADMINI~1\LOCALS~1\Temp\ccOjxVk4.s 			page 7


 165:.\USBFS_HID_interface.c ****     
 166:.\USBFS_HID_interface.c **** 	/* Transfer the control back to the port control registers */
 167:.\USBFS_HID_interface.c ****     I2C_DSIBypassEnable();
 175              		.loc 1 167 0
 176 00ac FFF7FEFF 		bl	I2C_DSIBypassEnable
 168:.\USBFS_HID_interface.c **** 	
 169:.\USBFS_HID_interface.c **** 	/* Start the I2C hardware */
 170:.\USBFS_HID_interface.c ****     I2CHW_Start();
 177              		.loc 1 170 0
 178 00b0 FFF7FEFF 		bl	I2CHW_Start
 171:.\USBFS_HID_interface.c **** 
 172:.\USBFS_HID_interface.c ****     return bStatus;
 179              		.loc 1 172 0
 180 00b4 FB79     		ldrb	r3, [r7, #7]	@ zero_extendqisi2
 173:.\USBFS_HID_interface.c **** }
 181              		.loc 1 173 0
 182 00b6 1846     		mov	r0, r3
 183 00b8 07F10807 		add	r7, r7, #8
 184 00bc BD46     		mov	sp, r7
 185 00be 80BD     		pop	{r7, pc}
 186              		.cfi_endproc
 187              	.LFE30:
 188              		.size	I2CRestart, .-I2CRestart
 189              		.section	.text.I2CTransaction,"ax",%progbits
 190              		.align	2
 191              		.thumb
 192              		.thumb_func
 193              		.type	I2CTransaction, %function
 194              	I2CTransaction:
 195              	.LFB31:
 174:.\USBFS_HID_interface.c **** /*******************************************************************************
 175:.\USBFS_HID_interface.c **** * Function Name: I2CTransaction()
 176:.\USBFS_HID_interface.c **** ********************************************************************************
 177:.\USBFS_HID_interface.c **** * Summary:
 178:.\USBFS_HID_interface.c **** *  Executes an I2C transaction.
 179:.\USBFS_HID_interface.c **** *
 180:.\USBFS_HID_interface.c **** * Parameters:
 181:.\USBFS_HID_interface.c **** *  bControlByte 	- control byte
 182:.\USBFS_HID_interface.c **** *  bLength 			- data length
 183:.\USBFS_HID_interface.c **** *  bCommandData 	- point to command data buffer
 184:.\USBFS_HID_interface.c **** *  bReturnData 		- point to return data buffer
 185:.\USBFS_HID_interface.c **** *
 186:.\USBFS_HID_interface.c **** * Return:
 187:.\USBFS_HID_interface.c **** *  void
 188:.\USBFS_HID_interface.c **** *
 189:.\USBFS_HID_interface.c **** * Notes:
 190:.\USBFS_HID_interface.c **** *  This routine assumes a valid I2C transaction is encoded in the command.
 191:.\USBFS_HID_interface.c **** *
 192:.\USBFS_HID_interface.c **** *******************************************************************************/
 193:.\USBFS_HID_interface.c **** void I2CTransaction(uint8 bControlByte, uint8 bLength, uint8 *bCommandData, uint8 * bReturnData)
 194:.\USBFS_HID_interface.c **** {
 196              		.loc 1 194 0
 197              		.cfi_startproc
 198              		@ args = 0, pretend = 0, frame = 24
 199              		@ frame_needed = 1, uses_anonymous_args = 0
 200 0000 90B5     		push	{r4, r7, lr}
 201              	.LCFI5:
ARM GAS  C:\DOCUME~1\ADMINI~1\LOCALS~1\Temp\ccOjxVk4.s 			page 8


 202              		.cfi_def_cfa_offset 12
 203 0002 87B0     		sub	sp, sp, #28
 204              	.LCFI6:
 205              		.cfi_def_cfa_offset 40
 206 0004 00AF     		add	r7, sp, #0
 207              		.cfi_offset 14, -4
 208              		.cfi_offset 7, -8
 209              		.cfi_offset 4, -12
 210              	.LCFI7:
 211              		.cfi_def_cfa_register 7
 212 0006 BA60     		str	r2, [r7, #8]
 213 0008 7B60     		str	r3, [r7, #4]
 214 000a 0346     		mov	r3, r0
 215 000c FB73     		strb	r3, [r7, #15]
 216 000e 0B46     		mov	r3, r1
 217 0010 BB73     		strb	r3, [r7, #14]
 195:.\USBFS_HID_interface.c ****     uint8 bCounter;
 196:.\USBFS_HID_interface.c ****     uint8 bIndex;
 197:.\USBFS_HID_interface.c ****     uint8 flag_ACK;
 198:.\USBFS_HID_interface.c **** 	uint8 flag_exit = CONTINUE;
 218              		.loc 1 198 0
 219 0012 4FF00003 		mov	r3, #0
 220 0016 FB75     		strb	r3, [r7, #23]
 199:.\USBFS_HID_interface.c **** 	
 200:.\USBFS_HID_interface.c ****     /* Start the transaction */
 201:.\USBFS_HID_interface.c ****     bIndex = 0;
 221              		.loc 1 201 0
 222 0018 4FF00003 		mov	r3, #0
 223 001c 7B75     		strb	r3, [r7, #21]
 202:.\USBFS_HID_interface.c **** 	/* if Start command received */
 203:.\USBFS_HID_interface.c **** 	if (bControlByte & CONTROL_START)
 224              		.loc 1 203 0
 225 001e FB7B     		ldrb	r3, [r7, #15]	@ zero_extendqisi2
 226 0020 03F00203 		and	r3, r3, #2
 227 0024 002B     		cmp	r3, #0
 228 0026 41D0     		beq	.L14
 204:.\USBFS_HID_interface.c ****     {
 205:.\USBFS_HID_interface.c **** 		/* SDA and SCL must be high (No traffic on the I2C bus) */
 206:.\USBFS_HID_interface.c ****         if (!(Pin_I2C_SDA_Read() && Pin_I2C_SCL_Read())) 
 229              		.loc 1 206 0
 230 0028 FFF7FEFF 		bl	Pin_I2C_SDA_Read
 231 002c 0346     		mov	r3, r0
 232 002e 002B     		cmp	r3, #0
 233 0030 04D0     		beq	.L15
 234 0032 FFF7FEFF 		bl	Pin_I2C_SCL_Read
 235 0036 0346     		mov	r3, r0
 236 0038 002B     		cmp	r3, #0
 237 003a 11D1     		bne	.L16
 238              	.L15:
 207:.\USBFS_HID_interface.c ****         {
 208:.\USBFS_HID_interface.c ****             /* Send a stop condition */
 209:.\USBFS_HID_interface.c ****             I2CHW_MasterSendStop();
 239              		.loc 1 209 0
 240 003c FFF7FEFF 		bl	I2CHW_MasterSendStop
 210:.\USBFS_HID_interface.c ****             CyDelayUs(10);
 241              		.loc 1 210 0
 242 0040 4FF00A00 		mov	r0, #10
ARM GAS  C:\DOCUME~1\ADMINI~1\LOCALS~1\Temp\ccOjxVk4.s 			page 9


 243 0044 FFF7FEFF 		bl	CyDelayUs
 211:.\USBFS_HID_interface.c ****             if(!I2CRestart())	    
 244              		.loc 1 211 0
 245 0048 FFF7FEFF 		bl	I2CRestart
 246 004c 0346     		mov	r3, r0
 247 004e 002B     		cmp	r3, #0
 248 0050 06D1     		bne	.L16
 212:.\USBFS_HID_interface.c ****             {
 213:.\USBFS_HID_interface.c ****                 /* Indicate a nACK */
 214:.\USBFS_HID_interface.c ****                 bReturnData[0] = NACK;
 249              		.loc 1 214 0
 250 0052 7B68     		ldr	r3, [r7, #4]
 251 0054 4FF00002 		mov	r2, #0
 252 0058 1A70     		strb	r2, [r3, #0]
 215:.\USBFS_HID_interface.c **** 				flag_exit = EXIT;
 253              		.loc 1 215 0
 254 005a 4FF00103 		mov	r3, #1
 255 005e FB75     		strb	r3, [r7, #23]
 256              	.L16:
 216:.\USBFS_HID_interface.c ****            }
 217:.\USBFS_HID_interface.c ****         }
 218:.\USBFS_HID_interface.c **** 		if(flag_exit != EXIT)
 257              		.loc 1 218 0
 258 0060 FB7D     		ldrb	r3, [r7, #23]	@ zero_extendqisi2
 259 0062 012B     		cmp	r3, #1
 260 0064 5BD0     		beq	.L37
 219:.\USBFS_HID_interface.c **** 		{
 220:.\USBFS_HID_interface.c ****         	/* Send a start */
 221:.\USBFS_HID_interface.c ****         	I2CHW_Stop();
 261              		.loc 1 221 0
 262 0066 FFF7FEFF 		bl	I2CHW_Stop
 222:.\USBFS_HID_interface.c ****         	I2CHW_Start();        
 263              		.loc 1 222 0
 264 006a FFF7FEFF 		bl	I2CHW_Start
 223:.\USBFS_HID_interface.c **** 			if(I2CHW_MasterSendStart(bCommandData[0], (bControlByte & CONTROL_DIRECTION)) == I2CHW_MSTR_NO_E
 265              		.loc 1 223 0
 266 006e BB68     		ldr	r3, [r7, #8]
 267 0070 1A78     		ldrb	r2, [r3, #0]	@ zero_extendqisi2
 268 0072 FB7B     		ldrb	r3, [r7, #15]	@ zero_extendqisi2
 269 0074 03F00103 		and	r3, r3, #1
 270 0078 1046     		mov	r0, r2
 271 007a 1946     		mov	r1, r3
 272 007c FFF7FEFF 		bl	I2CHW_MasterSendStart
 273 0080 0346     		mov	r3, r0
 274 0082 002B     		cmp	r3, #0
 275 0084 03D1     		bne	.L18
 224:.\USBFS_HID_interface.c **** 	        {
 225:.\USBFS_HID_interface.c **** 				flag_ACK = OK_ACK;
 276              		.loc 1 225 0
 277 0086 4FF00103 		mov	r3, #1
 278 008a BB75     		strb	r3, [r7, #22]
 279 008c 02E0     		b	.L19
 280              	.L18:
 226:.\USBFS_HID_interface.c **** 			}
 227:.\USBFS_HID_interface.c **** 			else
 228:.\USBFS_HID_interface.c **** 			{
 229:.\USBFS_HID_interface.c **** 				flag_ACK = NACK;
ARM GAS  C:\DOCUME~1\ADMINI~1\LOCALS~1\Temp\ccOjxVk4.s 			page 10


 281              		.loc 1 229 0
 282 008e 4FF00003 		mov	r3, #0
 283 0092 BB75     		strb	r3, [r7, #22]
 284              	.L19:
 230:.\USBFS_HID_interface.c **** 			}
 231:.\USBFS_HID_interface.c **** 			/* Send the ackknowledgement status back to USB */
 232:.\USBFS_HID_interface.c **** 			bReturnData[0] = flag_ACK;  
 285              		.loc 1 232 0
 286 0094 7B68     		ldr	r3, [r7, #4]
 287 0096 BA7D     		ldrb	r2, [r7, #22]
 288 0098 1A70     		strb	r2, [r3, #0]
 233:.\USBFS_HID_interface.c **** 	        bIndex++;
 289              		.loc 1 233 0
 290 009a 7B7D     		ldrb	r3, [r7, #21]
 291 009c 03F10103 		add	r3, r3, #1
 292 00a0 7B75     		strb	r3, [r7, #21]
 234:.\USBFS_HID_interface.c **** 	        bCounter = bLength - 1;
 293              		.loc 1 234 0
 294 00a2 BB7B     		ldrb	r3, [r7, #14]
 295 00a4 03F1FF33 		add	r3, r3, #-1
 296 00a8 3B75     		strb	r3, [r7, #20]
 297 00aa 39E0     		b	.L20
 298              	.L14:
 235:.\USBFS_HID_interface.c **** 		}
 236:.\USBFS_HID_interface.c ****     }
 237:.\USBFS_HID_interface.c **** 	/* if Restart command received */
 238:.\USBFS_HID_interface.c ****     else if (bControlByte & CONTROL_RESTART)
 299              		.loc 1 238 0
 300 00ac FB7B     		ldrb	r3, [r7, #15]	@ zero_extendqisi2
 301 00ae 03F00403 		and	r3, r3, #4
 302 00b2 002B     		cmp	r3, #0
 303 00b4 1ED0     		beq	.L21
 239:.\USBFS_HID_interface.c ****     {
 240:.\USBFS_HID_interface.c ****         /* Send a restart */
 241:.\USBFS_HID_interface.c ****         if(I2CHW_MasterSendRestart(bCommandData[0], (bControlByte & CONTROL_DIRECTION)) == I2CHW_MS
 304              		.loc 1 241 0
 305 00b6 BB68     		ldr	r3, [r7, #8]
 306 00b8 1A78     		ldrb	r2, [r3, #0]	@ zero_extendqisi2
 307 00ba FB7B     		ldrb	r3, [r7, #15]	@ zero_extendqisi2
 308 00bc 03F00103 		and	r3, r3, #1
 309 00c0 1046     		mov	r0, r2
 310 00c2 1946     		mov	r1, r3
 311 00c4 FFF7FEFF 		bl	I2CHW_MasterSendRestart
 312 00c8 0346     		mov	r3, r0
 313 00ca 002B     		cmp	r3, #0
 314 00cc 03D1     		bne	.L22
 242:.\USBFS_HID_interface.c **** 		{
 243:.\USBFS_HID_interface.c **** 			flag_ACK = OK_ACK;
 315              		.loc 1 243 0
 316 00ce 4FF00103 		mov	r3, #1
 317 00d2 BB75     		strb	r3, [r7, #22]
 318 00d4 02E0     		b	.L23
 319              	.L22:
 244:.\USBFS_HID_interface.c **** 		}
 245:.\USBFS_HID_interface.c **** 		else
 246:.\USBFS_HID_interface.c **** 		{
 247:.\USBFS_HID_interface.c **** 			flag_ACK = NACK;
ARM GAS  C:\DOCUME~1\ADMINI~1\LOCALS~1\Temp\ccOjxVk4.s 			page 11


 320              		.loc 1 247 0
 321 00d6 4FF00003 		mov	r3, #0
 322 00da BB75     		strb	r3, [r7, #22]
 323              	.L23:
 248:.\USBFS_HID_interface.c **** 		}
 249:.\USBFS_HID_interface.c **** 		/* Send the ackknowledgement status back to USB */
 250:.\USBFS_HID_interface.c ****         bReturnData[0] = flag_ACK;
 324              		.loc 1 250 0
 325 00dc 7B68     		ldr	r3, [r7, #4]
 326 00de BA7D     		ldrb	r2, [r7, #22]
 327 00e0 1A70     		strb	r2, [r3, #0]
 251:.\USBFS_HID_interface.c ****         bIndex++;
 328              		.loc 1 251 0
 329 00e2 7B7D     		ldrb	r3, [r7, #21]
 330 00e4 03F10103 		add	r3, r3, #1
 331 00e8 7B75     		strb	r3, [r7, #21]
 252:.\USBFS_HID_interface.c ****         bCounter = bLength - 1;
 332              		.loc 1 252 0
 333 00ea BB7B     		ldrb	r3, [r7, #14]
 334 00ec 03F1FF33 		add	r3, r3, #-1
 335 00f0 3B75     		strb	r3, [r7, #20]
 336 00f2 15E0     		b	.L20
 337              	.L21:
 253:.\USBFS_HID_interface.c ****     }
 254:.\USBFS_HID_interface.c ****     else
 255:.\USBFS_HID_interface.c ****     {
 256:.\USBFS_HID_interface.c ****         /* No start or restart.  Assume the bus is currently busy, and the slave
 257:.\USBFS_HID_interface.c ****          * ACK'ed the previous byte.*/
 258:.\USBFS_HID_interface.c ****         flag_ACK = OK_ACK;
 338              		.loc 1 258 0
 339 00f4 4FF00103 		mov	r3, #1
 340 00f8 BB75     		strb	r3, [r7, #22]
 259:.\USBFS_HID_interface.c **** 		
 260:.\USBFS_HID_interface.c ****         if ((bControlByte & CONTROL_DIRECTION) == CONTROL_DIRECTION_READ)
 341              		.loc 1 260 0
 342 00fa FB7B     		ldrb	r3, [r7, #15]	@ zero_extendqisi2
 343 00fc 03F00103 		and	r3, r3, #1
 344 0100 DBB2     		uxtb	r3, r3
 345 0102 002B     		cmp	r3, #0
 346 0104 0CD0     		beq	.L20
 261:.\USBFS_HID_interface.c ****         { 
 262:.\USBFS_HID_interface.c ****             bReturnData[0] = flag_ACK;
 347              		.loc 1 262 0
 348 0106 7B68     		ldr	r3, [r7, #4]
 349 0108 BA7D     		ldrb	r2, [r7, #22]
 350 010a 1A70     		strb	r2, [r3, #0]
 263:.\USBFS_HID_interface.c ****             bIndex++;
 351              		.loc 1 263 0
 352 010c 7B7D     		ldrb	r3, [r7, #21]
 353 010e 03F10103 		add	r3, r3, #1
 354 0112 7B75     		strb	r3, [r7, #21]
 264:.\USBFS_HID_interface.c ****             bCounter = bLength - 1;
 355              		.loc 1 264 0
 356 0114 BB7B     		ldrb	r3, [r7, #14]
 357 0116 03F1FF33 		add	r3, r3, #-1
 358 011a 3B75     		strb	r3, [r7, #20]
 359 011c 00E0     		b	.L20
ARM GAS  C:\DOCUME~1\ADMINI~1\LOCALS~1\Temp\ccOjxVk4.s 			page 12


 360              	.L37:
 361              		.loc 1 234 0
 362 011e 00BF     		nop
 363              	.L20:
 265:.\USBFS_HID_interface.c ****         }
 266:.\USBFS_HID_interface.c ****     }
 267:.\USBFS_HID_interface.c ****     
 268:.\USBFS_HID_interface.c ****     /* Transfer data */
 269:.\USBFS_HID_interface.c ****     if ((flag_ACK == OK_ACK) && (flag_exit != EXIT))
 364              		.loc 1 269 0
 365 0120 BB7D     		ldrb	r3, [r7, #22]	@ zero_extendqisi2
 366 0122 012B     		cmp	r3, #1
 367 0124 67D1     		bne	.L24
 368 0126 FB7D     		ldrb	r3, [r7, #23]	@ zero_extendqisi2
 369 0128 012B     		cmp	r3, #1
 370 012a 64D0     		beq	.L24
 270:.\USBFS_HID_interface.c ****     {
 271:.\USBFS_HID_interface.c ****         if ((bControlByte & CONTROL_DIRECTION) == CONTROL_DIRECTION_READ)
 371              		.loc 1 271 0
 372 012c FB7B     		ldrb	r3, [r7, #15]	@ zero_extendqisi2
 373 012e 03F00103 		and	r3, r3, #1
 374 0132 DBB2     		uxtb	r3, r3
 375 0134 002B     		cmp	r3, #0
 376 0136 33D0     		beq	.L25
 272:.\USBFS_HID_interface.c ****         {                
 273:.\USBFS_HID_interface.c ****             /* Read */
 274:.\USBFS_HID_interface.c ****             if (bLength)
 377              		.loc 1 274 0
 378 0138 BB7B     		ldrb	r3, [r7, #14]	@ zero_extendqisi2
 379 013a 002B     		cmp	r3, #0
 380 013c 58D0     		beq	.L38
 275:.\USBFS_HID_interface.c ****             {
 276:.\USBFS_HID_interface.c ****                 
 277:.\USBFS_HID_interface.c **** 				for (; bCounter; bCounter--)
 381              		.loc 1 277 0
 382 013e 11E0     		b	.L27
 383              	.L28:
 278:.\USBFS_HID_interface.c ****                 {    
 279:.\USBFS_HID_interface.c ****                     /* Read the I2C lines and store the bytes read in a buffer */
 280:.\USBFS_HID_interface.c **** 					bReturnData[bIndex] = I2CHW_MasterReadByte(I2CHW_ACK_DATA);
 384              		.loc 1 280 0
 385 0140 7A7D     		ldrb	r2, [r7, #21]	@ zero_extendqisi2
 386 0142 7B68     		ldr	r3, [r7, #4]
 387 0144 02EB0304 		add	r4, r2, r3
 388 0148 4FF00100 		mov	r0, #1
 389 014c FFF7FEFF 		bl	I2CHW_MasterReadByte
 390 0150 0346     		mov	r3, r0
 391 0152 2370     		strb	r3, [r4, #0]
 281:.\USBFS_HID_interface.c ****                     bIndex++;
 392              		.loc 1 281 0
 393 0154 7B7D     		ldrb	r3, [r7, #21]
 394 0156 03F10103 		add	r3, r3, #1
 395 015a 7B75     		strb	r3, [r7, #21]
 396              		.loc 1 277 0
 397 015c 3B7D     		ldrb	r3, [r7, #20]
 398 015e 03F1FF33 		add	r3, r3, #-1
 399 0162 3B75     		strb	r3, [r7, #20]
ARM GAS  C:\DOCUME~1\ADMINI~1\LOCALS~1\Temp\ccOjxVk4.s 			page 13


 400              	.L27:
 401 0164 3B7D     		ldrb	r3, [r7, #20]	@ zero_extendqisi2
 402 0166 002B     		cmp	r3, #0
 403 0168 EAD1     		bne	.L28
 282:.\USBFS_HID_interface.c ****                 }
 283:.\USBFS_HID_interface.c ****                 
 284:.\USBFS_HID_interface.c **** 				/* If the last byte is a stop condition, donot acknowledge it */
 285:.\USBFS_HID_interface.c ****                 if (bControlByte & CONTROL_STOP)
 404              		.loc 1 285 0
 405 016a FB7B     		ldrb	r3, [r7, #15]	@ zero_extendqisi2
 406 016c 03F00803 		and	r3, r3, #8
 407 0170 002B     		cmp	r3, #0
 408 0172 0AD0     		beq	.L29
 286:.\USBFS_HID_interface.c ****                 {
 287:.\USBFS_HID_interface.c ****                     bReturnData[bIndex] = I2CHW_MasterReadByte(I2CHW_NAK_DATA);
 409              		.loc 1 287 0
 410 0174 7A7D     		ldrb	r2, [r7, #21]	@ zero_extendqisi2
 411 0176 7B68     		ldr	r3, [r7, #4]
 412 0178 02EB0304 		add	r4, r2, r3
 413 017c 4FF00000 		mov	r0, #0
 414 0180 FFF7FEFF 		bl	I2CHW_MasterReadByte
 415 0184 0346     		mov	r3, r0
 416 0186 2370     		strb	r3, [r4, #0]
 288:.\USBFS_HID_interface.c ****                 } 
 289:.\USBFS_HID_interface.c **** 				else 
 290:.\USBFS_HID_interface.c **** 				{
 291:.\USBFS_HID_interface.c ****                     bReturnData[bIndex] = I2CHW_MasterReadByte(I2CHW_ACK_DATA);
 417              		.loc 1 291 0
 418 0188 35E0     		b	.L24
 419              	.L29:
 420 018a 7A7D     		ldrb	r2, [r7, #21]	@ zero_extendqisi2
 421 018c 7B68     		ldr	r3, [r7, #4]
 422 018e 02EB0304 		add	r4, r2, r3
 423 0192 4FF00100 		mov	r0, #1
 424 0196 FFF7FEFF 		bl	I2CHW_MasterReadByte
 425 019a 0346     		mov	r3, r0
 426 019c 2370     		strb	r3, [r4, #0]
 427 019e 2AE0     		b	.L24
 428              	.L25:
 292:.\USBFS_HID_interface.c ****                 }                
 293:.\USBFS_HID_interface.c ****             }
 294:.\USBFS_HID_interface.c ****         }
 295:.\USBFS_HID_interface.c ****         else
 296:.\USBFS_HID_interface.c ****         {
 297:.\USBFS_HID_interface.c ****             /* Write */
 298:.\USBFS_HID_interface.c ****             for (bCounter = bLength; bCounter; bCounter--)
 429              		.loc 1 298 0
 430 01a0 BB7B     		ldrb	r3, [r7, #14]
 431 01a2 3B75     		strb	r3, [r7, #20]
 432 01a4 20E0     		b	.L30
 433              	.L34:
 299:.\USBFS_HID_interface.c ****             {        
 300:.\USBFS_HID_interface.c ****                 /* Write the byte and return the acknowledgement status */
 301:.\USBFS_HID_interface.c **** 				if(I2CHW_MasterWriteByte(bCommandData[bIndex]) == I2CHW_MSTR_NO_ERROR)
 434              		.loc 1 301 0
 435 01a6 7A7D     		ldrb	r2, [r7, #21]	@ zero_extendqisi2
 436 01a8 BB68     		ldr	r3, [r7, #8]
ARM GAS  C:\DOCUME~1\ADMINI~1\LOCALS~1\Temp\ccOjxVk4.s 			page 14


 437 01aa 1344     		add	r3, r2, r3
 438 01ac 1B78     		ldrb	r3, [r3, #0]	@ zero_extendqisi2
 439 01ae 1846     		mov	r0, r3
 440 01b0 FFF7FEFF 		bl	I2CHW_MasterWriteByte
 441 01b4 0346     		mov	r3, r0
 442 01b6 002B     		cmp	r3, #0
 443 01b8 03D1     		bne	.L31
 302:.\USBFS_HID_interface.c **** 				{
 303:.\USBFS_HID_interface.c **** 					flag_ACK = OK_ACK;
 444              		.loc 1 303 0
 445 01ba 4FF00103 		mov	r3, #1
 446 01be BB75     		strb	r3, [r7, #22]
 447 01c0 02E0     		b	.L32
 448              	.L31:
 304:.\USBFS_HID_interface.c **** 				}
 305:.\USBFS_HID_interface.c **** 				else
 306:.\USBFS_HID_interface.c **** 				{
 307:.\USBFS_HID_interface.c **** 					flag_ACK = NACK;
 449              		.loc 1 307 0
 450 01c2 4FF00003 		mov	r3, #0
 451 01c6 BB75     		strb	r3, [r7, #22]
 452              	.L32:
 308:.\USBFS_HID_interface.c **** 				}
 309:.\USBFS_HID_interface.c ****                 bReturnData[bIndex] = flag_ACK;
 453              		.loc 1 309 0
 454 01c8 7A7D     		ldrb	r2, [r7, #21]	@ zero_extendqisi2
 455 01ca 7B68     		ldr	r3, [r7, #4]
 456 01cc 1344     		add	r3, r2, r3
 457 01ce BA7D     		ldrb	r2, [r7, #22]
 458 01d0 1A70     		strb	r2, [r3, #0]
 310:.\USBFS_HID_interface.c ****                 if (flag_ACK == NACK)
 459              		.loc 1 310 0
 460 01d2 BB7D     		ldrb	r3, [r7, #22]	@ zero_extendqisi2
 461 01d4 002B     		cmp	r3, #0
 462 01d6 0DD0     		beq	.L39
 463              	.L33:
 311:.\USBFS_HID_interface.c ****                 {
 312:.\USBFS_HID_interface.c ****                     break;	    			
 313:.\USBFS_HID_interface.c ****                 }  			
 314:.\USBFS_HID_interface.c ****                 bIndex++;                
 464              		.loc 1 314 0
 465 01d8 7B7D     		ldrb	r3, [r7, #21]
 466 01da 03F10103 		add	r3, r3, #1
 467 01de 7B75     		strb	r3, [r7, #21]
 468              		.loc 1 298 0
 469 01e0 3B7D     		ldrb	r3, [r7, #20]
 470 01e2 03F1FF33 		add	r3, r3, #-1
 471 01e6 3B75     		strb	r3, [r7, #20]
 472              	.L30:
 473 01e8 3B7D     		ldrb	r3, [r7, #20]	@ zero_extendqisi2
 474 01ea 002B     		cmp	r3, #0
 475 01ec DBD1     		bne	.L34
 476 01ee 02E0     		b	.L24
 477              	.L38:
 478              		.loc 1 291 0
 479 01f0 00BF     		nop
 480 01f2 00E0     		b	.L24
ARM GAS  C:\DOCUME~1\ADMINI~1\LOCALS~1\Temp\ccOjxVk4.s 			page 15


 481              	.L39:
 482              		.loc 1 312 0
 483 01f4 00BF     		nop
 484              	.L24:
 315:.\USBFS_HID_interface.c ****             }    
 316:.\USBFS_HID_interface.c ****         }
 317:.\USBFS_HID_interface.c ****     }
 318:.\USBFS_HID_interface.c ****     
 319:.\USBFS_HID_interface.c ****     /* End the transaction */
 320:.\USBFS_HID_interface.c ****     if (bControlByte & CONTROL_STOP) 
 485              		.loc 1 320 0
 486 01f6 FB7B     		ldrb	r3, [r7, #15]	@ zero_extendqisi2
 487 01f8 03F00803 		and	r3, r3, #8
 488 01fc 002B     		cmp	r3, #0
 489 01fe 01D0     		beq	.L36
 321:.\USBFS_HID_interface.c **** 	{
 322:.\USBFS_HID_interface.c **** 		I2CHW_MasterSendStop();                
 490              		.loc 1 322 0
 491 0200 FFF7FEFF 		bl	I2CHW_MasterSendStop
 492              	.L36:
 323:.\USBFS_HID_interface.c **** 	}
 324:.\USBFS_HID_interface.c **** }
 493              		.loc 1 324 0
 494 0204 07F11C07 		add	r7, r7, #28
 495 0208 BD46     		mov	sp, r7
 496 020a 90BD     		pop	{r4, r7, pc}
 497              		.cfi_endproc
 498              	.LFE31:
 499              		.size	I2CTransaction, .-I2CTransaction
 500              		.section	.text.I2CPinPullUpDriveLow,"ax",%progbits
 501              		.align	2
 502              		.thumb
 503              		.thumb_func
 504              		.type	I2CPinPullUpDriveLow, %function
 505              	I2CPinPullUpDriveLow:
 506              	.LFB32:
 325:.\USBFS_HID_interface.c **** 
 326:.\USBFS_HID_interface.c **** /*******************************************************************************
 327:.\USBFS_HID_interface.c **** * Function Name: I2CPinPullUpDriveLow()
 328:.\USBFS_HID_interface.c **** ********************************************************************************
 329:.\USBFS_HID_interface.c **** * Summary:
 330:.\USBFS_HID_interface.c **** *  Set the I2C pins to open drain drive low.
 331:.\USBFS_HID_interface.c **** *
 332:.\USBFS_HID_interface.c **** * Parameters:
 333:.\USBFS_HID_interface.c **** *  void
 334:.\USBFS_HID_interface.c **** *
 335:.\USBFS_HID_interface.c **** * Return:
 336:.\USBFS_HID_interface.c **** *  void
 337:.\USBFS_HID_interface.c **** *
 338:.\USBFS_HID_interface.c **** *       
 339:.\USBFS_HID_interface.c **** *******************************************************************************/
 340:.\USBFS_HID_interface.c **** void I2CPinPullUpDriveLow(void)
 341:.\USBFS_HID_interface.c **** {
 507              		.loc 1 341 0
 508              		.cfi_startproc
 509              		@ args = 0, pretend = 0, frame = 0
 510              		@ frame_needed = 1, uses_anonymous_args = 0
ARM GAS  C:\DOCUME~1\ADMINI~1\LOCALS~1\Temp\ccOjxVk4.s 			page 16


 511              		@ link register save eliminated.
 512 0000 80B4     		push	{r7}
 513              	.LCFI8:
 514              		.cfi_def_cfa_offset 4
 515 0002 00AF     		add	r7, sp, #0
 516              		.cfi_offset 7, -4
 517              	.LCFI9:
 518              		.cfi_def_cfa_register 7
 342:.\USBFS_HID_interface.c ****     CyPins_SetPinDriveMode(Pin_I2C_SDA_0, Pin_I2C_SDA_DM_OD_LO);
 519              		.loc 1 342 0
 520 0004 45F26103 		movw	r3, #:lower16:1073762401
 521 0008 C4F20003 		movt	r3, #:upper16:1073762401
 522 000c 45F26102 		movw	r2, #:lower16:1073762401
 523 0010 C4F20002 		movt	r2, #:upper16:1073762401
 524 0014 1278     		ldrb	r2, [r2, #0]
 525 0016 D2B2     		uxtb	r2, r2
 526 0018 D2B2     		uxtb	r2, r2
 527 001a 02F0F102 		and	r2, r2, #241
 528 001e 42F00802 		orr	r2, r2, #8
 529 0022 D2B2     		uxtb	r2, r2
 530 0024 D2B2     		uxtb	r2, r2
 531 0026 1A70     		strb	r2, [r3, #0]
 343:.\USBFS_HID_interface.c ****     CyPins_SetPinDriveMode(Pin_I2C_SCL_0, Pin_I2C_SCL_DM_OD_LO);
 532              		.loc 1 343 0
 533 0028 45F26003 		movw	r3, #:lower16:1073762400
 534 002c C4F20003 		movt	r3, #:upper16:1073762400
 535 0030 45F26002 		movw	r2, #:lower16:1073762400
 536 0034 C4F20002 		movt	r2, #:upper16:1073762400
 537 0038 1278     		ldrb	r2, [r2, #0]
 538 003a D2B2     		uxtb	r2, r2
 539 003c D2B2     		uxtb	r2, r2
 540 003e 02F0F102 		and	r2, r2, #241
 541 0042 42F00802 		orr	r2, r2, #8
 542 0046 D2B2     		uxtb	r2, r2
 543 0048 D2B2     		uxtb	r2, r2
 544 004a 1A70     		strb	r2, [r3, #0]
 344:.\USBFS_HID_interface.c **** }
 545              		.loc 1 344 0
 546 004c BD46     		mov	sp, r7
 547 004e 80BC     		pop	{r7}
 548 0050 7047     		bx	lr
 549              		.cfi_endproc
 550              	.LFE32:
 551              		.size	I2CPinPullUpDriveLow, .-I2CPinPullUpDriveLow
 552 0052 00BF     		.section	.text.I2CPinTriState,"ax",%progbits
 553              		.align	2
 554              		.thumb
 555              		.thumb_func
 556              		.type	I2CPinTriState, %function
 557              	I2CPinTriState:
 558              	.LFB33:
 345:.\USBFS_HID_interface.c **** 
 346:.\USBFS_HID_interface.c **** /*******************************************************************************
 347:.\USBFS_HID_interface.c **** * Function Name: I2CPinTriState()
 348:.\USBFS_HID_interface.c **** ********************************************************************************
 349:.\USBFS_HID_interface.c **** * Summary:
 350:.\USBFS_HID_interface.c **** *  Tri state the I2C pin set.
ARM GAS  C:\DOCUME~1\ADMINI~1\LOCALS~1\Temp\ccOjxVk4.s 			page 17


 351:.\USBFS_HID_interface.c **** *
 352:.\USBFS_HID_interface.c **** * Parameters:
 353:.\USBFS_HID_interface.c **** *  void
 354:.\USBFS_HID_interface.c **** *
 355:.\USBFS_HID_interface.c **** * Return:
 356:.\USBFS_HID_interface.c **** *  void
 357:.\USBFS_HID_interface.c **** *
 358:.\USBFS_HID_interface.c **** *******************************************************************************/
 359:.\USBFS_HID_interface.c **** void I2CPinTriState(void)
 360:.\USBFS_HID_interface.c **** {
 559              		.loc 1 360 0
 560              		.cfi_startproc
 561              		@ args = 0, pretend = 0, frame = 0
 562              		@ frame_needed = 1, uses_anonymous_args = 0
 563              		@ link register save eliminated.
 564 0000 80B4     		push	{r7}
 565              	.LCFI10:
 566              		.cfi_def_cfa_offset 4
 567 0002 00AF     		add	r7, sp, #0
 568              		.cfi_offset 7, -4
 569              	.LCFI11:
 570              		.cfi_def_cfa_register 7
 361:.\USBFS_HID_interface.c ****     CyPins_SetPinDriveMode(Pin_I2C_SDA_0, Pin_I2C_SDA_DM_DIG_HIZ);
 571              		.loc 1 361 0
 572 0004 45F26103 		movw	r3, #:lower16:1073762401
 573 0008 C4F20003 		movt	r3, #:upper16:1073762401
 574 000c 45F26102 		movw	r2, #:lower16:1073762401
 575 0010 C4F20002 		movt	r2, #:upper16:1073762401
 576 0014 1278     		ldrb	r2, [r2, #0]
 577 0016 D2B2     		uxtb	r2, r2
 578 0018 D2B2     		uxtb	r2, r2
 579 001a 02F0F102 		and	r2, r2, #241
 580 001e 42F00202 		orr	r2, r2, #2
 581 0022 D2B2     		uxtb	r2, r2
 582 0024 D2B2     		uxtb	r2, r2
 583 0026 1A70     		strb	r2, [r3, #0]
 362:.\USBFS_HID_interface.c ****     CyPins_SetPinDriveMode(Pin_I2C_SCL_0, Pin_I2C_SCL_DM_DIG_HIZ);
 584              		.loc 1 362 0
 585 0028 45F26003 		movw	r3, #:lower16:1073762400
 586 002c C4F20003 		movt	r3, #:upper16:1073762400
 587 0030 45F26002 		movw	r2, #:lower16:1073762400
 588 0034 C4F20002 		movt	r2, #:upper16:1073762400
 589 0038 1278     		ldrb	r2, [r2, #0]
 590 003a D2B2     		uxtb	r2, r2
 591 003c D2B2     		uxtb	r2, r2
 592 003e 02F0F102 		and	r2, r2, #241
 593 0042 42F00202 		orr	r2, r2, #2
 594 0046 D2B2     		uxtb	r2, r2
 595 0048 D2B2     		uxtb	r2, r2
 596 004a 1A70     		strb	r2, [r3, #0]
 363:.\USBFS_HID_interface.c **** }
 597              		.loc 1 363 0
 598 004c BD46     		mov	sp, r7
 599 004e 80BC     		pop	{r7}
 600 0050 7047     		bx	lr
 601              		.cfi_endproc
 602              	.LFE33:
ARM GAS  C:\DOCUME~1\ADMINI~1\LOCALS~1\Temp\ccOjxVk4.s 			page 18


 603              		.size	I2CPinTriState, .-I2CPinTriState
 604 0052 00BF     		.section	.text.I2CPullUpEnable,"ax",%progbits
 605              		.align	2
 606              		.global	I2CPullUpEnable
 607              		.thumb
 608              		.thumb_func
 609              		.type	I2CPullUpEnable, %function
 610              	I2CPullUpEnable:
 611              	.LFB34:
 364:.\USBFS_HID_interface.c **** /*******************************************************************************
 365:.\USBFS_HID_interface.c **** * Function Name: I2CPullUpEnable()
 366:.\USBFS_HID_interface.c **** ********************************************************************************
 367:.\USBFS_HID_interface.c **** * Summary:
 368:.\USBFS_HID_interface.c **** *  Sets the drive mode of the Pull Up enable pin and sets the pn.
 369:.\USBFS_HID_interface.c **** *
 370:.\USBFS_HID_interface.c **** * Parameters:
 371:.\USBFS_HID_interface.c **** *  void
 372:.\USBFS_HID_interface.c **** *
 373:.\USBFS_HID_interface.c **** * Return:
 374:.\USBFS_HID_interface.c **** *  void
 375:.\USBFS_HID_interface.c **** *
 376:.\USBFS_HID_interface.c **** *******************************************************************************/
 377:.\USBFS_HID_interface.c **** void I2CPullUpEnable(void)
 378:.\USBFS_HID_interface.c **** {
 612              		.loc 1 378 0
 613              		.cfi_startproc
 614              		@ args = 0, pretend = 0, frame = 0
 615              		@ frame_needed = 1, uses_anonymous_args = 0
 616 0000 80B5     		push	{r7, lr}
 617              	.LCFI12:
 618              		.cfi_def_cfa_offset 8
 619 0002 00AF     		add	r7, sp, #0
 620              		.cfi_offset 14, -4
 621              		.cfi_offset 7, -8
 622              	.LCFI13:
 623              		.cfi_def_cfa_register 7
 379:.\USBFS_HID_interface.c **** 	Pin_SDAPullUp_Enable_Write(1);
 624              		.loc 1 379 0
 625 0004 4FF00100 		mov	r0, #1
 626 0008 FFF7FEFF 		bl	Pin_SDAPullUp_Enable_Write
 380:.\USBFS_HID_interface.c **** 	Pin_SCLPullUp_Enable_Write(1);
 627              		.loc 1 380 0
 628 000c 4FF00100 		mov	r0, #1
 629 0010 FFF7FEFF 		bl	Pin_SCLPullUp_Enable_Write
 381:.\USBFS_HID_interface.c **** 	CyPins_SetPinDriveMode(Pin_SDAPullUp_Enable_0, Pin_SDAPullUp_Enable_DM_STRONG);
 630              		.loc 1 381 0
 631 0014 45F26203 		movw	r3, #:lower16:1073762402
 632 0018 C4F20003 		movt	r3, #:upper16:1073762402
 633 001c 45F26202 		movw	r2, #:lower16:1073762402
 634 0020 C4F20002 		movt	r2, #:upper16:1073762402
 635 0024 1278     		ldrb	r2, [r2, #0]
 636 0026 D2B2     		uxtb	r2, r2
 637 0028 D2B2     		uxtb	r2, r2
 638 002a 02F0F102 		and	r2, r2, #241
 639 002e 42F00C02 		orr	r2, r2, #12
 640 0032 D2B2     		uxtb	r2, r2
 641 0034 D2B2     		uxtb	r2, r2
ARM GAS  C:\DOCUME~1\ADMINI~1\LOCALS~1\Temp\ccOjxVk4.s 			page 19


 642 0036 1A70     		strb	r2, [r3, #0]
 382:.\USBFS_HID_interface.c **** 	CyPins_SetPinDriveMode(Pin_SCLPullUp_Enable_0, Pin_SCLPullUp_Enable_DM_STRONG);
 643              		.loc 1 382 0
 644 0038 45F26303 		movw	r3, #:lower16:1073762403
 645 003c C4F20003 		movt	r3, #:upper16:1073762403
 646 0040 45F26302 		movw	r2, #:lower16:1073762403
 647 0044 C4F20002 		movt	r2, #:upper16:1073762403
 648 0048 1278     		ldrb	r2, [r2, #0]
 649 004a D2B2     		uxtb	r2, r2
 650 004c D2B2     		uxtb	r2, r2
 651 004e 02F0F102 		and	r2, r2, #241
 652 0052 42F00C02 		orr	r2, r2, #12
 653 0056 D2B2     		uxtb	r2, r2
 654 0058 D2B2     		uxtb	r2, r2
 655 005a 1A70     		strb	r2, [r3, #0]
 383:.\USBFS_HID_interface.c **** }
 656              		.loc 1 383 0
 657 005c 80BD     		pop	{r7, pc}
 658              		.cfi_endproc
 659              	.LFE34:
 660              		.size	I2CPullUpEnable, .-I2CPullUpEnable
 661 005e 00BF     		.section	.text.I2CPullUpDisable,"ax",%progbits
 662              		.align	2
 663              		.global	I2CPullUpDisable
 664              		.thumb
 665              		.thumb_func
 666              		.type	I2CPullUpDisable, %function
 667              	I2CPullUpDisable:
 668              	.LFB35:
 384:.\USBFS_HID_interface.c **** /*******************************************************************************
 385:.\USBFS_HID_interface.c **** * Function Name: I2CPullUpDisable()
 386:.\USBFS_HID_interface.c **** ********************************************************************************
 387:.\USBFS_HID_interface.c **** * Summary:
 388:.\USBFS_HID_interface.c **** *  Sets the drive mode of the Pull Up enable pin and sets the pn.
 389:.\USBFS_HID_interface.c **** *
 390:.\USBFS_HID_interface.c **** * Parameters:
 391:.\USBFS_HID_interface.c **** *  void
 392:.\USBFS_HID_interface.c **** *
 393:.\USBFS_HID_interface.c **** * Return:
 394:.\USBFS_HID_interface.c **** *  void
 395:.\USBFS_HID_interface.c **** *
 396:.\USBFS_HID_interface.c **** *******************************************************************************/
 397:.\USBFS_HID_interface.c **** void I2CPullUpDisable(void)
 398:.\USBFS_HID_interface.c **** {
 669              		.loc 1 398 0
 670              		.cfi_startproc
 671              		@ args = 0, pretend = 0, frame = 0
 672              		@ frame_needed = 1, uses_anonymous_args = 0
 673              		@ link register save eliminated.
 674 0000 80B4     		push	{r7}
 675              	.LCFI14:
 676              		.cfi_def_cfa_offset 4
 677 0002 00AF     		add	r7, sp, #0
 678              		.cfi_offset 7, -4
 679              	.LCFI15:
 680              		.cfi_def_cfa_register 7
 399:.\USBFS_HID_interface.c **** 	CyPins_SetPinDriveMode(Pin_SCLPullUp_Enable_0, Pin_SCLPullUp_Enable_DM_DIG_HIZ);
ARM GAS  C:\DOCUME~1\ADMINI~1\LOCALS~1\Temp\ccOjxVk4.s 			page 20


 681              		.loc 1 399 0
 682 0004 45F26303 		movw	r3, #:lower16:1073762403
 683 0008 C4F20003 		movt	r3, #:upper16:1073762403
 684 000c 45F26302 		movw	r2, #:lower16:1073762403
 685 0010 C4F20002 		movt	r2, #:upper16:1073762403
 686 0014 1278     		ldrb	r2, [r2, #0]
 687 0016 D2B2     		uxtb	r2, r2
 688 0018 D2B2     		uxtb	r2, r2
 689 001a 02F0F102 		and	r2, r2, #241
 690 001e 42F00202 		orr	r2, r2, #2
 691 0022 D2B2     		uxtb	r2, r2
 692 0024 D2B2     		uxtb	r2, r2
 693 0026 1A70     		strb	r2, [r3, #0]
 400:.\USBFS_HID_interface.c **** 	CyPins_SetPinDriveMode(Pin_SDAPullUp_Enable_0, Pin_SDAPullUp_Enable_DM_DIG_HIZ);
 694              		.loc 1 400 0
 695 0028 45F26203 		movw	r3, #:lower16:1073762402
 696 002c C4F20003 		movt	r3, #:upper16:1073762402
 697 0030 45F26202 		movw	r2, #:lower16:1073762402
 698 0034 C4F20002 		movt	r2, #:upper16:1073762402
 699 0038 1278     		ldrb	r2, [r2, #0]
 700 003a D2B2     		uxtb	r2, r2
 701 003c D2B2     		uxtb	r2, r2
 702 003e 02F0F102 		and	r2, r2, #241
 703 0042 42F00202 		orr	r2, r2, #2
 704 0046 D2B2     		uxtb	r2, r2
 705 0048 D2B2     		uxtb	r2, r2
 706 004a 1A70     		strb	r2, [r3, #0]
 401:.\USBFS_HID_interface.c **** }
 707              		.loc 1 401 0
 708 004c BD46     		mov	sp, r7
 709 004e 80BC     		pop	{r7}
 710 0050 7047     		bx	lr
 711              		.cfi_endproc
 712              	.LFE35:
 713              		.size	I2CPullUpDisable, .-I2CPullUpDisable
 714 0052 00BF     		.section	.text.I2C_DSIBypassDisable,"ax",%progbits
 715              		.align	2
 716              		.global	I2C_DSIBypassDisable
 717              		.thumb
 718              		.thumb_func
 719              		.type	I2C_DSIBypassDisable, %function
 720              	I2C_DSIBypassDisable:
 721              	.LFB36:
 402:.\USBFS_HID_interface.c **** /*******************************************************************************
 403:.\USBFS_HID_interface.c **** * Function Name: I2C_DSIBypassDisable()
 404:.\USBFS_HID_interface.c **** ********************************************************************************
 405:.\USBFS_HID_interface.c **** * Summary:
 406:.\USBFS_HID_interface.c **** *  Disable DSI bypass and let the Port logic data register drives the 
 407:.\USBFS_HID_interface.c **** *  corresponding port pin
 408:.\USBFS_HID_interface.c **** *
 409:.\USBFS_HID_interface.c **** * Parameters:.
 410:.\USBFS_HID_interface.c **** *  void
 411:.\USBFS_HID_interface.c **** *
 412:.\USBFS_HID_interface.c **** * Return:
 413:.\USBFS_HID_interface.c **** *  void
 414:.\USBFS_HID_interface.c **** *
 415:.\USBFS_HID_interface.c **** *******************************************************************************/
ARM GAS  C:\DOCUME~1\ADMINI~1\LOCALS~1\Temp\ccOjxVk4.s 			page 21


 416:.\USBFS_HID_interface.c **** void I2C_DSIBypassDisable(void)
 417:.\USBFS_HID_interface.c **** {
 722              		.loc 1 417 0
 723              		.cfi_startproc
 724              		@ args = 0, pretend = 0, frame = 0
 725              		@ frame_needed = 1, uses_anonymous_args = 0
 726              		@ link register save eliminated.
 727 0000 80B4     		push	{r7}
 728              	.LCFI16:
 729              		.cfi_def_cfa_offset 4
 730 0002 00AF     		add	r7, sp, #0
 731              		.cfi_offset 7, -4
 732              	.LCFI17:
 733              		.cfi_def_cfa_register 7
 418:.\USBFS_HID_interface.c ****     /* Let the Port logic data register drives the corresponding port pin. */
 419:.\USBFS_HID_interface.c ****     Pin_I2C_SDA_BYP = Pin_I2C_SDA_BYP & ~ (Pin_I2C_SDA_MASK | Pin_I2C_SCL_MASK);     
 734              		.loc 1 419 0
 735 0004 45F2C613 		movw	r3, #:lower16:1073762758
 736 0008 C4F20003 		movt	r3, #:upper16:1073762758
 737 000c 45F2C612 		movw	r2, #:lower16:1073762758
 738 0010 C4F20002 		movt	r2, #:upper16:1073762758
 739 0014 1278     		ldrb	r2, [r2, #0]
 740 0016 D2B2     		uxtb	r2, r2
 741 0018 02F0FC02 		and	r2, r2, #252
 742 001c 1A70     		strb	r2, [r3, #0]
 420:.\USBFS_HID_interface.c **** }
 743              		.loc 1 420 0
 744 001e BD46     		mov	sp, r7
 745 0020 80BC     		pop	{r7}
 746 0022 7047     		bx	lr
 747              		.cfi_endproc
 748              	.LFE36:
 749              		.size	I2C_DSIBypassDisable, .-I2C_DSIBypassDisable
 750              		.section	.text.I2C_DSIBypassEnable,"ax",%progbits
 751              		.align	2
 752              		.global	I2C_DSIBypassEnable
 753              		.thumb
 754              		.thumb_func
 755              		.type	I2C_DSIBypassEnable, %function
 756              	I2C_DSIBypassEnable:
 757              	.LFB37:
 421:.\USBFS_HID_interface.c **** 
 422:.\USBFS_HID_interface.c **** /*******************************************************************************
 423:.\USBFS_HID_interface.c **** * Function Name: I2C_DSIBypassEnable()
 424:.\USBFS_HID_interface.c **** ********************************************************************************
 425:.\USBFS_HID_interface.c **** * Summary:
 426:.\USBFS_HID_interface.c **** *  Enable DSI bypass and  Let digital system interconnect (DSI) drive the  
 427:.\USBFS_HID_interface.c **** *  corresponding port pin
 428:.\USBFS_HID_interface.c **** *
 429:.\USBFS_HID_interface.c **** * Parameters:.
 430:.\USBFS_HID_interface.c **** *  void
 431:.\USBFS_HID_interface.c **** *
 432:.\USBFS_HID_interface.c **** * Return:
 433:.\USBFS_HID_interface.c **** *  void
 434:.\USBFS_HID_interface.c **** *
 435:.\USBFS_HID_interface.c **** *******************************************************************************/
 436:.\USBFS_HID_interface.c **** void I2C_DSIBypassEnable(void)
ARM GAS  C:\DOCUME~1\ADMINI~1\LOCALS~1\Temp\ccOjxVk4.s 			page 22


 437:.\USBFS_HID_interface.c **** {
 758              		.loc 1 437 0
 759              		.cfi_startproc
 760              		@ args = 0, pretend = 0, frame = 0
 761              		@ frame_needed = 1, uses_anonymous_args = 0
 762              		@ link register save eliminated.
 763 0000 80B4     		push	{r7}
 764              	.LCFI18:
 765              		.cfi_def_cfa_offset 4
 766 0002 00AF     		add	r7, sp, #0
 767              		.cfi_offset 7, -4
 768              	.LCFI19:
 769              		.cfi_def_cfa_register 7
 438:.\USBFS_HID_interface.c ****     /* Let digital system interconnect (DSI) drive the corresponding port pin. */
 439:.\USBFS_HID_interface.c ****     Pin_I2C_SDA_BYP = Pin_I2C_SDA_BYP | (Pin_I2C_SDA_MASK | Pin_I2C_SCL_MASK);
 770              		.loc 1 439 0
 771 0004 45F2C613 		movw	r3, #:lower16:1073762758
 772 0008 C4F20003 		movt	r3, #:upper16:1073762758
 773 000c 45F2C612 		movw	r2, #:lower16:1073762758
 774 0010 C4F20002 		movt	r2, #:upper16:1073762758
 775 0014 1278     		ldrb	r2, [r2, #0]
 776 0016 D2B2     		uxtb	r2, r2
 777 0018 42F00302 		orr	r2, r2, #3
 778 001c D2B2     		uxtb	r2, r2
 779 001e 1A70     		strb	r2, [r3, #0]
 440:.\USBFS_HID_interface.c **** }
 780              		.loc 1 440 0
 781 0020 BD46     		mov	sp, r7
 782 0022 80BC     		pop	{r7}
 783 0024 7047     		bx	lr
 784              		.cfi_endproc
 785              	.LFE37:
 786              		.size	I2C_DSIBypassEnable, .-I2C_DSIBypassEnable
 787 0026 00BF     		.section	.text.HostCommStop,"ax",%progbits
 788              		.align	2
 789              		.global	HostCommStop
 790              		.thumb
 791              		.thumb_func
 792              		.type	HostCommStop, %function
 793              	HostCommStop:
 794              	.LFB38:
 441:.\USBFS_HID_interface.c **** /*******************************************************************************
 442:.\USBFS_HID_interface.c **** * Function Name: HostCommStop()
 443:.\USBFS_HID_interface.c **** ********************************************************************************
 444:.\USBFS_HID_interface.c **** * Summary:
 445:.\USBFS_HID_interface.c **** *  Stop USB-I2C Host function. 
 446:.\USBFS_HID_interface.c **** *
 447:.\USBFS_HID_interface.c **** * Parameters:
 448:.\USBFS_HID_interface.c **** *  void
 449:.\USBFS_HID_interface.c **** *
 450:.\USBFS_HID_interface.c **** * Return:
 451:.\USBFS_HID_interface.c **** *  void
 452:.\USBFS_HID_interface.c **** *
 453:.\USBFS_HID_interface.c **** *******************************************************************************/
 454:.\USBFS_HID_interface.c **** void HostCommStop(void)
 455:.\USBFS_HID_interface.c **** {    
 795              		.loc 1 455 0
ARM GAS  C:\DOCUME~1\ADMINI~1\LOCALS~1\Temp\ccOjxVk4.s 			page 23


 796              		.cfi_startproc
 797              		@ args = 0, pretend = 0, frame = 0
 798              		@ frame_needed = 1, uses_anonymous_args = 0
 799 0000 80B5     		push	{r7, lr}
 800              	.LCFI20:
 801              		.cfi_def_cfa_offset 8
 802 0002 00AF     		add	r7, sp, #0
 803              		.cfi_offset 14, -4
 804              		.cfi_offset 7, -8
 805              	.LCFI21:
 806              		.cfi_def_cfa_register 7
 456:.\USBFS_HID_interface.c ****     I2CHW_Stop();
 807              		.loc 1 456 0
 808 0004 FFF7FEFF 		bl	I2CHW_Stop
 457:.\USBFS_HID_interface.c **** 	I2CPinTriState();
 809              		.loc 1 457 0
 810 0008 FFF7FEFF 		bl	I2CPinTriState
 458:.\USBFS_HID_interface.c **** }
 811              		.loc 1 458 0
 812 000c 80BD     		pop	{r7, pc}
 813              		.cfi_endproc
 814              	.LFE38:
 815              		.size	HostCommStop, .-HostCommStop
 816 000e 00BF     		.section	.text.HostCommInit,"ax",%progbits
 817              		.align	2
 818              		.global	HostCommInit
 819              		.thumb
 820              		.thumb_func
 821              		.type	HostCommInit, %function
 822              	HostCommInit:
 823              	.LFB39:
 459:.\USBFS_HID_interface.c **** /*******************************************************************************
 460:.\USBFS_HID_interface.c **** * Function Name: HostCommInit()
 461:.\USBFS_HID_interface.c **** ********************************************************************************
 462:.\USBFS_HID_interface.c **** * Summary:
 463:.\USBFS_HID_interface.c **** *  Initialize Host parameters. 
 464:.\USBFS_HID_interface.c **** *
 465:.\USBFS_HID_interface.c **** * Parameters:
 466:.\USBFS_HID_interface.c **** *  void
 467:.\USBFS_HID_interface.c **** *
 468:.\USBFS_HID_interface.c **** * Return:
 469:.\USBFS_HID_interface.c **** *  void
 470:.\USBFS_HID_interface.c **** *
 471:.\USBFS_HID_interface.c **** *******************************************************************************/
 472:.\USBFS_HID_interface.c **** void HostCommInit(void)
 473:.\USBFS_HID_interface.c **** {
 824              		.loc 1 473 0
 825              		.cfi_startproc
 826              		@ args = 0, pretend = 0, frame = 0
 827              		@ frame_needed = 1, uses_anonymous_args = 0
 828 0000 80B5     		push	{r7, lr}
 829              	.LCFI22:
 830              		.cfi_def_cfa_offset 8
 831 0002 00AF     		add	r7, sp, #0
 832              		.cfi_offset 14, -4
 833              		.cfi_offset 7, -8
 834              	.LCFI23:
ARM GAS  C:\DOCUME~1\ADMINI~1\LOCALS~1\Temp\ccOjxVk4.s 			page 24


 835              		.cfi_def_cfa_register 7
 474:.\USBFS_HID_interface.c ****     /* Stop the USB-I2C bridge interface */    
 475:.\USBFS_HID_interface.c ****     HostCommStop();
 836              		.loc 1 475 0
 837 0004 FFF7FEFF 		bl	HostCommStop
 476:.\USBFS_HID_interface.c **** 	
 477:.\USBFS_HID_interface.c **** 	/* Set the default interface to be I2C*/
 478:.\USBFS_HID_interface.c ****     bHostInterface = INTERFACE_I2C;
 838              		.loc 1 478 0
 839 0008 40F20003 		movw	r3, #:lower16:bHostInterface
 840 000c C0F20003 		movt	r3, #:upper16:bHostInterface
 841 0010 4FF00002 		mov	r2, #0
 842 0014 1A70     		strb	r2, [r3, #0]
 479:.\USBFS_HID_interface.c **** 	
 480:.\USBFS_HID_interface.c **** 	/* Start the clock for I2C */
 481:.\USBFS_HID_interface.c ****     Clock_I2C_Start();
 843              		.loc 1 481 0
 844 0016 FFF7FEFF 		bl	Clock_I2C_Start
 482:.\USBFS_HID_interface.c **** 	
 483:.\USBFS_HID_interface.c **** 	/* Start the clock for UART */
 484:.\USBFS_HID_interface.c **** 	Clock_UART_Start();
 845              		.loc 1 484 0
 846 001a FFF7FEFF 		bl	Clock_UART_Start
 485:.\USBFS_HID_interface.c **** }
 847              		.loc 1 485 0
 848 001e 80BD     		pop	{r7, pc}
 849              		.cfi_endproc
 850              	.LFE39:
 851              		.size	HostCommInit, .-HostCommInit
 852              		.section	.text.HostComm,"ax",%progbits
 853              		.align	2
 854              		.global	HostComm
 855              		.thumb
 856              		.thumb_func
 857              		.type	HostComm, %function
 858              	HostComm:
 859              	.LFB40:
 486:.\USBFS_HID_interface.c **** /*******************************************************************************
 487:.\USBFS_HID_interface.c **** * Function Name: HostComm()
 488:.\USBFS_HID_interface.c **** ********************************************************************************
 489:.\USBFS_HID_interface.c **** * Summary:
 490:.\USBFS_HID_interface.c **** *  Handles the communication between the PC and the PSoC 5LP via the HID interface.
 491:.\USBFS_HID_interface.c **** *  Handles the USB-I2C Bridge functionality.
 492:.\USBFS_HID_interface.c **** *
 493:.\USBFS_HID_interface.c **** * Parameters:
 494:.\USBFS_HID_interface.c **** *  void
 495:.\USBFS_HID_interface.c **** *
 496:.\USBFS_HID_interface.c **** * Return:
 497:.\USBFS_HID_interface.c **** *  void
 498:.\USBFS_HID_interface.c **** *
 499:.\USBFS_HID_interface.c **** *******************************************************************************/
 500:.\USBFS_HID_interface.c **** void HostComm(void)
 501:.\USBFS_HID_interface.c **** {
 860              		.loc 1 501 0
 861              		.cfi_startproc
 862              		@ args = 0, pretend = 0, frame = 8
 863              		@ frame_needed = 1, uses_anonymous_args = 0
ARM GAS  C:\DOCUME~1\ADMINI~1\LOCALS~1\Temp\ccOjxVk4.s 			page 25


 864 0000 80B5     		push	{r7, lr}
 865              	.LCFI24:
 866              		.cfi_def_cfa_offset 8
 867 0002 82B0     		sub	sp, sp, #8
 868              	.LCFI25:
 869              		.cfi_def_cfa_offset 16
 870 0004 00AF     		add	r7, sp, #0
 871              		.cfi_offset 14, -4
 872              		.cfi_offset 7, -8
 873              	.LCFI26:
 874              		.cfi_def_cfa_register 7
 502:.\USBFS_HID_interface.c ****     uint8 bControl;
 503:.\USBFS_HID_interface.c ****     uint8 bLength;
 504:.\USBFS_HID_interface.c ****     uint16 wCount;
 505:.\USBFS_HID_interface.c ****     uint8 bCount;
 506:.\USBFS_HID_interface.c **** 
 507:.\USBFS_HID_interface.c ****     /* Check for data from the USB host */
 508:.\USBFS_HID_interface.c ****     if(USBFS_bGetEPAckState(HOST_OUT_EP))
 875              		.loc 1 508 0
 876 0006 4FF00400 		mov	r0, #4
 877 000a FFF7FEFF 		bl	USBFS_GetEPAckState
 878 000e 0346     		mov	r3, r0
 879 0010 002B     		cmp	r3, #0
 880 0012 00F09D82 		beq	.L79
 509:.\USBFS_HID_interface.c ****     {
 510:.\USBFS_HID_interface.c ****         /* A new USB packet has been received.  Retrieve it. */                    	
 511:.\USBFS_HID_interface.c ****         wCount = USBFS_wGetEPCount(HOST_OUT_EP);
 881              		.loc 1 511 0
 882 0016 4FF00400 		mov	r0, #4
 883 001a FFF7FEFF 		bl	USBFS_GetEPCount
 884 001e 0346     		mov	r3, r0
 885 0020 BB80     		strh	r3, [r7, #4]	@ movhi
 512:.\USBFS_HID_interface.c ****         bCount = USBFS_ReadOutEP(HOST_OUT_EP, bOutEndpointData, (wCount & 0x00FF));
 886              		.loc 1 512 0
 887 0022 BB88     		ldrh	r3, [r7, #4]
 888 0024 03F0FF03 		and	r3, r3, #255
 889 0028 4FF00400 		mov	r0, #4
 890 002c 40F20001 		movw	r1, #:lower16:bOutEndpointData
 891 0030 C0F20001 		movt	r1, #:upper16:bOutEndpointData
 892 0034 1A46     		mov	r2, r3
 893 0036 FFF7FEFF 		bl	USBFS_ReadOutEP
 894 003a 0346     		mov	r3, r0
 895 003c FB71     		strb	r3, [r7, #7]
 513:.\USBFS_HID_interface.c **** 
 514:.\USBFS_HID_interface.c ****         /* Initialize variables */
 515:.\USBFS_HID_interface.c ****         bOutPacketIndex = 0;
 896              		.loc 1 515 0
 897 003e 40F20003 		movw	r3, #:lower16:bOutPacketIndex
 898 0042 C0F20003 		movt	r3, #:upper16:bOutPacketIndex
 899 0046 4FF00002 		mov	r2, #0
 900 004a 1A70     		strb	r2, [r3, #0]
 516:.\USBFS_HID_interface.c ****         bInPacketIndex  = 0;
 901              		.loc 1 516 0
 902 004c 40F20003 		movw	r3, #:lower16:bInPacketIndex
 903 0050 C0F20003 		movt	r3, #:upper16:bInPacketIndex
 904 0054 4FF00002 		mov	r2, #0
 905 0058 1A70     		strb	r2, [r3, #0]
ARM GAS  C:\DOCUME~1\ADMINI~1\LOCALS~1\Temp\ccOjxVk4.s 			page 26


 517:.\USBFS_HID_interface.c ****         
 518:.\USBFS_HID_interface.c **** 		/* Retrieve the first two bytes of data received. 
 519:.\USBFS_HID_interface.c **** 		 * These bytes are the control and length bytes respectively. */
 520:.\USBFS_HID_interface.c ****         bControl = bOutEndpointData[bOutPacketIndex];
 906              		.loc 1 520 0
 907 005a 40F20003 		movw	r3, #:lower16:bOutPacketIndex
 908 005e C0F20003 		movt	r3, #:upper16:bOutPacketIndex
 909 0062 1B78     		ldrb	r3, [r3, #0]	@ zero_extendqisi2
 910 0064 1A46     		mov	r2, r3
 911 0066 40F20003 		movw	r3, #:lower16:bOutEndpointData
 912 006a C0F20003 		movt	r3, #:upper16:bOutEndpointData
 913 006e 9B5C     		ldrb	r3, [r3, r2]
 914 0070 BB70     		strb	r3, [r7, #2]
 521:.\USBFS_HID_interface.c ****         bOutPacketIndex++;
 915              		.loc 1 521 0
 916 0072 40F20003 		movw	r3, #:lower16:bOutPacketIndex
 917 0076 C0F20003 		movt	r3, #:upper16:bOutPacketIndex
 918 007a 1B78     		ldrb	r3, [r3, #0]	@ zero_extendqisi2
 919 007c 03F10103 		add	r3, r3, #1
 920 0080 DAB2     		uxtb	r2, r3
 921 0082 40F20003 		movw	r3, #:lower16:bOutPacketIndex
 922 0086 C0F20003 		movt	r3, #:upper16:bOutPacketIndex
 923 008a 1A70     		strb	r2, [r3, #0]
 522:.\USBFS_HID_interface.c **** 		
 523:.\USBFS_HID_interface.c **** 		/* bLength less than or equal to 61. bLength is the length of data bytes
 524:.\USBFS_HID_interface.c **** 		 * that will follow.(1 Control byte) + (1 length byte) + (1 command byte) +
 525:.\USBFS_HID_interface.c **** 		 * (61 data bytes) = 64 (Max. transfer size) */
 526:.\USBFS_HID_interface.c ****         bLength = bOutEndpointData[bOutPacketIndex] & 0x3F;
 924              		.loc 1 526 0
 925 008c 40F20003 		movw	r3, #:lower16:bOutPacketIndex
 926 0090 C0F20003 		movt	r3, #:upper16:bOutPacketIndex
 927 0094 1B78     		ldrb	r3, [r3, #0]	@ zero_extendqisi2
 928 0096 1A46     		mov	r2, r3
 929 0098 40F20003 		movw	r3, #:lower16:bOutEndpointData
 930 009c C0F20003 		movt	r3, #:upper16:bOutEndpointData
 931 00a0 9B5C     		ldrb	r3, [r3, r2]	@ zero_extendqisi2
 932 00a2 03F03F03 		and	r3, r3, #63
 933 00a6 FB70     		strb	r3, [r7, #3]
 527:.\USBFS_HID_interface.c ****         bOutPacketIndex++;
 934              		.loc 1 527 0
 935 00a8 40F20003 		movw	r3, #:lower16:bOutPacketIndex
 936 00ac C0F20003 		movt	r3, #:upper16:bOutPacketIndex
 937 00b0 1B78     		ldrb	r3, [r3, #0]	@ zero_extendqisi2
 938 00b2 03F10103 		add	r3, r3, #1
 939 00b6 DAB2     		uxtb	r2, r3
 940 00b8 40F20003 		movw	r3, #:lower16:bOutPacketIndex
 941 00bc C0F20003 		movt	r3, #:upper16:bOutPacketIndex
 942 00c0 1A70     		strb	r2, [r3, #0]
 528:.\USBFS_HID_interface.c ****         
 529:.\USBFS_HID_interface.c ****         bInEndpointData[bInPacketIndex] = 0;
 943              		.loc 1 529 0
 944 00c2 40F20003 		movw	r3, #:lower16:bInPacketIndex
 945 00c6 C0F20003 		movt	r3, #:upper16:bInPacketIndex
 946 00ca 1B78     		ldrb	r3, [r3, #0]	@ zero_extendqisi2
 947 00cc 1A46     		mov	r2, r3
 948 00ce 40F20003 		movw	r3, #:lower16:bInEndpointData
 949 00d2 C0F20003 		movt	r3, #:upper16:bInEndpointData
ARM GAS  C:\DOCUME~1\ADMINI~1\LOCALS~1\Temp\ccOjxVk4.s 			page 27


 950 00d6 4FF00001 		mov	r1, #0
 951 00da 9954     		strb	r1, [r3, r2]
 530:.\USBFS_HID_interface.c **** 
 531:.\USBFS_HID_interface.c ****         /* Retrieve the command byte if a proper start is detected. */
 532:.\USBFS_HID_interface.c ****         if (bControl & CONTROL_CONFIGURE)
 952              		.loc 1 532 0
 953 00dc BB78     		ldrb	r3, [r7, #2]	@ zero_extendqisi2
 954 00de 03F02003 		and	r3, r3, #32
 955 00e2 002B     		cmp	r3, #0
 956 00e4 56D0     		beq	.L58
 533:.\USBFS_HID_interface.c ****         {
 534:.\USBFS_HID_interface.c ****             /* Configure command gets highest priority. */    
 535:.\USBFS_HID_interface.c ****             I2CHW_Stop();
 957              		.loc 1 535 0
 958 00e6 FFF7FEFF 		bl	I2CHW_Stop
 536:.\USBFS_HID_interface.c **** 
 537:.\USBFS_HID_interface.c ****             /* 00 - 100KHz; 01 - 400KHz; 10 - 50KHz; 11 - 1000KHz */
 538:.\USBFS_HID_interface.c ****             if((bControl & CONFIG_I2C_SPEED_MSK)== I2C_SPEED_1000)
 959              		.loc 1 538 0
 960 00ea BB78     		ldrb	r3, [r7, #2]	@ zero_extendqisi2
 961 00ec 03F00C03 		and	r3, r3, #12
 962 00f0 0C2B     		cmp	r3, #12
 963 00f2 0DD1     		bne	.L59
 539:.\USBFS_HID_interface.c ****             {
 540:.\USBFS_HID_interface.c ****                 /* Source is 64 MHz, required clock is (1000K * 16 = 16MHz), so divider is 4 */
 541:.\USBFS_HID_interface.c ****                 Clock_I2C_SetDivider(4 - 1);
 964              		.loc 1 541 0
 965 00f4 4FF00300 		mov	r0, #3
 966 00f8 4FF00101 		mov	r1, #1
 967 00fc FFF7FEFF 		bl	Clock_I2C_SetDividerRegister
 542:.\USBFS_HID_interface.c **** 				i2cSpeed = I2C_SPEED_1000;
 968              		.loc 1 542 0
 969 0100 40F20003 		movw	r3, #:lower16:i2cSpeed
 970 0104 C0F20003 		movt	r3, #:upper16:i2cSpeed
 971 0108 4FF00C02 		mov	r2, #12
 972 010c 1A70     		strb	r2, [r3, #0]
 973 010e 37E0     		b	.L60
 974              	.L59:
 543:.\USBFS_HID_interface.c ****             }
 544:.\USBFS_HID_interface.c ****             else if((bControl & CONFIG_I2C_SPEED_MSK)== I2C_SPEED_400)
 975              		.loc 1 544 0
 976 0110 BB78     		ldrb	r3, [r7, #2]	@ zero_extendqisi2
 977 0112 03F00C03 		and	r3, r3, #12
 978 0116 042B     		cmp	r3, #4
 979 0118 0DD1     		bne	.L61
 545:.\USBFS_HID_interface.c ****             {
 546:.\USBFS_HID_interface.c ****                 /* Source is 64 MHz, required clock is (400K * 16 = 6.4MHz), so divider is 10 */
 547:.\USBFS_HID_interface.c ****                 Clock_I2C_SetDivider(10 - 1);
 980              		.loc 1 547 0
 981 011a 4FF00900 		mov	r0, #9
 982 011e 4FF00101 		mov	r1, #1
 983 0122 FFF7FEFF 		bl	Clock_I2C_SetDividerRegister
 548:.\USBFS_HID_interface.c **** 				i2cSpeed = I2C_SPEED_400;
 984              		.loc 1 548 0
 985 0126 40F20003 		movw	r3, #:lower16:i2cSpeed
 986 012a C0F20003 		movt	r3, #:upper16:i2cSpeed
 987 012e 4FF00402 		mov	r2, #4
ARM GAS  C:\DOCUME~1\ADMINI~1\LOCALS~1\Temp\ccOjxVk4.s 			page 28


 988 0132 1A70     		strb	r2, [r3, #0]
 989 0134 24E0     		b	.L60
 990              	.L61:
 549:.\USBFS_HID_interface.c ****             }
 550:.\USBFS_HID_interface.c ****             else if((bControl & CONFIG_I2C_SPEED_MSK)== I2C_SPEED_100)
 991              		.loc 1 550 0
 992 0136 BB78     		ldrb	r3, [r7, #2]	@ zero_extendqisi2
 993 0138 03F00C03 		and	r3, r3, #12
 994 013c 002B     		cmp	r3, #0
 995 013e 0DD1     		bne	.L62
 551:.\USBFS_HID_interface.c ****             {
 552:.\USBFS_HID_interface.c ****                 /* Source is 64 MHz, required clock is (100K * 16 = 1.6MHz), so divider is 40 */
 553:.\USBFS_HID_interface.c ****                 Clock_I2C_SetDivider(40 - 1);
 996              		.loc 1 553 0
 997 0140 4FF02700 		mov	r0, #39
 998 0144 4FF00101 		mov	r1, #1
 999 0148 FFF7FEFF 		bl	Clock_I2C_SetDividerRegister
 554:.\USBFS_HID_interface.c **** 				i2cSpeed = I2C_SPEED_100;
 1000              		.loc 1 554 0
 1001 014c 40F20003 		movw	r3, #:lower16:i2cSpeed
 1002 0150 C0F20003 		movt	r3, #:upper16:i2cSpeed
 1003 0154 4FF00002 		mov	r2, #0
 1004 0158 1A70     		strb	r2, [r3, #0]
 1005 015a 11E0     		b	.L60
 1006              	.L62:
 555:.\USBFS_HID_interface.c ****             }
 556:.\USBFS_HID_interface.c ****             else if((bControl & CONFIG_I2C_SPEED_MSK)== I2C_SPEED_050)
 1007              		.loc 1 556 0
 1008 015c BB78     		ldrb	r3, [r7, #2]	@ zero_extendqisi2
 1009 015e 03F00C03 		and	r3, r3, #12
 1010 0162 082B     		cmp	r3, #8
 1011 0164 0CD1     		bne	.L60
 557:.\USBFS_HID_interface.c ****             {
 558:.\USBFS_HID_interface.c ****                 /* Source is 64 MHz, required clock is (50K * 16 = 0.8MHz), so divider is 80 */
 559:.\USBFS_HID_interface.c ****                 Clock_I2C_SetDivider(80 - 1);
 1012              		.loc 1 559 0
 1013 0166 4FF04F00 		mov	r0, #79
 1014 016a 4FF00101 		mov	r1, #1
 1015 016e FFF7FEFF 		bl	Clock_I2C_SetDividerRegister
 560:.\USBFS_HID_interface.c **** 				i2cSpeed = I2C_SPEED_050;
 1016              		.loc 1 560 0
 1017 0172 40F20003 		movw	r3, #:lower16:i2cSpeed
 1018 0176 C0F20003 		movt	r3, #:upper16:i2cSpeed
 1019 017a 4FF00802 		mov	r2, #8
 1020 017e 1A70     		strb	r2, [r3, #0]
 1021              	.L60:
 561:.\USBFS_HID_interface.c ****             }
 562:.\USBFS_HID_interface.c **** 			
 563:.\USBFS_HID_interface.c **** 			/* Start the I2C and acknowledge */
 564:.\USBFS_HID_interface.c ****             I2CHW_Start();
 1022              		.loc 1 564 0
 1023 0180 FFF7FEFF 		bl	I2CHW_Start
 565:.\USBFS_HID_interface.c ****             bInEndpointData[0] = OK_ACK;				
 1024              		.loc 1 565 0
 1025 0184 40F20003 		movw	r3, #:lower16:bInEndpointData
 1026 0188 C0F20003 		movt	r3, #:upper16:bInEndpointData
 1027 018c 4FF00102 		mov	r2, #1
ARM GAS  C:\DOCUME~1\ADMINI~1\LOCALS~1\Temp\ccOjxVk4.s 			page 29


 1028 0190 1A70     		strb	r2, [r3, #0]
 1029 0192 DBE1     		b	.L63
 1030              	.L58:
 566:.\USBFS_HID_interface.c ****         }
 567:.\USBFS_HID_interface.c ****         else if (bControl & CONTROL_RESTART_HW)
 1031              		.loc 1 567 0
 1032 0194 BB78     		ldrb	r3, [r7, #2]	@ zero_extendqisi2
 1033 0196 03F01003 		and	r3, r3, #16
 1034 019a 002B     		cmp	r3, #0
 1035 019c 14D0     		beq	.L64
 568:.\USBFS_HID_interface.c ****         {
 569:.\USBFS_HID_interface.c ****             /* HW restart command gets 2nd highest priority */
 570:.\USBFS_HID_interface.c ****             /* Restarts the I2C Hardware */
 571:.\USBFS_HID_interface.c ****             if(I2CRestart() == RESTART_SUCCESS)
 1036              		.loc 1 571 0
 1037 019e FFF7FEFF 		bl	I2CRestart
 1038 01a2 0346     		mov	r3, r0
 1039 01a4 012B     		cmp	r3, #1
 1040 01a6 07D1     		bne	.L65
 572:.\USBFS_HID_interface.c **** 			{
 573:.\USBFS_HID_interface.c ****             	bInEndpointData[0] = OK_ACK;
 1041              		.loc 1 573 0
 1042 01a8 40F20003 		movw	r3, #:lower16:bInEndpointData
 1043 01ac C0F20003 		movt	r3, #:upper16:bInEndpointData
 1044 01b0 4FF00102 		mov	r2, #1
 1045 01b4 1A70     		strb	r2, [r3, #0]
 574:.\USBFS_HID_interface.c **** 			}
 575:.\USBFS_HID_interface.c **** 			else
 576:.\USBFS_HID_interface.c **** 			{
 577:.\USBFS_HID_interface.c **** 				bInEndpointData[0] = NACK;
 1046              		.loc 1 577 0
 1047 01b6 C9E1     		b	.L63
 1048              	.L65:
 1049 01b8 40F20003 		movw	r3, #:lower16:bInEndpointData
 1050 01bc C0F20003 		movt	r3, #:upper16:bInEndpointData
 1051 01c0 4FF00002 		mov	r2, #0
 1052 01c4 1A70     		strb	r2, [r3, #0]
 1053 01c6 C1E1     		b	.L63
 1054              	.L64:
 578:.\USBFS_HID_interface.c **** 			}
 579:.\USBFS_HID_interface.c ****         }
 580:.\USBFS_HID_interface.c ****         else if ((bControl & CONTROL_START) && (bOutEndpointData[bOutPacketIndex] & PACKET_VALID))
 1055              		.loc 1 580 0
 1056 01c8 BB78     		ldrb	r3, [r7, #2]	@ zero_extendqisi2
 1057 01ca 03F00203 		and	r3, r3, #2
 1058 01ce 002B     		cmp	r3, #0
 1059 01d0 00F09981 		beq	.L67
 1060 01d4 40F20003 		movw	r3, #:lower16:bOutPacketIndex
 1061 01d8 C0F20003 		movt	r3, #:upper16:bOutPacketIndex
 1062 01dc 1B78     		ldrb	r3, [r3, #0]	@ zero_extendqisi2
 1063 01de 1A46     		mov	r2, r3
 1064 01e0 40F20003 		movw	r3, #:lower16:bOutEndpointData
 1065 01e4 C0F20003 		movt	r3, #:upper16:bOutEndpointData
 1066 01e8 9B5C     		ldrb	r3, [r3, r2]	@ zero_extendqisi2
 1067 01ea 5BB2     		sxtb	r3, r3
 1068 01ec 002B     		cmp	r3, #0
 1069 01ee 80F28A81 		bge	.L67
ARM GAS  C:\DOCUME~1\ADMINI~1\LOCALS~1\Temp\ccOjxVk4.s 			page 30


 581:.\USBFS_HID_interface.c ****         {   	 		
 582:.\USBFS_HID_interface.c ****             /* An extended command gets 3rd highest priority */
 583:.\USBFS_HID_interface.c ****             /* Acknowledge the command and indicate presence of Vdev. 
 584:.\USBFS_HID_interface.c **** 			 * Bit 2 of the ack indicates presence of power. */
 585:.\USBFS_HID_interface.c ****             if(GetVoltage() > ONE_VOLT)
 1070              		.loc 1 585 0
 1071 01f2 FFF7FEFF 		bl	GetVoltage
 1072 01f6 0346     		mov	r3, r0
 1073 01f8 B3F57A7F 		cmp	r3, #1000
 1074 01fc 0DD9     		bls	.L68
 586:.\USBFS_HID_interface.c **** 			{
 587:.\USBFS_HID_interface.c ****            		bInEndpointData[bInPacketIndex] = ACK_WITH_POWER;  
 1075              		.loc 1 587 0
 1076 01fe 40F20003 		movw	r3, #:lower16:bInPacketIndex
 1077 0202 C0F20003 		movt	r3, #:upper16:bInPacketIndex
 1078 0206 1B78     		ldrb	r3, [r3, #0]	@ zero_extendqisi2
 1079 0208 1A46     		mov	r2, r3
 1080 020a 40F20003 		movw	r3, #:lower16:bInEndpointData
 1081 020e C0F20003 		movt	r3, #:upper16:bInEndpointData
 1082 0212 4FF00501 		mov	r1, #5
 1083 0216 9954     		strb	r1, [r3, r2]
 1084 0218 0CE0     		b	.L69
 1085              	.L68:
 588:.\USBFS_HID_interface.c **** 			}
 589:.\USBFS_HID_interface.c **** 			else
 590:.\USBFS_HID_interface.c **** 			{
 591:.\USBFS_HID_interface.c **** 				bInEndpointData[bInPacketIndex] = ACK_WITHOUT_POWER;
 1086              		.loc 1 591 0
 1087 021a 40F20003 		movw	r3, #:lower16:bInPacketIndex
 1088 021e C0F20003 		movt	r3, #:upper16:bInPacketIndex
 1089 0222 1B78     		ldrb	r3, [r3, #0]	@ zero_extendqisi2
 1090 0224 1A46     		mov	r2, r3
 1091 0226 40F20003 		movw	r3, #:lower16:bInEndpointData
 1092 022a C0F20003 		movt	r3, #:upper16:bInEndpointData
 1093 022e 4FF00101 		mov	r1, #1
 1094 0232 9954     		strb	r1, [r3, r2]
 1095              	.L69:
 592:.\USBFS_HID_interface.c **** 			}
 593:.\USBFS_HID_interface.c ****            	bInPacketIndex++;
 1096              		.loc 1 593 0
 1097 0234 40F20003 		movw	r3, #:lower16:bInPacketIndex
 1098 0238 C0F20003 		movt	r3, #:upper16:bInPacketIndex
 1099 023c 1B78     		ldrb	r3, [r3, #0]	@ zero_extendqisi2
 1100 023e 03F10103 		add	r3, r3, #1
 1101 0242 DAB2     		uxtb	r2, r3
 1102 0244 40F20003 		movw	r3, #:lower16:bInPacketIndex
 1103 0248 C0F20003 		movt	r3, #:upper16:bInPacketIndex
 1104 024c 1A70     		strb	r2, [r3, #0]
 594:.\USBFS_HID_interface.c ****                 
 595:.\USBFS_HID_interface.c ****             /* Parse the command */
 596:.\USBFS_HID_interface.c **** 			if (bOutEndpointData[bOutPacketIndex] == GET_POWER_SETTING)
 1105              		.loc 1 596 0
 1106 024e 40F20003 		movw	r3, #:lower16:bOutPacketIndex
 1107 0252 C0F20003 		movt	r3, #:upper16:bOutPacketIndex
 1108 0256 1B78     		ldrb	r3, [r3, #0]	@ zero_extendqisi2
 1109 0258 1A46     		mov	r2, r3
 1110 025a 40F20003 		movw	r3, #:lower16:bOutEndpointData
ARM GAS  C:\DOCUME~1\ADMINI~1\LOCALS~1\Temp\ccOjxVk4.s 			page 31


 1111 025e C0F20003 		movt	r3, #:upper16:bOutEndpointData
 1112 0262 9B5C     		ldrb	r3, [r3, r2]	@ zero_extendqisi2
 1113 0264 802B     		cmp	r3, #128
 1114 0266 40F09D80 		bne	.L70
 597:.\USBFS_HID_interface.c ****             {
 598:.\USBFS_HID_interface.c ****                 /* Command 0x80 = GET_POWER_SETTING */
 599:.\USBFS_HID_interface.c ****                 /* Determine if set or get power */
 600:.\USBFS_HID_interface.c ****                 if (bControl & 0x01)
 1115              		.loc 1 600 0
 1116 026a BB78     		ldrb	r3, [r7, #2]	@ zero_extendqisi2
 1117 026c 03F00103 		and	r3, r3, #1
 1118 0270 DBB2     		uxtb	r3, r3
 1119 0272 002B     		cmp	r3, #0
 1120 0274 00F06781 		beq	.L80
 601:.\USBFS_HID_interface.c ****                 {
 602:.\USBFS_HID_interface.c ****                     /* Get power configuration */
 603:.\USBFS_HID_interface.c ****                     bInEndpointData[bInPacketIndex++] = POWER_SUPPLIED; 
 1121              		.loc 1 603 0
 1122 0278 40F20003 		movw	r3, #:lower16:bInPacketIndex
 1123 027c C0F20003 		movt	r3, #:upper16:bInPacketIndex
 1124 0280 1A78     		ldrb	r2, [r3, #0]	@ zero_extendqisi2
 1125 0282 1146     		mov	r1, r2
 1126 0284 40F20003 		movw	r3, #:lower16:bInEndpointData
 1127 0288 C0F20003 		movt	r3, #:upper16:bInEndpointData
 1128 028c 4FF00100 		mov	r0, #1
 1129 0290 5854     		strb	r0, [r3, r1]
 1130 0292 02F10103 		add	r3, r2, #1
 1131 0296 DAB2     		uxtb	r2, r3
 1132 0298 40F20003 		movw	r3, #:lower16:bInPacketIndex
 1133 029c C0F20003 		movt	r3, #:upper16:bInPacketIndex
 1134 02a0 1A70     		strb	r2, [r3, #0]
 604:.\USBFS_HID_interface.c **** 					/* Not used by KitProg, Used for I2C speed update by TTBridge */
 605:.\USBFS_HID_interface.c ****                     bInEndpointData[bInPacketIndex++] = i2cSpeed;
 1135              		.loc 1 605 0
 1136 02a2 40F20003 		movw	r3, #:lower16:bInPacketIndex
 1137 02a6 C0F20003 		movt	r3, #:upper16:bInPacketIndex
 1138 02aa 1A78     		ldrb	r2, [r3, #0]	@ zero_extendqisi2
 1139 02ac 1146     		mov	r1, r2
 1140 02ae 40F20003 		movw	r3, #:lower16:i2cSpeed
 1141 02b2 C0F20003 		movt	r3, #:upper16:i2cSpeed
 1142 02b6 1878     		ldrb	r0, [r3, #0]	@ zero_extendqisi2
 1143 02b8 40F20003 		movw	r3, #:lower16:bInEndpointData
 1144 02bc C0F20003 		movt	r3, #:upper16:bInEndpointData
 1145 02c0 5854     		strb	r0, [r3, r1]
 1146 02c2 02F10103 		add	r3, r2, #1
 1147 02c6 DAB2     		uxtb	r2, r3
 1148 02c8 40F20003 		movw	r3, #:lower16:bInPacketIndex
 1149 02cc C0F20003 		movt	r3, #:upper16:bInPacketIndex
 1150 02d0 1A70     		strb	r2, [r3, #0]
 606:.\USBFS_HID_interface.c ****                     voltage = GetVoltage();
 1151              		.loc 1 606 0
 1152 02d2 FFF7FEFF 		bl	GetVoltage
 1153 02d6 0346     		mov	r3, r0
 1154 02d8 1A46     		mov	r2, r3
 1155 02da 40F20003 		movw	r3, #:lower16:voltage
 1156 02de C0F20003 		movt	r3, #:upper16:voltage
 1157 02e2 1A80     		strh	r2, [r3, #0]	@ movhi
ARM GAS  C:\DOCUME~1\ADMINI~1\LOCALS~1\Temp\ccOjxVk4.s 			page 32


 607:.\USBFS_HID_interface.c **** 					
 608:.\USBFS_HID_interface.c **** 					/* Return the voltage value to the programmer GUI */
 609:.\USBFS_HID_interface.c ****                     bInEndpointData[bInPacketIndex++] = (uint8)(voltage & 0xFF);
 1158              		.loc 1 609 0
 1159 02e4 40F20003 		movw	r3, #:lower16:bInPacketIndex
 1160 02e8 C0F20003 		movt	r3, #:upper16:bInPacketIndex
 1161 02ec 1A78     		ldrb	r2, [r3, #0]	@ zero_extendqisi2
 1162 02ee 1146     		mov	r1, r2
 1163 02f0 40F20003 		movw	r3, #:lower16:voltage
 1164 02f4 C0F20003 		movt	r3, #:upper16:voltage
 1165 02f8 1B88     		ldrh	r3, [r3, #0]
 1166 02fa D8B2     		uxtb	r0, r3
 1167 02fc 40F20003 		movw	r3, #:lower16:bInEndpointData
 1168 0300 C0F20003 		movt	r3, #:upper16:bInEndpointData
 1169 0304 5854     		strb	r0, [r3, r1]
 1170 0306 02F10103 		add	r3, r2, #1
 1171 030a DAB2     		uxtb	r2, r3
 1172 030c 40F20003 		movw	r3, #:lower16:bInPacketIndex
 1173 0310 C0F20003 		movt	r3, #:upper16:bInPacketIndex
 1174 0314 1A70     		strb	r2, [r3, #0]
 610:.\USBFS_HID_interface.c ****                     bInEndpointData[bInPacketIndex++] = (uint8)((voltage >> 8)& 0xFF);
 1175              		.loc 1 610 0
 1176 0316 40F20003 		movw	r3, #:lower16:bInPacketIndex
 1177 031a C0F20003 		movt	r3, #:upper16:bInPacketIndex
 1178 031e 1A78     		ldrb	r2, [r3, #0]	@ zero_extendqisi2
 1179 0320 1146     		mov	r1, r2
 1180 0322 40F20003 		movw	r3, #:lower16:voltage
 1181 0326 C0F20003 		movt	r3, #:upper16:voltage
 1182 032a 1B88     		ldrh	r3, [r3, #0]
 1183 032c 4FEA1323 		lsr	r3, r3, #8
 1184 0330 9BB2     		uxth	r3, r3
 1185 0332 D8B2     		uxtb	r0, r3
 1186 0334 40F20003 		movw	r3, #:lower16:bInEndpointData
 1187 0338 C0F20003 		movt	r3, #:upper16:bInEndpointData
 1188 033c 5854     		strb	r0, [r3, r1]
 1189 033e 02F10103 		add	r3, r2, #1
 1190 0342 DAB2     		uxtb	r2, r3
 1191 0344 40F20003 		movw	r3, #:lower16:bInPacketIndex
 1192 0348 C0F20003 		movt	r3, #:upper16:bInPacketIndex
 1193 034c 1A70     		strb	r2, [r3, #0]
 611:.\USBFS_HID_interface.c **** 					
 612:.\USBFS_HID_interface.c **** 					/* Not used by KitProg, Used for VAUX measurement by TTBridge */
 613:.\USBFS_HID_interface.c ****                     bInEndpointData[bInPacketIndex++] = 0;
 1194              		.loc 1 613 0
 1195 034e 40F20003 		movw	r3, #:lower16:bInPacketIndex
 1196 0352 C0F20003 		movt	r3, #:upper16:bInPacketIndex
 1197 0356 1A78     		ldrb	r2, [r3, #0]	@ zero_extendqisi2
 1198 0358 1146     		mov	r1, r2
 1199 035a 40F20003 		movw	r3, #:lower16:bInEndpointData
 1200 035e C0F20003 		movt	r3, #:upper16:bInEndpointData
 1201 0362 4FF00000 		mov	r0, #0
 1202 0366 5854     		strb	r0, [r3, r1]
 1203 0368 02F10103 		add	r3, r2, #1
 1204 036c DAB2     		uxtb	r2, r3
 1205 036e 40F20003 		movw	r3, #:lower16:bInPacketIndex
 1206 0372 C0F20003 		movt	r3, #:upper16:bInPacketIndex
 1207 0376 1A70     		strb	r2, [r3, #0]
ARM GAS  C:\DOCUME~1\ADMINI~1\LOCALS~1\Temp\ccOjxVk4.s 			page 33


 614:.\USBFS_HID_interface.c ****                     bInEndpointData[bInPacketIndex++] = 0;
 1208              		.loc 1 614 0
 1209 0378 40F20003 		movw	r3, #:lower16:bInPacketIndex
 1210 037c C0F20003 		movt	r3, #:upper16:bInPacketIndex
 1211 0380 1A78     		ldrb	r2, [r3, #0]	@ zero_extendqisi2
 1212 0382 1146     		mov	r1, r2
 1213 0384 40F20003 		movw	r3, #:lower16:bInEndpointData
 1214 0388 C0F20003 		movt	r3, #:upper16:bInEndpointData
 1215 038c 4FF00000 		mov	r0, #0
 1216 0390 5854     		strb	r0, [r3, r1]
 1217 0392 02F10103 		add	r3, r2, #1
 1218 0396 DAB2     		uxtb	r2, r3
 1219 0398 40F20003 		movw	r3, #:lower16:bInPacketIndex
 1220 039c C0F20003 		movt	r3, #:upper16:bInPacketIndex
 1221 03a0 1A70     		strb	r2, [r3, #0]
 1222              		.loc 1 580 0
 1223 03a2 D3E0     		b	.L63
 1224              	.L70:
 615:.\USBFS_HID_interface.c ****                 }
 616:.\USBFS_HID_interface.c ****                 else 
 617:.\USBFS_HID_interface.c ****                 {                        
 618:.\USBFS_HID_interface.c ****                     /* Set Power command for powercycle mode. Do nothing for now. */               
 619:.\USBFS_HID_interface.c ****                 }
 620:.\USBFS_HID_interface.c ****             }
 621:.\USBFS_HID_interface.c ****             else if (bOutEndpointData[bOutPacketIndex] == GET_KITPROG_VERSION)
 1225              		.loc 1 621 0
 1226 03a4 40F20003 		movw	r3, #:lower16:bOutPacketIndex
 1227 03a8 C0F20003 		movt	r3, #:upper16:bOutPacketIndex
 1228 03ac 1B78     		ldrb	r3, [r3, #0]	@ zero_extendqisi2
 1229 03ae 1A46     		mov	r2, r3
 1230 03b0 40F20003 		movw	r3, #:lower16:bOutEndpointData
 1231 03b4 C0F20003 		movt	r3, #:upper16:bOutEndpointData
 1232 03b8 9B5C     		ldrb	r3, [r3, r2]	@ zero_extendqisi2
 1233 03ba 812B     		cmp	r3, #129
 1234 03bc 3AD1     		bne	.L73
 622:.\USBFS_HID_interface.c ****             {
 623:.\USBFS_HID_interface.c ****                 /* Command 0x81 = Get KitProg version info*/
 624:.\USBFS_HID_interface.c ****                 bInEndpointData[bInPacketIndex++] = kitProgHWVersion;
 1235              		.loc 1 624 0
 1236 03be 40F20003 		movw	r3, #:lower16:bInPacketIndex
 1237 03c2 C0F20003 		movt	r3, #:upper16:bInPacketIndex
 1238 03c6 1A78     		ldrb	r2, [r3, #0]	@ zero_extendqisi2
 1239 03c8 1146     		mov	r1, r2
 1240 03ca 40F20003 		movw	r3, #:lower16:kitProgHWVersion
 1241 03ce C0F20003 		movt	r3, #:upper16:kitProgHWVersion
 1242 03d2 1878     		ldrb	r0, [r3, #0]	@ zero_extendqisi2
 1243 03d4 40F20003 		movw	r3, #:lower16:bInEndpointData
 1244 03d8 C0F20003 		movt	r3, #:upper16:bInEndpointData
 1245 03dc 5854     		strb	r0, [r3, r1]
 1246 03de 02F10103 		add	r3, r2, #1
 1247 03e2 DAB2     		uxtb	r2, r3
 1248 03e4 40F20003 		movw	r3, #:lower16:bInPacketIndex
 1249 03e8 C0F20003 		movt	r3, #:upper16:bInPacketIndex
 1250 03ec 1A70     		strb	r2, [r3, #0]
 625:.\USBFS_HID_interface.c ****                 bInEndpointData[bInPacketIndex++] = VER_MINOR ;
 1251              		.loc 1 625 0
 1252 03ee 40F20003 		movw	r3, #:lower16:bInPacketIndex
ARM GAS  C:\DOCUME~1\ADMINI~1\LOCALS~1\Temp\ccOjxVk4.s 			page 34


 1253 03f2 C0F20003 		movt	r3, #:upper16:bInPacketIndex
 1254 03f6 1A78     		ldrb	r2, [r3, #0]	@ zero_extendqisi2
 1255 03f8 1146     		mov	r1, r2
 1256 03fa 40F20003 		movw	r3, #:lower16:bInEndpointData
 1257 03fe C0F20003 		movt	r3, #:upper16:bInEndpointData
 1258 0402 4FF00300 		mov	r0, #3
 1259 0406 5854     		strb	r0, [r3, r1]
 1260 0408 02F10103 		add	r3, r2, #1
 1261 040c DAB2     		uxtb	r2, r3
 1262 040e 40F20003 		movw	r3, #:lower16:bInPacketIndex
 1263 0412 C0F20003 		movt	r3, #:upper16:bInPacketIndex
 1264 0416 1A70     		strb	r2, [r3, #0]
 626:.\USBFS_HID_interface.c ****                 bInEndpointData[bInPacketIndex] = VER_MAJOR;
 1265              		.loc 1 626 0
 1266 0418 40F20003 		movw	r3, #:lower16:bInPacketIndex
 1267 041c C0F20003 		movt	r3, #:upper16:bInPacketIndex
 1268 0420 1B78     		ldrb	r3, [r3, #0]	@ zero_extendqisi2
 1269 0422 1A46     		mov	r2, r3
 1270 0424 40F20003 		movw	r3, #:lower16:bInEndpointData
 1271 0428 C0F20003 		movt	r3, #:upper16:bInEndpointData
 1272 042c 4FF00201 		mov	r1, #2
 1273 0430 9954     		strb	r1, [r3, r2]
 1274              		.loc 1 580 0
 1275 0432 8BE0     		b	.L63
 1276              	.L73:
 627:.\USBFS_HID_interface.c ****             }				
 628:.\USBFS_HID_interface.c ****             else if (bOutEndpointData[bOutPacketIndex] == RESET_KITPROG)
 1277              		.loc 1 628 0
 1278 0434 40F20003 		movw	r3, #:lower16:bOutPacketIndex
 1279 0438 C0F20003 		movt	r3, #:upper16:bOutPacketIndex
 1280 043c 1B78     		ldrb	r3, [r3, #0]	@ zero_extendqisi2
 1281 043e 1A46     		mov	r2, r3
 1282 0440 40F20003 		movw	r3, #:lower16:bOutEndpointData
 1283 0444 C0F20003 		movt	r3, #:upper16:bOutEndpointData
 1284 0448 9B5C     		ldrb	r3, [r3, r2]	@ zero_extendqisi2
 1285 044a 822B     		cmp	r3, #130
 1286 044c 02D1     		bne	.L74
 629:.\USBFS_HID_interface.c ****             {
 630:.\USBFS_HID_interface.c ****                 /* Command 0x82 = Reset the KitProg */
 631:.\USBFS_HID_interface.c ****                 CySoftwareReset();
 1287              		.loc 1 631 0
 1288 044e FFF7FEFF 		bl	CySoftwareReset
 1289              		.loc 1 580 0
 1290 0452 7BE0     		b	.L63
 1291              	.L74:
 632:.\USBFS_HID_interface.c ****             }
 633:.\USBFS_HID_interface.c ****             else if (bOutEndpointData[bOutPacketIndex] == CONFIGURE_INTERFACE)
 1292              		.loc 1 633 0
 1293 0454 40F20003 		movw	r3, #:lower16:bOutPacketIndex
 1294 0458 C0F20003 		movt	r3, #:upper16:bOutPacketIndex
 1295 045c 1B78     		ldrb	r3, [r3, #0]	@ zero_extendqisi2
 1296 045e 1A46     		mov	r2, r3
 1297 0460 40F20003 		movw	r3, #:lower16:bOutEndpointData
 1298 0464 C0F20003 		movt	r3, #:upper16:bOutEndpointData
 1299 0468 9B5C     		ldrb	r3, [r3, r2]	@ zero_extendqisi2
 1300 046a 8F2B     		cmp	r3, #143
 1301 046c 3BD1     		bne	.L75
ARM GAS  C:\DOCUME~1\ADMINI~1\LOCALS~1\Temp\ccOjxVk4.s 			page 35


 634:.\USBFS_HID_interface.c ****             {
 635:.\USBFS_HID_interface.c ****                 /* Command 0x8F = Configure Communication Interface */
 636:.\USBFS_HID_interface.c **** 				/* Stop all the interface first to avoid any collisions */
 637:.\USBFS_HID_interface.c ****                 HostCommStop();                
 1302              		.loc 1 637 0
 1303 046e FFF7FEFF 		bl	HostCommStop
 638:.\USBFS_HID_interface.c **** 				
 639:.\USBFS_HID_interface.c **** 				/* Set the interface to be I2C and acknowledge the command */
 640:.\USBFS_HID_interface.c ****                 bOutPacketIndex++;
 1304              		.loc 1 640 0
 1305 0472 40F20003 		movw	r3, #:lower16:bOutPacketIndex
 1306 0476 C0F20003 		movt	r3, #:upper16:bOutPacketIndex
 1307 047a 1B78     		ldrb	r3, [r3, #0]	@ zero_extendqisi2
 1308 047c 03F10103 		add	r3, r3, #1
 1309 0480 DAB2     		uxtb	r2, r3
 1310 0482 40F20003 		movw	r3, #:lower16:bOutPacketIndex
 1311 0486 C0F20003 		movt	r3, #:upper16:bOutPacketIndex
 1312 048a 1A70     		strb	r2, [r3, #0]
 641:.\USBFS_HID_interface.c ****                 if (bOutEndpointData[bOutPacketIndex] == INTERFACE_I2C)
 1313              		.loc 1 641 0
 1314 048c 40F20003 		movw	r3, #:lower16:bOutPacketIndex
 1315 0490 C0F20003 		movt	r3, #:upper16:bOutPacketIndex
 1316 0494 1B78     		ldrb	r3, [r3, #0]	@ zero_extendqisi2
 1317 0496 1A46     		mov	r2, r3
 1318 0498 40F20003 		movw	r3, #:lower16:bOutEndpointData
 1319 049c C0F20003 		movt	r3, #:upper16:bOutEndpointData
 1320 04a0 9B5C     		ldrb	r3, [r3, r2]	@ zero_extendqisi2
 1321 04a2 002B     		cmp	r3, #0
 1322 04a4 1CD1     		bne	.L76
 642:.\USBFS_HID_interface.c ****                 {
 643:.\USBFS_HID_interface.c ****                     /* Enable the I2C Pull Ups */
 644:.\USBFS_HID_interface.c **** 					I2CPullUpEnable();
 1323              		.loc 1 644 0
 1324 04a6 FFF7FEFF 		bl	I2CPullUpEnable
 645:.\USBFS_HID_interface.c **** 					
 646:.\USBFS_HID_interface.c **** 					/* Set the I2C pins drive mode */
 647:.\USBFS_HID_interface.c ****                     I2CPinPullUpDriveLow();
 1325              		.loc 1 647 0
 1326 04aa FFF7FEFF 		bl	I2CPinPullUpDriveLow
 648:.\USBFS_HID_interface.c **** 					
 649:.\USBFS_HID_interface.c **** 					/* Start the communication interfaces */
 650:.\USBFS_HID_interface.c ****                     I2CHW_Start();
 1327              		.loc 1 650 0
 1328 04ae FFF7FEFF 		bl	I2CHW_Start
 651:.\USBFS_HID_interface.c ****                     I2CRestart();
 1329              		.loc 1 651 0
 1330 04b2 FFF7FEFF 		bl	I2CRestart
 652:.\USBFS_HID_interface.c ****                     bHostInterface = INTERFACE_I2C;                        
 1331              		.loc 1 652 0
 1332 04b6 40F20003 		movw	r3, #:lower16:bHostInterface
 1333 04ba C0F20003 		movt	r3, #:upper16:bHostInterface
 1334 04be 4FF00002 		mov	r2, #0
 1335 04c2 1A70     		strb	r2, [r3, #0]
 653:.\USBFS_HID_interface.c ****                     bInEndpointData[bInPacketIndex] = INTERFACE_I2C;
 1336              		.loc 1 653 0
 1337 04c4 40F20003 		movw	r3, #:lower16:bInPacketIndex
 1338 04c8 C0F20003 		movt	r3, #:upper16:bInPacketIndex
ARM GAS  C:\DOCUME~1\ADMINI~1\LOCALS~1\Temp\ccOjxVk4.s 			page 36


 1339 04cc 1B78     		ldrb	r3, [r3, #0]	@ zero_extendqisi2
 1340 04ce 1A46     		mov	r2, r3
 1341 04d0 40F20003 		movw	r3, #:lower16:bInEndpointData
 1342 04d4 C0F20003 		movt	r3, #:upper16:bInEndpointData
 1343 04d8 4FF00001 		mov	r1, #0
 1344 04dc 9954     		strb	r1, [r3, r2]
 1345              		.loc 1 580 0
 1346 04de 35E0     		b	.L63
 1347              	.L76:
 654:.\USBFS_HID_interface.c ****                 }
 655:.\USBFS_HID_interface.c **** 				else
 656:.\USBFS_HID_interface.c **** 				{
 657:.\USBFS_HID_interface.c **** 					/* Disable the I2C Pull Ups */
 658:.\USBFS_HID_interface.c **** 					I2CPullUpDisable();
 1348              		.loc 1 658 0
 1349 04e0 FFF7FEFF 		bl	I2CPullUpDisable
 1350              		.loc 1 580 0
 1351 04e4 32E0     		b	.L63
 1352              	.L75:
 659:.\USBFS_HID_interface.c **** 				}
 660:.\USBFS_HID_interface.c **** 			}
 661:.\USBFS_HID_interface.c ****             else if (bOutEndpointData[bOutPacketIndex] == ENTER_BOOTLOADER) 
 1353              		.loc 1 661 0
 1354 04e6 40F20003 		movw	r3, #:lower16:bOutPacketIndex
 1355 04ea C0F20003 		movt	r3, #:upper16:bOutPacketIndex
 1356 04ee 1B78     		ldrb	r3, [r3, #0]	@ zero_extendqisi2
 1357 04f0 1A46     		mov	r2, r3
 1358 04f2 40F20003 		movw	r3, #:lower16:bOutEndpointData
 1359 04f6 C0F20003 		movt	r3, #:upper16:bOutEndpointData
 1360 04fa 9B5C     		ldrb	r3, [r3, r2]	@ zero_extendqisi2
 1361 04fc A02B     		cmp	r3, #160
 1362 04fe 24D1     		bne	.L81
 662:.\USBFS_HID_interface.c ****             {
 663:.\USBFS_HID_interface.c ****                 /* Command 0xA0 = Enter USB bootloader and upgrade firmware */
 664:.\USBFS_HID_interface.c ****                 Bootloadable_Load();
 1363              		.loc 1 664 0
 1364 0500 FFF7FEFF 		bl	Bootloadable_Load
 1365              		.loc 1 580 0
 1366 0504 22E0     		b	.L63
 1367              	.L67:
 665:.\USBFS_HID_interface.c ****             }           
 666:.\USBFS_HID_interface.c ****             else 
 667:.\USBFS_HID_interface.c ****             {
 668:.\USBFS_HID_interface.c ****                 /* do nothing (ignore other commands) */
 669:.\USBFS_HID_interface.c ****             }
 670:.\USBFS_HID_interface.c ****         }
 671:.\USBFS_HID_interface.c ****         else
 672:.\USBFS_HID_interface.c ****         {
 673:.\USBFS_HID_interface.c ****             /* A transaction gets last priority */
 674:.\USBFS_HID_interface.c ****             if (bHostInterface == INTERFACE_I2C) 
 1368              		.loc 1 674 0
 1369 0506 40F20003 		movw	r3, #:lower16:bHostInterface
 1370 050a C0F20003 		movt	r3, #:upper16:bHostInterface
 1371 050e 1B78     		ldrb	r3, [r3, #0]	@ zero_extendqisi2
 1372 0510 002B     		cmp	r3, #0
 1373 0512 0AD1     		bne	.L78
 675:.\USBFS_HID_interface.c ****             {
ARM GAS  C:\DOCUME~1\ADMINI~1\LOCALS~1\Temp\ccOjxVk4.s 			page 37


 676:.\USBFS_HID_interface.c ****                 I2CTransaction(bControl, bLength, &bOutEndpointData[2], bInEndpointData);
 1374              		.loc 1 676 0
 1375 0514 BA78     		ldrb	r2, [r7, #2]	@ zero_extendqisi2
 1376 0516 FB78     		ldrb	r3, [r7, #3]	@ zero_extendqisi2
 1377 0518 1046     		mov	r0, r2
 1378 051a 1946     		mov	r1, r3
 1379 051c 0E4A     		ldr	r2, .L82
 1380 051e 40F20003 		movw	r3, #:lower16:bInEndpointData
 1381 0522 C0F20003 		movt	r3, #:upper16:bInEndpointData
 1382 0526 FFF7FEFF 		bl	I2CTransaction
 1383              	.L78:
 677:.\USBFS_HID_interface.c ****             } 
 678:.\USBFS_HID_interface.c ****             
 679:.\USBFS_HID_interface.c ****             bInPacketIndex = bInPacketIndex + bLength;
 1384              		.loc 1 679 0
 1385 052a 40F20003 		movw	r3, #:lower16:bInPacketIndex
 1386 052e C0F20003 		movt	r3, #:upper16:bInPacketIndex
 1387 0532 1A78     		ldrb	r2, [r3, #0]	@ zero_extendqisi2
 1388 0534 FB78     		ldrb	r3, [r7, #3]
 1389 0536 1344     		add	r3, r2, r3
 1390 0538 DAB2     		uxtb	r2, r3
 1391 053a 40F20003 		movw	r3, #:lower16:bInPacketIndex
 1392 053e C0F20003 		movt	r3, #:upper16:bInPacketIndex
 1393 0542 1A70     		strb	r2, [r3, #0]
 1394 0544 02E0     		b	.L63
 1395              	.L80:
 1396              		.loc 1 580 0
 1397 0546 00BF     		nop
 1398 0548 00E0     		b	.L63
 1399              	.L81:
 1400 054a 00BF     		nop
 1401              	.L63:
 680:.\USBFS_HID_interface.c **** 
 681:.\USBFS_HID_interface.c ****         }
 682:.\USBFS_HID_interface.c ****         /* Return the acknowledgements and data to the USB */
 683:.\USBFS_HID_interface.c ****         SendToUSB();  
 1402              		.loc 1 683 0
 1403 054c FFF7FEFF 		bl	SendToUSB
 1404              	.L79:
 684:.\USBFS_HID_interface.c **** 
 685:.\USBFS_HID_interface.c ****     } 
 686:.\USBFS_HID_interface.c **** }...
 1405              		.loc 1 686 0
 1406 0550 07F10807 		add	r7, r7, #8
 1407 0554 BD46     		mov	sp, r7
 1408 0556 80BD     		pop	{r7, pc}
 1409              	.L83:
 1410              		.align	2
 1411              	.L82:
 1412 0558 02000000 		.word	bOutEndpointData+2
 1413              		.cfi_endproc
 1414              	.LFE40:
 1415              		.size	HostComm, .-HostComm
 1416              		.text
 1417              	.Letext0:
 1418              		.section	.debug_loc,"",%progbits
 1419              	.Ldebug_loc0:
ARM GAS  C:\DOCUME~1\ADMINI~1\LOCALS~1\Temp\ccOjxVk4.s 			page 38


 1420              	.LLST0:
 1421 0000 00000000 		.4byte	.LFB29
 1422 0004 02000000 		.4byte	.LCFI0
 1423 0008 0100     		.2byte	0x1
 1424 000a 5D       		.byte	0x5d
 1425 000b 02000000 		.4byte	.LCFI0
 1426 000f 04000000 		.4byte	.LCFI1
 1427 0013 0200     		.2byte	0x2
 1428 0015 7D       		.byte	0x7d
 1429 0016 08       		.sleb128 8
 1430 0017 04000000 		.4byte	.LCFI1
 1431 001b 30000000 		.4byte	.LFE29
 1432 001f 0200     		.2byte	0x2
 1433 0021 77       		.byte	0x77
 1434 0022 08       		.sleb128 8
 1435 0023 00000000 		.4byte	0x0
 1436 0027 00000000 		.4byte	0x0
 1437              	.LLST1:
 1438 002b 00000000 		.4byte	.LFB30
 1439 002f 02000000 		.4byte	.LCFI2
 1440 0033 0100     		.2byte	0x1
 1441 0035 5D       		.byte	0x5d
 1442 0036 02000000 		.4byte	.LCFI2
 1443 003a 04000000 		.4byte	.LCFI3
 1444 003e 0200     		.2byte	0x2
 1445 0040 7D       		.byte	0x7d
 1446 0041 08       		.sleb128 8
 1447 0042 04000000 		.4byte	.LCFI3
 1448 0046 06000000 		.4byte	.LCFI4
 1449 004a 0200     		.2byte	0x2
 1450 004c 7D       		.byte	0x7d
 1451 004d 10       		.sleb128 16
 1452 004e 06000000 		.4byte	.LCFI4
 1453 0052 C0000000 		.4byte	.LFE30
 1454 0056 0200     		.2byte	0x2
 1455 0058 77       		.byte	0x77
 1456 0059 10       		.sleb128 16
 1457 005a 00000000 		.4byte	0x0
 1458 005e 00000000 		.4byte	0x0
 1459              	.LLST2:
 1460 0062 00000000 		.4byte	.LFB31
 1461 0066 02000000 		.4byte	.LCFI5
 1462 006a 0100     		.2byte	0x1
 1463 006c 5D       		.byte	0x5d
 1464 006d 02000000 		.4byte	.LCFI5
 1465 0071 04000000 		.4byte	.LCFI6
 1466 0075 0200     		.2byte	0x2
 1467 0077 7D       		.byte	0x7d
 1468 0078 0C       		.sleb128 12
 1469 0079 04000000 		.4byte	.LCFI6
 1470 007d 06000000 		.4byte	.LCFI7
 1471 0081 0200     		.2byte	0x2
 1472 0083 7D       		.byte	0x7d
 1473 0084 28       		.sleb128 40
 1474 0085 06000000 		.4byte	.LCFI7
 1475 0089 0C020000 		.4byte	.LFE31
 1476 008d 0200     		.2byte	0x2
ARM GAS  C:\DOCUME~1\ADMINI~1\LOCALS~1\Temp\ccOjxVk4.s 			page 39


 1477 008f 77       		.byte	0x77
 1478 0090 28       		.sleb128 40
 1479 0091 00000000 		.4byte	0x0
 1480 0095 00000000 		.4byte	0x0
 1481              	.LLST3:
 1482 0099 00000000 		.4byte	.LFB32
 1483 009d 02000000 		.4byte	.LCFI8
 1484 00a1 0100     		.2byte	0x1
 1485 00a3 5D       		.byte	0x5d
 1486 00a4 02000000 		.4byte	.LCFI8
 1487 00a8 04000000 		.4byte	.LCFI9
 1488 00ac 0200     		.2byte	0x2
 1489 00ae 7D       		.byte	0x7d
 1490 00af 04       		.sleb128 4
 1491 00b0 04000000 		.4byte	.LCFI9
 1492 00b4 52000000 		.4byte	.LFE32
 1493 00b8 0200     		.2byte	0x2
 1494 00ba 77       		.byte	0x77
 1495 00bb 04       		.sleb128 4
 1496 00bc 00000000 		.4byte	0x0
 1497 00c0 00000000 		.4byte	0x0
 1498              	.LLST4:
 1499 00c4 00000000 		.4byte	.LFB33
 1500 00c8 02000000 		.4byte	.LCFI10
 1501 00cc 0100     		.2byte	0x1
 1502 00ce 5D       		.byte	0x5d
 1503 00cf 02000000 		.4byte	.LCFI10
 1504 00d3 04000000 		.4byte	.LCFI11
 1505 00d7 0200     		.2byte	0x2
 1506 00d9 7D       		.byte	0x7d
 1507 00da 04       		.sleb128 4
 1508 00db 04000000 		.4byte	.LCFI11
 1509 00df 52000000 		.4byte	.LFE33
 1510 00e3 0200     		.2byte	0x2
 1511 00e5 77       		.byte	0x77
 1512 00e6 04       		.sleb128 4
 1513 00e7 00000000 		.4byte	0x0
 1514 00eb 00000000 		.4byte	0x0
 1515              	.LLST5:
 1516 00ef 00000000 		.4byte	.LFB34
 1517 00f3 02000000 		.4byte	.LCFI12
 1518 00f7 0100     		.2byte	0x1
 1519 00f9 5D       		.byte	0x5d
 1520 00fa 02000000 		.4byte	.LCFI12
 1521 00fe 04000000 		.4byte	.LCFI13
 1522 0102 0200     		.2byte	0x2
 1523 0104 7D       		.byte	0x7d
 1524 0105 08       		.sleb128 8
 1525 0106 04000000 		.4byte	.LCFI13
 1526 010a 5E000000 		.4byte	.LFE34
 1527 010e 0200     		.2byte	0x2
 1528 0110 77       		.byte	0x77
 1529 0111 08       		.sleb128 8
 1530 0112 00000000 		.4byte	0x0
 1531 0116 00000000 		.4byte	0x0
 1532              	.LLST6:
 1533 011a 00000000 		.4byte	.LFB35
ARM GAS  C:\DOCUME~1\ADMINI~1\LOCALS~1\Temp\ccOjxVk4.s 			page 40


 1534 011e 02000000 		.4byte	.LCFI14
 1535 0122 0100     		.2byte	0x1
 1536 0124 5D       		.byte	0x5d
 1537 0125 02000000 		.4byte	.LCFI14
 1538 0129 04000000 		.4byte	.LCFI15
 1539 012d 0200     		.2byte	0x2
 1540 012f 7D       		.byte	0x7d
 1541 0130 04       		.sleb128 4
 1542 0131 04000000 		.4byte	.LCFI15
 1543 0135 52000000 		.4byte	.LFE35
 1544 0139 0200     		.2byte	0x2
 1545 013b 77       		.byte	0x77
 1546 013c 04       		.sleb128 4
 1547 013d 00000000 		.4byte	0x0
 1548 0141 00000000 		.4byte	0x0
 1549              	.LLST7:
 1550 0145 00000000 		.4byte	.LFB36
 1551 0149 02000000 		.4byte	.LCFI16
 1552 014d 0100     		.2byte	0x1
 1553 014f 5D       		.byte	0x5d
 1554 0150 02000000 		.4byte	.LCFI16
 1555 0154 04000000 		.4byte	.LCFI17
 1556 0158 0200     		.2byte	0x2
 1557 015a 7D       		.byte	0x7d
 1558 015b 04       		.sleb128 4
 1559 015c 04000000 		.4byte	.LCFI17
 1560 0160 24000000 		.4byte	.LFE36
 1561 0164 0200     		.2byte	0x2
 1562 0166 77       		.byte	0x77
 1563 0167 04       		.sleb128 4
 1564 0168 00000000 		.4byte	0x0
 1565 016c 00000000 		.4byte	0x0
 1566              	.LLST8:
 1567 0170 00000000 		.4byte	.LFB37
 1568 0174 02000000 		.4byte	.LCFI18
 1569 0178 0100     		.2byte	0x1
 1570 017a 5D       		.byte	0x5d
 1571 017b 02000000 		.4byte	.LCFI18
 1572 017f 04000000 		.4byte	.LCFI19
 1573 0183 0200     		.2byte	0x2
 1574 0185 7D       		.byte	0x7d
 1575 0186 04       		.sleb128 4
 1576 0187 04000000 		.4byte	.LCFI19
 1577 018b 26000000 		.4byte	.LFE37
 1578 018f 0200     		.2byte	0x2
 1579 0191 77       		.byte	0x77
 1580 0192 04       		.sleb128 4
 1581 0193 00000000 		.4byte	0x0
 1582 0197 00000000 		.4byte	0x0
 1583              	.LLST9:
 1584 019b 00000000 		.4byte	.LFB38
 1585 019f 02000000 		.4byte	.LCFI20
 1586 01a3 0100     		.2byte	0x1
 1587 01a5 5D       		.byte	0x5d
 1588 01a6 02000000 		.4byte	.LCFI20
 1589 01aa 04000000 		.4byte	.LCFI21
 1590 01ae 0200     		.2byte	0x2
ARM GAS  C:\DOCUME~1\ADMINI~1\LOCALS~1\Temp\ccOjxVk4.s 			page 41


 1591 01b0 7D       		.byte	0x7d
 1592 01b1 08       		.sleb128 8
 1593 01b2 04000000 		.4byte	.LCFI21
 1594 01b6 0E000000 		.4byte	.LFE38
 1595 01ba 0200     		.2byte	0x2
 1596 01bc 77       		.byte	0x77
 1597 01bd 08       		.sleb128 8
 1598 01be 00000000 		.4byte	0x0
 1599 01c2 00000000 		.4byte	0x0
 1600              	.LLST10:
 1601 01c6 00000000 		.4byte	.LFB39
 1602 01ca 02000000 		.4byte	.LCFI22
 1603 01ce 0100     		.2byte	0x1
 1604 01d0 5D       		.byte	0x5d
 1605 01d1 02000000 		.4byte	.LCFI22
 1606 01d5 04000000 		.4byte	.LCFI23
 1607 01d9 0200     		.2byte	0x2
 1608 01db 7D       		.byte	0x7d
 1609 01dc 08       		.sleb128 8
 1610 01dd 04000000 		.4byte	.LCFI23
 1611 01e1 20000000 		.4byte	.LFE39
 1612 01e5 0200     		.2byte	0x2
 1613 01e7 77       		.byte	0x77
 1614 01e8 08       		.sleb128 8
 1615 01e9 00000000 		.4byte	0x0
 1616 01ed 00000000 		.4byte	0x0
 1617              	.LLST11:
 1618 01f1 00000000 		.4byte	.LFB40
 1619 01f5 02000000 		.4byte	.LCFI24
 1620 01f9 0100     		.2byte	0x1
 1621 01fb 5D       		.byte	0x5d
 1622 01fc 02000000 		.4byte	.LCFI24
 1623 0200 04000000 		.4byte	.LCFI25
 1624 0204 0200     		.2byte	0x2
 1625 0206 7D       		.byte	0x7d
 1626 0207 08       		.sleb128 8
 1627 0208 04000000 		.4byte	.LCFI25
 1628 020c 06000000 		.4byte	.LCFI26
 1629 0210 0200     		.2byte	0x2
 1630 0212 7D       		.byte	0x7d
 1631 0213 10       		.sleb128 16
 1632 0214 06000000 		.4byte	.LCFI26
 1633 0218 5C050000 		.4byte	.LFE40
 1634 021c 0200     		.2byte	0x2
 1635 021e 77       		.byte	0x77
 1636 021f 10       		.sleb128 16
 1637 0220 00000000 		.4byte	0x0
 1638 0224 00000000 		.4byte	0x0
 1639              		.file 2 "./Generated_Source/PSoC5/cytypes.h"
 1640              		.file 3 "./Generated_Source/PSoC5/core_cm3.h"
 1641              		.file 4 ".\\/version.h"
 1642              		.section	.debug_info
 1643 0000 4D030000 		.4byte	0x34d
 1644 0004 0200     		.2byte	0x2
 1645 0006 00000000 		.4byte	.Ldebug_abbrev0
 1646 000a 04       		.byte	0x4
 1647 000b 01       		.uleb128 0x1
ARM GAS  C:\DOCUME~1\ADMINI~1\LOCALS~1\Temp\ccOjxVk4.s 			page 42


 1648 000c F2010000 		.4byte	.LASF45
 1649 0010 01       		.byte	0x1
 1650 0011 6E010000 		.4byte	.LASF46
 1651 0015 51020000 		.4byte	.LASF47
 1652 0019 00000000 		.4byte	0x0
 1653 001d 00000000 		.4byte	0x0
 1654 0021 00000000 		.4byte	.Ldebug_ranges0+0x0
 1655 0025 00000000 		.4byte	.Ldebug_line0
 1656 0029 02       		.uleb128 0x2
 1657 002a 01       		.byte	0x1
 1658 002b 06       		.byte	0x6
 1659 002c 45020000 		.4byte	.LASF0
 1660 0030 02       		.uleb128 0x2
 1661 0031 01       		.byte	0x1
 1662 0032 08       		.byte	0x8
 1663 0033 AA000000 		.4byte	.LASF1
 1664 0037 02       		.uleb128 0x2
 1665 0038 02       		.byte	0x2
 1666 0039 05       		.byte	0x5
 1667 003a 12020000 		.4byte	.LASF2
 1668 003e 02       		.uleb128 0x2
 1669 003f 02       		.byte	0x2
 1670 0040 07       		.byte	0x7
 1671 0041 5B000000 		.4byte	.LASF3
 1672 0045 02       		.uleb128 0x2
 1673 0046 04       		.byte	0x4
 1674 0047 05       		.byte	0x5
 1675 0048 3C020000 		.4byte	.LASF4
 1676 004c 02       		.uleb128 0x2
 1677 004d 04       		.byte	0x4
 1678 004e 07       		.byte	0x7
 1679 004f 3A010000 		.4byte	.LASF5
 1680 0053 02       		.uleb128 0x2
 1681 0054 08       		.byte	0x8
 1682 0055 05       		.byte	0x5
 1683 0056 00000000 		.4byte	.LASF6
 1684 005a 02       		.uleb128 0x2
 1685 005b 08       		.byte	0x8
 1686 005c 07       		.byte	0x7
 1687 005d 9B010000 		.4byte	.LASF7
 1688 0061 03       		.uleb128 0x3
 1689 0062 04       		.byte	0x4
 1690 0063 05       		.byte	0x5
 1691 0064 696E7400 		.ascii	"int\000"
 1692 0068 02       		.uleb128 0x2
 1693 0069 04       		.byte	0x4
 1694 006a 07       		.byte	0x7
 1695 006b 86010000 		.4byte	.LASF8
 1696 006f 04       		.uleb128 0x4
 1697 0070 1C020000 		.4byte	.LASF9
 1698 0074 02       		.byte	0x2
 1699 0075 4C       		.byte	0x4c
 1700 0076 30000000 		.4byte	0x30
 1701 007a 04       		.uleb128 0x4
 1702 007b 67010000 		.4byte	.LASF10
 1703 007f 02       		.byte	0x2
 1704 0080 4D       		.byte	0x4d
ARM GAS  C:\DOCUME~1\ADMINI~1\LOCALS~1\Temp\ccOjxVk4.s 			page 43


 1705 0081 3E000000 		.4byte	0x3e
 1706 0085 02       		.uleb128 0x2
 1707 0086 04       		.byte	0x4
 1708 0087 04       		.byte	0x4
 1709 0088 9A000000 		.4byte	.LASF11
 1710 008c 02       		.uleb128 0x2
 1711 008d 08       		.byte	0x8
 1712 008e 04       		.byte	0x4
 1713 008f 77000000 		.4byte	.LASF12
 1714 0093 02       		.uleb128 0x2
 1715 0094 01       		.byte	0x1
 1716 0095 08       		.byte	0x8
 1717 0096 FE010000 		.4byte	.LASF13
 1718 009a 05       		.uleb128 0x5
 1719 009b 04       		.byte	0x4
 1720 009c 07       		.byte	0x7
 1721 009d 06       		.uleb128 0x6
 1722 009e 01       		.byte	0x1
 1723 009f 9F020000 		.4byte	.LASF26
 1724 00a3 01       		.byte	0x1
 1725 00a4 5E       		.byte	0x5e
 1726 00a5 01       		.byte	0x1
 1727 00a6 00000000 		.4byte	.LFB29
 1728 00aa 30000000 		.4byte	.LFE29
 1729 00ae 00000000 		.4byte	.LLST0
 1730 00b2 07       		.uleb128 0x7
 1731 00b3 B2010000 		.4byte	.LASF48
 1732 00b7 01       		.byte	0x1
 1733 00b8 75       		.byte	0x75
 1734 00b9 01       		.byte	0x1
 1735 00ba 6F000000 		.4byte	0x6f
 1736 00be 00000000 		.4byte	.LFB30
 1737 00c2 C0000000 		.4byte	.LFE30
 1738 00c6 2B000000 		.4byte	.LLST1
 1739 00ca EB000000 		.4byte	0xeb
 1740 00ce 08       		.uleb128 0x8
 1741 00cf 60010000 		.4byte	.LASF14
 1742 00d3 01       		.byte	0x1
 1743 00d4 77       		.byte	0x77
 1744 00d5 6F000000 		.4byte	0x6f
 1745 00d9 02       		.byte	0x2
 1746 00da 91       		.byte	0x91
 1747 00db 76       		.sleb128 -10
 1748 00dc 08       		.uleb128 0x8
 1749 00dd 7E000000 		.4byte	.LASF15
 1750 00e1 01       		.byte	0x1
 1751 00e2 78       		.byte	0x78
 1752 00e3 6F000000 		.4byte	0x6f
 1753 00e7 02       		.byte	0x2
 1754 00e8 91       		.byte	0x91
 1755 00e9 77       		.sleb128 -9
 1756 00ea 00       		.byte	0x0
 1757 00eb 09       		.uleb128 0x9
 1758 00ec 0E000000 		.4byte	.LASF49
 1759 00f0 01       		.byte	0x1
 1760 00f1 C1       		.byte	0xc1
 1761 00f2 01       		.byte	0x1
ARM GAS  C:\DOCUME~1\ADMINI~1\LOCALS~1\Temp\ccOjxVk4.s 			page 44


 1762 00f3 00000000 		.4byte	.LFB31
 1763 00f7 0C020000 		.4byte	.LFE31
 1764 00fb 62000000 		.4byte	.LLST2
 1765 00ff 74010000 		.4byte	0x174
 1766 0103 0A       		.uleb128 0xa
 1767 0104 BD010000 		.4byte	.LASF16
 1768 0108 01       		.byte	0x1
 1769 0109 C1       		.byte	0xc1
 1770 010a 6F000000 		.4byte	0x6f
 1771 010e 02       		.byte	0x2
 1772 010f 91       		.byte	0x91
 1773 0110 67       		.sleb128 -25
 1774 0111 0A       		.uleb128 0xa
 1775 0112 93010000 		.4byte	.LASF17
 1776 0116 01       		.byte	0x1
 1777 0117 C1       		.byte	0xc1
 1778 0118 6F000000 		.4byte	0x6f
 1779 011c 02       		.byte	0x2
 1780 011d 91       		.byte	0x91
 1781 011e 66       		.sleb128 -26
 1782 011f 0A       		.uleb128 0xa
 1783 0120 2F020000 		.4byte	.LASF18
 1784 0124 01       		.byte	0x1
 1785 0125 C1       		.byte	0xc1
 1786 0126 74010000 		.4byte	0x174
 1787 012a 02       		.byte	0x2
 1788 012b 91       		.byte	0x91
 1789 012c 60       		.sleb128 -32
 1790 012d 0A       		.uleb128 0xa
 1791 012e 32000000 		.4byte	.LASF19
 1792 0132 01       		.byte	0x1
 1793 0133 C1       		.byte	0xc1
 1794 0134 74010000 		.4byte	0x174
 1795 0138 02       		.byte	0x2
 1796 0139 91       		.byte	0x91
 1797 013a 5C       		.sleb128 -36
 1798 013b 08       		.uleb128 0x8
 1799 013c EC000000 		.4byte	.LASF20
 1800 0140 01       		.byte	0x1
 1801 0141 C3       		.byte	0xc3
 1802 0142 6F000000 		.4byte	0x6f
 1803 0146 02       		.byte	0x2
 1804 0147 91       		.byte	0x91
 1805 0148 6C       		.sleb128 -20
 1806 0149 08       		.uleb128 0x8
 1807 014a 54000000 		.4byte	.LASF21
 1808 014e 01       		.byte	0x1
 1809 014f C4       		.byte	0xc4
 1810 0150 6F000000 		.4byte	0x6f
 1811 0154 02       		.byte	0x2
 1812 0155 91       		.byte	0x91
 1813 0156 6D       		.sleb128 -19
 1814 0157 08       		.uleb128 0x8
 1815 0158 6E000000 		.4byte	.LASF22
 1816 015c 01       		.byte	0x1
 1817 015d C5       		.byte	0xc5
 1818 015e 6F000000 		.4byte	0x6f
ARM GAS  C:\DOCUME~1\ADMINI~1\LOCALS~1\Temp\ccOjxVk4.s 			page 45


 1819 0162 02       		.byte	0x2
 1820 0163 91       		.byte	0x91
 1821 0164 6E       		.sleb128 -18
 1822 0165 08       		.uleb128 0x8
 1823 0166 A0000000 		.4byte	.LASF23
 1824 016a 01       		.byte	0x1
 1825 016b C6       		.byte	0xc6
 1826 016c 6F000000 		.4byte	0x6f
 1827 0170 02       		.byte	0x2
 1828 0171 91       		.byte	0x91
 1829 0172 6F       		.sleb128 -17
 1830 0173 00       		.byte	0x0
 1831 0174 0B       		.uleb128 0xb
 1832 0175 04       		.byte	0x4
 1833 0176 6F000000 		.4byte	0x6f
 1834 017a 0C       		.uleb128 0xc
 1835 017b 1D000000 		.4byte	.LASF24
 1836 017f 01       		.byte	0x1
 1837 0180 5401     		.2byte	0x154
 1838 0182 01       		.byte	0x1
 1839 0183 00000000 		.4byte	.LFB32
 1840 0187 52000000 		.4byte	.LFE32
 1841 018b 99000000 		.4byte	.LLST3
 1842 018f 0C       		.uleb128 0xc
 1843 0190 03020000 		.4byte	.LASF25
 1844 0194 01       		.byte	0x1
 1845 0195 6701     		.2byte	0x167
 1846 0197 01       		.byte	0x1
 1847 0198 00000000 		.4byte	.LFB33
 1848 019c 52000000 		.4byte	.LFE33
 1849 01a0 C4000000 		.4byte	.LLST4
 1850 01a4 0D       		.uleb128 0xd
 1851 01a5 01       		.byte	0x1
 1852 01a6 8F020000 		.4byte	.LASF27
 1853 01aa 01       		.byte	0x1
 1854 01ab 7901     		.2byte	0x179
 1855 01ad 01       		.byte	0x1
 1856 01ae 00000000 		.4byte	.LFB34
 1857 01b2 5E000000 		.4byte	.LFE34
 1858 01b6 EF000000 		.4byte	.LLST5
 1859 01ba 0D       		.uleb128 0xd
 1860 01bb 01       		.byte	0x1
 1861 01bc 1C010000 		.4byte	.LASF28
 1862 01c0 01       		.byte	0x1
 1863 01c1 8D01     		.2byte	0x18d
 1864 01c3 01       		.byte	0x1
 1865 01c4 00000000 		.4byte	.LFB35
 1866 01c8 52000000 		.4byte	.LFE35
 1867 01cc 1A010000 		.4byte	.LLST6
 1868 01d0 0D       		.uleb128 0xd
 1869 01d1 01       		.byte	0x1
 1870 01d2 85000000 		.4byte	.LASF29
 1871 01d6 01       		.byte	0x1
 1872 01d7 A001     		.2byte	0x1a0
 1873 01d9 01       		.byte	0x1
 1874 01da 00000000 		.4byte	.LFB36
 1875 01de 24000000 		.4byte	.LFE36
ARM GAS  C:\DOCUME~1\ADMINI~1\LOCALS~1\Temp\ccOjxVk4.s 			page 46


 1876 01e2 45010000 		.4byte	.LLST7
 1877 01e6 0D       		.uleb128 0xd
 1878 01e7 01       		.byte	0x1
 1879 01e8 C7000000 		.4byte	.LASF30
 1880 01ec 01       		.byte	0x1
 1881 01ed B401     		.2byte	0x1b4
 1882 01ef 01       		.byte	0x1
 1883 01f0 00000000 		.4byte	.LFB37
 1884 01f4 26000000 		.4byte	.LFE37
 1885 01f8 70010000 		.4byte	.LLST8
 1886 01fc 0D       		.uleb128 0xd
 1887 01fd 01       		.byte	0x1
 1888 01fe 2D010000 		.4byte	.LASF31
 1889 0202 01       		.byte	0x1
 1890 0203 C601     		.2byte	0x1c6
 1891 0205 01       		.byte	0x1
 1892 0206 00000000 		.4byte	.LFB38
 1893 020a 0E000000 		.4byte	.LFE38
 1894 020e 9B010000 		.4byte	.LLST9
 1895 0212 0D       		.uleb128 0xd
 1896 0213 01       		.byte	0x1
 1897 0214 22020000 		.4byte	.LASF32
 1898 0218 01       		.byte	0x1
 1899 0219 D801     		.2byte	0x1d8
 1900 021b 01       		.byte	0x1
 1901 021c 00000000 		.4byte	.LFB39
 1902 0220 20000000 		.4byte	.LFE39
 1903 0224 C6010000 		.4byte	.LLST10
 1904 0228 0E       		.uleb128 0xe
 1905 0229 01       		.byte	0x1
 1906 022a FE000000 		.4byte	.LASF50
 1907 022e 01       		.byte	0x1
 1908 022f F401     		.2byte	0x1f4
 1909 0231 01       		.byte	0x1
 1910 0232 00000000 		.4byte	.LFB40
 1911 0236 5C050000 		.4byte	.LFE40
 1912 023a F1010000 		.4byte	.LLST11
 1913 023e 7F020000 		.4byte	0x27f
 1914 0242 0F       		.uleb128 0xf
 1915 0243 F5000000 		.4byte	.LASF33
 1916 0247 01       		.byte	0x1
 1917 0248 F601     		.2byte	0x1f6
 1918 024a 6F000000 		.4byte	0x6f
 1919 024e 02       		.byte	0x2
 1920 024f 91       		.byte	0x91
 1921 0250 72       		.sleb128 -14
 1922 0251 0F       		.uleb128 0xf
 1923 0252 93010000 		.4byte	.LASF17
 1924 0256 01       		.byte	0x1
 1925 0257 F701     		.2byte	0x1f7
 1926 0259 6F000000 		.4byte	0x6f
 1927 025d 02       		.byte	0x2
 1928 025e 91       		.byte	0x91
 1929 025f 73       		.sleb128 -13
 1930 0260 0F       		.uleb128 0xf
 1931 0261 3E000000 		.4byte	.LASF34
 1932 0265 01       		.byte	0x1
ARM GAS  C:\DOCUME~1\ADMINI~1\LOCALS~1\Temp\ccOjxVk4.s 			page 47


 1933 0266 F801     		.2byte	0x1f8
 1934 0268 7A000000 		.4byte	0x7a
 1935 026c 02       		.byte	0x2
 1936 026d 91       		.byte	0x91
 1937 026e 74       		.sleb128 -12
 1938 026f 0F       		.uleb128 0xf
 1939 0270 60010000 		.4byte	.LASF14
 1940 0274 01       		.byte	0x1
 1941 0275 F901     		.2byte	0x1f9
 1942 0277 6F000000 		.4byte	0x6f
 1943 027b 02       		.byte	0x2
 1944 027c 91       		.byte	0x91
 1945 027d 77       		.sleb128 -9
 1946 027e 00       		.byte	0x0
 1947 027f 10       		.uleb128 0x10
 1948 0280 0F010000 		.4byte	.LASF35
 1949 0284 03       		.byte	0x3
 1950 0285 CE06     		.2byte	0x6ce
 1951 0287 8D020000 		.4byte	0x28d
 1952 028b 01       		.byte	0x1
 1953 028c 01       		.byte	0x1
 1954 028d 11       		.uleb128 0x11
 1955 028e 61000000 		.4byte	0x61
 1956 0292 12       		.uleb128 0x12
 1957 0293 DA010000 		.4byte	.LASF36
 1958 0297 01       		.byte	0x1
 1959 0298 4E       		.byte	0x4e
 1960 0299 6F000000 		.4byte	0x6f
 1961 029d 01       		.byte	0x1
 1962 029e 05       		.byte	0x5
 1963 029f 03       		.byte	0x3
 1964 02a0 00000000 		.4byte	i2cSpeed
 1965 02a4 13       		.uleb128 0x13
 1966 02a5 6F000000 		.4byte	0x6f
 1967 02a9 B4020000 		.4byte	0x2b4
 1968 02ad 14       		.uleb128 0x14
 1969 02ae 9A000000 		.4byte	0x9a
 1970 02b2 3F       		.byte	0x3f
 1971 02b3 00       		.byte	0x0
 1972 02b4 12       		.uleb128 0x12
 1973 02b5 DB000000 		.4byte	.LASF37
 1974 02b9 01       		.byte	0x1
 1975 02ba 48       		.byte	0x48
 1976 02bb A4020000 		.4byte	0x2a4
 1977 02bf 01       		.byte	0x1
 1978 02c0 05       		.byte	0x5
 1979 02c1 03       		.byte	0x3
 1980 02c2 00000000 		.4byte	bOutEndpointData
 1981 02c6 12       		.uleb128 0x12
 1982 02c7 44000000 		.4byte	.LASF38
 1983 02cb 01       		.byte	0x1
 1984 02cc 49       		.byte	0x49
 1985 02cd A4020000 		.4byte	0x2a4
 1986 02d1 01       		.byte	0x1
 1987 02d2 05       		.byte	0x5
 1988 02d3 03       		.byte	0x3
 1989 02d4 00000000 		.4byte	bInEndpointData
ARM GAS  C:\DOCUME~1\ADMINI~1\LOCALS~1\Temp\ccOjxVk4.s 			page 48


 1990 02d8 13       		.uleb128 0x13
 1991 02d9 6F000000 		.4byte	0x6f
 1992 02dd E9020000 		.4byte	0x2e9
 1993 02e1 15       		.uleb128 0x15
 1994 02e2 9A000000 		.4byte	0x9a
 1995 02e6 0002     		.2byte	0x200
 1996 02e8 00       		.byte	0x0
 1997 02e9 12       		.uleb128 0x12
 1998 02ea 4C010000 		.4byte	.LASF39
 1999 02ee 01       		.byte	0x1
 2000 02ef 4A       		.byte	0x4a
 2001 02f0 D8020000 		.4byte	0x2d8
 2002 02f4 01       		.byte	0x1
 2003 02f5 05       		.byte	0x5
 2004 02f6 03       		.byte	0x3
 2005 02f7 00000000 		.4byte	bBulkInEndpointData
 2006 02fb 12       		.uleb128 0x12
 2007 02fc CA010000 		.4byte	.LASF40
 2008 0300 01       		.byte	0x1
 2009 0301 4B       		.byte	0x4b
 2010 0302 6F000000 		.4byte	0x6f
 2011 0306 01       		.byte	0x1
 2012 0307 05       		.byte	0x5
 2013 0308 03       		.byte	0x3
 2014 0309 00000000 		.4byte	bOutPacketIndex
 2015 030d 12       		.uleb128 0x12
 2016 030e B8000000 		.4byte	.LASF41
 2017 0312 01       		.byte	0x1
 2018 0313 4C       		.byte	0x4c
 2019 0314 6F000000 		.4byte	0x6f
 2020 0318 01       		.byte	0x1
 2021 0319 05       		.byte	0x5
 2022 031a 03       		.byte	0x3
 2023 031b 00000000 		.4byte	bInPacketIndex
 2024 031f 16       		.uleb128 0x16
 2025 0320 A9020000 		.4byte	.LASF42
 2026 0324 04       		.byte	0x4
 2027 0325 45       		.byte	0x45
 2028 0326 6F000000 		.4byte	0x6f
 2029 032a 01       		.byte	0x1
 2030 032b 01       		.byte	0x1
 2031 032c 12       		.uleb128 0x12
 2032 032d E3010000 		.4byte	.LASF43
 2033 0331 01       		.byte	0x1
 2034 0332 4D       		.byte	0x4d
 2035 0333 6F000000 		.4byte	0x6f
 2036 0337 01       		.byte	0x1
 2037 0338 05       		.byte	0x5
 2038 0339 03       		.byte	0x3
 2039 033a 00000000 		.4byte	bHostInterface
 2040 033e 12       		.uleb128 0x12
 2041 033f 07010000 		.4byte	.LASF44
 2042 0343 01       		.byte	0x1
 2043 0344 4F       		.byte	0x4f
 2044 0345 7A000000 		.4byte	0x7a
 2045 0349 01       		.byte	0x1
 2046 034a 05       		.byte	0x5
ARM GAS  C:\DOCUME~1\ADMINI~1\LOCALS~1\Temp\ccOjxVk4.s 			page 49


 2047 034b 03       		.byte	0x3
 2048 034c 00000000 		.4byte	voltage
 2049 0350 00       		.byte	0x0
 2050              		.section	.debug_abbrev
 2051 0000 01       		.uleb128 0x1
 2052 0001 11       		.uleb128 0x11
 2053 0002 01       		.byte	0x1
 2054 0003 25       		.uleb128 0x25
 2055 0004 0E       		.uleb128 0xe
 2056 0005 13       		.uleb128 0x13
 2057 0006 0B       		.uleb128 0xb
 2058 0007 03       		.uleb128 0x3
 2059 0008 0E       		.uleb128 0xe
 2060 0009 1B       		.uleb128 0x1b
 2061 000a 0E       		.uleb128 0xe
 2062 000b 11       		.uleb128 0x11
 2063 000c 01       		.uleb128 0x1
 2064 000d 52       		.uleb128 0x52
 2065 000e 01       		.uleb128 0x1
 2066 000f 55       		.uleb128 0x55
 2067 0010 06       		.uleb128 0x6
 2068 0011 10       		.uleb128 0x10
 2069 0012 06       		.uleb128 0x6
 2070 0013 00       		.byte	0x0
 2071 0014 00       		.byte	0x0
 2072 0015 02       		.uleb128 0x2
 2073 0016 24       		.uleb128 0x24
 2074 0017 00       		.byte	0x0
 2075 0018 0B       		.uleb128 0xb
 2076 0019 0B       		.uleb128 0xb
 2077 001a 3E       		.uleb128 0x3e
 2078 001b 0B       		.uleb128 0xb
 2079 001c 03       		.uleb128 0x3
 2080 001d 0E       		.uleb128 0xe
 2081 001e 00       		.byte	0x0
 2082 001f 00       		.byte	0x0
 2083 0020 03       		.uleb128 0x3
 2084 0021 24       		.uleb128 0x24
 2085 0022 00       		.byte	0x0
 2086 0023 0B       		.uleb128 0xb
 2087 0024 0B       		.uleb128 0xb
 2088 0025 3E       		.uleb128 0x3e
 2089 0026 0B       		.uleb128 0xb
 2090 0027 03       		.uleb128 0x3
 2091 0028 08       		.uleb128 0x8
 2092 0029 00       		.byte	0x0
 2093 002a 00       		.byte	0x0
 2094 002b 04       		.uleb128 0x4
 2095 002c 16       		.uleb128 0x16
 2096 002d 00       		.byte	0x0
 2097 002e 03       		.uleb128 0x3
 2098 002f 0E       		.uleb128 0xe
 2099 0030 3A       		.uleb128 0x3a
 2100 0031 0B       		.uleb128 0xb
 2101 0032 3B       		.uleb128 0x3b
 2102 0033 0B       		.uleb128 0xb
 2103 0034 49       		.uleb128 0x49
ARM GAS  C:\DOCUME~1\ADMINI~1\LOCALS~1\Temp\ccOjxVk4.s 			page 50


 2104 0035 13       		.uleb128 0x13
 2105 0036 00       		.byte	0x0
 2106 0037 00       		.byte	0x0
 2107 0038 05       		.uleb128 0x5
 2108 0039 24       		.uleb128 0x24
 2109 003a 00       		.byte	0x0
 2110 003b 0B       		.uleb128 0xb
 2111 003c 0B       		.uleb128 0xb
 2112 003d 3E       		.uleb128 0x3e
 2113 003e 0B       		.uleb128 0xb
 2114 003f 00       		.byte	0x0
 2115 0040 00       		.byte	0x0
 2116 0041 06       		.uleb128 0x6
 2117 0042 2E       		.uleb128 0x2e
 2118 0043 00       		.byte	0x0
 2119 0044 3F       		.uleb128 0x3f
 2120 0045 0C       		.uleb128 0xc
 2121 0046 03       		.uleb128 0x3
 2122 0047 0E       		.uleb128 0xe
 2123 0048 3A       		.uleb128 0x3a
 2124 0049 0B       		.uleb128 0xb
 2125 004a 3B       		.uleb128 0x3b
 2126 004b 0B       		.uleb128 0xb
 2127 004c 27       		.uleb128 0x27
 2128 004d 0C       		.uleb128 0xc
 2129 004e 11       		.uleb128 0x11
 2130 004f 01       		.uleb128 0x1
 2131 0050 12       		.uleb128 0x12
 2132 0051 01       		.uleb128 0x1
 2133 0052 40       		.uleb128 0x40
 2134 0053 06       		.uleb128 0x6
 2135 0054 00       		.byte	0x0
 2136 0055 00       		.byte	0x0
 2137 0056 07       		.uleb128 0x7
 2138 0057 2E       		.uleb128 0x2e
 2139 0058 01       		.byte	0x1
 2140 0059 03       		.uleb128 0x3
 2141 005a 0E       		.uleb128 0xe
 2142 005b 3A       		.uleb128 0x3a
 2143 005c 0B       		.uleb128 0xb
 2144 005d 3B       		.uleb128 0x3b
 2145 005e 0B       		.uleb128 0xb
 2146 005f 27       		.uleb128 0x27
 2147 0060 0C       		.uleb128 0xc
 2148 0061 49       		.uleb128 0x49
 2149 0062 13       		.uleb128 0x13
 2150 0063 11       		.uleb128 0x11
 2151 0064 01       		.uleb128 0x1
 2152 0065 12       		.uleb128 0x12
 2153 0066 01       		.uleb128 0x1
 2154 0067 40       		.uleb128 0x40
 2155 0068 06       		.uleb128 0x6
 2156 0069 01       		.uleb128 0x1
 2157 006a 13       		.uleb128 0x13
 2158 006b 00       		.byte	0x0
 2159 006c 00       		.byte	0x0
 2160 006d 08       		.uleb128 0x8
ARM GAS  C:\DOCUME~1\ADMINI~1\LOCALS~1\Temp\ccOjxVk4.s 			page 51


 2161 006e 34       		.uleb128 0x34
 2162 006f 00       		.byte	0x0
 2163 0070 03       		.uleb128 0x3
 2164 0071 0E       		.uleb128 0xe
 2165 0072 3A       		.uleb128 0x3a
 2166 0073 0B       		.uleb128 0xb
 2167 0074 3B       		.uleb128 0x3b
 2168 0075 0B       		.uleb128 0xb
 2169 0076 49       		.uleb128 0x49
 2170 0077 13       		.uleb128 0x13
 2171 0078 02       		.uleb128 0x2
 2172 0079 0A       		.uleb128 0xa
 2173 007a 00       		.byte	0x0
 2174 007b 00       		.byte	0x0
 2175 007c 09       		.uleb128 0x9
 2176 007d 2E       		.uleb128 0x2e
 2177 007e 01       		.byte	0x1
 2178 007f 03       		.uleb128 0x3
 2179 0080 0E       		.uleb128 0xe
 2180 0081 3A       		.uleb128 0x3a
 2181 0082 0B       		.uleb128 0xb
 2182 0083 3B       		.uleb128 0x3b
 2183 0084 0B       		.uleb128 0xb
 2184 0085 27       		.uleb128 0x27
 2185 0086 0C       		.uleb128 0xc
 2186 0087 11       		.uleb128 0x11
 2187 0088 01       		.uleb128 0x1
 2188 0089 12       		.uleb128 0x12
 2189 008a 01       		.uleb128 0x1
 2190 008b 40       		.uleb128 0x40
 2191 008c 06       		.uleb128 0x6
 2192 008d 01       		.uleb128 0x1
 2193 008e 13       		.uleb128 0x13
 2194 008f 00       		.byte	0x0
 2195 0090 00       		.byte	0x0
 2196 0091 0A       		.uleb128 0xa
 2197 0092 05       		.uleb128 0x5
 2198 0093 00       		.byte	0x0
 2199 0094 03       		.uleb128 0x3
 2200 0095 0E       		.uleb128 0xe
 2201 0096 3A       		.uleb128 0x3a
 2202 0097 0B       		.uleb128 0xb
 2203 0098 3B       		.uleb128 0x3b
 2204 0099 0B       		.uleb128 0xb
 2205 009a 49       		.uleb128 0x49
 2206 009b 13       		.uleb128 0x13
 2207 009c 02       		.uleb128 0x2
 2208 009d 0A       		.uleb128 0xa
 2209 009e 00       		.byte	0x0
 2210 009f 00       		.byte	0x0
 2211 00a0 0B       		.uleb128 0xb
 2212 00a1 0F       		.uleb128 0xf
 2213 00a2 00       		.byte	0x0
 2214 00a3 0B       		.uleb128 0xb
 2215 00a4 0B       		.uleb128 0xb
 2216 00a5 49       		.uleb128 0x49
 2217 00a6 13       		.uleb128 0x13
ARM GAS  C:\DOCUME~1\ADMINI~1\LOCALS~1\Temp\ccOjxVk4.s 			page 52


 2218 00a7 00       		.byte	0x0
 2219 00a8 00       		.byte	0x0
 2220 00a9 0C       		.uleb128 0xc
 2221 00aa 2E       		.uleb128 0x2e
 2222 00ab 00       		.byte	0x0
 2223 00ac 03       		.uleb128 0x3
 2224 00ad 0E       		.uleb128 0xe
 2225 00ae 3A       		.uleb128 0x3a
 2226 00af 0B       		.uleb128 0xb
 2227 00b0 3B       		.uleb128 0x3b
 2228 00b1 05       		.uleb128 0x5
 2229 00b2 27       		.uleb128 0x27
 2230 00b3 0C       		.uleb128 0xc
 2231 00b4 11       		.uleb128 0x11
 2232 00b5 01       		.uleb128 0x1
 2233 00b6 12       		.uleb128 0x12
 2234 00b7 01       		.uleb128 0x1
 2235 00b8 40       		.uleb128 0x40
 2236 00b9 06       		.uleb128 0x6
 2237 00ba 00       		.byte	0x0
 2238 00bb 00       		.byte	0x0
 2239 00bc 0D       		.uleb128 0xd
 2240 00bd 2E       		.uleb128 0x2e
 2241 00be 00       		.byte	0x0
 2242 00bf 3F       		.uleb128 0x3f
 2243 00c0 0C       		.uleb128 0xc
 2244 00c1 03       		.uleb128 0x3
 2245 00c2 0E       		.uleb128 0xe
 2246 00c3 3A       		.uleb128 0x3a
 2247 00c4 0B       		.uleb128 0xb
 2248 00c5 3B       		.uleb128 0x3b
 2249 00c6 05       		.uleb128 0x5
 2250 00c7 27       		.uleb128 0x27
 2251 00c8 0C       		.uleb128 0xc
 2252 00c9 11       		.uleb128 0x11
 2253 00ca 01       		.uleb128 0x1
 2254 00cb 12       		.uleb128 0x12
 2255 00cc 01       		.uleb128 0x1
 2256 00cd 40       		.uleb128 0x40
 2257 00ce 06       		.uleb128 0x6
 2258 00cf 00       		.byte	0x0
 2259 00d0 00       		.byte	0x0
 2260 00d1 0E       		.uleb128 0xe
 2261 00d2 2E       		.uleb128 0x2e
 2262 00d3 01       		.byte	0x1
 2263 00d4 3F       		.uleb128 0x3f
 2264 00d5 0C       		.uleb128 0xc
 2265 00d6 03       		.uleb128 0x3
 2266 00d7 0E       		.uleb128 0xe
 2267 00d8 3A       		.uleb128 0x3a
 2268 00d9 0B       		.uleb128 0xb
 2269 00da 3B       		.uleb128 0x3b
 2270 00db 05       		.uleb128 0x5
 2271 00dc 27       		.uleb128 0x27
 2272 00dd 0C       		.uleb128 0xc
 2273 00de 11       		.uleb128 0x11
 2274 00df 01       		.uleb128 0x1
ARM GAS  C:\DOCUME~1\ADMINI~1\LOCALS~1\Temp\ccOjxVk4.s 			page 53


 2275 00e0 12       		.uleb128 0x12
 2276 00e1 01       		.uleb128 0x1
 2277 00e2 40       		.uleb128 0x40
 2278 00e3 06       		.uleb128 0x6
 2279 00e4 01       		.uleb128 0x1
 2280 00e5 13       		.uleb128 0x13
 2281 00e6 00       		.byte	0x0
 2282 00e7 00       		.byte	0x0
 2283 00e8 0F       		.uleb128 0xf
 2284 00e9 34       		.uleb128 0x34
 2285 00ea 00       		.byte	0x0
 2286 00eb 03       		.uleb128 0x3
 2287 00ec 0E       		.uleb128 0xe
 2288 00ed 3A       		.uleb128 0x3a
 2289 00ee 0B       		.uleb128 0xb
 2290 00ef 3B       		.uleb128 0x3b
 2291 00f0 05       		.uleb128 0x5
 2292 00f1 49       		.uleb128 0x49
 2293 00f2 13       		.uleb128 0x13
 2294 00f3 02       		.uleb128 0x2
 2295 00f4 0A       		.uleb128 0xa
 2296 00f5 00       		.byte	0x0
 2297 00f6 00       		.byte	0x0
 2298 00f7 10       		.uleb128 0x10
 2299 00f8 34       		.uleb128 0x34
 2300 00f9 00       		.byte	0x0
 2301 00fa 03       		.uleb128 0x3
 2302 00fb 0E       		.uleb128 0xe
 2303 00fc 3A       		.uleb128 0x3a
 2304 00fd 0B       		.uleb128 0xb
 2305 00fe 3B       		.uleb128 0x3b
 2306 00ff 05       		.uleb128 0x5
 2307 0100 49       		.uleb128 0x49
 2308 0101 13       		.uleb128 0x13
 2309 0102 3F       		.uleb128 0x3f
 2310 0103 0C       		.uleb128 0xc
 2311 0104 3C       		.uleb128 0x3c
 2312 0105 0C       		.uleb128 0xc
 2313 0106 00       		.byte	0x0
 2314 0107 00       		.byte	0x0
 2315 0108 11       		.uleb128 0x11
 2316 0109 35       		.uleb128 0x35
 2317 010a 00       		.byte	0x0
 2318 010b 49       		.uleb128 0x49
 2319 010c 13       		.uleb128 0x13
 2320 010d 00       		.byte	0x0
 2321 010e 00       		.byte	0x0
 2322 010f 12       		.uleb128 0x12
 2323 0110 34       		.uleb128 0x34
 2324 0111 00       		.byte	0x0
 2325 0112 03       		.uleb128 0x3
 2326 0113 0E       		.uleb128 0xe
 2327 0114 3A       		.uleb128 0x3a
 2328 0115 0B       		.uleb128 0xb
 2329 0116 3B       		.uleb128 0x3b
 2330 0117 0B       		.uleb128 0xb
 2331 0118 49       		.uleb128 0x49
ARM GAS  C:\DOCUME~1\ADMINI~1\LOCALS~1\Temp\ccOjxVk4.s 			page 54


 2332 0119 13       		.uleb128 0x13
 2333 011a 3F       		.uleb128 0x3f
 2334 011b 0C       		.uleb128 0xc
 2335 011c 02       		.uleb128 0x2
 2336 011d 0A       		.uleb128 0xa
 2337 011e 00       		.byte	0x0
 2338 011f 00       		.byte	0x0
 2339 0120 13       		.uleb128 0x13
 2340 0121 01       		.uleb128 0x1
 2341 0122 01       		.byte	0x1
 2342 0123 49       		.uleb128 0x49
 2343 0124 13       		.uleb128 0x13
 2344 0125 01       		.uleb128 0x1
 2345 0126 13       		.uleb128 0x13
 2346 0127 00       		.byte	0x0
 2347 0128 00       		.byte	0x0
 2348 0129 14       		.uleb128 0x14
 2349 012a 21       		.uleb128 0x21
 2350 012b 00       		.byte	0x0
 2351 012c 49       		.uleb128 0x49
 2352 012d 13       		.uleb128 0x13
 2353 012e 2F       		.uleb128 0x2f
 2354 012f 0B       		.uleb128 0xb
 2355 0130 00       		.byte	0x0
 2356 0131 00       		.byte	0x0
 2357 0132 15       		.uleb128 0x15
 2358 0133 21       		.uleb128 0x21
 2359 0134 00       		.byte	0x0
 2360 0135 49       		.uleb128 0x49
 2361 0136 13       		.uleb128 0x13
 2362 0137 2F       		.uleb128 0x2f
 2363 0138 05       		.uleb128 0x5
 2364 0139 00       		.byte	0x0
 2365 013a 00       		.byte	0x0
 2366 013b 16       		.uleb128 0x16
 2367 013c 34       		.uleb128 0x34
 2368 013d 00       		.byte	0x0
 2369 013e 03       		.uleb128 0x3
 2370 013f 0E       		.uleb128 0xe
 2371 0140 3A       		.uleb128 0x3a
 2372 0141 0B       		.uleb128 0xb
 2373 0142 3B       		.uleb128 0x3b
 2374 0143 0B       		.uleb128 0xb
 2375 0144 49       		.uleb128 0x49
 2376 0145 13       		.uleb128 0x13
 2377 0146 3F       		.uleb128 0x3f
 2378 0147 0C       		.uleb128 0xc
 2379 0148 3C       		.uleb128 0x3c
 2380 0149 0C       		.uleb128 0xc
 2381 014a 00       		.byte	0x0
 2382 014b 00       		.byte	0x0
 2383 014c 00       		.byte	0x0
 2384              		.section	.debug_pubnames,"",%progbits
 2385 0000 39010000 		.4byte	0x139
 2386 0004 0200     		.2byte	0x2
 2387 0006 00000000 		.4byte	.Ldebug_info0
 2388 000a 51030000 		.4byte	0x351
ARM GAS  C:\DOCUME~1\ADMINI~1\LOCALS~1\Temp\ccOjxVk4.s 			page 55


 2389 000e 9D000000 		.4byte	0x9d
 2390 0012 53656E64 		.ascii	"SendToUSB\000"
 2390      546F5553 
 2390      4200
 2391 001c A4010000 		.4byte	0x1a4
 2392 0020 49324350 		.ascii	"I2CPullUpEnable\000"
 2392      756C6C55 
 2392      70456E61 
 2392      626C6500 
 2393 0030 BA010000 		.4byte	0x1ba
 2394 0034 49324350 		.ascii	"I2CPullUpDisable\000"
 2394      756C6C55 
 2394      70446973 
 2394      61626C65 
 2394      00
 2395 0045 D0010000 		.4byte	0x1d0
 2396 0049 4932435F 		.ascii	"I2C_DSIBypassDisable\000"
 2396      44534942 
 2396      79706173 
 2396      73446973 
 2396      61626C65 
 2397 005e E6010000 		.4byte	0x1e6
 2398 0062 4932435F 		.ascii	"I2C_DSIBypassEnable\000"
 2398      44534942 
 2398      79706173 
 2398      73456E61 
 2398      626C6500 
 2399 0076 FC010000 		.4byte	0x1fc
 2400 007a 486F7374 		.ascii	"HostCommStop\000"
 2400      436F6D6D 
 2400      53746F70 
 2400      00
 2401 0087 12020000 		.4byte	0x212
 2402 008b 486F7374 		.ascii	"HostCommInit\000"
 2402      436F6D6D 
 2402      496E6974 
 2402      00
 2403 0098 28020000 		.4byte	0x228
 2404 009c 486F7374 		.ascii	"HostComm\000"
 2404      436F6D6D 
 2404      00
 2405 00a5 92020000 		.4byte	0x292
 2406 00a9 69326353 		.ascii	"i2cSpeed\000"
 2406      70656564 
 2406      00
 2407 00b2 B4020000 		.4byte	0x2b4
 2408 00b6 624F7574 		.ascii	"bOutEndpointData\000"
 2408      456E6470 
 2408      6F696E74 
 2408      44617461 
 2408      00
 2409 00c7 C6020000 		.4byte	0x2c6
 2410 00cb 62496E45 		.ascii	"bInEndpointData\000"
 2410      6E64706F 
 2410      696E7444 
 2410      61746100 
 2411 00db E9020000 		.4byte	0x2e9
ARM GAS  C:\DOCUME~1\ADMINI~1\LOCALS~1\Temp\ccOjxVk4.s 			page 56


 2412 00df 6242756C 		.ascii	"bBulkInEndpointData\000"
 2412      6B496E45 
 2412      6E64706F 
 2412      696E7444 
 2412      61746100 
 2413 00f3 FB020000 		.4byte	0x2fb
 2414 00f7 624F7574 		.ascii	"bOutPacketIndex\000"
 2414      5061636B 
 2414      6574496E 
 2414      64657800 
 2415 0107 0D030000 		.4byte	0x30d
 2416 010b 62496E50 		.ascii	"bInPacketIndex\000"
 2416      61636B65 
 2416      74496E64 
 2416      657800
 2417 011a 2C030000 		.4byte	0x32c
 2418 011e 62486F73 		.ascii	"bHostInterface\000"
 2418      74496E74 
 2418      65726661 
 2418      636500
 2419 012d 3E030000 		.4byte	0x33e
 2420 0131 766F6C74 		.ascii	"voltage\000"
 2420      61676500 
 2421 0139 00000000 		.4byte	0x0
 2422              		.section	.debug_aranges,"",%progbits
 2423 0000 74000000 		.4byte	0x74
 2424 0004 0200     		.2byte	0x2
 2425 0006 00000000 		.4byte	.Ldebug_info0
 2426 000a 04       		.byte	0x4
 2427 000b 00       		.byte	0x0
 2428 000c 0000     		.2byte	0x0
 2429 000e 0000     		.2byte	0x0
 2430 0010 00000000 		.4byte	.LFB29
 2431 0014 30000000 		.4byte	.LFE29-.LFB29
 2432 0018 00000000 		.4byte	.LFB30
 2433 001c C0000000 		.4byte	.LFE30-.LFB30
 2434 0020 00000000 		.4byte	.LFB31
 2435 0024 0C020000 		.4byte	.LFE31-.LFB31
 2436 0028 00000000 		.4byte	.LFB32
 2437 002c 52000000 		.4byte	.LFE32-.LFB32
 2438 0030 00000000 		.4byte	.LFB33
 2439 0034 52000000 		.4byte	.LFE33-.LFB33
 2440 0038 00000000 		.4byte	.LFB34
 2441 003c 5E000000 		.4byte	.LFE34-.LFB34
 2442 0040 00000000 		.4byte	.LFB35
 2443 0044 52000000 		.4byte	.LFE35-.LFB35
 2444 0048 00000000 		.4byte	.LFB36
 2445 004c 24000000 		.4byte	.LFE36-.LFB36
 2446 0050 00000000 		.4byte	.LFB37
 2447 0054 26000000 		.4byte	.LFE37-.LFB37
 2448 0058 00000000 		.4byte	.LFB38
 2449 005c 0E000000 		.4byte	.LFE38-.LFB38
 2450 0060 00000000 		.4byte	.LFB39
 2451 0064 20000000 		.4byte	.LFE39-.LFB39
 2452 0068 00000000 		.4byte	.LFB40
 2453 006c 5C050000 		.4byte	.LFE40-.LFB40
 2454 0070 00000000 		.4byte	0x0
ARM GAS  C:\DOCUME~1\ADMINI~1\LOCALS~1\Temp\ccOjxVk4.s 			page 57


 2455 0074 00000000 		.4byte	0x0
 2456              		.section	.debug_ranges,"",%progbits
 2457              	.Ldebug_ranges0:
 2458 0000 00000000 		.4byte	.Ltext0
 2459 0004 00000000 		.4byte	.Letext0
 2460 0008 00000000 		.4byte	.LFB29
 2461 000c 30000000 		.4byte	.LFE29
 2462 0010 00000000 		.4byte	.LFB30
 2463 0014 C0000000 		.4byte	.LFE30
 2464 0018 00000000 		.4byte	.LFB31
 2465 001c 0C020000 		.4byte	.LFE31
 2466 0020 00000000 		.4byte	.LFB32
 2467 0024 52000000 		.4byte	.LFE32
 2468 0028 00000000 		.4byte	.LFB33
 2469 002c 52000000 		.4byte	.LFE33
 2470 0030 00000000 		.4byte	.LFB34
 2471 0034 5E000000 		.4byte	.LFE34
 2472 0038 00000000 		.4byte	.LFB35
 2473 003c 52000000 		.4byte	.LFE35
 2474 0040 00000000 		.4byte	.LFB36
 2475 0044 24000000 		.4byte	.LFE36
 2476 0048 00000000 		.4byte	.LFB37
 2477 004c 26000000 		.4byte	.LFE37
 2478 0050 00000000 		.4byte	.LFB38
 2479 0054 0E000000 		.4byte	.LFE38
 2480 0058 00000000 		.4byte	.LFB39
 2481 005c 20000000 		.4byte	.LFE39
 2482 0060 00000000 		.4byte	.LFB40
 2483 0064 5C050000 		.4byte	.LFE40
 2484 0068 00000000 		.4byte	0x0
 2485 006c 00000000 		.4byte	0x0
 2486              		.section	.debug_str,"MS",%progbits,1
 2487              	.LASF6:
 2488 0000 6C6F6E67 		.ascii	"long long int\000"
 2488      206C6F6E 
 2488      6720696E 
 2488      7400
 2489              	.LASF49:
 2490 000e 49324354 		.ascii	"I2CTransaction\000"
 2490      72616E73 
 2490      61637469 
 2490      6F6E00
 2491              	.LASF24:
 2492 001d 49324350 		.ascii	"I2CPinPullUpDriveLow\000"
 2492      696E5075 
 2492      6C6C5570 
 2492      44726976 
 2492      654C6F77 
 2493              	.LASF19:
 2494 0032 62526574 		.ascii	"bReturnData\000"
 2494      75726E44 
 2494      61746100 
 2495              	.LASF34:
 2496 003e 636F756E 		.ascii	"count\000"
 2496      7400
 2497              	.LASF38:
 2498 0044 62496E45 		.ascii	"bInEndpointData\000"
ARM GAS  C:\DOCUME~1\ADMINI~1\LOCALS~1\Temp\ccOjxVk4.s 			page 58


 2498      6E64706F 
 2498      696E7444 
 2498      61746100 
 2499              	.LASF21:
 2500 0054 62496E64 		.ascii	"bIndex\000"
 2500      657800
 2501              	.LASF3:
 2502 005b 73686F72 		.ascii	"short unsigned int\000"
 2502      7420756E 
 2502      7369676E 
 2502      65642069 
 2502      6E7400
 2503              	.LASF22:
 2504 006e 666C6167 		.ascii	"flag_ACK\000"
 2504      5F41434B 
 2504      00
 2505              	.LASF12:
 2506 0077 646F7562 		.ascii	"double\000"
 2506      6C6500
 2507              	.LASF15:
 2508 007e 73746174 		.ascii	"status\000"
 2508      757300
 2509              	.LASF29:
 2510 0085 4932435F 		.ascii	"I2C_DSIBypassDisable\000"
 2510      44534942 
 2510      79706173 
 2510      73446973 
 2510      61626C65 
 2511              	.LASF11:
 2512 009a 666C6F61 		.ascii	"float\000"
 2512      7400
 2513              	.LASF23:
 2514 00a0 666C6167 		.ascii	"flag_exit\000"
 2514      5F657869 
 2514      7400
 2515              	.LASF1:
 2516 00aa 756E7369 		.ascii	"unsigned char\000"
 2516      676E6564 
 2516      20636861 
 2516      7200
 2517              	.LASF41:
 2518 00b8 62496E50 		.ascii	"bInPacketIndex\000"
 2518      61636B65 
 2518      74496E64 
 2518      657800
 2519              	.LASF30:
 2520 00c7 4932435F 		.ascii	"I2C_DSIBypassEnable\000"
 2520      44534942 
 2520      79706173 
 2520      73456E61 
 2520      626C6500 
 2521              	.LASF37:
 2522 00db 624F7574 		.ascii	"bOutEndpointData\000"
 2522      456E6470 
 2522      6F696E74 
 2522      44617461 
 2522      00
ARM GAS  C:\DOCUME~1\ADMINI~1\LOCALS~1\Temp\ccOjxVk4.s 			page 59


 2523              	.LASF20:
 2524 00ec 62436F75 		.ascii	"bCounter\000"
 2524      6E746572 
 2524      00
 2525              	.LASF33:
 2526 00f5 62436F6E 		.ascii	"bControl\000"
 2526      74726F6C 
 2526      00
 2527              	.LASF50:
 2528 00fe 486F7374 		.ascii	"HostComm\000"
 2528      436F6D6D 
 2528      00
 2529              	.LASF44:
 2530 0107 766F6C74 		.ascii	"voltage\000"
 2530      61676500 
 2531              	.LASF35:
 2532 010f 49544D5F 		.ascii	"ITM_RxBuffer\000"
 2532      52784275 
 2532      66666572 
 2532      00
 2533              	.LASF28:
 2534 011c 49324350 		.ascii	"I2CPullUpDisable\000"
 2534      756C6C55 
 2534      70446973 
 2534      61626C65 
 2534      00
 2535              	.LASF31:
 2536 012d 486F7374 		.ascii	"HostCommStop\000"
 2536      436F6D6D 
 2536      53746F70 
 2536      00
 2537              	.LASF5:
 2538 013a 6C6F6E67 		.ascii	"long unsigned int\000"
 2538      20756E73 
 2538      69676E65 
 2538      6420696E 
 2538      7400
 2539              	.LASF39:
 2540 014c 6242756C 		.ascii	"bBulkInEndpointData\000"
 2540      6B496E45 
 2540      6E64706F 
 2540      696E7444 
 2540      61746100 
 2541              	.LASF14:
 2542 0160 62436F75 		.ascii	"bCount\000"
 2542      6E7400
 2543              	.LASF10:
 2544 0167 75696E74 		.ascii	"uint16\000"
 2544      313600
 2545              	.LASF46:
 2546 016e 2E5C5553 		.ascii	".\\USBFS_HID_interface.c\000"
 2546      4246535F 
 2546      4849445F 
 2546      696E7465 
 2546      72666163 
 2547              	.LASF8:
 2548 0186 756E7369 		.ascii	"unsigned int\000"
ARM GAS  C:\DOCUME~1\ADMINI~1\LOCALS~1\Temp\ccOjxVk4.s 			page 60


 2548      676E6564 
 2548      20696E74 
 2548      00
 2549              	.LASF17:
 2550 0193 624C656E 		.ascii	"bLength\000"
 2550      67746800 
 2551              	.LASF7:
 2552 019b 6C6F6E67 		.ascii	"long long unsigned int\000"
 2552      206C6F6E 
 2552      6720756E 
 2552      7369676E 
 2552      65642069 
 2553              	.LASF48:
 2554 01b2 49324352 		.ascii	"I2CRestart\000"
 2554      65737461 
 2554      727400
 2555              	.LASF16:
 2556 01bd 62436F6E 		.ascii	"bControlByte\000"
 2556      74726F6C 
 2556      42797465 
 2556      00
 2557              	.LASF40:
 2558 01ca 624F7574 		.ascii	"bOutPacketIndex\000"
 2558      5061636B 
 2558      6574496E 
 2558      64657800 
 2559              	.LASF36:
 2560 01da 69326353 		.ascii	"i2cSpeed\000"
 2560      70656564 
 2560      00
 2561              	.LASF43:
 2562 01e3 62486F73 		.ascii	"bHostInterface\000"
 2562      74496E74 
 2562      65726661 
 2562      636500
 2563              	.LASF45:
 2564 01f2 474E5520 		.ascii	"GNU C 4.4.1\000"
 2564      4320342E 
 2564      342E3100 
 2565              	.LASF13:
 2566 01fe 63686172 		.ascii	"char\000"
 2566      00
 2567              	.LASF25:
 2568 0203 49324350 		.ascii	"I2CPinTriState\000"
 2568      696E5472 
 2568      69537461 
 2568      746500
 2569              	.LASF2:
 2570 0212 73686F72 		.ascii	"short int\000"
 2570      7420696E 
 2570      7400
 2571              	.LASF9:
 2572 021c 75696E74 		.ascii	"uint8\000"
 2572      3800
 2573              	.LASF32:
 2574 0222 486F7374 		.ascii	"HostCommInit\000"
 2574      436F6D6D 
ARM GAS  C:\DOCUME~1\ADMINI~1\LOCALS~1\Temp\ccOjxVk4.s 			page 61


 2574      496E6974 
 2574      00
 2575              	.LASF18:
 2576 022f 62436F6D 		.ascii	"bCommandData\000"
 2576      6D616E64 
 2576      44617461 
 2576      00
 2577              	.LASF4:
 2578 023c 6C6F6E67 		.ascii	"long int\000"
 2578      20696E74 
 2578      00
 2579              	.LASF0:
 2580 0245 7369676E 		.ascii	"signed char\000"
 2580      65642063 
 2580      68617200 
 2581              	.LASF47:
 2582 0251 5C5C7073 		.ascii	"\\\\psf\\Home\\Desktop\\KitProg version 2_03\\KitPr"
 2582      665C486F 
 2582      6D655C44 
 2582      65736B74 
 2582      6F705C4B 
 2583 027e 6F675C4B 		.ascii	"og\\KitProg.cydsn\000"
 2583      69745072 
 2583      6F672E63 
 2583      7964736E 
 2583      00
 2584              	.LASF27:
 2585 028f 49324350 		.ascii	"I2CPullUpEnable\000"
 2585      756C6C55 
 2585      70456E61 
 2585      626C6500 
 2586              	.LASF26:
 2587 029f 53656E64 		.ascii	"SendToUSB\000"
 2587      546F5553 
 2587      4200
 2588              	.LASF42:
 2589 02a9 6B697450 		.ascii	"kitProgHWVersion\000"
 2589      726F6748 
 2589      57566572 
 2589      73696F6E 
 2589      00
 2590              		.ident	"GCC: (Sourcery G++ Lite 2010q1-188) 4.4.1"
