ARM GAS  C:\DOCUME~1\ADMINI~1\LOCALS~1\Temp\ccOjxVk4.s 			page 1


   1              		.syntax unified
   2              		.cpu cortex-m3
   3              		.fpu softvfp
   4              		.eabi_attribute 20, 1
   5              		.eabi_attribute 21, 1
   6              		.eabi_attribute 23, 3
   7              		.eabi_attribute 24, 1
   8              		.eabi_attribute 25, 1
   9              		.eabi_attribute 26, 1
  10              		.eabi_attribute 30, 6
  11              		.eabi_attribute 18, 4
  12              		.thumb
  13              		.file	"USBFS_HID_interface.c"
  20 0000 33020000 		.text
  20      02007200 
  20      00000201 
  20      FB0E0D00 
  20      01010101 
  21              	.Ltext0:
  22              		.cfi_sections	.debug_frame
  23              		.comm	bOutEndpointData,64,4
  24              		.comm	bInEndpointData,64,4
  25              		.comm	bBulkInEndpointData,513,4
  26              		.comm	bOutPacketIndex,1,1
  27              		.comm	bInPacketIndex,1,1
  28              		.comm	bHostInterface,1,1
  29              		.comm	i2cSpeed,1,1
  30              		.comm	voltage,2,2
  31              		.section	.text.SendToUSB,"ax",%progbits
  32              		.align	2
  33              		.global	SendToUSB
  34              		.thumb
  35              		.thumb_func
  36              		.type	SendToUSB, %function
  37              	SendToUSB:
  38              	.LFB29:
  39              		.file 1 ".\\USBFS_HID_interface.c"
   1:.\USBFS_HID_interface.c **** /*****************************************************************************
   2:.\USBFS_HID_interface.c **** * File Name: USBFS_HID_interface.c
   3:.\USBFS_HID_interface.c **** * Version 2.03
   4:.\USBFS_HID_interface.c **** *
   5:.\USBFS_HID_interface.c **** * Description: Handles the the USB-I2C Bridge functionality. 
   6:.\USBFS_HID_interface.c **** *
   7:.\USBFS_HID_interface.c **** * Owner:
   8:.\USBFS_HID_interface.c **** *	Ranjith M, Applications Engineer (rnjt@cypress.com)
   9:.\USBFS_HID_interface.c **** *
  10:.\USBFS_HID_interface.c **** * Related Document:
  11:.\USBFS_HID_interface.c **** * 	001-85925 - CY8CKIT-042 PSoC 4 Pioneer Kit IROS
  12:.\USBFS_HID_interface.c **** *	RNJT#21
  13:.\USBFS_HID_interface.c **** *
  14:.\USBFS_HID_interface.c **** * Hardware Dependency:
ARM GAS  C:\DOCUME~1\ADMINI~1\LOCALS~1\Temp\ccOjxVk4.s 			page 2


  15:.\USBFS_HID_interface.c **** * 	CY8CKIT-042 (KitProg) 
  16:.\USBFS_HID_interface.c **** *
  17:.\USBFS_HID_interface.c **** * Code Tested With:
  18:.\USBFS_HID_interface.c **** * 	Creator 2.2
  19:.\USBFS_HID_interface.c **** *	GCC1 4.4.1
  20:.\USBFS_HID_interface.c **** *	CY8CKIT-042 Rev 1
  21:.\USBFS_HID_interface.c **** *
  22:.\USBFS_HID_interface.c **** ******************************************************************************
  23:.\USBFS_HID_interface.c **** * Copyright (2013), Cypress Semiconductor Corporation.
  24:.\USBFS_HID_interface.c **** ******************************************************************************
  25:.\USBFS_HID_interface.c **** * This software is owned by Cypress Semiconductor Corporation (Cypress) and is
  26:.\USBFS_HID_interface.c **** * protected by and subject to worldwide patent protection (United States and
  27:.\USBFS_HID_interface.c **** * foreign), United States copyright laws and international treaty provisions.
  28:.\USBFS_HID_interface.c **** * Cypress hereby grants to licensee a personal, non-exclusive, non-transferable
  29:.\USBFS_HID_interface.c **** * license to copy, use, modify, create derivative works of, and compile the
  30:.\USBFS_HID_interface.c **** * Cypress Source Code and derivative works for the sole purpose of creating
  31:.\USBFS_HID_interface.c **** * custom software in support of licensee product to be used only in conjunction
  32:.\USBFS_HID_interface.c **** * with a Cypress integrated circuit as specified in the applicable agreement.
  33:.\USBFS_HID_interface.c **** * Any reproduction, modification, translation, compilation, or representation of
  34:.\USBFS_HID_interface.c **** * this software except as specified above is prohibited without the express
  35:.\USBFS_HID_interface.c **** * written permission of Cypress.
  36:.\USBFS_HID_interface.c **** *
  37:.\USBFS_HID_interface.c **** * Disclaimer: CYPRESS MAKES NO WARRANTY OF ANY KIND, EXPRESS OR IMPLIED, WITH
  38:.\USBFS_HID_interface.c **** * REGARD TO THIS MATERIAL, INCLUDING, BUT NOT LIMITED TO, THE IMPLIED
  39:.\USBFS_HID_interface.c **** * WARRANTIES OF MERCHANTABILITY AND FITNESS FOR A PARTICULAR PURPOSE.
  40:.\USBFS_HID_interface.c **** * Cypress reserves the right to make changes without further notice to the
  41:.\USBFS_HID_interface.c **** * materials described herein. Cypress does not assume any liability arising out
  42:.\USBFS_HID_interface.c **** * of the application or use of any product or circuit described herein. Cypress
  43:.\USBFS_HID_interface.c **** * does not authorize its products for use as critical components in life-support
  44:.\USBFS_HID_interface.c **** * systems where a malfunction or failure may reasonably be expected to result in
  45:.\USBFS_HID_interface.c **** * significant injury to the user. The inclusion of Cypress' product in a life-
  46:.\USBFS_HID_interface.c **** * support systems application implies that the manufacturer assumes all risk of
  47:.\USBFS_HID_interface.c **** * such use and in doing so indemnifies Cypress against all charges. Use may be
  48:.\USBFS_HID_interface.c **** * limited by and subject to the applicable Cypress software license agreement.
  49:.\USBFS_HID_interface.c **** *****************************************************************************/
  50:.\USBFS_HID_interface.c **** 
  51:.\USBFS_HID_interface.c **** #include "kitprog.h"
  52:.\USBFS_HID_interface.c **** 
  53:.\USBFS_HID_interface.c **** /*****************************************************************************
  54:.\USBFS_HID_interface.c **** * Local Function Prototypes
  55:.\USBFS_HID_interface.c **** *****************************************************************************/
  56:.\USBFS_HID_interface.c **** void SendToUSB(void);
  57:.\USBFS_HID_interface.c **** static uint8 I2CRestart(void);
  58:.\USBFS_HID_interface.c **** static void I2CTransaction(uint8 bControlByte, uint8 bLength, 
  59:.\USBFS_HID_interface.c ****                     uint8 *bCommandData, uint8 * bReturnData);
  60:.\USBFS_HID_interface.c **** static void I2CPinPullUpDriveLow(void);
  61:.\USBFS_HID_interface.c **** static void I2CPinTriState(void);
  62:.\USBFS_HID_interface.c **** void I2CPullUpDisable(void);
  63:.\USBFS_HID_interface.c **** /*****************************************************************************
  64:.\USBFS_HID_interface.c **** * Global Variable Declarations
  65:.\USBFS_HID_interface.c **** *****************************************************************************/
  66:.\USBFS_HID_interface.c **** 
  67:.\USBFS_HID_interface.c **** 
  68:.\USBFS_HID_interface.c **** /*****************************************************************************
  69:.\USBFS_HID_interface.c **** * Local Global Variable Declarations
  70:.\USBFS_HID_interface.c **** *****************************************************************************/
  71:.\USBFS_HID_interface.c **** 
ARM GAS  C:\DOCUME~1\ADMINI~1\LOCALS~1\Temp\ccOjxVk4.s 			page 3


  72:.\USBFS_HID_interface.c **** uint8 bOutEndpointData[64];
  73:.\USBFS_HID_interface.c **** uint8 bInEndpointData[64];
  74:.\USBFS_HID_interface.c **** uint8 bBulkInEndpointData[513];
  75:.\USBFS_HID_interface.c **** uint8 bOutPacketIndex;
  76:.\USBFS_HID_interface.c **** uint8 bInPacketIndex;
  77:.\USBFS_HID_interface.c **** uint8 bHostInterface;
  78:.\USBFS_HID_interface.c **** uint8 i2cSpeed;
  79:.\USBFS_HID_interface.c **** uint16 voltage;
  80:.\USBFS_HID_interface.c **** 
  81:.\USBFS_HID_interface.c **** /*******************************************************************************
  82:.\USBFS_HID_interface.c **** * Function Name: SendToUSB()
  83:.\USBFS_HID_interface.c **** ********************************************************************************
  84:.\USBFS_HID_interface.c **** * Summary:
  85:.\USBFS_HID_interface.c **** *  Send data to USB IN endpoint
  86:.\USBFS_HID_interface.c **** *
  87:.\USBFS_HID_interface.c **** * Parameters:
  88:.\USBFS_HID_interface.c **** *  void
  89:.\USBFS_HID_interface.c **** *
  90:.\USBFS_HID_interface.c **** * Return:
  91:.\USBFS_HID_interface.c **** *  void
  92:.\USBFS_HID_interface.c **** *
  93:.\USBFS_HID_interface.c **** *******************************************************************************/
  94:.\USBFS_HID_interface.c **** void SendToUSB(void)
  95:.\USBFS_HID_interface.c **** {
  40              		.loc 1 95 0
  41              		.cfi_startproc
  42              		@ args = 0, pretend = 0, frame = 0
  43              		@ frame_needed = 1, uses_anonymous_args = 0
  44 0000 80B5     		push	{r7, lr}
  45              	.LCFI0:
  46              		.cfi_def_cfa_offset 8
  47 0002 00AF     		add	r7, sp, #0
  48              		.cfi_offset 14, -4
  49              		.cfi_offset 7, -8
  50              	.LCFI1:
  51              		.cfi_def_cfa_register 7
  52              	.L2:
  96:.\USBFS_HID_interface.c ****     while(USBFS_bGetEPState(HOST_IN_EP) != USBFS_IN_BUFFER_EMPTY)
  53              		.loc 1 96 0
  54 0004 4FF00300 		mov	r0, #3
  55 0008 FFF7FEFF 		bl	USBFS_GetEPState
  56 000c 0346     		mov	r3, r0
  57 000e 012B     		cmp	r3, #1
  58 0010 F8D1     		bne	.L2
  97:.\USBFS_HID_interface.c **** 	{
  98:.\USBFS_HID_interface.c **** 		/* Wait for the previous IN endpoint trasaction to complete */
  99:.\USBFS_HID_interface.c **** 	}
 100:.\USBFS_HID_interface.c ****     USBFS_LoadInEP(HOST_IN_EP, bInEndpointData, 64);
  59              		.loc 1 100 0
  60 0012 4FF00300 		mov	r0, #3
  61 0016 40F20001 		movw	r1, #:lower16:bInEndpointData
  62 001a C0F20001 		movt	r1, #:upper16:bInEndpointData
  63 001e 4FF04002 		mov	r2, #64
  64 0022 FFF7FEFF 		bl	USBFS_LoadInEP
 101:.\USBFS_HID_interface.c ****     USBFS_EnableOutEP(HOST_OUT_EP);
  65              		.loc 1 101 0
  66 0026 4FF00400 		mov	r0, #4
ARM GAS  C:\DOCUME~1\ADMINI~1\LOCALS~1\Temp\ccOjxVk4.s 			page 4


  67 002a FFF7FEFF 		bl	USBFS_EnableOutEP
 102:.\USBFS_HID_interface.c **** 	return;
 103:.\USBFS_HID_interface.c **** }
  68              		.loc 1 103 0
  69 002e 80BD     		pop	{r7, pc}
  70              		.cfi_endproc
  71              	.LFE29:
  72              		.size	SendToUSB, .-SendToUSB
  73              		.section	.text.I2CRestart,"ax",%progbits
  74              		.align	2
  75              		.thumb
  76              		.thumb_func
  77              		.type	I2CRestart, %function
  78              	I2CRestart:
  79              	.LFB30:
 104:.\USBFS_HID_interface.c **** /*******************************************************************************
 105:.\USBFS_HID_interface.c **** * Function Name: I2CRestart()
 106:.\USBFS_HID_interface.c **** ********************************************************************************
 107:.\USBFS_HID_interface.c **** * Summary:
 108:.\USBFS_HID_interface.c **** *  Restart try to free I2C bus from hanging devices
 109:.\USBFS_HID_interface.c **** *
 110:.\USBFS_HID_interface.c **** * Parameters:
 111:.\USBFS_HID_interface.c **** *  void
 112:.\USBFS_HID_interface.c **** *
 113:.\USBFS_HID_interface.c **** * Return:
 114:.\USBFS_HID_interface.c **** *  status, 0 fail, 1 success
 115:.\USBFS_HID_interface.c **** *
 116:.\USBFS_HID_interface.c **** *******************************************************************************/    
 117:.\USBFS_HID_interface.c **** uint8 I2CRestart(void)
 118:.\USBFS_HID_interface.c **** {
  80              		.loc 1 118 0
  81              		.cfi_startproc
  82              		@ args = 0, pretend = 0, frame = 8
  83              		@ frame_needed = 1, uses_anonymous_args = 0
  84 0000 80B5     		push	{r7, lr}
  85              	.LCFI2:
  86              		.cfi_def_cfa_offset 8
  87 0002 82B0     		sub	sp, sp, #8
  88              	.LCFI3:
  89              		.cfi_def_cfa_offset 16
  90 0004 00AF     		add	r7, sp, #0
  91              		.cfi_offset 14, -4
  92              		.cfi_offset 7, -8
  93              	.LCFI4:
  94              		.cfi_def_cfa_register 7
 119:.\USBFS_HID_interface.c ****     uint8 bCount;
 120:.\USBFS_HID_interface.c ****     uint8 bStatus;
 121:.\USBFS_HID_interface.c **** 	
 122:.\USBFS_HID_interface.c **** 	/* Stop the I2C hardware */
 123:.\USBFS_HID_interface.c ****     I2CHW_Stop();
  95              		.loc 1 123 0
  96 0006 FFF7FEFF 		bl	I2CHW_Stop
 124:.\USBFS_HID_interface.c **** 	
 125:.\USBFS_HID_interface.c **** 	/* Allow the DSI to drive the I2C SDA and SCL pins */
 126:.\USBFS_HID_interface.c ****     I2C_DSIBypassDisable();
  97              		.loc 1 126 0
  98 000a FFF7FEFF 		bl	I2C_DSIBypassDisable
ARM GAS  C:\DOCUME~1\ADMINI~1\LOCALS~1\Temp\ccOjxVk4.s 			page 5


 127:.\USBFS_HID_interface.c ****     
 128:.\USBFS_HID_interface.c ****     /* Make sure the SDA line is not pulled low by master */
 129:.\USBFS_HID_interface.c ****     Pin_I2C_SDA_Write(1);
  99              		.loc 1 129 0
 100 000e 4FF00100 		mov	r0, #1
 101 0012 FFF7FEFF 		bl	Pin_I2C_SDA_Write
 130:.\USBFS_HID_interface.c ****     
 131:.\USBFS_HID_interface.c ****     /* send clock signal on SCL and wait for SDA to turn free */
 132:.\USBFS_HID_interface.c **** 	Pin_I2C_SCL_Write(0);
 102              		.loc 1 132 0
 103 0016 4FF00000 		mov	r0, #0
 104 001a FFF7FEFF 		bl	Pin_I2C_SCL_Write
 133:.\USBFS_HID_interface.c ****     for (bCount = 0; bCount < TIMEOUT; bCount++) 
 105              		.loc 1 133 0
 106 001e 4FF00003 		mov	r3, #0
 107 0022 BB71     		strb	r3, [r7, #6]
 108 0024 18E0     		b	.L5
 109              	.L8:
 134:.\USBFS_HID_interface.c ****     {
 135:.\USBFS_HID_interface.c ****         if(Pin_I2C_SDA_Read()) 
 110              		.loc 1 135 0
 111 0026 FFF7FEFF 		bl	Pin_I2C_SDA_Read
 112 002a 0346     		mov	r3, r0
 113 002c 002B     		cmp	r3, #0
 114 002e 17D1     		bne	.L12
 115              	.L6:
 136:.\USBFS_HID_interface.c **** 		{
 137:.\USBFS_HID_interface.c **** 			/* break loop if SDA released by slave */
 138:.\USBFS_HID_interface.c **** 			break;
 139:.\USBFS_HID_interface.c **** 		}
 140:.\USBFS_HID_interface.c **** 		
 141:.\USBFS_HID_interface.c **** 		/* clock on the SCL line */
 142:.\USBFS_HID_interface.c ****         Pin_I2C_SCL_Write(1); 
 116              		.loc 1 142 0
 117 0030 4FF00100 		mov	r0, #1
 118 0034 FFF7FEFF 		bl	Pin_I2C_SCL_Write
 143:.\USBFS_HID_interface.c ****         CyDelayUs(40);        
 119              		.loc 1 143 0
 120 0038 4FF02800 		mov	r0, #40
 121 003c FFF7FEFF 		bl	CyDelayUs
 144:.\USBFS_HID_interface.c ****         Pin_I2C_SCL_Write(0);        
 122              		.loc 1 144 0
 123 0040 4FF00000 		mov	r0, #0
 124 0044 FFF7FEFF 		bl	Pin_I2C_SCL_Write
 145:.\USBFS_HID_interface.c ****         CyDelayUs(40);
 125              		.loc 1 145 0
 126 0048 4FF02800 		mov	r0, #40
 127 004c FFF7FEFF 		bl	CyDelayUs
 128              		.loc 1 133 0
 129 0050 BB79     		ldrb	r3, [r7, #6]
 130 0052 03F10103 		add	r3, r3, #1
 131 0056 BB71     		strb	r3, [r7, #6]
 132              	.L5:
 133 0058 BB79     		ldrb	r3, [r7, #6]	@ zero_extendqisi2
 134 005a 312B     		cmp	r3, #49
 135 005c E3D9     		bls	.L8
 136 005e 00E0     		b	.L7
ARM GAS  C:\DOCUME~1\ADMINI~1\LOCALS~1\Temp\ccOjxVk4.s 			page 6


 137              	.L12:
 138              		.loc 1 138 0
 139 0060 00BF     		nop
 140              	.L7:
 146:.\USBFS_HID_interface.c ****     }
 147:.\USBFS_HID_interface.c **** 	
 148:.\USBFS_HID_interface.c **** 	/* Generate stop condition */
 149:.\USBFS_HID_interface.c ****     Pin_I2C_SDA_Write(0);
 141              		.loc 1 149 0
 142 0062 4FF00000 		mov	r0, #0
 143 0066 FFF7FEFF 		bl	Pin_I2C_SDA_Write
 150:.\USBFS_HID_interface.c ****     Pin_I2C_SCL_Write(1);    
 144              		.loc 1 150 0
 145 006a 4FF00100 		mov	r0, #1
 146 006e FFF7FEFF 		bl	Pin_I2C_SCL_Write
 151:.\USBFS_HID_interface.c ****     CyDelayUs(80);
 147              		.loc 1 151 0
 148 0072 4FF05000 		mov	r0, #80
 149 0076 FFF7FEFF 		bl	CyDelayUs
 152:.\USBFS_HID_interface.c ****     Pin_I2C_SDA_Write(1);
 150              		.loc 1 152 0
 151 007a 4FF00100 		mov	r0, #1
 152 007e FFF7FEFF 		bl	Pin_I2C_SDA_Write
 153:.\USBFS_HID_interface.c **** 	
 154:.\USBFS_HID_interface.c ****     /* wait for stable signal */
 155:.\USBFS_HID_interface.c ****     CyDelayUs(80);
 153              		.loc 1 155 0
 154 0082 4FF05000 		mov	r0, #80
 155 0086 FFF7FEFF 		bl	CyDelayUs
 156:.\USBFS_HID_interface.c **** 	/* If SCL and SCL lines free, return SUCCESS */
 157:.\USBFS_HID_interface.c ****     if (Pin_I2C_SDA_Read() && Pin_I2C_SCL_Read()) 
 156              		.loc 1 157 0
 157 008a FFF7FEFF 		bl	Pin_I2C_SDA_Read
 158 008e 0346     		mov	r3, r0
 159 0090 002B     		cmp	r3, #0
 160 0092 08D0     		beq	.L9
 161 0094 FFF7FEFF 		bl	Pin_I2C_SCL_Read
 162 0098 0346     		mov	r3, r0
 163 009a 002B     		cmp	r3, #0
 164 009c 03D0     		beq	.L9
 158:.\USBFS_HID_interface.c ****     {
 159:.\USBFS_HID_interface.c ****         bStatus = RESTART_SUCCESS;
 165              		.loc 1 159 0
 166 009e 4FF00103 		mov	r3, #1
 167 00a2 FB71     		strb	r3, [r7, #7]
 168              		.loc 1 157 0
 169 00a4 02E0     		b	.L10
 170              	.L9:
 160:.\USBFS_HID_interface.c ****     }
 161:.\USBFS_HID_interface.c ****     else 
 162:.\USBFS_HID_interface.c ****     {
 163:.\USBFS_HID_interface.c ****         bStatus = RESTART_FAIL;
 171              		.loc 1 163 0
 172 00a6 4FF00003 		mov	r3, #0
 173 00aa FB71     		strb	r3, [r7, #7]
 174              	.L10:
 164:.\USBFS_HID_interface.c ****     }
ARM GAS  C:\DOCUME~1\ADMINI~1\LOCALS~1\Temp\ccOjxVk4.s 			page 7


 165:.\USBFS_HID_interface.c ****     
 166:.\USBFS_HID_interface.c **** 	/* Transfer the control back to the port control registers */
 167:.\USBFS_HID_interface.c ****     I2C_DSIBypassEnable();
 175              		.loc 1 167 0
 176 00ac FFF7FEFF 		bl	I2C_DSIBypassEnable
 168:.\USBFS_HID_interface.c **** 	
 169:.\USBFS_HID_interface.c **** 	/* Start the I2C hardware */
 170:.\USBFS_HID_interface.c ****     I2CHW_Start();
 177              		.loc 1 170 0
 178 00b0 FFF7FEFF 		bl	I2CHW_Start
 171:.\USBFS_HID_interface.c **** 
 172:.\USBFS_HID_interface.c ****     return bStatus;
 179              		.loc 1 172 0
 180 00b4 FB79     		ldrb	r3, [r7, #7]	@ zero_extendqisi2
 173:.\USBFS_HID_interface.c **** }
 181              		.loc 1 173 0
 182 00b6 1846     		mov	r0, r3
 183 00b8 07F10807 		add	r7, r7, #8
 184 00bc BD46     		mov	sp, r7
 185 00be 80BD     		pop	{r7, pc}
 186              		.cfi_endproc
 187              	.LFE30:
 188              		.size	I2CRestart, .-I2CRestart
 189              		.section	.text.I2CTransaction,"ax",%progbits
 190              		.align	2
 191              		.thumb
 192              		.thumb_func
 193              		.type	I2CTransaction, %function
 194              	I2CTransaction:
 195              	.LFB31:
 174:.\USBFS_HID_interface.c **** /*******************************************************************************
 175:.\USBFS_HID_interface.c **** * Function Name: I2CTransaction()
 176:.\USBFS_HID_interface.c **** ********************************************************************************
 177:.\USBFS_HID_interface.c **** * Summary:
 178:.\USBFS_HID_interface.c **** *  Executes an I2C transaction.
 179:.\USBFS_HID_interface.c **** *
 180:.\USBFS_HID_interface.c **** * Parameters:
 181:.\USBFS_HID_interface.c **** *  bControlByte 	- control byte
 182:.\USBFS_HID_interface.c **** *  bLength 			- data length
 183:.\USBFS_HID_interface.c **** *  bCommandData 	- point to command data buffer
 184:.\USBFS_HID_interface.c **** *  bReturnData 		- point to return data buffer
 185:.\USBFS_HID_interface.c **** *
 186:.\USBFS_HID_interface.c **** * Return:
 187:.\USBFS_HID_interface.c **** *  void
 188:.\USBFS_HID_interface.c **** *
 189:.\USBFS_HID_interface.c **** * Notes:
 190:.\USBFS_HID_interface.c **** *  This routine assumes a valid I2C transaction is encoded in the command.
 191:.\USBFS_HID_interface.c **** *
 192:.\USBFS_HID_interface.c **** *******************************************************************************/
 193:.\USBFS_HID_interface.c **** void I2CTransaction(uint8 bControlByte, uint8 bLength, uint8 *bCommandData, uint8 * bReturnData)
 194:.\USBFS_HID_interface.c **** {
 196              		.loc 1 194 0
 197              		.cfi_startproc
 198              		@ args = 0, pretend = 0, frame = 24
 199              		@ frame_needed = 1, uses_anonymous_args = 0
 200 0000 90B5     		push	{r4, r7, lr}
 201              	.LCFI5:
ARM GAS  C:\DOCUME~1\ADMINI~1\LOCALS~1\Temp\ccOjxVk4.s 			page 8


 202              		.cfi_def_cfa_offset 12
 203 0002 87B0     		sub	sp, sp, #28
 204              	.LCFI6:
 205              		.cfi_def_cfa_offset 40
 206 0004 00AF     		add	r7, sp, #0
 207              		.cfi_offset 14, -4
 208              		.cfi_offset 7, -8
 209              		.cfi_offset 4, -12
 210              	.LCFI7:
 211              		.cfi_def_cfa_register 7
 212 0006 BA60     		str	r2, [r7, #8]
 213 0008 7B60     		str	r3, [r7, #4]
 214 000a 0346     		mov	r3, r0
 215 000c FB73     		strb	r3, [r7, #15]
 216 000e 0B46     		mov	r3, r1
 217 0010 BB73     		strb	r3, [r7, #14]
 195:.\USBFS_HID_interface.c ****     uint8 bCounter;
 196:.\USBFS_HID_interface.c ****     uint8 bIndex;
 197:.\USBFS_HID_interface.c ****     uint8 flag_ACK;
 198:.\USBFS_HID_interface.c **** 	uint8 flag_exit = CONTINUE;
 218              		.loc 1 198 0
 219 0012 4FF00003 		mov	r3, #0
 220 0016 FB75     		strb	r3, [r7, #23]
 199:.\USBFS_HID_interface.c **** 	
 200:.\USBFS_HID_interface.c ****     /* Start the transaction */
 201:.\USBFS_HID_interface.c ****     bIndex = 0;
 221              		.loc 1 201 0
 222 0018 4FF00003 		mov	r3, #0
 223 001c 7B75     		strb	r3, [r7, #21]
 202:.\USBFS_HID_interface.c **** 	/* if Start command received */
 203:.\USBFS_HID_interface.c **** 	if (bControlByte & CONTROL_START)
 224              		.loc 1 203 0
 225 001e FB7B     		ldrb	r3, [r7, #15]	@ zero_extendqisi2
 226 0020 03F00203 		and	r3, r3, #2
 227 0024 002B     		cmp	r3, #0
 228 0026 41D0     		beq	.L14
 204:.\USBFS_HID_interface.c ****     {
 205:.\USBFS_HID_interface.c **** 		/* SDA and SCL must be high (No traffic on the I2C bus) */
 206:.\USBFS_HID_interface.c ****         if (!(Pin_I2C_SDA_Read() && Pin_I2C_SCL_Read())) 
 229              		.loc 1 206 0
 230 0028 FFF7FEFF 		bl	Pin_I2C_SDA_Read
 231 002c 0346     		mov	r3, r0
 232 002e 002B     		cmp	r3, #0
 233 0030 04D0     		beq	.L15
 234 0032 FFF7FEFF 		bl	Pin_I2C_SCL_Read
 235 0036 0346     		mov	r3, r0
 236 0038 002B     		cmp	r3, #0
 237 003a 11D1     		bne	.L16
 238              	.L15:
 207:.\USBFS_HID_interface.c ****         {
 208:.\USBFS_HID_interface.c ****             /* Send a stop condition */
 209:.\USBFS_HID_interface.c ****             I2CHW_MasterSendStop();
 239              		.loc 1 209 0
 240 003c FFF7FEFF 		bl	I2CHW_MasterSendStop
 210:.\USBFS_HID_interface.c ****             CyDelayUs(10);
 241              		.loc 1 210 0
 242 0040 4FF00A00 		mov	r0, #10
ARM GAS  C:\DOCUME~1\ADMINI~1\LOCALS~1\Temp\ccOjxVk4.s 			page 9


 243 0044 FFF7FEFF 		bl	CyDelayUs
 211:.\USBFS_HID_interface.c ****             if(!I2CRestart())	    
 244              		.loc 1 211 0
 245 0048 FFF7FEFF 		bl	I2CRestart
 246 004c 0346     		mov	r3, r0
 247 004e 002B     		cmp	r3, #0
 248 0050 06D1     		bne	.L16
 212:.\USBFS_HID_interface.c ****             {
 213:.\USBFS_HID_interface.c ****                 /* Indicate a nACK */
 214:.\USBFS_HID_interface.c ****                 bReturnData[0] = NACK;
 249              		.loc 1 214 0
 250 0052 7B68     		ldr	r3, [r7, #4]
 251 0054 4FF00002 		mov	r2, #0
 252 0058 1A70     		strb	r2, [r3, #0]
 215:.\USBFS_HID_interface.c **** 				flag_exit = EXIT;
 253              		.loc 1 215 0
 254 005a 4FF00103 		mov	r3, #1
 255 005e FB75     		strb	r3, [r7, #23]
 256              	.L16:
 216:.\USBFS_HID_interface.c ****            }
 217:.\USBFS_HID_interface.c ****         }
 218:.\USBFS_HID_interface.c **** 		if(flag_exit != EXIT)
 257              		.loc 1 218 0
 258 0060 FB7D     		ldrb	r3, [r7, #23]	@ zero_extendqisi2
 259 0062 012B     		cmp	r3, #1
 260 0064 5BD0     		beq	.L37
 219:.\USBFS_HID_interface.c **** 		{
 220:.\USBFS_HID_interface.c ****         	/* Send a start */
 221:.\USBFS_HID_interface.c ****         	I2CHW_Stop();
 261              		.loc 1 221 0
 262 0066 FFF7FEFF 		bl	I2CHW_Stop
 222:.\USBFS_HID_interface.c ****         	I2CHW_Start();        
 263              		.loc 1 222 0
 264 006a FFF7FEFF 		bl	I2CHW_Start
 223:.\USBFS_HID_interface.c **** 			if(I2CHW_MasterSendStart(bCommandData[0], (bControlByte & CONTROL_DIRECTION)) == I2CHW_MSTR_NO_E
 265              		.loc 1 223 0
 266 006e BB68     		ldr	r3, [r7, #8]
 267 0070 1A78     		ldrb	r2, [r3, #0]	@ zero_extendqisi2
 268 0072 FB7B     		ldrb	r3, [r7, #15]	@ zero_extendqisi2
 269 0074 03F00103 		and	r3, r3, #1
 270 0078 1046     		mov	r0, r2
 271 007a 1946     		mov	r1, r3
 272 007c FFF7FEFF 		bl	I2CHW_MasterSendStart
 273 0080 0346     		mov	r3, r0
 274 0082 002B     		cmp	r3, #0
 275 0084 03D1     		bne	.L18
 224:.\USBFS_HID_interface.c **** 	        {
 225:.\USBFS_HID_interface.c **** 				flag_ACK = OK_ACK;
 276              		.loc 1 225 0
 277 0086 4FF00103 		mov	r3, #1
 278 008a BB75     		strb	r3, [r7, #22]
 279 008c 02E0     		b	.L19
 280              	.L18:
 226:.\USBFS_HID_interface.c **** 			}
 227:.\USBFS_HID_interface.c **** 			else
 228:.\USBFS_HID_interface.c **** 			{
 229:.\USBFS_HID_interface.c **** 				flag_ACK = NACK;
ARM GAS  C:\DOCUME~1\ADMINI~1\LOCALS~1\Temp\ccOjxVk4.s 			page 10


 281              		.loc 1 229 0
 282 008e 4FF00003 		mov	r3, #0
 283 0092 BB75     		strb	r3, [r7, #22]
 284              	.L19:
 230:.\USBFS_HID_interface.c **** 			}
 231:.\USBFS_HID_interface.c **** 			/* Send the ackknowledgement status back to USB */
 232:.\USBFS_HID_interface.c **** 			bReturnData[0] = flag_ACK;  
 285              		.loc 1 232 0
 286 0094 7B68     		ldr	r3, [r7, #4]
 287 0096 BA7D     		ldrb	r2, [r7, #22]
 288 0098 1A70     		strb	r2, [r3, #0]
 233:.\USBFS_HID_interface.c **** 	        bIndex++;
 289              		.loc 1 233 0
 290 009a 7B7D     		ldrb	r3, [r7, #21]
 291 009c 03F10103 		add	r3, r3, #1
 292 00a0 7B75     		strb	r3, [r7, #21]
 234:.\USBFS_HID_interface.c **** 	        bCounter = bLength - 1;
 293              		.loc 1 234 0
 294 00a2 BB7B     		ldrb	r3, [r7, #14]
 295 00a4 03F1FF33 		add	r3, r3, #-1
 296 00a8 3B75     		strb	r3, [r7, #20]
 297 00aa 39E0     		b	.L20
 298              	.L14:
 235:.\USBFS_HID_interface.c **** 		}
 236:.\USBFS_HID_interface.c ****     }
 237:.\USBFS_HID_interface.c **** 	/* if Restart command received */
 238:.\USBFS_HID_interface.c ****     else if (bControlByte & CONTROL_RESTART)
 299              		.loc 1 238 0
 300 00ac FB7B     		ldrb	r3, [r7, #15]	@ zero_extendqisi2
 301 00ae 03F00403 		and	r3, r3, #4
 302 00b2 002B     		cmp	r3, #0
 303 00b4 1ED0     		beq	.L21
 239:.\USBFS_HID_interface.c ****     {
 240:.\USBFS_HID_interface.c ****         /* Send a restart */
 241:.\USBFS_HID_interface.c ****         if(I2CHW_MasterSendRestart(bCommandData[0], (bControlByte & CONTROL_DIRECTION)) == I2CHW_MS
 304              		.loc 1 241 0
 305 00b6 BB68     		ldr	r3, [r7, #8]
 306 00b8 1A78     		ldrb	r2, [r3, #0]	@ zero_extendqisi2
 307 00ba FB7B     		ldrb	r3, [r7, #15]	@ zero_extendqisi2
 308 00bc 03F00103 		and	r3, r3, #1
 309 00c0 1046     		mov	r0, r2
 310 00c2 1946     		mov	r1, r3
 311 00c4 FFF7FEFF 		bl	I2CHW_MasterSendRestart
 312 00c8 0346     		mov	r3, r0
 313 00ca 002B     		cmp	r3, #0
 314 00cc 03D1     		bne	.L22
 242:.\USBFS_HID_interface.c **** 		{
 243:.\USBFS_HID_interface.c **** 			flag_ACK = OK_ACK;
 315              		.loc 1 243 0
 316 00ce 4FF00103 		mov	r3, #1
 317 00d2 BB75     		strb	r3, [r7, #22]
 318 00d4 02E0     		b	.L23
 319              	.L22:
 244:.\USBFS_HID_interface.c **** 		}
 245:.\USBFS_HID_interface.c **** 		else
 246:.\USBFS_HID_interface.c **** 		{
 247:.\USBFS_HID_interface.c **** 			flag_ACK = NACK;
ARM GAS  C:\DOCUME~1\ADMINI~1\LOCALS~1\Temp\ccOjxVk4.s 			page 11


 320              		.loc 1 247 0
 321 00d6 4FF00003 		mov	r3, #0
 322 00da BB75     		strb	r3, [r7, #22]
 323              	.L23:
 248:.\USBFS_HID_interface.c **** 		}
 249:.\USBFS_HID_interface.c **** 		/* Send the ackknowledgement status back to USB */
 250:.\USBFS_HID_interface.c ****         bReturnData[0] = flag_ACK;
 324              		.loc 1 250 0
 325 00dc 7B68     		ldr	r3, [r7, #4]
 326 00de BA7D     		ldrb	r2, [r7, #22]
 327 00e0 1A70     		strb	r2, [r3, #0]
 251:.\USBFS_HID_interface.c ****         bIndex++;
 328              		.loc 1 251 0
 329 00e2 7B7D     		ldrb	r3, [r7, #21]
 330 00e4 03F10103 		add	r3, r3, #1
 331 00e8 7B75     		strb	r3, [r7, #21]
 252:.\USBFS_HID_interface.c ****         bCounter = bLength - 1;
 332              		.loc 1 252 0
 333 00ea BB7B     		ldrb	r3, [r7, #14]
 334 00ec 03F1FF33 		add	r3, r3, #-1
 335 00f0 3B75     		strb	r3, [r7, #20]
 336 00f2 15E0     		b	.L20
 337              	.L21:
 253:.\USBFS_HID_interface.c ****     }
 254:.\USBFS_HID_interface.c ****     else
 255:.\USBFS_HID_interface.c ****     {
 256:.\USBFS_HID_interface.c ****         /* No start or restart.  Assume the bus is currently busy, and the slave
 257:.\USBFS_HID_interface.c ****          * ACK'ed the previous byte.*/
 258:.\USBFS_HID_interface.c ****         flag_ACK = OK_ACK;
 338              		.loc 1 258 0
 339 00f4 4FF00103 		mov	r3, #1
 340 00f8 BB75     		strb	r3, [r7, #22]
 259:.\USBFS_HID_interface.c **** 		
 260:.\USBFS_HID_interface.c ****         if ((bControlByte & CONTROL_DIRECTION) == CONTROL_DIRECTION_READ)
 341              		.loc 1 260 0
 342 00fa FB7B     		ldrb	r3, [r7, #15]	@ zero_extendqisi2
 343 00fc 03F00103 		and	r3, r3, #1
 344 0100 DBB2     		uxtb	r3, r3
 345 0102 002B     		cmp	r3, #0
 346 0104 0CD0     		beq	.L20
 261:.\USBFS_HID_interface.c ****         { 
 262:.\USBFS_HID_interface.c ****             bReturnData[0] = flag_ACK;
 347              		.loc 1 262 0
 348 0106 7B68     		ldr	r3, [r7, #4]
 349 0108 BA7D     		ldrb	r2, [r7, #22]
 350 010a 1A70     		strb	r2, [r3, #0]
 263:.\USBFS_HID_interface.c ****             bIndex++;
 351              		.loc 1 263 0
 352 010c 7B7D     		ldrb	r3, [r7, #21]
 353 010e 03F10103 		add	r3, r3, #1
 354 0112 7B75     		strb	r3, [r7, #21]
 264:.\USBFS_HID_interface.c ****             bCounter = bLength - 1;
 355              		.loc 1 264 0
 356 0114 BB7B     		ldrb	r3, [r7, #14]
 357 0116 03F1FF33 		add	r3, r3, #-1
 358 011a 3B75     		strb	r3, [r7, #20]
 359 011c 00E0     		b	.L20
ARM GAS  C:\DOCUME~1\ADMINI~1\LOCALS~1\Temp\ccOjxVk4.s 			page 12


 360              	.L37:
 361              		.loc 1 234 0
 362 011e 00BF     		nop
 363              	.L20:
 265:.\USBFS_HID_interface.c ****         }
 266:.\USBFS_HID_interface.c ****     }
 267:.\USBFS_HID_interface.c ****     
 268:.\USBFS_HID_interface.c ****     /* Transfer data */
 269:.\USBFS_HID_interface.c ****     if ((flag_ACK == OK_ACK) && (flag_exit != EXIT))
 364              		.loc 1 269 0
 365 0120 BB7D     		ldrb	r3, [r7, #22]	@ zero_extendqisi2
 366 0122 012B     		cmp	r3, #1
 367 0124 67D1     		bne	.L24
 368 0126 FB7D     		ldrb	r3, [r7, #23]	@ zero_extendqisi2
 369 0128 012B     		cmp	r3, #1
 370 012a 64D0     		beq	.L24
 270:.\USBFS_HID_interface.c ****     {
 271:.\USBFS_HID_interface.c ****         if ((bControlByte & CONTROL_DIRECTION) == CONTROL_DIRECTION_READ)
 371              		.loc 1 271 0
 372 012c FB7B     		ldrb	r3, [r7, #15]	@ zero_extendqisi2
 373 012e 03F00103 		and	r3, r3, #1
 374 0132 DBB2     		uxtb	r3, r3
 375 0134 002B     		cmp	r3, #0
 376 0136 33D0     		beq	.L25
 272:.\USBFS_HID_interface.c ****         {                
 273:.\USBFS_HID_interface.c ****             /* Read */
 274:.\USBFS_HID_interface.c ****             if (bLength)
 377              		.loc 1 274 0
 378 0138 BB7B     		ldrb	r3, [r7, #14]	@ zero_extendqisi2
 379 013a 002B     		cmp	r3, #0
 380 013c 58D0     		beq	.L38
 275:.\USBFS_HID_interface.c ****             {
 276:.\USBFS_HID_interface.c ****                 
 277:.\USBFS_HID_interface.c **** 				for (; bCounter; bCounter--)
 381              		.loc 1 277 0
 382 013e 11E0     		b	.L27
 383              	.L28:
 278:.\USBFS_HID_interface.c ****                 {    
 279:.\USBFS_HID_interface.c ****                     /* Read the I2C lines and store the bytes read in a buffer */
 280:.\USBFS_HID_interface.c **** 					bReturnData[bIndex] = I2CHW_MasterReadByte(I2CHW_ACK_DATA);
 384              		.loc 1 280 0
 385 0140 7A7D     		ldrb	r2, [r7, #21]	@ zero_extendqisi2
 386 0142 7B68     		ldr	r3, [r7, #4]
 387 0144 02EB0304 		add	r4, r2, r3
 388 0148 4FF00100 		mov	r0, #1
 389 014c FFF7FEFF 		bl	I2CHW_MasterReadByte
 390 0150 0346     		mov	r3, r0
 391 0152 2370     		strb	r3, [r4, #0]
 281:.\USBFS_HID_interface.c ****                     bIndex++;
 392              		.loc 1 281 0
 393 0154 7B7D     		ldrb	r3, [r7, #21]
 394 0156 03F10103 		add	r3, r3, #1
 395 015a 7B75     		strb	r3, [r7, #21]
 396              		.loc 1 277 0
 397 015c 3B7D     		ldrb	r3, [r7, #20]
 398 015e 03F1FF33 		add	r3, r3, #-1
 399 0162 3B75     		strb	r3, [r7, #20]
ARM GAS  C:\DOCUME~1\ADMINI~1\LOCALS~1\Temp\ccOjxVk4.s 			page 13


 400              	.L27:
 401 0164 3B7D     		ldrb	r3, [r7, #20]	@ zero_extendqisi2
 402 0166 002B     		cmp	r3, #0
 403 0168 EAD1     		bne	.L28
 282:.\USBFS_HID_interface.c ****                 }
 283:.\USBFS_HID_interface.c ****                 
 284:.\USBFS_HID_interface.c **** 				/* If the last byte is a stop condition, donot acknowledge it */
 285:.\USBFS_HID_interface.c ****                 if (bControlByte & CONTROL_STOP)
 404              		.loc 1 285 0
 405 016a FB7B     		ldrb	r3, [r7, #15]	@ zero_extendqisi2
 406 016c 03F00803 		and	r3, r3, #8
 407 0170 002B     		cmp	r3, #0
 408 0172 0AD0     		beq	.L29
 286:.\USBFS_HID_interface.c ****                 {
 287:.\USBFS_HID_interface.c ****                     bReturnData[bIndex] = I2CHW_MasterReadByte(I2CHW_NAK_DATA);
 409              		.loc 1 287 0
 410 0174 7A7D     		ldrb	r2, [r7, #21]	@ zero_extendqisi2
 411 0176 7B68     		ldr	r3, [r7, #4]
 412 0178 02EB0304 		add	r4, r2, r3
 413 017c 4FF00000 		mov	r0, #0
 414 0180 FFF7FEFF 		bl	I2CHW_MasterReadByte
 415 0184 0346     		mov	r3, r0
 416 0186 2370     		strb	r3, [r4, #0]
 288:.\USBFS_HID_interface.c ****                 } 
 289:.\USBFS_HID_interface.c **** 				else 
 290:.\USBFS_HID_interface.c **** 				{
 291:.\USBFS_HID_interface.c ****                     bReturnData[bIndex] = I2CHW_MasterReadByte(I2CHW_ACK_DATA);
 417              		.loc 1 291 0
 418 0188 35E0     		b	.L24
 419              	.L29:
 420 018a 7A7D     		ldrb	r2, [r7, #21]	@ zero_extendqisi2
 421 018c 7B68     		ldr	r3, [r7, #4]
 422 018e 02EB0304 		add	r4, r2, r3
 423 0192 4FF00100 		mov	r0, #1
 424 0196 FFF7FEFF 		bl	I2CHW_MasterReadByte
 425 019a 0346     		mov	r3, r0
 426 019c 2370     		strb	r3, [r4, #0]
 427 019e 2AE0     		b	.L24
 428              	.L25:
 292:.\USBFS_HID_interface.c ****                 }                
 293:.\USBFS_HID_interface.c ****             }
 294:.\USBFS_HID_interface.c ****         }
 295:.\USBFS_HID_interface.c ****         else
 296:.\USBFS_HID_interface.c ****         {
 297:.\USBFS_HID_interface.c ****             /* Write */
 298:.\USBFS_HID_interface.c ****             for (bCounter = bLength; bCounter; bCounter--)
 429              		.loc 1 298 0
 430 01a0 BB7B     		ldrb	r3, [r7, #14]
 431 01a2 3B75     		strb	r3, [r7, #20]
 432 01a4 20E0     		b	.L30
 433              	.L34:
 299:.\USBFS_HID_interface.c ****             {        
 300:.\USBFS_HID_interface.c ****                 /* Write the byte and return the acknowledgement status */
 301:.\USBFS_HID_interface.c **** 				if(I2CHW_MasterWriteByte(bCommandData[bIndex]) == I2CHW_MSTR_NO_ERROR)
 434              		.loc 1 301 0
 435 01a6 7A7D     		ldrb	r2, [r7, #21]	@ zero_extendqisi2
 436 01a8 BB68     		ldr	r3, [r7, #8]
ARM GAS  C:\DOCUME~1\ADMINI~1\LOCALS~1\Temp\ccOjxVk4.s 			page 14


 437 01aa 1344     		add	r3, r2, r3
 438 01ac 1B78     		ldrb	r3, [r3, #0]	@ zero_extendqisi2
 439 01ae 1846     		mov	r0, r3
 440 01b0 FFF7FEFF 		bl	I2CHW_MasterWriteByte
 441 01b4 0346     		mov	r3, r0
 442 01b6 002B     		cmp	r3, #0
 443 01b8 03D1     		bne	.L31
 302:.\USBFS_HID_interface.c **** 				{
 303:.\USBFS_HID_interface.c **** 					flag_ACK = OK_ACK;
 444              		.loc 1 303 0
 445 01ba 4FF00103 		mov	r3, #1
 446 01be BB75     		strb	r3, [r7, #22]
 447 01c0 02E0     		b	.L32
 448              	.L31:
 304:.\USBFS_HID_interface.c **** 				}
 305:.\USBFS_HID_interface.c **** 				else
 306:.\USBFS_HID_interface.c **** 				{
 307:.\USBFS_HID_interface.c **** 					flag_ACK = NACK;
 449              		.loc 1 307 0
 450 01c2 4FF00003 		mov	r3, #0
 451 01c6 BB75     		strb	r3, [r7, #22]
 452              	.L32:
 308:.\USBFS_HID_interface.c **** 				}
 309:.\USBFS_HID_interface.c ****                 bReturnData[bIndex] = flag_ACK;
 453              		.loc 1 309 0
 454 01c8 7A7D     		ldrb	r2, [r7, #21]	@ zero_extendqisi2
 455 01ca 7B68     		ldr	r3, [r7, #4]
 456 01cc 1344     		add	r3, r2, r3
 457 01ce BA7D     		ldrb	r2, [r7, #22]
 458 01d0 1A70     		strb	r2, [r3, #0]
 310:.\USBFS_HID_interface.c ****                 if (flag_ACK == NACK)
 459              		.loc 1 310 0
 460 01d2 BB7D     		ldrb	r3, [r7, #22]	@ zero_extendqisi2
 461 01d4 002B     		cmp	r3, #0
 462 01d6 0DD0     		beq	.L39
 463              	.L33:
 311:.\USBFS_HID_interface.c ****                 {
 312:.\USBFS_HID_interface.c ****                     break;	    			
 313:.\USBFS_HID_interface.c ****                 }  			
 314:.\USBFS_HID_interface.c ****                 bIndex++;                
 464              		.loc 1 314 0
 465 01d8 7B7D     		ldrb	r3, [r7, #21]
 466 01da 03F10103 		add	r3, r3, #1
 467 01de 7B75     		strb	r3, [r7, #21]
 468              		.loc 1 298 0
 469 01e0 3B7D     		ldrb	r3, [r7, #20]
 470 01e2 03F1FF33 		add	r3, r3, #-1
 471 01e6 3B75     		strb	r3, [r7, #20]
 472              	.L30:
 473 01e8 3B7D     		ldrb	r3, [r7, #20]	@ zero_extendqisi2
 474 01ea 002B     		cmp	r3, #0
 475 01ec DBD1     		bne	.L34
 476 01ee 02E0     		b	.L24
 477              	.L38:
 478              		.loc 1 291 0
 479 01f0 00BF     		nop
 480 01f2 00E0     		b	.L24
ARM GAS  C:\DOCUME~1\ADMINI~1\LOCALS~1\Temp\ccOjxVk4.s 			page 15


 481              	.L39:
 482              		.loc 1 312 0
 483 01f4 00BF     		nop
 484              	.L24:
 315:.\USBFS_HID_interface.c ****             }    
 316:.\USBFS_HID_interface.c ****         }
 317:.\USBFS_HID_interface.c ****     }
 318:.\USBFS_HID_interface.c ****     
 319:.\USBFS_HID_interface.c ****     /* End the transaction */
 320:.\USBFS_HID_interface.c ****     if (bControlByte & CONTROL_STOP) 
 485              		.loc 1 320 0
 486 01f6 FB7B     		ldrb	r3, [r7, #15]	@ zero_extendqisi2
 487 01f8 03F00803 		and	r3, r3, #8
 488 01fc 002B     		cmp	r3, #0
 489 01fe 01D0     		beq	.L36
 321:.\USBFS_HID_interface.c **** 	{
 322:.\USBFS_HID_interface.c **** 		I2CHW_MasterSendStop();                
 490              		.loc 1 322 0
 491 0200 FFF7FEFF 		bl	I2CHW_MasterSendStop
 492              	.L36:
 323:.\USBFS_HID_interface.c **** 	}
 324:.\USBFS_HID_interface.c **** }
 493              		.loc 1 324 0
 494 0204 07F11C07 		add	r7, r7, #28
 495 0208 BD46     		mov	sp, r7
 496 020a 90BD     		pop	{r4, r7, pc}
 497              		.cfi_endproc
 498              	.LFE31:
 499              		.size	I2CTransaction, .-I2CTransaction
 500              		.section	.text.I2CPinPullUpDriveLow,"ax",%progbits
 501              		.align	2
 502              		.thumb
 503              		.thumb_func
 504              		.type	I2CPinPullUpDriveLow, %function
 505              	I2CPinPullUpDriveLow:
 506              	.LFB32:
 325:.\USBFS_HID_interface.c **** 
 326:.\USBFS_HID_interface.c **** /*******************************************************************************
 327:.\USBFS_HID_interface.c **** * Function Name: I2CPinPullUpDriveLow()
 328:.\USBFS_HID_interface.c **** ********************************************************************************
 329:.\USBFS_HID_interface.c **** * Summary:
 330:.\USBFS_HID_interface.c **** *  Set the I2C pins to open drain drive low.
 331:.\USBFS_HID_interface.c **** *
 332:.\USBFS_HID_interface.c **** * Parameters:
 333:.\USBFS_HID_interface.c **** *  void
 334:.\USBFS_HID_interface.c **** *
 335:.\USBFS_HID_interface.c **** * Return:
 336:.\USBFS_HID_interface.c **** *  void
 337:.\USBFS_HID_interface.c **** *
 338:.\USBFS_HID_interface.c **** *       
 339:.\USBFS_HID_interface.c **** *******************************************************************************/
 340:.\USBFS_HID_interface.c **** void I2CPinPullUpDriveLow(void)
 341:.\USBFS_HID_interface.c **** {
 507              		.loc 1 341 0
 508              		.cfi_startproc
 509              		@ args = 0, pretend = 0, frame = 0
 510              		@ frame_needed = 1, uses_anonymous_args = 0
ARM GAS  C:\DOCUME~1\ADMINI~1\LOCALS~1\Temp\ccOjxVk4.s 			page 16


 511              		@ link register save eliminated.
 512 0000 80B4     		push	{r7}
 513              	.LCFI8:
 514              		.cfi_def_cfa_offset 4
 515 0002 00AF     		add	r7, sp, #0
 516              		.cfi_offset 7, -4
 517              	.LCFI9:
 518              		.cfi_def_cfa_register 7
 342:.\USBFS_HID_interface.c ****     CyPins_SetPinDriveMode(Pin_I2C_SDA_0, Pin_I2C_SDA_DM_OD_LO);
 519              		.loc 1 342 0
 520 0004 45F26103 		movw	r3, #:lower16:1073762401
 521 0008 C4F20003 		movt	r3, #:upper16:1073762401
 522 000c 45F26102 		movw	r2, #:lower16:1073762401
 523 0010 C4F20002 		movt	r2, #:upper16:1073762401
 524 0014 1278     		ldrb	r2, [r2, #0]
 525 0016 D2B2     		uxtb	r2, r2
 526 0018 D2B2     		uxtb	r2, r2
 527 001a 02F0F102 		and	r2, r2, #241
 528 001e 42F00802 		orr	r2, r2, #8
 529 0022 D2B2     		uxtb	r2, r2
 530 0024 D2B2     		uxtb	r2, r2
 531 0026 1A70     		strb	r2, [r3, #0]
 343:.\USBFS_HID_interface.c ****     CyPins_SetPinDriveMode(Pin_I2C_SCL_0, Pin_I2C_SCL_DM_OD_LO);
 532              		.loc 1 343 0
 533 0028 45F26003 		movw	r3, #:lower16:1073762400
 534 002c C4F20003 		movt	r3, #:upper16:1073762400
 535 0030 45F26002 		movw	r2, #:lower16:1073762400
 536 0034 C4F20002 		movt	r2, #:upper16:1073762400
 537 0038 1278     		ldrb	r2, [r2, #0]
 538 003a D2B2     		uxtb	r2, r2
 539 003c D2B2     		uxtb	r2, r2
 540 003e 02F0F102 		and	r2, r2, #241
 541 0042 42F00802 		orr	r2, r2, #8
 542 0046 D2B2     		uxtb	r2, r2
 543 0048 D2B2     		uxtb	r2, r2
 544 004a 1A70     		strb	r2, [r3, #0]
 344:.\USBFS_HID_interface.c **** }
 545              		.loc 1 344 0
 546 004c BD46     		mov	sp, r7
 547 004e 80BC     		pop	{r7}
 548 0050 7047     		bx	lr
 549              		.cfi_endproc
 550              	.LFE32:
 551              		.size	I2CPinPullUpDriveLow, .-I2CPinPullUpDriveLow
 552 0052 00BF     		.section	.text.I2CPinTriState,"ax",%progbits
 553              		.align	2
 554              		.thumb
 555              		.thumb_func
 556              		.type	I2CPinTriState, %function
 557              	I2CPinTriState:
 558              	.LFB33:
 345:.\USBFS_HID_interface.c **** 
 346:.\USBFS_HID_interface.c **** /*******************************************************************************
 347:.\USBFS_HID_interface.c **** * Function Name: I2CPinTriState()
 348:.\USBFS_HID_interface.c **** ********************************************************************************
 349:.\USBFS_HID_interface.c **** * Summary:
 350:.\USBFS_HID_interface.c **** *  Tri state the I2C pin set.
ARM GAS  C:\DOCUME~1\ADMINI~1\LOCALS~1\Temp\ccOjxVk4.s 			page 17


 351:.\USBFS_HID_interface.c **** *
 352:.\USBFS_HID_interface.c **** * Parameters:
 353:.\USBFS_HID_interface.c **** *  void
 354:.\USBFS_HID_interface.c **** *
 355:.\USBFS_HID_interface.c **** * Return:
 356:.\USBFS_HID_interface.c **** *  void
 357:.\USBFS_HID_interface.c **** *
 358:.\USBFS_HID_interface.c **** *******************************************************************************/
 359:.\USBFS_HID_interface.c **** void I2CPinTriState(void)
 360:.\USBFS_HID_interface.c **** {
 559              		.loc 1 360 0
 560              		.cfi_startproc
 561              		@ args = 0, pretend = 0, frame = 0
 562              		@ frame_needed = 1, uses_anonymous_args = 0
 563              		@ link register save eliminated.
 564 0000 80B4     		push	{r7}
 565              	.LCFI10:
 566              		.cfi_def_cfa_offset 4
 567 0002 00AF     		add	r7, sp, #0
 568              		.cfi_offset 7, -4
 569              	.LCFI11:
 570              		.cfi_def_cfa_register 7
 361:.\USBFS_HID_interface.c ****     CyPins_SetPinDriveMode(Pin_I2C_SDA_0, Pin_I2C_SDA_DM_DIG_HIZ);
 571              		.loc 1 361 0
 572 0004 45F26103 		movw	r3, #:lower16:1073762401
 573 0008 C4F20003 		movt	r3, #:upper16:1073762401
 574 000c 45F26102 		movw	r2, #:lower16:1073762401
 575 0010 C4F20002 		movt	r2, #:upper16:1073762401
 576 0014 1278     		ldrb	r2, [r2, #0]
 577 0016 D2B2     		uxtb	r2, r2
 578 0018 D2B2     		uxtb	r2, r2
 579 001a 02F0F102 		and	r2, r2, #241
 580 001e 42F00202 		orr	r2, r2, #2
 581 0022 D2B2     		uxtb	r2, r2
 582 0024 D2B2     		uxtb	r2, r2
 583 0026 1A70     		strb	r2, [r3, #0]
 362:.\USBFS_HID_interface.c ****     CyPins_SetPinDriveMode(Pin_I2C_SCL_0, Pin_I2C_SCL_DM_DIG_HIZ);
 584              		.loc 1 362 0
 585 0028 45F26003 		movw	r3, #:lower16:1073762400
 586 002c C4F20003 		movt	r3, #:upper16:1073762400
 587 0030 45F26002 		movw	r2, #:lower16:1073762400
 588 0034 C4F20002 		movt	r2, #:upper16:1073762400
 589 0038 1278     		ldrb	r2, [r2, #0]
 590 003a D2B2     		uxtb	r2, r2
 591 003c D2B2     		uxtb	r2, r2
 592 003e 02F0F102 		and	r2, r2, #241
 593 0042 42F00202 		orr	r2, r2, #2
 594 0046 D2B2     		uxtb	r2, r2
 595 0048 D2B2     		uxtb	r2, r2
 596 004a 1A70     		strb	r2, [r3, #0]
 363:.\USBFS_HID_interface.c **** }
 597              		.loc 1 363 0
 598 004c BD46     		mov	sp, r7
 599 004e 80BC     		pop	{r7}
 600 0050 7047     		bx	lr
 601              		.cfi_endproc
 602              	.LFE33:
ARM GAS  C:\DOCUME~1\ADMINI~1\LOCALS~1\Temp\ccOjxVk4.s 			page 18


 603              		.size	I2CPinTriState, .-I2CPinTriState
 604 0052 00BF     		.section	.text.I2CPullUpEnable,"ax",%progbits
 605              		.align	2
 606              		.global	I2CPullUpEnable
 607              		.thumb
 608              		.thumb_func
 609              		.type	I2CPullUpEnable, %function
 610              	I2CPullUpEnable:
 611              	.LFB34:
 364:.\USBFS_HID_interface.c **** /*******************************************************************************
 365:.\USBFS_HID_interface.c **** * Function Name: I2CPullUpEnable()
 366:.\USBFS_HID_interface.c **** ********************************************************************************
 367:.\USBFS_HID_interface.c **** * Summary:
 368:.\USBFS_HID_interface.c **** *  Sets the drive mode of the Pull Up enable pin and sets the pn.
 369:.\USBFS_HID_interface.c **** *
 370:.\USBFS_HID_interface.c **** * Parameters:
 371:.\USBFS_HID_interface.c **** *  void
 372:.\USBFS_HID_interface.c **** *
 373:.\USBFS_HID_interface.c **** * Return:
 374:.\USBFS_HID_interface.c **** *  void
 375:.\USBFS_HID_interface.c **** *
 376:.\USBFS_HID_interface.c **** *******************************************************************************/
 377:.\USBFS_HID_interface.c **** void I2CPullUpEnable(void)
 378:.\USBFS_HID_interface.c **** {
 612              		.loc 1 378 0
 613              		.cfi_startproc
 614              		@ args = 0, pretend = 0, frame = 0
 615              		@ frame_needed = 1, uses_anonymous_args = 0
 616 0000 80B5     		push	{r7, lr}
 617              	.LCFI12:
 618              		.cfi_def_cfa_offset 8
 619 0002 00AF     		add	r7, sp, #0
 620              		.cfi_offset 14, -4
 621              		.cfi_offset 7, -8
 622              	.LCFI13:
 623              		.cfi_def_cfa_register 7
 379:.\USBFS_HID_interface.c **** 	Pin_SDAPullUp_Enable_Write(1);
 624              		.loc 1 379 0
 625 0004 4FF00100 		mov	r0, #1
 626 0008 FFF7FEFF 		bl	Pin_SDAPullUp_Enable_Write
 380:.\USBFS_HID_interface.c **** 	Pin_SCLPullUp_Enable_Write(1);
 627              		.loc 1 380 0
 628 000c 4FF00100 		mov	r0, #1
 629 0010 FFF7FEFF 		bl	Pin_SCLPullUp_Enable_Write
 381:.\USBFS_HID_interface.c **** 	CyPins_SetPinDriveMode(Pin_SDAPullUp_Enable_0, Pin_SDAPullUp_Enable_DM_STRONG);
 630              		.loc 1 381 0
 631 0014 45F26203 		movw	r3, #:lower16:1073762402
 632 0018 C4F20003 		movt	r3, #:upper16:1073762402
 633 001c 45F26202 		movw	r2, #:lower16:1073762402
 634 0020 C4F20002 		movt	r2, #:upper16:1073762402
 635 0024 1278     		ldrb	r2, [r2, #0]
 636 0026 D2B2     		uxtb	r2, r2
 637 0028 D2B2     		uxtb	r2, r2
 638 002a 02F0F102 		and	r2, r2, #241
 639 002e 42F00C02 		orr	r2, r2, #12
 640 0032 D2B2     		uxtb	r2, r2
 641 0034 D2B2     		uxtb	r2, r2
ARM GAS  C:\DOCUME~1\ADMINI~1\LOCALS~1\Temp\ccOjxVk4.s 			page 19


 642 0036 1A70     		strb	r2, [r3, #0]
 382:.\USBFS_HID_interface.c **** 	CyPins_SetPinDriveMode(Pin_SCLPullUp_Enable_0, Pin_SCLPullUp_Enable_DM_STRONG);
 643              		.loc 1 382 0
 644 0038 45F26303 		movw	r3, #:lower16:1073762403
 645 003c C4F20003 		movt	r3, #:upper16:1073762403
 646 0040 45F26302 		movw	r2, #:lower16:1073762403
 647 0044 C4F20002 		movt	r2, #:upper16:1073762403
 648 0048 1278     		ldrb	r2, [r2, #0]
 649 004a D2B2     		uxtb	r2, r2
 650 004c D2B2     		uxtb	r2, r2
 651 004e 02F0F102 		and	r2, r2, #241
 652 0052 42F00C02 		orr	r2, r2, #12
 653 0056 D2B2     		uxtb	r2, r2
 654 0058 D2B2     		uxtb	r2, r2
 655 005a 1A70     		strb	r2, [r3, #0]
 383:.\USBFS_HID_interface.c **** }
 656              		.loc 1 383 0
 657 005c 80BD     		pop	{r7, pc}
 658              		.cfi_endproc
 659              	.LFE34:
 660              		.size	I2CPullUpEnable, .-I2CPullUpEnable
 661 005e 00BF     		.section	.text.I2CPullUpDisable,"ax",%progbits
 662              		.align	2
 663              		.global	I2CPullUpDisable
 664              		.thumb
 665              		.thumb_func
 666              		.type	I2CPullUpDisable, %function
 667              	I2CPullUpDisable:
 668              	.LFB35:
 384:.\USBFS_HID_interface.c **** /*******************************************************************************
 385:.\USBFS_HID_interface.c **** * Function Name: I2CPullUpDisable()
 386:.\USBFS_HID_interface.c **** ********************************************************************************
 387:.\USBFS_HID_interface.c **** * Summary:
 388:.\USBFS_HID_interface.c **** *  Sets the drive mode of the Pull Up enable pin and sets the pn.
 389:.\USBFS_HID_interface.c **** *
 390:.\USBFS_HID_interface.c **** * Parameters:
 391:.\USBFS_HID_interface.c **** *  void
 392:.\USBFS_HID_interface.c **** *
 393:.\USBFS_HID_interface.c **** * Return:
 394:.\USBFS_HID_interface.c **** *  void
 395:.\USBFS_HID_interface.c **** *
 396:.\USBFS_HID_interface.c **** *******************************************************************************/
 397:.\USBFS_HID_interface.c **** void I2CPullUpDisable(void)
 398:.\USBFS_HID_interface.c **** {
 669              		.loc 1 398 0
 670              		.cfi_startproc
 671              		@ args = 0, pretend = 0, frame = 0
 672              		@ frame_needed = 1, uses_anonymous_args = 0
 673              		@ link register save eliminated.
 674 0000 80B4     		push	{r7}
 675              	.LCFI14:
 676              		.cfi_def_cfa_offset 4
 677 0002 00AF     		add	r7, sp, #0
 678              		.cfi_offset 7, -4
 679              	.LCFI15:
 680              		.cfi_def_cfa_register 7
 399:.\USBFS_HID_interface.c **** 	CyPins_SetPinDriveMode(Pin_SCLPullUp_Enable_0, Pin_SCLPullUp_Enable_DM_DIG_HIZ);
ARM GAS  C:\DOCUME~1\ADMINI~1\LOCALS~1\Temp\ccOjxVk4.s 			page 20


 681              		.loc 1 399 0
 682 0004 45F26303 		movw	r3, #:lower16:1073762403
 683 0008 C4F20003 		movt	r3, #:upper16:1073762403
 684 000c 45F26302 		movw	r2, #:lower16:1073762403
 685 0010 C4F20002 		movt	r2, #:upper16:1073762403
 686 0014 1278     		ldrb	r2, [r2, #0]
 687 0016 D2B2     		uxtb	r2, r2
 688 0018 D2B2     		uxtb	r2, r2
 689 001a 02F0F102 		and	r2, r2, #241
 690 001e 42F00202 		orr	r2, r2, #2
 691 0022 D2B2     		uxtb	r2, r2
 692 0024 D2B2     		uxtb	r2, r2
 693 0026 1A70     		strb	r2, [r3, #0]
 400:.\USBFS_HID_interface.c **** 	CyPins_SetPinDriveMode(Pin_SDAPullUp_Enable_0, Pin_SDAPullUp_Enable_DM_DIG_HIZ);
 694              		.loc 1 400 0
 695 0028 45F26203 		movw	r3, #:lower16:1073762402
 696 002c C4F20003 		movt	r3, #:upper16:1073762402
 697 0030 45F26202 		movw	r2, #:lower16:1073762402
 698 0034 C4F20002 		movt	r2, #:upper16:1073762402
 699 0038 1278     		ldrb	r2, [r2, #0]
 700 003a D2B2     		uxtb	r2, r2
 701 003c D2B2     		uxtb	r2, r2
 702 003e 02F0F102 		and	r2, r2, #241
 703 0042 42F00202 		orr	r2, r2, #2
 704 0046 D2B2     		uxtb	r2, r2
 705 0048 D2B2     		uxtb	r2, r2
 706 004a 1A70     		strb	r2, [r3, #0]
 401:.\USBFS_HID_interface.c **** }
 707              		.loc 1 401 0
 708 004c BD46     		mov	sp, r7
 709 004e 80BC     		pop	{r7}
 710 0050 7047     		bx	lr
 711              		.cfi_endproc
 712              	.LFE35:
 713              		.size	I2CPullUpDisable, .-I2CPullUpDisable
 714 0052 00BF     		.section	.text.I2C_DSIBypassDisable,"ax",%progbits
 715              		.align	2
 716              		.global	I2C_DSIBypassDisable
 717              		.thumb
 718              		.thumb_func
 719              		.type	I2C_DSIBypassDisable, %function
 720              	I2C_DSIBypassDisable:
 721              	.LFB36:
 402:.\USBFS_HID_interface.c **** /*******************************************************************************
 403:.\USBFS_HID_interface.c **** * Function Name: I2C_DSIBypassDisable()
 404:.\USBFS_HID_interface.c **** ********************************************************************************
 405:.\USBFS_HID_interface.c **** * Summary:
 406:.\USBFS_HID_interface.c **** *  Disable DSI bypass and let the Port logic data register drives the 
 407:.\USBFS_HID_interface.c **** *  corresponding port pin
 408:.\USBFS_HID_interface.c **** *
 409:.\USBFS_HID_interface.c **** * Parameters:.
 410:.\USBFS_HID_interface.c **** *  void
 411:.\USBFS_HID_interface.c **** *
 412:.\USBFS_HID_interface.c **** * Return:
 413:.\USBFS_HID_interface.c **** *  void
 414:.\USBFS_HID_interface.c **** *
 415:.\USBFS_HID_interface.c **** *******************************************************************************/
ARM GAS  C:\DOCUME~1\ADMINI~1\LOCALS~1\Temp\ccOjxVk4.s 			page 21


 416:.\USBFS_HID_interface.c **** void I2C_DSIBypassDisable(void)
 417:.\USBFS_HID_interface.c **** {
 722              		.loc 1 417 0
 723              		.cfi_startproc
 724              		@ args = 0, pretend = 0, frame = 0
 725              		@ frame_needed = 1, uses_anonymous_args = 0
 726              		@ link register save eliminated.
 727 0000 80B4     		push	{r7}
 728              	.LCFI16:
 729              		.cfi_def_cfa_offset 4
 730 0002 00AF     		add	r7, sp, #0
 731              		.cfi_offset 7, -4
 732              	.LCFI17:
 733              		.cfi_def_cfa_register 7
 418:.\USBFS_HID_interface.c ****     /* Let the Port logic data register drives the corresponding port pin. */
 419:.\USBFS_HID_interface.c ****     Pin_I2C_SDA_BYP = Pin_I2C_SDA_BYP & ~ (Pin_I2C_SDA_MASK | Pin_I2C_SCL_MASK);     
 734              		.loc 1 419 0
 735 0004 45F2C613 		movw	r3, #:lower16:1073762758
 736 0008 C4F20003 		movt	r3, #:upper16:1073762758
 737 000c 45F2C612 		movw	r2, #:lower16:1073762758
 738 0010 C4F20002 		movt	r2, #:upper16:1073762758
 739 0014 1278     		ldrb	r2, [r2, #0]
 740 0016 D2B2     		uxtb	r2, r2
 741 0018 02F0FC02 		and	r2, r2, #252
 742 001c 1A70     		strb	r2, [r3, #0]
 420:.\USBFS_HID_interface.c **** }
 743              		.loc 1 420 0
 744 001e BD46     		mov	sp, r7
 745 0020 80BC     		pop	{r7}
 746 0022 7047     		bx	lr
 747              		.cfi_endproc
 748              	.LFE36:
 749              		.size	I2C_DSIBypassDisable, .-I2C_DSIBypassDisable
 750              		.section	.text.I2C_DSIBypassEnable,"ax",%progbits
 751              		.align	2
 752              		.global	I2C_DSIBypassEnable
 753              		.thumb
 754              		.thumb_func
 755              		.type	I2C_DSIBypassEnable, %function
 756              	I2C_DSIBypassEnable:
 757              	.LFB37:
 421:.\USBFS_HID_interface.c **** 
 422:.\USBFS_HID_interface.c **** /*******************************************************************************
 423:.\USBFS_HID_interface.c **** * Function Name: I2C_DSIBypassEnable()
 424:.\USBFS_HID_interface.c **** ********************************************************************************
 425:.\USBFS_HID_interface.c **** * Summary:
 426:.\USBFS_HID_interface.c **** *  Enable DSI bypass and  Let digital system interconnect (DSI) drive the  
 427:.\USBFS_HID_interface.c **** *  corresponding port pin
 428:.\USBFS_HID_interface.c **** *
 429:.\USBFS_HID_interface.c **** * Parameters:.
 430:.\USBFS_HID_interface.c **** *  void
 431:.\USBFS_HID_interface.c **** *
 432:.\USBFS_HID_interface.c **** * Return:
 433:.\USBFS_HID_interface.c **** *  void
 434:.\USBFS_HID_interface.c **** *
 435:.\USBFS_HID_interface.c **** *******************************************************************************/
 436:.\USBFS_HID_interface.c **** void I2C_DSIBypassEnable(void)
ARM GAS  C:\DOCUME~1\ADMINI~1\LOCALS~1\Temp\ccOjxVk4.s 			page 22


 437:.\USBFS_HID_interface.c **** {
 758              		.loc 1 437 0
 759              		.cfi_startproc
 760              		@ args = 0, pretend = 0, frame = 0
 761              		@ frame_needed = 1, uses_anonymous_args = 0
 762              		@ link register save eliminated.
 763 0000 80B4     		push	{r7}
 764              	.LCFI18:
 765              		.cfi_def_cfa_offset 4
 766 0002 00AF     		add	r7, sp, #0
 767              		.cfi_offset 7, -4
 768              	.LCFI19:
 769              		.cfi_def_cfa_register 7
 438:.\USBFS_HID_interface.c ****     /* Let digital system interconnect (DSI) drive the corresponding port pin. */
 439:.\USBFS_HID_interface.c ****     Pin_I2C_SDA_BYP = Pin_I2C_SDA_BYP | (Pin_I2C_SDA_MASK | Pin_I2C_SCL_MASK);
 770              		.loc 1 439 0
 771 0004 45F2C613 		movw	r3, #:lower16:1073762758
 772 0008 C4F20003 		movt	r3, #:upper16:1073762758
 773 000c 45F2C612 		movw	r2, #:lower16:1073762758
 774 0010 C4F20002 		movt	r2, #:upper16:1073762758
 775 0014 1278     		ldrb	r2, [r2, #0]
 776 0016 D2B2     		uxtb	r2, r2
 777 0018 42F00302 		orr	r2, r2, #3
 778 001c D2B2     		uxtb	r2, r2
 779 001e 1A70     		strb	r2, [r3, #0]
 440:.\USBFS_HID_interface.c **** }
 780              		.loc 1 440 0
 781 0020 BD46     		mov	sp, r7
 782 0022 80BC     		pop	{r7}
 783 0024 7047     		bx	lr
 784              		.cfi_endproc
 785              	.LFE37:
 786              		.size	I2C_DSIBypassEnable, .-I2C_DSIBypassEnable
 787 0026 00BF     		.section	.text.HostCommStop,"ax",%progbits
 788              		.align	2
 789              		.global	HostCommStop
 790              		.thumb
 791              		.thumb_func
 792              		.type	HostCommStop, %function
 793              	HostCommStop:
 794              	.LFB38:
 441:.\USBFS_HID_interface.c **** /*******************************************************************************
 442:.\USBFS_HID_interface.c **** * Function Name: HostCommStop()
 443:.\USBFS_HID_interface.c **** ********************************************************************************
 444:.\USBFS_HID_interface.c **** * Summary:
 445:.\USBFS_HID_interface.c **** *  Stop USB-I2C Host function. 
 446:.\USBFS_HID_interface.c **** *
 447:.\USBFS_HID_interface.c **** * Parameters:
 448:.\USBFS_HID_interface.c **** *  void
 449:.\USBFS_HID_interface.c **** *
 450:.\USBFS_HID_interface.c **** * Return:
 451:.\USBFS_HID_interface.c **** *  void
 452:.\USBFS_HID_interface.c **** *
 453:.\USBFS_HID_interface.c **** *******************************************************************************/
 454:.\USBFS_HID_interface.c **** void HostCommStop(void)
 455:.\USBFS_HID_interface.c **** {    
 795              		.loc 1 455 0
ARM GAS  C:\DOCUME~1\ADMINI~1\LOCALS~1\Temp\ccOjxVk4.s 			page 23


 796              		.cfi_startproc
 797              		@ args = 0, pretend = 0, frame = 0
 798              		@ frame_needed = 1, uses_anonymous_args = 0
 799 0000 80B5     		push	{r7, lr}
 800              	.LCFI20:
 801              		.cfi_def_cfa_offset 8
 802 0002 00AF     		add	r7, sp, #0
 803              		.cfi_offset 14, -4
 804              		.cfi_offset 7, -8
 805              	.LCFI21:
 806              		.cfi_def_cfa_register 7
 456:.\USBFS_HID_interface.c ****     I2CHW_Stop();
 807              		.loc 1 456 0
 808 0004 FFF7FEFF 		bl	I2CHW_Stop
 457:.\USBFS_HID_interface.c **** 	I2CPinTriState();
 809              		.loc 1 457 0
 810 0008 FFF7FEFF 		bl	I2CPinTriState
 458:.\USBFS_HID_interface.c **** }
 811              		.loc 1 458 0
 812 000c 80BD     		pop	{r7, pc}
 813              		.cfi_endproc
 814              	.LFE38:
 815              		.size	HostCommStop, .-HostCommStop
 816 000e 00BF     		.section	.text.HostCommInit,"ax",%progbits
 817              		.align	2
 818              		.global	HostCommInit
 819              		.thumb
 820              		.thumb_func
 821              		.type	HostCommInit, %function
 822              	HostCommInit:
 823              	.LFB39:
 459:.\USBFS_HID_interface.c **** /*******************************************************************************
 460:.\USBFS_HID_interface.c **** * Function Name: HostCommInit()
 461:.\USBFS_HID_interface.c **** ********************************************************************************
 462:.\USBFS_HID_interface.c **** * Summary:
 463:.\USBFS_HID_interface.c **** *  Initialize Host parameters. 
 464:.\USBFS_HID_interface.c **** *
 465:.\USBFS_HID_interface.c **** * Parameters:
 466:.\USBFS_HID_interface.c **** *  void
 467:.\USBFS_HID_interface.c **** *
 468:.\USBFS_HID_interface.c **** * Return:
 469:.\USBFS_HID_interface.c **** *  void
 470:.\USBFS_HID_interface.c **** *
 471:.\USBFS_HID_interface.c **** *******************************************************************************/
 472:.\USBFS_HID_interface.c **** void HostCommInit(void)
 473:.\USBFS_HID_interface.c **** {
 824              		.loc 1 473 0
 825              		.cfi_startproc
 826              		@ args = 0, pretend = 0, frame = 0
 827              		@ frame_needed = 1, uses_anonymous_args = 0
 828 0000 80B5     		push	{r7, lr}
 829              	.LCFI22:
 830              		.cfi_def_cfa_offset 8
 831 0002 00AF     		add	r7, sp, #0
 832              		.cfi_offset 14, -4
 833              		.cfi_offset 7, -8
 834              	.LCFI23:
ARM GAS  C:\DOCUME~1\ADMINI~1\LOCALS~1\Temp\ccOjxVk4.s 			page 24


 835              		.cfi_def_cfa_register 7
 474:.\USBFS_HID_interface.c ****     /* Stop the USB-I2C bridge interface */    
 475:.\USBFS_HID_interface.c ****     HostCommStop();
 836              		.loc 1 475 0
 837 0004 FFF7FEFF 		bl	HostCommStop
 476:.\USBFS_HID_interface.c **** 	
 477:.\USBFS_HID_interface.c **** 	/* Set the default interface to be I2C*/
 478:.\USBFS_HID_interface.c ****     bHostInterface = INTERFACE_I2C;
 838              		.loc 1 478 0
 839 0008 40F20003 		movw	r3, #:lower16:bHostInterface
 840 000c C0F20003 		movt	r3, #:upper16:bHostInterface
 841 0010 4FF00002 		mov	r2, #0
 842 0014 1A70     		strb	r2, [r3, #0]
 479:.\USBFS_HID_interface.c **** 	
 480:.\USBFS_HID_interface.c **** 	/* Start the clock for I2C */
 481:.\USBFS_HID_interface.c ****     Clock_I2C_Start();
 843              		.loc 1 481 0
 844 0016 FFF7FEFF 		bl	Clock_I2C_Start
 482:.\USBFS_HID_interface.c **** 	
 483:.\USBFS_HID_interface.c **** 	/* Start the clock for UART */
 484:.\USBFS_HID_interface.c **** 	Clock_UART_Start();
 845              		.loc 1 484 0
 846 001a FFF7FEFF 		bl	Clock_UART_Start
 485:.\USBFS_HID_interface.c **** }
 847              		.loc 1 485 0
 848 001e 80BD     		pop	{r7, pc}
 849              		.cfi_endproc
 850              	.LFE39:
 851              		.size	HostCommInit, .-HostCommInit
 852              		.section	.text.HostComm,"ax",%progbits
 853              		.align	2
 854              		.global	HostComm
 855              		.thumb
 856              		.thumb_func
 857              		.type	HostComm, %function
 858              	HostComm:
 859              	.LFB40:
 486:.\USBFS_HID_interface.c **** /*******************************************************************************
 487:.\USBFS_HID_interface.c **** * Function Name: HostComm()
 488:.\USBFS_HID_interface.c **** ********************************************************************************
 489:.\USBFS_HID_interface.c **** * Summary:
 490:.\USBFS_HID_interface.c **** *  Handles the communication between the PC and the PSoC 5LP via the HID interface.
 491:.\USBFS_HID_interface.c **** *  Handles the USB-I2C Bridge functionality.
 492:.\USBFS_HID_interface.c **** *
 493:.\USBFS_HID_interface.c **** * Parameters:
 494:.\USBFS_HID_interface.c **** *  void
 495:.\USBFS_HID_interface.c **** *
 496:.\USBFS_HID_interface.c **** * Return:
 497:.\USBFS_HID_interface.c **** *  void
 498:.\USBFS_HID_interface.c **** *
 499:.\USBFS_HID_interface.c **** *******************************************************************************/
 500:.\USBFS_HID_interface.c **** void HostComm(void)
 501:.\USBFS_HID_interface.c **** {
 860              		.loc 1 501 0
 861              		.cfi_startproc
 862              		@ args = 0, pretend = 0, frame = 8
 863              		@ frame_needed = 1, uses_anonymous_args = 0
ARM GAS  C:\DOCUME~1\ADMINI~1\LOCALS~1\Temp\ccOjxVk4.s 			page 25


 864 0000 80B5     		push	{r7, lr}
 865              	.LCFI24:
 866              		.cfi_def_cfa_offset 8
 867 0002 82B0     		sub	sp, sp, #8
 868              	.LCFI25:
 869              		.cfi_def_cfa_offset 16
 870 0004 00AF     		add	r7, sp, #0
 871              		.cfi_offset 14, -4
 872              		.cfi_offset 7, -8
 873              	.LCFI26:
 874              		.cfi_def_cfa_register 7
 502:.\USBFS_HID_interface.c ****     uint8 bControl;
 503:.\USBFS_HID_interface.c ****     uint8 bLength;
 504:.\USBFS_HID_interface.c ****     uint16 wCount;
 505:.\USBFS_HID_interface.c ****     uint8 bCount;
 506:.\USBFS_HID_interface.c **** 
 507:.\USBFS_HID_interface.c ****     /* Check for data from the USB host */
 508:.\USBFS_HID_interface.c ****     if(USBFS_bGetEPAckState(HOST_OUT_EP))
 875              		.loc 1 508 0
 876 0006 4FF00400 		mov	r0, #4
 877 000a FFF7FEFF 		bl	USBFS_GetEPAckState
 878 000e 0346     		mov	r3, r0
 879 0010 002B     		cmp	r3, #0
 880 0012 00F09D82 		beq	.L79
 509:.\USBFS_HID_interface.c ****     {
 510:.\USBFS_HID_interface.c ****         /* A new USB packet has been received.  Retrieve it. */                    	
 511:.\USBFS_HID_interface.c ****         wCount = USBFS_wGetEPCount(HOST_OUT_EP);
 881              		.loc 1 511 0
 882 0016 4FF00400 		mov	r0, #4
 883 001a FFF7FEFF 		bl	USBFS_GetEPCount
 884 001e 0346     		mov	r3, r0
 885 0020 BB80     		strh	r3, [r7, #4]	@ movhi
 512:.\USBFS_HID_interface.c ****         bCount = USBFS_ReadOutEP(HOST_OUT_EP, bOutEndpointData, (wCount & 0x00FF));
 886              		.loc 1 512 0
 887 0022 BB88     		ldrh	r3, [r7, #4]
 888 0024 03F0FF03 		and	r3, r3, #255
 889 0028 4FF00400 		mov	r0, #4
 890 002c 40F20001 		movw	r1, #:lower16:bOutEndpointData
 891 0030 C0F20001 		movt	r1, #:upper16:bOutEndpointData
 892 0034 1A46     		mov	r2, r3
 893 0036 FFF7FEFF 		bl	USBFS_ReadOutEP
 894 003a 0346     		mov	r3, r0
 895 003c FB71     		strb	r3, [r7, #7]
 513:.\USBFS_HID_interface.c **** 
 514:.\USBFS_HID_interface.c ****         /* Initialize variables */
 515:.\USBFS_HID_interface.c ****         bOutPacketIndex = 0;
 896              		.loc 1 515 0
 897 003e 40F20003 		movw	r3, #:lower16:bOutPacketIndex
 898 0042 C0F20003 		movt	r3, #:upper16:bOutPacketIndex
 899 0046 4FF00002 		mov	r2, #0
 900 004a 1A70     		strb	r2, [r3, #0]
 516:.\USBFS_HID_interface.c ****         bInPacketIndex  = 0;
 901              		.loc 1 516 0
 902 004c 40F20003 		movw	r3, #:lower16:bInPacketIndex
 903 0050 C0F20003 		movt	r3, #:upper16:bInPacketIndex
 904 0054 4FF00002 		mov	r2, #0
 905 0058 1A70     		strb	r2, [r3, #0]
ARM GAS  C:\DOCUME~1\ADMINI~1\LOCALS~1\Temp\ccOjxVk4.s 			page 26


 517:.\USBFS_HID_interface.c ****         
 518:.\USBFS_HID_interface.c **** 		/* Retrieve the first two bytes of data received. 
 519:.\USBFS_HID_interface.c **** 		 * These bytes are the control and length bytes respectively. */
 520:.\USBFS_HID_interface.c ****         bControl = bOutEndpointData[bOutPacketIndex];
 906              		.loc 1 520 0
 907 005a 40F20003 		movw	r3, #:lower16:bOutPacketIndex
 908 005e C0F20003 		movt	r3, #:upper16:bOutPacketIndex
 909 0062 1B78     		ldrb	r3, [r3, #0]	@ zero_extendqisi2
 910 0064 1A46     		mov	r2, r3
 911 0066 40F20003 		movw	r3, #:lower16:bOutEndpointData
 912 006a C0F20003 		movt	r3, #:upper16:bOutEndpointData
 913 006e 9B5C     		ldrb	r3, [r3, r2]
 914 0070 BB70     		strb	r3, [r7, #2]
 521:.\USBFS_HID_interface.c ****         bOutPacketIndex++;
 915              		.loc 1 521 0
 916 0072 40F20003 		movw	r3, #:lower16:bOutPacketIndex
 917 0076 C0F20003 		movt	r3, #:upper16:bOutPacketIndex
 918 007a 1B78     		ldrb	r3, [r3, #0]	@ zero_extendqisi2
 919 007c 03F10103 		add	r3, r3, #1
 920 0080 DAB2     		uxtb	r2, r3
 921 0082 40F20003 		movw	r3, #:lower16:bOutPacketIndex
 922 0086 C0F20003 		movt	r3, #:upper16:bOutPacketIndex
 923 008a 1A70     		strb	r2, [r3, #0]
 522:.\USBFS_HID_interface.c **** 		
 523:.\USBFS_HID_interface.c **** 		/* bLength less than or equal to 61. bLength is the length of data bytes
 524:.\USBFS_HID_interface.c **** 		 * that will follow.(1 Control byte) + (1 length byte) + (1 command byte) +
 525:.\USBFS_HID_interface.c **** 		 * (61 data bytes) = 64 (Max. transfer size) */
 526:.\USBFS_HID_interface.c ****         bLength = bOutEndpointData[bOutPacketIndex] & 0x3F;
 924              		.loc 1 526 0
 925 008c 40F20003 		movw	r3, #:lower16:bOutPacketIndex
 926 0090 C0F20003 		movt	r3, #:upper16:bOutPacketIndex
 927 0094 1B78     		ldrb	r3, [r3, #0]	@ zero_extendqisi2
 928 0096 1A46     		mov	r2, r3
 929 0098 40F20003 		movw	r3, #:lower16:bOutEndpointData
 930 009c C0F20003 		movt	r3, #:upper16:bOutEndpointData
 931 00a0 9B5C     		ldrb	r3, [r3, r2]	@ zero_extendqisi2
 932 00a2 03F03F03 		and	r3, r3, #63
 933 00a6 FB70     		strb	r3, [r7, #3]
 527:.\USBFS_HID_interface.c ****         bOutPacketIndex++;
 934              		.loc 1 527 0
 935 00a8 40F20003 		movw	r3, #:lower16:bOutPacketIndex
 936 00ac C0F20003 		movt	r3, #:upper16:bOutPacketIndex
 937 00b0 1B78     		ldrb	r3, [r3, #0]	@ zero_extendqisi2
 938 00b2 03F10103 		add	r3, r3, #1
 939 00b6 DAB2     		uxtb	r2, r3
 940 00b8 40F20003 		movw	r3, #:lower16:bOutPacketIndex
 941 00bc C0F20003 		movt	r3, #:upper16:bOutPacketIndex
 942 00c0 1A70     		strb	r2, [r3, #0]
 528:.\USBFS_HID_interface.c ****         
 529:.\USBFS_HID_interface.c ****         bInEndpointData[bInPacketIndex] = 0;
 943              		.loc 1 529 0
 944 00c2 40F20003 		movw	r3, #:lower16:bInPacketIndex
 945 00c6 C0F20003 		movt	r3, #:upper16:bInPacketIndex
 946 00ca 1B78     		ldrb	r3, [r3, #0]	@ zero_extendqisi2
 947 00cc 1A46     		mov	r2, r3
 948 00ce 40F20003 		movw	r3, #:lower16:bInEndpointData
 949 00d2 C0F20003 		movt	r3, #:upper16:bInEndpointData
ARM GAS  C:\DOCUME~1\ADMINI~1\LOCALS~1\Temp\ccOjxVk4.s 			page 27


 950 00d6 4FF00001 		mov	r1, #0
 951 00da 9954     		strb	r1, [r3, r2]
 530:.\USBFS_HID_interface.c **** 
 531:.\USBFS_HID_interface.c ****         /* Retrieve the command byte if a proper start is detected. */
 532:.\USBFS_HID_interface.c ****         if (bControl & CONTROL_CONFIGURE)
 952              		.loc 1 532 0
 953 00dc BB78     		ldrb	r3, [r7, #2]	@ zero_extendqisi2
 954 00de 03F02003 		and	r3, r3, #32
 955 00e2 002B     		cmp	r3, #0
 956 00e4 56D0     		beq	.L58
 533:.\USBFS_HID_interface.c ****         {
 534:.\USBFS_HID_interface.c ****             /* Configure command gets highest priority. */    
 535:.\USBFS_HID_interface.c ****             I2CHW_Stop();
 957              		.loc 1 535 0
 958 00e6 FFF7FEFF 		bl	I2CHW_Stop
 536:.\USBFS_HID_interface.c **** 
 537:.\USBFS_HID_interface.c ****             /* 00 - 100KHz; 01 - 400KHz; 10 - 50KHz; 11 - 1000KHz */
 538:.\USBFS_HID_interface.c ****             if((bControl & CONFIG_I2C_SPEED_MSK)== I2C_SPEED_1000)
 959              		.loc 1 538 0
 960 00ea BB78     		ldrb	r3, [r7, #2]	@ zero_extendqisi2
 961 00ec 03F00C03 		and	r3, r3, #12
 962 00f0 0C2B     		cmp	r3, #12
 963 00f2 0DD1     		bne	.L59
 539:.\USBFS_HID_interface.c ****             {
 540:.\USBFS_HID_interface.c ****                 /* Source is 64 MHz, required clock is (1000K * 16 = 16MHz), so divider is 4 */
 541:.\USBFS_HID_interface.c ****                 Clock_I2C_SetDivider(4 - 1);
 964              		.loc 1 541 0
 965 00f4 4FF00300 		mov	r0, #3
 966 00f8 4FF00101 		mov	r1, #1
 967 00fc FFF7FEFF 		bl	Clock_I2C_SetDividerRegister
 542:.\USBFS_HID_interface.c **** 				i2cSpeed = I2C_SPEED_1000;
 968              		.loc 1 542 0
 969 0100 40F20003 		movw	r3, #:lower16:i2cSpeed
 970 0104 C0F20003 		movt	r3, #:upper16:i2cSpeed
 971 0108 4FF00C02 		mov	r2, #12
 972 010c 1A70     		strb	r2, [r3, #0]
 973 010e 37E0     		b	.L60
 974              	.L59:
 543:.\USBFS_HID_interface.c ****             }
 544:.\USBFS_HID_interface.c ****             else if((bControl & CONFIG_I2C_SPEED_MSK)== I2C_SPEED_400)
 975              		.loc 1 544 0
 976 0110 BB78     		ldrb	r3, [r7, #2]	@ zero_extendqisi2
 977 0112 03F00C03 		and	r3, r3, #12
 978 0116 042B     		cmp	r3, #4
 979 0118 0DD1     		bne	.L61
 545:.\USBFS_HID_interface.c ****             {
 546:.\USBFS_HID_interface.c ****                 /* Source is 64 MHz, required clock is (400K * 16 = 6.4MHz), so divider is 10 */
 547:.\USBFS_HID_interface.c ****                 Clock_I2C_SetDivider(10 - 1);
 980              		.loc 1 547 0
 981 011a 4FF00900 		mov	r0, #9
 982 011e 4FF00101 		mov	r1, #1
 983 0122 FFF7FEFF 		bl	Clock_I2C_SetDividerRegister
 548:.\USBFS_HID_interface.c **** 				i2cSpeed = I2C_SPEED_400;
 984              		.loc 1 548 0
 985 0126 40F20003 		movw	r3, #:lower16:i2cSpeed
 986 012a C0F20003 		movt	r3, #:upper16:i2cSpeed
 987 012e 4FF00402 		mov	r2, #4
ARM GAS  C:\DOCUME~1\ADMINI~1\LOCALS~1\Temp\ccOjxVk4.s 			page 28


 988 0132 1A70     		strb	r2, [r3, #0]
 989 0134 24E0     		b	.L60
 990              	.L61:
 549:.\USBFS_HID_interface.c ****             }
 550:.\USBFS_HID_interface.c ****             else if((bControl & CONFIG_I2C_SPEED_MSK)== I2C_SPEED_100)
 991              		.loc 1 550 0
 992 0136 BB78     		ldrb	r3, [r7, #2]	@ zero_extendqisi2
 993 0138 03F00C03 		and	r3, r3, #12
 994 013c 002B     		cmp	r3, #0
 995 013e 0DD1     		bne	.L62
 551:.\USBFS_HID_interface.c ****             {
 552:.\USBFS_HID_interface.c ****                 /* Source is 64 MHz, required clock is (100K * 16 = 1.6MHz), so divider is 40 */
 553:.\USBFS_HID_interface.c ****                 Clock_I2C_SetDivider(40 - 1);
 996              		.loc 1 553 0
 997 0140 4FF02700 		mov	r0, #39
 998 0144 4FF00101 		mov	r1, #1
 999 0148 FFF7FEFF 		bl	Clock_I2C_SetDividerRegister
 554:.\USBFS_HID_interface.c **** 				i2cSpeed = I2C_SPEED_100;
 1000              		.loc 1 554 0
 1001 014c 40F20003 		movw	r3, #:lower16:i2cSpeed
 1002 0150 C0F20003 		movt	r3, #:upper16:i2cSpeed
 1003 0154 4FF00002 		mov	r2, #0
 1004 0158 1A70     		strb	r2, [r3, #0]
 1005 015a 11E0     		b	.L60
 1006              	.L62:
 555:.\USBFS_HID_interface.c ****             }
 556:.\USBFS_HID_interface.c ****             else if((bControl & CONFIG_I2C_SPEED_MSK)== I2C_SPEED_050)
 1007              		.loc 1 556 0
 1008 015c BB78     		ldrb	r3, [r7, #2]	@ zero_extendqisi2
 1009 015e 03F00C03 		and	r3, r3, #12
 1010 0162 082B     		cmp	r3, #8
 1011 0164 0CD1     		bne	.L60
 557:.\USBFS_HID_interface.c ****             {
 558:.\USBFS_HID_interface.c ****                 /* Source is 64 MHz, required clock is (50K * 16 = 0.8MHz), so divider is 80 */
 559:.\USBFS_HID_interface.c ****                 Clock_I2C_SetDivider(80 - 1);
 1012              		.loc 1 559 0
 1013 0166 4FF04F00 		mov	r0, #79
 1014 016a 4FF00101 		mov	r1, #1
 1015 016e FFF7FEFF 		bl	Clock_I2C_SetDividerRegister
 560:.\USBFS_HID_interface.c **** 				i2cSpeed = I2C_SPEED_050;
 1016              		.loc 1 560 0
 1017 0172 40F20003 		movw	r3, #:lower16:i2cSpeed
 1018 0176 C0F20003 		movt	r3, #:upper16:i2cSpeed
 1019 017a 4FF00802 		mov	r2, #8
 1020 017e 1A70     		strb	r2, [r3, #0]
 1021              	.L60:
 561:.\USBFS_HID_interface.c ****             }
 562:.\USBFS_HID_interface.c **** 			
 563:.\USBFS_HID_interface.c **** 			/* Start the I2C and acknowledge */
 564:.\USBFS_HID_interface.c ****             I2CHW_Start();
 1022              		.loc 1 564 0
 1023 0180 FFF7FEFF 		bl	I2CHW_Start
 565:.\USBFS_HID_interface.c ****             bInEndpointData[0] = OK_ACK;				
 1024              		.loc 1 565 0
 1025 0184 40F20003 		movw	r3, #:lower16:bInEndpointData
 1026 0188 C0F20003 		movt	r3, #:upper16:bInEndpointData
 1027 018c 4FF00102 		mov	r2, #1
ARM GAS  C:\DOCUME~1\ADMINI~1\LOCALS~1\Temp\ccOjxVk4.s 			page 29


 1028 0190 1A70     		strb	r2, [r3, #0]
 1029 0192 DBE1     		b	.L63
 1030              	.L58:
 566:.\USBFS_HID_interface.c ****         }
 567:.\USBFS_HID_interface.c ****         else if (bControl & CONTROL_RESTART_HW)
 1031              		.loc 1 567 0
 1032 0194 BB78     		ldrb	r3, [r7, #2]	@ zero_extendqisi2
 1033 0196 03F01003 		and	r3, r3, #16
 1034 019a 002B     		cmp	r3, #0
 1035 019c 14D0     		beq	.L64
 568:.\USBFS_HID_interface.c ****         {
 569:.\USBFS_HID_interface.c ****             /* HW restart command gets 2nd highest priority */
 570:.\USBFS_HID_interface.c ****             /* Restarts the I2C Hardware */
 571:.\USBFS_HID_interface.c ****             if(I2CRestart() == RESTART_SUCCESS)
 1036              		.loc 1 571 0
 1037 019e FFF7FEFF 		bl	I2CRestart
 1038 01a2 0346     		mov	r3, r0
 1039 01a4 012B     		cmp	r3, #1
 1040 01a6 07D1     		bne	.L65
 572:.\USBFS_HID_interface.c **** 			{
 573:.\USBFS_HID_interface.c ****             	bInEndpointData[0] = OK_ACK;
 1041              		.loc 1 573 0
 1042 01a8 40F20003 		movw	r3, #:lower16:bInEndpointData
 1043 01ac C0F20003 		movt	r3, #:upper16:bInEndpointData
 1044 01b0 4FF00102 		mov	r2, #1
 1045 01b4 1A70     		strb	r2, [r3, #0]
 574:.\USBFS_HID_interface.c **** 			}
 575:.\USBFS_HID_interface.c **** 			else
 576:.\USBFS_HID_interface.c **** 			{
 577:.\USBFS_HID_interface.c **** 				bInEndpointData[0] = NACK;
 1046              		.loc 1 577 0
 1047 01b6 C9E1     		b	.L63
 1048              	.L65:
 1049 01b8 40F20003 		movw	r3, #:lower16:bInEndpointData
 1050 01bc C0F20003 		movt	r3, #:upper16:bInEndpointData
 1051 01c0 4FF00002 		mov	r2, #0
 1052 01c4 1A70     		strb	r2, [r3, #0]
 1053 01c6 C1E1     		b	.L63
 1054              	.L64:
 578:.\USBFS_HID_interface.c **** 			}
 579:.\USBFS_HID_interface.c ****         }
 580:.\USBFS_HID_interface.c ****         else if ((bControl & CONTROL_START) && (bOutEndpointData[bOutPacketIndex] & PACKET_VALID))
 1055              		.loc 1 580 0
 1056 01c8 BB78     		ldrb	r3, [r7, #2]	@ zero_extendqisi2
 1057 01ca 03F00203 		and	r3, r3, #2
 1058 01ce 002B     		cmp	r3, #0
 1059 01d0 00F09981 		beq	.L67
 1060 01d4 40F20003 		movw	r3, #:lower16:bOutPacketIndex
 1061 01d8 C0F20003 		movt	r3, #:upper16:bOutPacketIndex
 1062 01dc 1B78     		ldrb	r3, [r3, #0]	@ zero_extendqisi2
 1063 01de 1A46     		mov	r2, r3
 1064 01e0 40F20003 		movw	r3, #:lower16:bOutEndpointData
 1065 01e4 C0F20003 		movt	r3, #:upper16:bOutEndpointData
 1066 01e8 9B5C     		ldrb	r3, [r3, r2]	@ zero_extendqisi2
 1067 01ea 5BB2     		sxtb	r3, r3
 1068 01ec 002B     		cmp	r3, #0
 1069 01ee 80F28A81 		bge	.L67
ARM GAS  C:\DOCUME~1\ADMINI~1\LOCALS~1\Temp\ccOjxVk4.s 			page 30


 581:.\USBFS_HID_interface.c ****         {   	 		
 582:.\USBFS_HID_interface.c ****             /* An extended command gets 3rd highest priority */
 583:.\USBFS_HID_interface.c ****             /* Acknowledge the command and indicate presence of Vdev. 
 584:.\USBFS_HID_interface.c **** 			 * Bit 2 of the ack indicates presence of power. */
 585:.\USBFS_HID_interface.c ****             if(GetVoltage() > ONE_VOLT)
 1070              		.loc 1 585 0
 1071 01f2 FFF7FEFF 		bl	GetVoltage
 1072 01f6 0346     		mov	r3, r0
 1073 01f8 B3F57A7F 		cmp	r3, #1000
 1074 01fc 0DD9     		bls	.L68
 586:.\USBFS_HID_interface.c **** 			{
 587:.\USBFS_HID_interface.c ****            		bInEndpointData[bInPacketIndex] = ACK_WITH_POWER;  
 1075              		.loc 1 587 0
 1076 01fe 40F20003 		movw	r3, #:lower16:bInPacketIndex
 1077 0202 C0F20003 		movt	r3, #:upper16:bInPacketIndex
 1078 0206 1B78     		ldrb	r3, [r3, #0]	@ zero_extendqisi2
 1079 0208 1A46     		mov	r2, r3
 1080 020a 40F20003 		movw	r3, #:lower16:bInEndpointData
 1081 020e C0F20003 		movt	r3, #:upper16:bInEndpointData
 1082 0212 4FF00501 		mov	r1, #5
 1083 0216 9954     		strb	r1, [r3, r2]
 1084 0218 0CE0     		b	.L69
 1085              	.L68:
 588:.\USBFS_HID_interface.c **** 			}
 589:.\USBFS_HID_interface.c **** 			else
 590:.\USBFS_HID_interface.c **** 			{
 591:.\USBFS_HID_interface.c **** 				bInEndpointData[bInPacketIndex] = ACK_WITHOUT_POWER;
 1086              		.loc 1 591 0
 1087 021a 40F20003 		movw	r3, #:lower16:bInPacketIndex
 1088 021e C0F20003 		movt	r3, #:upper16:bInPacketIndex
 1089 0222 1B78     		ldrb	r3, [r3, #0]	@ zero_extendqisi2
 1090 0224 1A46     		mov	r2, r3
 1091 0226 40F20003 		movw	r3, #:lower16:bInEndpointData
 1092 022a C0F20003 		movt	r3, #:upper16:bInEndpointData
 1093 022e 4FF00101 		mov	r1, #1
 1094 0232 9954     		strb	r1, [r3, r2]
 1095              	.L69:
 592:.\USBFS_HID_interface.c **** 			}
 593:.\USBFS_HID_interface.c ****            	bInPacketIndex++;
 1096              		.loc 1 593 0
 1097 0234 40F20003 		movw	r3, #:lower16:bInPacketIndex
 1098 0238 C0F20003 		movt	r3, #:upper16:bInPacketIndex
 1099 023c 1B78     		ldrb	r3, [r3, #0]	@ zero_extendqisi2
 1100 023e 03F10103 		add	r3, r3, #1
 1101 0242 DAB2     		uxtb	r2, r3
 1102 0244 40F20003 		movw	r3, #:lower16:bInPacketIndex
 1103 0248 C0F20003 		movt	r3, #:upper16:bInPacketIndex
 1104 024c 1A70     		strb	r2, [r3, #0]
 594:.\USBFS_HID_interface.c ****                 
 595:.\USBFS_HID_interface.c ****             /* Parse the command */
 596:.\USBFS_HID_interface.c **** 			if (bOutEndpointData[bOutPacketIndex] == GET_POWER_SETTING)
 1105              		.loc 1 596 0
 1106 024e 40F20003 		movw	r3, #:lower16:bOutPacketIndex
 1107 0252 C0F20003 		movt	r3, #:upper16:bOutPacketIndex
 1108 0256 1B78     		ldrb	r3, [r3, #0]	@ zero_extendqisi2
 1109 0258 1A46     		mov	r2, r3
 1110 025a 40F20003 		movw	r3, #:lower16:bOutEndpointData
ARM GAS  C:\DOCUME~1\ADMINI~1\LOCALS~1\Temp\ccOjxVk4.s 			page 31


 1111 025e C0F20003 		movt	r3, #:upper16:bOutEndpointData
 1112 0262 9B5C     		ldrb	r3, [r3, r2]	@ zero_extendqisi2
 1113 0264 802B     		cmp	r3, #128
 1114 0266 40F09D80 		bne	.L70
 597:.\USBFS_HID_interface.c ****             {
 598:.\USBFS_HID_interface.c ****                 /* Command 0x80 = GET_POWER_SETTING */
 599:.\USBFS_HID_interface.c ****                 /* Determine if set or get power */
 600:.\USBFS_HID_interface.c ****                 if (bControl & 0x01)
 1115              		.loc 1 600 0
 1116 026a BB78     		ldrb	r3, [r7, #2]	@ zero_extendqisi2
 1117 026c 03F00103 		and	r3, r3, #1
 1118 0270 DBB2     		uxtb	r3, r3
 1119 0272 002B     		cmp	r3, #0
 1120 0274 00F06781 		beq	.L80
 601:.\USBFS_HID_interface.c ****                 {
 602:.\USBFS_HID_interface.c ****                     /* Get power configuration */
 603:.\USBFS_HID_interface.c ****                     bInEndpointData[bInPacketIndex++] = POWER_SUPPLIED; 
 1121              		.loc 1 603 0
 1122 0278 40F20003 		movw	r3, #:lower16:bInPacketIndex
 1123 027c C0F20003 		movt	r3, #:upper16:bInPacketIndex
 1124 0280 1A78     		ldrb	r2, [r3, #0]	@ zero_extendqisi2
 1125 0282 1146     		mov	r1, r2
 1126 0284 40F20003 		movw	r3, #:lower16:bInEndpointData
 1127 0288 C0F20003 		movt	r3, #:upper16:bInEndpointData
 1128 028c 4FF00100 		mov	r0, #1
 1129 0290 5854     		strb	r0, [r3, r1]
 1130 0292 02F10103 		add	r3, r2, #1
 1131 0296 DAB2     		uxtb	r2, r3
 1132 0298 40F20003 		movw	r3, #:lower16:bInPacketIndex
 1133 029c C0F20003 		movt	r3, #:upper16:bInPacketIndex
 1134 02a0 1A70     		strb	r2, [r3, #0]
 604:.\USBFS_HID_interface.c **** 					/* Not used by KitProg, Used for I2C speed update by TTBridge */
 605:.\USBFS_HID_interface.c ****                     bInEndpointData[bInPacketIndex++] = i2cSpeed;
 1135              		.loc 1 605 0
 1136 02a2 40F20003 		movw	r3, #:lower16:bInPacketIndex
 1137 02a6 C0F20003 		movt	r3, #:upper16:bInPacketIndex
 1138 02aa 1A78     		ldrb	r2, [r3, #0]	@ zero_extendqisi2
 1139 02ac 1146     		mov	r1, r2
 1140 02ae 40F20003 		movw	r3, #:lower16:i2cSpeed
 1141 02b2 C0F20003 		movt	r3, #:upper16:i2cSpeed
 1142 02b6 1878     		ldrb	r0, [r3, #0]	@ zero_extendqisi2
 1143 02b8 40F20003 		movw	r3, #:lower16:bInEndpointData
 1144 02bc C0F20003 		movt	r3, #:upper16:bInEndpointData
 1145 02c0 5854     		strb	r0, [r3, r1]
 1146 02c2 02F10103 		add	r3, r2, #1
 1147 02c6 DAB2     		uxtb	r2, r3
 1148 02c8 40F20003 		movw	r3, #:lower16:bInPacketIndex
 1149 02cc C0F20003 		movt	r3, #:upper16:bInPacketIndex
 1150 02d0 1A70     		strb	r2, [r3, #0]
 606:.\USBFS_HID_interface.c ****                     voltage = GetVoltage();
 1151              		.loc 1 606 0
 1152 02d2 FFF7FEFF 		bl	GetVoltage
 1153 02d6 0346     		mov	r3, r0
 1154 02d8 1A46     		mov	r2, r3
 1155 02da 40F20003 		movw	r3, #:lower16:voltage
 1156 02de C0F20003 		movt	r3, #:upper16:voltage
 1157 02e2 1A80     		strh	r2, [r3, #0]	@ movhi
ARM GAS  C:\DOCUME~1\ADMINI~1\LOCALS~1\Temp\ccOjxVk4.s 			page 32


 607:.\USBFS_HID_interface.c **** 					
 608:.\USBFS_HID_interface.c **** 					/* Return the voltage value to the programmer GUI */
 609:.\USBFS_HID_interface.c ****                     bInEndpointData[bInPacketIndex++] = (uint8)(voltage & 0xFF);
 1158              		.loc 1 609 0
 1159 02e4 40F20003 		movw	r3, #:lower16:bInPacketIndex
 1160 02e8 C0F20003 		movt	r3, #:upper16:bInPacketIndex
 1161 02ec 1A78     		ldrb	r2, [r3, #0]	@ zero_extendqisi2
 1162 02ee 1146     		mov	r1, r2
 1163 02f0 40F20003 		movw	r3, #:lower16:voltage
 1164 02f4 C0F20003 		movt	r3, #:upper16:voltage
 1165 02f8 1B88     		ldrh	r3, [r3, #0]
 1166 02fa D8B2     		uxtb	r0, r3
 1167 02fc 40F20003 		movw	r3, #:lower16:bInEndpointData
 1168 0300 C0F20003 		movt	r3, #:upper16:bInEndpointData
 1169 0304 5854     		strb	r0, [r3, r1]
 1170 0306 02F10103 		add	r3, r2, #1
 1171 030a DAB2     		uxtb	r2, r3
 1172 030c 40F20003 		movw	r3, #:lower16:bInPacketIndex
 1173 0310 C0F20003 		movt	r3, #:upper16:bInPacketIndex
 1174 0314 1A70     		strb	r2, [r3, #0]
 610:.\USBFS_HID_interface.c ****                     bInEndpointData[bInPacketIndex++] = (uint8)((voltage >> 8)& 0xFF);
 1175              		.loc 1 610 0
 1176 0316 40F20003 		movw	r3, #:lower16:bInPacketIndex
 1177 031a C0F20003 		movt	r3, #:upper16:bInPacketIndex
 1178 031e 1A78     		ldrb	r2, [r3, #0]	@ zero_extendqisi2
 1179 0320 1146     		mov	r1, r2
 1180 0322 40F20003 		movw	r3, #:lower16:voltage
 1181 0326 C0F20003 		movt	r3, #:upper16:voltage
 1182 032a 1B88     		ldrh	r3, [r3, #0]
 1183 032c 4FEA1323 		lsr	r3, r3, #8
 1184 0330 9BB2     		uxth	r3, r3
 1185 0332 D8B2     		uxtb	r0, r3
 1186 0334 40F20003 		movw	r3, #:lower16:bInEndpointData
 1187 0338 C0F20003 		movt	r3, #:upper16:bInEndpointData
 1188 033c 5854     		strb	r0, [r3, r1]
 1189 033e 02F10103 		add	r3, r2, #1
 1190 0342 DAB2     		uxtb	r2, r3
 1191 0344 40F20003 		movw	r3, #:lower16:bInPacketIndex
 1192 0348 C0F20003 		movt	r3, #:upper16:bInPacketIndex
 1193 034c 1A70     		strb	r2, [r3, #0]
 611:.\USBFS_HID_interface.c **** 					
 612:.\USBFS_HID_interface.c **** 					/* Not used by KitProg, Used for VAUX measurement by TTBridge */
 613:.\USBFS_HID_interface.c ****                     bInEndpointData[bInPacketIndex++] = 0;
 1194              		.loc 1 613 0
 1195 034e 40F20003 		movw	r3, #:lower16:bInPacketIndex
 1196 0352 C0F20003 		movt	r3, #:upper16:bInPacketIndex
 1197 0356 1A78     		ldrb	r2, [r3, #0]	@ zero_extendqisi2
 1198 0358 1146     		mov	r1, r2
 1199 035a 40F20003 		movw	r3, #:lower16:bInEndpointData
 1200 035e C0F20003 		movt	r3, #:upper16:bInEndpointData
 1201 0362 4FF00000 		mov	r0, #0
 1202 0366 5854     		strb	r0, [r3, r1]
 1203 0368 02F10103 		add	r3, r2, #1
 1204 036c DAB2     		uxtb	r2, r3
 1205 036e 40F20003 		movw	r3, #:lower16:bInPacketIndex
 1206 0372 C0F20003 		movt	r3, #:upper16:bInPacketIndex
 1207 0376 1A70     		strb	r2, [r3, #0]
ARM GAS  C:\DOCUME~1\ADMINI~1\LOCALS~1\Temp\ccOjxVk4.s 			page 33


 614:.\USBFS_HID_interface.c ****                     bInEndpointData[bInPacketIndex++] = 0;
 1208              		.loc 1 614 0
 1209 0378 40F20003 		movw	r3, #:lower16:bInPacketIndex
 1210 037c C0F20003 		movt	r3, #:upper16:bInPacketIndex
 1211 0380 1A78     		ldrb	r2, [r3, #0]	@ zero_extendqisi2
 1212 0382 1146     		mov	r1, r2
 1213 0384 40F20003 		movw	r3, #:lower16:bInEndpointData
 1214 0388 C0F20003 		movt	r3, #:upper16:bInEndpointData
 1215 038c 4FF00000 		mov	r0, #0
 1216 0390 5854     		strb	r0, [r3, r1]
 1217 0392 02F10103 		add	r3, r2, #1
 1218 0396 DAB2     		uxtb	r2, r3
 1219 0398 40F20003 		movw	r3, #:lower16:bInPacketIndex
 1220 039c C0F20003 		movt	r3, #:upper16:bInPacketIndex
 1221 03a0 1A70     		strb	r2, [r3, #0]
 1222              		.loc 1 580 0
 1223 03a2 D3E0     		b	.L63
 1224              	.L70:
 615:.\USBFS_HID_interface.c ****                 }
 616:.\USBFS_HID_interface.c ****                 else 
 617:.\USBFS_HID_interface.c ****                 {                        
 618:.\USBFS_HID_interface.c ****                     /* Set Power command for powercycle mode. Do nothing for now. */               
 619:.\USBFS_HID_interface.c ****                 }
 620:.\USBFS_HID_interface.c ****             }
 621:.\USBFS_HID_interface.c ****             else if (bOutEndpointData[bOutPacketIndex] == GET_KITPROG_VERSION)
 1225              		.loc 1 621 0
 1226 03a4 40F20003 		movw	r3, #:lower16:bOutPacketIndex
 1227 03a8 C0F20003 		movt	r3, #:upper16:bOutPacketIndex
 1228 03ac 1B78     		ldrb	r3, [r3, #0]	@ zero_extendqisi2
 1229 03ae 1A46     		mov	r2, r3
 1230 03b0 40F20003 		movw	r3, #:lower16:bOutEndpointData
 1231 03b4 C0F20003 		movt	r3, #:upper16:bOutEndpointData
 1232 03b8 9B5C     		ldrb	r3, [r3, r2]	@ zero_extendqisi2
 1233 03ba 812B     		cmp	r3, #129
 1234 03bc 3AD1     		bne	.L73
 622:.\USBFS_HID_interface.c ****             {
 623:.\USBFS_HID_interface.c ****                 /* Command 0x81 = Get KitProg version info*/
 624:.\USBFS_HID_interface.c ****                 bInEndpointData[bInPacketIndex++] = kitProgHWVersion;
 1235              		.loc 1 624 0
 1236 03be 40F20003 		movw	r3, #:lower16:bInPacketIndex
 1237 03c2 C0F20003 		movt	r3, #:upper16:bInPacketIndex
 1238 03c6 1A78     		ldrb	r2, [r3, #0]	@ zero_extendqisi2
 1239 03c8 1146     		mov	r1, r2
 1240 03ca 40F20003 		movw	r3, #:lower16:kitProgHWVersion
 1241 03ce C0F20003 		movt	r3, #:upper16:kitProgHWVersion
 1242 03d2 1878     		ldrb	r0, [r3, #0]	@ zero_extendqisi2
 1243 03d4 40F20003 		movw	r3, #:lower16:bInEndpointData
 1244 03d8 C0F20003 		movt	r3, #:upper16:bInEndpointData
 1245 03dc 5854     		strb	r0, [r3, r1]
 1246 03de 02F10103 		add	r3, r2, #1
 1247 03e2 DAB2     		uxtb	r2, r3
 1248 03e4 40F20003 		movw	r3, #:lower16:bInPacketIndex
 1249 03e8 C0F20003 		movt	r3, #:upper16:bInPacketIndex
 1250 03ec 1A70     		strb	r2, [r3, #0]
 625:.\USBFS_HID_interface.c ****                 bInEndpointData[bInPacketIndex++] = VER_MINOR ;
 1251              		.loc 1 625 0
 1252 03ee 40F20003 		movw	r3, #:lower16:bInPacketIndex
ARM GAS  C:\DOCUME~1\ADMINI~1\LOCALS~1\Temp\ccOjxVk4.s 			page 34


 1253 03f2 C0F20003 		movt	r3, #:upper16:bInPacketIndex
 1254 03f6 1A78     		ldrb	r2, [r3, #0]	@ zero_extendqisi2
 1255 03f8 1146     		mov	r1, r2
 1256 03fa 40F20003 		movw	r3, #:lower16:bInEndpointData
 1257 03fe C0F20003 		movt	r3, #:upper16:bInEndpointData
 1258 0402 4FF00300 		mov	r0, #3
 1259 0406 5854     		strb	r0, [r3, r1]
 1260 0408 02F10103 		add	r3, r2, #1
 1261 040c DAB2     		uxtb	r2, r3
 1262 040e 40F20003 		movw	r3, #:lower16:bInPacketIndex
 1263 0412 C0F20003 		movt	r3, #:upper16:bInPacketIndex
 1264 0416 1A70     		strb	r2, [r3, #0]
 626:.\USBFS_HID_interface.c ****                 bInEndpointData[bInPacketIndex] = VER_MAJOR;
 1265              		.loc 1 626 0
 1266 0418 40F20003 		movw	r3, #:lower16:bInPacketIndex
 1267 041c C0F20003 		movt	r3, #:upper16:bInPacketIndex
 1268 0420 1B78     		ldrb	r3, [r3, #0]	@ zero_extendqisi2
 1269 0422 1A46     		mov	r2, r3
 1270 0424 40F20003 		movw	r3, #:lower16:bInEndpointData
 1271 0428 C0F20003 		movt	r3, #:upper16:bInEndpointData
 1272 042c 4FF00201 		mov	r1, #2
 1273 0430 9954     		strb	r1, [r3, r2]
 1274              		.loc 1 580 0
 1275 0432 8BE0     		b	.L63
 1276              	.L73:
 627:.\USBFS_HID_interface.c ****             }				
 628:.\USBFS_HID_interface.c ****             else if (bOutEndpointData[bOutPacketIndex] == RESET_KITPROG)
 1277              		.loc 1 628 0
 1278 0434 40F20003 		movw	r3, #:lower16:bOutPacketIndex
 1279 0438 C0F20003 		movt	r3, #:upper16:bOutPacketIndex
 1280 043c 1B78     		ldrb	r3, [r3, #0]	@ zero_extendqisi2
 1281 043e 1A46     		mov	r2, r3
 1282 0440 40F20003 		movw	r3, #:lower16:bOutEndpointData
 1283 0444 C0F20003 		movt	r3, #:upper16:bOutEndpointData
 1284 0448 9B5C     		ldrb	r3, [r3, r2]	@ zero_extendqisi2
 1285 044a 822B     		cmp	r3, #130
 1286 044c 02D1     		bne	.L74
 629:.\USBFS_HID_interface.c ****             {
 630:.\USBFS_HID_interface.c ****                 /* Command 0x82 = Reset the KitProg */
 631:.\USBFS_HID_interface.c ****                 CySoftwareReset();
 1287              		.loc 1 631 0
 1288 044e FFF7FEFF 		bl	CySoftwareReset
 1289              		.loc 1 580 0
 1290 0452 7BE0     		b	.L63
 1291              	.L74:
 632:.\USBFS_HID_interface.c ****             }
 633:.\USBFS_HID_interface.c ****             else if (bOutEndpointData[bOutPacketIndex] == CONFIGURE_INTERFACE)
 1292              		.loc 1 633 0
 1293 0454 40F20003 		movw	r3, #:lower16:bOutPacketIndex
 1294 0458 C0F20003 		movt	r3, #:upper16:bOutPacketIndex
 1295 045c 1B78     		ldrb	r3, [r3, #0]	@ zero_extendqisi2
 1296 045e 1A46     		mov	r2, r3
 1297 0460 40F20003 		movw	r3, #:lower16:bOutEndpointData
 1298 0464 C0F20003 		movt	r3, #:upper16:bOutEndpointData
 1299 0468 9B5C     		ldrb	r3, [r3, r2]	@ zero_extendqisi2
 1300 046a 8F2B     		cmp	r3, #143
 1301 046c 3BD1     		bne	.L75
ARM GAS  C:\DOCUME~1\ADMINI~1\LOCALS~1\Temp\ccOjxVk4.s 			page 35


 634:.\USBFS_HID_interface.c ****             {
 635:.\USBFS_HID_interface.c ****                 /* Command 0x8F = Configure Communication Interface */
 636:.\USBFS_HID_interface.c **** 				/* Stop all the interface first to avoid any collisions */
 637:.\USBFS_HID_interface.c ****                 HostCommStop();                
 1302              		.loc 1 637 0
 1303 046e FFF7FEFF 		bl	HostCommStop
 638:.\USBFS_HID_interface.c **** 				
 639:.\USBFS_HID_interface.c **** 				/* Set the interface to be I2C and acknowledge the command */
 640:.\USBFS_HID_interface.c ****                 bOutPacketIndex++;
 1304              		.loc 1 640 0
 1305 0472 40F20003 		movw	r3, #:lower16:bOutPacketIndex
 1306 0476 C0F20003 		movt	r3, #:upper16:bOutPacketIndex
 1307 047a 1B78     		ldrb	r3, [r3, #0]	@ zero_extendqisi2
 1308 047c 03F10103 		add	r3, r3, #1
 1309 0480 DAB2     		uxtb	r2, r3
 1310 0482 40F20003 		movw	r3, #:lower16:bOutPacketIndex
 1311 0486 C0F20003 		movt	r3, #:upper16:bOutPacketIndex
 1312 048a 1A70     		strb	r2, [r3, #0]
 641:.\USBFS_HID_interface.c ****                 if (bOutEndpointData[bOutPacketIndex] == INTERFACE_I2C)
 1313              		.loc 1 641 0
 1314 048c 40F20003 		movw	r3, #:lower16:bOutPacketIndex
 1315 0490 C0F20003 		movt	r3, #:upper16:bOutPacketIndex
 1316 0494 1B78     		ldrb	r3, [r3, #0]	@ zero_extendqisi2
 1317 0496 1A46     		mov	r2, r3
 1318 0498 40F20003 		movw	r3, #:lower16:bOutEndpointData
 1319 049c C0F20003 		movt	r3, #:upper16:bOutEndpointData
 1320 04a0 9B5C     		ldrb	r3, [r3, r2]	@ zero_extendqisi2
 1321 04a2 002B     		cmp	r3, #0
 1322 04a4 1CD1     		bne	.L76
 642:.\USBFS_HID_interface.c ****                 {
 643:.\USBFS_HID_interface.c ****                     /* Enable the I2C Pull Ups */
 644:.\USBFS_HID_interface.c **** 					I2CPullUpEnable();
 1323              		.loc 1 644 0
 1324 04a6 FFF7FEFF 		bl	I2CPullUpEnable
 645:.\USBFS_HID_interface.c **** 					
 646:.\USBFS_HID_interface.c **** 					/* Set the I2C pins drive mode */
 647:.\USBFS_HID_interface.c ****                     I2CPinPullUpDriveLow();
 1325              		.loc 1 647 0
 1326 04aa FFF7FEFF 		bl	I2CPinPullUpDriveLow
 648:.\USBFS_HID_interface.c **** 					
 649:.\USBFS_HID_interface.c **** 					/* Start the communication interfaces */
 650:.\USBFS_HID_interface.c ****                     I2CHW_Start();
 1327              		.loc 1 650 0
 1328 04ae FFF7FEFF 		bl	I2CHW_Start
 651:.\USBFS_HID_interface.c ****                     I2CRestart();
 1329              		.loc 1 651 0
 1330 04b2 FFF7FEFF 		bl	I2CRestart
 652:.\USBFS_HID_interface.c ****                     bHostInterface = INTERFACE_I2C;                        
 1331              		.loc 1 652 0
 1332 04b6 40F20003 		movw	r3, #:lower16:bHostInterface
 1333 04ba C0F20003 		movt	r3, #:upper16:bHostInterface
 1334 04be 4FF00002 		mov	r2, #0
 1335 04c2 1A70     		strb	r2, [r3, #0]
 653:.\USBFS_HID_interface.c ****                     bInEndpointData[bInPacketIndex] = INTERFACE_I2C;
 1336              		.loc 1 653 0
 1337 04c4 40F20003 		movw	r3, #:lower16:bInPacketIndex
 1338 04c8 C0F20003 		movt	r3, #:upper16:bInPacketIndex
ARM GAS  C:\DOCUME~1\ADMINI~1\LOCALS~1\Temp\ccOjxVk4.s 			page 36


 1339 04cc 1B78     		ldrb	r3, [r3, #0]	@ zero_extendqisi2
 1340 04ce 1A46     		mov	r2, r3
 1341 04d0 40F20003 		movw	r3, #:lower16:bInEndpointData
 1342 04d4 C0F20003 		movt	r3, #:upper16:bInEndpointData
 1343 04d8 4FF00001 		mov	r1, #0
 1344 04dc 9954     		strb	r1, [r3, r2]
 1345              		.loc 1 580 0
 1346 04de 35E0     		b	.L63
 1347              	.L76:
 654:.\USBFS_HID_interface.c ****                 }
 655:.\USBFS_HID_interface.c **** 				else
 656:.\USBFS_HID_interface.c **** 				{
 657:.\USBFS_HID_interface.c **** 					/* Disable the I2C Pull Ups */
 658:.\USBFS_HID_interface.c **** 					I2CPullUpDisable();
 1348              		.loc 1 658 0
 1349 04e0 FFF7FEFF 		bl	I2CPullUpDisable
 1350              		.loc 1 580 0
 1351 04e4 32E0     		b	.L63
 1352              	.L75:
 659:.\USBFS_HID_interface.c **** 				}
 660:.\USBFS_HID_interface.c **** 			}
 661:.\USBFS_HID_interface.c ****             else if (bOutEndpointData[bOutPacketIndex] == ENTER_BOOTLOADER) 
 1353              		.loc 1 661 0
 1354 04e6 40F20003 		movw	r3, #:lower16:bOutPacketIndex
 1355 04ea C0F20003 		movt	r3, #:upper16:bOutPacketIndex
 1356 04ee 1B78     		ldrb	r3, [r3, #0]	@ zero_extendqisi2
 1357 04f0 1A46     		mov	r2, r3
 1358 04f2 40F20003 		movw	r3, #:lower16:bOutEndpointData
 1359 04f6 C0F20003 		movt	r3, #:upper16:bOutEndpointData
 1360 04fa 9B5C     		ldrb	r3, [r3, r2]	@ zero_extendqisi2
 1361 04fc A02B     		cmp	r3, #160
 1362 04fe 24D1     		bne	.L81
 662:.\USBFS_HID_interface.c ****             {
 663:.\USBFS_HID_interface.c ****                 /* Command 0xA0 = Enter USB bootloader and upgrade firmware */
 664:.\USBFS_HID_interface.c ****                 Bootloadable_Load();
 1363              		.loc 1 664 0
 1364 0500 FFF7FEFF 		bl	Bootloadable_Load
 1365              		.loc 1 580 0
 1366 0504 22E0     		b	.L63
 1367              	.L67:
 665:.\USBFS_HID_interface.c ****             }           
 666:.\USBFS_HID_interface.c ****             else 
 667:.\USBFS_HID_interface.c ****             {
 668:.\USBFS_HID_interface.c ****                 /* do nothing (ignore other commands) */
 669:.\USBFS_HID_interface.c ****             }
 670:.\USBFS_HID_interface.c ****         }
 671:.\USBFS_HID_interface.c ****         else
 672:.\USBFS_HID_interface.c ****         {
 673:.\USBFS_HID_interface.c ****             /* A transaction gets last priority */
 674:.\USBFS_HID_interface.c ****             if (bHostInterface == INTERFACE_I2C) 
 1368              		.loc 1 674 0
 1369 0506 40F20003 		movw	r3, #:lower16:bHostInterface
 1370 050a C0F20003 		movt	r3, #:upper16:bHostInterface
 1371 050e 1B78     		ldrb	r3, [r3, #0]	@ zero_extendqisi2
 1372 0510 002B     		cmp	r3, #0
 1373 0512 0AD1     		bne	.L78
 675:.\USBFS_HID_interface.c ****             {
ARM GAS  C:\DOCUME~1\ADMINI~1\LOCALS~1\Temp\ccOjxVk4.s 			page 37


 676:.\USBFS_HID_interface.c ****                 I2CTransaction(bControl, bLength, &bOutEndpointData[2], bInEndpointData);
 1374              		.loc 1 676 0
 1375 0514 BA78     		ldrb	r2, [r7, #2]	@ zero_extendqisi2
 1376 0516 FB78     		ldrb	r3, [r7, #3]	@ zero_extendqisi2
 1377 0518 1046     		mov	r0, r2
 1378 051a 1946     		mov	r1, r3
 1379 051c 0E4A     		ldr	r2, .L82
 1380 051e 40F20003 		movw	r3, #:lower16:bInEndpointData
 1381 0522 C0F20003 		movt	r3, #:upper16:bInEndpointData
 1382 0526 FFF7FEFF 		bl	I2CTransaction
 1383              	.L78:
 677:.\USBFS_HID_interface.c ****             } 
 678:.\USBFS_HID_interface.c ****             
 679:.\USBFS_HID_interface.c ****             bInPacketIndex = bInPacketIndex + bLength;
 1384              		.loc 1 679 0
 1385 052a 40F20003 		movw	r3, #:lower16:bInPacketIndex
 1386 052e C0F20003 		movt	r3, #:upper16:bInPacketIndex
 1387 0532 1A78     		ldrb	r2, [r3, #0]	@ zero_extendqisi2
 1388 0534 FB78     		ldrb	r3, [r7, #3]
 1389 0536 1344     		add	r3, r2, r3
 1390 0538 DAB2     		uxtb	r2, r3
 1391 053a 40F20003 		movw	r3, #:lower16:bInPacketIndex
 1392 053e C0F20003 		movt	r3, #:upper16:bInPacketIndex
 1393 0542 1A70     		strb	r2, [r3, #0]
 1394 0544 02E0     		b	.L63
 1395              	.L80:
 1396              		.loc 1 580 0
 1397 0546 00BF     		nop
 1398 0548 00E0     		b	.L63
 1399              	.L81:
 1400 054a 00BF     		nop
 1401              	.L63:
 680:.\USBFS_HID_interface.c **** 
 681:.\USBFS_HID_interface.c ****         }
 682:.\USBFS_HID_interface.c ****         /* Return the acknowledgements and data to the USB */
 683:.\USBFS_HID_interface.c ****         SendToUSB();  
 1402              		.loc 1 683 0
 1403 054c FFF7FEFF 		bl	SendToUSB
 1404              	.L79:
 684:.\USBFS_HID_interface.c **** 
 685:.\USBFS_HID_interface.c ****     } 
 686:.\USBFS_HID_interface.c **** }...
 1405              		.loc 1 686 0
 1406 0550 07F10807 		add	r7, r7, #8
 1407 0554 BD46     		mov	sp, r7
 1408 0556 80BD     		pop	{r7, pc}
 1409              	.L83:
 1410              		.align	2
 1411              	.L82:
 1412 0558 02000000 		.word	bOutEndpointData+2
 1413              		.cfi_endproc
 1414              	.LFE40:
 1415              		.size	HostComm, .-HostComm
 1416              		.text
 1417              	.Letext0: