ARM GAS  C:\DOCUME~1\ADMINI~1\LOCALS~1\Temp\ccBYLkd3.s 			page 1


   1              		.syntax unified
   2              		.cpu cortex-m3
   3              		.fpu softvfp
   4              		.eabi_attribute 20, 1
   5              		.eabi_attribute 21, 1
   6              		.eabi_attribute 23, 3
   7              		.eabi_attribute 24, 1
   8              		.eabi_attribute 25, 1
   9              		.eabi_attribute 26, 1
  10              		.eabi_attribute 30, 6
  11              		.eabi_attribute 18, 4
  12              		.thumb
  13              		.file	"USBFS_commandinterface.c"
  20 0000 AE000000 		.text
  20      02007000 
  20      00000201 
  20      FB0E0D00 
  20      01010101 
  21              	.Ltext0:
  22              		.cfi_sections	.debug_frame
  23              		.comm	pendingOp,1,1
  24              		.comm	fTcBusy,1,1
  25              		.comm	pifData,2,4
  26              		.comm	pifBuf,64,4
  27              		.comm	progMode,1,1
  28              		.section	.text.ProgramInit,"ax",%progbits
  29              		.align	2
  30              		.global	ProgramInit
  31              		.thumb
  32              		.thumb_func
  33              		.type	ProgramInit, %function
  34              	ProgramInit:
  35              	.LFB29:
  36              		.file 1 ".\\USBFS_commandinterface.c"
   1:.\USBFS_commandinterface.c **** /*****************************************************************************
   2:.\USBFS_commandinterface.c **** * File Name: USBFS_commandInterface.c
   3:.\USBFS_commandinterface.c **** *
   4:.\USBFS_commandinterface.c **** * Version 2.03
   5:.\USBFS_commandinterface.c **** *
   6:.\USBFS_commandinterface.c **** * Description: Handles the USB control endpoint comands.
   7:.\USBFS_commandinterface.c **** *
   8:.\USBFS_commandinterface.c **** * Owner:
   9:.\USBFS_commandinterface.c **** *	Ranjith M, Applications Engineer (rnjt@cypress.com)
  10:.\USBFS_commandinterface.c **** *
  11:.\USBFS_commandinterface.c **** * Related Document:
  12:.\USBFS_commandinterface.c **** * 	001-85925 - CY8CKIT-042 PSoC 4 Pioneer Kit IROS
  13:.\USBFS_commandinterface.c **** *	RNJT#18
  14:.\USBFS_commandinterface.c **** *
  15:.\USBFS_commandinterface.c **** * Hardware Dependency:
  16:.\USBFS_commandinterface.c **** * 	CY8CKIT-042 (KitProg) 
  17:.\USBFS_commandinterface.c **** *
ARM GAS  C:\DOCUME~1\ADMINI~1\LOCALS~1\Temp\ccBYLkd3.s 			page 2


  18:.\USBFS_commandinterface.c **** * Code Tested With:
  19:.\USBFS_commandinterface.c **** * 	Creator 2.2
  20:.\USBFS_commandinterface.c **** *	GCC1 4.4.1
  21:.\USBFS_commandinterface.c **** *	CY8CKIT-042 Rev 1
  22:.\USBFS_commandinterface.c **** *
  23:.\USBFS_commandinterface.c **** ******************************************************************************
  24:.\USBFS_commandinterface.c **** * Copyright (2013), Cypress Semiconductor Corporation.
  25:.\USBFS_commandinterface.c **** ******************************************************************************
  26:.\USBFS_commandinterface.c **** * This software is owned by Cypress Semiconductor Corporation (Cypress) and is
  27:.\USBFS_commandinterface.c **** * protected by and subject to worldwide patent protection (United States and
  28:.\USBFS_commandinterface.c **** * foreign), United States copyright laws and international treaty provisions.
  29:.\USBFS_commandinterface.c **** * Cypress hereby grants to licensee a personal, non-exclusive, non-transferable
  30:.\USBFS_commandinterface.c **** * license to copy, use, modify, create derivative works of, and compile the
  31:.\USBFS_commandinterface.c **** * Cypress Source Code and derivative works for the sole purpose of creating
  32:.\USBFS_commandinterface.c **** * custom software in support of licensee product to be used only in conjunction
  33:.\USBFS_commandinterface.c **** * with a Cypress integrated circuit as specified in the applicable agreement.
  34:.\USBFS_commandinterface.c **** * Any reproduction, modification, translation, compilation, or representation of
  35:.\USBFS_commandinterface.c **** * this software except as specified above is prohibited without the express
  36:.\USBFS_commandinterface.c **** * written permission of Cypress.
  37:.\USBFS_commandinterface.c **** *
  38:.\USBFS_commandinterface.c **** * Disclaimer: CYPRESS MAKES NO WARRANTY OF ANY KIND, EXPRESS OR IMPLIED, WITH
  39:.\USBFS_commandinterface.c **** * REGARD TO THIS MATERIAL, INCLUDING, BUT NOT LIMITED TO, THE IMPLIED
  40:.\USBFS_commandinterface.c **** * WARRANTIES OF MERCHANTABILITY AND FITNESS FOR A PARTICULAR PURPOSE.
  41:.\USBFS_commandinterface.c **** * Cypress reserves the right to make changes without further notice to the
  42:.\USBFS_commandinterface.c **** * materials described herein. Cypress does not assume any liability arising out
  43:.\USBFS_commandinterface.c **** * of the application or use of any product or circuit described herein. Cypress
  44:.\USBFS_commandinterface.c **** * does not authorize its products for use as critical components in life-support
  45:.\USBFS_commandinterface.c **** * systems where a malfunction or failure may reasonably be expected to result in
  46:.\USBFS_commandinterface.c **** * significant injury to the user. The inclusion of Cypress' product in a life-
  47:.\USBFS_commandinterface.c **** * support systems application implies that the manufacturer assumes all risk of
  48:.\USBFS_commandinterface.c **** * such use and in doing so indemnifies Cypress against all charges. Use may be
  49:.\USBFS_commandinterface.c **** * limited by and subject to the applicable Cypress software license agreement.
  50:.\USBFS_commandinterface.c **** *****************************************************************************/
  51:.\USBFS_commandinterface.c **** /* This module contains code that attempts to combine the functionality of the 2 
  52:.\USBFS_commandinterface.c **** * chip solution employed in the PSoC MiniProgrammer.  That device uses a 66113 
  53:.\USBFS_commandinterface.c **** * for the USB interface and a 27543 to program the target device.  Communication
  54:.\USBFS_commandinterface.c **** * between the 66113 and 27543 is generally via a parallel bus although there is 
  55:.\USBFS_commandinterface.c **** * also an ISSP connection so that the 27543 can be field reprogrammed via the 
  56:.\USBFS_commandinterface.c **** * 66113.  Note that the 66113 is an OTP part.
  57:.\USBFS_commandinterface.c **** *
  58:.\USBFS_commandinterface.c **** * Communication between the PSoC Programmer GUI and the 66113 is mainly via 
  59:.\USBFS_commandinterface.c **** * "no data" control transfers.  So, an example control transfer's data may 
  60:.\USBFS_commandinterface.c **** * look like the following (in hex) C0 02 07 01 00 01 00 01	
  61:.\USBFS_commandinterface.c **** * the C0 is the "Device to Host Vendor Request", 02 is bRequest - in our case, 
  62:.\USBFS_commandinterface.c **** * a write.  the 07 01 will show up on the CATC as a Big Endian wValue - we only
  63:.\USBFS_commandinterface.c **** * care about the raw bytes.  So, the 07 is the command and the 01 is the mode.
  64:.\USBFS_commandinterface.c **** * The 66113 code takes care of commands 1 thru 6 internally. Command 7 is passed
  65:.\USBFS_commandinterface.c **** * on to the 27543 via the parallel interface.  Since we are emulating the 27543, 
  66:.\USBFS_commandinterface.c **** * we will need to add code to handle command #7 here.
  67:.\USBFS_commandinterface.c **** *****************************************************************************/
  68:.\USBFS_commandinterface.c **** 
  69:.\USBFS_commandinterface.c **** #include "kitprog.h"
  70:.\USBFS_commandinterface.c **** 
  71:.\USBFS_commandinterface.c **** /*****************************************************************************
  72:.\USBFS_commandinterface.c **** * Local Function Prototypes
  73:.\USBFS_commandinterface.c **** *****************************************************************************/
  74:.\USBFS_commandinterface.c **** void ProgramInit(void);
ARM GAS  C:\DOCUME~1\ADMINI~1\LOCALS~1\Temp\ccBYLkd3.s 			page 3


  75:.\USBFS_commandinterface.c **** void VendorCmd(void);
  76:.\USBFS_commandinterface.c **** /*****************************************************************************
  77:.\USBFS_commandinterface.c **** * Local Global Variable Declarations
  78:.\USBFS_commandinterface.c **** ******************************************************************************/
  79:.\USBFS_commandinterface.c **** uint8 pendingOp;
  80:.\USBFS_commandinterface.c **** uint8 fTcBusy;
  81:.\USBFS_commandinterface.c **** uint8 pifData[2];
  82:.\USBFS_commandinterface.c **** uint8 pifBuf[64];
  83:.\USBFS_commandinterface.c **** uint8 progMode;
  84:.\USBFS_commandinterface.c **** /*******************************************************************************/
  85:.\USBFS_commandinterface.c **** extern volatile T_USBFS_TD USBFS_currentTD;
  86:.\USBFS_commandinterface.c **** /*******************************************************************************
  87:.\USBFS_commandinterface.c **** * Function Name: ProgramInit()
  88:.\USBFS_commandinterface.c **** ********************************************************************************
  89:.\USBFS_commandinterface.c **** * Summary: Initializes the variables for the programming operation.
  90:.\USBFS_commandinterface.c **** *   
  91:.\USBFS_commandinterface.c **** *
  92:.\USBFS_commandinterface.c **** * Parameters:
  93:.\USBFS_commandinterface.c **** *  void
  94:.\USBFS_commandinterface.c **** *
  95:.\USBFS_commandinterface.c **** * Return:
  96:.\USBFS_commandinterface.c **** *  void
  97:.\USBFS_commandinterface.c **** *
  98:.\USBFS_commandinterface.c **** * Global Variables:
  99:.\USBFS_commandinterface.c **** * pendingOp	: Clears the flag which indicattes any pending programming operation
 100:.\USBFS_commandinterface.c **** *
 101:.\USBFS_commandinterface.c **** * fTcBust	: Clears the busy flag which indicates the PC that the PSoC 5LP is 
 102:.\USBFS_commandinterface.c **** * currently busy in a programming operation
 103:.\USBFS_commandinterface.c **** *
 104:.\USBFS_commandinterface.c **** *******************************************************************************/
 105:.\USBFS_commandinterface.c **** void ProgramInit(void)
 106:.\USBFS_commandinterface.c **** {
  37              		.loc 1 106 0
  38              		.cfi_startproc
  39              		@ args = 0, pretend = 0, frame = 0
  40              		@ frame_needed = 1, uses_anonymous_args = 0
  41              		@ link register save eliminated.
  42 0000 80B4     		push	{r7}
  43              	.LCFI0:
  44              		.cfi_def_cfa_offset 4
  45 0002 00AF     		add	r7, sp, #0
  46              		.cfi_offset 7, -4
  47              	.LCFI1:
  48              		.cfi_def_cfa_register 7
 107:.\USBFS_commandinterface.c ****     pendingOp = CLEAR_OP;
  49              		.loc 1 107 0
  50 0004 40F20003 		movw	r3, #:lower16:pendingOp
  51 0008 C0F20003 		movt	r3, #:upper16:pendingOp
  52 000c 4FF00002 		mov	r2, #0
  53 0010 1A70     		strb	r2, [r3, #0]
 108:.\USBFS_commandinterface.c ****     fTcBusy = CLEAR_BUSY;
  54              		.loc 1 108 0
  55 0012 40F20003 		movw	r3, #:lower16:fTcBusy
  56 0016 C0F20003 		movt	r3, #:upper16:fTcBusy
  57 001a 4FF00002 		mov	r2, #0
  58 001e 1A70     		strb	r2, [r3, #0]
 109:.\USBFS_commandinterface.c **** }
ARM GAS  C:\DOCUME~1\ADMINI~1\LOCALS~1\Temp\ccBYLkd3.s 			page 4


  59              		.loc 1 109 0
  60 0020 BD46     		mov	sp, r7
  61 0022 80BC     		pop	{r7}
  62 0024 7047     		bx	lr
  63              		.cfi_endproc
  64              	.LFE29:
  65              		.size	ProgramInit, .-ProgramInit
  66 0026 00BF     		.section	.text.VendorCmd,"ax",%progbits
  67              		.align	2
  68              		.global	VendorCmd
  69              		.thumb
  70              		.thumb_func
  71              		.type	VendorCmd, %function
  72              	VendorCmd:
  73              	.LFB30:
 110:.\USBFS_commandinterface.c **** /*******************************************************************************
 111:.\USBFS_commandinterface.c **** * Function Name: VendorCmd()
 112:.\USBFS_commandinterface.c **** ********************************************************************************
 113:.\USBFS_commandinterface.c **** * Summary:
 114:.\USBFS_commandinterface.c **** * Entry point from the USBFS user module. Called inside the function 
 115:.\USBFS_commandinterface.c **** * USBFS_HandleVendorRqst() defined inside USBFS_vnd.c
 116:.\USBFS_commandinterface.c **** *
 117:.\USBFS_commandinterface.c **** * Parameters:
 118:.\USBFS_commandinterface.c **** *  void
 119:.\USBFS_commandinterface.c **** *
 120:.\USBFS_commandinterface.c **** * Return:
 121:.\USBFS_commandinterface.c **** *  void
 122:.\USBFS_commandinterface.c **** *
 123:.\USBFS_commandinterface.c **** * Global Variables: 
 124:.\USBFS_commandinterface.c **** * pifBuf	: Bufer to send data to through the USB control endpoint
 125:.\USBFS_commandinterface.c **** * pifData	: Buffer to store commands received through the USB control endpoint
 126:.\USBFS_commandinterface.c **** * progMode	: Next programming operation to be performed
 127:.\USBFS_commandinterface.c **** * 
 128:.\USBFS_commandinterface.c **** ******************************************************************************/
 129:.\USBFS_commandinterface.c **** void VendorCmd(void)
 130:.\USBFS_commandinterface.c **** {
  74              		.loc 1 130 0
  75              		.cfi_startproc
  76              		@ args = 0, pretend = 0, frame = 8
  77              		@ frame_needed = 1, uses_anonymous_args = 0
  78              		@ link register save eliminated.
  79 0000 80B4     		push	{r7}
  80              	.LCFI2:
  81              		.cfi_def_cfa_offset 4
  82 0002 83B0     		sub	sp, sp, #12
  83              	.LCFI3:
  84              		.cfi_def_cfa_offset 16
  85 0004 00AF     		add	r7, sp, #0
  86              		.cfi_offset 7, -4
  87              	.LCFI4:
  88              		.cfi_def_cfa_register 7
 131:.\USBFS_commandinterface.c **** 	/* Varaible to store ACK to be send to the USB packet */
 132:.\USBFS_commandinterface.c ****     uint8 progRes;
 133:.\USBFS_commandinterface.c **** 	/* Varaible to store the data which indicates whether the received command is a programming comman
 134:.\USBFS_commandinterface.c **** 	uint8 progCmd;
 135:.\USBFS_commandinterface.c **** 	progRes = USB_OK_ACK;
  89              		.loc 1 135 0
ARM GAS  C:\DOCUME~1\ADMINI~1\LOCALS~1\Temp\ccBYLkd3.s 			page 5


  90 0006 4FF00103 		mov	r3, #1
  91 000a BB71     		strb	r3, [r7, #6]
 136:.\USBFS_commandinterface.c ****     
 137:.\USBFS_commandinterface.c **** 	/* If executing a previous instruction, initiate a zero length USB transfer */
 138:.\USBFS_commandinterface.c **** 	if(fTcBusy == SET_BUSY)
  92              		.loc 1 138 0
  93 000c 40F20003 		movw	r3, #:lower16:fTcBusy
  94 0010 C0F20003 		movt	r3, #:upper16:fTcBusy
  95 0014 1B78     		ldrb	r3, [r3, #0]	@ zero_extendqisi2
  96 0016 012B     		cmp	r3, #1
  97 0018 07D1     		bne	.L4
 139:.\USBFS_commandinterface.c **** 	{
 140:.\USBFS_commandinterface.c **** 		USBFS_currentTD.count = 0;
  98              		.loc 1 140 0
  99 001a 40F20003 		movw	r3, #:lower16:USBFS_currentTD
 100 001e C0F20003 		movt	r3, #:upper16:USBFS_currentTD
 101 0022 4FF00002 		mov	r2, #0
 102 0026 1A80     		strh	r2, [r3, #0]	@ movhi
 103 0028 79E0     		b	.L7
 104              	.L4:
 141:.\USBFS_commandinterface.c **** 	} 
 142:.\USBFS_commandinterface.c ****     else 
 143:.\USBFS_commandinterface.c ****     {
 144:.\USBFS_commandinterface.c **** 		/* Extract the count of bytes received. */
 145:.\USBFS_commandinterface.c **** 		USBFS_currentTD.count = ((uint16)CY_GET_REG8(USBFS_EP0_DR6_PTR)) + 
 105              		.loc 1 145 0
 106 002a 46F20603 		movw	r3, #:lower16:1073766406
 107 002e C4F20003 		movt	r3, #:upper16:1073766406
 108 0032 1B78     		ldrb	r3, [r3, #0]
 109 0034 DBB2     		uxtb	r3, r3
 110 0036 1A46     		mov	r2, r3
 146:.\USBFS_commandinterface.c ****                                   ((uint16)CY_GET_REG8(USBFS_EP0_DR7_PTR)<<8);
 111              		.loc 1 146 0
 112 0038 46F20703 		movw	r3, #:lower16:1073766407
 113 003c C4F20003 		movt	r3, #:upper16:1073766407
 114 0040 1B78     		ldrb	r3, [r3, #0]
 115 0042 DBB2     		uxtb	r3, r3
 116              		.loc 1 145 0
 117 0044 4FEA0323 		lsl	r3, r3, #8
 118 0048 9BB2     		uxth	r3, r3
 119 004a 1344     		add	r3, r2, r3
 120 004c 9AB2     		uxth	r2, r3
 121 004e 40F20003 		movw	r3, #:lower16:USBFS_currentTD
 122 0052 C0F20003 		movt	r3, #:upper16:USBFS_currentTD
 123 0056 1A80     		strh	r2, [r3, #0]	@ movhi
 147:.\USBFS_commandinterface.c **** 
 148:.\USBFS_commandinterface.c **** 		/* If a read operation, set the data pointer to the databuffer address. */
 149:.\USBFS_commandinterface.c ****         if(CY_GET_REG8(USBFS_EP0_DR1_PTR) == READ_CMD)
 124              		.loc 1 149 0
 125 0058 46F20103 		movw	r3, #:lower16:1073766401
 126 005c C4F20003 		movt	r3, #:upper16:1073766401
 127 0060 1B78     		ldrb	r3, [r3, #0]
 128 0062 DBB2     		uxtb	r3, r3
 129 0064 012B     		cmp	r3, #1
 130 0066 09D1     		bne	.L6
 150:.\USBFS_commandinterface.c ****         {
 151:.\USBFS_commandinterface.c ****             USBFS_currentTD.pData = &pifBuf[0];
ARM GAS  C:\DOCUME~1\ADMINI~1\LOCALS~1\Temp\ccBYLkd3.s 			page 6


 131              		.loc 1 151 0
 132 0068 40F20002 		movw	r2, #:lower16:pifBuf
 133 006c C0F20002 		movt	r2, #:upper16:pifBuf
 134 0070 40F20003 		movw	r3, #:lower16:USBFS_currentTD
 135 0074 C0F20003 		movt	r3, #:upper16:USBFS_currentTD
 136 0078 5A60     		str	r2, [r3, #4]
 137 007a 50E0     		b	.L7
 138              	.L6:
 152:.\USBFS_commandinterface.c ****         } 
 153:.\USBFS_commandinterface.c **** 		/* If a write operation, extract the commands from the USB control endpoint registers */
 154:.\USBFS_commandinterface.c ****         else if(CY_GET_REG8(USBFS_EP0_DR1_PTR) == WRITE_CMD)
 139              		.loc 1 154 0
 140 007c 46F20103 		movw	r3, #:lower16:1073766401
 141 0080 C4F20003 		movt	r3, #:upper16:1073766401
 142 0084 1B78     		ldrb	r3, [r3, #0]
 143 0086 DBB2     		uxtb	r3, r3
 144 0088 022B     		cmp	r3, #2
 145 008a 48D1     		bne	.L7
 155:.\USBFS_commandinterface.c ****         {
 156:.\USBFS_commandinterface.c ****             /* Acknowledge the command */
 157:.\USBFS_commandinterface.c **** 			USBFS_currentTD.pData = &progRes;
 146              		.loc 1 157 0
 147 008c 07F10602 		add	r2, r7, #6
 148 0090 40F20003 		movw	r3, #:lower16:USBFS_currentTD
 149 0094 C0F20003 		movt	r3, #:upper16:USBFS_currentTD
 150 0098 5A60     		str	r2, [r3, #4]
 158:.\USBFS_commandinterface.c **** 			
 159:.\USBFS_commandinterface.c **** 			/* progCmd checks if the command is a programing command. */
 160:.\USBFS_commandinterface.c ****             progCmd  = CY_GET_REG8(USBFS_EP0_DR2_PTR);
 151              		.loc 1 160 0
 152 009a 46F20203 		movw	r3, #:lower16:1073766402
 153 009e C4F20003 		movt	r3, #:upper16:1073766402
 154 00a2 1B78     		ldrb	r3, [r3, #0]
 155 00a4 FB71     		strb	r3, [r7, #7]
 161:.\USBFS_commandinterface.c **** 			
 162:.\USBFS_commandinterface.c **** 			/* progMode stores the programming operation type */
 163:.\USBFS_commandinterface.c ****             progMode = CY_GET_REG8(USBFS_EP0_DR3_PTR);
 156              		.loc 1 163 0
 157 00a6 46F20303 		movw	r3, #:lower16:1073766403
 158 00aa C4F20003 		movt	r3, #:upper16:1073766403
 159 00ae 1B78     		ldrb	r3, [r3, #0]
 160 00b0 DAB2     		uxtb	r2, r3
 161 00b2 40F20003 		movw	r3, #:lower16:progMode
 162 00b6 C0F20003 		movt	r3, #:upper16:progMode
 163 00ba 1A70     		strb	r2, [r3, #0]
 164:.\USBFS_commandinterface.c **** 			
 165:.\USBFS_commandinterface.c **** 			/* Array pifData stores the values such as the aquire mode (Reset/Powercycle), device to be acqu
 166:.\USBFS_commandinterface.c **** 			* number of retries before declaring the programming operation to have failed, and the protocol 
 167:.\USBFS_commandinterface.c **** 			* depend on the current value of the variable progMode */
 168:.\USBFS_commandinterface.c ****             pifData[0] = CY_GET_REG8(USBFS_EP0_DR4_PTR);
 164              		.loc 1 168 0
 165 00bc 46F20403 		movw	r3, #:lower16:1073766404
 166 00c0 C4F20003 		movt	r3, #:upper16:1073766404
 167 00c4 1B78     		ldrb	r3, [r3, #0]
 168 00c6 DAB2     		uxtb	r2, r3
 169 00c8 40F20003 		movw	r3, #:lower16:pifData
 170 00cc C0F20003 		movt	r3, #:upper16:pifData
ARM GAS  C:\DOCUME~1\ADMINI~1\LOCALS~1\Temp\ccBYLkd3.s 			page 7


 171 00d0 1A70     		strb	r2, [r3, #0]
 169:.\USBFS_commandinterface.c ****             pifData[1]  = CY_GET_REG8(USBFS_EP0_DR5_PTR);
 172              		.loc 1 169 0
 173 00d2 46F20503 		movw	r3, #:lower16:1073766405
 174 00d6 C4F20003 		movt	r3, #:upper16:1073766405
 175 00da 1B78     		ldrb	r3, [r3, #0]
 176 00dc DAB2     		uxtb	r2, r3
 177 00de 40F20003 		movw	r3, #:lower16:pifData
 178 00e2 C0F20003 		movt	r3, #:upper16:pifData
 179 00e6 5A70     		strb	r2, [r3, #1]
 170:.\USBFS_commandinterface.c ****             
 171:.\USBFS_commandinterface.c **** 			/* If the command is a programming command */
 172:.\USBFS_commandinterface.c ****             if(progCmd == PROGRAM_CMD)
 180              		.loc 1 172 0
 181 00e8 FB79     		ldrb	r3, [r7, #7]	@ zero_extendqisi2
 182 00ea 072B     		cmp	r3, #7
 183 00ec 17D1     		bne	.L7
 173:.\USBFS_commandinterface.c ****             {	
 174:.\USBFS_commandinterface.c ****                 if(progMode != CMD_BUFFER)
 184              		.loc 1 174 0
 185 00ee 40F20003 		movw	r3, #:lower16:progMode
 186 00f2 C0F20003 		movt	r3, #:upper16:progMode
 187 00f6 1B78     		ldrb	r3, [r3, #0]	@ zero_extendqisi2
 188 00f8 002B     		cmp	r3, #0
 189 00fa 10D0     		beq	.L7
 175:.\USBFS_commandinterface.c ****                 {
 176:.\USBFS_commandinterface.c ****                     /* Pass the command to pending operation */
 177:.\USBFS_commandinterface.c **** 					pendingOp = progMode;
 190              		.loc 1 177 0
 191 00fc 40F20003 		movw	r3, #:lower16:progMode
 192 0100 C0F20003 		movt	r3, #:upper16:progMode
 193 0104 1A78     		ldrb	r2, [r3, #0]	@ zero_extendqisi2
 194 0106 40F20003 		movw	r3, #:lower16:pendingOp
 195 010a C0F20003 		movt	r3, #:upper16:pendingOp
 196 010e 1A70     		strb	r2, [r3, #0]
 178:.\USBFS_commandinterface.c **** 					
 179:.\USBFS_commandinterface.c ****                     /* Set the busy flag */
 180:.\USBFS_commandinterface.c ****                     fTcBusy = SET_BUSY;				
 197              		.loc 1 180 0
 198 0110 40F20003 		movw	r3, #:lower16:fTcBusy
 199 0114 C0F20003 		movt	r3, #:upper16:fTcBusy
 200 0118 4FF00102 		mov	r2, #1
 201 011c 1A70     		strb	r2, [r3, #0]
 202              	.L7:
 181:.\USBFS_commandinterface.c ****                 }
 182:.\USBFS_commandinterface.c ****             }
 183:.\USBFS_commandinterface.c ****         } 
 184:.\USBFS_commandinterface.c ****         else 
 185:.\USBFS_commandinterface.c ****         {
 186:.\USBFS_commandinterface.c **** 			/* do nothing */
 187:.\USBFS_commandinterface.c ****         }
 188:.\USBFS_commandinterface.c **** 	
 189:.\USBFS_commandinterface.c ****     }
 190:.\USBFS_commandinterface.c **** 	return;
 191:.\USBFS_commandinterface.c **** }
 203              		.loc 1 191 0
 204 011e 07F10C07 		add	r7, r7, #12
ARM GAS  C:\DOCUME~1\ADMINI~1\LOCALS~1\Temp\ccBYLkd3.s 			page 8


 205 0122 BD46     		mov	sp, r7
 206 0124 80BC     		pop	{r7}
 207 0126 7047     		bx	lr
 208              		.cfi_endproc
 209              	.LFE30:
 210              		.size	VendorCmd, .-VendorCmd
 211              		.text
 212              	.Letext0: