ARM GAS  C:\DOCUME~1\ADMINI~1\LOCALS~1\Temp\ccIflNry.s 			page 1


   1              		.syntax unified
   2              		.cpu cortex-m3
   3              		.fpu softvfp
   4              		.eabi_attribute 20, 1
   5              		.eabi_attribute 21, 1
   6              		.eabi_attribute 23, 3
   7              		.eabi_attribute 24, 1
   8              		.eabi_attribute 25, 1
   9              		.eabi_attribute 26, 1
  10              		.eabi_attribute 30, 6
  11              		.eabi_attribute 18, 4
  12              		.thumb
  13              		.file	"USBFS_hid.c"
  14              		.section	.debug_abbrev,"",%progbits
  15              	.Ldebug_abbrev0:
  16              		.section	.debug_info,"",%progbits
  17              	.Ldebug_info0:
  18              		.section	.debug_line,"",%progbits
  19              	.Ldebug_line0:
  20 0000 5F010000 		.text
  20      02006D00 
  20      00000201 
  20      FB0E0D00 
  20      01010101 
  21              	.Ltext0:
  22              		.cfi_sections	.debug_frame
  23              		.comm	USBFS_hidProtocol,4,4
  24              		.comm	USBFS_hidIdleRate,4,4
  25              		.comm	USBFS_hidIdleTimer,4,4
  26              		.section	.text.USBFS_UpdateHIDTimer,"ax",%progbits
  27              		.align	2
  28              		.global	USBFS_UpdateHIDTimer
  29              		.thumb
  30              		.thumb_func
  31              		.type	USBFS_UpdateHIDTimer, %function
  32              	USBFS_UpdateHIDTimer:
  33              	.LFB0:
  34              		.file 1 ".\\Generated_Source\\PSoC5\\USBFS_hid.c"
   1:.\Generated_Source\PSoC5/USBFS_hid.c **** /*******************************************************************************
   2:.\Generated_Source\PSoC5/USBFS_hid.c **** * File Name: USBFS_hid.c
   3:.\Generated_Source\PSoC5/USBFS_hid.c **** * Version 2.50
   4:.\Generated_Source\PSoC5/USBFS_hid.c **** *
   5:.\Generated_Source\PSoC5/USBFS_hid.c **** * Description:
   6:.\Generated_Source\PSoC5/USBFS_hid.c **** *  USB HID Class request handler.
   7:.\Generated_Source\PSoC5/USBFS_hid.c **** *
   8:.\Generated_Source\PSoC5/USBFS_hid.c **** * Note:
   9:.\Generated_Source\PSoC5/USBFS_hid.c **** *
  10:.\Generated_Source\PSoC5/USBFS_hid.c **** ********************************************************************************
  11:.\Generated_Source\PSoC5/USBFS_hid.c **** * Copyright 2008-2012, Cypress Semiconductor Corporation.  All rights reserved.
  12:.\Generated_Source\PSoC5/USBFS_hid.c **** * You may use this file only in accordance with the license, terms, conditions,
  13:.\Generated_Source\PSoC5/USBFS_hid.c **** * disclaimers, and limitations in the end user license agreement accompanying
  14:.\Generated_Source\PSoC5/USBFS_hid.c **** * the software package with which this file was provided.
  15:.\Generated_Source\PSoC5/USBFS_hid.c **** *******************************************************************************/
  16:.\Generated_Source\PSoC5/USBFS_hid.c **** 
  17:.\Generated_Source\PSoC5/USBFS_hid.c **** #include "USBFS.h"
  18:.\Generated_Source\PSoC5/USBFS_hid.c **** 
  19:.\Generated_Source\PSoC5/USBFS_hid.c **** #if defined(USBFS_ENABLE_HID_CLASS)
ARM GAS  C:\DOCUME~1\ADMINI~1\LOCALS~1\Temp\ccIflNry.s 			page 2


  20:.\Generated_Source\PSoC5/USBFS_hid.c **** 
  21:.\Generated_Source\PSoC5/USBFS_hid.c **** #include "USBFS_hid.h"
  22:.\Generated_Source\PSoC5/USBFS_hid.c **** 
  23:.\Generated_Source\PSoC5/USBFS_hid.c **** 
  24:.\Generated_Source\PSoC5/USBFS_hid.c **** /***************************************
  25:.\Generated_Source\PSoC5/USBFS_hid.c **** *    HID Variables
  26:.\Generated_Source\PSoC5/USBFS_hid.c **** ***************************************/
  27:.\Generated_Source\PSoC5/USBFS_hid.c **** 
  28:.\Generated_Source\PSoC5/USBFS_hid.c **** volatile uint8 USBFS_hidProtocol[USBFS_MAX_INTERFACES_NUMBER];  /* HID device protocol status */
  29:.\Generated_Source\PSoC5/USBFS_hid.c **** volatile uint8 USBFS_hidIdleRate[USBFS_MAX_INTERFACES_NUMBER];  /* HID device idle reload value */
  30:.\Generated_Source\PSoC5/USBFS_hid.c **** volatile uint8 USBFS_hidIdleTimer[USBFS_MAX_INTERFACES_NUMBER]; /* HID device idle rate value */
  31:.\Generated_Source\PSoC5/USBFS_hid.c **** 
  32:.\Generated_Source\PSoC5/USBFS_hid.c **** 
  33:.\Generated_Source\PSoC5/USBFS_hid.c **** /***************************************
  34:.\Generated_Source\PSoC5/USBFS_hid.c **** * Custom Declarations
  35:.\Generated_Source\PSoC5/USBFS_hid.c **** ***************************************/
  36:.\Generated_Source\PSoC5/USBFS_hid.c **** 
  37:.\Generated_Source\PSoC5/USBFS_hid.c **** /* `#START HID_CUSTOM_DECLARATIONS` Place your declaration here */
  38:.\Generated_Source\PSoC5/USBFS_hid.c **** 
  39:.\Generated_Source\PSoC5/USBFS_hid.c **** /* `#END` */
  40:.\Generated_Source\PSoC5/USBFS_hid.c **** 
  41:.\Generated_Source\PSoC5/USBFS_hid.c **** 
  42:.\Generated_Source\PSoC5/USBFS_hid.c **** /***************************************
  43:.\Generated_Source\PSoC5/USBFS_hid.c **** *    External references
  44:.\Generated_Source\PSoC5/USBFS_hid.c **** ***************************************/
  45:.\Generated_Source\PSoC5/USBFS_hid.c **** 
  46:.\Generated_Source\PSoC5/USBFS_hid.c **** uint8 USBFS_InitControlRead(void) ;
  47:.\Generated_Source\PSoC5/USBFS_hid.c **** uint8 USBFS_InitControlWrite(void) ;
  48:.\Generated_Source\PSoC5/USBFS_hid.c **** uint8 USBFS_InitNoDataControlTransfer(void) ;
  49:.\Generated_Source\PSoC5/USBFS_hid.c **** T_USBFS_LUT *USBFS_GetConfigTablePtr(uint8 c)
  50:.\Generated_Source\PSoC5/USBFS_hid.c ****                                                             ;
  51:.\Generated_Source\PSoC5/USBFS_hid.c **** T_USBFS_LUT *USBFS_GetDeviceTablePtr(void)
  52:.\Generated_Source\PSoC5/USBFS_hid.c ****                                                             ;
  53:.\Generated_Source\PSoC5/USBFS_hid.c **** 
  54:.\Generated_Source\PSoC5/USBFS_hid.c **** extern volatile T_USBFS_TD USBFS_currentTD;
  55:.\Generated_Source\PSoC5/USBFS_hid.c **** extern uint8 CYCODE USBFS_HIDREPORT_DESCRIPTORS[];
  56:.\Generated_Source\PSoC5/USBFS_hid.c **** extern volatile uint8 USBFS_configuration;
  57:.\Generated_Source\PSoC5/USBFS_hid.c **** extern volatile uint8 USBFS_interfaceSetting[];
  58:.\Generated_Source\PSoC5/USBFS_hid.c **** 
  59:.\Generated_Source\PSoC5/USBFS_hid.c **** 
  60:.\Generated_Source\PSoC5/USBFS_hid.c **** /***************************************
  61:.\Generated_Source\PSoC5/USBFS_hid.c **** *    Internal references
  62:.\Generated_Source\PSoC5/USBFS_hid.c **** ***************************************/
  63:.\Generated_Source\PSoC5/USBFS_hid.c **** 
  64:.\Generated_Source\PSoC5/USBFS_hid.c **** void USBFS_FindReport(void) ;
  65:.\Generated_Source\PSoC5/USBFS_hid.c **** void USBFS_FindReportDescriptor(void) ;
  66:.\Generated_Source\PSoC5/USBFS_hid.c **** void USBFS_FindHidClassDecriptor(void) ;
  67:.\Generated_Source\PSoC5/USBFS_hid.c **** 
  68:.\Generated_Source\PSoC5/USBFS_hid.c **** 
  69:.\Generated_Source\PSoC5/USBFS_hid.c **** /*******************************************************************************
  70:.\Generated_Source\PSoC5/USBFS_hid.c **** * Function Name: USBFS_UpdateHIDTimer
  71:.\Generated_Source\PSoC5/USBFS_hid.c **** ********************************************************************************
  72:.\Generated_Source\PSoC5/USBFS_hid.c **** *
  73:.\Generated_Source\PSoC5/USBFS_hid.c **** * Summary:
  74:.\Generated_Source\PSoC5/USBFS_hid.c **** *  Updates the HID report timer and reloads it if expired
  75:.\Generated_Source\PSoC5/USBFS_hid.c **** *
  76:.\Generated_Source\PSoC5/USBFS_hid.c **** * Parameters:
ARM GAS  C:\DOCUME~1\ADMINI~1\LOCALS~1\Temp\ccIflNry.s 			page 3


  77:.\Generated_Source\PSoC5/USBFS_hid.c **** *  interface:  Interface Number.
  78:.\Generated_Source\PSoC5/USBFS_hid.c **** *
  79:.\Generated_Source\PSoC5/USBFS_hid.c **** * Return:
  80:.\Generated_Source\PSoC5/USBFS_hid.c **** *  status.
  81:.\Generated_Source\PSoC5/USBFS_hid.c **** *
  82:.\Generated_Source\PSoC5/USBFS_hid.c **** * Reentrant:
  83:.\Generated_Source\PSoC5/USBFS_hid.c **** *  No.
  84:.\Generated_Source\PSoC5/USBFS_hid.c **** *
  85:.\Generated_Source\PSoC5/USBFS_hid.c **** *******************************************************************************/
  86:.\Generated_Source\PSoC5/USBFS_hid.c **** uint8 USBFS_UpdateHIDTimer(uint8 interface) 
  87:.\Generated_Source\PSoC5/USBFS_hid.c **** {
  35              		.loc 1 87 0
  36              		.cfi_startproc
  37              		@ args = 0, pretend = 0, frame = 16
  38              		@ frame_needed = 1, uses_anonymous_args = 0
  39              		@ link register save eliminated.
  40 0000 80B4     		push	{r7}
  41              	.LCFI0:
  42              		.cfi_def_cfa_offset 4
  43 0002 85B0     		sub	sp, sp, #20
  44              	.LCFI1:
  45              		.cfi_def_cfa_offset 24
  46 0004 00AF     		add	r7, sp, #0
  47              		.cfi_offset 7, -4
  48              	.LCFI2:
  49              		.cfi_def_cfa_register 7
  50 0006 0346     		mov	r3, r0
  51 0008 FB71     		strb	r3, [r7, #7]
  88:.\Generated_Source\PSoC5/USBFS_hid.c ****     uint8 status = USBFS_IDLE_TIMER_INDEFINITE;
  52              		.loc 1 88 0
  53 000a 4FF00003 		mov	r3, #0
  54 000e FB73     		strb	r3, [r7, #15]
  89:.\Generated_Source\PSoC5/USBFS_hid.c **** 
  90:.\Generated_Source\PSoC5/USBFS_hid.c ****     if(USBFS_hidIdleRate[interface] != 0u)
  55              		.loc 1 90 0
  56 0010 FA79     		ldrb	r2, [r7, #7]	@ zero_extendqisi2
  57 0012 40F20003 		movw	r3, #:lower16:USBFS_hidIdleRate
  58 0016 C0F20003 		movt	r3, #:upper16:USBFS_hidIdleRate
  59 001a 9B5C     		ldrb	r3, [r3, r2]
  60 001c DBB2     		uxtb	r3, r3
  61 001e 002B     		cmp	r3, #0
  62 0020 2BD0     		beq	.L2
  91:.\Generated_Source\PSoC5/USBFS_hid.c ****     {
  92:.\Generated_Source\PSoC5/USBFS_hid.c ****         if(USBFS_hidIdleTimer[interface] > 0u)
  63              		.loc 1 92 0
  64 0022 FA79     		ldrb	r2, [r7, #7]	@ zero_extendqisi2
  65 0024 40F20003 		movw	r3, #:lower16:USBFS_hidIdleTimer
  66 0028 C0F20003 		movt	r3, #:upper16:USBFS_hidIdleTimer
  67 002c 9B5C     		ldrb	r3, [r3, r2]
  68 002e DBB2     		uxtb	r3, r3
  69 0030 002B     		cmp	r3, #0
  70 0032 12D0     		beq	.L3
  93:.\Generated_Source\PSoC5/USBFS_hid.c ****         {
  94:.\Generated_Source\PSoC5/USBFS_hid.c ****             USBFS_hidIdleTimer[interface]--;
  71              		.loc 1 94 0
  72 0034 FA79     		ldrb	r2, [r7, #7]	@ zero_extendqisi2
  73 0036 40F20003 		movw	r3, #:lower16:USBFS_hidIdleTimer
ARM GAS  C:\DOCUME~1\ADMINI~1\LOCALS~1\Temp\ccIflNry.s 			page 4


  74 003a C0F20003 		movt	r3, #:upper16:USBFS_hidIdleTimer
  75 003e 9B5C     		ldrb	r3, [r3, r2]
  76 0040 DBB2     		uxtb	r3, r3
  77 0042 03F1FF33 		add	r3, r3, #-1
  78 0046 D9B2     		uxtb	r1, r3
  79 0048 40F20003 		movw	r3, #:lower16:USBFS_hidIdleTimer
  80 004c C0F20003 		movt	r3, #:upper16:USBFS_hidIdleTimer
  81 0050 9954     		strb	r1, [r3, r2]
  95:.\Generated_Source\PSoC5/USBFS_hid.c ****             status = USBFS_IDLE_TIMER_RUNNING;
  82              		.loc 1 95 0
  83 0052 4FF00203 		mov	r3, #2
  84 0056 FB73     		strb	r3, [r7, #15]
  85 0058 0FE0     		b	.L2
  86              	.L3:
  96:.\Generated_Source\PSoC5/USBFS_hid.c ****         }
  97:.\Generated_Source\PSoC5/USBFS_hid.c ****         else
  98:.\Generated_Source\PSoC5/USBFS_hid.c ****         {
  99:.\Generated_Source\PSoC5/USBFS_hid.c ****             USBFS_hidIdleTimer[interface] = USBFS_hidIdleRate[interface];
  87              		.loc 1 99 0
  88 005a FA79     		ldrb	r2, [r7, #7]	@ zero_extendqisi2
  89 005c F979     		ldrb	r1, [r7, #7]	@ zero_extendqisi2
  90 005e 40F20003 		movw	r3, #:lower16:USBFS_hidIdleRate
  91 0062 C0F20003 		movt	r3, #:upper16:USBFS_hidIdleRate
  92 0066 5B5C     		ldrb	r3, [r3, r1]
  93 0068 D9B2     		uxtb	r1, r3
  94 006a 40F20003 		movw	r3, #:lower16:USBFS_hidIdleTimer
  95 006e C0F20003 		movt	r3, #:upper16:USBFS_hidIdleTimer
  96 0072 9954     		strb	r1, [r3, r2]
 100:.\Generated_Source\PSoC5/USBFS_hid.c ****             status = USBFS_IDLE_TIMER_EXPIRED;
  97              		.loc 1 100 0
  98 0074 4FF00103 		mov	r3, #1
  99 0078 FB73     		strb	r3, [r7, #15]
 100              	.L2:
 101:.\Generated_Source\PSoC5/USBFS_hid.c ****         }
 102:.\Generated_Source\PSoC5/USBFS_hid.c ****     }
 103:.\Generated_Source\PSoC5/USBFS_hid.c **** 
 104:.\Generated_Source\PSoC5/USBFS_hid.c ****     return(status);
 101              		.loc 1 104 0
 102 007a FB7B     		ldrb	r3, [r7, #15]	@ zero_extendqisi2
 105:.\Generated_Source\PSoC5/USBFS_hid.c **** }
 103              		.loc 1 105 0
 104 007c 1846     		mov	r0, r3
 105 007e 07F11407 		add	r7, r7, #20
 106 0082 BD46     		mov	sp, r7
 107 0084 80BC     		pop	{r7}
 108 0086 7047     		bx	lr
 109              		.cfi_endproc
 110              	.LFE0:
 111              		.size	USBFS_UpdateHIDTimer, .-USBFS_UpdateHIDTimer
 112              		.section	.text.USBFS_GetProtocol,"ax",%progbits
 113              		.align	2
 114              		.global	USBFS_GetProtocol
 115              		.thumb
 116              		.thumb_func
 117              		.type	USBFS_GetProtocol, %function
 118              	USBFS_GetProtocol:
 119              	.LFB1:
ARM GAS  C:\DOCUME~1\ADMINI~1\LOCALS~1\Temp\ccIflNry.s 			page 5


 106:.\Generated_Source\PSoC5/USBFS_hid.c **** 
 107:.\Generated_Source\PSoC5/USBFS_hid.c **** 
 108:.\Generated_Source\PSoC5/USBFS_hid.c **** /*******************************************************************************
 109:.\Generated_Source\PSoC5/USBFS_hid.c **** * Function Name: USBFS_GetProtocol
 110:.\Generated_Source\PSoC5/USBFS_hid.c **** ********************************************************************************
 111:.\Generated_Source\PSoC5/USBFS_hid.c **** *
 112:.\Generated_Source\PSoC5/USBFS_hid.c **** * Summary:
 113:.\Generated_Source\PSoC5/USBFS_hid.c **** *  Returns the selected protocol value to the application
 114:.\Generated_Source\PSoC5/USBFS_hid.c **** *
 115:.\Generated_Source\PSoC5/USBFS_hid.c **** * Parameters:
 116:.\Generated_Source\PSoC5/USBFS_hid.c **** *  interface:  Interface Number.
 117:.\Generated_Source\PSoC5/USBFS_hid.c **** *
 118:.\Generated_Source\PSoC5/USBFS_hid.c **** * Return:
 119:.\Generated_Source\PSoC5/USBFS_hid.c **** *  Interface protocol.
 120:.\Generated_Source\PSoC5/USBFS_hid.c **** *
 121:.\Generated_Source\PSoC5/USBFS_hid.c **** *******************************************************************************/
 122:.\Generated_Source\PSoC5/USBFS_hid.c **** uint8 USBFS_GetProtocol(uint8 interface) 
 123:.\Generated_Source\PSoC5/USBFS_hid.c **** {
 120              		.loc 1 123 0
 121              		.cfi_startproc
 122              		@ args = 0, pretend = 0, frame = 8
 123              		@ frame_needed = 1, uses_anonymous_args = 0
 124              		@ link register save eliminated.
 125 0000 80B4     		push	{r7}
 126              	.LCFI3:
 127              		.cfi_def_cfa_offset 4
 128 0002 83B0     		sub	sp, sp, #12
 129              	.LCFI4:
 130              		.cfi_def_cfa_offset 16
 131 0004 00AF     		add	r7, sp, #0
 132              		.cfi_offset 7, -4
 133              	.LCFI5:
 134              		.cfi_def_cfa_register 7
 135 0006 0346     		mov	r3, r0
 136 0008 FB71     		strb	r3, [r7, #7]
 124:.\Generated_Source\PSoC5/USBFS_hid.c ****     return(USBFS_hidProtocol[interface]);
 137              		.loc 1 124 0
 138 000a FA79     		ldrb	r2, [r7, #7]	@ zero_extendqisi2
 139 000c 40F20003 		movw	r3, #:lower16:USBFS_hidProtocol
 140 0010 C0F20003 		movt	r3, #:upper16:USBFS_hidProtocol
 141 0014 9B5C     		ldrb	r3, [r3, r2]
 142 0016 DBB2     		uxtb	r3, r3
 125:.\Generated_Source\PSoC5/USBFS_hid.c **** }
 143              		.loc 1 125 0
 144 0018 1846     		mov	r0, r3
 145 001a 07F10C07 		add	r7, r7, #12
 146 001e BD46     		mov	sp, r7
 147 0020 80BC     		pop	{r7}
 148 0022 7047     		bx	lr
 149              		.cfi_endproc
 150              	.LFE1:
 151              		.size	USBFS_GetProtocol, .-USBFS_GetProtocol
 152              		.section	.text.USBFS_DispatchHIDClassRqst,"ax",%progbits
 153              		.align	2
 154              		.global	USBFS_DispatchHIDClassRqst
 155              		.thumb
 156              		.thumb_func
ARM GAS  C:\DOCUME~1\ADMINI~1\LOCALS~1\Temp\ccIflNry.s 			page 6


 157              		.type	USBFS_DispatchHIDClassRqst, %function
 158              	USBFS_DispatchHIDClassRqst:
 159              	.LFB2:
 126:.\Generated_Source\PSoC5/USBFS_hid.c **** 
 127:.\Generated_Source\PSoC5/USBFS_hid.c **** 
 128:.\Generated_Source\PSoC5/USBFS_hid.c **** /*******************************************************************************
 129:.\Generated_Source\PSoC5/USBFS_hid.c **** * Function Name: USBFS_DispatchHIDClassRqst
 130:.\Generated_Source\PSoC5/USBFS_hid.c **** ********************************************************************************
 131:.\Generated_Source\PSoC5/USBFS_hid.c **** *
 132:.\Generated_Source\PSoC5/USBFS_hid.c **** * Summary:
 133:.\Generated_Source\PSoC5/USBFS_hid.c **** *  This routine dispatches class requests
 134:.\Generated_Source\PSoC5/USBFS_hid.c **** *
 135:.\Generated_Source\PSoC5/USBFS_hid.c **** * Parameters:
 136:.\Generated_Source\PSoC5/USBFS_hid.c **** *  None.
 137:.\Generated_Source\PSoC5/USBFS_hid.c **** *
 138:.\Generated_Source\PSoC5/USBFS_hid.c **** * Return:
 139:.\Generated_Source\PSoC5/USBFS_hid.c **** *  requestHandled
 140:.\Generated_Source\PSoC5/USBFS_hid.c **** *
 141:.\Generated_Source\PSoC5/USBFS_hid.c **** * Reentrant:
 142:.\Generated_Source\PSoC5/USBFS_hid.c **** *  No.
 143:.\Generated_Source\PSoC5/USBFS_hid.c **** *
 144:.\Generated_Source\PSoC5/USBFS_hid.c **** *******************************************************************************/
 145:.\Generated_Source\PSoC5/USBFS_hid.c **** uint8 USBFS_DispatchHIDClassRqst() 
 146:.\Generated_Source\PSoC5/USBFS_hid.c **** {
 160              		.loc 1 146 0
 161              		.cfi_startproc
 162              		@ args = 0, pretend = 0, frame = 8
 163              		@ frame_needed = 1, uses_anonymous_args = 0
 164 0000 80B5     		push	{r7, lr}
 165              	.LCFI6:
 166              		.cfi_def_cfa_offset 8
 167 0002 82B0     		sub	sp, sp, #8
 168              	.LCFI7:
 169              		.cfi_def_cfa_offset 16
 170 0004 00AF     		add	r7, sp, #0
 171              		.cfi_offset 14, -4
 172              		.cfi_offset 7, -8
 173              	.LCFI8:
 174              		.cfi_def_cfa_register 7
 147:.\Generated_Source\PSoC5/USBFS_hid.c ****     uint8 requestHandled = USBFS_FALSE;
 175              		.loc 1 147 0
 176 0006 4FF00003 		mov	r3, #0
 177 000a BB71     		strb	r3, [r7, #6]
 148:.\Generated_Source\PSoC5/USBFS_hid.c ****     uint8 interfaceNumber;
 149:.\Generated_Source\PSoC5/USBFS_hid.c **** 
 150:.\Generated_Source\PSoC5/USBFS_hid.c ****     interfaceNumber = CY_GET_REG8(USBFS_wIndexLo);
 178              		.loc 1 150 0
 179 000c 46F20403 		movw	r3, #:lower16:1073766404
 180 0010 C4F20003 		movt	r3, #:upper16:1073766404
 181 0014 1B78     		ldrb	r3, [r3, #0]
 182 0016 FB71     		strb	r3, [r7, #7]
 151:.\Generated_Source\PSoC5/USBFS_hid.c ****     if ((CY_GET_REG8(USBFS_bmRequestType) & USBFS_RQST_DIR_MASK) == USBFS_RQST_DIR_D2H)
 183              		.loc 1 151 0
 184 0018 46F20003 		movw	r3, #:lower16:1073766400
 185 001c C4F20003 		movt	r3, #:upper16:1073766400
 186 0020 1B78     		ldrb	r3, [r3, #0]
 187 0022 DBB2     		uxtb	r3, r3
ARM GAS  C:\DOCUME~1\ADMINI~1\LOCALS~1\Temp\ccIflNry.s 			page 7


 188 0024 5BB2     		sxtb	r3, r3
 189 0026 002B     		cmp	r3, #0
 190 0028 80F29A80 		bge	.L8
 152:.\Generated_Source\PSoC5/USBFS_hid.c ****     {   /* Control Read */
 153:.\Generated_Source\PSoC5/USBFS_hid.c ****         switch (CY_GET_REG8(USBFS_bRequest))
 191              		.loc 1 153 0
 192 002c 46F20103 		movw	r3, #:lower16:1073766401
 193 0030 C4F20003 		movt	r3, #:upper16:1073766401
 194 0034 1B78     		ldrb	r3, [r3, #0]
 195 0036 DBB2     		uxtb	r3, r3
 196 0038 03F1FF33 		add	r3, r3, #-1
 197 003c 052B     		cmp	r3, #5
 198 003e 00F21F81 		bhi	.L30
 199 0042 01A2     		adr	r2, .L14
 200 0044 52F823F0 		ldr	pc, [r2, r3, lsl #2]
 201              		.align	2
 202              	.L14:
 203 0048 C3000000 		.word	.L10+1
 204 004c E3000000 		.word	.L11+1
 205 0050 2B010000 		.word	.L12+1
 206 0054 81020000 		.word	.L30+1
 207 0058 81020000 		.word	.L30+1
 208 005c 61000000 		.word	.L13+1
 209              	.L13:
 154:.\Generated_Source\PSoC5/USBFS_hid.c ****         {
 155:.\Generated_Source\PSoC5/USBFS_hid.c ****             case USBFS_GET_DESCRIPTOR:
 156:.\Generated_Source\PSoC5/USBFS_hid.c ****                 if (CY_GET_REG8(USBFS_wValueHi) == USBFS_DESCR_HID_CLASS)
 210              		.loc 1 156 0
 211 0060 46F20303 		movw	r3, #:lower16:1073766403
 212 0064 C4F20003 		movt	r3, #:upper16:1073766403
 213 0068 1B78     		ldrb	r3, [r3, #0]
 214 006a DBB2     		uxtb	r3, r3
 215 006c 212B     		cmp	r3, #33
 216 006e 0FD1     		bne	.L15
 157:.\Generated_Source\PSoC5/USBFS_hid.c ****                 {
 158:.\Generated_Source\PSoC5/USBFS_hid.c ****                     USBFS_FindHidClassDecriptor();
 217              		.loc 1 158 0
 218 0070 FFF7FEFF 		bl	USBFS_FindHidClassDecriptor
 159:.\Generated_Source\PSoC5/USBFS_hid.c ****                     if (USBFS_currentTD.count != 0u)
 219              		.loc 1 159 0
 220 0074 40F20003 		movw	r3, #:lower16:USBFS_currentTD
 221 0078 C0F20003 		movt	r3, #:upper16:USBFS_currentTD
 222 007c 1B88     		ldrh	r3, [r3, #0]	@ movhi
 223 007e 9BB2     		uxth	r3, r3
 224 0080 002B     		cmp	r3, #0
 225 0082 00F0FF80 		beq	.L31
 160:.\Generated_Source\PSoC5/USBFS_hid.c ****                     {
 161:.\Generated_Source\PSoC5/USBFS_hid.c ****                         requestHandled = USBFS_InitControlRead();
 226              		.loc 1 161 0
 227 0086 FFF7FEFF 		bl	USBFS_InitControlRead
 228 008a 0346     		mov	r3, r0
 229 008c BB71     		strb	r3, [r7, #6]
 162:.\Generated_Source\PSoC5/USBFS_hid.c ****                     }
 163:.\Generated_Source\PSoC5/USBFS_hid.c ****                 }
 164:.\Generated_Source\PSoC5/USBFS_hid.c ****                 else if (CY_GET_REG8(USBFS_wValueHi) == USBFS_DESCR_HID_REPORT)
 165:.\Generated_Source\PSoC5/USBFS_hid.c ****                 {
 166:.\Generated_Source\PSoC5/USBFS_hid.c ****                     USBFS_FindReportDescriptor();
ARM GAS  C:\DOCUME~1\ADMINI~1\LOCALS~1\Temp\ccIflNry.s 			page 8


 167:.\Generated_Source\PSoC5/USBFS_hid.c ****                     if (USBFS_currentTD.count != 0u)
 168:.\Generated_Source\PSoC5/USBFS_hid.c ****                     {
 169:.\Generated_Source\PSoC5/USBFS_hid.c ****                         requestHandled = USBFS_InitControlRead();
 170:.\Generated_Source\PSoC5/USBFS_hid.c ****                     }
 171:.\Generated_Source\PSoC5/USBFS_hid.c ****                 }
 172:.\Generated_Source\PSoC5/USBFS_hid.c ****                 else
 173:.\Generated_Source\PSoC5/USBFS_hid.c ****                 {   /* requestHandled is initialezed as FALSE by default */
 174:.\Generated_Source\PSoC5/USBFS_hid.c ****                 }
 175:.\Generated_Source\PSoC5/USBFS_hid.c ****                 break;
 230              		.loc 1 175 0
 231 008e 0CE1     		b	.L20
 232              	.L15:
 233              		.loc 1 164 0
 234 0090 46F20303 		movw	r3, #:lower16:1073766403
 235 0094 C4F20003 		movt	r3, #:upper16:1073766403
 236 0098 1B78     		ldrb	r3, [r3, #0]
 237 009a DBB2     		uxtb	r3, r3
 238 009c 222B     		cmp	r3, #34
 239 009e 40F0F380 		bne	.L32
 240              		.loc 1 166 0
 241 00a2 FFF7FEFF 		bl	USBFS_FindReportDescriptor
 242              		.loc 1 167 0
 243 00a6 40F20003 		movw	r3, #:lower16:USBFS_currentTD
 244 00aa C0F20003 		movt	r3, #:upper16:USBFS_currentTD
 245 00ae 1B88     		ldrh	r3, [r3, #0]	@ movhi
 246 00b0 9BB2     		uxth	r3, r3
 247 00b2 002B     		cmp	r3, #0
 248 00b4 00F0EA80 		beq	.L33
 249              		.loc 1 169 0
 250 00b8 FFF7FEFF 		bl	USBFS_InitControlRead
 251 00bc 0346     		mov	r3, r0
 252 00be BB71     		strb	r3, [r7, #6]
 253              		.loc 1 175 0
 254 00c0 F3E0     		b	.L20
 255              	.L10:
 176:.\Generated_Source\PSoC5/USBFS_hid.c ****             case USBFS_HID_GET_REPORT:
 177:.\Generated_Source\PSoC5/USBFS_hid.c ****                 USBFS_FindReport();
 256              		.loc 1 177 0
 257 00c2 FFF7FEFF 		bl	USBFS_FindReport
 178:.\Generated_Source\PSoC5/USBFS_hid.c ****                 if (USBFS_currentTD.count != 0u)
 258              		.loc 1 178 0
 259 00c6 40F20003 		movw	r3, #:lower16:USBFS_currentTD
 260 00ca C0F20003 		movt	r3, #:upper16:USBFS_currentTD
 261 00ce 1B88     		ldrh	r3, [r3, #0]	@ movhi
 262 00d0 9BB2     		uxth	r3, r3
 263 00d2 002B     		cmp	r3, #0
 264 00d4 00F0DC80 		beq	.L34
 179:.\Generated_Source\PSoC5/USBFS_hid.c ****                 {
 180:.\Generated_Source\PSoC5/USBFS_hid.c ****                     requestHandled = USBFS_InitControlRead();
 265              		.loc 1 180 0
 266 00d8 FFF7FEFF 		bl	USBFS_InitControlRead
 267 00dc 0346     		mov	r3, r0
 268 00de BB71     		strb	r3, [r7, #6]
 181:.\Generated_Source\PSoC5/USBFS_hid.c ****                 }
 182:.\Generated_Source\PSoC5/USBFS_hid.c ****                 break;
 269              		.loc 1 182 0
 270 00e0 E3E0     		b	.L20
ARM GAS  C:\DOCUME~1\ADMINI~1\LOCALS~1\Temp\ccIflNry.s 			page 9


 271              	.L11:
 183:.\Generated_Source\PSoC5/USBFS_hid.c **** 
 184:.\Generated_Source\PSoC5/USBFS_hid.c ****             case USBFS_HID_GET_IDLE:
 185:.\Generated_Source\PSoC5/USBFS_hid.c ****                 /* This function does not support multiple reports per interface*/
 186:.\Generated_Source\PSoC5/USBFS_hid.c ****                 /* Validate interfaceNumber and Report ID (should be 0) */
 187:.\Generated_Source\PSoC5/USBFS_hid.c ****                 if( (interfaceNumber < USBFS_MAX_INTERFACES_NUMBER) &&
 272              		.loc 1 187 0
 273 00e2 FB79     		ldrb	r3, [r7, #7]	@ zero_extendqisi2
 274 00e4 032B     		cmp	r3, #3
 275 00e6 00F2D580 		bhi	.L35
 188:.\Generated_Source\PSoC5/USBFS_hid.c ****                     (CY_GET_REG8(USBFS_wValueLo) == 0u ) ) /* do not support Idle per Report ID */
 276              		.loc 1 188 0
 277 00ea 46F20203 		movw	r3, #:lower16:1073766402
 278 00ee C4F20003 		movt	r3, #:upper16:1073766402
 279 00f2 1B78     		ldrb	r3, [r3, #0]
 280 00f4 DBB2     		uxtb	r3, r3
 281              		.loc 1 187 0
 282 00f6 002B     		cmp	r3, #0
 283 00f8 40F0CE80 		bne	.L36
 189:.\Generated_Source\PSoC5/USBFS_hid.c ****                 {
 190:.\Generated_Source\PSoC5/USBFS_hid.c ****                     USBFS_currentTD.count = 1u;
 284              		.loc 1 190 0
 285 00fc 40F20003 		movw	r3, #:lower16:USBFS_currentTD
 286 0100 C0F20003 		movt	r3, #:upper16:USBFS_currentTD
 287 0104 4FF00102 		mov	r2, #1
 288 0108 1A80     		strh	r2, [r3, #0]	@ movhi
 191:.\Generated_Source\PSoC5/USBFS_hid.c ****                     USBFS_currentTD.pData = &USBFS_hidIdleRate[interfaceNumber];
 289              		.loc 1 191 0
 290 010a FA79     		ldrb	r2, [r7, #7]	@ zero_extendqisi2
 291 010c 40F20003 		movw	r3, #:lower16:USBFS_hidIdleRate
 292 0110 C0F20003 		movt	r3, #:upper16:USBFS_hidIdleRate
 293 0114 1A44     		add	r2, r2, r3
 294 0116 40F20003 		movw	r3, #:lower16:USBFS_currentTD
 295 011a C0F20003 		movt	r3, #:upper16:USBFS_currentTD
 296 011e 5A60     		str	r2, [r3, #4]
 192:.\Generated_Source\PSoC5/USBFS_hid.c ****                     requestHandled  = USBFS_InitControlRead();
 297              		.loc 1 192 0
 298 0120 FFF7FEFF 		bl	USBFS_InitControlRead
 299 0124 0346     		mov	r3, r0
 300 0126 BB71     		strb	r3, [r7, #6]
 193:.\Generated_Source\PSoC5/USBFS_hid.c ****                 }
 194:.\Generated_Source\PSoC5/USBFS_hid.c ****                 break;
 301              		.loc 1 194 0
 302 0128 BFE0     		b	.L20
 303              	.L12:
 195:.\Generated_Source\PSoC5/USBFS_hid.c ****             case USBFS_HID_GET_PROTOCOL:
 196:.\Generated_Source\PSoC5/USBFS_hid.c ****                 /* Validate interfaceNumber */
 197:.\Generated_Source\PSoC5/USBFS_hid.c ****                 if( interfaceNumber < USBFS_MAX_INTERFACES_NUMBER)
 304              		.loc 1 197 0
 305 012a FB79     		ldrb	r3, [r7, #7]	@ zero_extendqisi2
 306 012c 032B     		cmp	r3, #3
 307 012e 00F2B580 		bhi	.L37
 198:.\Generated_Source\PSoC5/USBFS_hid.c ****                 {
 199:.\Generated_Source\PSoC5/USBFS_hid.c ****                     USBFS_currentTD.count = 1u;
 308              		.loc 1 199 0
 309 0132 40F20003 		movw	r3, #:lower16:USBFS_currentTD
 310 0136 C0F20003 		movt	r3, #:upper16:USBFS_currentTD
ARM GAS  C:\DOCUME~1\ADMINI~1\LOCALS~1\Temp\ccIflNry.s 			page 10


 311 013a 4FF00102 		mov	r2, #1
 312 013e 1A80     		strh	r2, [r3, #0]	@ movhi
 200:.\Generated_Source\PSoC5/USBFS_hid.c ****                     USBFS_currentTD.pData = &USBFS_hidProtocol[interfaceNumber];
 313              		.loc 1 200 0
 314 0140 FA79     		ldrb	r2, [r7, #7]	@ zero_extendqisi2
 315 0142 40F20003 		movw	r3, #:lower16:USBFS_hidProtocol
 316 0146 C0F20003 		movt	r3, #:upper16:USBFS_hidProtocol
 317 014a 1A44     		add	r2, r2, r3
 318 014c 40F20003 		movw	r3, #:lower16:USBFS_currentTD
 319 0150 C0F20003 		movt	r3, #:upper16:USBFS_currentTD
 320 0154 5A60     		str	r2, [r3, #4]
 201:.\Generated_Source\PSoC5/USBFS_hid.c ****                     requestHandled  = USBFS_InitControlRead();
 321              		.loc 1 201 0
 322 0156 FFF7FEFF 		bl	USBFS_InitControlRead
 323 015a 0346     		mov	r3, r0
 324 015c BB71     		strb	r3, [r7, #6]
 325 015e A4E0     		b	.L20
 326              	.L8:
 202:.\Generated_Source\PSoC5/USBFS_hid.c ****                 }
 203:.\Generated_Source\PSoC5/USBFS_hid.c ****                 break;
 204:.\Generated_Source\PSoC5/USBFS_hid.c ****             default:    /* requestHandled is initialezed as FALSE by default */
 205:.\Generated_Source\PSoC5/USBFS_hid.c ****                 break;
 206:.\Generated_Source\PSoC5/USBFS_hid.c ****         }
 207:.\Generated_Source\PSoC5/USBFS_hid.c ****     }
 208:.\Generated_Source\PSoC5/USBFS_hid.c ****     else if ((CY_GET_REG8(USBFS_bmRequestType) & USBFS_RQST_DIR_MASK) ==
 327              		.loc 1 208 0
 328 0160 46F20003 		movw	r3, #:lower16:1073766400
 329 0164 C4F20003 		movt	r3, #:upper16:1073766400
 330 0168 1B78     		ldrb	r3, [r3, #0]
 331 016a DBB2     		uxtb	r3, r3
 332 016c 5BB2     		sxtb	r3, r3
 333 016e 002B     		cmp	r3, #0
 334 0170 C0F29B80 		blt	.L20
 209:.\Generated_Source\PSoC5/USBFS_hid.c ****                                                                             USBFS_RQST_DIR_H2D)
 210:.\Generated_Source\PSoC5/USBFS_hid.c ****     {   /* Control Write */
 211:.\Generated_Source\PSoC5/USBFS_hid.c ****         switch (CY_GET_REG8(USBFS_bRequest))
 335              		.loc 1 211 0
 336 0174 46F20103 		movw	r3, #:lower16:1073766401
 337 0178 C4F20003 		movt	r3, #:upper16:1073766401
 338 017c 1B78     		ldrb	r3, [r3, #0]
 339 017e DBB2     		uxtb	r3, r3
 340 0180 092B     		cmp	r3, #9
 341 0182 07D0     		beq	.L21
 342 0184 092B     		cmp	r3, #9
 343 0186 C0F29080 		blt	.L20
 344 018a 0A2B     		cmp	r3, #10
 345 018c 11D0     		beq	.L22
 346 018e 0B2B     		cmp	r3, #11
 347 0190 5AD0     		beq	.L23
 348 0192 8AE0     		b	.L20
 349              	.L21:
 212:.\Generated_Source\PSoC5/USBFS_hid.c ****         {
 213:.\Generated_Source\PSoC5/USBFS_hid.c ****             case USBFS_HID_SET_REPORT:
 214:.\Generated_Source\PSoC5/USBFS_hid.c ****                 USBFS_FindReport();
 350              		.loc 1 214 0
 351 0194 FFF7FEFF 		bl	USBFS_FindReport
 215:.\Generated_Source\PSoC5/USBFS_hid.c ****                 if (USBFS_currentTD.count != 0u)
ARM GAS  C:\DOCUME~1\ADMINI~1\LOCALS~1\Temp\ccIflNry.s 			page 11


 352              		.loc 1 215 0
 353 0198 40F20003 		movw	r3, #:lower16:USBFS_currentTD
 354 019c C0F20003 		movt	r3, #:upper16:USBFS_currentTD
 355 01a0 1B88     		ldrh	r3, [r3, #0]	@ movhi
 356 01a2 9BB2     		uxth	r3, r3
 357 01a4 002B     		cmp	r3, #0
 358 01a6 7BD0     		beq	.L38
 216:.\Generated_Source\PSoC5/USBFS_hid.c ****                 {
 217:.\Generated_Source\PSoC5/USBFS_hid.c ****                     requestHandled = USBFS_InitControlWrite();
 359              		.loc 1 217 0
 360 01a8 FFF7FEFF 		bl	USBFS_InitControlWrite
 361 01ac 0346     		mov	r3, r0
 362 01ae BB71     		strb	r3, [r7, #6]
 218:.\Generated_Source\PSoC5/USBFS_hid.c ****                 }
 219:.\Generated_Source\PSoC5/USBFS_hid.c ****                 break;
 363              		.loc 1 219 0
 364 01b0 7BE0     		b	.L20
 365              	.L22:
 220:.\Generated_Source\PSoC5/USBFS_hid.c ****             case USBFS_HID_SET_IDLE:
 221:.\Generated_Source\PSoC5/USBFS_hid.c ****                 /* This function does not support multiple reports per interface */
 222:.\Generated_Source\PSoC5/USBFS_hid.c ****                 /* Validate interfaceNumber and Report ID (should be 0) */
 223:.\Generated_Source\PSoC5/USBFS_hid.c ****                 if( (interfaceNumber < USBFS_MAX_INTERFACES_NUMBER) &&
 366              		.loc 1 223 0
 367 01b2 FB79     		ldrb	r3, [r7, #7]	@ zero_extendqisi2
 368 01b4 032B     		cmp	r3, #3
 369 01b6 75D8     		bhi	.L39
 224:.\Generated_Source\PSoC5/USBFS_hid.c ****                     (CY_GET_REG8(USBFS_wValueLo) == 0u ) ) /* do not support Idle per Report ID */
 370              		.loc 1 224 0
 371 01b8 46F20203 		movw	r3, #:lower16:1073766402
 372 01bc C4F20003 		movt	r3, #:upper16:1073766402
 373 01c0 1B78     		ldrb	r3, [r3, #0]
 374 01c2 DBB2     		uxtb	r3, r3
 375              		.loc 1 223 0
 376 01c4 002B     		cmp	r3, #0
 377 01c6 6FD1     		bne	.L40
 225:.\Generated_Source\PSoC5/USBFS_hid.c ****                 {
 226:.\Generated_Source\PSoC5/USBFS_hid.c ****                     USBFS_hidIdleRate[interfaceNumber] = CY_GET_REG8(USBFS_wValueHi);
 378              		.loc 1 226 0
 379 01c8 FA79     		ldrb	r2, [r7, #7]	@ zero_extendqisi2
 380 01ca 46F20303 		movw	r3, #:lower16:1073766403
 381 01ce C4F20003 		movt	r3, #:upper16:1073766403
 382 01d2 1B78     		ldrb	r3, [r3, #0]
 383 01d4 D9B2     		uxtb	r1, r3
 384 01d6 40F20003 		movw	r3, #:lower16:USBFS_hidIdleRate
 385 01da C0F20003 		movt	r3, #:upper16:USBFS_hidIdleRate
 386 01de 9954     		strb	r1, [r3, r2]
 227:.\Generated_Source\PSoC5/USBFS_hid.c ****                     /* With regards to HID spec: "7.2.4 Set_Idle Request"
 228:.\Generated_Source\PSoC5/USBFS_hid.c ****                     *  Latency. If the current period has gone past the
 229:.\Generated_Source\PSoC5/USBFS_hid.c ****                     *  newly proscribed time duration, then a report
 230:.\Generated_Source\PSoC5/USBFS_hid.c ****                     *  will be generated immediately.
 231:.\Generated_Source\PSoC5/USBFS_hid.c ****                     */
 232:.\Generated_Source\PSoC5/USBFS_hid.c ****                     if(USBFS_hidIdleRate[interfaceNumber] <
 387              		.loc 1 232 0
 388 01e0 FA79     		ldrb	r2, [r7, #7]	@ zero_extendqisi2
 389 01e2 40F20003 		movw	r3, #:lower16:USBFS_hidIdleRate
 390 01e6 C0F20003 		movt	r3, #:upper16:USBFS_hidIdleRate
 391 01ea 9B5C     		ldrb	r3, [r3, r2]
ARM GAS  C:\DOCUME~1\ADMINI~1\LOCALS~1\Temp\ccIflNry.s 			page 12


 392 01ec DAB2     		uxtb	r2, r3
 393 01ee F979     		ldrb	r1, [r7, #7]	@ zero_extendqisi2
 233:.\Generated_Source\PSoC5/USBFS_hid.c ****                        USBFS_hidIdleTimer[interfaceNumber])
 394              		.loc 1 233 0
 395 01f0 40F20003 		movw	r3, #:lower16:USBFS_hidIdleTimer
 396 01f4 C0F20003 		movt	r3, #:upper16:USBFS_hidIdleTimer
 397 01f8 5B5C     		ldrb	r3, [r3, r1]
 398 01fa DBB2     		uxtb	r3, r3
 399              		.loc 1 232 0
 400 01fc 9A42     		cmp	r2, r3
 401 01fe 08D2     		bcs	.L26
 234:.\Generated_Source\PSoC5/USBFS_hid.c ****                     {
 235:.\Generated_Source\PSoC5/USBFS_hid.c ****                         /* Set the timer to zero and let the UpdateHIDTimer() API return IDLE_TIMER
 236:.\Generated_Source\PSoC5/USBFS_hid.c ****                         USBFS_hidIdleTimer[interfaceNumber] = 0u;
 402              		.loc 1 236 0
 403 0200 FA79     		ldrb	r2, [r7, #7]	@ zero_extendqisi2
 404 0202 40F20003 		movw	r3, #:lower16:USBFS_hidIdleTimer
 405 0206 C0F20003 		movt	r3, #:upper16:USBFS_hidIdleTimer
 406 020a 4FF00001 		mov	r1, #0
 407 020e 9954     		strb	r1, [r3, r2]
 408 0210 15E0     		b	.L27
 409              	.L26:
 237:.\Generated_Source\PSoC5/USBFS_hid.c ****                     }
 238:.\Generated_Source\PSoC5/USBFS_hid.c ****                     /* If the new request is received within 4 milliseconds
 239:.\Generated_Source\PSoC5/USBFS_hid.c ****                     *  (1 count) of the end of the current period, then the
 240:.\Generated_Source\PSoC5/USBFS_hid.c ****                     *  new request will have no effect until after the report.
 241:.\Generated_Source\PSoC5/USBFS_hid.c ****                     */
 242:.\Generated_Source\PSoC5/USBFS_hid.c ****                     else if(USBFS_hidIdleTimer[interfaceNumber] <= 1u)
 410              		.loc 1 242 0
 411 0212 FA79     		ldrb	r2, [r7, #7]	@ zero_extendqisi2
 412 0214 40F20003 		movw	r3, #:lower16:USBFS_hidIdleTimer
 413 0218 C0F20003 		movt	r3, #:upper16:USBFS_hidIdleTimer
 414 021c 9B5C     		ldrb	r3, [r3, r2]
 415 021e DBB2     		uxtb	r3, r3
 416 0220 012B     		cmp	r3, #1
 417 0222 0CD9     		bls	.L27
 418              	.L28:
 243:.\Generated_Source\PSoC5/USBFS_hid.c ****                     {
 244:.\Generated_Source\PSoC5/USBFS_hid.c ****                         /* Do nothing.
 245:.\Generated_Source\PSoC5/USBFS_hid.c ****                         * Let the UpdateHIDTimer() API continue to work and
 246:.\Generated_Source\PSoC5/USBFS_hid.c ****                         * return IDLE_TIMER_EXPIRED status
 247:.\Generated_Source\PSoC5/USBFS_hid.c ****                         */
 248:.\Generated_Source\PSoC5/USBFS_hid.c ****                     }
 249:.\Generated_Source\PSoC5/USBFS_hid.c ****                     else
 250:.\Generated_Source\PSoC5/USBFS_hid.c ****                     {   /* Reload the timer*/
 251:.\Generated_Source\PSoC5/USBFS_hid.c ****                         USBFS_hidIdleTimer[interfaceNumber] =
 419              		.loc 1 251 0
 420 0224 FA79     		ldrb	r2, [r7, #7]	@ zero_extendqisi2
 252:.\Generated_Source\PSoC5/USBFS_hid.c ****                         USBFS_hidIdleRate[interfaceNumber];
 421              		.loc 1 252 0
 422 0226 F979     		ldrb	r1, [r7, #7]	@ zero_extendqisi2
 423 0228 40F20003 		movw	r3, #:lower16:USBFS_hidIdleRate
 424 022c C0F20003 		movt	r3, #:upper16:USBFS_hidIdleRate
 425 0230 5B5C     		ldrb	r3, [r3, r1]
 426 0232 D9B2     		uxtb	r1, r3
 427              		.loc 1 251 0
 428 0234 40F20003 		movw	r3, #:lower16:USBFS_hidIdleTimer
ARM GAS  C:\DOCUME~1\ADMINI~1\LOCALS~1\Temp\ccIflNry.s 			page 13


 429 0238 C0F20003 		movt	r3, #:upper16:USBFS_hidIdleTimer
 430 023c 9954     		strb	r1, [r3, r2]
 431              	.L27:
 253:.\Generated_Source\PSoC5/USBFS_hid.c ****                     }
 254:.\Generated_Source\PSoC5/USBFS_hid.c ****                     requestHandled = USBFS_InitNoDataControlTransfer();
 432              		.loc 1 254 0
 433 023e FFF7FEFF 		bl	USBFS_InitNoDataControlTransfer
 434 0242 0346     		mov	r3, r0
 435 0244 BB71     		strb	r3, [r7, #6]
 255:.\Generated_Source\PSoC5/USBFS_hid.c ****                 }
 256:.\Generated_Source\PSoC5/USBFS_hid.c ****                 break;
 436              		.loc 1 256 0
 437 0246 30E0     		b	.L20
 438              	.L23:
 257:.\Generated_Source\PSoC5/USBFS_hid.c **** 
 258:.\Generated_Source\PSoC5/USBFS_hid.c ****             case USBFS_HID_SET_PROTOCOL:
 259:.\Generated_Source\PSoC5/USBFS_hid.c ****                 /* Validate interfaceNumber and protocol (must be 0 or 1) */
 260:.\Generated_Source\PSoC5/USBFS_hid.c ****                 if( (interfaceNumber < USBFS_MAX_INTERFACES_NUMBER) &&
 439              		.loc 1 260 0
 440 0248 FB79     		ldrb	r3, [r7, #7]	@ zero_extendqisi2
 441 024a 032B     		cmp	r3, #3
 442 024c 2DD8     		bhi	.L20
 261:.\Generated_Source\PSoC5/USBFS_hid.c ****                     (CY_GET_REG8(USBFS_wValueLo) <= 1u) )
 443              		.loc 1 261 0
 444 024e 46F20203 		movw	r3, #:lower16:1073766402
 445 0252 C4F20003 		movt	r3, #:upper16:1073766402
 446 0256 1B78     		ldrb	r3, [r3, #0]
 447 0258 DBB2     		uxtb	r3, r3
 448              		.loc 1 260 0
 449 025a 012B     		cmp	r3, #1
 450 025c 25D8     		bhi	.L20
 262:.\Generated_Source\PSoC5/USBFS_hid.c ****                 {
 263:.\Generated_Source\PSoC5/USBFS_hid.c ****                     USBFS_hidProtocol[interfaceNumber] = CY_GET_REG8(USBFS_wValueLo);
 451              		.loc 1 263 0
 452 025e FA79     		ldrb	r2, [r7, #7]	@ zero_extendqisi2
 453 0260 46F20203 		movw	r3, #:lower16:1073766402
 454 0264 C4F20003 		movt	r3, #:upper16:1073766402
 455 0268 1B78     		ldrb	r3, [r3, #0]
 456 026a D9B2     		uxtb	r1, r3
 457 026c 40F20003 		movw	r3, #:lower16:USBFS_hidProtocol
 458 0270 C0F20003 		movt	r3, #:upper16:USBFS_hidProtocol
 459 0274 9954     		strb	r1, [r3, r2]
 264:.\Generated_Source\PSoC5/USBFS_hid.c ****                     requestHandled = USBFS_InitNoDataControlTransfer();
 460              		.loc 1 264 0
 461 0276 FFF7FEFF 		bl	USBFS_InitNoDataControlTransfer
 462 027a 0346     		mov	r3, r0
 463 027c BB71     		strb	r3, [r7, #6]
 464 027e 14E0     		b	.L20
 465              	.L30:
 466              		.loc 1 201 0
 467 0280 00BF     		nop
 468 0282 12E0     		b	.L20
 469              	.L31:
 470              		.loc 1 175 0
 471 0284 00BF     		nop
 472 0286 10E0     		b	.L20
 473              	.L32:
ARM GAS  C:\DOCUME~1\ADMINI~1\LOCALS~1\Temp\ccIflNry.s 			page 14


 474 0288 00BF     		nop
 475 028a 0EE0     		b	.L20
 476              	.L33:
 477 028c 00BF     		nop
 478 028e 0CE0     		b	.L20
 479              	.L34:
 480              		.loc 1 182 0
 481 0290 00BF     		nop
 482 0292 0AE0     		b	.L20
 483              	.L35:
 484              		.loc 1 194 0
 485 0294 00BF     		nop
 486 0296 08E0     		b	.L20
 487              	.L36:
 488 0298 00BF     		nop
 489 029a 06E0     		b	.L20
 490              	.L37:
 491              		.loc 1 201 0
 492 029c 00BF     		nop
 493 029e 04E0     		b	.L20
 494              	.L38:
 495              		.loc 1 219 0
 496 02a0 00BF     		nop
 497 02a2 02E0     		b	.L20
 498              	.L39:
 499              		.loc 1 256 0
 500 02a4 00BF     		nop
 501 02a6 00E0     		b	.L20
 502              	.L40:
 503 02a8 00BF     		nop
 504              	.L20:
 265:.\Generated_Source\PSoC5/USBFS_hid.c ****                 }
 266:.\Generated_Source\PSoC5/USBFS_hid.c ****                 break;
 267:.\Generated_Source\PSoC5/USBFS_hid.c ****             default:    /* requestHandled is initialezed as FALSE by default */
 268:.\Generated_Source\PSoC5/USBFS_hid.c ****                 break;
 269:.\Generated_Source\PSoC5/USBFS_hid.c ****         }
 270:.\Generated_Source\PSoC5/USBFS_hid.c ****     }
 271:.\Generated_Source\PSoC5/USBFS_hid.c ****     else
 272:.\Generated_Source\PSoC5/USBFS_hid.c ****     {   /* requestHandled is initialezed as FALSE by default */
 273:.\Generated_Source\PSoC5/USBFS_hid.c ****     }
 274:.\Generated_Source\PSoC5/USBFS_hid.c **** 
 275:.\Generated_Source\PSoC5/USBFS_hid.c ****     return(requestHandled);
 505              		.loc 1 275 0
 506 02aa BB79     		ldrb	r3, [r7, #6]	@ zero_extendqisi2
 276:.\Generated_Source\PSoC5/USBFS_hid.c **** }
 507              		.loc 1 276 0
 508 02ac 1846     		mov	r0, r3
 509 02ae 07F10807 		add	r7, r7, #8
 510 02b2 BD46     		mov	sp, r7
 511 02b4 80BD     		pop	{r7, pc}
 512              		.cfi_endproc
 513              	.LFE2:
 514              		.size	USBFS_DispatchHIDClassRqst, .-USBFS_DispatchHIDClassRqst
 515 02b6 00BF     		.section	.text.USBFS_FindHidClassDecriptor,"ax",%progbits
 516              		.align	2
 517              		.global	USBFS_FindHidClassDecriptor
 518              		.thumb
ARM GAS  C:\DOCUME~1\ADMINI~1\LOCALS~1\Temp\ccIflNry.s 			page 15


 519              		.thumb_func
 520              		.type	USBFS_FindHidClassDecriptor, %function
 521              	USBFS_FindHidClassDecriptor:
 522              	.LFB3:
 277:.\Generated_Source\PSoC5/USBFS_hid.c **** 
 278:.\Generated_Source\PSoC5/USBFS_hid.c **** 
 279:.\Generated_Source\PSoC5/USBFS_hid.c **** /*******************************************************************************
 280:.\Generated_Source\PSoC5/USBFS_hid.c **** * Function Name: USB_FindHidClassDescriptor
 281:.\Generated_Source\PSoC5/USBFS_hid.c **** ********************************************************************************
 282:.\Generated_Source\PSoC5/USBFS_hid.c **** *
 283:.\Generated_Source\PSoC5/USBFS_hid.c **** * Summary:
 284:.\Generated_Source\PSoC5/USBFS_hid.c **** *  This routine find Hid Class Descriptor pointer based on the Interface number
 285:.\Generated_Source\PSoC5/USBFS_hid.c **** *  and Alternate setting then loads the currentTD structure with the address of
 286:.\Generated_Source\PSoC5/USBFS_hid.c **** *  the buffer and the size.
 287:.\Generated_Source\PSoC5/USBFS_hid.c **** *  The HID Class Descriptor resides inside the config descriptor.
 288:.\Generated_Source\PSoC5/USBFS_hid.c **** *
 289:.\Generated_Source\PSoC5/USBFS_hid.c **** * Parameters:
 290:.\Generated_Source\PSoC5/USBFS_hid.c **** *  None.
 291:.\Generated_Source\PSoC5/USBFS_hid.c **** *
 292:.\Generated_Source\PSoC5/USBFS_hid.c **** * Return:
 293:.\Generated_Source\PSoC5/USBFS_hid.c **** *  currentTD
 294:.\Generated_Source\PSoC5/USBFS_hid.c **** *
 295:.\Generated_Source\PSoC5/USBFS_hid.c **** * Reentrant:
 296:.\Generated_Source\PSoC5/USBFS_hid.c **** *  No.
 297:.\Generated_Source\PSoC5/USBFS_hid.c **** *
 298:.\Generated_Source\PSoC5/USBFS_hid.c **** *******************************************************************************/
 299:.\Generated_Source\PSoC5/USBFS_hid.c **** void USBFS_FindHidClassDecriptor() 
 300:.\Generated_Source\PSoC5/USBFS_hid.c **** {
 523              		.loc 1 300 0
 524              		.cfi_startproc
 525              		@ args = 0, pretend = 0, frame = 16
 526              		@ frame_needed = 1, uses_anonymous_args = 0
 527 0000 80B5     		push	{r7, lr}
 528              	.LCFI9:
 529              		.cfi_def_cfa_offset 8
 530 0002 84B0     		sub	sp, sp, #16
 531              	.LCFI10:
 532              		.cfi_def_cfa_offset 24
 533 0004 00AF     		add	r7, sp, #0
 534              		.cfi_offset 14, -4
 535              		.cfi_offset 7, -8
 536              	.LCFI11:
 537              		.cfi_def_cfa_register 7
 301:.\Generated_Source\PSoC5/USBFS_hid.c ****     T_USBFS_LUT *pTmp;
 302:.\Generated_Source\PSoC5/USBFS_hid.c ****     volatile uint8 *pDescr;
 303:.\Generated_Source\PSoC5/USBFS_hid.c ****     uint8 interfaceN;
 304:.\Generated_Source\PSoC5/USBFS_hid.c **** 
 305:.\Generated_Source\PSoC5/USBFS_hid.c ****     pTmp = USBFS_GetConfigTablePtr(USBFS_configuration - 1u);
 538              		.loc 1 305 0
 539 0006 40F20003 		movw	r3, #:lower16:USBFS_configuration
 540 000a C0F20003 		movt	r3, #:upper16:USBFS_configuration
 541 000e 1B78     		ldrb	r3, [r3, #0]
 542 0010 DBB2     		uxtb	r3, r3
 543 0012 03F1FF33 		add	r3, r3, #-1
 544 0016 DBB2     		uxtb	r3, r3
 545 0018 1846     		mov	r0, r3
 546 001a FFF7FEFF 		bl	USBFS_GetConfigTablePtr
ARM GAS  C:\DOCUME~1\ADMINI~1\LOCALS~1\Temp\ccIflNry.s 			page 16


 547 001e 0346     		mov	r3, r0
 548 0020 7B60     		str	r3, [r7, #4]
 306:.\Generated_Source\PSoC5/USBFS_hid.c ****     interfaceN = CY_GET_REG8(USBFS_wIndexLo);
 549              		.loc 1 306 0
 550 0022 46F20403 		movw	r3, #:lower16:1073766404
 551 0026 C4F20003 		movt	r3, #:upper16:1073766404
 552 002a 1B78     		ldrb	r3, [r3, #0]
 553 002c FB73     		strb	r3, [r7, #15]
 307:.\Generated_Source\PSoC5/USBFS_hid.c ****     /* Third entry in the LUT starts the Interface Table pointers */
 308:.\Generated_Source\PSoC5/USBFS_hid.c ****     pTmp += 2;
 554              		.loc 1 308 0
 555 002e 7B68     		ldr	r3, [r7, #4]
 556 0030 03F11003 		add	r3, r3, #16
 557 0034 7B60     		str	r3, [r7, #4]
 309:.\Generated_Source\PSoC5/USBFS_hid.c ****     /* Now use the request interface number*/
 310:.\Generated_Source\PSoC5/USBFS_hid.c ****     pTmp = &pTmp[interfaceN];
 558              		.loc 1 310 0
 559 0036 FB7B     		ldrb	r3, [r7, #15]	@ zero_extendqisi2
 560 0038 4FEAC303 		lsl	r3, r3, #3
 561 003c 7A68     		ldr	r2, [r7, #4]
 562 003e 1344     		add	r3, r2, r3
 563 0040 7B60     		str	r3, [r7, #4]
 311:.\Generated_Source\PSoC5/USBFS_hid.c ****     /*USB_DEVICEx_CONFIGURATIONy_INTERFACEz_TABLE*/
 312:.\Generated_Source\PSoC5/USBFS_hid.c ****     pTmp = (T_USBFS_LUT *) pTmp->p_list;
 564              		.loc 1 312 0
 565 0042 7B68     		ldr	r3, [r7, #4]
 566 0044 5B68     		ldr	r3, [r3, #4]
 567 0046 7B60     		str	r3, [r7, #4]
 313:.\Generated_Source\PSoC5/USBFS_hid.c ****     /* Now use Alternate setting number */
 314:.\Generated_Source\PSoC5/USBFS_hid.c ****     pTmp = &pTmp[USBFS_interfaceSetting[interfaceN]];
 568              		.loc 1 314 0
 569 0048 FA7B     		ldrb	r2, [r7, #15]	@ zero_extendqisi2
 570 004a 40F20003 		movw	r3, #:lower16:USBFS_interfaceSetting
 571 004e C0F20003 		movt	r3, #:upper16:USBFS_interfaceSetting
 572 0052 9B5C     		ldrb	r3, [r3, r2]
 573 0054 DBB2     		uxtb	r3, r3
 574 0056 4FEAC303 		lsl	r3, r3, #3
 575 005a 7A68     		ldr	r2, [r7, #4]
 576 005c 1344     		add	r3, r2, r3
 577 005e 7B60     		str	r3, [r7, #4]
 315:.\Generated_Source\PSoC5/USBFS_hid.c ****     /*USB_DEVICEx_CONFIGURATIONy_INTERFACEz_ALTERNATEi_HID_TABLE*/
 316:.\Generated_Source\PSoC5/USBFS_hid.c ****     pTmp = (T_USBFS_LUT *) pTmp->p_list;
 578              		.loc 1 316 0
 579 0060 7B68     		ldr	r3, [r7, #4]
 580 0062 5B68     		ldr	r3, [r3, #4]
 581 0064 7B60     		str	r3, [r7, #4]
 317:.\Generated_Source\PSoC5/USBFS_hid.c ****     /* Fifth entry in the LUT points to Hid Class Descriptor in Configuration Descriptor*/
 318:.\Generated_Source\PSoC5/USBFS_hid.c ****     pTmp += 4;
 582              		.loc 1 318 0
 583 0066 7B68     		ldr	r3, [r7, #4]
 584 0068 03F12003 		add	r3, r3, #32
 585 006c 7B60     		str	r3, [r7, #4]
 319:.\Generated_Source\PSoC5/USBFS_hid.c ****     pDescr = (volatile uint8 *)pTmp->p_list;
 586              		.loc 1 319 0
 587 006e 7B68     		ldr	r3, [r7, #4]
 588 0070 5B68     		ldr	r3, [r3, #4]
 589 0072 BB60     		str	r3, [r7, #8]
ARM GAS  C:\DOCUME~1\ADMINI~1\LOCALS~1\Temp\ccIflNry.s 			page 17


 320:.\Generated_Source\PSoC5/USBFS_hid.c ****     USBFS_currentTD.count = pDescr[0u];
 590              		.loc 1 320 0
 591 0074 BB68     		ldr	r3, [r7, #8]
 592 0076 1B78     		ldrb	r3, [r3, #0]
 593 0078 DBB2     		uxtb	r3, r3
 594 007a 1A46     		mov	r2, r3
 595 007c 40F20003 		movw	r3, #:lower16:USBFS_currentTD
 596 0080 C0F20003 		movt	r3, #:upper16:USBFS_currentTD
 597 0084 1A80     		strh	r2, [r3, #0]	@ movhi
 321:.\Generated_Source\PSoC5/USBFS_hid.c ****     USBFS_currentTD.pData = pDescr;
 598              		.loc 1 321 0
 599 0086 40F20003 		movw	r3, #:lower16:USBFS_currentTD
 600 008a C0F20003 		movt	r3, #:upper16:USBFS_currentTD
 601 008e BA68     		ldr	r2, [r7, #8]
 602 0090 5A60     		str	r2, [r3, #4]
 322:.\Generated_Source\PSoC5/USBFS_hid.c **** }
 603              		.loc 1 322 0
 604 0092 07F11007 		add	r7, r7, #16
 605 0096 BD46     		mov	sp, r7
 606 0098 80BD     		pop	{r7, pc}
 607              		.cfi_endproc
 608              	.LFE3:
 609              		.size	USBFS_FindHidClassDecriptor, .-USBFS_FindHidClassDecriptor
 610 009a 00BF     		.section	.text.USBFS_FindReportDescriptor,"ax",%progbits
 611              		.align	2
 612              		.global	USBFS_FindReportDescriptor
 613              		.thumb
 614              		.thumb_func
 615              		.type	USBFS_FindReportDescriptor, %function
 616              	USBFS_FindReportDescriptor:
 617              	.LFB4:
 323:.\Generated_Source\PSoC5/USBFS_hid.c **** 
 324:.\Generated_Source\PSoC5/USBFS_hid.c **** 
 325:.\Generated_Source\PSoC5/USBFS_hid.c **** /*******************************************************************************
 326:.\Generated_Source\PSoC5/USBFS_hid.c **** * Function Name: USB_FindReportDescriptor
 327:.\Generated_Source\PSoC5/USBFS_hid.c **** ********************************************************************************
 328:.\Generated_Source\PSoC5/USBFS_hid.c **** *
 329:.\Generated_Source\PSoC5/USBFS_hid.c **** * Summary:
 330:.\Generated_Source\PSoC5/USBFS_hid.c **** *  This routine find Hid Report Descriptor pointer based on the Interface
 331:.\Generated_Source\PSoC5/USBFS_hid.c **** *  number, then loads the currentTD structure with the address of the buffer
 332:.\Generated_Source\PSoC5/USBFS_hid.c **** *  and the size.
 333:.\Generated_Source\PSoC5/USBFS_hid.c **** *  Hid Report Descriptor is located after IN/OUT/FEATURE reports.
 334:.\Generated_Source\PSoC5/USBFS_hid.c **** *
 335:.\Generated_Source\PSoC5/USBFS_hid.c **** * Parameters:
 336:.\Generated_Source\PSoC5/USBFS_hid.c **** *   void
 337:.\Generated_Source\PSoC5/USBFS_hid.c **** *
 338:.\Generated_Source\PSoC5/USBFS_hid.c **** * Return:
 339:.\Generated_Source\PSoC5/USBFS_hid.c **** *  currentTD
 340:.\Generated_Source\PSoC5/USBFS_hid.c **** *
 341:.\Generated_Source\PSoC5/USBFS_hid.c **** * Reentrant:
 342:.\Generated_Source\PSoC5/USBFS_hid.c **** *  No.
 343:.\Generated_Source\PSoC5/USBFS_hid.c **** *
 344:.\Generated_Source\PSoC5/USBFS_hid.c **** *******************************************************************************/
 345:.\Generated_Source\PSoC5/USBFS_hid.c **** void USBFS_FindReportDescriptor() 
 346:.\Generated_Source\PSoC5/USBFS_hid.c **** {
 618              		.loc 1 346 0
 619              		.cfi_startproc
ARM GAS  C:\DOCUME~1\ADMINI~1\LOCALS~1\Temp\ccIflNry.s 			page 18


 620              		@ args = 0, pretend = 0, frame = 16
 621              		@ frame_needed = 1, uses_anonymous_args = 0
 622 0000 80B5     		push	{r7, lr}
 623              	.LCFI12:
 624              		.cfi_def_cfa_offset 8
 625 0002 84B0     		sub	sp, sp, #16
 626              	.LCFI13:
 627              		.cfi_def_cfa_offset 24
 628 0004 00AF     		add	r7, sp, #0
 629              		.cfi_offset 14, -4
 630              		.cfi_offset 7, -8
 631              	.LCFI14:
 632              		.cfi_def_cfa_register 7
 347:.\Generated_Source\PSoC5/USBFS_hid.c ****     T_USBFS_LUT *pTmp;
 348:.\Generated_Source\PSoC5/USBFS_hid.c ****     volatile uint8 *pDescr;
 349:.\Generated_Source\PSoC5/USBFS_hid.c ****     uint8 interfaceN;
 350:.\Generated_Source\PSoC5/USBFS_hid.c **** 
 351:.\Generated_Source\PSoC5/USBFS_hid.c ****     pTmp = USBFS_GetConfigTablePtr(USBFS_configuration - 1u);
 633              		.loc 1 351 0
 634 0006 40F20003 		movw	r3, #:lower16:USBFS_configuration
 635 000a C0F20003 		movt	r3, #:upper16:USBFS_configuration
 636 000e 1B78     		ldrb	r3, [r3, #0]
 637 0010 DBB2     		uxtb	r3, r3
 638 0012 03F1FF33 		add	r3, r3, #-1
 639 0016 DBB2     		uxtb	r3, r3
 640 0018 1846     		mov	r0, r3
 641 001a FFF7FEFF 		bl	USBFS_GetConfigTablePtr
 642 001e 0346     		mov	r3, r0
 643 0020 7B60     		str	r3, [r7, #4]
 352:.\Generated_Source\PSoC5/USBFS_hid.c ****     interfaceN = CY_GET_REG8(USBFS_wIndexLo);
 644              		.loc 1 352 0
 645 0022 46F20403 		movw	r3, #:lower16:1073766404
 646 0026 C4F20003 		movt	r3, #:upper16:1073766404
 647 002a 1B78     		ldrb	r3, [r3, #0]
 648 002c FB73     		strb	r3, [r7, #15]
 353:.\Generated_Source\PSoC5/USBFS_hid.c ****     /* Third entry in the LUT starts the Interface Table pointers */
 354:.\Generated_Source\PSoC5/USBFS_hid.c ****     pTmp += 2u;
 649              		.loc 1 354 0
 650 002e 7B68     		ldr	r3, [r7, #4]
 651 0030 03F11003 		add	r3, r3, #16
 652 0034 7B60     		str	r3, [r7, #4]
 355:.\Generated_Source\PSoC5/USBFS_hid.c ****     /* Now use the request interface number*/
 356:.\Generated_Source\PSoC5/USBFS_hid.c ****     pTmp = &pTmp[interfaceN];
 653              		.loc 1 356 0
 654 0036 FB7B     		ldrb	r3, [r7, #15]	@ zero_extendqisi2
 655 0038 4FEAC303 		lsl	r3, r3, #3
 656 003c 7A68     		ldr	r2, [r7, #4]
 657 003e 1344     		add	r3, r2, r3
 658 0040 7B60     		str	r3, [r7, #4]
 357:.\Generated_Source\PSoC5/USBFS_hid.c ****     /*USB_DEVICEx_CONFIGURATIONy_INTERFACEz_TABLE*/
 358:.\Generated_Source\PSoC5/USBFS_hid.c ****     pTmp = (T_USBFS_LUT *) pTmp->p_list;
 659              		.loc 1 358 0
 660 0042 7B68     		ldr	r3, [r7, #4]
 661 0044 5B68     		ldr	r3, [r3, #4]
 662 0046 7B60     		str	r3, [r7, #4]
 359:.\Generated_Source\PSoC5/USBFS_hid.c ****     /* Now use Alternate setting number */
 360:.\Generated_Source\PSoC5/USBFS_hid.c ****     pTmp = &pTmp[USBFS_interfaceSetting[interfaceN]];
ARM GAS  C:\DOCUME~1\ADMINI~1\LOCALS~1\Temp\ccIflNry.s 			page 19


 663              		.loc 1 360 0
 664 0048 FA7B     		ldrb	r2, [r7, #15]	@ zero_extendqisi2
 665 004a 40F20003 		movw	r3, #:lower16:USBFS_interfaceSetting
 666 004e C0F20003 		movt	r3, #:upper16:USBFS_interfaceSetting
 667 0052 9B5C     		ldrb	r3, [r3, r2]
 668 0054 DBB2     		uxtb	r3, r3
 669 0056 4FEAC303 		lsl	r3, r3, #3
 670 005a 7A68     		ldr	r2, [r7, #4]
 671 005c 1344     		add	r3, r2, r3
 672 005e 7B60     		str	r3, [r7, #4]
 361:.\Generated_Source\PSoC5/USBFS_hid.c ****     /*USB_DEVICEx_CONFIGURATIONy_INTERFACEz_ALTERNATEi_HID_TABLE*/
 362:.\Generated_Source\PSoC5/USBFS_hid.c ****     pTmp = (T_USBFS_LUT *) pTmp->p_list;
 673              		.loc 1 362 0
 674 0060 7B68     		ldr	r3, [r7, #4]
 675 0062 5B68     		ldr	r3, [r3, #4]
 676 0064 7B60     		str	r3, [r7, #4]
 363:.\Generated_Source\PSoC5/USBFS_hid.c ****     /* Fourth entry in the LUT starts the Hid Report Descriptor */
 364:.\Generated_Source\PSoC5/USBFS_hid.c ****     pTmp += 3;
 677              		.loc 1 364 0
 678 0066 7B68     		ldr	r3, [r7, #4]
 679 0068 03F11803 		add	r3, r3, #24
 680 006c 7B60     		str	r3, [r7, #4]
 365:.\Generated_Source\PSoC5/USBFS_hid.c ****     pDescr = (volatile uint8 *)pTmp->p_list;
 681              		.loc 1 365 0
 682 006e 7B68     		ldr	r3, [r7, #4]
 683 0070 5B68     		ldr	r3, [r3, #4]
 684 0072 BB60     		str	r3, [r7, #8]
 366:.\Generated_Source\PSoC5/USBFS_hid.c ****     USBFS_currentTD.count =  (((uint16)pDescr[1] << 8u) | pDescr[0u]);
 685              		.loc 1 366 0
 686 0074 BB68     		ldr	r3, [r7, #8]
 687 0076 03F10103 		add	r3, r3, #1
 688 007a 1B78     		ldrb	r3, [r3, #0]
 689 007c DBB2     		uxtb	r3, r3
 690 007e 4FEA0323 		lsl	r3, r3, #8
 691 0082 9AB2     		uxth	r2, r3
 692 0084 BB68     		ldr	r3, [r7, #8]
 693 0086 1B78     		ldrb	r3, [r3, #0]
 694 0088 DBB2     		uxtb	r3, r3
 695 008a 42EA0303 		orr	r3, r2, r3
 696 008e 9BB2     		uxth	r3, r3
 697 0090 9AB2     		uxth	r2, r3
 698 0092 40F20003 		movw	r3, #:lower16:USBFS_currentTD
 699 0096 C0F20003 		movt	r3, #:upper16:USBFS_currentTD
 700 009a 1A80     		strh	r2, [r3, #0]	@ movhi
 367:.\Generated_Source\PSoC5/USBFS_hid.c ****     USBFS_currentTD.pData = &pDescr[2u];
 701              		.loc 1 367 0
 702 009c BB68     		ldr	r3, [r7, #8]
 703 009e 03F10202 		add	r2, r3, #2
 704 00a2 40F20003 		movw	r3, #:lower16:USBFS_currentTD
 705 00a6 C0F20003 		movt	r3, #:upper16:USBFS_currentTD
 706 00aa 5A60     		str	r2, [r3, #4]
 368:.\Generated_Source\PSoC5/USBFS_hid.c **** }
 707              		.loc 1 368 0
 708 00ac 07F11007 		add	r7, r7, #16
 709 00b0 BD46     		mov	sp, r7
 710 00b2 80BD     		pop	{r7, pc}
 711              		.cfi_endproc
ARM GAS  C:\DOCUME~1\ADMINI~1\LOCALS~1\Temp\ccIflNry.s 			page 20


 712              	.LFE4:
 713              		.size	USBFS_FindReportDescriptor, .-USBFS_FindReportDescriptor
 714              		.section	.text.USBFS_FindReport,"ax",%progbits
 715              		.align	2
 716              		.global	USBFS_FindReport
 717              		.thumb
 718              		.thumb_func
 719              		.type	USBFS_FindReport, %function
 720              	USBFS_FindReport:
 721              	.LFB5:
 369:.\Generated_Source\PSoC5/USBFS_hid.c **** 
 370:.\Generated_Source\PSoC5/USBFS_hid.c **** 
 371:.\Generated_Source\PSoC5/USBFS_hid.c **** /*******************************************************************************
 372:.\Generated_Source\PSoC5/USBFS_hid.c **** * Function Name: USBFS_FindReport
 373:.\Generated_Source\PSoC5/USBFS_hid.c **** ********************************************************************************
 374:.\Generated_Source\PSoC5/USBFS_hid.c **** *
 375:.\Generated_Source\PSoC5/USBFS_hid.c **** * Summary:
 376:.\Generated_Source\PSoC5/USBFS_hid.c **** *  This routine sets up a transfer based on the Interface number, Report Type
 377:.\Generated_Source\PSoC5/USBFS_hid.c **** *  and Report ID, then loads the currentTD structure with the address of the
 378:.\Generated_Source\PSoC5/USBFS_hid.c **** *  buffer and the size.  The caller has to decide if it is a control read or
 379:.\Generated_Source\PSoC5/USBFS_hid.c **** *  control write.
 380:.\Generated_Source\PSoC5/USBFS_hid.c **** *
 381:.\Generated_Source\PSoC5/USBFS_hid.c **** * Parameters:
 382:.\Generated_Source\PSoC5/USBFS_hid.c **** *  None.
 383:.\Generated_Source\PSoC5/USBFS_hid.c **** *
 384:.\Generated_Source\PSoC5/USBFS_hid.c **** * Return:
 385:.\Generated_Source\PSoC5/USBFS_hid.c **** *  currentTD
 386:.\Generated_Source\PSoC5/USBFS_hid.c **** *
 387:.\Generated_Source\PSoC5/USBFS_hid.c **** * Reentrant:
 388:.\Generated_Source\PSoC5/USBFS_hid.c **** *  No.
 389:.\Generated_Source\PSoC5/USBFS_hid.c **** *
 390:.\Generated_Source\PSoC5/USBFS_hid.c **** *******************************************************************************/
 391:.\Generated_Source\PSoC5/USBFS_hid.c **** void USBFS_FindReport() 
 392:.\Generated_Source\PSoC5/USBFS_hid.c **** {
 722              		.loc 1 392 0
 723              		.cfi_startproc
 724              		@ args = 0, pretend = 0, frame = 16
 725              		@ frame_needed = 1, uses_anonymous_args = 0
 726 0000 80B5     		push	{r7, lr}
 727              	.LCFI15:
 728              		.cfi_def_cfa_offset 8
 729 0002 84B0     		sub	sp, sp, #16
 730              	.LCFI16:
 731              		.cfi_def_cfa_offset 24
 732 0004 00AF     		add	r7, sp, #0
 733              		.cfi_offset 14, -4
 734              		.cfi_offset 7, -8
 735              	.LCFI17:
 736              		.cfi_def_cfa_register 7
 393:.\Generated_Source\PSoC5/USBFS_hid.c ****     T_USBFS_LUT *pTmp;
 394:.\Generated_Source\PSoC5/USBFS_hid.c ****     T_USBFS_TD *pTD;
 395:.\Generated_Source\PSoC5/USBFS_hid.c ****     uint8 interfaceN;
 396:.\Generated_Source\PSoC5/USBFS_hid.c ****     uint8 reportType;
 397:.\Generated_Source\PSoC5/USBFS_hid.c **** 
 398:.\Generated_Source\PSoC5/USBFS_hid.c ****     /* `#START HID_FINDREPORT` Place custom handling here */
 399:.\Generated_Source\PSoC5/USBFS_hid.c **** 
 400:.\Generated_Source\PSoC5/USBFS_hid.c ****     /* `#END` */
ARM GAS  C:\DOCUME~1\ADMINI~1\LOCALS~1\Temp\ccIflNry.s 			page 21


 401:.\Generated_Source\PSoC5/USBFS_hid.c ****     USBFS_currentTD.count = 0u;   /* Init not supported condition */
 737              		.loc 1 401 0
 738 0006 40F20003 		movw	r3, #:lower16:USBFS_currentTD
 739 000a C0F20003 		movt	r3, #:upper16:USBFS_currentTD
 740 000e 4FF00002 		mov	r2, #0
 741 0012 1A80     		strh	r2, [r3, #0]	@ movhi
 402:.\Generated_Source\PSoC5/USBFS_hid.c ****     pTmp = USBFS_GetConfigTablePtr(USBFS_configuration - 1u);
 742              		.loc 1 402 0
 743 0014 40F20003 		movw	r3, #:lower16:USBFS_configuration
 744 0018 C0F20003 		movt	r3, #:upper16:USBFS_configuration
 745 001c 1B78     		ldrb	r3, [r3, #0]
 746 001e DBB2     		uxtb	r3, r3
 747 0020 03F1FF33 		add	r3, r3, #-1
 748 0024 DBB2     		uxtb	r3, r3
 749 0026 1846     		mov	r0, r3
 750 0028 FFF7FEFF 		bl	USBFS_GetConfigTablePtr
 751 002c 0346     		mov	r3, r0
 752 002e 7B60     		str	r3, [r7, #4]
 403:.\Generated_Source\PSoC5/USBFS_hid.c ****     reportType = CY_GET_REG8(USBFS_wValueHi);
 753              		.loc 1 403 0
 754 0030 46F20303 		movw	r3, #:lower16:1073766403
 755 0034 C4F20003 		movt	r3, #:upper16:1073766403
 756 0038 1B78     		ldrb	r3, [r3, #0]
 757 003a FB73     		strb	r3, [r7, #15]
 404:.\Generated_Source\PSoC5/USBFS_hid.c ****     interfaceN = CY_GET_REG8(USBFS_wIndexLo);
 758              		.loc 1 404 0
 759 003c 46F20403 		movw	r3, #:lower16:1073766404
 760 0040 C4F20003 		movt	r3, #:upper16:1073766404
 761 0044 1B78     		ldrb	r3, [r3, #0]
 762 0046 BB73     		strb	r3, [r7, #14]
 405:.\Generated_Source\PSoC5/USBFS_hid.c ****     /* Third entry in the LUT COnfiguration Table starts the Interface Table pointers */
 406:.\Generated_Source\PSoC5/USBFS_hid.c ****     pTmp += 2;
 763              		.loc 1 406 0
 764 0048 7B68     		ldr	r3, [r7, #4]
 765 004a 03F11003 		add	r3, r3, #16
 766 004e 7B60     		str	r3, [r7, #4]
 407:.\Generated_Source\PSoC5/USBFS_hid.c ****     /* Now use the request interface number */
 408:.\Generated_Source\PSoC5/USBFS_hid.c ****     pTmp = &pTmp[interfaceN];
 767              		.loc 1 408 0
 768 0050 BB7B     		ldrb	r3, [r7, #14]	@ zero_extendqisi2
 769 0052 4FEAC303 		lsl	r3, r3, #3
 770 0056 7A68     		ldr	r2, [r7, #4]
 771 0058 1344     		add	r3, r2, r3
 772 005a 7B60     		str	r3, [r7, #4]
 409:.\Generated_Source\PSoC5/USBFS_hid.c ****     /*USB_DEVICEx_CONFIGURATIONy_INTERFACEz_TABLE*/
 410:.\Generated_Source\PSoC5/USBFS_hid.c ****     pTmp = (T_USBFS_LUT *) pTmp->p_list;
 773              		.loc 1 410 0
 774 005c 7B68     		ldr	r3, [r7, #4]
 775 005e 5B68     		ldr	r3, [r3, #4]
 776 0060 7B60     		str	r3, [r7, #4]
 411:.\Generated_Source\PSoC5/USBFS_hid.c ****     if(interfaceN < USBFS_MAX_INTERFACES_NUMBER)
 777              		.loc 1 411 0
 778 0062 BB7B     		ldrb	r3, [r7, #14]	@ zero_extendqisi2
 779 0064 032B     		cmp	r3, #3
 780 0066 49D8     		bhi	.L47
 412:.\Generated_Source\PSoC5/USBFS_hid.c ****     {
 413:.\Generated_Source\PSoC5/USBFS_hid.c ****         /* Now use Alternate setting number */
ARM GAS  C:\DOCUME~1\ADMINI~1\LOCALS~1\Temp\ccIflNry.s 			page 22


 414:.\Generated_Source\PSoC5/USBFS_hid.c ****         pTmp = &pTmp[USBFS_interfaceSetting[interfaceN]];
 781              		.loc 1 414 0
 782 0068 BA7B     		ldrb	r2, [r7, #14]	@ zero_extendqisi2
 783 006a 40F20003 		movw	r3, #:lower16:USBFS_interfaceSetting
 784 006e C0F20003 		movt	r3, #:upper16:USBFS_interfaceSetting
 785 0072 9B5C     		ldrb	r3, [r3, r2]
 786 0074 DBB2     		uxtb	r3, r3
 787 0076 4FEAC303 		lsl	r3, r3, #3
 788 007a 7A68     		ldr	r2, [r7, #4]
 789 007c 1344     		add	r3, r2, r3
 790 007e 7B60     		str	r3, [r7, #4]
 415:.\Generated_Source\PSoC5/USBFS_hid.c ****         /*USB_DEVICEx_CONFIGURATIONy_INTERFACEz_ALTERNATEi_HID_TABLE*/
 416:.\Generated_Source\PSoC5/USBFS_hid.c ****         pTmp = (T_USBFS_LUT *) pTmp->p_list;
 791              		.loc 1 416 0
 792 0080 7B68     		ldr	r3, [r7, #4]
 793 0082 5B68     		ldr	r3, [r3, #4]
 794 0084 7B60     		str	r3, [r7, #4]
 417:.\Generated_Source\PSoC5/USBFS_hid.c ****         /* Validate reportType to comply with "7.2.1 Get_Report Request" */
 418:.\Generated_Source\PSoC5/USBFS_hid.c ****         if((reportType >= USBFS_HID_GET_REPORT_INPUT) &&
 795              		.loc 1 418 0
 796 0086 FB7B     		ldrb	r3, [r7, #15]	@ zero_extendqisi2
 797 0088 002B     		cmp	r3, #0
 798 008a 37D0     		beq	.L47
 799 008c FB7B     		ldrb	r3, [r7, #15]	@ zero_extendqisi2
 800 008e 032B     		cmp	r3, #3
 801 0090 34D8     		bhi	.L47
 419:.\Generated_Source\PSoC5/USBFS_hid.c ****            (reportType <= USBFS_HID_GET_REPORT_FEATURE))
 420:.\Generated_Source\PSoC5/USBFS_hid.c ****         {
 421:.\Generated_Source\PSoC5/USBFS_hid.c ****             /* Get the entry proper TD (IN, OUT or Feature Report Table)*/
 422:.\Generated_Source\PSoC5/USBFS_hid.c ****             pTmp = &pTmp[reportType - 1u];
 802              		.loc 1 422 0
 803 0092 FB7B     		ldrb	r3, [r7, #15]	@ zero_extendqisi2
 804 0094 03F1FF33 		add	r3, r3, #-1
 805 0098 4FEAC303 		lsl	r3, r3, #3
 806 009c 7A68     		ldr	r2, [r7, #4]
 807 009e 1344     		add	r3, r2, r3
 808 00a0 7B60     		str	r3, [r7, #4]
 423:.\Generated_Source\PSoC5/USBFS_hid.c ****             reportType = CY_GET_REG8(USBFS_wValueLo);    /* Get reportID */
 809              		.loc 1 423 0
 810 00a2 46F20203 		movw	r3, #:lower16:1073766402
 811 00a6 C4F20003 		movt	r3, #:upper16:1073766402
 812 00aa 1B78     		ldrb	r3, [r3, #0]
 813 00ac FB73     		strb	r3, [r7, #15]
 424:.\Generated_Source\PSoC5/USBFS_hid.c ****             /* Validate table support by the HID descriptor, compare table count with reportID */
 425:.\Generated_Source\PSoC5/USBFS_hid.c ****             if(pTmp->c >= reportType)
 814              		.loc 1 425 0
 815 00ae 7B68     		ldr	r3, [r7, #4]
 816 00b0 1B78     		ldrb	r3, [r3, #0]	@ zero_extendqisi2
 817 00b2 FA7B     		ldrb	r2, [r7, #15]	@ zero_extendqisi2
 818 00b4 9A42     		cmp	r2, r3
 819 00b6 21D8     		bhi	.L47
 426:.\Generated_Source\PSoC5/USBFS_hid.c ****             {
 427:.\Generated_Source\PSoC5/USBFS_hid.c ****                 pTD = (T_USBFS_TD *) pTmp->p_list;
 820              		.loc 1 427 0
 821 00b8 7B68     		ldr	r3, [r7, #4]
 822 00ba 5B68     		ldr	r3, [r3, #4]
 823 00bc BB60     		str	r3, [r7, #8]
ARM GAS  C:\DOCUME~1\ADMINI~1\LOCALS~1\Temp\ccIflNry.s 			page 23


 428:.\Generated_Source\PSoC5/USBFS_hid.c ****                 pTD = &pTD[reportType];                          /* select entry depend on report I
 824              		.loc 1 428 0
 825 00be FA7B     		ldrb	r2, [r7, #15]	@ zero_extendqisi2
 826 00c0 1346     		mov	r3, r2
 827 00c2 4FEA4303 		lsl	r3, r3, #1
 828 00c6 1344     		add	r3, r3, r2
 829 00c8 4FEA8303 		lsl	r3, r3, #2
 830 00cc BA68     		ldr	r2, [r7, #8]
 831 00ce 1344     		add	r3, r2, r3
 832 00d0 BB60     		str	r3, [r7, #8]
 429:.\Generated_Source\PSoC5/USBFS_hid.c ****                 USBFS_currentTD.pData = pTD->pData;   /* Bufer pointer */
 833              		.loc 1 429 0
 834 00d2 BB68     		ldr	r3, [r7, #8]
 835 00d4 5A68     		ldr	r2, [r3, #4]
 836 00d6 40F20003 		movw	r3, #:lower16:USBFS_currentTD
 837 00da C0F20003 		movt	r3, #:upper16:USBFS_currentTD
 838 00de 5A60     		str	r2, [r3, #4]
 430:.\Generated_Source\PSoC5/USBFS_hid.c ****                 USBFS_currentTD.count = pTD->count;   /* Bufer Size */
 839              		.loc 1 430 0
 840 00e0 BB68     		ldr	r3, [r7, #8]
 841 00e2 1A88     		ldrh	r2, [r3, #0]
 842 00e4 40F20003 		movw	r3, #:lower16:USBFS_currentTD
 843 00e8 C0F20003 		movt	r3, #:upper16:USBFS_currentTD
 844 00ec 1A80     		strh	r2, [r3, #0]	@ movhi
 431:.\Generated_Source\PSoC5/USBFS_hid.c ****                 USBFS_currentTD.pStatusBlock = pTD->pStatusBlock;
 845              		.loc 1 431 0
 846 00ee BB68     		ldr	r3, [r7, #8]
 847 00f0 9A68     		ldr	r2, [r3, #8]
 848 00f2 40F20003 		movw	r3, #:lower16:USBFS_currentTD
 849 00f6 C0F20003 		movt	r3, #:upper16:USBFS_currentTD
 850 00fa 9A60     		str	r2, [r3, #8]
 851              	.L47:
 432:.\Generated_Source\PSoC5/USBFS_hid.c ****             }
 433:.\Generated_Source\PSoC5/USBFS_hid.c ****         }
 434:.\Generated_Source\PSoC5/USBFS_hid.c ****     }
 435:.\Generated_Source\PSoC5/USBFS_hid.c **** }
 852              		.loc 1 435 0
 853 00fc 07F11007 		add	r7, r7, #16
 854 0100 BD46     		mov	sp, r7
 855 0102 80BD     		pop	{r7, pc}
 856              		.cfi_endproc
 857              	.LFE5:
 858              		.size	USBFS_FindReport, .-USBFS_FindReport
 859              		.text
 860              	.Letext0:
 861              		.section	.debug_loc,"",%progbits
 862              	.Ldebug_loc0:
 863              	.LLST0:
 864 0000 00000000 		.4byte	.LFB0
 865 0004 02000000 		.4byte	.LCFI0
 866 0008 0100     		.2byte	0x1
 867 000a 5D       		.byte	0x5d
 868 000b 02000000 		.4byte	.LCFI0
 869 000f 04000000 		.4byte	.LCFI1
 870 0013 0200     		.2byte	0x2
 871 0015 7D       		.byte	0x7d
 872 0016 04       		.sleb128 4
ARM GAS  C:\DOCUME~1\ADMINI~1\LOCALS~1\Temp\ccIflNry.s 			page 24


 873 0017 04000000 		.4byte	.LCFI1
 874 001b 06000000 		.4byte	.LCFI2
 875 001f 0200     		.2byte	0x2
 876 0021 7D       		.byte	0x7d
 877 0022 18       		.sleb128 24
 878 0023 06000000 		.4byte	.LCFI2
 879 0027 88000000 		.4byte	.LFE0
 880 002b 0200     		.2byte	0x2
 881 002d 77       		.byte	0x77
 882 002e 18       		.sleb128 24
 883 002f 00000000 		.4byte	0x0
 884 0033 00000000 		.4byte	0x0
 885              	.LLST1:
 886 0037 00000000 		.4byte	.LFB1
 887 003b 02000000 		.4byte	.LCFI3
 888 003f 0100     		.2byte	0x1
 889 0041 5D       		.byte	0x5d
 890 0042 02000000 		.4byte	.LCFI3
 891 0046 04000000 		.4byte	.LCFI4
 892 004a 0200     		.2byte	0x2
 893 004c 7D       		.byte	0x7d
 894 004d 04       		.sleb128 4
 895 004e 04000000 		.4byte	.LCFI4
 896 0052 06000000 		.4byte	.LCFI5
 897 0056 0200     		.2byte	0x2
 898 0058 7D       		.byte	0x7d
 899 0059 10       		.sleb128 16
 900 005a 06000000 		.4byte	.LCFI5
 901 005e 24000000 		.4byte	.LFE1
 902 0062 0200     		.2byte	0x2
 903 0064 77       		.byte	0x77
 904 0065 10       		.sleb128 16
 905 0066 00000000 		.4byte	0x0
 906 006a 00000000 		.4byte	0x0
 907              	.LLST2:
 908 006e 00000000 		.4byte	.LFB2
 909 0072 02000000 		.4byte	.LCFI6
 910 0076 0100     		.2byte	0x1
 911 0078 5D       		.byte	0x5d
 912 0079 02000000 		.4byte	.LCFI6
 913 007d 04000000 		.4byte	.LCFI7
 914 0081 0200     		.2byte	0x2
 915 0083 7D       		.byte	0x7d
 916 0084 08       		.sleb128 8
 917 0085 04000000 		.4byte	.LCFI7
 918 0089 06000000 		.4byte	.LCFI8
 919 008d 0200     		.2byte	0x2
 920 008f 7D       		.byte	0x7d
 921 0090 10       		.sleb128 16
 922 0091 06000000 		.4byte	.LCFI8
 923 0095 B6020000 		.4byte	.LFE2
 924 0099 0200     		.2byte	0x2
 925 009b 77       		.byte	0x77
 926 009c 10       		.sleb128 16
 927 009d 00000000 		.4byte	0x0
 928 00a1 00000000 		.4byte	0x0
 929              	.LLST3:
ARM GAS  C:\DOCUME~1\ADMINI~1\LOCALS~1\Temp\ccIflNry.s 			page 25


 930 00a5 00000000 		.4byte	.LFB3
 931 00a9 02000000 		.4byte	.LCFI9
 932 00ad 0100     		.2byte	0x1
 933 00af 5D       		.byte	0x5d
 934 00b0 02000000 		.4byte	.LCFI9
 935 00b4 04000000 		.4byte	.LCFI10
 936 00b8 0200     		.2byte	0x2
 937 00ba 7D       		.byte	0x7d
 938 00bb 08       		.sleb128 8
 939 00bc 04000000 		.4byte	.LCFI10
 940 00c0 06000000 		.4byte	.LCFI11
 941 00c4 0200     		.2byte	0x2
 942 00c6 7D       		.byte	0x7d
 943 00c7 18       		.sleb128 24
 944 00c8 06000000 		.4byte	.LCFI11
 945 00cc 9A000000 		.4byte	.LFE3
 946 00d0 0200     		.2byte	0x2
 947 00d2 77       		.byte	0x77
 948 00d3 18       		.sleb128 24
 949 00d4 00000000 		.4byte	0x0
 950 00d8 00000000 		.4byte	0x0
 951              	.LLST4:
 952 00dc 00000000 		.4byte	.LFB4
 953 00e0 02000000 		.4byte	.LCFI12
 954 00e4 0100     		.2byte	0x1
 955 00e6 5D       		.byte	0x5d
 956 00e7 02000000 		.4byte	.LCFI12
 957 00eb 04000000 		.4byte	.LCFI13
 958 00ef 0200     		.2byte	0x2
 959 00f1 7D       		.byte	0x7d
 960 00f2 08       		.sleb128 8
 961 00f3 04000000 		.4byte	.LCFI13
 962 00f7 06000000 		.4byte	.LCFI14
 963 00fb 0200     		.2byte	0x2
 964 00fd 7D       		.byte	0x7d
 965 00fe 18       		.sleb128 24
 966 00ff 06000000 		.4byte	.LCFI14
 967 0103 B4000000 		.4byte	.LFE4
 968 0107 0200     		.2byte	0x2
 969 0109 77       		.byte	0x77
 970 010a 18       		.sleb128 24
 971 010b 00000000 		.4byte	0x0
 972 010f 00000000 		.4byte	0x0
 973              	.LLST5:
 974 0113 00000000 		.4byte	.LFB5
 975 0117 02000000 		.4byte	.LCFI15
 976 011b 0100     		.2byte	0x1
 977 011d 5D       		.byte	0x5d
 978 011e 02000000 		.4byte	.LCFI15
 979 0122 04000000 		.4byte	.LCFI16
 980 0126 0200     		.2byte	0x2
 981 0128 7D       		.byte	0x7d
 982 0129 08       		.sleb128 8
 983 012a 04000000 		.4byte	.LCFI16
 984 012e 06000000 		.4byte	.LCFI17
 985 0132 0200     		.2byte	0x2
 986 0134 7D       		.byte	0x7d
ARM GAS  C:\DOCUME~1\ADMINI~1\LOCALS~1\Temp\ccIflNry.s 			page 26


 987 0135 18       		.sleb128 24
 988 0136 06000000 		.4byte	.LCFI17
 989 013a 04010000 		.4byte	.LFE5
 990 013e 0200     		.2byte	0x2
 991 0140 77       		.byte	0x77
 992 0141 18       		.sleb128 24
 993 0142 00000000 		.4byte	0x0
 994 0146 00000000 		.4byte	0x0
 995              		.file 2 ".\\Generated_Source\\PSoC5\\/cytypes.h"
 996              		.file 3 ".\\Generated_Source\\PSoC5\\/USBFS.h"
 997              		.section	.debug_info
 998 0000 78030000 		.4byte	0x378
 999 0004 0200     		.2byte	0x2
 1000 0006 00000000 		.4byte	.Ldebug_abbrev0
 1001 000a 04       		.byte	0x4
 1002 000b 01       		.uleb128 0x1
 1003 000c E6010000 		.4byte	.LASF45
 1004 0010 01       		.byte	0x1
 1005 0011 1B000000 		.4byte	.LASF46
 1006 0015 58020000 		.4byte	.LASF47
 1007 0019 00000000 		.4byte	0x0
 1008 001d 00000000 		.4byte	0x0
 1009 0021 00000000 		.4byte	.Ldebug_ranges0+0x0
 1010 0025 00000000 		.4byte	.Ldebug_line0
 1011 0029 02       		.uleb128 0x2
 1012 002a 01       		.byte	0x1
 1013 002b 06       		.byte	0x6
 1014 002c 4C020000 		.4byte	.LASF0
 1015 0030 02       		.uleb128 0x2
 1016 0031 01       		.byte	0x1
 1017 0032 08       		.byte	0x8
 1018 0033 E7000000 		.4byte	.LASF1
 1019 0037 02       		.uleb128 0x2
 1020 0038 02       		.byte	0x2
 1021 0039 05       		.byte	0x5
 1022 003a 66010000 		.4byte	.LASF2
 1023 003e 02       		.uleb128 0x2
 1024 003f 02       		.byte	0x2
 1025 0040 07       		.byte	0x7
 1026 0041 70000000 		.4byte	.LASF3
 1027 0045 02       		.uleb128 0x2
 1028 0046 04       		.byte	0x4
 1029 0047 05       		.byte	0x5
 1030 0048 39020000 		.4byte	.LASF4
 1031 004c 02       		.uleb128 0x2
 1032 004d 04       		.byte	0x4
 1033 004e 07       		.byte	0x7
 1034 004f 26010000 		.4byte	.LASF5
 1035 0053 02       		.uleb128 0x2
 1036 0054 08       		.byte	0x8
 1037 0055 05       		.byte	0x5
 1038 0056 00000000 		.4byte	.LASF6
 1039 005a 02       		.uleb128 0x2
 1040 005b 08       		.byte	0x8
 1041 005c 07       		.byte	0x7
 1042 005d A6010000 		.4byte	.LASF7
 1043 0061 03       		.uleb128 0x3
ARM GAS  C:\DOCUME~1\ADMINI~1\LOCALS~1\Temp\ccIflNry.s 			page 27


 1044 0062 04       		.byte	0x4
 1045 0063 05       		.byte	0x5
 1046 0064 696E7400 		.ascii	"int\000"
 1047 0068 02       		.uleb128 0x2
 1048 0069 04       		.byte	0x4
 1049 006a 07       		.byte	0x7
 1050 006b 7E010000 		.4byte	.LASF8
 1051 006f 04       		.uleb128 0x4
 1052 0070 38010000 		.4byte	.LASF9
 1053 0074 02       		.byte	0x2
 1054 0075 4C       		.byte	0x4c
 1055 0076 30000000 		.4byte	0x30
 1056 007a 04       		.uleb128 0x4
 1057 007b 70010000 		.4byte	.LASF10
 1058 007f 02       		.byte	0x2
 1059 0080 4D       		.byte	0x4d
 1060 0081 3E000000 		.4byte	0x3e
 1061 0085 02       		.uleb128 0x2
 1062 0086 04       		.byte	0x4
 1063 0087 04       		.byte	0x4
 1064 0088 C2000000 		.4byte	.LASF11
 1065 008c 02       		.uleb128 0x2
 1066 008d 08       		.byte	0x8
 1067 008e 04       		.byte	0x4
 1068 008f 5F010000 		.4byte	.LASF12
 1069 0093 02       		.uleb128 0x2
 1070 0094 01       		.byte	0x1
 1071 0095 08       		.byte	0x8
 1072 0096 FE010000 		.4byte	.LASF13
 1073 009a 05       		.uleb128 0x5
 1074 009b 6F000000 		.4byte	0x6f
 1075 009f 06       		.uleb128 0x6
 1076 00a0 04       		.byte	0x4
 1077 00a1 07       		.byte	0x7
 1078 00a2 07       		.uleb128 0x7
 1079 00a3 04       		.byte	0x4
 1080 00a4 08       		.uleb128 0x8
 1081 00a5 F5000000 		.4byte	.LASF17
 1082 00a9 04       		.byte	0x4
 1083 00aa 03       		.byte	0x3
 1084 00ab 92       		.byte	0x92
 1085 00ac CD000000 		.4byte	0xcd
 1086 00b0 09       		.uleb128 0x9
 1087 00b1 8E000000 		.4byte	.LASF14
 1088 00b5 03       		.byte	0x3
 1089 00b6 93       		.byte	0x93
 1090 00b7 6F000000 		.4byte	0x6f
 1091 00bb 02       		.byte	0x2
 1092 00bc 23       		.byte	0x23
 1093 00bd 00       		.uleb128 0x0
 1094 00be 09       		.uleb128 0x9
 1095 00bf BB020000 		.4byte	.LASF15
 1096 00c3 03       		.byte	0x3
 1097 00c4 94       		.byte	0x94
 1098 00c5 7A000000 		.4byte	0x7a
 1099 00c9 02       		.byte	0x2
 1100 00ca 23       		.byte	0x23
ARM GAS  C:\DOCUME~1\ADMINI~1\LOCALS~1\Temp\ccIflNry.s 			page 28


 1101 00cb 02       		.uleb128 0x2
 1102 00cc 00       		.byte	0x0
 1103 00cd 04       		.uleb128 0x4
 1104 00ce 0C010000 		.4byte	.LASF16
 1105 00d2 03       		.byte	0x3
 1106 00d3 95       		.byte	0x95
 1107 00d4 A4000000 		.4byte	0xa4
 1108 00d8 08       		.uleb128 0x8
 1109 00d9 42020000 		.4byte	.LASF18
 1110 00dd 0C       		.byte	0xc
 1111 00de 03       		.byte	0x3
 1112 00df 98       		.byte	0x98
 1113 00e0 0F010000 		.4byte	0x10f
 1114 00e4 09       		.uleb128 0x9
 1115 00e5 4F000000 		.4byte	.LASF19
 1116 00e9 03       		.byte	0x3
 1117 00ea 99       		.byte	0x99
 1118 00eb 7A000000 		.4byte	0x7a
 1119 00ef 02       		.byte	0x2
 1120 00f0 23       		.byte	0x23
 1121 00f1 00       		.uleb128 0x0
 1122 00f2 09       		.uleb128 0x9
 1123 00f3 95000000 		.4byte	.LASF20
 1124 00f7 03       		.byte	0x3
 1125 00f8 9A       		.byte	0x9a
 1126 00f9 0F010000 		.4byte	0x10f
 1127 00fd 02       		.byte	0x2
 1128 00fe 23       		.byte	0x23
 1129 00ff 04       		.uleb128 0x4
 1130 0100 09       		.uleb128 0x9
 1131 0101 0E000000 		.4byte	.LASF21
 1132 0105 03       		.byte	0x3
 1133 0106 9B       		.byte	0x9b
 1134 0107 15010000 		.4byte	0x115
 1135 010b 02       		.byte	0x2
 1136 010c 23       		.byte	0x23
 1137 010d 08       		.uleb128 0x8
 1138 010e 00       		.byte	0x0
 1139 010f 0A       		.uleb128 0xa
 1140 0110 04       		.byte	0x4
 1141 0111 9A000000 		.4byte	0x9a
 1142 0115 0A       		.uleb128 0xa
 1143 0116 04       		.byte	0x4
 1144 0117 CD000000 		.4byte	0xcd
 1145 011b 04       		.uleb128 0x4
 1146 011c B7000000 		.4byte	.LASF22
 1147 0120 03       		.byte	0x3
 1148 0121 9C       		.byte	0x9c
 1149 0122 D8000000 		.4byte	0xd8
 1150 0126 08       		.uleb128 0x8
 1151 0127 C2020000 		.4byte	.LASF23
 1152 012b 08       		.byte	0x8
 1153 012c 03       		.byte	0x3
 1154 012d 9F       		.byte	0x9f
 1155 012e 4D010000 		.4byte	0x14d
 1156 0132 0B       		.uleb128 0xb
 1157 0133 6300     		.ascii	"c\000"
ARM GAS  C:\DOCUME~1\ADMINI~1\LOCALS~1\Temp\ccIflNry.s 			page 29


 1158 0135 03       		.byte	0x3
 1159 0136 A0       		.byte	0xa0
 1160 0137 6F000000 		.4byte	0x6f
 1161 013b 02       		.byte	0x2
 1162 013c 23       		.byte	0x23
 1163 013d 00       		.uleb128 0x0
 1164 013e 09       		.uleb128 0x9
 1165 013f BD010000 		.4byte	.LASF24
 1166 0143 03       		.byte	0x3
 1167 0144 A1       		.byte	0xa1
 1168 0145 A2000000 		.4byte	0xa2
 1169 0149 02       		.byte	0x2
 1170 014a 23       		.byte	0x23
 1171 014b 04       		.uleb128 0x4
 1172 014c 00       		.byte	0x0
 1173 014d 04       		.uleb128 0x4
 1174 014e F2010000 		.4byte	.LASF25
 1175 0152 03       		.byte	0x3
 1176 0153 A2       		.byte	0xa2
 1177 0154 26010000 		.4byte	0x126
 1178 0158 0C       		.uleb128 0xc
 1179 0159 01       		.byte	0x1
 1180 015a 1A020000 		.4byte	.LASF26
 1181 015e 01       		.byte	0x1
 1182 015f 56       		.byte	0x56
 1183 0160 01       		.byte	0x1
 1184 0161 6F000000 		.4byte	0x6f
 1185 0165 00000000 		.4byte	.LFB0
 1186 0169 88000000 		.4byte	.LFE0
 1187 016d 00000000 		.4byte	.LLST0
 1188 0171 92010000 		.4byte	0x192
 1189 0175 0D       		.uleb128 0xd
 1190 0176 2F020000 		.4byte	.LASF28
 1191 017a 01       		.byte	0x1
 1192 017b 56       		.byte	0x56
 1193 017c 6F000000 		.4byte	0x6f
 1194 0180 02       		.byte	0x2
 1195 0181 91       		.byte	0x91
 1196 0182 6F       		.sleb128 -17
 1197 0183 0E       		.uleb128 0xe
 1198 0184 8E000000 		.4byte	.LASF14
 1199 0188 01       		.byte	0x1
 1200 0189 58       		.byte	0x58
 1201 018a 6F000000 		.4byte	0x6f
 1202 018e 02       		.byte	0x2
 1203 018f 91       		.byte	0x91
 1204 0190 77       		.sleb128 -9
 1205 0191 00       		.byte	0x0
 1206 0192 0C       		.uleb128 0xc
 1207 0193 01       		.byte	0x1
 1208 0194 D4010000 		.4byte	.LASF27
 1209 0198 01       		.byte	0x1
 1210 0199 7A       		.byte	0x7a
 1211 019a 01       		.byte	0x1
 1212 019b 6F000000 		.4byte	0x6f
 1213 019f 00000000 		.4byte	.LFB1
 1214 01a3 24000000 		.4byte	.LFE1
ARM GAS  C:\DOCUME~1\ADMINI~1\LOCALS~1\Temp\ccIflNry.s 			page 30


 1215 01a7 37000000 		.4byte	.LLST1
 1216 01ab BE010000 		.4byte	0x1be
 1217 01af 0D       		.uleb128 0xd
 1218 01b0 2F020000 		.4byte	.LASF28
 1219 01b4 01       		.byte	0x1
 1220 01b5 7A       		.byte	0x7a
 1221 01b6 6F000000 		.4byte	0x6f
 1222 01ba 02       		.byte	0x2
 1223 01bb 91       		.byte	0x91
 1224 01bc 77       		.sleb128 -9
 1225 01bd 00       		.byte	0x0
 1226 01be 0F       		.uleb128 0xf
 1227 01bf 01       		.byte	0x1
 1228 01c0 8B010000 		.4byte	.LASF31
 1229 01c4 01       		.byte	0x1
 1230 01c5 91       		.byte	0x91
 1231 01c6 6F000000 		.4byte	0x6f
 1232 01ca 00000000 		.4byte	.LFB2
 1233 01ce B6020000 		.4byte	.LFE2
 1234 01d2 6E000000 		.4byte	.LLST2
 1235 01d6 F7010000 		.4byte	0x1f7
 1236 01da 0E       		.uleb128 0xe
 1237 01db 40000000 		.4byte	.LASF29
 1238 01df 01       		.byte	0x1
 1239 01e0 93       		.byte	0x93
 1240 01e1 6F000000 		.4byte	0x6f
 1241 01e5 02       		.byte	0x2
 1242 01e6 91       		.byte	0x91
 1243 01e7 76       		.sleb128 -10
 1244 01e8 0E       		.uleb128 0xe
 1245 01e9 3E010000 		.4byte	.LASF30
 1246 01ed 01       		.byte	0x1
 1247 01ee 94       		.byte	0x94
 1248 01ef 6F000000 		.4byte	0x6f
 1249 01f3 02       		.byte	0x2
 1250 01f4 91       		.byte	0x91
 1251 01f5 77       		.sleb128 -9
 1252 01f6 00       		.byte	0x0
 1253 01f7 10       		.uleb128 0x10
 1254 01f8 01       		.byte	0x1
 1255 01f9 9B000000 		.4byte	.LASF32
 1256 01fd 01       		.byte	0x1
 1257 01fe 2B01     		.2byte	0x12b
 1258 0200 01       		.byte	0x1
 1259 0201 00000000 		.4byte	.LFB3
 1260 0205 9A000000 		.4byte	.LFE3
 1261 0209 A5000000 		.4byte	.LLST3
 1262 020d 3F020000 		.4byte	0x23f
 1263 0211 11       		.uleb128 0x11
 1264 0212 03020000 		.4byte	.LASF33
 1265 0216 01       		.byte	0x1
 1266 0217 2D01     		.2byte	0x12d
 1267 0219 3F020000 		.4byte	0x23f
 1268 021d 02       		.byte	0x2
 1269 021e 91       		.byte	0x91
 1270 021f 6C       		.sleb128 -20
 1271 0220 11       		.uleb128 0x11
ARM GAS  C:\DOCUME~1\ADMINI~1\LOCALS~1\Temp\ccIflNry.s 			page 31


 1272 0221 77010000 		.4byte	.LASF34
 1273 0225 01       		.byte	0x1
 1274 0226 2E01     		.2byte	0x12e
 1275 0228 0F010000 		.4byte	0x10f
 1276 022c 02       		.byte	0x2
 1277 022d 91       		.byte	0x91
 1278 022e 70       		.sleb128 -16
 1279 022f 11       		.uleb128 0x11
 1280 0230 83000000 		.4byte	.LASF35
 1281 0234 01       		.byte	0x1
 1282 0235 2F01     		.2byte	0x12f
 1283 0237 6F000000 		.4byte	0x6f
 1284 023b 02       		.byte	0x2
 1285 023c 91       		.byte	0x91
 1286 023d 77       		.sleb128 -9
 1287 023e 00       		.byte	0x0
 1288 023f 0A       		.uleb128 0xa
 1289 0240 04       		.byte	0x4
 1290 0241 4D010000 		.4byte	0x14d
 1291 0245 10       		.uleb128 0x10
 1292 0246 01       		.byte	0x1
 1293 0247 55000000 		.4byte	.LASF36
 1294 024b 01       		.byte	0x1
 1295 024c 5901     		.2byte	0x159
 1296 024e 01       		.byte	0x1
 1297 024f 00000000 		.4byte	.LFB4
 1298 0253 B4000000 		.4byte	.LFE4
 1299 0257 DC000000 		.4byte	.LLST4
 1300 025b 8D020000 		.4byte	0x28d
 1301 025f 11       		.uleb128 0x11
 1302 0260 03020000 		.4byte	.LASF33
 1303 0264 01       		.byte	0x1
 1304 0265 5B01     		.2byte	0x15b
 1305 0267 3F020000 		.4byte	0x23f
 1306 026b 02       		.byte	0x2
 1307 026c 91       		.byte	0x91
 1308 026d 6C       		.sleb128 -20
 1309 026e 11       		.uleb128 0x11
 1310 026f 77010000 		.4byte	.LASF34
 1311 0273 01       		.byte	0x1
 1312 0274 5C01     		.2byte	0x15c
 1313 0276 0F010000 		.4byte	0x10f
 1314 027a 02       		.byte	0x2
 1315 027b 91       		.byte	0x91
 1316 027c 70       		.sleb128 -16
 1317 027d 11       		.uleb128 0x11
 1318 027e 83000000 		.4byte	.LASF35
 1319 0282 01       		.byte	0x1
 1320 0283 5D01     		.2byte	0x15d
 1321 0285 6F000000 		.4byte	0x6f
 1322 0289 02       		.byte	0x2
 1323 028a 91       		.byte	0x91
 1324 028b 77       		.sleb128 -9
 1325 028c 00       		.byte	0x0
 1326 028d 10       		.uleb128 0x10
 1327 028e 01       		.byte	0x1
 1328 028f 4E010000 		.4byte	.LASF37
ARM GAS  C:\DOCUME~1\ADMINI~1\LOCALS~1\Temp\ccIflNry.s 			page 32


 1329 0293 01       		.byte	0x1
 1330 0294 8701     		.2byte	0x187
 1331 0296 01       		.byte	0x1
 1332 0297 00000000 		.4byte	.LFB5
 1333 029b 04010000 		.4byte	.LFE5
 1334 029f 13010000 		.4byte	.LLST5
 1335 02a3 E4020000 		.4byte	0x2e4
 1336 02a7 11       		.uleb128 0x11
 1337 02a8 03020000 		.4byte	.LASF33
 1338 02ac 01       		.byte	0x1
 1339 02ad 8901     		.2byte	0x189
 1340 02af 3F020000 		.4byte	0x23f
 1341 02b3 02       		.byte	0x2
 1342 02b4 91       		.byte	0x91
 1343 02b5 6C       		.sleb128 -20
 1344 02b6 12       		.uleb128 0x12
 1345 02b7 70544400 		.ascii	"pTD\000"
 1346 02bb 01       		.byte	0x1
 1347 02bc 8A01     		.2byte	0x18a
 1348 02be E4020000 		.4byte	0x2e4
 1349 02c2 02       		.byte	0x2
 1350 02c3 91       		.byte	0x91
 1351 02c4 70       		.sleb128 -16
 1352 02c5 11       		.uleb128 0x11
 1353 02c6 83000000 		.4byte	.LASF35
 1354 02ca 01       		.byte	0x1
 1355 02cb 8B01     		.2byte	0x18b
 1356 02cd 6F000000 		.4byte	0x6f
 1357 02d1 02       		.byte	0x2
 1358 02d2 91       		.byte	0x91
 1359 02d3 76       		.sleb128 -10
 1360 02d4 11       		.uleb128 0x11
 1361 02d5 C8000000 		.4byte	.LASF38
 1362 02d9 01       		.byte	0x1
 1363 02da 8C01     		.2byte	0x18c
 1364 02dc 6F000000 		.4byte	0x6f
 1365 02e0 02       		.byte	0x2
 1366 02e1 91       		.byte	0x91
 1367 02e2 77       		.sleb128 -9
 1368 02e3 00       		.byte	0x0
 1369 02e4 0A       		.uleb128 0xa
 1370 02e5 04       		.byte	0x4
 1371 02e6 1B010000 		.4byte	0x11b
 1372 02ea 13       		.uleb128 0x13
 1373 02eb 6F000000 		.4byte	0x6f
 1374 02ef FA020000 		.4byte	0x2fa
 1375 02f3 14       		.uleb128 0x14
 1376 02f4 9F000000 		.4byte	0x9f
 1377 02f8 03       		.byte	0x3
 1378 02f9 00       		.byte	0x0
 1379 02fa 15       		.uleb128 0x15
 1380 02fb 08020000 		.4byte	.LASF39
 1381 02ff 01       		.byte	0x1
 1382 0300 1C       		.byte	0x1c
 1383 0301 0C030000 		.4byte	0x30c
 1384 0305 01       		.byte	0x1
 1385 0306 05       		.byte	0x5
ARM GAS  C:\DOCUME~1\ADMINI~1\LOCALS~1\Temp\ccIflNry.s 			page 33


 1386 0307 03       		.byte	0x3
 1387 0308 00000000 		.4byte	USBFS_hidProtocol
 1388 030c 05       		.uleb128 0x5
 1389 030d EA020000 		.4byte	0x2ea
 1390 0311 15       		.uleb128 0x15
 1391 0312 96020000 		.4byte	.LASF40
 1392 0316 01       		.byte	0x1
 1393 0317 1D       		.byte	0x1d
 1394 0318 23030000 		.4byte	0x323
 1395 031c 01       		.byte	0x1
 1396 031d 05       		.byte	0x5
 1397 031e 03       		.byte	0x3
 1398 031f 00000000 		.4byte	USBFS_hidIdleRate
 1399 0323 05       		.uleb128 0x5
 1400 0324 EA020000 		.4byte	0x2ea
 1401 0328 15       		.uleb128 0x15
 1402 0329 A8020000 		.4byte	.LASF41
 1403 032d 01       		.byte	0x1
 1404 032e 1E       		.byte	0x1e
 1405 032f 3A030000 		.4byte	0x33a
 1406 0333 01       		.byte	0x1
 1407 0334 05       		.byte	0x5
 1408 0335 03       		.byte	0x3
 1409 0336 00000000 		.4byte	USBFS_hidIdleTimer
 1410 033a 05       		.uleb128 0x5
 1411 033b EA020000 		.4byte	0x2ea
 1412 033f 16       		.uleb128 0x16
 1413 0340 C4010000 		.4byte	.LASF42
 1414 0344 01       		.byte	0x1
 1415 0345 36       		.byte	0x36
 1416 0346 4C030000 		.4byte	0x34c
 1417 034a 01       		.byte	0x1
 1418 034b 01       		.byte	0x1
 1419 034c 05       		.uleb128 0x5
 1420 034d 1B010000 		.4byte	0x11b
 1421 0351 16       		.uleb128 0x16
 1422 0352 D3000000 		.4byte	.LASF43
 1423 0356 01       		.byte	0x1
 1424 0357 38       		.byte	0x38
 1425 0358 9A000000 		.4byte	0x9a
 1426 035c 01       		.byte	0x1
 1427 035d 01       		.byte	0x1
 1428 035e 13       		.uleb128 0x13
 1429 035f 6F000000 		.4byte	0x6f
 1430 0363 69030000 		.4byte	0x369
 1431 0367 17       		.uleb128 0x17
 1432 0368 00       		.byte	0x0
 1433 0369 16       		.uleb128 0x16
 1434 036a CD020000 		.4byte	.LASF44
 1435 036e 01       		.byte	0x1
 1436 036f 39       		.byte	0x39
 1437 0370 76030000 		.4byte	0x376
 1438 0374 01       		.byte	0x1
 1439 0375 01       		.byte	0x1
 1440 0376 05       		.uleb128 0x5
 1441 0377 5E030000 		.4byte	0x35e
 1442 037b 00       		.byte	0x0
ARM GAS  C:\DOCUME~1\ADMINI~1\LOCALS~1\Temp\ccIflNry.s 			page 34


 1443              		.section	.debug_abbrev
 1444 0000 01       		.uleb128 0x1
 1445 0001 11       		.uleb128 0x11
 1446 0002 01       		.byte	0x1
 1447 0003 25       		.uleb128 0x25
 1448 0004 0E       		.uleb128 0xe
 1449 0005 13       		.uleb128 0x13
 1450 0006 0B       		.uleb128 0xb
 1451 0007 03       		.uleb128 0x3
 1452 0008 0E       		.uleb128 0xe
 1453 0009 1B       		.uleb128 0x1b
 1454 000a 0E       		.uleb128 0xe
 1455 000b 11       		.uleb128 0x11
 1456 000c 01       		.uleb128 0x1
 1457 000d 52       		.uleb128 0x52
 1458 000e 01       		.uleb128 0x1
 1459 000f 55       		.uleb128 0x55
 1460 0010 06       		.uleb128 0x6
 1461 0011 10       		.uleb128 0x10
 1462 0012 06       		.uleb128 0x6
 1463 0013 00       		.byte	0x0
 1464 0014 00       		.byte	0x0
 1465 0015 02       		.uleb128 0x2
 1466 0016 24       		.uleb128 0x24
 1467 0017 00       		.byte	0x0
 1468 0018 0B       		.uleb128 0xb
 1469 0019 0B       		.uleb128 0xb
 1470 001a 3E       		.uleb128 0x3e
 1471 001b 0B       		.uleb128 0xb
 1472 001c 03       		.uleb128 0x3
 1473 001d 0E       		.uleb128 0xe
 1474 001e 00       		.byte	0x0
 1475 001f 00       		.byte	0x0
 1476 0020 03       		.uleb128 0x3
 1477 0021 24       		.uleb128 0x24
 1478 0022 00       		.byte	0x0
 1479 0023 0B       		.uleb128 0xb
 1480 0024 0B       		.uleb128 0xb
 1481 0025 3E       		.uleb128 0x3e
 1482 0026 0B       		.uleb128 0xb
 1483 0027 03       		.uleb128 0x3
 1484 0028 08       		.uleb128 0x8
 1485 0029 00       		.byte	0x0
 1486 002a 00       		.byte	0x0
 1487 002b 04       		.uleb128 0x4
 1488 002c 16       		.uleb128 0x16
 1489 002d 00       		.byte	0x0
 1490 002e 03       		.uleb128 0x3
 1491 002f 0E       		.uleb128 0xe
 1492 0030 3A       		.uleb128 0x3a
 1493 0031 0B       		.uleb128 0xb
 1494 0032 3B       		.uleb128 0x3b
 1495 0033 0B       		.uleb128 0xb
 1496 0034 49       		.uleb128 0x49
 1497 0035 13       		.uleb128 0x13
 1498 0036 00       		.byte	0x0
 1499 0037 00       		.byte	0x0
ARM GAS  C:\DOCUME~1\ADMINI~1\LOCALS~1\Temp\ccIflNry.s 			page 35


 1500 0038 05       		.uleb128 0x5
 1501 0039 35       		.uleb128 0x35
 1502 003a 00       		.byte	0x0
 1503 003b 49       		.uleb128 0x49
 1504 003c 13       		.uleb128 0x13
 1505 003d 00       		.byte	0x0
 1506 003e 00       		.byte	0x0
 1507 003f 06       		.uleb128 0x6
 1508 0040 24       		.uleb128 0x24
 1509 0041 00       		.byte	0x0
 1510 0042 0B       		.uleb128 0xb
 1511 0043 0B       		.uleb128 0xb
 1512 0044 3E       		.uleb128 0x3e
 1513 0045 0B       		.uleb128 0xb
 1514 0046 00       		.byte	0x0
 1515 0047 00       		.byte	0x0
 1516 0048 07       		.uleb128 0x7
 1517 0049 0F       		.uleb128 0xf
 1518 004a 00       		.byte	0x0
 1519 004b 0B       		.uleb128 0xb
 1520 004c 0B       		.uleb128 0xb
 1521 004d 00       		.byte	0x0
 1522 004e 00       		.byte	0x0
 1523 004f 08       		.uleb128 0x8
 1524 0050 13       		.uleb128 0x13
 1525 0051 01       		.byte	0x1
 1526 0052 03       		.uleb128 0x3
 1527 0053 0E       		.uleb128 0xe
 1528 0054 0B       		.uleb128 0xb
 1529 0055 0B       		.uleb128 0xb
 1530 0056 3A       		.uleb128 0x3a
 1531 0057 0B       		.uleb128 0xb
 1532 0058 3B       		.uleb128 0x3b
 1533 0059 0B       		.uleb128 0xb
 1534 005a 01       		.uleb128 0x1
 1535 005b 13       		.uleb128 0x13
 1536 005c 00       		.byte	0x0
 1537 005d 00       		.byte	0x0
 1538 005e 09       		.uleb128 0x9
 1539 005f 0D       		.uleb128 0xd
 1540 0060 00       		.byte	0x0
 1541 0061 03       		.uleb128 0x3
 1542 0062 0E       		.uleb128 0xe
 1543 0063 3A       		.uleb128 0x3a
 1544 0064 0B       		.uleb128 0xb
 1545 0065 3B       		.uleb128 0x3b
 1546 0066 0B       		.uleb128 0xb
 1547 0067 49       		.uleb128 0x49
 1548 0068 13       		.uleb128 0x13
 1549 0069 38       		.uleb128 0x38
 1550 006a 0A       		.uleb128 0xa
 1551 006b 00       		.byte	0x0
 1552 006c 00       		.byte	0x0
 1553 006d 0A       		.uleb128 0xa
 1554 006e 0F       		.uleb128 0xf
 1555 006f 00       		.byte	0x0
 1556 0070 0B       		.uleb128 0xb
ARM GAS  C:\DOCUME~1\ADMINI~1\LOCALS~1\Temp\ccIflNry.s 			page 36


 1557 0071 0B       		.uleb128 0xb
 1558 0072 49       		.uleb128 0x49
 1559 0073 13       		.uleb128 0x13
 1560 0074 00       		.byte	0x0
 1561 0075 00       		.byte	0x0
 1562 0076 0B       		.uleb128 0xb
 1563 0077 0D       		.uleb128 0xd
 1564 0078 00       		.byte	0x0
 1565 0079 03       		.uleb128 0x3
 1566 007a 08       		.uleb128 0x8
 1567 007b 3A       		.uleb128 0x3a
 1568 007c 0B       		.uleb128 0xb
 1569 007d 3B       		.uleb128 0x3b
 1570 007e 0B       		.uleb128 0xb
 1571 007f 49       		.uleb128 0x49
 1572 0080 13       		.uleb128 0x13
 1573 0081 38       		.uleb128 0x38
 1574 0082 0A       		.uleb128 0xa
 1575 0083 00       		.byte	0x0
 1576 0084 00       		.byte	0x0
 1577 0085 0C       		.uleb128 0xc
 1578 0086 2E       		.uleb128 0x2e
 1579 0087 01       		.byte	0x1
 1580 0088 3F       		.uleb128 0x3f
 1581 0089 0C       		.uleb128 0xc
 1582 008a 03       		.uleb128 0x3
 1583 008b 0E       		.uleb128 0xe
 1584 008c 3A       		.uleb128 0x3a
 1585 008d 0B       		.uleb128 0xb
 1586 008e 3B       		.uleb128 0x3b
 1587 008f 0B       		.uleb128 0xb
 1588 0090 27       		.uleb128 0x27
 1589 0091 0C       		.uleb128 0xc
 1590 0092 49       		.uleb128 0x49
 1591 0093 13       		.uleb128 0x13
 1592 0094 11       		.uleb128 0x11
 1593 0095 01       		.uleb128 0x1
 1594 0096 12       		.uleb128 0x12
 1595 0097 01       		.uleb128 0x1
 1596 0098 40       		.uleb128 0x40
 1597 0099 06       		.uleb128 0x6
 1598 009a 01       		.uleb128 0x1
 1599 009b 13       		.uleb128 0x13
 1600 009c 00       		.byte	0x0
 1601 009d 00       		.byte	0x0
 1602 009e 0D       		.uleb128 0xd
 1603 009f 05       		.uleb128 0x5
 1604 00a0 00       		.byte	0x0
 1605 00a1 03       		.uleb128 0x3
 1606 00a2 0E       		.uleb128 0xe
 1607 00a3 3A       		.uleb128 0x3a
 1608 00a4 0B       		.uleb128 0xb
 1609 00a5 3B       		.uleb128 0x3b
 1610 00a6 0B       		.uleb128 0xb
 1611 00a7 49       		.uleb128 0x49
 1612 00a8 13       		.uleb128 0x13
 1613 00a9 02       		.uleb128 0x2
ARM GAS  C:\DOCUME~1\ADMINI~1\LOCALS~1\Temp\ccIflNry.s 			page 37


 1614 00aa 0A       		.uleb128 0xa
 1615 00ab 00       		.byte	0x0
 1616 00ac 00       		.byte	0x0
 1617 00ad 0E       		.uleb128 0xe
 1618 00ae 34       		.uleb128 0x34
 1619 00af 00       		.byte	0x0
 1620 00b0 03       		.uleb128 0x3
 1621 00b1 0E       		.uleb128 0xe
 1622 00b2 3A       		.uleb128 0x3a
 1623 00b3 0B       		.uleb128 0xb
 1624 00b4 3B       		.uleb128 0x3b
 1625 00b5 0B       		.uleb128 0xb
 1626 00b6 49       		.uleb128 0x49
 1627 00b7 13       		.uleb128 0x13
 1628 00b8 02       		.uleb128 0x2
 1629 00b9 0A       		.uleb128 0xa
 1630 00ba 00       		.byte	0x0
 1631 00bb 00       		.byte	0x0
 1632 00bc 0F       		.uleb128 0xf
 1633 00bd 2E       		.uleb128 0x2e
 1634 00be 01       		.byte	0x1
 1635 00bf 3F       		.uleb128 0x3f
 1636 00c0 0C       		.uleb128 0xc
 1637 00c1 03       		.uleb128 0x3
 1638 00c2 0E       		.uleb128 0xe
 1639 00c3 3A       		.uleb128 0x3a
 1640 00c4 0B       		.uleb128 0xb
 1641 00c5 3B       		.uleb128 0x3b
 1642 00c6 0B       		.uleb128 0xb
 1643 00c7 49       		.uleb128 0x49
 1644 00c8 13       		.uleb128 0x13
 1645 00c9 11       		.uleb128 0x11
 1646 00ca 01       		.uleb128 0x1
 1647 00cb 12       		.uleb128 0x12
 1648 00cc 01       		.uleb128 0x1
 1649 00cd 40       		.uleb128 0x40
 1650 00ce 06       		.uleb128 0x6
 1651 00cf 01       		.uleb128 0x1
 1652 00d0 13       		.uleb128 0x13
 1653 00d1 00       		.byte	0x0
 1654 00d2 00       		.byte	0x0
 1655 00d3 10       		.uleb128 0x10
 1656 00d4 2E       		.uleb128 0x2e
 1657 00d5 01       		.byte	0x1
 1658 00d6 3F       		.uleb128 0x3f
 1659 00d7 0C       		.uleb128 0xc
 1660 00d8 03       		.uleb128 0x3
 1661 00d9 0E       		.uleb128 0xe
 1662 00da 3A       		.uleb128 0x3a
 1663 00db 0B       		.uleb128 0xb
 1664 00dc 3B       		.uleb128 0x3b
 1665 00dd 05       		.uleb128 0x5
 1666 00de 27       		.uleb128 0x27
 1667 00df 0C       		.uleb128 0xc
 1668 00e0 11       		.uleb128 0x11
 1669 00e1 01       		.uleb128 0x1
 1670 00e2 12       		.uleb128 0x12
ARM GAS  C:\DOCUME~1\ADMINI~1\LOCALS~1\Temp\ccIflNry.s 			page 38


 1671 00e3 01       		.uleb128 0x1
 1672 00e4 40       		.uleb128 0x40
 1673 00e5 06       		.uleb128 0x6
 1674 00e6 01       		.uleb128 0x1
 1675 00e7 13       		.uleb128 0x13
 1676 00e8 00       		.byte	0x0
 1677 00e9 00       		.byte	0x0
 1678 00ea 11       		.uleb128 0x11
 1679 00eb 34       		.uleb128 0x34
 1680 00ec 00       		.byte	0x0
 1681 00ed 03       		.uleb128 0x3
 1682 00ee 0E       		.uleb128 0xe
 1683 00ef 3A       		.uleb128 0x3a
 1684 00f0 0B       		.uleb128 0xb
 1685 00f1 3B       		.uleb128 0x3b
 1686 00f2 05       		.uleb128 0x5
 1687 00f3 49       		.uleb128 0x49
 1688 00f4 13       		.uleb128 0x13
 1689 00f5 02       		.uleb128 0x2
 1690 00f6 0A       		.uleb128 0xa
 1691 00f7 00       		.byte	0x0
 1692 00f8 00       		.byte	0x0
 1693 00f9 12       		.uleb128 0x12
 1694 00fa 34       		.uleb128 0x34
 1695 00fb 00       		.byte	0x0
 1696 00fc 03       		.uleb128 0x3
 1697 00fd 08       		.uleb128 0x8
 1698 00fe 3A       		.uleb128 0x3a
 1699 00ff 0B       		.uleb128 0xb
 1700 0100 3B       		.uleb128 0x3b
 1701 0101 05       		.uleb128 0x5
 1702 0102 49       		.uleb128 0x49
 1703 0103 13       		.uleb128 0x13
 1704 0104 02       		.uleb128 0x2
 1705 0105 0A       		.uleb128 0xa
 1706 0106 00       		.byte	0x0
 1707 0107 00       		.byte	0x0
 1708 0108 13       		.uleb128 0x13
 1709 0109 01       		.uleb128 0x1
 1710 010a 01       		.byte	0x1
 1711 010b 49       		.uleb128 0x49
 1712 010c 13       		.uleb128 0x13
 1713 010d 01       		.uleb128 0x1
 1714 010e 13       		.uleb128 0x13
 1715 010f 00       		.byte	0x0
 1716 0110 00       		.byte	0x0
 1717 0111 14       		.uleb128 0x14
 1718 0112 21       		.uleb128 0x21
 1719 0113 00       		.byte	0x0
 1720 0114 49       		.uleb128 0x49
 1721 0115 13       		.uleb128 0x13
 1722 0116 2F       		.uleb128 0x2f
 1723 0117 0B       		.uleb128 0xb
 1724 0118 00       		.byte	0x0
 1725 0119 00       		.byte	0x0
 1726 011a 15       		.uleb128 0x15
 1727 011b 34       		.uleb128 0x34
ARM GAS  C:\DOCUME~1\ADMINI~1\LOCALS~1\Temp\ccIflNry.s 			page 39


 1728 011c 00       		.byte	0x0
 1729 011d 03       		.uleb128 0x3
 1730 011e 0E       		.uleb128 0xe
 1731 011f 3A       		.uleb128 0x3a
 1732 0120 0B       		.uleb128 0xb
 1733 0121 3B       		.uleb128 0x3b
 1734 0122 0B       		.uleb128 0xb
 1735 0123 49       		.uleb128 0x49
 1736 0124 13       		.uleb128 0x13
 1737 0125 3F       		.uleb128 0x3f
 1738 0126 0C       		.uleb128 0xc
 1739 0127 02       		.uleb128 0x2
 1740 0128 0A       		.uleb128 0xa
 1741 0129 00       		.byte	0x0
 1742 012a 00       		.byte	0x0
 1743 012b 16       		.uleb128 0x16
 1744 012c 34       		.uleb128 0x34
 1745 012d 00       		.byte	0x0
 1746 012e 03       		.uleb128 0x3
 1747 012f 0E       		.uleb128 0xe
 1748 0130 3A       		.uleb128 0x3a
 1749 0131 0B       		.uleb128 0xb
 1750 0132 3B       		.uleb128 0x3b
 1751 0133 0B       		.uleb128 0xb
 1752 0134 49       		.uleb128 0x49
 1753 0135 13       		.uleb128 0x13
 1754 0136 3F       		.uleb128 0x3f
 1755 0137 0C       		.uleb128 0xc
 1756 0138 3C       		.uleb128 0x3c
 1757 0139 0C       		.uleb128 0xc
 1758 013a 00       		.byte	0x0
 1759 013b 00       		.byte	0x0
 1760 013c 17       		.uleb128 0x17
 1761 013d 21       		.uleb128 0x21
 1762 013e 00       		.byte	0x0
 1763 013f 00       		.byte	0x0
 1764 0140 00       		.byte	0x0
 1765 0141 00       		.byte	0x0
 1766              		.section	.debug_pubnames,"",%progbits
 1767 0000 F3000000 		.4byte	0xf3
 1768 0004 0200     		.2byte	0x2
 1769 0006 00000000 		.4byte	.Ldebug_info0
 1770 000a 7C030000 		.4byte	0x37c
 1771 000e 58010000 		.4byte	0x158
 1772 0012 55534246 		.ascii	"USBFS_UpdateHIDTimer\000"
 1772      535F5570 
 1772      64617465 
 1772      48494454 
 1772      696D6572 
 1773 0027 92010000 		.4byte	0x192
 1774 002b 55534246 		.ascii	"USBFS_GetProtocol\000"
 1774      535F4765 
 1774      7450726F 
 1774      746F636F 
 1774      6C00
 1775 003d BE010000 		.4byte	0x1be
 1776 0041 55534246 		.ascii	"USBFS_DispatchHIDClassRqst\000"
ARM GAS  C:\DOCUME~1\ADMINI~1\LOCALS~1\Temp\ccIflNry.s 			page 40


 1776      535F4469 
 1776      73706174 
 1776      63684849 
 1776      44436C61 
 1777 005c F7010000 		.4byte	0x1f7
 1778 0060 55534246 		.ascii	"USBFS_FindHidClassDecriptor\000"
 1778      535F4669 
 1778      6E644869 
 1778      64436C61 
 1778      73734465 
 1779 007c 45020000 		.4byte	0x245
 1780 0080 55534246 		.ascii	"USBFS_FindReportDescriptor\000"
 1780      535F4669 
 1780      6E645265 
 1780      706F7274 
 1780      44657363 
 1781 009b 8D020000 		.4byte	0x28d
 1782 009f 55534246 		.ascii	"USBFS_FindReport\000"
 1782      535F4669 
 1782      6E645265 
 1782      706F7274 
 1782      00
 1783 00b0 FA020000 		.4byte	0x2fa
 1784 00b4 55534246 		.ascii	"USBFS_hidProtocol\000"
 1784      535F6869 
 1784      6450726F 
 1784      746F636F 
 1784      6C00
 1785 00c6 11030000 		.4byte	0x311
 1786 00ca 55534246 		.ascii	"USBFS_hidIdleRate\000"
 1786      535F6869 
 1786      6449646C 
 1786      65526174 
 1786      6500
 1787 00dc 28030000 		.4byte	0x328
 1788 00e0 55534246 		.ascii	"USBFS_hidIdleTimer\000"
 1788      535F6869 
 1788      6449646C 
 1788      6554696D 
 1788      657200
 1789 00f3 00000000 		.4byte	0x0
 1790              		.section	.debug_aranges,"",%progbits
 1791 0000 44000000 		.4byte	0x44
 1792 0004 0200     		.2byte	0x2
 1793 0006 00000000 		.4byte	.Ldebug_info0
 1794 000a 04       		.byte	0x4
 1795 000b 00       		.byte	0x0
 1796 000c 0000     		.2byte	0x0
 1797 000e 0000     		.2byte	0x0
 1798 0010 00000000 		.4byte	.LFB0
 1799 0014 88000000 		.4byte	.LFE0-.LFB0
 1800 0018 00000000 		.4byte	.LFB1
 1801 001c 24000000 		.4byte	.LFE1-.LFB1
 1802 0020 00000000 		.4byte	.LFB2
 1803 0024 B6020000 		.4byte	.LFE2-.LFB2
 1804 0028 00000000 		.4byte	.LFB3
 1805 002c 9A000000 		.4byte	.LFE3-.LFB3
ARM GAS  C:\DOCUME~1\ADMINI~1\LOCALS~1\Temp\ccIflNry.s 			page 41


 1806 0030 00000000 		.4byte	.LFB4
 1807 0034 B4000000 		.4byte	.LFE4-.LFB4
 1808 0038 00000000 		.4byte	.LFB5
 1809 003c 04010000 		.4byte	.LFE5-.LFB5
 1810 0040 00000000 		.4byte	0x0
 1811 0044 00000000 		.4byte	0x0
 1812              		.section	.debug_ranges,"",%progbits
 1813              	.Ldebug_ranges0:
 1814 0000 00000000 		.4byte	.Ltext0
 1815 0004 00000000 		.4byte	.Letext0
 1816 0008 00000000 		.4byte	.LFB0
 1817 000c 88000000 		.4byte	.LFE0
 1818 0010 00000000 		.4byte	.LFB1
 1819 0014 24000000 		.4byte	.LFE1
 1820 0018 00000000 		.4byte	.LFB2
 1821 001c B6020000 		.4byte	.LFE2
 1822 0020 00000000 		.4byte	.LFB3
 1823 0024 9A000000 		.4byte	.LFE3
 1824 0028 00000000 		.4byte	.LFB4
 1825 002c B4000000 		.4byte	.LFE4
 1826 0030 00000000 		.4byte	.LFB5
 1827 0034 04010000 		.4byte	.LFE5
 1828 0038 00000000 		.4byte	0x0
 1829 003c 00000000 		.4byte	0x0
 1830              		.section	.debug_str,"MS",%progbits,1
 1831              	.LASF6:
 1832 0000 6C6F6E67 		.ascii	"long long int\000"
 1832      206C6F6E 
 1832      6720696E 
 1832      7400
 1833              	.LASF21:
 1834 000e 70537461 		.ascii	"pStatusBlock\000"
 1834      74757342 
 1834      6C6F636B 
 1834      00
 1835              	.LASF46:
 1836 001b 2E5C4765 		.ascii	".\\Generated_Source\\PSoC5\\USBFS_hid.c\000"
 1836      6E657261 
 1836      7465645F 
 1836      536F7572 
 1836      63655C50 
 1837              	.LASF29:
 1838 0040 72657175 		.ascii	"requestHandled\000"
 1838      65737448 
 1838      616E646C 
 1838      656400
 1839              	.LASF19:
 1840 004f 636F756E 		.ascii	"count\000"
 1840      7400
 1841              	.LASF36:
 1842 0055 55534246 		.ascii	"USBFS_FindReportDescriptor\000"
 1842      535F4669 
 1842      6E645265 
 1842      706F7274 
 1842      44657363 
 1843              	.LASF3:
 1844 0070 73686F72 		.ascii	"short unsigned int\000"
ARM GAS  C:\DOCUME~1\ADMINI~1\LOCALS~1\Temp\ccIflNry.s 			page 42


 1844      7420756E 
 1844      7369676E 
 1844      65642069 
 1844      6E7400
 1845              	.LASF35:
 1846 0083 696E7465 		.ascii	"interfaceN\000"
 1846      72666163 
 1846      654E00
 1847              	.LASF14:
 1848 008e 73746174 		.ascii	"status\000"
 1848      757300
 1849              	.LASF20:
 1850 0095 70446174 		.ascii	"pData\000"
 1850      6100
 1851              	.LASF32:
 1852 009b 55534246 		.ascii	"USBFS_FindHidClassDecriptor\000"
 1852      535F4669 
 1852      6E644869 
 1852      64436C61 
 1852      73734465 
 1853              	.LASF22:
 1854 00b7 545F5553 		.ascii	"T_USBFS_TD\000"
 1854      4246535F 
 1854      544400
 1855              	.LASF11:
 1856 00c2 666C6F61 		.ascii	"float\000"
 1856      7400
 1857              	.LASF38:
 1858 00c8 7265706F 		.ascii	"reportType\000"
 1858      72745479 
 1858      706500
 1859              	.LASF43:
 1860 00d3 55534246 		.ascii	"USBFS_configuration\000"
 1860      535F636F 
 1860      6E666967 
 1860      75726174 
 1860      696F6E00 
 1861              	.LASF1:
 1862 00e7 756E7369 		.ascii	"unsigned char\000"
 1862      676E6564 
 1862      20636861 
 1862      7200
 1863              	.LASF17:
 1864 00f5 5F555342 		.ascii	"_USBFS_XferStatusBlock\000"
 1864      46535F58 
 1864      66657253 
 1864      74617475 
 1864      73426C6F 
 1865              	.LASF16:
 1866 010c 545F5553 		.ascii	"T_USBFS_XFER_STATUS_BLOCK\000"
 1866      4246535F 
 1866      58464552 
 1866      5F535441 
 1866      5455535F 
 1867              	.LASF5:
 1868 0126 6C6F6E67 		.ascii	"long unsigned int\000"
 1868      20756E73 
ARM GAS  C:\DOCUME~1\ADMINI~1\LOCALS~1\Temp\ccIflNry.s 			page 43


 1868      69676E65 
 1868      6420696E 
 1868      7400
 1869              	.LASF9:
 1870 0138 75696E74 		.ascii	"uint8\000"
 1870      3800
 1871              	.LASF30:
 1872 013e 696E7465 		.ascii	"interfaceNumber\000"
 1872      72666163 
 1872      654E756D 
 1872      62657200 
 1873              	.LASF37:
 1874 014e 55534246 		.ascii	"USBFS_FindReport\000"
 1874      535F4669 
 1874      6E645265 
 1874      706F7274 
 1874      00
 1875              	.LASF12:
 1876 015f 646F7562 		.ascii	"double\000"
 1876      6C6500
 1877              	.LASF2:
 1878 0166 73686F72 		.ascii	"short int\000"
 1878      7420696E 
 1878      7400
 1879              	.LASF10:
 1880 0170 75696E74 		.ascii	"uint16\000"
 1880      313600
 1881              	.LASF34:
 1882 0177 70446573 		.ascii	"pDescr\000"
 1882      637200
 1883              	.LASF8:
 1884 017e 756E7369 		.ascii	"unsigned int\000"
 1884      676E6564 
 1884      20696E74 
 1884      00
 1885              	.LASF31:
 1886 018b 55534246 		.ascii	"USBFS_DispatchHIDClassRqst\000"
 1886      535F4469 
 1886      73706174 
 1886      63684849 
 1886      44436C61 
 1887              	.LASF7:
 1888 01a6 6C6F6E67 		.ascii	"long long unsigned int\000"
 1888      206C6F6E 
 1888      6720756E 
 1888      7369676E 
 1888      65642069 
 1889              	.LASF24:
 1890 01bd 705F6C69 		.ascii	"p_list\000"
 1890      737400
 1891              	.LASF42:
 1892 01c4 55534246 		.ascii	"USBFS_currentTD\000"
 1892      535F6375 
 1892      7272656E 
 1892      74544400 
 1893              	.LASF27:
 1894 01d4 55534246 		.ascii	"USBFS_GetProtocol\000"
ARM GAS  C:\DOCUME~1\ADMINI~1\LOCALS~1\Temp\ccIflNry.s 			page 44


 1894      535F4765 
 1894      7450726F 
 1894      746F636F 
 1894      6C00
 1895              	.LASF45:
 1896 01e6 474E5520 		.ascii	"GNU C 4.4.1\000"
 1896      4320342E 
 1896      342E3100 
 1897              	.LASF25:
 1898 01f2 545F5553 		.ascii	"T_USBFS_LUT\000"
 1898      4246535F 
 1898      4C555400 
 1899              	.LASF13:
 1900 01fe 63686172 		.ascii	"char\000"
 1900      00
 1901              	.LASF33:
 1902 0203 70546D70 		.ascii	"pTmp\000"
 1902      00
 1903              	.LASF39:
 1904 0208 55534246 		.ascii	"USBFS_hidProtocol\000"
 1904      535F6869 
 1904      6450726F 
 1904      746F636F 
 1904      6C00
 1905              	.LASF26:
 1906 021a 55534246 		.ascii	"USBFS_UpdateHIDTimer\000"
 1906      535F5570 
 1906      64617465 
 1906      48494454 
 1906      696D6572 
 1907              	.LASF28:
 1908 022f 696E7465 		.ascii	"interface\000"
 1908      72666163 
 1908      6500
 1909              	.LASF4:
 1910 0239 6C6F6E67 		.ascii	"long int\000"
 1910      20696E74 
 1910      00
 1911              	.LASF18:
 1912 0242 5F555342 		.ascii	"_USBFS_Td\000"
 1912      46535F54 
 1912      6400
 1913              	.LASF0:
 1914 024c 7369676E 		.ascii	"signed char\000"
 1914      65642063 
 1914      68617200 
 1915              	.LASF47:
 1916 0258 5C5C7073 		.ascii	"\\\\psf\\Home\\Desktop\\KitProg version 2_03\\KitPr"
 1916      665C486F 
 1916      6D655C44 
 1916      65736B74 
 1916      6F705C4B 
 1917 0285 6F675C4B 		.ascii	"og\\KitProg.cydsn\000"
 1917      69745072 
 1917      6F672E63 
 1917      7964736E 
 1917      00
ARM GAS  C:\DOCUME~1\ADMINI~1\LOCALS~1\Temp\ccIflNry.s 			page 45


 1918              	.LASF40:
 1919 0296 55534246 		.ascii	"USBFS_hidIdleRate\000"
 1919      535F6869 
 1919      6449646C 
 1919      65526174 
 1919      6500
 1920              	.LASF41:
 1921 02a8 55534246 		.ascii	"USBFS_hidIdleTimer\000"
 1921      535F6869 
 1921      6449646C 
 1921      6554696D 
 1921      657200
 1922              	.LASF15:
 1923 02bb 6C656E67 		.ascii	"length\000"
 1923      746800
 1924              	.LASF23:
 1925 02c2 5F555342 		.ascii	"_USBFS_Lut\000"
 1925      46535F4C 
 1925      757400
 1926              	.LASF44:
 1927 02cd 55534246 		.ascii	"USBFS_interfaceSetting\000"
 1927      535F696E 
 1927      74657266 
 1927      61636553 
 1927      65747469 
 1928              		.ident	"GCC: (Sourcery G++ Lite 2010q1-188) 4.4.1"
