ARM GAS  C:\DOCUME~1\ADMINI~1\LOCALS~1\Temp\ccVGVA3e.s 			page 1


   1              		.syntax unified
   2              		.cpu cortex-m3
   3              		.fpu softvfp
   4              		.eabi_attribute 20, 1
   5              		.eabi_attribute 21, 1
   6              		.eabi_attribute 23, 3
   7              		.eabi_attribute 24, 1
   8              		.eabi_attribute 25, 1
   9              		.eabi_attribute 26, 1
  10              		.eabi_attribute 30, 6
  11              		.eabi_attribute 18, 4
  12              		.thumb
  13              		.file	"USBUART.c"
  20 0000 C8000000 		.text
  20      02008200 
  20      00000201 
  20      FB0E0D00 
  20      01010101 
  21              	.Ltext0:
  22              		.cfi_sections	.debug_frame
  23              		.section	.text.UARTBridgeComm,"ax",%progbits
  24              		.align	2
  25              		.global	UARTBridgeComm
  26              		.thumb
  27              		.thumb_func
  28              		.type	UARTBridgeComm, %function
  29              	UARTBridgeComm:
  30              	.LFB29:
  31              		.file 1 ".\\USBUART.c"
   1:.\USBUART.c   **** /*****************************************************************************
   2:.\USBUART.c   **** * File Name: USBUART.c
   3:.\USBUART.c   **** * Version 2.03
   4:.\USBUART.c   **** *
   5:.\USBUART.c   **** * Description:
   6:.\USBUART.c   **** *  This file provides the source code to handle USBUART Bridge functionality
   7:.\USBUART.c   **** *
   8:.\USBUART.c   **** * Owner:
   9:.\USBUART.c   **** *	Sree Harsha Angara, Applications Engineer (sreh@cypress.com)
  10:.\USBUART.c   **** *
  11:.\USBUART.c   **** * Related Document:
  12:.\USBUART.c   **** * 	001-85925 CY8CKIT-042 IROS
  13:.\USBUART.c   **** *
  14:.\USBUART.c   **** * Hardware Dependency:
  15:.\USBUART.c   **** * 	CY8CKIT-042 REV 1 
  16:.\USBUART.c   **** *
  17:.\USBUART.c   **** * Code Tested With:
  18:.\USBUART.c   **** * 	Creator 2.2
  19:.\USBUART.c   **** *	GCC1 4.4.1
  20:.\USBUART.c   **** *	CY8CKIT-042 REV 1
  21:.\USBUART.c   **** * 
  22:.\USBUART.c   **** ******************************************************************************
ARM GAS  C:\DOCUME~1\ADMINI~1\LOCALS~1\Temp\ccVGVA3e.s 			page 2


  23:.\USBUART.c   **** * Copyright (2013), Cypress Semiconductor Corporation.
  24:.\USBUART.c   **** ******************************************************************************
  25:.\USBUART.c   **** * This software is owned by Cypress Semiconductor Corporation (Cypress) and is
  26:.\USBUART.c   **** * protected by and subject to worldwide patent protection (United States and
  27:.\USBUART.c   **** * foreign), United States copyright laws and international treaty provisions.
  28:.\USBUART.c   **** * Cypress hereby grants to licensee a personal, non-exclusive, non-transferable
  29:.\USBUART.c   **** * license to copy, use, modify, create derivative works of, and compile the
  30:.\USBUART.c   **** * Cypress Source Code and derivative works for the sole purpose of creating
  31:.\USBUART.c   **** * custom software in support of licensee product to be used only in conjunction
  32:.\USBUART.c   **** * with a Cypress integrated circuit as specified in the applicable agreement.
  33:.\USBUART.c   **** * Any reproduction, modification, translation, compilation, or representation of
  34:.\USBUART.c   **** * this software except as specified above is prohibited without the express
  35:.\USBUART.c   **** * written permission of Cypress.
  36:.\USBUART.c   **** *
  37:.\USBUART.c   **** * Disclaimer: CYPRESS MAKES NO WARRANTY OF ANY KIND, EXPRESS OR IMPLIED, WITH
  38:.\USBUART.c   **** * REGARD TO THIS MATERIAL, INCLUDING, BUT NOT LIMITED TO, THE IMPLIED
  39:.\USBUART.c   **** * WARRANTIES OF MERCHANTABILITY AND FITNESS FOR A PARTICULAR PURPOSE.
  40:.\USBUART.c   **** * Cypress reserves the right to make changes without further notice to the
  41:.\USBUART.c   **** * materials described herein. Cypress does not assume any liability arising out
  42:.\USBUART.c   **** * of the application or use of any product or circuit described herein. Cypress
  43:.\USBUART.c   **** * does not authorize its products for use as critical components in life-support
  44:.\USBUART.c   **** * systems where a malfunction or failure may reasonably be expected to result in
  45:.\USBUART.c   **** * significant injury to the user. The inclusion of Cypress' product in a life-
  46:.\USBUART.c   **** * support systems application implies that the manufacturer assumes all risk of
  47:.\USBUART.c   **** * such use and in doing so indemnifies Cypress against all charges. Use may be
  48:.\USBUART.c   **** * limited by and subject to the applicable Cypress software license agreement.
  49:.\USBUART.c   **** *****************************************************************************/
  50:.\USBUART.c   **** 
  51:.\USBUART.c   **** #include "kitprog.h"
  52:.\USBUART.c   **** 
  53:.\USBUART.c   **** /*******************************************************************************
  54:.\USBUART.c   **** * Macro Name: CheckLine
  55:.\USBUART.c   **** ********************************************************************************
  56:.\USBUART.c   **** * Summary:
  57:.\USBUART.c   **** * Checks for line change, Reconfigures the UART clock to match host baud rate
  58:.\USBUART.c   **** *******************************************************************************/
  59:.\USBUART.c   **** 
  60:.\USBUART.c   **** #define CheckLine() {																				\
  61:.\USBUART.c   **** 																									\
  62:.\USBUART.c   **** 	uint32 dDTERate;																				\
  63:.\USBUART.c   **** 	uint16 wDivider;																				\
  64:.\USBUART.c   **** 																									\
  65:.\USBUART.c   **** 	if(USBFS_IsLineChanged())																		\
  66:.\USBUART.c   **** 	{																								\
  67:.\USBUART.c   **** 		/* Get Baud Rate */																			\
  68:.\USBUART.c   **** 		dDTERate = USBFS_GetDTERate();  															\
  69:.\USBUART.c   **** 																									\
  70:.\USBUART.c   **** 		/* Check for Baud Rate Upper Limit */														\
  71:.\USBUART.c   **** 		if(dDTERate > 115200)																		\
  72:.\USBUART.c   **** 		{																							\
  73:.\USBUART.c   **** 			dDTERate  = 115200;																		\
  74:.\USBUART.c   **** 		}																							\
  75:.\USBUART.c   **** 																									\
  76:.\USBUART.c   **** 		/* Check for Baud Rate Lower Limit */														\
  77:.\USBUART.c   **** 		if(dDTERate < 1200)																			\
  78:.\USBUART.c   **** 		{																							\
  79:.\USBUART.c   **** 			dDTERate  = 1200;																		\
ARM GAS  C:\DOCUME~1\ADMINI~1\LOCALS~1\Temp\ccVGVA3e.s 			page 3


  80:.\USBUART.c   **** 		}																							\
  81:.\USBUART.c   **** 																									\
  82:.\USBUART.c   **** 		/* Sets the required Clock divider for UART */												\
  83:.\USBUART.c   **** 		switch(dDTERate)																			\
  84:.\USBUART.c   **** 	    {																							\
  85:.\USBUART.c   **** 																									\
  86:.\USBUART.c   **** 			case 115200:																			\
  87:.\USBUART.c   **** 	            wDivider = DIVIDER115200;															\
  88:.\USBUART.c   **** 	            break;																				\
  89:.\USBUART.c   **** 	        case 57600:																				\
  90:.\USBUART.c   **** 	            wDivider = DIVIDER57600;															\
  91:.\USBUART.c   **** 	            break;																				\
  92:.\USBUART.c   **** 	        case 38400:																				\
  93:.\USBUART.c   **** 	            wDivider = DIVIDER38400;															\
  94:.\USBUART.c   **** 	            break;																				\
  95:.\USBUART.c   **** 	        case 19200:																				\
  96:.\USBUART.c   **** 	            wDivider = DIVIDER19200;															\
  97:.\USBUART.c   **** 	            break;																				\
  98:.\USBUART.c   **** 	        case 9600:																				\
  99:.\USBUART.c   **** 	            wDivider = DIVIDER9600;																\
 100:.\USBUART.c   **** 	            break;																				\
 101:.\USBUART.c   **** 	        case 4800:																				\
 102:.\USBUART.c   **** 	            wDivider = DIVIDER4800;																\
 103:.\USBUART.c   **** 	            break;																				\
 104:.\USBUART.c   **** 	        case 2400:																				\
 105:.\USBUART.c   **** 	            wDivider = DIVIDER2400;																\
 106:.\USBUART.c   **** 	            break;																				\
 107:.\USBUART.c   **** 	        case 1200:																				\
 108:.\USBUART.c   **** 	            wDivider = DIVIDER1200;																\
 109:.\USBUART.c   **** 	            break;																				\
 110:.\USBUART.c   **** 	        default: 																				\
 111:.\USBUART.c   **** 	            wDivider = DIVIDER115200;															\
 112:.\USBUART.c   **** 	            break;																				\
 113:.\USBUART.c   **** 	    }																							\
 114:.\USBUART.c   **** 																									\
 115:.\USBUART.c   **** 		/* Stop UART for new Clock */																\
 116:.\USBUART.c   **** 	    UART_Bridge_Stop();   																		\
 117:.\USBUART.c   **** 	    																							\
 118:.\USBUART.c   **** 		/* Set new Clock Frequency */																\
 119:.\USBUART.c   **** 		Clock_UART_SetDivider(wDivider-1);															\
 120:.\USBUART.c   **** 	    																							\
 121:.\USBUART.c   **** 		/* Restart UART */																			\
 122:.\USBUART.c   **** 		UART_Bridge_Start();																		\
 123:.\USBUART.c   **** 		UART_Bridge_ClearRxBuffer();																\
 124:.\USBUART.c   **** 		UART_Bridge_ClearTxBuffer();																\
 125:.\USBUART.c   **** 	}																								\
 126:.\USBUART.c   **** }																									
 127:.\USBUART.c   **** 
 128:.\USBUART.c   **** /*******************************************************************************
 129:.\USBUART.c   **** * Macro Name: USBUARTTransmit
 130:.\USBUART.c   **** ********************************************************************************
 131:.\USBUART.c   **** * Summary:
 132:.\USBUART.c   **** * Checks if USB host has sent data and transfers it to the UART Transmitter 
 133:.\USBUART.c   **** *
 134:.\USBUART.c   **** *******************************************************************************/
 135:.\USBUART.c   **** 
 136:.\USBUART.c   **** #define USBUARTTransmit()   {																		\
ARM GAS  C:\DOCUME~1\ADMINI~1\LOCALS~1\Temp\ccVGVA3e.s 			page 4


 137:.\USBUART.c   **** 																									\
 138:.\USBUART.c   **** 	uint8 size;																						\
 139:.\USBUART.c   **** 	uint8 buffer[64]; 																				\
 140:.\USBUART.c   **** 																									\
 141:.\USBUART.c   **** 	/* Check for USB host packet */																	\
 142:.\USBUART.c   **** 	if(USBFS_GetEPState(UART_OUT_EP))						 										\
 143:.\USBUART.c   **** 	{  																								\
 144:.\USBUART.c   **** 		/* Get size of packet */ 																	\
 145:.\USBUART.c   **** 		size = USBFS_GetEPCount(UART_OUT_EP);										  				\
 146:.\USBUART.c   **** 																									\
 147:.\USBUART.c   **** 		/* Read from USB Buffer */ 																	\
 148:.\USBUART.c   **** 		USBFS_ReadOutEP(UART_OUT_EP,&buffer[0],size);												\
 149:.\USBUART.c   **** 																									\
 150:.\USBUART.c   **** 		/* Send to UART Tx */																		\
 151:.\USBUART.c   **** 		UART_Bridge_PutArray(&buffer[0] , size);								 					\
 152:.\USBUART.c   **** 	}																								\
 153:.\USBUART.c   **** }
 154:.\USBUART.c   **** 
 155:.\USBUART.c   **** 
 156:.\USBUART.c   **** /*******************************************************************************
 157:.\USBUART.c   **** * Macro Name: USBUARTReceive
 158:.\USBUART.c   **** ********************************************************************************
 159:.\USBUART.c   **** * Summary:
 160:.\USBUART.c   **** * Checks if the UART has received data and sends it to the USB host 
 161:.\USBUART.c   **** *******************************************************************************/
 162:.\USBUART.c   **** 
 163:.\USBUART.c   **** #define USBUARTReceive() {																											\
 164:.\USBUART.c   **** 																																	\
 165:.\USBUART.c   **** 	uint8 wCount; 																													\
 166:.\USBUART.c   **** 	uint8 wRxBufferRead;																											\
 167:.\USBUART.c   **** 	uint8 bIndex;																													\
 168:.\USBUART.c   **** 																																	\
 169:.\USBUART.c   **** 	if(UART_Bridge_ReadRxStatus() == UART_Bridge_RX_STS_SOFT_BUFF_OVER)																\
 170:.\USBUART.c   **** 	{																																\
 171:.\USBUART.c   **** 		UART_Bridge_ClearRxBuffer();																								\
 172:.\USBUART.c   **** 	}																																\
 173:.\USBUART.c   **** 																																	\
 174:.\USBUART.c   **** 	/* Get the Received UART data size */																							\
 175:.\USBUART.c   **** 	wCount = UART_Bridge_GetRxBufferSize();                  		 																\
 176:.\USBUART.c   **** 																																	\
 177:.\USBUART.c   **** 	/* Check if Rx has data and USB has finished sending old data */																\
 178:.\USBUART.c   **** 	if( (wCount != 0) && 																											\
 179:.\USBUART.c   **** 	( USBFS_bGetEPState(UART_IN_EP) == USBFS_IN_BUFFER_EMPTY ))																		\
 180:.\USBUART.c   **** 	{																																\
 181:.\USBUART.c   **** 	    /* Limit data size to USB EP Packet Size */																					\
 182:.\USBUART.c   **** 		if( wCount > USBINPACKETSIZE )																								\
 183:.\USBUART.c   **** 	    {																															\
 184:.\USBUART.c   **** 	        wCount = USBINPACKETSIZE;                       																		\
 185:.\USBUART.c   **** 	    }																															\
 186:.\USBUART.c   **** 	    																															\
 187:.\USBUART.c   **** 	    /* Read current Rx Buffer pointer to a temporary pointer */ 																\
 188:.\USBUART.c   **** 		wRxBufferRead = UART_Bridge_rxBufferRead;																					\
 189:.\USBUART.c   **** 	    																															\
 190:.\USBUART.c   **** 	    for( bIndex = 0; bIndex < wCount; bIndex++, wRxBufferRead++)																\
 191:.\USBUART.c   **** 	    {																															\
 192:.\USBUART.c   **** 	        /* Reset temporary Buffer pointer on overflow */ 																		\
 193:.\USBUART.c   **** 	        if(wRxBufferRead >= UART_Bridge_RXBUFFERSIZE)																			\
ARM GAS  C:\DOCUME~1\ADMINI~1\LOCALS~1\Temp\ccVGVA3e.s 			page 5


 194:.\USBUART.c   **** 	        {																														\
 195:.\USBUART.c   **** 	            wRxBufferRead = 0u;																									\
 196:.\USBUART.c   **** 	        }																														\
 197:.\USBUART.c   **** 			/*Load from UART RX Buffer to USB */ 																					\
 198:.\USBUART.c   **** 	        CY_SET_REG8((uint8 *)USBUART_INEP_WRITE_DATA_PTR,  UART_Bridge_rxBuffer[wRxBufferRead]); 	
 199:.\USBUART.c   **** 	    }																															\
 200:.\USBUART.c   **** 	  																																\
 201:.\USBUART.c   **** 		/* Send out data */																											\
 202:.\USBUART.c   **** 	    TransmittoUSBHost();                  																						\
 203:.\USBUART.c   **** 																																	\
 204:.\USBUART.c   **** 		/* Load new Rx Buffer Pointer */																							\
 205:.\USBUART.c   **** 	    UART_Bridge_rxBufferRead = wRxBufferRead;																					\
 206:.\USBUART.c   **** 		UART_Bridge_rxBufferLoopDetect = 0;																							\
 207:.\USBUART.c   **** 																																	\
 208:.\USBUART.c   **** 	}																																\
 209:.\USBUART.c   **** }
 210:.\USBUART.c   **** 
 211:.\USBUART.c   **** 
 212:.\USBUART.c   **** 
 213:.\USBUART.c   **** /*******************************************************************************
 214:.\USBUART.c   **** * Macro Name: TransmittoUSBHost
 215:.\USBUART.c   **** ********************************************************************************
 216:.\USBUART.c   **** * Summary:
 217:.\USBUART.c   **** * Sets registers to transmit from USB INEP Buffer
 218:.\USBUART.c   **** *
 219:.\USBUART.c   **** *******************************************************************************/
 220:.\USBUART.c   **** 
 221:.\USBUART.c   **** #define TransmittoUSBHost() {																		\
 222:.\USBUART.c   ****     																								\
 223:.\USBUART.c   **** 	/* Write WAx */ 																				\
 224:.\USBUART.c   ****     CY_SET_REG8(USBUART_INEP_WRITE_PTR,     USBFS_EP[UART_IN_EP].buffOffset & 0xFFu);				\
 225:.\USBUART.c   ****     CY_SET_REG8(USBUART_INEP_WRITE_MSB_PTR, (USBFS_EP[UART_IN_EP].buffOffset >> 8u));				\
 226:.\USBUART.c   ****     																								\
 227:.\USBUART.c   **** 	/* Set the count and data toggle */																\
 228:.\USBUART.c   ****     CY_SET_REG8(USBUART_INEP_CNT0_PTR, (wCount >> 8u) | (USBFS_EP[UART_IN_EP].epToggle)); 			\
 229:.\USBUART.c   ****     CY_SET_REG8(USBUART_INEP_CNT1_PTR,  wCount & 0xFFu); 											\
 230:.\USBUART.c   ****     																								\
 231:.\USBUART.c   **** 	/* Write the RAx */ 																			\
 232:.\USBUART.c   ****     CY_SET_REG8(USBUART_INEP_READ_PTR,     USBFS_EP[UART_IN_EP].buffOffset & 0xFFu); 				\
 233:.\USBUART.c   ****     CY_SET_REG8(USBUART_INEP_READ_MSB_PTR, (USBFS_EP[UART_IN_EP].buffOffset >> 8u)); 				\
 234:.\USBUART.c   **** 																									\
 235:.\USBUART.c   **** 	USBFS_EP[USBFS_EP6].apiEpState = USBFS_NO_EVENT_PENDING; 										\
 236:.\USBUART.c   ****     																								\
 237:.\USBUART.c   **** 	/* Write the Mode register */ 																	\
 238:.\USBUART.c   ****     CY_SET_REG8(USBUART_INEP_MODE_REG_PTR, USBFS_EP[UART_IN_EP].epMode); 							\
 239:.\USBUART.c   **** }
 240:.\USBUART.c   **** 
 241:.\USBUART.c   **** 
 242:.\USBUART.c   **** /*******************************************************************************
 243:.\USBUART.c   **** * Function Name: UARTBridgeComm()
 244:.\USBUART.c   **** ********************************************************************************
 245:.\USBUART.c   **** * Summary:
 246:.\USBUART.c   **** * This function handles the USB-UART bridge interface.
 247:.\USBUART.c   **** * It handles,
 248:.\USBUART.c   **** * a) Selection of UART clock based on host baud rate
 249:.\USBUART.c   **** * b) Transmit host packet to UART TX
 250:.\USBUART.c   **** * c) Transmit UART RX packet to host
ARM GAS  C:\DOCUME~1\ADMINI~1\LOCALS~1\Temp\ccVGVA3e.s 			page 6


 251:.\USBUART.c   **** *
 252:.\USBUART.c   **** * Parameters:
 253:.\USBUART.c   **** *  void
 254:.\USBUART.c   **** *
 255:.\USBUART.c   **** * Return:
 256:.\USBUART.c   **** *  void
 257:.\USBUART.c   **** *
 258:.\USBUART.c   **** *******************************************************************************/
 259:.\USBUART.c   **** 
 260:.\USBUART.c   **** void UARTBridgeComm (void)
 261:.\USBUART.c   **** {
  32              		.loc 1 261 0
  33              		.cfi_startproc
  34              		@ args = 0, pretend = 0, frame = 80
  35              		@ frame_needed = 1, uses_anonymous_args = 0
  36 0000 80B5     		push	{r7, lr}
  37              	.LCFI0:
  38              		.cfi_def_cfa_offset 8
  39 0002 94B0     		sub	sp, sp, #80
  40              	.LCFI1:
  41              		.cfi_def_cfa_offset 88
  42 0004 00AF     		add	r7, sp, #0
  43              		.cfi_offset 14, -4
  44              		.cfi_offset 7, -8
  45              	.LCFI2:
  46              		.cfi_def_cfa_register 7
  47              	.LBB2:
 262:.\USBUART.c   **** 	/* Check for Line configuration change, Reconfigure UART based on host parameters */
 263:.\USBUART.c   **** 	CheckLine();
  48              		.loc 1 263 0
  49 0006 FFF7FEFF 		bl	USBFS_IsLineChanged
  50 000a 0346     		mov	r3, r0
  51 000c 002B     		cmp	r3, #0
  52 000e 71D0     		beq	.L2
  53 0010 FFF7FEFF 		bl	USBFS_GetDTERate
  54 0014 0346     		mov	r3, r0
  55 0016 7B64     		str	r3, [r7, #68]
  56 0018 7B6C     		ldr	r3, [r7, #68]
  57 001a B3F5E13F 		cmp	r3, #115200
  58 001e 02D9     		bls	.L3
  59 0020 4FF4E133 		mov	r3, #115200
  60 0024 7B64     		str	r3, [r7, #68]
  61              	.L3:
  62 0026 7A6C     		ldr	r2, [r7, #68]
  63 0028 40F2AF43 		movw	r3, #1199
  64 002c 9A42     		cmp	r2, r3
  65 002e 02D8     		bhi	.L4
  66 0030 4FF49663 		mov	r3, #1200
  67 0034 7B64     		str	r3, [r7, #68]
  68              	.L4:
  69 0036 7B6C     		ldr	r3, [r7, #68]
  70 0038 B3F5165F 		cmp	r3, #9600
  71 003c 30D0     		beq	.L9
  72 003e B3F5165F 		cmp	r3, #9600
  73 0042 09D8     		bhi	.L14
  74 0044 B3F5166F 		cmp	r3, #2400
  75 0048 34D0     		beq	.L7
ARM GAS  C:\DOCUME~1\ADMINI~1\LOCALS~1\Temp\ccVGVA3e.s 			page 7


  76 004a B3F5965F 		cmp	r3, #4800
  77 004e 2CD0     		beq	.L8
  78 0050 B3F5966F 		cmp	r3, #1200
  79 0054 33D0     		beq	.L6
  80 0056 37E0     		b	.L5
  81              	.L14:
  82 0058 B3F5164F 		cmp	r3, #38400
  83 005c 16D0     		beq	.L11
  84 005e B3F5164F 		cmp	r3, #38400
  85 0062 03D8     		bhi	.L15
  86 0064 B3F5964F 		cmp	r3, #19200
  87 0068 15D0     		beq	.L10
  88 006a 2DE0     		b	.L5
  89              	.L15:
  90 006c B3F5614F 		cmp	r3, #57600
  91 0070 07D0     		beq	.L12
  92 0072 B3F5E13F 		cmp	r3, #115200
  93 0076 27D1     		bne	.L5
  94              	.L13:
  95 0078 4FF01A03 		mov	r3, #26
  96 007c A7F84A30 		strh	r3, [r7, #74]	@ movhi
  97 0080 26E0     		b	.L16
  98              	.L12:
  99 0082 4FF03403 		mov	r3, #52
 100 0086 A7F84A30 		strh	r3, [r7, #74]	@ movhi
 101 008a 21E0     		b	.L16
 102              	.L11:
 103 008c 4FF04E03 		mov	r3, #78
 104 0090 A7F84A30 		strh	r3, [r7, #74]	@ movhi
 105 0094 1CE0     		b	.L16
 106              	.L10:
 107 0096 4FF09C03 		mov	r3, #156
 108 009a A7F84A30 		strh	r3, [r7, #74]	@ movhi
 109 009e 17E0     		b	.L16
 110              	.L9:
 111 00a0 4FF49C73 		mov	r3, #312
 112 00a4 A7F84A30 		strh	r3, [r7, #74]	@ movhi
 113 00a8 12E0     		b	.L16
 114              	.L8:
 115 00aa 40F27123 		movw	r3, #625
 116 00ae A7F84A30 		strh	r3, [r7, #74]	@ movhi
 117 00b2 0DE0     		b	.L16
 118              	.L7:
 119 00b4 40F2E243 		movw	r3, #1250
 120 00b8 A7F84A30 		strh	r3, [r7, #74]	@ movhi
 121 00bc 08E0     		b	.L16
 122              	.L6:
 123 00be 40F6C413 		movw	r3, #2500
 124 00c2 A7F84A30 		strh	r3, [r7, #74]	@ movhi
 125 00c6 03E0     		b	.L16
 126              	.L5:
 127 00c8 4FF01A03 		mov	r3, #26
 128 00cc A7F84A30 		strh	r3, [r7, #74]	@ movhi
 129              	.L16:
 130 00d0 FFF7FEFF 		bl	UART_Bridge_Stop
 131 00d4 B7F84A30 		ldrh	r3, [r7, #74]	@ movhi
 132 00d8 03F1FF33 		add	r3, r3, #-1
ARM GAS  C:\DOCUME~1\ADMINI~1\LOCALS~1\Temp\ccVGVA3e.s 			page 8


 133 00dc 9BB2     		uxth	r3, r3
 134 00de 1846     		mov	r0, r3
 135 00e0 4FF00101 		mov	r1, #1
 136 00e4 FFF7FEFF 		bl	Clock_UART_SetDividerRegister
 137 00e8 FFF7FEFF 		bl	UART_Bridge_Start
 138 00ec FFF7FEFF 		bl	UART_Bridge_ClearRxBuffer
 139 00f0 FFF7FEFF 		bl	UART_Bridge_ClearTxBuffer
 140              	.L2:
 141              	.LBE2:
 142              	.LBB3:
 264:.\USBUART.c   **** 	
 265:.\USBUART.c   **** 	/* USB to UART Transmit */
 266:.\USBUART.c   **** 	USBUARTTransmit();
 143              		.loc 1 266 0
 144 00f4 4FF00700 		mov	r0, #7
 145 00f8 FFF7FEFF 		bl	USBFS_GetEPState
 146 00fc 0346     		mov	r3, r0
 147 00fe 002B     		cmp	r3, #0
 148 0100 18D0     		beq	.L17
 149 0102 4FF00700 		mov	r0, #7
 150 0106 FFF7FEFF 		bl	USBFS_GetEPCount
 151 010a 0346     		mov	r3, r0
 152 010c 87F84C30 		strb	r3, [r7, #76]
 153 0110 97F84C30 		ldrb	r3, [r7, #76]	@ zero_extendqisi2
 154 0114 07F10402 		add	r2, r7, #4
 155 0118 4FF00700 		mov	r0, #7
 156 011c 1146     		mov	r1, r2
 157 011e 1A46     		mov	r2, r3
 158 0120 FFF7FEFF 		bl	USBFS_ReadOutEP
 159 0124 07F10402 		add	r2, r7, #4
 160 0128 97F84C30 		ldrb	r3, [r7, #76]	@ zero_extendqisi2
 161 012c 1046     		mov	r0, r2
 162 012e 1946     		mov	r1, r3
 163 0130 FFF7FEFF 		bl	UART_Bridge_PutArray
 164              	.L17:
 165              	.LBE3:
 166              	.LBB4:
 267:.\USBUART.c   **** 	
 268:.\USBUART.c   ****     /* UART to USB Receive */
 269:.\USBUART.c   **** 	USBUARTReceive();
 167              		.loc 1 269 0
 168 0134 FFF7FEFF 		bl	UART_Bridge_ReadRxStatus
 169 0138 0346     		mov	r3, r0
 170 013a 802B     		cmp	r3, #128
 171 013c 01D1     		bne	.L18
 172 013e FFF7FEFF 		bl	UART_Bridge_ClearRxBuffer
 173              	.L18:
 174 0142 FFF7FEFF 		bl	UART_Bridge_GetRxBufferSize
 175 0146 0346     		mov	r3, r0
 176 0148 87F84D30 		strb	r3, [r7, #77]
 177 014c 97F84D30 		ldrb	r3, [r7, #77]	@ zero_extendqisi2
 178 0150 002B     		cmp	r3, #0
 179 0152 00F0BC80 		beq	.L24
 180 0156 4FF00600 		mov	r0, #6
 181 015a FFF7FEFF 		bl	USBFS_GetEPState
 182 015e 0346     		mov	r3, r0
 183 0160 012B     		cmp	r3, #1
ARM GAS  C:\DOCUME~1\ADMINI~1\LOCALS~1\Temp\ccVGVA3e.s 			page 9


 184 0162 40F0B480 		bne	.L24
 185 0166 97F84D30 		ldrb	r3, [r7, #77]	@ zero_extendqisi2
 186 016a 402B     		cmp	r3, #64
 187 016c 03D9     		bls	.L20
 188 016e 4FF04003 		mov	r3, #64
 189 0172 87F84D30 		strb	r3, [r7, #77]
 190              	.L20:
 191 0176 40F20003 		movw	r3, #:lower16:UART_Bridge_rxBufferRead
 192 017a C0F20003 		movt	r3, #:upper16:UART_Bridge_rxBufferRead
 193 017e 1B78     		ldrb	r3, [r3, #0]
 194 0180 87F84E30 		strb	r3, [r7, #78]
 195 0184 4FF00003 		mov	r3, #0
 196 0188 87F84F30 		strb	r3, [r7, #79]
 197 018c 21E0     		b	.L21
 198              	.L23:
 199 018e 97F84E30 		ldrb	r3, [r7, #78]	@ zero_extendqisi2
 200 0192 5BB2     		sxtb	r3, r3
 201 0194 002B     		cmp	r3, #0
 202 0196 03DA     		bge	.L22
 203 0198 4FF00003 		mov	r3, #0
 204 019c 87F84E30 		strb	r3, [r7, #78]
 205              	.L22:
 206 01a0 46F2D803 		movw	r3, #:lower16:1073766616
 207 01a4 C4F20003 		movt	r3, #:upper16:1073766616
 208 01a8 97F84E10 		ldrb	r1, [r7, #78]	@ zero_extendqisi2
 209 01ac 40F20002 		movw	r2, #:lower16:UART_Bridge_rxBuffer
 210 01b0 C0F20002 		movt	r2, #:upper16:UART_Bridge_rxBuffer
 211 01b4 525C     		ldrb	r2, [r2, r1]
 212 01b6 D2B2     		uxtb	r2, r2
 213 01b8 1A70     		strb	r2, [r3, #0]
 214 01ba 97F84F30 		ldrb	r3, [r7, #79]
 215 01be 03F10103 		add	r3, r3, #1
 216 01c2 87F84F30 		strb	r3, [r7, #79]
 217 01c6 97F84E30 		ldrb	r3, [r7, #78]
 218 01ca 03F10103 		add	r3, r3, #1
 219 01ce 87F84E30 		strb	r3, [r7, #78]
 220              	.L21:
 221 01d2 97F84F20 		ldrb	r2, [r7, #79]	@ zero_extendqisi2
 222 01d6 97F84D30 		ldrb	r3, [r7, #77]	@ zero_extendqisi2
 223 01da 9A42     		cmp	r2, r3
 224 01dc D7D3     		bcc	.L23
 225 01de 46F2D403 		movw	r3, #:lower16:1073766612
 226 01e2 C4F20003 		movt	r3, #:upper16:1073766612
 227 01e6 40F20002 		movw	r2, #:lower16:USBFS_EP
 228 01ea C0F20002 		movt	r2, #:upper16:USBFS_EP
 229 01ee B2F84E20 		ldrh	r2, [r2, #78]	@ movhi
 230 01f2 92B2     		uxth	r2, r2
 231 01f4 D2B2     		uxtb	r2, r2
 232 01f6 1A70     		strb	r2, [r3, #0]
 233 01f8 46F2D503 		movw	r3, #:lower16:1073766613
 234 01fc C4F20003 		movt	r3, #:upper16:1073766613
 235 0200 40F20002 		movw	r2, #:lower16:USBFS_EP
 236 0204 C0F20002 		movt	r2, #:upper16:USBFS_EP
 237 0208 B2F84E20 		ldrh	r2, [r2, #78]	@ movhi
 238 020c 92B2     		uxth	r2, r2
 239 020e 4FEA1222 		lsr	r2, r2, #8
 240 0212 92B2     		uxth	r2, r2
ARM GAS  C:\DOCUME~1\ADMINI~1\LOCALS~1\Temp\ccVGVA3e.s 			page 10


 241 0214 D2B2     		uxtb	r2, r2
 242 0216 1A70     		strb	r2, [r3, #0]
 243 0218 46F25C03 		movw	r3, #:lower16:1073766492
 244 021c C4F20003 		movt	r3, #:upper16:1073766492
 245 0220 97F84D20 		ldrb	r2, [r7, #77]	@ zero_extendqisi2
 246 0224 4FEA2222 		asr	r2, r2, #8
 247 0228 D1B2     		uxtb	r1, r2
 248 022a 40F20002 		movw	r2, #:lower16:USBFS_EP
 249 022e C0F20002 		movt	r2, #:upper16:USBFS_EP
 250 0232 92F84B20 		ldrb	r2, [r2, #75]
 251 0236 D2B2     		uxtb	r2, r2
 252 0238 41EA0202 		orr	r2, r1, r2
 253 023c D2B2     		uxtb	r2, r2
 254 023e D2B2     		uxtb	r2, r2
 255 0240 1A70     		strb	r2, [r3, #0]
 256 0242 46F25D03 		movw	r3, #:lower16:1073766493
 257 0246 C4F20003 		movt	r3, #:upper16:1073766493
 258 024a 97F84D20 		ldrb	r2, [r7, #77]
 259 024e 1A70     		strb	r2, [r3, #0]
 260 0250 46F2D603 		movw	r3, #:lower16:1073766614
 261 0254 C4F20003 		movt	r3, #:upper16:1073766614
 262 0258 40F20002 		movw	r2, #:lower16:USBFS_EP
 263 025c C0F20002 		movt	r2, #:upper16:USBFS_EP
 264 0260 B2F84E20 		ldrh	r2, [r2, #78]	@ movhi
 265 0264 92B2     		uxth	r2, r2
 266 0266 D2B2     		uxtb	r2, r2
 267 0268 1A70     		strb	r2, [r3, #0]
 268 026a 46F2D703 		movw	r3, #:lower16:1073766615
 269 026e C4F20003 		movt	r3, #:upper16:1073766615
 270 0272 40F20002 		movw	r2, #:lower16:USBFS_EP
 271 0276 C0F20002 		movt	r2, #:upper16:USBFS_EP
 272 027a B2F84E20 		ldrh	r2, [r2, #78]	@ movhi
 273 027e 92B2     		uxth	r2, r2
 274 0280 4FEA1222 		lsr	r2, r2, #8
 275 0284 92B2     		uxth	r2, r2
 276 0286 D2B2     		uxtb	r2, r2
 277 0288 1A70     		strb	r2, [r3, #0]
 278 028a 40F20003 		movw	r3, #:lower16:USBFS_EP
 279 028e C0F20003 		movt	r3, #:upper16:USBFS_EP
 280 0292 4FF00002 		mov	r2, #0
 281 0296 83F84920 		strb	r2, [r3, #73]
 282 029a 46F25E03 		movw	r3, #:lower16:1073766494
 283 029e C4F20003 		movt	r3, #:upper16:1073766494
 284 02a2 40F20002 		movw	r2, #:lower16:USBFS_EP
 285 02a6 C0F20002 		movt	r2, #:upper16:USBFS_EP
 286 02aa 92F84D20 		ldrb	r2, [r2, #77]
 287 02ae D2B2     		uxtb	r2, r2
 288 02b0 1A70     		strb	r2, [r3, #0]
 289 02b2 40F20003 		movw	r3, #:lower16:UART_Bridge_rxBufferRead
 290 02b6 C0F20003 		movt	r3, #:upper16:UART_Bridge_rxBufferRead
 291 02ba 97F84E20 		ldrb	r2, [r7, #78]
 292 02be 1A70     		strb	r2, [r3, #0]
 293 02c0 40F20003 		movw	r3, #:lower16:UART_Bridge_rxBufferLoopDetect
 294 02c4 C0F20003 		movt	r3, #:upper16:UART_Bridge_rxBufferLoopDetect
 295 02c8 4FF00002 		mov	r2, #0
 296 02cc 1A70     		strb	r2, [r3, #0]
 297              	.L24:
ARM GAS  C:\DOCUME~1\ADMINI~1\LOCALS~1\Temp\ccVGVA3e.s 			page 11


 298              	.LBE4:
 270:.\USBUART.c   **** 
 271:.\USBUART.c   **** 	return;
 272:.\USBUART.c   **** 
 273:.\USBUART.c   **** }
 299              		.loc 1 273 0
 300 02ce 07F15007 		add	r7, r7, #80
 301 02d2 BD46     		mov	sp, r7
 302 02d4 80BD     		pop	{r7, pc}
 303              		.cfi_endproc
 304              	.LFE29:
 305              		.size	UARTBridgeComm, .-UARTBridgeComm
 306 02d6 00BF     		.section	.text.USBUARTInit,"ax",%progbits
 307              		.align	2
 308              		.global	USBUARTInit
 309              		.thumb
 310              		.thumb_func
 311              		.type	USBUARTInit, %function
 312              	USBUARTInit:
 313              	.LFB30:
 274:.\USBUART.c   **** 
 275:.\USBUART.c   **** 
 276:.\USBUART.c   **** /*******************************************************************************
 277:.\USBUART.c   **** * Function Name: USBUARTInit()
 278:.\USBUART.c   **** ********************************************************************************
 279:.\USBUART.c   **** * Summary:
 280:.\USBUART.c   **** * Starts the UART, sets Tx Pin to HiZ to save power during enumeration
 281:.\USBUART.c   **** *
 282:.\USBUART.c   **** * Parameters:
 283:.\USBUART.c   **** *  void
 284:.\USBUART.c   **** *
 285:.\USBUART.c   **** * Return:
 286:.\USBUART.c   **** *  void
 287:.\USBUART.c   **** *
 288:.\USBUART.c   **** *******************************************************************************/
 289:.\USBUART.c   **** 
 290:.\USBUART.c   **** void USBUARTInit (void)
 291:.\USBUART.c   **** {
 314              		.loc 1 291 0
 315              		.cfi_startproc
 316              		@ args = 0, pretend = 0, frame = 0
 317              		@ frame_needed = 1, uses_anonymous_args = 0
 318 0000 80B5     		push	{r7, lr}
 319              	.LCFI3:
 320              		.cfi_def_cfa_offset 8
 321 0002 00AF     		add	r7, sp, #0
 322              		.cfi_offset 14, -4
 323              		.cfi_offset 7, -8
 324              	.LCFI4:
 325              		.cfi_def_cfa_register 7
 292:.\USBUART.c   **** 
 293:.\USBUART.c   **** 	UART_Bridge_Start();
 326              		.loc 1 293 0
 327 0004 FFF7FEFF 		bl	UART_Bridge_Start
 294:.\USBUART.c   **** 	Pin_UART_Tx_SetDriveMode(Pin_UART_Tx_DM_DIG_HIZ);
 328              		.loc 1 294 0
 329 0008 4FF00200 		mov	r0, #2
ARM GAS  C:\DOCUME~1\ADMINI~1\LOCALS~1\Temp\ccVGVA3e.s 			page 12


 330 000c FFF7FEFF 		bl	Pin_UART_Tx_SetDriveMode
 295:.\USBUART.c   **** 
 296:.\USBUART.c   **** }
 331              		.loc 1 296 0
 332 0010 80BD     		pop	{r7, pc}
 333              		.cfi_endproc
 334              	.LFE30:
 335              		.size	USBUARTInit, .-USBUARTInit
 336 0012 00BF     		.section	.text.USBUARTStart,"ax",%progbits
 337              		.align	2
 338              		.global	USBUARTStart
 339              		.thumb
 340              		.thumb_func
 341              		.type	USBUARTStart, %function
 342              	USBUARTStart:
 343              	.LFB31:
 297:.\USBUART.c   **** 
 298:.\USBUART.c   **** /*******************************************************************************
 299:.\USBUART.c   **** * Function Name: USBUARTStart()
 300:.\USBUART.c   **** ********************************************************************************
 301:.\USBUART.c   **** * Summary:
 302:.\USBUART.c   **** * Initializes CDC Interface, Sets Tx Pin to Strong Drive
 303:.\USBUART.c   **** *
 304:.\USBUART.c   **** * Parameters:
 305:.\USBUART.c   **** *  void
 306:.\USBUART.c   **** *
 307:.\USBUART.c   **** * Return:
 308:.\USBUART.c   **** *  void
 309:.\USBUART.c   **** *
 310:.\USBUART.c   **** *******************************************************************************/
 311:.\USBUART.c   **** 
 312:.\USBUART.c   **** void USBUARTStart (void)
 313:.\USBUART.c   **** {
 344              		.loc 1 313 0
 345              		.cfi_startproc
 346              		@ args = 0, pretend = 0, frame = 0
 347              		@ frame_needed = 1, uses_anonymous_args = 0
 348 0000 80B5     		push	{r7, lr}
 349              	.LCFI5:
 350              		.cfi_def_cfa_offset 8
 351 0002 00AF     		add	r7, sp, #0
 352              		.cfi_offset 14, -4
 353              		.cfi_offset 7, -8
 354              	.LCFI6:
 355              		.cfi_def_cfa_register 7
 314:.\USBUART.c   **** 	/* Initialize CDC Interface for USB-UART Bridge */
 315:.\USBUART.c   **** 	USBFS_CDC_Init();
 356              		.loc 1 315 0
 357 0004 FFF7FEFF 		bl	USBFS_CDC_Init
 316:.\USBUART.c   **** 	Pin_UART_Tx_SetDriveMode(Pin_UART_Tx_DM_STRONG);
 358              		.loc 1 316 0
 359 0008 4FF00C00 		mov	r0, #12
 360 000c FFF7FEFF 		bl	Pin_UART_Tx_SetDriveMode
 317:.\USBUART.c   **** 
 318:.\USBUART.c   **** }
 361              		.loc 1 318 0
 362 0010 80BD     		pop	{r7, pc}
ARM GAS  C:\DOCUME~1\ADMINI~1\LOCALS~1\Temp\ccVGVA3e.s 			page 13


 363              		.cfi_endproc
 364              	.LFE31:
 365              		.size	USBUARTStart, .-USBUARTStart
 366 0012 00BF     		.text
 367              	.Letext0: