ARM GAS  C:\DOCUME~1\ADMINI~1\LOCALS~1\Temp\cci4qIsL.s 			page 1


   1              		.syntax unified
   2              		.cpu cortex-m3
   3              		.fpu softvfp
   4              		.eabi_attribute 20, 1
   5              		.eabi_attribute 21, 1
   6              		.eabi_attribute 23, 3
   7              		.eabi_attribute 24, 1
   8              		.eabi_attribute 25, 1
   9              		.eabi_attribute 26, 1
  10              		.eabi_attribute 30, 6
  11              		.eabi_attribute 18, 4
  12              		.thumb
  13              		.file	"version.c"
  20 0000 BA000000 		.text
  20      02005600 
  20      00000201 
  20      FB0E0D00 
  20      01010101 
  21              	.Ltext0:
  22              		.cfi_sections	.debug_frame
  23              		.global	kitProgHWVersion
  24              		.bss
  25              		.type	kitProgHWVersion, %object
  26              		.size	kitProgHWVersion, 1
  27              	kitProgHWVersion:
  28 0000 00       		.space	1
  29              		.global	version
  30              		.data
  31              		.align	2
  32              		.type	version, %object
  33              		.size	version, 18
  34              	version:
  35 0000 43797072 		.ascii	"Cypress-TTBridge"
  35      6573732D 
  35      54544272 
  35      69646765 
  36 0010 02       		.byte	2
  37 0011 03       		.byte	3
  38 0012 0000     		.section	.text.CheckHWVerPerPin,"ax",%progbits
  39              		.align	2
  40              		.thumb
  41              		.thumb_func
  42              		.type	CheckHWVerPerPin, %function
  43              	CheckHWVerPerPin:
  44              	.LFB29:
  45              		.file 1 ".\\version.c"
   1:.\version.c   **** /*****************************************************************************
   2:.\version.c   **** * File Name: version.c
   3:.\version.c   **** * Version 2.03
   4:.\version.c   **** *
   5:.\version.c   **** * Description:
ARM GAS  C:\DOCUME~1\ADMINI~1\LOCALS~1\Temp\cci4qIsL.s 			page 2


   6:.\version.c   **** *  This file provides the source code to handle version information.
   7:.\version.c   **** *
   8:.\version.c   **** * Owner:
   9:.\version.c   **** *	Ranjith M, Applications Engineer (rnjt@cypress.com)
  10:.\version.c   **** *
  11:.\version.c   **** * Related Document:
  12:.\version.c   **** * 	001-85925 - CY8CKIT-042 PSoC 4 Pioneer Kit IROS
  13:.\version.c   **** *
  14:.\version.c   **** * Hardware Dependency:
  15:.\version.c   **** * 	CY8CKIT-042 (KitProg) 
  16:.\version.c   **** *
  17:.\version.c   **** * Code Tested With:
  18:.\version.c   **** * 	Creator 2.2
  19:.\version.c   **** *	GCC1 4.4.1
  20:.\version.c   **** *	CY8CKIT-042 Rev 1
  21:.\version.c   **** *
  22:.\version.c   **** ******************************************************************************
  23:.\version.c   **** * Copyright (2013), Cypress Semiconductor Corporation.
  24:.\version.c   **** ******************************************************************************
  25:.\version.c   **** * This software is owned by Cypress Semiconductor Corporation (Cypress) and is
  26:.\version.c   **** * protected by and subject to worldwide patent protection (United States and
  27:.\version.c   **** * foreign), United States copyright laws and international treaty provisions.
  28:.\version.c   **** * Cypress hereby grants to licensee a personal, non-exclusive, non-transferable
  29:.\version.c   **** * license to copy, use, modify, create derivative works of, and compile the
  30:.\version.c   **** * Cypress Source Code and derivative works for the sole purpose of creating
  31:.\version.c   **** * custom software in support of licensee product to be used only in conjunction
  32:.\version.c   **** * with a Cypress integrated circuit as specified in the applicable agreement.
  33:.\version.c   **** * Any reproduction, modification, translation, compilation, or representation of
  34:.\version.c   **** * this software except as specified above is prohibited without the express
  35:.\version.c   **** * written permission of Cypress.
  36:.\version.c   **** *
  37:.\version.c   **** * Disclaimer: CYPRESS MAKES NO WARRANTY OF ANY KIND, EXPRESS OR IMPLIED, WITH
  38:.\version.c   **** * REGARD TO THIS MATERIAL, INCLUDING, BUT NOT LIMITED TO, THE IMPLIED
  39:.\version.c   **** * WARRANTIES OF MERCHANTABILITY AND FITNESS FOR A PARTICULAR PURPOSE.
  40:.\version.c   **** * Cypress reserves the right to make changes without further notice to the
  41:.\version.c   **** * materials described herein. Cypress does not assume any liability arising out
  42:.\version.c   **** * of the application or use of any product or circuit described herein. Cypress
  43:.\version.c   **** * does not authorize its products for use as critical components in life-support
  44:.\version.c   **** * systems where a malfunction or failure may reasonably be expected to result in
  45:.\version.c   **** * significant injury to the user. The inclusion of Cypress' product in a life-
  46:.\version.c   **** * support systems application implies that the manufacturer assumes all risk of
  47:.\version.c   **** * such use and in doing so indemnifies Cypress against all charges. Use may be
  48:.\version.c   **** * limited by and subject to the applicable Cypress software license agreement.
  49:.\version.c   **** *****************************************************************************/
  50:.\version.c   **** 
  51:.\version.c   **** #include "kitprog.h"
  52:.\version.c   **** 
  53:.\version.c   **** /*****************************************************************************
  54:.\version.c   **** * Local Function Prototypes
  55:.\version.c   **** *****************************************************************************/
  56:.\version.c   **** static uint8 CheckHWVerPerPin(uint8 bValuePullup, uint8 bValuePullDwn);
  57:.\version.c   **** 
  58:.\version.c   **** /*****************************************************************************
  59:.\version.c   **** * Global Variable Declarations
  60:.\version.c   **** *****************************************************************************/
  61:.\version.c   **** uint8 kitProgHWVersion = 0;
  62:.\version.c   **** /*****************************************************************************
ARM GAS  C:\DOCUME~1\ADMINI~1\LOCALS~1\Temp\cci4qIsL.s 			page 3


  63:.\version.c   **** * Local Global Variable Declarations
  64:.\version.c   **** *****************************************************************************/
  65:.\version.c   **** 
  66:.\version.c   **** volatile struct{
  67:.\version.c   ****     uint8 signature[16]; 
  68:.\version.c   ****     uint8 verMajor;
  69:.\version.c   ****     uint8 verMinor;
  70:.\version.c   **** }version = 
  71:.\version.c   **** {
  72:.\version.c   **** 	/* Signature retained due to compatibility requirements with the programmer. */
  73:.\version.c   ****     "Cypress-TTBridge", 
  74:.\version.c   ****     VER_MAJOR, 
  75:.\version.c   ****     VER_MINOR,
  76:.\version.c   **** };
  77:.\version.c   **** 
  78:.\version.c   **** 
  79:.\version.c   **** /*******************************************************************************
  80:.\version.c   **** * The Hardware verison pins are either connected to the ground or left floating.
  81:.\version.c   **** * There are 6 hardware revision pins, P2[6:1]. A floating pin is equivalent to a 0
  82:.\version.c   **** * and a grounded pin equivalent to 1 in version calculcation. So, if all pins 
  83:.\version.c   **** * are floating, hardware revision is 000000b (=0x00). The number of versions can
  84:.\version.c   **** * thus go upto 111111b (=0x3F).
  85:.\version.c   **** * ------------------------------------------------------------------------------
  86:.\version.c   **** 
  87:.\version.c   **** ********************************************************************************/
  88:.\version.c   **** 
  89:.\version.c   **** /*******************************************************************************
  90:.\version.c   **** * Function Name: CheckHWVerPerPin()
  91:.\version.c   **** ********************************************************************************
  92:.\version.c   **** * Summary:
  93:.\version.c   **** * Checks whether the pins are floating or grounded.
  94:.\version.c   **** *
  95:.\version.c   **** * Parameters:
  96:.\version.c   **** *  void
  97:.\version.c   **** *
  98:.\version.c   **** * Return:
  99:.\version.c   **** *  void
 100:.\version.c   **** *
 101:.\version.c   **** *******************************************************************************/
 102:.\version.c   **** uint8 CheckHWVerPerPin(uint8 bValuePullup, uint8 bValuePullDwn)
 103:.\version.c   **** {
  46              		.loc 1 103 0
  47              		.cfi_startproc
  48              		@ args = 0, pretend = 0, frame = 16
  49              		@ frame_needed = 1, uses_anonymous_args = 0
  50              		@ link register save eliminated.
  51 0000 80B4     		push	{r7}
  52              	.LCFI0:
  53              		.cfi_def_cfa_offset 4
  54 0002 85B0     		sub	sp, sp, #20
  55              	.LCFI1:
  56              		.cfi_def_cfa_offset 24
  57 0004 00AF     		add	r7, sp, #0
  58              		.cfi_offset 7, -4
  59              	.LCFI2:
  60              		.cfi_def_cfa_register 7
  61 0006 0246     		mov	r2, r0
ARM GAS  C:\DOCUME~1\ADMINI~1\LOCALS~1\Temp\cci4qIsL.s 			page 4


  62 0008 0B46     		mov	r3, r1
  63 000a FA71     		strb	r2, [r7, #7]
  64 000c BB71     		strb	r3, [r7, #6]
 104:.\version.c   ****     uint8 bHwVer = NOT_CONNECTED;
  65              		.loc 1 104 0
  66 000e 4FF00103 		mov	r3, #1
  67 0012 FB73     		strb	r3, [r7, #15]
 105:.\version.c   ****     
 106:.\version.c   ****     if(bValuePullup != 0 && bValuePullDwn == 0)
  68              		.loc 1 106 0
  69 0014 FB79     		ldrb	r3, [r7, #7]	@ zero_extendqisi2
  70 0016 002B     		cmp	r3, #0
  71 0018 06D0     		beq	.L2
  72 001a BB79     		ldrb	r3, [r7, #6]	@ zero_extendqisi2
  73 001c 002B     		cmp	r3, #0
  74 001e 03D1     		bne	.L2
 107:.\version.c   ****     {
 108:.\version.c   ****         /* Follows pull up/down, so it is floating */
 109:.\version.c   ****         bHwVer = NOT_CONNECTED;
  75              		.loc 1 109 0
  76 0020 4FF00103 		mov	r3, #1
  77 0024 FB73     		strb	r3, [r7, #15]
  78              		.loc 1 106 0
  79 0026 08E0     		b	.L3
  80              	.L2:
 110:.\version.c   ****     }
 111:.\version.c   ****     else if(bValuePullup == 0 && bValuePullDwn == 0) 
  81              		.loc 1 111 0
  82 0028 FB79     		ldrb	r3, [r7, #7]	@ zero_extendqisi2
  83 002a 002B     		cmp	r3, #0
  84 002c 05D1     		bne	.L3
  85 002e BB79     		ldrb	r3, [r7, #6]	@ zero_extendqisi2
  86 0030 002B     		cmp	r3, #0
  87 0032 02D1     		bne	.L3
 112:.\version.c   ****     {
 113:.\version.c   ****         /* Always LOW, so it is GND */
 114:.\version.c   ****         bHwVer = GROUND;
  88              		.loc 1 114 0
  89 0034 4FF00203 		mov	r3, #2
  90 0038 FB73     		strb	r3, [r7, #15]
  91              	.L3:
 115:.\version.c   ****     }
 116:.\version.c   ****     else
 117:.\version.c   ****     {
 118:.\version.c   ****         /* Shall not be here because these lines are never pulled up in the hardware */
 119:.\version.c   ****     }
 120:.\version.c   ****     
 121:.\version.c   ****     return bHwVer;
  92              		.loc 1 121 0
  93 003a FB7B     		ldrb	r3, [r7, #15]	@ zero_extendqisi2
 122:.\version.c   **** }
  94              		.loc 1 122 0
  95 003c 1846     		mov	r0, r3
  96 003e 07F11407 		add	r7, r7, #20
  97 0042 BD46     		mov	sp, r7
  98 0044 80BC     		pop	{r7}
  99 0046 7047     		bx	lr
ARM GAS  C:\DOCUME~1\ADMINI~1\LOCALS~1\Temp\cci4qIsL.s 			page 5


 100              		.cfi_endproc
 101              	.LFE29:
 102              		.size	CheckHWVerPerPin, .-CheckHWVerPerPin
 103              		.section	.text.GetHWVersion,"ax",%progbits
 104              		.align	2
 105              		.global	GetHWVersion
 106              		.thumb
 107              		.thumb_func
 108              		.type	GetHWVersion, %function
 109              	GetHWVersion:
 110              	.LFB30:
 123:.\version.c   **** 
 124:.\version.c   **** /*******************************************************************************
 125:.\version.c   **** * Function Name: GetHWVersion()
 126:.\version.c   **** ********************************************************************************
 127:.\version.c   **** * Summary:
 128:.\version.c   **** * Calculates the hardware version of the KitProg board.
 129:.\version.c   **** *
 130:.\version.c   **** * Parameters:
 131:.\version.c   **** *  void
 132:.\version.c   **** *
 133:.\version.c   **** * Return:
 134:.\version.c   **** *  void
 135:.\version.c   **** *
 136:.\version.c   **** *******************************************************************************/
 137:.\version.c   **** void GetHWVersion(void)
 138:.\version.c   **** {
 111              		.loc 1 138 0
 112              		.cfi_startproc
 113              		@ args = 0, pretend = 0, frame = 40
 114              		@ frame_needed = 1, uses_anonymous_args = 0
 115 0000 80B5     		push	{r7, lr}
 116              	.LCFI3:
 117              		.cfi_def_cfa_offset 8
 118 0002 8AB0     		sub	sp, sp, #40
 119              	.LCFI4:
 120              		.cfi_def_cfa_offset 48
 121 0004 00AF     		add	r7, sp, #0
 122              		.cfi_offset 14, -4
 123              		.cfi_offset 7, -8
 124              	.LCFI5:
 125              		.cfi_def_cfa_register 7
 139:.\version.c   ****     uint8 bValuePullUp[6];
 140:.\version.c   ****     uint8 bValuePullDwn[6];
 141:.\version.c   **** 	uint8 sigCheck[16];
 142:.\version.c   **** 	uint8 verCheck;
 143:.\version.c   **** 	uint8 index = 0;
 126              		.loc 1 143 0
 127 0006 4FF00003 		mov	r3, #0
 128 000a 87F82630 		strb	r3, [r7, #38]
 144:.\version.c   **** 	uint8 ver = 0;
 129              		.loc 1 144 0
 130 000e 4FF00003 		mov	r3, #0
 131 0012 87F82730 		strb	r3, [r7, #39]
 145:.\version.c   ****     
 146:.\version.c   **** 	/* To avoid the signature value being optimized out by the compiler. */
 147:.\version.c   **** 	sigCheck[0] = version.signature[0];
ARM GAS  C:\DOCUME~1\ADMINI~1\LOCALS~1\Temp\cci4qIsL.s 			page 6


 132              		.loc 1 147 0
 133 0016 40F20003 		movw	r3, #:lower16:version
 134 001a C0F20003 		movt	r3, #:upper16:version
 135 001e 1B78     		ldrb	r3, [r3, #0]
 136 0020 DBB2     		uxtb	r3, r3
 137 0022 3B71     		strb	r3, [r7, #4]
 148:.\version.c   **** 	verCheck = version.verMajor + version.verMinor;
 138              		.loc 1 148 0
 139 0024 40F20003 		movw	r3, #:lower16:version
 140 0028 C0F20003 		movt	r3, #:upper16:version
 141 002c 1B7C     		ldrb	r3, [r3, #16]
 142 002e DAB2     		uxtb	r2, r3
 143 0030 40F20003 		movw	r3, #:lower16:version
 144 0034 C0F20003 		movt	r3, #:upper16:version
 145 0038 5B7C     		ldrb	r3, [r3, #17]
 146 003a DBB2     		uxtb	r3, r3
 147 003c 1344     		add	r3, r2, r3
 148 003e 87F82530 		strb	r3, [r7, #37]
 149:.\version.c   **** 
 150:.\version.c   **** 	
 151:.\version.c   ****     /* Drive pins resistive pull up and down */
 152:.\version.c   ****     CyPins_SetPinDriveMode(Pin_HWVersionA_0, Pin_HWVersionA_DM_RES_UPDWN);
 149              		.loc 1 152 0
 150 0042 45F20403 		movw	r3, #:lower16:1073762308
 151 0046 C4F20003 		movt	r3, #:upper16:1073762308
 152 004a 45F20402 		movw	r2, #:lower16:1073762308
 153 004e C4F20002 		movt	r2, #:upper16:1073762308
 154 0052 1278     		ldrb	r2, [r2, #0]
 155 0054 D2B2     		uxtb	r2, r2
 156 0056 42F00E02 		orr	r2, r2, #14
 157 005a D2B2     		uxtb	r2, r2
 158 005c D2B2     		uxtb	r2, r2
 159 005e 1A70     		strb	r2, [r3, #0]
 153:.\version.c   **** 	CyPins_SetPinDriveMode(Pin_HWVersionB_0, Pin_HWVersionB_DM_RES_UPDWN);
 160              		.loc 1 153 0
 161 0060 45F20503 		movw	r3, #:lower16:1073762309
 162 0064 C4F20003 		movt	r3, #:upper16:1073762309
 163 0068 45F20502 		movw	r2, #:lower16:1073762309
 164 006c C4F20002 		movt	r2, #:upper16:1073762309
 165 0070 1278     		ldrb	r2, [r2, #0]
 166 0072 D2B2     		uxtb	r2, r2
 167 0074 42F00E02 		orr	r2, r2, #14
 168 0078 D2B2     		uxtb	r2, r2
 169 007a D2B2     		uxtb	r2, r2
 170 007c 1A70     		strb	r2, [r3, #0]
 154:.\version.c   **** 	CyPins_SetPinDriveMode(Pin_HWVersionC_0, Pin_HWVersionC_DM_RES_UPDWN);
 171              		.loc 1 154 0
 172 007e 45F20603 		movw	r3, #:lower16:1073762310
 173 0082 C4F20003 		movt	r3, #:upper16:1073762310
 174 0086 45F20602 		movw	r2, #:lower16:1073762310
 175 008a C4F20002 		movt	r2, #:upper16:1073762310
 176 008e 1278     		ldrb	r2, [r2, #0]
 177 0090 D2B2     		uxtb	r2, r2
 178 0092 42F00E02 		orr	r2, r2, #14
 179 0096 D2B2     		uxtb	r2, r2
 180 0098 D2B2     		uxtb	r2, r2
 181 009a 1A70     		strb	r2, [r3, #0]
ARM GAS  C:\DOCUME~1\ADMINI~1\LOCALS~1\Temp\cci4qIsL.s 			page 7


 155:.\version.c   **** 	CyPins_SetPinDriveMode(Pin_HWVersionD_0, Pin_HWVersionD_DM_RES_UPDWN);
 182              		.loc 1 155 0
 183 009c 45F20703 		movw	r3, #:lower16:1073762311
 184 00a0 C4F20003 		movt	r3, #:upper16:1073762311
 185 00a4 45F20702 		movw	r2, #:lower16:1073762311
 186 00a8 C4F20002 		movt	r2, #:upper16:1073762311
 187 00ac 1278     		ldrb	r2, [r2, #0]
 188 00ae D2B2     		uxtb	r2, r2
 189 00b0 42F00E02 		orr	r2, r2, #14
 190 00b4 D2B2     		uxtb	r2, r2
 191 00b6 D2B2     		uxtb	r2, r2
 192 00b8 1A70     		strb	r2, [r3, #0]
 156:.\version.c   **** 	CyPins_SetPinDriveMode(Pin_HWVersionE_0, Pin_HWVersionE_DM_RES_UPDWN);
 193              		.loc 1 156 0
 194 00ba 45F21A03 		movw	r3, #:lower16:1073762330
 195 00be C4F20003 		movt	r3, #:upper16:1073762330
 196 00c2 45F21A02 		movw	r2, #:lower16:1073762330
 197 00c6 C4F20002 		movt	r2, #:upper16:1073762330
 198 00ca 1278     		ldrb	r2, [r2, #0]
 199 00cc D2B2     		uxtb	r2, r2
 200 00ce 42F00E02 		orr	r2, r2, #14
 201 00d2 D2B2     		uxtb	r2, r2
 202 00d4 D2B2     		uxtb	r2, r2
 203 00d6 1A70     		strb	r2, [r3, #0]
 157:.\version.c   **** 	CyPins_SetPinDriveMode(Pin_HWVersionF_0, Pin_HWVersionF_DM_RES_UPDWN);
 204              		.loc 1 157 0
 205 00d8 45F21B03 		movw	r3, #:lower16:1073762331
 206 00dc C4F20003 		movt	r3, #:upper16:1073762331
 207 00e0 45F21B02 		movw	r2, #:lower16:1073762331
 208 00e4 C4F20002 		movt	r2, #:upper16:1073762331
 209 00e8 1278     		ldrb	r2, [r2, #0]
 210 00ea D2B2     		uxtb	r2, r2
 211 00ec 42F00E02 		orr	r2, r2, #14
 212 00f0 D2B2     		uxtb	r2, r2
 213 00f2 D2B2     		uxtb	r2, r2
 214 00f4 1A70     		strb	r2, [r3, #0]
 158:.\version.c   **** 
 159:.\version.c   **** 	/* Set and Clear the pin to check whether the pins are floating or grounded. */
 160:.\version.c   **** 	/* Set the pins */
 161:.\version.c   ****     CyPins_SetPin(Pin_HWVersionA_0);
 215              		.loc 1 161 0
 216 00f6 45F20403 		movw	r3, #:lower16:1073762308
 217 00fa C4F20003 		movt	r3, #:upper16:1073762308
 218 00fe 45F20402 		movw	r2, #:lower16:1073762308
 219 0102 C4F20002 		movt	r2, #:upper16:1073762308
 220 0106 1278     		ldrb	r2, [r2, #0]
 221 0108 D2B2     		uxtb	r2, r2
 222 010a 42F00102 		orr	r2, r2, #1
 223 010e D2B2     		uxtb	r2, r2
 224 0110 1A70     		strb	r2, [r3, #0]
 162:.\version.c   **** 	CyPins_SetPin(Pin_HWVersionB_0);
 225              		.loc 1 162 0
 226 0112 45F20503 		movw	r3, #:lower16:1073762309
 227 0116 C4F20003 		movt	r3, #:upper16:1073762309
 228 011a 45F20502 		movw	r2, #:lower16:1073762309
 229 011e C4F20002 		movt	r2, #:upper16:1073762309
 230 0122 1278     		ldrb	r2, [r2, #0]
ARM GAS  C:\DOCUME~1\ADMINI~1\LOCALS~1\Temp\cci4qIsL.s 			page 8


 231 0124 D2B2     		uxtb	r2, r2
 232 0126 42F00102 		orr	r2, r2, #1
 233 012a D2B2     		uxtb	r2, r2
 234 012c 1A70     		strb	r2, [r3, #0]
 163:.\version.c   **** 	CyPins_SetPin(Pin_HWVersionC_0);
 235              		.loc 1 163 0
 236 012e 45F20603 		movw	r3, #:lower16:1073762310
 237 0132 C4F20003 		movt	r3, #:upper16:1073762310
 238 0136 45F20602 		movw	r2, #:lower16:1073762310
 239 013a C4F20002 		movt	r2, #:upper16:1073762310
 240 013e 1278     		ldrb	r2, [r2, #0]
 241 0140 D2B2     		uxtb	r2, r2
 242 0142 42F00102 		orr	r2, r2, #1
 243 0146 D2B2     		uxtb	r2, r2
 244 0148 1A70     		strb	r2, [r3, #0]
 164:.\version.c   **** 	CyPins_SetPin(Pin_HWVersionD_0);
 245              		.loc 1 164 0
 246 014a 45F20703 		movw	r3, #:lower16:1073762311
 247 014e C4F20003 		movt	r3, #:upper16:1073762311
 248 0152 45F20702 		movw	r2, #:lower16:1073762311
 249 0156 C4F20002 		movt	r2, #:upper16:1073762311
 250 015a 1278     		ldrb	r2, [r2, #0]
 251 015c D2B2     		uxtb	r2, r2
 252 015e 42F00102 		orr	r2, r2, #1
 253 0162 D2B2     		uxtb	r2, r2
 254 0164 1A70     		strb	r2, [r3, #0]
 165:.\version.c   **** 	CyPins_SetPin(Pin_HWVersionE_0);
 255              		.loc 1 165 0
 256 0166 45F21A03 		movw	r3, #:lower16:1073762330
 257 016a C4F20003 		movt	r3, #:upper16:1073762330
 258 016e 45F21A02 		movw	r2, #:lower16:1073762330
 259 0172 C4F20002 		movt	r2, #:upper16:1073762330
 260 0176 1278     		ldrb	r2, [r2, #0]
 261 0178 D2B2     		uxtb	r2, r2
 262 017a 42F00102 		orr	r2, r2, #1
 263 017e D2B2     		uxtb	r2, r2
 264 0180 1A70     		strb	r2, [r3, #0]
 166:.\version.c   **** 	CyPins_SetPin(Pin_HWVersionF_0);
 265              		.loc 1 166 0
 266 0182 45F21B03 		movw	r3, #:lower16:1073762331
 267 0186 C4F20003 		movt	r3, #:upper16:1073762331
 268 018a 45F21B02 		movw	r2, #:lower16:1073762331
 269 018e C4F20002 		movt	r2, #:upper16:1073762331
 270 0192 1278     		ldrb	r2, [r2, #0]
 271 0194 D2B2     		uxtb	r2, r2
 272 0196 42F00102 		orr	r2, r2, #1
 273 019a D2B2     		uxtb	r2, r2
 274 019c 1A70     		strb	r2, [r3, #0]
 167:.\version.c   **** 	
 168:.\version.c   ****     CyDelay(10);
 275              		.loc 1 168 0
 276 019e 4FF00A00 		mov	r0, #10
 277 01a2 FFF7FEFF 		bl	CyDelay
 169:.\version.c   **** 	/* Read back the pins */
 170:.\version.c   **** 	bValuePullUp[0] = CyPins_ReadPin(Pin_HWVersionA_0);
 278              		.loc 1 170 0
 279 01a6 45F20403 		movw	r3, #:lower16:1073762308
ARM GAS  C:\DOCUME~1\ADMINI~1\LOCALS~1\Temp\cci4qIsL.s 			page 9


 280 01aa C4F20003 		movt	r3, #:upper16:1073762308
 281 01ae 1B78     		ldrb	r3, [r3, #0]
 282 01b0 DBB2     		uxtb	r3, r3
 283 01b2 03F01003 		and	r3, r3, #16
 284 01b6 3B77     		strb	r3, [r7, #28]
 171:.\version.c   **** 	bValuePullUp[1] = CyPins_ReadPin(Pin_HWVersionB_0);
 285              		.loc 1 171 0
 286 01b8 45F20503 		movw	r3, #:lower16:1073762309
 287 01bc C4F20003 		movt	r3, #:upper16:1073762309
 288 01c0 1B78     		ldrb	r3, [r3, #0]
 289 01c2 DBB2     		uxtb	r3, r3
 290 01c4 03F01003 		and	r3, r3, #16
 291 01c8 7B77     		strb	r3, [r7, #29]
 172:.\version.c   **** 	bValuePullUp[2] = CyPins_ReadPin(Pin_HWVersionC_0);
 292              		.loc 1 172 0
 293 01ca 45F20603 		movw	r3, #:lower16:1073762310
 294 01ce C4F20003 		movt	r3, #:upper16:1073762310
 295 01d2 1B78     		ldrb	r3, [r3, #0]
 296 01d4 DBB2     		uxtb	r3, r3
 297 01d6 03F01003 		and	r3, r3, #16
 298 01da BB77     		strb	r3, [r7, #30]
 173:.\version.c   **** 	bValuePullUp[3] = CyPins_ReadPin(Pin_HWVersionD_0);
 299              		.loc 1 173 0
 300 01dc 45F20703 		movw	r3, #:lower16:1073762311
 301 01e0 C4F20003 		movt	r3, #:upper16:1073762311
 302 01e4 1B78     		ldrb	r3, [r3, #0]
 303 01e6 DBB2     		uxtb	r3, r3
 304 01e8 03F01003 		and	r3, r3, #16
 305 01ec FB77     		strb	r3, [r7, #31]
 174:.\version.c   **** 	bValuePullUp[4] = CyPins_ReadPin(Pin_HWVersionE_0);
 306              		.loc 1 174 0
 307 01ee 45F21A03 		movw	r3, #:lower16:1073762330
 308 01f2 C4F20003 		movt	r3, #:upper16:1073762330
 309 01f6 1B78     		ldrb	r3, [r3, #0]
 310 01f8 DBB2     		uxtb	r3, r3
 311 01fa 03F01003 		and	r3, r3, #16
 312 01fe 87F82030 		strb	r3, [r7, #32]
 175:.\version.c   **** 	bValuePullUp[5] = CyPins_ReadPin(Pin_HWVersionF_0);
 313              		.loc 1 175 0
 314 0202 45F21B03 		movw	r3, #:lower16:1073762331
 315 0206 C4F20003 		movt	r3, #:upper16:1073762331
 316 020a 1B78     		ldrb	r3, [r3, #0]
 317 020c DBB2     		uxtb	r3, r3
 318 020e 03F01003 		and	r3, r3, #16
 319 0212 87F82130 		strb	r3, [r7, #33]
 176:.\version.c   **** 	
 177:.\version.c   **** 	/* Clear the pins */
 178:.\version.c   ****     CyPins_ClearPin(Pin_HWVersionA_0);
 320              		.loc 1 178 0
 321 0216 45F20403 		movw	r3, #:lower16:1073762308
 322 021a C4F20003 		movt	r3, #:upper16:1073762308
 323 021e 45F20402 		movw	r2, #:lower16:1073762308
 324 0222 C4F20002 		movt	r2, #:upper16:1073762308
 325 0226 1278     		ldrb	r2, [r2, #0]
 326 0228 D2B2     		uxtb	r2, r2
 327 022a 02F0FE02 		and	r2, r2, #254
 328 022e 1A70     		strb	r2, [r3, #0]
ARM GAS  C:\DOCUME~1\ADMINI~1\LOCALS~1\Temp\cci4qIsL.s 			page 10


 179:.\version.c   **** 	CyPins_ClearPin(Pin_HWVersionB_0);
 329              		.loc 1 179 0
 330 0230 45F20503 		movw	r3, #:lower16:1073762309
 331 0234 C4F20003 		movt	r3, #:upper16:1073762309
 332 0238 45F20502 		movw	r2, #:lower16:1073762309
 333 023c C4F20002 		movt	r2, #:upper16:1073762309
 334 0240 1278     		ldrb	r2, [r2, #0]
 335 0242 D2B2     		uxtb	r2, r2
 336 0244 02F0FE02 		and	r2, r2, #254
 337 0248 1A70     		strb	r2, [r3, #0]
 180:.\version.c   **** 	CyPins_ClearPin(Pin_HWVersionC_0);
 338              		.loc 1 180 0
 339 024a 45F20603 		movw	r3, #:lower16:1073762310
 340 024e C4F20003 		movt	r3, #:upper16:1073762310
 341 0252 45F20602 		movw	r2, #:lower16:1073762310
 342 0256 C4F20002 		movt	r2, #:upper16:1073762310
 343 025a 1278     		ldrb	r2, [r2, #0]
 344 025c D2B2     		uxtb	r2, r2
 345 025e 02F0FE02 		and	r2, r2, #254
 346 0262 1A70     		strb	r2, [r3, #0]
 181:.\version.c   **** 	CyPins_ClearPin(Pin_HWVersionD_0);
 347              		.loc 1 181 0
 348 0264 45F20703 		movw	r3, #:lower16:1073762311
 349 0268 C4F20003 		movt	r3, #:upper16:1073762311
 350 026c 45F20702 		movw	r2, #:lower16:1073762311
 351 0270 C4F20002 		movt	r2, #:upper16:1073762311
 352 0274 1278     		ldrb	r2, [r2, #0]
 353 0276 D2B2     		uxtb	r2, r2
 354 0278 02F0FE02 		and	r2, r2, #254
 355 027c 1A70     		strb	r2, [r3, #0]
 182:.\version.c   **** 	CyPins_ClearPin(Pin_HWVersionE_0);
 356              		.loc 1 182 0
 357 027e 45F21A03 		movw	r3, #:lower16:1073762330
 358 0282 C4F20003 		movt	r3, #:upper16:1073762330
 359 0286 45F21A02 		movw	r2, #:lower16:1073762330
 360 028a C4F20002 		movt	r2, #:upper16:1073762330
 361 028e 1278     		ldrb	r2, [r2, #0]
 362 0290 D2B2     		uxtb	r2, r2
 363 0292 02F0FE02 		and	r2, r2, #254
 364 0296 1A70     		strb	r2, [r3, #0]
 183:.\version.c   **** 	CyPins_ClearPin(Pin_HWVersionF_0);
 365              		.loc 1 183 0
 366 0298 45F21B03 		movw	r3, #:lower16:1073762331
 367 029c C4F20003 		movt	r3, #:upper16:1073762331
 368 02a0 45F21B02 		movw	r2, #:lower16:1073762331
 369 02a4 C4F20002 		movt	r2, #:upper16:1073762331
 370 02a8 1278     		ldrb	r2, [r2, #0]
 371 02aa D2B2     		uxtb	r2, r2
 372 02ac 02F0FE02 		and	r2, r2, #254
 373 02b0 1A70     		strb	r2, [r3, #0]
 184:.\version.c   ****     
 185:.\version.c   **** 	CyDelay(10);
 374              		.loc 1 185 0
 375 02b2 4FF00A00 		mov	r0, #10
 376 02b6 FFF7FEFF 		bl	CyDelay
 186:.\version.c   **** 	/* Read back the pins */
 187:.\version.c   **** 	bValuePullDwn[0] = CyPins_ReadPin(Pin_HWVersionA_0);
ARM GAS  C:\DOCUME~1\ADMINI~1\LOCALS~1\Temp\cci4qIsL.s 			page 11


 377              		.loc 1 187 0
 378 02ba 45F20403 		movw	r3, #:lower16:1073762308
 379 02be C4F20003 		movt	r3, #:upper16:1073762308
 380 02c2 1B78     		ldrb	r3, [r3, #0]
 381 02c4 DBB2     		uxtb	r3, r3
 382 02c6 03F01003 		and	r3, r3, #16
 383 02ca 3B75     		strb	r3, [r7, #20]
 188:.\version.c   **** 	bValuePullDwn[1] = CyPins_ReadPin(Pin_HWVersionB_0);
 384              		.loc 1 188 0
 385 02cc 45F20503 		movw	r3, #:lower16:1073762309
 386 02d0 C4F20003 		movt	r3, #:upper16:1073762309
 387 02d4 1B78     		ldrb	r3, [r3, #0]
 388 02d6 DBB2     		uxtb	r3, r3
 389 02d8 03F01003 		and	r3, r3, #16
 390 02dc 7B75     		strb	r3, [r7, #21]
 189:.\version.c   **** 	bValuePullDwn[2] = CyPins_ReadPin(Pin_HWVersionC_0);
 391              		.loc 1 189 0
 392 02de 45F20603 		movw	r3, #:lower16:1073762310
 393 02e2 C4F20003 		movt	r3, #:upper16:1073762310
 394 02e6 1B78     		ldrb	r3, [r3, #0]
 395 02e8 DBB2     		uxtb	r3, r3
 396 02ea 03F01003 		and	r3, r3, #16
 397 02ee BB75     		strb	r3, [r7, #22]
 190:.\version.c   **** 	bValuePullDwn[3] = CyPins_ReadPin(Pin_HWVersionD_0);
 398              		.loc 1 190 0
 399 02f0 45F20703 		movw	r3, #:lower16:1073762311
 400 02f4 C4F20003 		movt	r3, #:upper16:1073762311
 401 02f8 1B78     		ldrb	r3, [r3, #0]
 402 02fa DBB2     		uxtb	r3, r3
 403 02fc 03F01003 		and	r3, r3, #16
 404 0300 FB75     		strb	r3, [r7, #23]
 191:.\version.c   **** 	bValuePullDwn[4] = CyPins_ReadPin(Pin_HWVersionE_0);
 405              		.loc 1 191 0
 406 0302 45F21A03 		movw	r3, #:lower16:1073762330
 407 0306 C4F20003 		movt	r3, #:upper16:1073762330
 408 030a 1B78     		ldrb	r3, [r3, #0]
 409 030c DBB2     		uxtb	r3, r3
 410 030e 03F01003 		and	r3, r3, #16
 411 0312 3B76     		strb	r3, [r7, #24]
 192:.\version.c   **** 	bValuePullDwn[5] = CyPins_ReadPin(Pin_HWVersionF_0);
 412              		.loc 1 192 0
 413 0314 45F21B03 		movw	r3, #:lower16:1073762331
 414 0318 C4F20003 		movt	r3, #:upper16:1073762331
 415 031c 1B78     		ldrb	r3, [r3, #0]
 416 031e DBB2     		uxtb	r3, r3
 417 0320 03F01003 		and	r3, r3, #16
 418 0324 7B76     		strb	r3, [r7, #25]
 193:.\version.c   ****     
 194:.\version.c   ****     /* Drive to Hi-Z to save power */
 195:.\version.c   ****     CyPins_SetPinDriveMode(Pin_HWVersionA_0, Pin_HWVersionA_DM_DIG_HIZ);
 419              		.loc 1 195 0
 420 0326 45F20403 		movw	r3, #:lower16:1073762308
 421 032a C4F20003 		movt	r3, #:upper16:1073762308
 422 032e 45F20402 		movw	r2, #:lower16:1073762308
 423 0332 C4F20002 		movt	r2, #:upper16:1073762308
 424 0336 1278     		ldrb	r2, [r2, #0]
 425 0338 D2B2     		uxtb	r2, r2
ARM GAS  C:\DOCUME~1\ADMINI~1\LOCALS~1\Temp\cci4qIsL.s 			page 12


 426 033a D2B2     		uxtb	r2, r2
 427 033c 02F0F102 		and	r2, r2, #241
 428 0340 42F00202 		orr	r2, r2, #2
 429 0344 D2B2     		uxtb	r2, r2
 430 0346 D2B2     		uxtb	r2, r2
 431 0348 1A70     		strb	r2, [r3, #0]
 196:.\version.c   **** 	CyPins_SetPinDriveMode(Pin_HWVersionB_0, Pin_HWVersionB_DM_DIG_HIZ);
 432              		.loc 1 196 0
 433 034a 45F20503 		movw	r3, #:lower16:1073762309
 434 034e C4F20003 		movt	r3, #:upper16:1073762309
 435 0352 45F20502 		movw	r2, #:lower16:1073762309
 436 0356 C4F20002 		movt	r2, #:upper16:1073762309
 437 035a 1278     		ldrb	r2, [r2, #0]
 438 035c D2B2     		uxtb	r2, r2
 439 035e D2B2     		uxtb	r2, r2
 440 0360 02F0F102 		and	r2, r2, #241
 441 0364 42F00202 		orr	r2, r2, #2
 442 0368 D2B2     		uxtb	r2, r2
 443 036a D2B2     		uxtb	r2, r2
 444 036c 1A70     		strb	r2, [r3, #0]
 197:.\version.c   **** 	CyPins_SetPinDriveMode(Pin_HWVersionC_0, Pin_HWVersionC_DM_DIG_HIZ);
 445              		.loc 1 197 0
 446 036e 45F20603 		movw	r3, #:lower16:1073762310
 447 0372 C4F20003 		movt	r3, #:upper16:1073762310
 448 0376 45F20602 		movw	r2, #:lower16:1073762310
 449 037a C4F20002 		movt	r2, #:upper16:1073762310
 450 037e 1278     		ldrb	r2, [r2, #0]
 451 0380 D2B2     		uxtb	r2, r2
 452 0382 D2B2     		uxtb	r2, r2
 453 0384 02F0F102 		and	r2, r2, #241
 454 0388 42F00202 		orr	r2, r2, #2
 455 038c D2B2     		uxtb	r2, r2
 456 038e D2B2     		uxtb	r2, r2
 457 0390 1A70     		strb	r2, [r3, #0]
 198:.\version.c   **** 	CyPins_SetPinDriveMode(Pin_HWVersionD_0, Pin_HWVersionD_DM_DIG_HIZ);
 458              		.loc 1 198 0
 459 0392 45F20703 		movw	r3, #:lower16:1073762311
 460 0396 C4F20003 		movt	r3, #:upper16:1073762311
 461 039a 45F20702 		movw	r2, #:lower16:1073762311
 462 039e C4F20002 		movt	r2, #:upper16:1073762311
 463 03a2 1278     		ldrb	r2, [r2, #0]
 464 03a4 D2B2     		uxtb	r2, r2
 465 03a6 D2B2     		uxtb	r2, r2
 466 03a8 02F0F102 		and	r2, r2, #241
 467 03ac 42F00202 		orr	r2, r2, #2
 468 03b0 D2B2     		uxtb	r2, r2
 469 03b2 D2B2     		uxtb	r2, r2
 470 03b4 1A70     		strb	r2, [r3, #0]
 199:.\version.c   **** 	CyPins_SetPinDriveMode(Pin_HWVersionE_0, Pin_HWVersionE_DM_DIG_HIZ);
 471              		.loc 1 199 0
 472 03b6 45F21A03 		movw	r3, #:lower16:1073762330
 473 03ba C4F20003 		movt	r3, #:upper16:1073762330
 474 03be 45F21A02 		movw	r2, #:lower16:1073762330
 475 03c2 C4F20002 		movt	r2, #:upper16:1073762330
 476 03c6 1278     		ldrb	r2, [r2, #0]
 477 03c8 D2B2     		uxtb	r2, r2
 478 03ca D2B2     		uxtb	r2, r2
ARM GAS  C:\DOCUME~1\ADMINI~1\LOCALS~1\Temp\cci4qIsL.s 			page 13


 479 03cc 02F0F102 		and	r2, r2, #241
 480 03d0 42F00202 		orr	r2, r2, #2
 481 03d4 D2B2     		uxtb	r2, r2
 482 03d6 D2B2     		uxtb	r2, r2
 483 03d8 1A70     		strb	r2, [r3, #0]
 200:.\version.c   **** 	CyPins_SetPinDriveMode(Pin_HWVersionF_0, Pin_HWVersionF_DM_DIG_HIZ);
 484              		.loc 1 200 0
 485 03da 45F21B03 		movw	r3, #:lower16:1073762331
 486 03de C4F20003 		movt	r3, #:upper16:1073762331
 487 03e2 45F21B02 		movw	r2, #:lower16:1073762331
 488 03e6 C4F20002 		movt	r2, #:upper16:1073762331
 489 03ea 1278     		ldrb	r2, [r2, #0]
 490 03ec D2B2     		uxtb	r2, r2
 491 03ee D2B2     		uxtb	r2, r2
 492 03f0 02F0F102 		and	r2, r2, #241
 493 03f4 42F00202 		orr	r2, r2, #2
 494 03f8 D2B2     		uxtb	r2, r2
 495 03fa D2B2     		uxtb	r2, r2
 496 03fc 1A70     		strb	r2, [r3, #0]
 201:.\version.c   ****     
 202:.\version.c   ****     
 203:.\version.c   **** 	/* Calculate the HW version */
 204:.\version.c   **** 	for(index = 0; index < 6; index++)
 497              		.loc 1 204 0
 498 03fe 4FF00003 		mov	r3, #0
 499 0402 87F82630 		strb	r3, [r7, #38]
 500 0406 24E0     		b	.L6
 501              	.L7:
 205:.\version.c   **** 	{
 206:.\version.c   ****     	ver = ver + ((CheckHWVerPerPin(bValuePullUp[index], bValuePullDwn[index]) - 1) * (0x01 << inde
 502              		.loc 1 206 0
 503 0408 97F82630 		ldrb	r3, [r7, #38]	@ zero_extendqisi2
 504 040c 07F12801 		add	r1, r7, #40
 505 0410 0B44     		add	r3, r1, r3
 506 0412 13F80C2C 		ldrb	r2, [r3, #-12]	@ zero_extendqisi2
 507 0416 97F82630 		ldrb	r3, [r7, #38]	@ zero_extendqisi2
 508 041a 07F12801 		add	r1, r7, #40
 509 041e 0B44     		add	r3, r1, r3
 510 0420 13F8143C 		ldrb	r3, [r3, #-20]	@ zero_extendqisi2
 511 0424 1046     		mov	r0, r2
 512 0426 1946     		mov	r1, r3
 513 0428 FFF7FEFF 		bl	CheckHWVerPerPin
 514 042c 0346     		mov	r3, r0
 515 042e 03F1FF32 		add	r2, r3, #-1
 516 0432 97F82630 		ldrb	r3, [r7, #38]	@ zero_extendqisi2
 517 0436 02FA03F3 		lsl	r3, r2, r3
 518 043a DAB2     		uxtb	r2, r3
 519 043c 97F82730 		ldrb	r3, [r7, #39]
 520 0440 1344     		add	r3, r2, r3
 521 0442 87F82730 		strb	r3, [r7, #39]
 522              		.loc 1 204 0
 523 0446 97F82630 		ldrb	r3, [r7, #38]
 524 044a 03F10103 		add	r3, r3, #1
 525 044e 87F82630 		strb	r3, [r7, #38]
 526              	.L6:
 527 0452 97F82630 		ldrb	r3, [r7, #38]	@ zero_extendqisi2
 528 0456 052B     		cmp	r3, #5
ARM GAS  C:\DOCUME~1\ADMINI~1\LOCALS~1\Temp\cci4qIsL.s 			page 14


 529 0458 D6D9     		bls	.L7
 207:.\version.c   **** 	}
 208:.\version.c   **** 					 
 209:.\version.c   **** 	kitProgHWVersion = ver - 1;
 530              		.loc 1 209 0
 531 045a 97F82730 		ldrb	r3, [r7, #39]
 532 045e 03F1FF33 		add	r3, r3, #-1
 533 0462 DAB2     		uxtb	r2, r3
 534 0464 40F20003 		movw	r3, #:lower16:kitProgHWVersion
 535 0468 C0F20003 		movt	r3, #:upper16:kitProgHWVersion
 536 046c 1A70     		strb	r2, [r3, #0]
 210:.\version.c   **** 	return;
 211:.\version.c   **** }
 537              		.loc 1 211 0
 538 046e 07F12807 		add	r7, r7, #40
 539 0472 BD46     		mov	sp, r7
 540 0474 80BD     		pop	{r7, pc}
 541              		.cfi_endproc
 542              	.LFE30:
 543              		.size	GetHWVersion, .-GetHWVersion
 544 0476 00BF     		.text
 545              	.Letext0: