ARM GAS  C:\DOCUME~1\ADMINI~1\LOCALS~1\Temp\ccjQOVXj.s 			page 1


   1              		.syntax unified
   2              		.cpu cortex-m3
   3              		.fpu softvfp
   4              		.eabi_attribute 20, 1
   5              		.eabi_attribute 21, 1
   6              		.eabi_attribute 23, 3
   7              		.eabi_attribute 24, 1
   8              		.eabi_attribute 25, 1
   9              		.eabi_attribute 26, 1
  10              		.eabi_attribute 30, 6
  11              		.eabi_attribute 18, 4
  12              		.thumb
  13              		.file	"Bootloader.c"
  20 0000 24020000 		.text
  20      02007B00 
  20      00000201 
  20      FB0E0D00 
  20      01010101 
  21              	.Ltext0:
  22              		.cfi_sections	.debug_frame
  23              		.comm	flashBuffer,288,4
  24              		.global	Bootloader_Checksum
  25              		.section	.bootloader,"a",%progbits
  26              		.type	Bootloader_Checksum, %object
  27              		.size	Bootloader_Checksum, 1
  28              	Bootloader_Checksum:
  29 0000 00       		.space	1
  30              		.global	Bootloader_SizeBytes
  31 0001 000000   		.align	2
  32              		.type	Bootloader_SizeBytes, %object
  33              		.size	Bootloader_SizeBytes, 4
  34              	Bootloader_SizeBytes:
  35 0004 FFFFFFFF 		.word	-1
  36              		.global	Bootloader_ChecksumAccess
  37              		.data
  38              		.align	2
  39              		.type	Bootloader_ChecksumAccess, %object
  40              		.size	Bootloader_ChecksumAccess, 4
  41              	Bootloader_ChecksumAccess:
  42 0000 00000000 		.word	Bootloader_Checksum
  43              		.global	Bootloader_SizeBytesAccess
  44              		.align	2
  45              		.type	Bootloader_SizeBytesAccess, %object
  46              		.size	Bootloader_SizeBytesAccess, 4
  47              	Bootloader_SizeBytesAccess:
  48 0004 00000000 		.word	Bootloader_SizeBytes
  49              		.section	.text.Bootloader_CalcPacketChecksum,"ax",%progbits
  50              		.align	2
  51              		.global	Bootloader_CalcPacketChecksum
  52              		.thumb
  53              		.thumb_func
ARM GAS  C:\DOCUME~1\ADMINI~1\LOCALS~1\Temp\ccjQOVXj.s 			page 2


  54              		.type	Bootloader_CalcPacketChecksum, %function
  55              	Bootloader_CalcPacketChecksum:
  56              	.LFB29:
  57              		.file 1 ".\\Generated_Source\\PSoC5\\Bootloader.c"
   1:.\Generated_Source\PSoC5/Bootloader.c **** /*******************************************************************************
   2:.\Generated_Source\PSoC5/Bootloader.c **** * File Name: Bootloader.c
   3:.\Generated_Source\PSoC5/Bootloader.c **** * Version 1.10
   4:.\Generated_Source\PSoC5/Bootloader.c **** *
   5:.\Generated_Source\PSoC5/Bootloader.c **** *  Description:
   6:.\Generated_Source\PSoC5/Bootloader.c **** *   Provides an API for the Bootloader component. The API includes functions
   7:.\Generated_Source\PSoC5/Bootloader.c **** *   for starting boot loading operations, validating the application and
   8:.\Generated_Source\PSoC5/Bootloader.c **** *   jumping to the application.
   9:.\Generated_Source\PSoC5/Bootloader.c **** *
  10:.\Generated_Source\PSoC5/Bootloader.c **** ********************************************************************************
  11:.\Generated_Source\PSoC5/Bootloader.c **** * Copyright 2008-2013, Cypress Semiconductor Corporation.  All rights reserved.
  12:.\Generated_Source\PSoC5/Bootloader.c **** * You may use this file only in accordance with the license, terms, conditions,
  13:.\Generated_Source\PSoC5/Bootloader.c **** * disclaimers, and limitations in the end user license agreement accompanying
  14:.\Generated_Source\PSoC5/Bootloader.c **** * the software package with which this file was provided.
  15:.\Generated_Source\PSoC5/Bootloader.c **** *******************************************************************************/
  16:.\Generated_Source\PSoC5/Bootloader.c **** 
  17:.\Generated_Source\PSoC5/Bootloader.c **** #include "Bootloader.h"
  18:.\Generated_Source\PSoC5/Bootloader.c **** #include "device.h"
  19:.\Generated_Source\PSoC5/Bootloader.c **** #include <string.h>
  20:.\Generated_Source\PSoC5/Bootloader.c **** 
  21:.\Generated_Source\PSoC5/Bootloader.c **** 
  22:.\Generated_Source\PSoC5/Bootloader.c **** /*******************************************************************************
  23:.\Generated_Source\PSoC5/Bootloader.c **** * Defines
  24:.\Generated_Source\PSoC5/Bootloader.c **** *******************************************************************************/
  25:.\Generated_Source\PSoC5/Bootloader.c **** 
  26:.\Generated_Source\PSoC5/Bootloader.c **** #define Bootloader_VERSION        {10, 1, 0x01u}
  27:.\Generated_Source\PSoC5/Bootloader.c **** 
  28:.\Generated_Source\PSoC5/Bootloader.c **** /* Packet framing constants. */
  29:.\Generated_Source\PSoC5/Bootloader.c **** #define Bootloader_SOP            (0x01u)    /* Start of Packet */
  30:.\Generated_Source\PSoC5/Bootloader.c **** #define Bootloader_EOP            (0x17u)    /* End of Packet */
  31:.\Generated_Source\PSoC5/Bootloader.c **** 
  32:.\Generated_Source\PSoC5/Bootloader.c **** 
  33:.\Generated_Source\PSoC5/Bootloader.c **** /* Bootloader command responces */
  34:.\Generated_Source\PSoC5/Bootloader.c **** #define Bootloader_ERR_KEY       (0x01u)  /* The provided key does not match the expected value    
  35:.\Generated_Source\PSoC5/Bootloader.c **** #define Bootloader_ERR_VERIFY    (0x02u)  /* The verification of flash failed                      
  36:.\Generated_Source\PSoC5/Bootloader.c **** #define Bootloader_ERR_LENGTH    (0x03u)  /* The amount of data available is outside the expected r
  37:.\Generated_Source\PSoC5/Bootloader.c **** #define Bootloader_ERR_DATA      (0x04u)  /* The data is not of the proper form                    
  38:.\Generated_Source\PSoC5/Bootloader.c **** #define Bootloader_ERR_CMD       (0x05u)  /* The command is not recognized                         
  39:.\Generated_Source\PSoC5/Bootloader.c **** #define Bootloader_ERR_DEVICE    (0x06u)  /* The expected device does not match the detected device
  40:.\Generated_Source\PSoC5/Bootloader.c **** #define Bootloader_ERR_VERSION   (0x07u)  /* The bootloader version detected is not supported      
  41:.\Generated_Source\PSoC5/Bootloader.c **** #define Bootloader_ERR_CHECKSUM  (0x08u)  /* The checksum does not match the expected value        
  42:.\Generated_Source\PSoC5/Bootloader.c **** #define Bootloader_ERR_ARRAY     (0x09u)  /* The flash array is not valid                          
  43:.\Generated_Source\PSoC5/Bootloader.c **** #define Bootloader_ERR_ROW       (0x0Au)  /* The flash row is not valid                            
  44:.\Generated_Source\PSoC5/Bootloader.c **** #define Bootloader_ERR_PROTECT   (0x0Bu)  /* The flash row is protected and can not be programmed  
  45:.\Generated_Source\PSoC5/Bootloader.c **** #define Bootloader_ERR_APP       (0x0Cu)  /* The application is not valid and cannot be set as acti
  46:.\Generated_Source\PSoC5/Bootloader.c **** #define Bootloader_ERR_ACTIVE    (0x0Du)  /* The application is currently marked as active         
  47:.\Generated_Source\PSoC5/Bootloader.c **** #define Bootloader_ERR_UNK       (0x0Fu)  /* An unknown error occurred                             
  48:.\Generated_Source\PSoC5/Bootloader.c **** 
  49:.\Generated_Source\PSoC5/Bootloader.c **** 
  50:.\Generated_Source\PSoC5/Bootloader.c **** /* Bootloader command definitions. */
  51:.\Generated_Source\PSoC5/Bootloader.c **** #define Bootloader_COMMAND_CHECKSUM     (0x31u)    /* Verify the checksum for the bootloadable proj
  52:.\Generated_Source\PSoC5/Bootloader.c **** #define Bootloader_COMMAND_REPORT_SIZE  (0x32u)    /* Report the programmable portions of flash    
  53:.\Generated_Source\PSoC5/Bootloader.c **** #define Bootloader_COMMAND_APP_STATUS   (0x33u)    /* Gets status info about the provided app statu
ARM GAS  C:\DOCUME~1\ADMINI~1\LOCALS~1\Temp\ccjQOVXj.s 			page 3


  54:.\Generated_Source\PSoC5/Bootloader.c **** #define Bootloader_COMMAND_ERASE        (0x34u)    /* Erase the specified flash row                
  55:.\Generated_Source\PSoC5/Bootloader.c **** #define Bootloader_COMMAND_SYNC         (0x35u)    /* Sync the bootloader and host application     
  56:.\Generated_Source\PSoC5/Bootloader.c **** #define Bootloader_COMMAND_APP_ACTIVE   (0x36u)    /* Sets the active application                  
  57:.\Generated_Source\PSoC5/Bootloader.c **** #define Bootloader_COMMAND_DATA         (0x37u)    /* Queue up a block of data for programming     
  58:.\Generated_Source\PSoC5/Bootloader.c **** #define Bootloader_COMMAND_ENTER        (0x38u)    /* Enter the bootloader                         
  59:.\Generated_Source\PSoC5/Bootloader.c **** #define Bootloader_COMMAND_PROGRAM      (0x39u)    /* Program the specified row                    
  60:.\Generated_Source\PSoC5/Bootloader.c **** #define Bootloader_COMMAND_VERIFY       (0x3Au)    /* Compute flash row checksum for verification  
  61:.\Generated_Source\PSoC5/Bootloader.c **** #define Bootloader_COMMAND_EXIT         (0x3Bu)    /* Exits the bootloader & resets the chip       
  62:.\Generated_Source\PSoC5/Bootloader.c **** 
  63:.\Generated_Source\PSoC5/Bootloader.c **** 
  64:.\Generated_Source\PSoC5/Bootloader.c **** /*******************************************************************************
  65:.\Generated_Source\PSoC5/Bootloader.c **** * Bootloader packet byte addresses:
  66:.\Generated_Source\PSoC5/Bootloader.c **** * [1-byte] [1-byte ] [2-byte] [n-byte] [ 2-byte ] [1-byte]
  67:.\Generated_Source\PSoC5/Bootloader.c **** * [ SOP  ] [Command] [ Size ] [ Data ] [Checksum] [ EOP  ]
  68:.\Generated_Source\PSoC5/Bootloader.c **** *******************************************************************************/
  69:.\Generated_Source\PSoC5/Bootloader.c **** #define Bootloader_SOP_ADDR             (0x00u)         /* Start of packet offset from beginning   
  70:.\Generated_Source\PSoC5/Bootloader.c **** #define Bootloader_CMD_ADDR             (0x01u)         /* Command offset from beginning           
  71:.\Generated_Source\PSoC5/Bootloader.c **** #define Bootloader_SIZE_ADDR            (0x02u)         /* Packet size offset from beginning       
  72:.\Generated_Source\PSoC5/Bootloader.c **** #define Bootloader_DATA_ADDR            (0x04u)         /* Packet data offset from beginning       
  73:.\Generated_Source\PSoC5/Bootloader.c **** #define Bootloader_CHK_ADDR(x)          (0x04u + (x)) /* Packet checksum offset from end           
  74:.\Generated_Source\PSoC5/Bootloader.c **** #define Bootloader_EOP_ADDR(x)          (0x06u + (x)) /* End of packet offset from end             
  75:.\Generated_Source\PSoC5/Bootloader.c **** #define Bootloader_MIN_PKT_SIZE         (7u)            /* The minimum number of bytes in a packet 
  76:.\Generated_Source\PSoC5/Bootloader.c **** 
  77:.\Generated_Source\PSoC5/Bootloader.c **** 
  78:.\Generated_Source\PSoC5/Bootloader.c **** #if(1u == Bootloader_DUAL_APP_BOOTLOADER)
  79:.\Generated_Source\PSoC5/Bootloader.c **** 
  80:.\Generated_Source\PSoC5/Bootloader.c ****     /* None is active by default */
  81:.\Generated_Source\PSoC5/Bootloader.c ****     uint8 Bootloader_activeApp = 2u;
  82:.\Generated_Source\PSoC5/Bootloader.c **** 
  83:.\Generated_Source\PSoC5/Bootloader.c **** #endif  /* (1u == Bootloader_DUAL_APP_BOOTLOADER) */
  84:.\Generated_Source\PSoC5/Bootloader.c **** 
  85:.\Generated_Source\PSoC5/Bootloader.c **** 
  86:.\Generated_Source\PSoC5/Bootloader.c **** /* Our definition of a row size. */
  87:.\Generated_Source\PSoC5/Bootloader.c **** #if((!CY_PSOC4) && (CYDEV_ECC_ENABLE == 0))
  88:.\Generated_Source\PSoC5/Bootloader.c **** 
  89:.\Generated_Source\PSoC5/Bootloader.c ****     #define Bootloader_FROW_SIZE          ((CYDEV_FLS_ROW_SIZE) + (CYDEV_ECC_ROW_SIZE))
  90:.\Generated_Source\PSoC5/Bootloader.c **** 
  91:.\Generated_Source\PSoC5/Bootloader.c **** #else
  92:.\Generated_Source\PSoC5/Bootloader.c **** 
  93:.\Generated_Source\PSoC5/Bootloader.c ****     #define Bootloader_FROW_SIZE          CYDEV_FLS_ROW_SIZE
  94:.\Generated_Source\PSoC5/Bootloader.c **** 
  95:.\Generated_Source\PSoC5/Bootloader.c **** #endif  /* ((!CY_PSOC4) && (CYDEV_ECC_ENABLE == 0)) */
  96:.\Generated_Source\PSoC5/Bootloader.c **** 
  97:.\Generated_Source\PSoC5/Bootloader.c **** 
  98:.\Generated_Source\PSoC5/Bootloader.c **** #if(CY_PSOC4)
  99:.\Generated_Source\PSoC5/Bootloader.c **** 
 100:.\Generated_Source\PSoC5/Bootloader.c ****     #define Bootloader_BL_LAST_ROW            (Bootloader_GET_REG16(Bootloader_MD_LAST_BLDR_ROW_ADD
 101:.\Generated_Source\PSoC5/Bootloader.c ****     #define Bootloader_BL_APP_RUN_ADDR        (CY_GET_XTND_REG8 (Bootloader_MD_APP_RUN_ADDR        
 102:.\Generated_Source\PSoC5/Bootloader.c ****     #define Bootloader_BL_APP_ENTRY_ADDR      (Bootloader_GET_REG32(Bootloader_MD_APP_ENTRY_POINT_A
 103:.\Generated_Source\PSoC5/Bootloader.c ****     #define Bootloader_BL_APP_BYTE_LEN        (Bootloader_GET_REG32(Bootloader_MD_APP_BYTE_LEN     
 104:.\Generated_Source\PSoC5/Bootloader.c ****     #define Bootloader_BL_APP_VERIFIED        (CY_GET_XTND_REG8 (Bootloader_MD_APP_VERIFIED_ADDR   
 105:.\Generated_Source\PSoC5/Bootloader.c ****     #define Bootloader_BL_APP_CHECKSUM        (CY_GET_XTND_REG8 (Bootloader_MD_CHECKSUM_ADDR       
 106:.\Generated_Source\PSoC5/Bootloader.c **** 
 107:.\Generated_Source\PSoC5/Bootloader.c ****     #define Bootloader_INIT_FLASH_WRITE       (1)
 108:.\Generated_Source\PSoC5/Bootloader.c ****     #define Bootloader_FLASH_NUMBER_SECTORS   (1)
 109:.\Generated_Source\PSoC5/Bootloader.c ****     #define Bootloader_CHECKSUM_START         (0xC0u) /* Exclude the vector table as these get rema
 110:.\Generated_Source\PSoC5/Bootloader.c **** 
ARM GAS  C:\DOCUME~1\ADMINI~1\LOCALS~1\Temp\ccjQOVXj.s 			page 4


 111:.\Generated_Source\PSoC5/Bootloader.c **** #else
 112:.\Generated_Source\PSoC5/Bootloader.c **** 
 113:.\Generated_Source\PSoC5/Bootloader.c ****     #define Bootloader_BL_LAST_ROW            (*Bootloader_MD_PTR_LAST_BLDR_ROW    )
 114:.\Generated_Source\PSoC5/Bootloader.c ****     #define Bootloader_BL_APP_RUN_ADDR        (*Bootloader_MD_PTR_APP_RUN_ADDR     )
 115:.\Generated_Source\PSoC5/Bootloader.c ****     #define Bootloader_BL_APP_ENTRY_ADDR      (*Bootloader_MD_PTR_APP_ENTRY_POINT  )
 116:.\Generated_Source\PSoC5/Bootloader.c ****     #define Bootloader_BL_APP_BYTE_LEN        (*Bootloader_MD_PTR_APP_BYTE_LEN     )
 117:.\Generated_Source\PSoC5/Bootloader.c ****     #define Bootloader_BL_APP_VERIFIED        (*Bootloader_MD_PTR_APP_VERIFIED     )
 118:.\Generated_Source\PSoC5/Bootloader.c ****     #define Bootloader_BL_APP_CHECKSUM        (*Bootloader_MD_PTR_CHECKSUM         )
 119:.\Generated_Source\PSoC5/Bootloader.c **** 
 120:.\Generated_Source\PSoC5/Bootloader.c ****     #define Bootloader_INIT_FLASH_WRITE       ((CYRET_SUCCESS == CySetTemp()) && \
 121:.\Generated_Source\PSoC5/Bootloader.c ****                                                      (CYRET_SUCCESS == CySetFlashEEBuffer(flashBuff
 122:.\Generated_Source\PSoC5/Bootloader.c **** 
 123:.\Generated_Source\PSoC5/Bootloader.c ****     #define Bootloader_FLASH_NUMBER_SECTORS   (CY_FLASH_NUMBER_ARRAYS)
 124:.\Generated_Source\PSoC5/Bootloader.c **** 
 125:.\Generated_Source\PSoC5/Bootloader.c ****     #define Bootloader_CHECKSUM_START         0    /* The bootloader always starts at 0 in flash */
 126:.\Generated_Source\PSoC5/Bootloader.c **** 
 127:.\Generated_Source\PSoC5/Bootloader.c ****     uint8 flashBuffer[Bootloader_FROW_SIZE];
 128:.\Generated_Source\PSoC5/Bootloader.c **** 
 129:.\Generated_Source\PSoC5/Bootloader.c **** #endif  /* (CY_PSOC4) */
 130:.\Generated_Source\PSoC5/Bootloader.c **** 
 131:.\Generated_Source\PSoC5/Bootloader.c **** 
 132:.\Generated_Source\PSoC5/Bootloader.c **** #define Bootloader_FIRST_APP_BYTE             (CYDEV_FLS_ROW_SIZE * (Bootloader_BL_LAST_ROW + 1))
 133:.\Generated_Source\PSoC5/Bootloader.c **** #define Bootloader_SIZEOF_COMMAND_BUFFER      (300u) /* Maximum number of bytes accepted in a packe
 134:.\Generated_Source\PSoC5/Bootloader.c **** 
 135:.\Generated_Source\PSoC5/Bootloader.c **** 
 136:.\Generated_Source\PSoC5/Bootloader.c **** typedef struct _Bootloader_ENTER
 137:.\Generated_Source\PSoC5/Bootloader.c **** {
 138:.\Generated_Source\PSoC5/Bootloader.c ****     uint32 SiliconId;
 139:.\Generated_Source\PSoC5/Bootloader.c ****     uint8  Revision;
 140:.\Generated_Source\PSoC5/Bootloader.c ****     uint8  BootLoaderVersion[3u];
 141:.\Generated_Source\PSoC5/Bootloader.c **** 
 142:.\Generated_Source\PSoC5/Bootloader.c **** } Bootloader_ENTER;
 143:.\Generated_Source\PSoC5/Bootloader.c **** 
 144:.\Generated_Source\PSoC5/Bootloader.c **** 
 145:.\Generated_Source\PSoC5/Bootloader.c **** /*******************************************************************************
 146:.\Generated_Source\PSoC5/Bootloader.c **** * The Checksum and SizeBytes are forcefully set in code. We then post process
 147:.\Generated_Source\PSoC5/Bootloader.c **** * the hex file from the linker and inject their values then. When the hex file
 148:.\Generated_Source\PSoC5/Bootloader.c **** * is loaded onto the device these two variables should have valid values.
 149:.\Generated_Source\PSoC5/Bootloader.c **** * Because the compiler can do optimizations remove the constant
 150:.\Generated_Source\PSoC5/Bootloader.c **** * accesses, these should not be accessed directly. Instead, the variables
 151:.\Generated_Source\PSoC5/Bootloader.c **** * CyBtldr_ChecksumAccess & CyBtldr_SizeBytesAccess should be used to get the
 152:.\Generated_Source\PSoC5/Bootloader.c **** * proper values at runtime.
 153:.\Generated_Source\PSoC5/Bootloader.c **** *******************************************************************************/
 154:.\Generated_Source\PSoC5/Bootloader.c **** #if (defined(__C51__))
 155:.\Generated_Source\PSoC5/Bootloader.c ****     const uint8  CYCODE Bootloader_Checksum = 0;
 156:.\Generated_Source\PSoC5/Bootloader.c ****     const uint32 CYCODE Bootloader_SizeBytes = 0xFFFFFFFF;
 157:.\Generated_Source\PSoC5/Bootloader.c **** #else
 158:.\Generated_Source\PSoC5/Bootloader.c ****     const uint8  CYCODE __attribute__((section (".bootloader"))) Bootloader_Checksum = 0;
 159:.\Generated_Source\PSoC5/Bootloader.c ****     const uint32 CYCODE __attribute__((section (".bootloader"))) Bootloader_SizeBytes = 0xFFFFFFFF;
 160:.\Generated_Source\PSoC5/Bootloader.c **** #endif  /* (defined(__C51__)) */
 161:.\Generated_Source\PSoC5/Bootloader.c **** 
 162:.\Generated_Source\PSoC5/Bootloader.c **** uint8  *Bootloader_ChecksumAccess =  (uint8* )(&Bootloader_Checksum);
 163:.\Generated_Source\PSoC5/Bootloader.c **** uint32 *Bootloader_SizeBytesAccess = (uint32*)(&Bootloader_SizeBytes);
 164:.\Generated_Source\PSoC5/Bootloader.c **** 
 165:.\Generated_Source\PSoC5/Bootloader.c **** 
 166:.\Generated_Source\PSoC5/Bootloader.c **** /***************************************
 167:.\Generated_Source\PSoC5/Bootloader.c **** *     Function Prototypes
ARM GAS  C:\DOCUME~1\ADMINI~1\LOCALS~1\Temp\ccjQOVXj.s 			page 5


 168:.\Generated_Source\PSoC5/Bootloader.c **** ***************************************/
 169:.\Generated_Source\PSoC5/Bootloader.c **** cystatus Bootloader_WritePacket(uint8 command, uint8 CYXDATA* buffer, uint16 size) CYSMALL ;
 170:.\Generated_Source\PSoC5/Bootloader.c **** uint16 Bootloader_CalcPacketChecksum(uint8* buffer, uint16 size) CYSMALL ;
 171:.\Generated_Source\PSoC5/Bootloader.c **** uint8   Bootloader_Calc8BitFlashSum(uint32 start, uint32 size) CYSMALL ;
 172:.\Generated_Source\PSoC5/Bootloader.c **** 
 173:.\Generated_Source\PSoC5/Bootloader.c **** 
 174:.\Generated_Source\PSoC5/Bootloader.c **** /*******************************************************************************
 175:.\Generated_Source\PSoC5/Bootloader.c **** * Function Name: Bootloader_CalcPacketChecksum
 176:.\Generated_Source\PSoC5/Bootloader.c **** ********************************************************************************
 177:.\Generated_Source\PSoC5/Bootloader.c **** *
 178:.\Generated_Source\PSoC5/Bootloader.c **** * Summary:
 179:.\Generated_Source\PSoC5/Bootloader.c **** *  This computes the 16 bit checksum for the provided number of bytes contained
 180:.\Generated_Source\PSoC5/Bootloader.c **** *  in the provided buffer
 181:.\Generated_Source\PSoC5/Bootloader.c **** *
 182:.\Generated_Source\PSoC5/Bootloader.c **** * Parameters:
 183:.\Generated_Source\PSoC5/Bootloader.c **** *  buffer:
 184:.\Generated_Source\PSoC5/Bootloader.c **** *     The buffer containing the data to compute the checksum for
 185:.\Generated_Source\PSoC5/Bootloader.c **** *  size:
 186:.\Generated_Source\PSoC5/Bootloader.c **** *     The number of bytes in buffer to compute the checksum for
 187:.\Generated_Source\PSoC5/Bootloader.c **** *
 188:.\Generated_Source\PSoC5/Bootloader.c **** * Returns:
 189:.\Generated_Source\PSoC5/Bootloader.c **** *  16 bit checksum for the provided data
 190:.\Generated_Source\PSoC5/Bootloader.c **** *
 191:.\Generated_Source\PSoC5/Bootloader.c **** *******************************************************************************/
 192:.\Generated_Source\PSoC5/Bootloader.c **** uint16 Bootloader_CalcPacketChecksum(uint8* buffer, uint16 size) CYSMALL 
 193:.\Generated_Source\PSoC5/Bootloader.c **** {
  58              		.loc 1 193 0
  59              		.cfi_startproc
  60              		@ args = 0, pretend = 0, frame = 16
  61              		@ frame_needed = 1, uses_anonymous_args = 0
  62              		@ link register save eliminated.
  63 0000 80B4     		push	{r7}
  64              	.LCFI0:
  65              		.cfi_def_cfa_offset 4
  66 0002 85B0     		sub	sp, sp, #20
  67              	.LCFI1:
  68              		.cfi_def_cfa_offset 24
  69 0004 00AF     		add	r7, sp, #0
  70              		.cfi_offset 7, -4
  71              	.LCFI2:
  72              		.cfi_def_cfa_register 7
  73 0006 7860     		str	r0, [r7, #4]
  74 0008 0B46     		mov	r3, r1
  75 000a 7B80     		strh	r3, [r7, #2]	@ movhi
 194:.\Generated_Source\PSoC5/Bootloader.c ****     #if(Bootloader_PACKET_CHECKSUM_CRC == 1u)
 195:.\Generated_Source\PSoC5/Bootloader.c **** 
 196:.\Generated_Source\PSoC5/Bootloader.c ****         uint16 CYDATA crc = 0xffff;
 197:.\Generated_Source\PSoC5/Bootloader.c ****         uint16 CYDATA tmp;
 198:.\Generated_Source\PSoC5/Bootloader.c ****         uint8  CYDATA i;
 199:.\Generated_Source\PSoC5/Bootloader.c **** 
 200:.\Generated_Source\PSoC5/Bootloader.c ****         if(size == 0)
 201:.\Generated_Source\PSoC5/Bootloader.c ****         {
 202:.\Generated_Source\PSoC5/Bootloader.c ****             return(~crc);
 203:.\Generated_Source\PSoC5/Bootloader.c ****         }
 204:.\Generated_Source\PSoC5/Bootloader.c **** 
 205:.\Generated_Source\PSoC5/Bootloader.c ****         do
 206:.\Generated_Source\PSoC5/Bootloader.c ****         {
ARM GAS  C:\DOCUME~1\ADMINI~1\LOCALS~1\Temp\ccjQOVXj.s 			page 6


 207:.\Generated_Source\PSoC5/Bootloader.c ****             for (i = 0, tmp = 0x00ff & *buffer++; i < 8; i++, tmp >>= 1)
 208:.\Generated_Source\PSoC5/Bootloader.c ****             {
 209:.\Generated_Source\PSoC5/Bootloader.c ****                 if ((crc & 0x0001) ^ (tmp & 0x0001))
 210:.\Generated_Source\PSoC5/Bootloader.c ****                 {
 211:.\Generated_Source\PSoC5/Bootloader.c ****                     crc = (crc >> 1) ^ 0x8408;
 212:.\Generated_Source\PSoC5/Bootloader.c ****                 }
 213:.\Generated_Source\PSoC5/Bootloader.c ****                 else
 214:.\Generated_Source\PSoC5/Bootloader.c ****                 {
 215:.\Generated_Source\PSoC5/Bootloader.c ****                     crc >>= 1;
 216:.\Generated_Source\PSoC5/Bootloader.c ****                 }
 217:.\Generated_Source\PSoC5/Bootloader.c ****             }
 218:.\Generated_Source\PSoC5/Bootloader.c ****         }
 219:.\Generated_Source\PSoC5/Bootloader.c ****         while(--size);
 220:.\Generated_Source\PSoC5/Bootloader.c **** 
 221:.\Generated_Source\PSoC5/Bootloader.c ****         crc = ~crc;
 222:.\Generated_Source\PSoC5/Bootloader.c ****         tmp = crc;
 223:.\Generated_Source\PSoC5/Bootloader.c ****         crc = (crc << 8) | (tmp >> 8 & 0xFF);
 224:.\Generated_Source\PSoC5/Bootloader.c **** 
 225:.\Generated_Source\PSoC5/Bootloader.c ****         return(crc);
 226:.\Generated_Source\PSoC5/Bootloader.c **** 
 227:.\Generated_Source\PSoC5/Bootloader.c ****     #else
 228:.\Generated_Source\PSoC5/Bootloader.c **** 
 229:.\Generated_Source\PSoC5/Bootloader.c ****         uint16 CYDATA sum = 0;
  76              		.loc 1 229 0
  77 000c 4FF00003 		mov	r3, #0
  78 0010 FB81     		strh	r3, [r7, #14]	@ movhi
 230:.\Generated_Source\PSoC5/Bootloader.c ****         while (size-- > 0)
  79              		.loc 1 230 0
  80 0012 09E0     		b	.L2
  81              	.L3:
 231:.\Generated_Source\PSoC5/Bootloader.c ****         {
 232:.\Generated_Source\PSoC5/Bootloader.c ****             sum += *buffer++;
  82              		.loc 1 232 0
  83 0014 7B68     		ldr	r3, [r7, #4]
  84 0016 1B78     		ldrb	r3, [r3, #0]	@ zero_extendqisi2
  85 0018 1A46     		mov	r2, r3
  86 001a FB89     		ldrh	r3, [r7, #14]	@ movhi
  87 001c 1344     		add	r3, r2, r3
  88 001e FB81     		strh	r3, [r7, #14]	@ movhi
  89 0020 7B68     		ldr	r3, [r7, #4]
  90 0022 03F10103 		add	r3, r3, #1
  91 0026 7B60     		str	r3, [r7, #4]
  92              	.L2:
  93              		.loc 1 230 0
  94 0028 7B88     		ldrh	r3, [r7, #2]
  95 002a 002B     		cmp	r3, #0
  96 002c 0CBF     		ite	eq
  97 002e 0023     		moveq	r3, #0
  98 0030 0123     		movne	r3, #1
  99 0032 DBB2     		uxtb	r3, r3
 100 0034 7A88     		ldrh	r2, [r7, #2]	@ movhi
 101 0036 02F1FF32 		add	r2, r2, #-1
 102 003a 7A80     		strh	r2, [r7, #2]	@ movhi
 103 003c 002B     		cmp	r3, #0
 104 003e E9D1     		bne	.L3
 233:.\Generated_Source\PSoC5/Bootloader.c ****         }
 234:.\Generated_Source\PSoC5/Bootloader.c **** 
ARM GAS  C:\DOCUME~1\ADMINI~1\LOCALS~1\Temp\ccjQOVXj.s 			page 7


 235:.\Generated_Source\PSoC5/Bootloader.c ****         return(1 + ~sum);
 105              		.loc 1 235 0
 106 0040 FB89     		ldrh	r3, [r7, #14]
 107 0042 C3F10003 		rsb	r3, r3, #0
 108 0046 9BB2     		uxth	r3, r3
 109 0048 9BB2     		uxth	r3, r3
 236:.\Generated_Source\PSoC5/Bootloader.c **** 
 237:.\Generated_Source\PSoC5/Bootloader.c ****     #endif /* (Bootloader_PACKET_CHECKSUM_CRC == 1u) */
 238:.\Generated_Source\PSoC5/Bootloader.c **** }
 110              		.loc 1 238 0
 111 004a 1846     		mov	r0, r3
 112 004c 07F11407 		add	r7, r7, #20
 113 0050 BD46     		mov	sp, r7
 114 0052 80BC     		pop	{r7}
 115 0054 7047     		bx	lr
 116              		.cfi_endproc
 117              	.LFE29:
 118              		.size	Bootloader_CalcPacketChecksum, .-Bootloader_CalcPacketChecksum
 119 0056 00BF     		.section	.text.Bootloader_Calc8BitFlashSum,"ax",%progbits
 120              		.align	2
 121              		.global	Bootloader_Calc8BitFlashSum
 122              		.thumb
 123              		.thumb_func
 124              		.type	Bootloader_Calc8BitFlashSum, %function
 125              	Bootloader_Calc8BitFlashSum:
 126              	.LFB30:
 239:.\Generated_Source\PSoC5/Bootloader.c **** 
 240:.\Generated_Source\PSoC5/Bootloader.c **** 
 241:.\Generated_Source\PSoC5/Bootloader.c **** /*******************************************************************************
 242:.\Generated_Source\PSoC5/Bootloader.c **** * Function Name: Bootloader_Calc8BitFlashSum
 243:.\Generated_Source\PSoC5/Bootloader.c **** ********************************************************************************
 244:.\Generated_Source\PSoC5/Bootloader.c **** *
 245:.\Generated_Source\PSoC5/Bootloader.c **** * Summary:
 246:.\Generated_Source\PSoC5/Bootloader.c **** *  This computes the 8 bit sum for the provided number of bytes contained in
 247:.\Generated_Source\PSoC5/Bootloader.c **** *  flash.
 248:.\Generated_Source\PSoC5/Bootloader.c **** *
 249:.\Generated_Source\PSoC5/Bootloader.c **** * Parameters:
 250:.\Generated_Source\PSoC5/Bootloader.c **** *  start:
 251:.\Generated_Source\PSoC5/Bootloader.c **** *     The starting address to start summing data for
 252:.\Generated_Source\PSoC5/Bootloader.c **** *  size:
 253:.\Generated_Source\PSoC5/Bootloader.c **** *     The number of bytes to read and compute the sum for
 254:.\Generated_Source\PSoC5/Bootloader.c **** *
 255:.\Generated_Source\PSoC5/Bootloader.c **** * Returns:
 256:.\Generated_Source\PSoC5/Bootloader.c **** *   8 bit sum for the provided data
 257:.\Generated_Source\PSoC5/Bootloader.c **** *
 258:.\Generated_Source\PSoC5/Bootloader.c **** *******************************************************************************/
 259:.\Generated_Source\PSoC5/Bootloader.c **** uint8 Bootloader_Calc8BitFlashSum(uint32 start, uint32 size) CYSMALL 
 260:.\Generated_Source\PSoC5/Bootloader.c **** {
 127              		.loc 1 260 0
 128              		.cfi_startproc
 129              		@ args = 0, pretend = 0, frame = 16
 130              		@ frame_needed = 1, uses_anonymous_args = 0
 131              		@ link register save eliminated.
 132 0000 80B4     		push	{r7}
 133              	.LCFI3:
 134              		.cfi_def_cfa_offset 4
 135 0002 85B0     		sub	sp, sp, #20
ARM GAS  C:\DOCUME~1\ADMINI~1\LOCALS~1\Temp\ccjQOVXj.s 			page 8


 136              	.LCFI4:
 137              		.cfi_def_cfa_offset 24
 138 0004 00AF     		add	r7, sp, #0
 139              		.cfi_offset 7, -4
 140              	.LCFI5:
 141              		.cfi_def_cfa_register 7
 142 0006 7860     		str	r0, [r7, #4]
 143 0008 3960     		str	r1, [r7, #0]
 261:.\Generated_Source\PSoC5/Bootloader.c ****     uint8 CYDATA sum = 0;
 144              		.loc 1 261 0
 145 000a 4FF00003 		mov	r3, #0
 146 000e FB73     		strb	r3, [r7, #15]
 262:.\Generated_Source\PSoC5/Bootloader.c **** 
 263:.\Generated_Source\PSoC5/Bootloader.c ****     while (size-- > 0)
 147              		.loc 1 263 0
 148 0010 06E0     		b	.L6
 149              	.L7:
 264:.\Generated_Source\PSoC5/Bootloader.c ****     {
 265:.\Generated_Source\PSoC5/Bootloader.c ****         sum += Bootloader_GET_CODE_DATA(start + size);
 150              		.loc 1 265 0
 151 0012 7A68     		ldr	r2, [r7, #4]
 152 0014 3B68     		ldr	r3, [r7, #0]
 153 0016 1344     		add	r3, r2, r3
 154 0018 1A78     		ldrb	r2, [r3, #0]	@ zero_extendqisi2
 155 001a FB7B     		ldrb	r3, [r7, #15]
 156 001c 1344     		add	r3, r2, r3
 157 001e FB73     		strb	r3, [r7, #15]
 158              	.L6:
 159              		.loc 1 263 0
 160 0020 3B68     		ldr	r3, [r7, #0]
 161 0022 002B     		cmp	r3, #0
 162 0024 0CBF     		ite	eq
 163 0026 0023     		moveq	r3, #0
 164 0028 0123     		movne	r3, #1
 165 002a DBB2     		uxtb	r3, r3
 166 002c 3A68     		ldr	r2, [r7, #0]
 167 002e 02F1FF32 		add	r2, r2, #-1
 168 0032 3A60     		str	r2, [r7, #0]
 169 0034 002B     		cmp	r3, #0
 170 0036 ECD1     		bne	.L7
 266:.\Generated_Source\PSoC5/Bootloader.c ****     }
 267:.\Generated_Source\PSoC5/Bootloader.c **** 
 268:.\Generated_Source\PSoC5/Bootloader.c ****     return(sum);
 171              		.loc 1 268 0
 172 0038 FB7B     		ldrb	r3, [r7, #15]	@ zero_extendqisi2
 269:.\Generated_Source\PSoC5/Bootloader.c **** }
 173              		.loc 1 269 0
 174 003a 1846     		mov	r0, r3
 175 003c 07F11407 		add	r7, r7, #20
 176 0040 BD46     		mov	sp, r7
 177 0042 80BC     		pop	{r7}
 178 0044 7047     		bx	lr
 179              		.cfi_endproc
 180              	.LFE30:
 181              		.size	Bootloader_Calc8BitFlashSum, .-Bootloader_Calc8BitFlashSum
 182 0046 00BF     		.section	.text.Bootloader_Start,"ax",%progbits
 183              		.align	2
ARM GAS  C:\DOCUME~1\ADMINI~1\LOCALS~1\Temp\ccjQOVXj.s 			page 9


 184              		.global	Bootloader_Start
 185              		.thumb
 186              		.thumb_func
 187              		.type	Bootloader_Start, %function
 188              	Bootloader_Start:
 189              	.LFB31:
 270:.\Generated_Source\PSoC5/Bootloader.c **** 
 271:.\Generated_Source\PSoC5/Bootloader.c **** 
 272:.\Generated_Source\PSoC5/Bootloader.c **** /*******************************************************************************
 273:.\Generated_Source\PSoC5/Bootloader.c **** * Function Name: Bootloader_Start
 274:.\Generated_Source\PSoC5/Bootloader.c **** ********************************************************************************
 275:.\Generated_Source\PSoC5/Bootloader.c **** * Summary:
 276:.\Generated_Source\PSoC5/Bootloader.c **** *  Runs the bootloading algorithm, determining if a bootload is necessary and
 277:.\Generated_Source\PSoC5/Bootloader.c **** *  launching the application if it is not.
 278:.\Generated_Source\PSoC5/Bootloader.c **** *
 279:.\Generated_Source\PSoC5/Bootloader.c **** * Parameters:
 280:.\Generated_Source\PSoC5/Bootloader.c **** *  None
 281:.\Generated_Source\PSoC5/Bootloader.c **** *
 282:.\Generated_Source\PSoC5/Bootloader.c **** * Return:
 283:.\Generated_Source\PSoC5/Bootloader.c **** *  This method will never return. It will either load a new application and
 284:.\Generated_Source\PSoC5/Bootloader.c **** *  reset the device or it will jump directly to the existing application.
 285:.\Generated_Source\PSoC5/Bootloader.c **** *
 286:.\Generated_Source\PSoC5/Bootloader.c **** * Remark:
 287:.\Generated_Source\PSoC5/Bootloader.c **** *  If this method determines that the bootloader appliation itself is corrupt,
 288:.\Generated_Source\PSoC5/Bootloader.c **** *  this method will not return, instead it will simply hang the application.
 289:.\Generated_Source\PSoC5/Bootloader.c **** *
 290:.\Generated_Source\PSoC5/Bootloader.c **** *******************************************************************************/
 291:.\Generated_Source\PSoC5/Bootloader.c **** void Bootloader_Start(void) CYSMALL 
 292:.\Generated_Source\PSoC5/Bootloader.c **** {
 190              		.loc 1 292 0
 191              		.cfi_startproc
 192              		@ args = 0, pretend = 0, frame = 8
 193              		@ frame_needed = 1, uses_anonymous_args = 0
 194 0000 80B5     		push	{r7, lr}
 195              	.LCFI6:
 196              		.cfi_def_cfa_offset 8
 197 0002 82B0     		sub	sp, sp, #8
 198              	.LCFI7:
 199              		.cfi_def_cfa_offset 16
 200 0004 00AF     		add	r7, sp, #0
 201              		.cfi_offset 14, -4
 202              		.cfi_offset 7, -8
 203              	.LCFI8:
 204              		.cfi_def_cfa_register 7
 293:.\Generated_Source\PSoC5/Bootloader.c ****     /* Bootloader Application Validation */
 294:.\Generated_Source\PSoC5/Bootloader.c ****     #if(0u != Bootloader_BOOTLOADER_APP_VALIDATION)
 295:.\Generated_Source\PSoC5/Bootloader.c ****         uint8 CYDATA calcedChecksum;
 296:.\Generated_Source\PSoC5/Bootloader.c ****     #endif  /* (0u != Bootloader_BOOTLOADER_APP_VALIDATION) */
 297:.\Generated_Source\PSoC5/Bootloader.c **** 
 298:.\Generated_Source\PSoC5/Bootloader.c ****     /* Identify active bootloadable application */
 299:.\Generated_Source\PSoC5/Bootloader.c ****     #if(0u != Bootloader_DUAL_APP_BOOTLOADER)
 300:.\Generated_Source\PSoC5/Bootloader.c **** 
 301:.\Generated_Source\PSoC5/Bootloader.c ****         uint8 i;
 302:.\Generated_Source\PSoC5/Bootloader.c ****         for (i = 0; i < CYDEV_BOOTLOADER_APPLICATIONS; i++)
 303:.\Generated_Source\PSoC5/Bootloader.c ****         {
 304:.\Generated_Source\PSoC5/Bootloader.c ****             if (*Bootloader_P_APP_ACTIVE(i) == 1u)
 305:.\Generated_Source\PSoC5/Bootloader.c ****             {
ARM GAS  C:\DOCUME~1\ADMINI~1\LOCALS~1\Temp\ccjQOVXj.s 			page 10


 306:.\Generated_Source\PSoC5/Bootloader.c ****                 Bootloader_activeApp = i;
 307:.\Generated_Source\PSoC5/Bootloader.c ****                 break;
 308:.\Generated_Source\PSoC5/Bootloader.c ****             }
 309:.\Generated_Source\PSoC5/Bootloader.c ****         }
 310:.\Generated_Source\PSoC5/Bootloader.c **** 
 311:.\Generated_Source\PSoC5/Bootloader.c ****     #endif  /* (0u != Bootloader_DUAL_APP_BOOTLOADER) */
 312:.\Generated_Source\PSoC5/Bootloader.c **** 
 313:.\Generated_Source\PSoC5/Bootloader.c **** 
 314:.\Generated_Source\PSoC5/Bootloader.c ****     /* Bootloader Application Validation */
 315:.\Generated_Source\PSoC5/Bootloader.c ****     #if(0u != Bootloader_BOOTLOADER_APP_VALIDATION)
 316:.\Generated_Source\PSoC5/Bootloader.c **** 
 317:.\Generated_Source\PSoC5/Bootloader.c ****         calcedChecksum = Bootloader_Calc8BitFlashSum(Bootloader_CHECKSUM_START,
 205              		.loc 1 317 0
 206 0006 40F20003 		movw	r3, #:lower16:Bootloader_SizeBytesAccess
 207 000a C0F20003 		movt	r3, #:upper16:Bootloader_SizeBytesAccess
 208 000e 1B68     		ldr	r3, [r3, #0]
 318:.\Generated_Source\PSoC5/Bootloader.c ****                 *Bootloader_SizeBytesAccess - Bootloader_CHECKSUM_START);
 209              		.loc 1 318 0
 210 0010 1B68     		ldr	r3, [r3, #0]
 211              		.loc 1 317 0
 212 0012 4FF00000 		mov	r0, #0
 213 0016 1946     		mov	r1, r3
 214 0018 FFF7FEFF 		bl	Bootloader_Calc8BitFlashSum
 215 001c 0346     		mov	r3, r0
 216 001e FB71     		strb	r3, [r7, #7]
 319:.\Generated_Source\PSoC5/Bootloader.c **** 
 320:.\Generated_Source\PSoC5/Bootloader.c ****         /* we actually included the checksum, so remove it */
 321:.\Generated_Source\PSoC5/Bootloader.c ****         calcedChecksum -= *Bootloader_ChecksumAccess;
 217              		.loc 1 321 0
 218 0020 40F20003 		movw	r3, #:lower16:Bootloader_ChecksumAccess
 219 0024 C0F20003 		movt	r3, #:upper16:Bootloader_ChecksumAccess
 220 0028 1B68     		ldr	r3, [r3, #0]
 221 002a 1B78     		ldrb	r3, [r3, #0]	@ zero_extendqisi2
 222 002c FA79     		ldrb	r2, [r7, #7]
 223 002e C3EB0203 		rsb	r3, r3, r2
 224 0032 FB71     		strb	r3, [r7, #7]
 322:.\Generated_Source\PSoC5/Bootloader.c ****         calcedChecksum = 1 + ~calcedChecksum;
 225              		.loc 1 322 0
 226 0034 FB79     		ldrb	r3, [r7, #7]	@ zero_extendqisi2
 227 0036 C3F10003 		rsb	r3, r3, #0
 228 003a DBB2     		uxtb	r3, r3
 229 003c FB71     		strb	r3, [r7, #7]
 323:.\Generated_Source\PSoC5/Bootloader.c **** 
 324:.\Generated_Source\PSoC5/Bootloader.c ****         /* Halt device if bootloader application is invalid */
 325:.\Generated_Source\PSoC5/Bootloader.c ****         if((calcedChecksum != *Bootloader_ChecksumAccess) ||
 230              		.loc 1 325 0
 231 003e 40F20003 		movw	r3, #:lower16:Bootloader_ChecksumAccess
 232 0042 C0F20003 		movt	r3, #:upper16:Bootloader_ChecksumAccess
 233 0046 1B68     		ldr	r3, [r3, #0]
 234 0048 1B78     		ldrb	r3, [r3, #0]	@ zero_extendqisi2
 235 004a FA79     		ldrb	r2, [r7, #7]	@ zero_extendqisi2
 236 004c 9A42     		cmp	r2, r3
 237 004e 15D1     		bne	.L10
 326:.\Generated_Source\PSoC5/Bootloader.c ****             !(*Bootloader_SizeBytesAccess) || !(Bootloader_INIT_FLASH_WRITE))
 238              		.loc 1 326 0
 239 0050 40F20003 		movw	r3, #:lower16:Bootloader_SizeBytesAccess
 240 0054 C0F20003 		movt	r3, #:upper16:Bootloader_SizeBytesAccess
ARM GAS  C:\DOCUME~1\ADMINI~1\LOCALS~1\Temp\ccjQOVXj.s 			page 11


 241 0058 1B68     		ldr	r3, [r3, #0]
 242 005a 1B68     		ldr	r3, [r3, #0]
 243              		.loc 1 325 0
 244 005c 002B     		cmp	r3, #0
 245 005e 0DD0     		beq	.L10
 246 0060 FFF7FEFF 		bl	CySetTemp
 247 0064 0346     		mov	r3, r0
 248 0066 002B     		cmp	r3, #0
 249 0068 08D1     		bne	.L10
 250 006a 40F20000 		movw	r0, #:lower16:flashBuffer
 251 006e C0F20000 		movt	r0, #:upper16:flashBuffer
 252 0072 FFF7FEFF 		bl	CySetFlashEEBuffer
 253 0076 0346     		mov	r3, r0
 254 0078 002B     		cmp	r3, #0
 255 007a 03D0     		beq	.L11
 256              	.L10:
 327:.\Generated_Source\PSoC5/Bootloader.c ****         {
 328:.\Generated_Source\PSoC5/Bootloader.c ****             CyHalt(0x00u);
 257              		.loc 1 328 0
 258 007c 4FF00000 		mov	r0, #0
 259 0080 FFF7FEFF 		bl	CyHalt
 260              	.L11:
 329:.\Generated_Source\PSoC5/Bootloader.c ****         }
 330:.\Generated_Source\PSoC5/Bootloader.c **** 
 331:.\Generated_Source\PSoC5/Bootloader.c ****     #endif  /* (0u != Bootloader_BOOTLOADER_APP_VALIDATION) */
 332:.\Generated_Source\PSoC5/Bootloader.c **** 
 333:.\Generated_Source\PSoC5/Bootloader.c **** 
 334:.\Generated_Source\PSoC5/Bootloader.c ****     /* Active Bootloadable Application Validation */
 335:.\Generated_Source\PSoC5/Bootloader.c ****     if (Bootloader_ValidateApp(Bootloader_activeApp) ||
 261              		.loc 1 335 0
 262 0084 FFF7FEFF 		bl	Bootloader_ValidateApplication
 263 0088 0346     		mov	r3, r0
 264 008a 002B     		cmp	r3, #0
 265 008c 09D1     		bne	.L12
 336:.\Generated_Source\PSoC5/Bootloader.c ****         (Bootloader_GET_RUN_TYPE == Bootloader_START_BTLDR))
 266              		.loc 1 336 0
 267 008e 44F2FA63 		movw	r3, #:lower16:1073759994
 268 0092 C4F20003 		movt	r3, #:upper16:1073759994
 269 0096 1B78     		ldrb	r3, [r3, #0]
 270 0098 DBB2     		uxtb	r3, r3
 271 009a 03F0C003 		and	r3, r3, #192
 272              		.loc 1 335 0
 273 009e 402B     		cmp	r3, #64
 274 00a0 0AD1     		bne	.L13
 275              	.L12:
 337:.\Generated_Source\PSoC5/Bootloader.c ****     {
 338:.\Generated_Source\PSoC5/Bootloader.c ****         Bootloader_SET_RUN_TYPE(0);
 276              		.loc 1 338 0
 277 00a2 44F2FA63 		movw	r3, #:lower16:1073759994
 278 00a6 C4F20003 		movt	r3, #:upper16:1073759994
 279 00aa 4FF00002 		mov	r2, #0
 280 00ae 1A70     		strb	r2, [r3, #0]
 339:.\Generated_Source\PSoC5/Bootloader.c **** 
 340:.\Generated_Source\PSoC5/Bootloader.c ****         Bootloader_HostLink(0);
 281              		.loc 1 340 0
 282 00b0 4FF00000 		mov	r0, #0
 283 00b4 FFF7FEFF 		bl	Bootloader_HostLink
ARM GAS  C:\DOCUME~1\ADMINI~1\LOCALS~1\Temp\ccjQOVXj.s 			page 12


 284              	.L13:
 341:.\Generated_Source\PSoC5/Bootloader.c ****     }
 342:.\Generated_Source\PSoC5/Bootloader.c **** 
 343:.\Generated_Source\PSoC5/Bootloader.c **** 
 344:.\Generated_Source\PSoC5/Bootloader.c ****     #if(1u == Bootloader_WAIT_FOR_COMMAND)
 345:.\Generated_Source\PSoC5/Bootloader.c **** 
 346:.\Generated_Source\PSoC5/Bootloader.c ****         /* Timeout is in 10s of miliseconds */
 347:.\Generated_Source\PSoC5/Bootloader.c ****         Bootloader_HostLink(Bootloader_WAIT_FOR_COMMAND_TIME);
 348:.\Generated_Source\PSoC5/Bootloader.c **** 
 349:.\Generated_Source\PSoC5/Bootloader.c ****     #endif  /* (1u == Bootloader_WAIT_FOR_COMMAND) */
 350:.\Generated_Source\PSoC5/Bootloader.c **** 
 351:.\Generated_Source\PSoC5/Bootloader.c **** 
 352:.\Generated_Source\PSoC5/Bootloader.c ****     /* Schedule bootloadable and reset device */
 353:.\Generated_Source\PSoC5/Bootloader.c ****     Bootloader_LaunchApplication();
 285              		.loc 1 353 0
 286 00b8 FFF7FEFF 		bl	Bootloader_LaunchApplication
 354:.\Generated_Source\PSoC5/Bootloader.c **** }
 287              		.loc 1 354 0
 288 00bc 07F10807 		add	r7, r7, #8
 289 00c0 BD46     		mov	sp, r7
 290 00c2 80BD     		pop	{r7, pc}
 291              		.cfi_endproc
 292              	.LFE31:
 293              		.size	Bootloader_Start, .-Bootloader_Start
 294              		.section	.text.Bootloader_LaunchApplication,"ax",%progbits
 295              		.align	2
 296              		.global	Bootloader_LaunchApplication
 297              		.thumb
 298              		.thumb_func
 299              		.type	Bootloader_LaunchApplication, %function
 300              	Bootloader_LaunchApplication:
 301              	.LFB32:
 355:.\Generated_Source\PSoC5/Bootloader.c **** 
 356:.\Generated_Source\PSoC5/Bootloader.c **** 
 357:.\Generated_Source\PSoC5/Bootloader.c **** /*******************************************************************************
 358:.\Generated_Source\PSoC5/Bootloader.c **** * Function Name: Bootloader_LaunchApplication
 359:.\Generated_Source\PSoC5/Bootloader.c **** ********************************************************************************
 360:.\Generated_Source\PSoC5/Bootloader.c **** *
 361:.\Generated_Source\PSoC5/Bootloader.c **** * Summary:
 362:.\Generated_Source\PSoC5/Bootloader.c **** *  Jumps the PC to the start address of the user application in flash.
 363:.\Generated_Source\PSoC5/Bootloader.c **** *
 364:.\Generated_Source\PSoC5/Bootloader.c **** * Parameters:
 365:.\Generated_Source\PSoC5/Bootloader.c **** *  None
 366:.\Generated_Source\PSoC5/Bootloader.c **** *
 367:.\Generated_Source\PSoC5/Bootloader.c **** * Returns:
 368:.\Generated_Source\PSoC5/Bootloader.c **** *  This method will never return if it succesfully goes to the user application.
 369:.\Generated_Source\PSoC5/Bootloader.c **** *
 370:.\Generated_Source\PSoC5/Bootloader.c **** *******************************************************************************/
 371:.\Generated_Source\PSoC5/Bootloader.c **** void Bootloader_LaunchApplication(void) CYSMALL 
 372:.\Generated_Source\PSoC5/Bootloader.c **** {
 302              		.loc 1 372 0
 303              		.cfi_startproc
 304              		@ args = 0, pretend = 0, frame = 0
 305              		@ frame_needed = 1, uses_anonymous_args = 0
 306              		@ link register save eliminated.
 307 0000 80B4     		push	{r7}
 308              	.LCFI9:
ARM GAS  C:\DOCUME~1\ADMINI~1\LOCALS~1\Temp\ccjQOVXj.s 			page 13


 309              		.cfi_def_cfa_offset 4
 310 0002 00AF     		add	r7, sp, #0
 311              		.cfi_offset 7, -4
 312              	.LCFI10:
 313              		.cfi_def_cfa_register 7
 373:.\Generated_Source\PSoC5/Bootloader.c ****     /* Schedule Bootloadable to start after reset */
 374:.\Generated_Source\PSoC5/Bootloader.c ****     Bootloader_SET_RUN_TYPE(Bootloader_START_APP);
 314              		.loc 1 374 0
 315 0004 44F2FA63 		movw	r3, #:lower16:1073759994
 316 0008 C4F20003 		movt	r3, #:upper16:1073759994
 317 000c 6FF07F02 		mvn	r2, #127
 318 0010 1A70     		strb	r2, [r3, #0]
 375:.\Generated_Source\PSoC5/Bootloader.c **** 
 376:.\Generated_Source\PSoC5/Bootloader.c ****     /* Reset device */
 377:.\Generated_Source\PSoC5/Bootloader.c ****     Bootloader_SOFTWARE_RESET;
 319              		.loc 1 377 0
 320 0012 44F2F663 		movw	r3, #:lower16:1073759990
 321 0016 C4F20003 		movt	r3, #:upper16:1073759990
 322 001a 4FF00102 		mov	r2, #1
 323 001e 1A70     		strb	r2, [r3, #0]
 378:.\Generated_Source\PSoC5/Bootloader.c **** }
 324              		.loc 1 378 0
 325 0020 BD46     		mov	sp, r7
 326 0022 80BC     		pop	{r7}
 327 0024 7047     		bx	lr
 328              		.cfi_endproc
 329              	.LFE32:
 330              		.size	Bootloader_LaunchApplication, .-Bootloader_LaunchApplication
 331 0026 00BF     		.section	.text.CyBtldr_CheckLaunch,"ax",%progbits
 332              		.align	2
 333              		.global	CyBtldr_CheckLaunch
 334              		.thumb
 335              		.thumb_func
 336              		.type	CyBtldr_CheckLaunch, %function
 337              	CyBtldr_CheckLaunch:
 338              	.LFB33:
 379:.\Generated_Source\PSoC5/Bootloader.c **** 
 380:.\Generated_Source\PSoC5/Bootloader.c **** 
 381:.\Generated_Source\PSoC5/Bootloader.c **** /*******************************************************************************
 382:.\Generated_Source\PSoC5/Bootloader.c **** * Function Name: CyBtldr_CheckLaunch
 383:.\Generated_Source\PSoC5/Bootloader.c **** ********************************************************************************
 384:.\Generated_Source\PSoC5/Bootloader.c **** *
 385:.\Generated_Source\PSoC5/Bootloader.c **** * Summary:
 386:.\Generated_Source\PSoC5/Bootloader.c **** *  This routine checks to see if the bootloader or the bootloadable application
 387:.\Generated_Source\PSoC5/Bootloader.c **** *  should be run.  If the application is to be run, it will start executing.
 388:.\Generated_Source\PSoC5/Bootloader.c **** *  If the bootloader is to be run, it will return so the bootloader can
 389:.\Generated_Source\PSoC5/Bootloader.c **** *  continue starting up.
 390:.\Generated_Source\PSoC5/Bootloader.c **** *
 391:.\Generated_Source\PSoC5/Bootloader.c **** * Parameters:
 392:.\Generated_Source\PSoC5/Bootloader.c **** *  None
 393:.\Generated_Source\PSoC5/Bootloader.c **** *
 394:.\Generated_Source\PSoC5/Bootloader.c **** * Returns:
 395:.\Generated_Source\PSoC5/Bootloader.c **** *  None
 396:.\Generated_Source\PSoC5/Bootloader.c **** *
 397:.\Generated_Source\PSoC5/Bootloader.c **** *******************************************************************************/
 398:.\Generated_Source\PSoC5/Bootloader.c **** void CyBtldr_CheckLaunch(void) CYSMALL 
 399:.\Generated_Source\PSoC5/Bootloader.c **** {
ARM GAS  C:\DOCUME~1\ADMINI~1\LOCALS~1\Temp\ccjQOVXj.s 			page 14


 339              		.loc 1 399 0
 340              		.cfi_startproc
 341              		@ args = 0, pretend = 0, frame = 0
 342              		@ frame_needed = 1, uses_anonymous_args = 0
 343 0000 80B5     		push	{r7, lr}
 344              	.LCFI11:
 345              		.cfi_def_cfa_offset 8
 346 0002 00AF     		add	r7, sp, #0
 347              		.cfi_offset 14, -4
 348              		.cfi_offset 7, -8
 349              	.LCFI12:
 350              		.cfi_def_cfa_register 7
 400:.\Generated_Source\PSoC5/Bootloader.c **** 
 401:.\Generated_Source\PSoC5/Bootloader.c ****     if (Bootloader_GET_RUN_TYPE == Bootloader_START_APP)
 351              		.loc 1 401 0
 352 0004 44F2FA63 		movw	r3, #:lower16:1073759994
 353 0008 C4F20003 		movt	r3, #:upper16:1073759994
 354 000c 1B78     		ldrb	r3, [r3, #0]
 355 000e DBB2     		uxtb	r3, r3
 356 0010 03F0C003 		and	r3, r3, #192
 357 0014 802B     		cmp	r3, #128
 358 0016 15D1     		bne	.L19
 402:.\Generated_Source\PSoC5/Bootloader.c ****     {
 403:.\Generated_Source\PSoC5/Bootloader.c ****         Bootloader_SET_RUN_TYPE(0);
 359              		.loc 1 403 0
 360 0018 44F2FA63 		movw	r3, #:lower16:1073759994
 361 001c C4F20003 		movt	r3, #:upper16:1073759994
 362 0020 4FF00002 		mov	r2, #0
 363 0024 1A70     		strb	r2, [r3, #0]
 404:.\Generated_Source\PSoC5/Bootloader.c **** 
 405:.\Generated_Source\PSoC5/Bootloader.c ****         /*******************************************************************************
 406:.\Generated_Source\PSoC5/Bootloader.c ****         * Indicates that we have told ourselves to jump to the application since we have
 407:.\Generated_Source\PSoC5/Bootloader.c ****         * already told ourselves to jump, we do not do any expensive verification of the
 408:.\Generated_Source\PSoC5/Bootloader.c ****         * application. We just check to make sure that the value at CY_APP_ADDR_ADDRESS
 409:.\Generated_Source\PSoC5/Bootloader.c ****         * is something other than 0.
 410:.\Generated_Source\PSoC5/Bootloader.c ****         *******************************************************************************/
 411:.\Generated_Source\PSoC5/Bootloader.c ****         if(Bootloader_BL_APP_ENTRY_ADDR)
 364              		.loc 1 411 0
 365 0026 4FF6C173 		movw	r3, #:lower16:131009
 366 002a C0F20103 		movt	r3, #:upper16:131009
 367 002e 1B68     		ldr	r3, [r3, #0]
 368 0030 002B     		cmp	r3, #0
 369 0032 07D0     		beq	.L19
 412:.\Generated_Source\PSoC5/Bootloader.c ****         {
 413:.\Generated_Source\PSoC5/Bootloader.c ****             /* Never return from this method */
 414:.\Generated_Source\PSoC5/Bootloader.c ****             LaunchApp(Bootloader_BL_APP_ENTRY_ADDR);
 370              		.loc 1 414 0
 371 0034 4FF6C173 		movw	r3, #:lower16:131009
 372 0038 C0F20103 		movt	r3, #:upper16:131009
 373 003c 1B68     		ldr	r3, [r3, #0]
 374 003e 1846     		mov	r0, r3
 375 0040 FFF7FEFF 		bl	LaunchApp
 376              	.L19:
 415:.\Generated_Source\PSoC5/Bootloader.c ****         }
 416:.\Generated_Source\PSoC5/Bootloader.c ****     }
 417:.\Generated_Source\PSoC5/Bootloader.c **** }
 377              		.loc 1 417 0
ARM GAS  C:\DOCUME~1\ADMINI~1\LOCALS~1\Temp\ccjQOVXj.s 			page 15


 378 0044 80BD     		pop	{r7, pc}
 379              		.cfi_endproc
 380              	.LFE33:
 381              		.size	CyBtldr_CheckLaunch, .-CyBtldr_CheckLaunch
 382 0046 00BF     		.section	.text.LaunchApp,"ax",%progbits
 383              		.align	2
 384              		.global	LaunchApp
 385              		.thumb
 386              		.thumb_func
 387              		.type	LaunchApp, %function
 388              	LaunchApp:
 389              	.LFB34:
 418:.\Generated_Source\PSoC5/Bootloader.c **** 
 419:.\Generated_Source\PSoC5/Bootloader.c **** 
 420:.\Generated_Source\PSoC5/Bootloader.c **** /* Moves the arguement appAddr (RO) into PC, moving execution to the appAddr */
 421:.\Generated_Source\PSoC5/Bootloader.c **** #if defined (__ARMCC_VERSION)
 422:.\Generated_Source\PSoC5/Bootloader.c **** __asm void LaunchApp(uint32 appAddr)
 423:.\Generated_Source\PSoC5/Bootloader.c **** {
 424:.\Generated_Source\PSoC5/Bootloader.c **** #if(CY_PSOC5)
 425:.\Generated_Source\PSoC5/Bootloader.c ****     EXTERN CyResetStatus
 426:.\Generated_Source\PSoC5/Bootloader.c ****     LDR R2, =CyResetStatus
 427:.\Generated_Source\PSoC5/Bootloader.c ****     LDR R2, [R2]
 428:.\Generated_Source\PSoC5/Bootloader.c ****     NOP
 429:.\Generated_Source\PSoC5/Bootloader.c **** #endif  /* (CY_PSOC5) */
 430:.\Generated_Source\PSoC5/Bootloader.c ****     BX  R0
 431:.\Generated_Source\PSoC5/Bootloader.c **** 
 432:.\Generated_Source\PSoC5/Bootloader.c ****     ALIGN
 433:.\Generated_Source\PSoC5/Bootloader.c **** }
 434:.\Generated_Source\PSoC5/Bootloader.c **** #elif defined(__GNUC__)
 435:.\Generated_Source\PSoC5/Bootloader.c **** __attribute__((noinline)) /* Workaround for GCC toolchain bug with inlining */
 436:.\Generated_Source\PSoC5/Bootloader.c **** __attribute__((naked))
 437:.\Generated_Source\PSoC5/Bootloader.c **** void LaunchApp(uint32 appAddr)
 438:.\Generated_Source\PSoC5/Bootloader.c **** {
 390              		.loc 1 438 0
 391              		.cfi_startproc
 392              		@ Naked Function: prologue and epilogue provided by programmer.
 393              		@ args = 0, pretend = 0, frame = 0
 394              		@ frame_needed = 1, uses_anonymous_args = 0
 395 0000 0146     		mov	r1, r0
 439:.\Generated_Source\PSoC5/Bootloader.c **** #if(CY_PSOC5)
 440:.\Generated_Source\PSoC5/Bootloader.c ****     __asm volatile(
 396              		.loc 1 440 0
 397 0002 40F20003 		movw	r3, #:lower16:CyResetStatus
 398 0006 C0F20003 		movt	r3, #:upper16:CyResetStatus
 399 000a 1B78     		ldrb	r3, [r3, #0]	@ zero_extendqisi2
 400              	@ 440 ".\Generated_Source\PSoC5\Bootloader.c" 1
 401 000c 1A46     		    MOV R2, r3
 402 000e 1268     	    LDR  R2, [R2]
 403 0010 0847     	    BX  r1
 404              	
 405              	@ 0 "" 2
 441:.\Generated_Source\PSoC5/Bootloader.c ****         "    MOV R2, %0\n"
 442:.\Generated_Source\PSoC5/Bootloader.c ****         "    LDR  R2, [R2]\n"
 443:.\Generated_Source\PSoC5/Bootloader.c ****         "    BX  %1\n"
 444:.\Generated_Source\PSoC5/Bootloader.c ****         : : "r" (CyResetStatus), "r" (appAddr)
 445:.\Generated_Source\PSoC5/Bootloader.c ****         : "r0", "r2");
 446:.\Generated_Source\PSoC5/Bootloader.c **** #else
ARM GAS  C:\DOCUME~1\ADMINI~1\LOCALS~1\Temp\ccjQOVXj.s 			page 16


 447:.\Generated_Source\PSoC5/Bootloader.c ****     __asm volatile("    BX  R0\n");
 448:.\Generated_Source\PSoC5/Bootloader.c **** #endif  /* (CY_PSOC5) */
 449:.\Generated_Source\PSoC5/Bootloader.c **** }
 406              		.loc 1 449 0
 407              		.thumb
 408              		.cfi_endproc
 409              	.LFE34:
 410              		.size	LaunchApp, .-LaunchApp
 411 0012 00BF     		.section	.text.Bootloader_ValidateApplication,"ax",%progbits
 412              		.align	2
 413              		.global	Bootloader_ValidateApplication
 414              		.thumb
 415              		.thumb_func
 416              		.type	Bootloader_ValidateApplication, %function
 417              	Bootloader_ValidateApplication:
 418              	.LFB35:
 450:.\Generated_Source\PSoC5/Bootloader.c **** #endif  /* (__ARMCC_VERSION) */
 451:.\Generated_Source\PSoC5/Bootloader.c **** 
 452:.\Generated_Source\PSoC5/Bootloader.c **** 
 453:.\Generated_Source\PSoC5/Bootloader.c **** /*******************************************************************************
 454:.\Generated_Source\PSoC5/Bootloader.c **** * Function Name: Bootloader_ValidateApplication
 455:.\Generated_Source\PSoC5/Bootloader.c **** ********************************************************************************
 456:.\Generated_Source\PSoC5/Bootloader.c **** * Summary:
 457:.\Generated_Source\PSoC5/Bootloader.c **** *  This routine computes the checksum, zero check, 0xFF check of the
 458:.\Generated_Source\PSoC5/Bootloader.c **** *  application area to determine whether a valid application is loaded.
 459:.\Generated_Source\PSoC5/Bootloader.c **** *
 460:.\Generated_Source\PSoC5/Bootloader.c **** * Parameters:
 461:.\Generated_Source\PSoC5/Bootloader.c **** *  appId:
 462:.\Generated_Source\PSoC5/Bootloader.c **** *      The application number to verify
 463:.\Generated_Source\PSoC5/Bootloader.c **** *
 464:.\Generated_Source\PSoC5/Bootloader.c **** * Returns:
 465:.\Generated_Source\PSoC5/Bootloader.c **** *  CYRET_SUCCESS  - if successful
 466:.\Generated_Source\PSoC5/Bootloader.c **** *  CYRET_BAD_DATA - if the bootloadable is corrupt
 467:.\Generated_Source\PSoC5/Bootloader.c **** *
 468:.\Generated_Source\PSoC5/Bootloader.c **** *******************************************************************************/
 469:.\Generated_Source\PSoC5/Bootloader.c **** #if(0u != Bootloader_DUAL_APP_BOOTLOADER)
 470:.\Generated_Source\PSoC5/Bootloader.c ****     cystatus Bootloader_ValidateApp(uint8 appId) CYSMALL 
 471:.\Generated_Source\PSoC5/Bootloader.c ****     {
 472:.\Generated_Source\PSoC5/Bootloader.c **** #else
 473:.\Generated_Source\PSoC5/Bootloader.c ****     cystatus Bootloader_ValidateApplication() CYSMALL 
 474:.\Generated_Source\PSoC5/Bootloader.c ****     {
 419              		.loc 1 474 0
 420              		.cfi_startproc
 421              		@ args = 0, pretend = 0, frame = 16
 422              		@ frame_needed = 1, uses_anonymous_args = 0
 423              		@ link register save eliminated.
 424 0000 80B4     		push	{r7}
 425              	.LCFI13:
 426              		.cfi_def_cfa_offset 4
 427 0002 85B0     		sub	sp, sp, #20
 428              	.LCFI14:
 429              		.cfi_def_cfa_offset 24
 430 0004 00AF     		add	r7, sp, #0
 431              		.cfi_offset 7, -4
 432              	.LCFI15:
 433              		.cfi_def_cfa_register 7
 475:.\Generated_Source\PSoC5/Bootloader.c **** #endif  /* (0u != Bootloader_DUAL_APP_BOOTLOADER) */
ARM GAS  C:\DOCUME~1\ADMINI~1\LOCALS~1\Temp\ccjQOVXj.s 			page 17


 476:.\Generated_Source\PSoC5/Bootloader.c ****         uint32 CYDATA idx;
 477:.\Generated_Source\PSoC5/Bootloader.c ****         uint32 CYDATA end = Bootloader_FIRST_APP_BYTE + Bootloader_BL_APP_BYTE_LEN;
 434              		.loc 1 477 0
 435 0006 4FF6C573 		movw	r3, #:lower16:131013
 436 000a C0F20103 		movt	r3, #:upper16:131013
 437 000e 1B88     		ldrh	r3, [r3, #0]
 438 0010 03F10103 		add	r3, r3, #1
 439 0014 4FEA0323 		lsl	r3, r3, #8
 440 0018 1A46     		mov	r2, r3
 441 001a 4FF6C973 		movw	r3, #:lower16:131017
 442 001e C0F20103 		movt	r3, #:upper16:131017
 443 0022 1B68     		ldr	r3, [r3, #0]
 444 0024 1344     		add	r3, r2, r3
 445 0026 BB60     		str	r3, [r7, #8]
 478:.\Generated_Source\PSoC5/Bootloader.c ****         CYBIT         valid = 0; /* Assume bad flash image */
 446              		.loc 1 478 0
 447 0028 4FF00003 		mov	r3, #0
 448 002c 7B73     		strb	r3, [r7, #13]
 479:.\Generated_Source\PSoC5/Bootloader.c ****         uint8  CYDATA calcedChecksum = 0;
 449              		.loc 1 479 0
 450 002e 4FF00003 		mov	r3, #0
 451 0032 BB73     		strb	r3, [r7, #14]
 480:.\Generated_Source\PSoC5/Bootloader.c **** 
 481:.\Generated_Source\PSoC5/Bootloader.c **** 
 482:.\Generated_Source\PSoC5/Bootloader.c ****         #if(0u != Bootloader_DUAL_APP_BOOTLOADER)
 483:.\Generated_Source\PSoC5/Bootloader.c **** 
 484:.\Generated_Source\PSoC5/Bootloader.c ****             if(appId > 1u)
 485:.\Generated_Source\PSoC5/Bootloader.c ****             {
 486:.\Generated_Source\PSoC5/Bootloader.c ****                 return(CYRET_BAD_DATA);
 487:.\Generated_Source\PSoC5/Bootloader.c ****             }
 488:.\Generated_Source\PSoC5/Bootloader.c **** 
 489:.\Generated_Source\PSoC5/Bootloader.c ****         #endif  /* (0u != Bootloader_DUAL_APP_BOOTLOADER) */
 490:.\Generated_Source\PSoC5/Bootloader.c **** 
 491:.\Generated_Source\PSoC5/Bootloader.c **** 
 492:.\Generated_Source\PSoC5/Bootloader.c ****         #if(1u == Bootloader_FAST_APP_VALIDATION)
 493:.\Generated_Source\PSoC5/Bootloader.c **** 
 494:.\Generated_Source\PSoC5/Bootloader.c ****             if(Bootloader_BL_APP_VERIFIED)
 495:.\Generated_Source\PSoC5/Bootloader.c ****             {
 496:.\Generated_Source\PSoC5/Bootloader.c ****                 return(CYRET_SUCCESS);
 497:.\Generated_Source\PSoC5/Bootloader.c ****             }
 498:.\Generated_Source\PSoC5/Bootloader.c **** 
 499:.\Generated_Source\PSoC5/Bootloader.c ****         #endif  /* (1u == Bootloader_FAST_APP_VALIDATION) */
 500:.\Generated_Source\PSoC5/Bootloader.c **** 
 501:.\Generated_Source\PSoC5/Bootloader.c **** 
 502:.\Generated_Source\PSoC5/Bootloader.c ****         /* Calculate checksum of bootloadable image */
 503:.\Generated_Source\PSoC5/Bootloader.c ****         for(idx = Bootloader_FIRST_APP_BYTE; idx < end; ++idx)
 452              		.loc 1 503 0
 453 0034 4FF6C573 		movw	r3, #:lower16:131013
 454 0038 C0F20103 		movt	r3, #:upper16:131013
 455 003c 1B88     		ldrh	r3, [r3, #0]
 456 003e 03F10103 		add	r3, r3, #1
 457 0042 4FEA0323 		lsl	r3, r3, #8
 458 0046 7B60     		str	r3, [r7, #4]
 459 0048 13E0     		b	.L23
 460              	.L25:
 461              	.LBB2:
 504:.\Generated_Source\PSoC5/Bootloader.c ****         {
ARM GAS  C:\DOCUME~1\ADMINI~1\LOCALS~1\Temp\ccjQOVXj.s 			page 18


 505:.\Generated_Source\PSoC5/Bootloader.c ****             uint8 CYDATA curByte = Bootloader_GET_CODE_DATA(idx);
 462              		.loc 1 505 0
 463 004a 7B68     		ldr	r3, [r7, #4]
 464 004c 1B78     		ldrb	r3, [r3, #0]
 465 004e FB73     		strb	r3, [r7, #15]
 506:.\Generated_Source\PSoC5/Bootloader.c **** 
 507:.\Generated_Source\PSoC5/Bootloader.c ****             if((curByte != 0) && (curByte != 0xFF))
 466              		.loc 1 507 0
 467 0050 FB7B     		ldrb	r3, [r7, #15]	@ zero_extendqisi2
 468 0052 002B     		cmp	r3, #0
 469 0054 05D0     		beq	.L24
 470 0056 FB7B     		ldrb	r3, [r7, #15]	@ zero_extendqisi2
 471 0058 FF2B     		cmp	r3, #255
 472 005a 02D0     		beq	.L24
 508:.\Generated_Source\PSoC5/Bootloader.c ****             {
 509:.\Generated_Source\PSoC5/Bootloader.c ****                 valid = 1;
 473              		.loc 1 509 0
 474 005c 4FF00103 		mov	r3, #1
 475 0060 7B73     		strb	r3, [r7, #13]
 476              	.L24:
 510:.\Generated_Source\PSoC5/Bootloader.c ****             }
 511:.\Generated_Source\PSoC5/Bootloader.c **** 
 512:.\Generated_Source\PSoC5/Bootloader.c ****             calcedChecksum += curByte;
 477              		.loc 1 512 0
 478 0062 BA7B     		ldrb	r2, [r7, #14]
 479 0064 FB7B     		ldrb	r3, [r7, #15]
 480 0066 1344     		add	r3, r2, r3
 481 0068 BB73     		strb	r3, [r7, #14]
 482              	.LBE2:
 483              		.loc 1 503 0
 484 006a 7B68     		ldr	r3, [r7, #4]
 485 006c 03F10103 		add	r3, r3, #1
 486 0070 7B60     		str	r3, [r7, #4]
 487              	.L23:
 488 0072 7A68     		ldr	r2, [r7, #4]
 489 0074 BB68     		ldr	r3, [r7, #8]
 490 0076 9A42     		cmp	r2, r3
 491 0078 E7D3     		bcc	.L25
 513:.\Generated_Source\PSoC5/Bootloader.c ****         }
 514:.\Generated_Source\PSoC5/Bootloader.c **** 
 515:.\Generated_Source\PSoC5/Bootloader.c **** 
 516:.\Generated_Source\PSoC5/Bootloader.c ****         /***************************************************************************
 517:.\Generated_Source\PSoC5/Bootloader.c ****         * We do not compute checksum over the meta data section, so no need to
 518:.\Generated_Source\PSoC5/Bootloader.c ****         * subtract off App Verified or App Active information here like we do when
 519:.\Generated_Source\PSoC5/Bootloader.c ****         * verifying a row.
 520:.\Generated_Source\PSoC5/Bootloader.c ****         ***************************************************************************/
 521:.\Generated_Source\PSoC5/Bootloader.c **** 
 522:.\Generated_Source\PSoC5/Bootloader.c **** 
 523:.\Generated_Source\PSoC5/Bootloader.c ****         #if((!CY_PSOC4) && (CYDEV_ECC_ENABLE == 0))
 524:.\Generated_Source\PSoC5/Bootloader.c **** 
 525:.\Generated_Source\PSoC5/Bootloader.c ****             /* Add ECC data to checksum */
 526:.\Generated_Source\PSoC5/Bootloader.c ****             idx = ((Bootloader_FIRST_APP_BYTE) >> 3);
 492              		.loc 1 526 0
 493 007a 4FF6C573 		movw	r3, #:lower16:131013
 494 007e C0F20103 		movt	r3, #:upper16:131013
 495 0082 1B88     		ldrh	r3, [r3, #0]
 496 0084 03F10103 		add	r3, r3, #1
ARM GAS  C:\DOCUME~1\ADMINI~1\LOCALS~1\Temp\ccjQOVXj.s 			page 19


 497 0088 4FEA0323 		lsl	r3, r3, #8
 498 008c 4FEAD303 		lsr	r3, r3, #3
 499 0090 7B60     		str	r3, [r7, #4]
 527:.\Generated_Source\PSoC5/Bootloader.c **** 
 528:.\Generated_Source\PSoC5/Bootloader.c ****             /* Flash may run into meta data, ECC does not so use full row */
 529:.\Generated_Source\PSoC5/Bootloader.c ****             end = (end == (FLASH_SIZE - Bootloader_META_DATA_SIZE))
 500              		.loc 1 529 0
 501 0092 BA68     		ldr	r2, [r7, #8]
 502 0094 4FF6C073 		movw	r3, #:lower16:131008
 503 0098 C0F20103 		movt	r3, #:upper16:131008
 504 009c 9A42     		cmp	r2, r3
 505 009e 03D0     		beq	.L26
 506 00a0 BB68     		ldr	r3, [r7, #8]
 507 00a2 4FEAD303 		lsr	r3, r3, #3
 508 00a6 01E0     		b	.L27
 509              	.L26:
 510 00a8 4FF48043 		mov	r3, #16384
 511              	.L27:
 512 00ac BB60     		str	r3, [r7, #8]
 530:.\Generated_Source\PSoC5/Bootloader.c ****                 ? FLASH_SIZE >> 3
 531:.\Generated_Source\PSoC5/Bootloader.c ****                 : end >> 3;
 532:.\Generated_Source\PSoC5/Bootloader.c **** 
 533:.\Generated_Source\PSoC5/Bootloader.c ****             for (; idx < end; ++idx)
 513              		.loc 1 533 0
 514 00ae 0BE0     		b	.L28
 515              	.L29:
 534:.\Generated_Source\PSoC5/Bootloader.c ****             {
 535:.\Generated_Source\PSoC5/Bootloader.c ****                 calcedChecksum += CY_GET_XTND_REG8((void CYFAR *)(CYDEV_ECC_BASE + idx));
 516              		.loc 1 535 0
 517 00b0 7B68     		ldr	r3, [r7, #4]
 518 00b2 03F19043 		add	r3, r3, #1207959552
 519 00b6 1B78     		ldrb	r3, [r3, #0]
 520 00b8 DAB2     		uxtb	r2, r3
 521 00ba BB7B     		ldrb	r3, [r7, #14]
 522 00bc 1344     		add	r3, r2, r3
 523 00be BB73     		strb	r3, [r7, #14]
 524              		.loc 1 533 0
 525 00c0 7B68     		ldr	r3, [r7, #4]
 526 00c2 03F10103 		add	r3, r3, #1
 527 00c6 7B60     		str	r3, [r7, #4]
 528              	.L28:
 529 00c8 7A68     		ldr	r2, [r7, #4]
 530 00ca BB68     		ldr	r3, [r7, #8]
 531 00cc 9A42     		cmp	r2, r3
 532 00ce EFD3     		bcc	.L29
 536:.\Generated_Source\PSoC5/Bootloader.c ****             }
 537:.\Generated_Source\PSoC5/Bootloader.c **** 
 538:.\Generated_Source\PSoC5/Bootloader.c ****         #endif  /* ((!CY_PSOC4) && (CYDEV_ECC_ENABLE == 0)) */
 539:.\Generated_Source\PSoC5/Bootloader.c **** 
 540:.\Generated_Source\PSoC5/Bootloader.c **** 
 541:.\Generated_Source\PSoC5/Bootloader.c ****         calcedChecksum = 1 + ~calcedChecksum;
 533              		.loc 1 541 0
 534 00d0 BB7B     		ldrb	r3, [r7, #14]	@ zero_extendqisi2
 535 00d2 C3F10003 		rsb	r3, r3, #0
 536 00d6 DBB2     		uxtb	r3, r3
 537 00d8 BB73     		strb	r3, [r7, #14]
 542:.\Generated_Source\PSoC5/Bootloader.c ****         if((calcedChecksum != Bootloader_BL_APP_CHECKSUM) || !valid)
ARM GAS  C:\DOCUME~1\ADMINI~1\LOCALS~1\Temp\ccjQOVXj.s 			page 20


 538              		.loc 1 542 0
 539 00da 4FF6C073 		movw	r3, #:lower16:131008
 540 00de C0F20103 		movt	r3, #:upper16:131008
 541 00e2 1B78     		ldrb	r3, [r3, #0]	@ zero_extendqisi2
 542 00e4 BA7B     		ldrb	r2, [r7, #14]	@ zero_extendqisi2
 543 00e6 9A42     		cmp	r2, r3
 544 00e8 02D1     		bne	.L30
 545 00ea 7B7B     		ldrb	r3, [r7, #13]	@ zero_extendqisi2
 546 00ec 002B     		cmp	r3, #0
 547 00ee 02D1     		bne	.L31
 548              	.L30:
 543:.\Generated_Source\PSoC5/Bootloader.c ****         {
 544:.\Generated_Source\PSoC5/Bootloader.c ****             return(CYRET_BAD_DATA);
 549              		.loc 1 544 0
 550 00f0 4FF00603 		mov	r3, #6
 551 00f4 01E0     		b	.L32
 552              	.L31:
 545:.\Generated_Source\PSoC5/Bootloader.c ****         }
 546:.\Generated_Source\PSoC5/Bootloader.c **** 
 547:.\Generated_Source\PSoC5/Bootloader.c **** 
 548:.\Generated_Source\PSoC5/Bootloader.c ****         #if(1u == Bootloader_FAST_APP_VALIDATION)
 549:.\Generated_Source\PSoC5/Bootloader.c ****             Bootloader_SetFlashByte(Bootloader_MD_APP_VERIFIED_ADDR, 1);
 550:.\Generated_Source\PSoC5/Bootloader.c ****         #endif  /* (1u == Bootloader_FAST_APP_VALIDATION) */
 551:.\Generated_Source\PSoC5/Bootloader.c **** 
 552:.\Generated_Source\PSoC5/Bootloader.c **** 
 553:.\Generated_Source\PSoC5/Bootloader.c ****         return(CYRET_SUCCESS);
 553              		.loc 1 553 0
 554 00f6 4FF00003 		mov	r3, #0
 555              	.L32:
 554:.\Generated_Source\PSoC5/Bootloader.c **** }
 556              		.loc 1 554 0
 557 00fa 1846     		mov	r0, r3
 558 00fc 07F11407 		add	r7, r7, #20
 559 0100 BD46     		mov	sp, r7
 560 0102 80BC     		pop	{r7}
 561 0104 7047     		bx	lr
 562              		.cfi_endproc
 563              	.LFE35:
 564              		.size	Bootloader_ValidateApplication, .-Bootloader_ValidateApplication
 565 0106 00BF     		.section	.text.Bootloader_HostLink,"ax",%progbits
 566              		.align	2
 567              		.global	Bootloader_HostLink
 568              		.thumb
 569              		.thumb_func
 570              		.type	Bootloader_HostLink, %function
 571              	Bootloader_HostLink:
 572              	.LFB36:
 555:.\Generated_Source\PSoC5/Bootloader.c **** 
 556:.\Generated_Source\PSoC5/Bootloader.c **** 
 557:.\Generated_Source\PSoC5/Bootloader.c **** /*******************************************************************************
 558:.\Generated_Source\PSoC5/Bootloader.c **** * Function Name: Bootloader_HostLink
 559:.\Generated_Source\PSoC5/Bootloader.c **** ********************************************************************************
 560:.\Generated_Source\PSoC5/Bootloader.c **** *
 561:.\Generated_Source\PSoC5/Bootloader.c **** * Summary:
 562:.\Generated_Source\PSoC5/Bootloader.c **** *  Causes the bootloader to attempt to read data being transmitted by the
 563:.\Generated_Source\PSoC5/Bootloader.c **** *  host application.  If data is sent from the host, this establishes the
 564:.\Generated_Source\PSoC5/Bootloader.c **** *  communication interface to process all requests.
ARM GAS  C:\DOCUME~1\ADMINI~1\LOCALS~1\Temp\ccjQOVXj.s 			page 21


 565:.\Generated_Source\PSoC5/Bootloader.c **** *
 566:.\Generated_Source\PSoC5/Bootloader.c **** * Parameters:
 567:.\Generated_Source\PSoC5/Bootloader.c **** *  timeOut:
 568:.\Generated_Source\PSoC5/Bootloader.c **** *   The amount of time to listen for data before giving up. Timeout is
 569:.\Generated_Source\PSoC5/Bootloader.c **** *   measured in 10s of ms.  Use 0 for infinite wait.
 570:.\Generated_Source\PSoC5/Bootloader.c **** *
 571:.\Generated_Source\PSoC5/Bootloader.c **** * Return:
 572:.\Generated_Source\PSoC5/Bootloader.c **** *   None
 573:.\Generated_Source\PSoC5/Bootloader.c **** *
 574:.\Generated_Source\PSoC5/Bootloader.c **** *******************************************************************************/
 575:.\Generated_Source\PSoC5/Bootloader.c **** void Bootloader_HostLink(uint8 timeOut) 
 576:.\Generated_Source\PSoC5/Bootloader.c **** {
 573              		.loc 1 576 0
 574              		.cfi_startproc
 575              		@ args = 0, pretend = 0, frame = 944
 576              		@ frame_needed = 1, uses_anonymous_args = 0
 577 0000 80B5     		push	{r7, lr}
 578              	.LCFI16:
 579              		.cfi_def_cfa_offset 8
 580 0002 ADF56C7D 		sub	sp, sp, #944
 581              	.LCFI17:
 582              		.cfi_def_cfa_offset 952
 583 0006 00AF     		add	r7, sp, #0
 584              		.cfi_offset 14, -4
 585              		.cfi_offset 7, -8
 586              	.LCFI18:
 587              		.cfi_def_cfa_register 7
 588 0008 0246     		mov	r2, r0
 589 000a 07F10803 		add	r3, r7, #8
 590 000e 03F1FF33 		add	r3, r3, #-1
 591 0012 1A70     		strb	r2, [r3, #0]
 577:.\Generated_Source\PSoC5/Bootloader.c ****     uint16    CYDATA numberRead;
 578:.\Generated_Source\PSoC5/Bootloader.c ****     uint16    CYDATA rspSize;
 579:.\Generated_Source\PSoC5/Bootloader.c ****     uint8     CYDATA ackCode;
 580:.\Generated_Source\PSoC5/Bootloader.c ****     uint16    CYDATA pktChecksum;
 581:.\Generated_Source\PSoC5/Bootloader.c ****     cystatus  CYDATA readStat;
 582:.\Generated_Source\PSoC5/Bootloader.c ****     uint16    CYDATA pktSize = 0;
 592              		.loc 1 582 0
 593 0014 4FF00003 		mov	r3, #0
 594 0018 A7F89833 		strh	r3, [r7, #920]	@ movhi
 583:.\Generated_Source\PSoC5/Bootloader.c ****     uint16 CYDATA dataOffset = 0;
 595              		.loc 1 583 0
 596 001c 4FF00003 		mov	r3, #0
 597 0020 A7F89A33 		strh	r3, [r7, #922]	@ movhi
 584:.\Generated_Source\PSoC5/Bootloader.c **** 
 585:.\Generated_Source\PSoC5/Bootloader.c ****     #if(0u == Bootloader_DUAL_APP_BOOTLOADER)
 586:.\Generated_Source\PSoC5/Bootloader.c ****         uint8 CYDATA clearedMetaData = 0;
 598              		.loc 1 586 0
 599 0024 4FF00003 		mov	r3, #0
 600 0028 87F89D33 		strb	r3, [r7, #925]
 587:.\Generated_Source\PSoC5/Bootloader.c ****     #endif  /* (0u == Bootloader_DUAL_APP_BOOTLOADER) */
 588:.\Generated_Source\PSoC5/Bootloader.c **** 
 589:.\Generated_Source\PSoC5/Bootloader.c ****     CYBIT     communicationActive = (timeOut == 0);
 601              		.loc 1 589 0
 602 002c 07F10803 		add	r3, r7, #8
 603 0030 03F1FF33 		add	r3, r3, #-1
 604 0034 1B78     		ldrb	r3, [r3, #0]	@ zero_extendqisi2
ARM GAS  C:\DOCUME~1\ADMINI~1\LOCALS~1\Temp\ccjQOVXj.s 			page 22


 605 0036 002B     		cmp	r3, #0
 606 0038 14BF     		ite	ne
 607 003a 0023     		movne	r3, #0
 608 003c 0123     		moveq	r3, #1
 609 003e 87F89E33 		strb	r3, [r7, #926]
 590:.\Generated_Source\PSoC5/Bootloader.c ****     uint8     packetBuffer[Bootloader_SIZEOF_COMMAND_BUFFER];
 591:.\Generated_Source\PSoC5/Bootloader.c ****     uint8     dataBuffer  [Bootloader_SIZEOF_COMMAND_BUFFER];
 592:.\Generated_Source\PSoC5/Bootloader.c **** 
 593:.\Generated_Source\PSoC5/Bootloader.c **** 
 594:.\Generated_Source\PSoC5/Bootloader.c ****     if(timeOut == 0u)
 610              		.loc 1 594 0
 611 0042 07F10803 		add	r3, r7, #8
 612 0046 03F1FF33 		add	r3, r3, #-1
 613 004a 1B78     		ldrb	r3, [r3, #0]	@ zero_extendqisi2
 614 004c 002B     		cmp	r3, #0
 615 004e 06D1     		bne	.L35
 595:.\Generated_Source\PSoC5/Bootloader.c ****     {
 596:.\Generated_Source\PSoC5/Bootloader.c ****         timeOut = 0xFF;
 616              		.loc 1 596 0
 617 0050 07F10803 		add	r3, r7, #8
 618 0054 03F1FF33 		add	r3, r3, #-1
 619 0058 4FF0FF32 		mov	r2, #-1
 620 005c 1A70     		strb	r2, [r3, #0]
 621              	.L35:
 597:.\Generated_Source\PSoC5/Bootloader.c ****     }
 598:.\Generated_Source\PSoC5/Bootloader.c **** 
 599:.\Generated_Source\PSoC5/Bootloader.c ****     /* Initialize communications channel. */
 600:.\Generated_Source\PSoC5/Bootloader.c ****     CyBtldrCommStart();
 622              		.loc 1 600 0
 623 005e FFF7FEFF 		bl	USBFS_CyBtldrCommStart
 601:.\Generated_Source\PSoC5/Bootloader.c **** 
 602:.\Generated_Source\PSoC5/Bootloader.c ****     /* Enable global interrupts */
 603:.\Generated_Source\PSoC5/Bootloader.c ****     CyGlobalIntEnable;
 624              		.loc 1 603 0
 625              	@ 603 ".\Generated_Source\PSoC5\Bootloader.c" 1
 626 0062 62B6     		CPSIE   i
 627              	@ 0 "" 2
 628              		.thumb
 629              	.L78:
 604:.\Generated_Source\PSoC5/Bootloader.c **** 
 605:.\Generated_Source\PSoC5/Bootloader.c ****     do
 606:.\Generated_Source\PSoC5/Bootloader.c ****     {
 607:.\Generated_Source\PSoC5/Bootloader.c ****         ackCode = CYRET_SUCCESS;
 630              		.loc 1 607 0
 631 0064 4FF00003 		mov	r3, #0
 632 0068 87F89133 		strb	r3, [r7, #913]
 608:.\Generated_Source\PSoC5/Bootloader.c ****         readStat = CyBtldrCommRead(packetBuffer, Bootloader_SIZEOF_COMMAND_BUFFER, &numberRead, tim
 633              		.loc 1 608 0
 634 006c 07F51871 		add	r1, r7, #608
 635 0070 07F56372 		add	r2, r7, #908
 636 0074 07F10803 		add	r3, r7, #8
 637 0078 03F1FF33 		add	r3, r3, #-1
 638 007c 1B78     		ldrb	r3, [r3, #0]	@ zero_extendqisi2
 639 007e 0846     		mov	r0, r1
 640 0080 4FF49671 		mov	r1, #300
 641 0084 FFF7FEFF 		bl	USBFS_CyBtldrCommRead
 642 0088 0346     		mov	r3, r0
ARM GAS  C:\DOCUME~1\ADMINI~1\LOCALS~1\Temp\ccjQOVXj.s 			page 23


 643 008a C7F89433 		str	r3, [r7, #916]
 609:.\Generated_Source\PSoC5/Bootloader.c **** 
 610:.\Generated_Source\PSoC5/Bootloader.c ****         if(readStat == CYRET_TIMEOUT || readStat == CYRET_EMPTY)
 644              		.loc 1 610 0
 645 008e D7F89433 		ldr	r3, [r7, #916]
 646 0092 102B     		cmp	r3, #16
 647 0094 00F08882 		beq	.L80
 648 0098 D7F89433 		ldr	r3, [r7, #916]
 649 009c 052B     		cmp	r3, #5
 650 009e 00F08582 		beq	.L81
 651              	.L37:
 611:.\Generated_Source\PSoC5/Bootloader.c ****         {
 612:.\Generated_Source\PSoC5/Bootloader.c ****             continue;
 613:.\Generated_Source\PSoC5/Bootloader.c ****         }
 614:.\Generated_Source\PSoC5/Bootloader.c **** 
 615:.\Generated_Source\PSoC5/Bootloader.c ****         if((numberRead < Bootloader_MIN_PKT_SIZE) ||
 652              		.loc 1 615 0
 653 00a2 B7F88C33 		ldrh	r3, [r7, #908]
 654 00a6 062B     		cmp	r3, #6
 655 00a8 04D9     		bls	.L39
 616:.\Generated_Source\PSoC5/Bootloader.c ****            (packetBuffer[Bootloader_SOP_ADDR] != Bootloader_SOP))
 656              		.loc 1 616 0
 657 00aa 07F51873 		add	r3, r7, #608
 658 00ae 1B78     		ldrb	r3, [r3, #0]	@ zero_extendqisi2
 659              		.loc 1 615 0
 660 00b0 012B     		cmp	r3, #1
 661 00b2 04D0     		beq	.L40
 662              	.L39:
 617:.\Generated_Source\PSoC5/Bootloader.c ****         {
 618:.\Generated_Source\PSoC5/Bootloader.c ****             ackCode = Bootloader_ERR_DATA;
 663              		.loc 1 618 0
 664 00b4 4FF00403 		mov	r3, #4
 665 00b8 87F89133 		strb	r3, [r7, #913]
 666              		.loc 1 615 0
 667 00bc 3FE0     		b	.L41
 668              	.L40:
 619:.\Generated_Source\PSoC5/Bootloader.c ****         }
 620:.\Generated_Source\PSoC5/Bootloader.c ****         else
 621:.\Generated_Source\PSoC5/Bootloader.c ****         {
 622:.\Generated_Source\PSoC5/Bootloader.c ****             #if(!CY_PSOC4)
 623:.\Generated_Source\PSoC5/Bootloader.c ****                 pktSize     = CY_GET_REG16(&packetBuffer[Bootloader_SIZE_ADDR]);
 669              		.loc 1 623 0
 670 00be 07F51873 		add	r3, r7, #608
 671 00c2 03F10203 		add	r3, r3, #2
 672 00c6 1B88     		ldrh	r3, [r3, #0]	@ movhi
 673 00c8 A7F89833 		strh	r3, [r7, #920]	@ movhi
 624:.\Generated_Source\PSoC5/Bootloader.c ****                 pktChecksum = CY_GET_REG16(&packetBuffer[Bootloader_CHK_ADDR(pktSize)]);
 674              		.loc 1 624 0
 675 00cc B7F89833 		ldrh	r3, [r7, #920]
 676 00d0 03F10402 		add	r2, r3, #4
 677 00d4 07F51873 		add	r3, r7, #608
 678 00d8 1344     		add	r3, r3, r2
 679 00da 1B88     		ldrh	r3, [r3, #0]	@ movhi
 680 00dc A7F89233 		strh	r3, [r7, #914]	@ movhi
 625:.\Generated_Source\PSoC5/Bootloader.c ****             #else
 626:.\Generated_Source\PSoC5/Bootloader.c ****                 pktSize     = Bootloader_GET_REG16(&packetBuffer[Bootloader_SIZE_ADDR]);
 627:.\Generated_Source\PSoC5/Bootloader.c ****                 pktChecksum = Bootloader_GET_REG16(&packetBuffer[Bootloader_CHK_ADDR(pktSize)]);
ARM GAS  C:\DOCUME~1\ADMINI~1\LOCALS~1\Temp\ccjQOVXj.s 			page 24


 628:.\Generated_Source\PSoC5/Bootloader.c ****             #endif  /* (!CY_PSOC4) */
 629:.\Generated_Source\PSoC5/Bootloader.c **** 
 630:.\Generated_Source\PSoC5/Bootloader.c ****             if((pktSize + Bootloader_MIN_PKT_SIZE) > numberRead)
 681              		.loc 1 630 0
 682 00e0 B7F89833 		ldrh	r3, [r7, #920]
 683 00e4 03F10702 		add	r2, r3, #7
 684 00e8 B7F88C33 		ldrh	r3, [r7, #908]
 685 00ec 9A42     		cmp	r2, r3
 686 00ee 04D9     		bls	.L42
 631:.\Generated_Source\PSoC5/Bootloader.c ****             {
 632:.\Generated_Source\PSoC5/Bootloader.c ****                 ackCode = Bootloader_ERR_LENGTH;
 687              		.loc 1 632 0
 688 00f0 4FF00303 		mov	r3, #3
 689 00f4 87F89133 		strb	r3, [r7, #913]
 690 00f8 21E0     		b	.L41
 691              	.L42:
 633:.\Generated_Source\PSoC5/Bootloader.c ****             }
 634:.\Generated_Source\PSoC5/Bootloader.c ****             else if(packetBuffer[Bootloader_EOP_ADDR(pktSize)] != Bootloader_EOP)
 692              		.loc 1 634 0
 693 00fa B7F89833 		ldrh	r3, [r7, #920]
 694 00fe 03F10603 		add	r3, r3, #6
 695 0102 07F51872 		add	r2, r7, #608
 696 0106 D35C     		ldrb	r3, [r2, r3]	@ zero_extendqisi2
 697 0108 172B     		cmp	r3, #23
 698 010a 04D0     		beq	.L43
 635:.\Generated_Source\PSoC5/Bootloader.c ****             {
 636:.\Generated_Source\PSoC5/Bootloader.c ****                 ackCode = Bootloader_ERR_DATA;
 699              		.loc 1 636 0
 700 010c 4FF00403 		mov	r3, #4
 701 0110 87F89133 		strb	r3, [r7, #913]
 702 0114 13E0     		b	.L41
 703              	.L43:
 637:.\Generated_Source\PSoC5/Bootloader.c ****             }
 638:.\Generated_Source\PSoC5/Bootloader.c ****             else if(pktChecksum != Bootloader_CalcPacketChecksum(packetBuffer, pktSize + Bootloader
 704              		.loc 1 638 0
 705 0116 B7F89833 		ldrh	r3, [r7, #920]	@ movhi
 706 011a 03F10403 		add	r3, r3, #4
 707 011e 9BB2     		uxth	r3, r3
 708 0120 07F51872 		add	r2, r7, #608
 709 0124 1046     		mov	r0, r2
 710 0126 1946     		mov	r1, r3
 711 0128 FFF7FEFF 		bl	Bootloader_CalcPacketChecksum
 712 012c 0346     		mov	r3, r0
 713 012e B7F89223 		ldrh	r2, [r7, #914]
 714 0132 9A42     		cmp	r2, r3
 715 0134 03D0     		beq	.L41
 639:.\Generated_Source\PSoC5/Bootloader.c ****             {
 640:.\Generated_Source\PSoC5/Bootloader.c ****                 ackCode = Bootloader_ERR_CHECKSUM;
 716              		.loc 1 640 0
 717 0136 4FF00803 		mov	r3, #8
 718 013a 87F89133 		strb	r3, [r7, #913]
 719              	.L41:
 641:.\Generated_Source\PSoC5/Bootloader.c ****             }
 642:.\Generated_Source\PSoC5/Bootloader.c ****             else
 643:.\Generated_Source\PSoC5/Bootloader.c ****             {
 644:.\Generated_Source\PSoC5/Bootloader.c ****                 /* Empty section */
 645:.\Generated_Source\PSoC5/Bootloader.c ****             }
ARM GAS  C:\DOCUME~1\ADMINI~1\LOCALS~1\Temp\ccjQOVXj.s 			page 25


 646:.\Generated_Source\PSoC5/Bootloader.c ****         }
 647:.\Generated_Source\PSoC5/Bootloader.c **** 
 648:.\Generated_Source\PSoC5/Bootloader.c ****         rspSize = 0;
 720              		.loc 1 648 0
 721 013e 4FF00003 		mov	r3, #0
 722 0142 A7F88E33 		strh	r3, [r7, #910]	@ movhi
 649:.\Generated_Source\PSoC5/Bootloader.c ****         if(ackCode == CYRET_SUCCESS)
 723              		.loc 1 649 0
 724 0146 97F89133 		ldrb	r3, [r7, #913]	@ zero_extendqisi2
 725 014a 002B     		cmp	r3, #0
 726 014c 40F02082 		bne	.L44
 727              	.LBB3:
 650:.\Generated_Source\PSoC5/Bootloader.c ****         {
 651:.\Generated_Source\PSoC5/Bootloader.c ****             uint8 CYDATA btldrData = packetBuffer[Bootloader_DATA_ADDR];
 728              		.loc 1 651 0
 729 0150 07F51873 		add	r3, r7, #608
 730 0154 1B79     		ldrb	r3, [r3, #4]
 731 0156 87F89F33 		strb	r3, [r7, #927]
 652:.\Generated_Source\PSoC5/Bootloader.c **** 
 653:.\Generated_Source\PSoC5/Bootloader.c ****             ackCode = Bootloader_ERR_DATA;
 732              		.loc 1 653 0
 733 015a 4FF00403 		mov	r3, #4
 734 015e 87F89133 		strb	r3, [r7, #913]
 654:.\Generated_Source\PSoC5/Bootloader.c ****             switch(packetBuffer[Bootloader_CMD_ADDR])
 735              		.loc 1 654 0
 736 0162 07F51873 		add	r3, r7, #608
 737 0166 5B78     		ldrb	r3, [r3, #1]	@ zero_extendqisi2
 738 0168 A3F13103 		sub	r3, r3, #49
 739 016c 0A2B     		cmp	r3, #10
 740 016e 00F2F781 		bhi	.L45
 741 0172 01A2     		adr	r2, .L55
 742 0174 52F823F0 		ldr	pc, [r2, r3, lsl #2]
 743              		.align	2
 744              	.L55:
 745 0178 A5010000 		.word	.L46+1
 746 017c DF010000 		.word	.L47+1
 747 0180 61050000 		.word	.L45+1
 748 0184 63020000 		.word	.L48+1
 749 0188 6D030000 		.word	.L49+1
 750 018c 61050000 		.word	.L45+1
 751 0190 77030000 		.word	.L50+1
 752 0194 C5030000 		.word	.L51+1
 753 0198 8F020000 		.word	.L52+1
 754 019c 17040000 		.word	.L53+1
 755 01a0 39050000 		.word	.L54+1
 756              	.L46:
 655:.\Generated_Source\PSoC5/Bootloader.c ****             {
 656:.\Generated_Source\PSoC5/Bootloader.c **** 
 657:.\Generated_Source\PSoC5/Bootloader.c **** 
 658:.\Generated_Source\PSoC5/Bootloader.c ****             /***************************************************************************
 659:.\Generated_Source\PSoC5/Bootloader.c ****             *   Verify Checksum
 660:.\Generated_Source\PSoC5/Bootloader.c ****             ***************************************************************************/
 661:.\Generated_Source\PSoC5/Bootloader.c ****             case Bootloader_COMMAND_CHECKSUM:
 662:.\Generated_Source\PSoC5/Bootloader.c **** 
 663:.\Generated_Source\PSoC5/Bootloader.c ****                 if(communicationActive && (pktSize == 0u))
 757              		.loc 1 663 0
 758 01a4 97F89E33 		ldrb	r3, [r7, #926]	@ zero_extendqisi2
ARM GAS  C:\DOCUME~1\ADMINI~1\LOCALS~1\Temp\ccjQOVXj.s 			page 26


 759 01a8 002B     		cmp	r3, #0
 760 01aa 00F0DE81 		beq	.L82
 761 01ae B7F89833 		ldrh	r3, [r7, #920]
 762 01b2 002B     		cmp	r3, #0
 763 01b4 40F0DB81 		bne	.L83
 664:.\Generated_Source\PSoC5/Bootloader.c ****                 {
 665:.\Generated_Source\PSoC5/Bootloader.c ****                     rspSize = 1;
 764              		.loc 1 665 0
 765 01b8 4FF00103 		mov	r3, #1
 766 01bc A7F88E33 		strh	r3, [r7, #910]	@ movhi
 666:.\Generated_Source\PSoC5/Bootloader.c ****                     packetBuffer[Bootloader_DATA_ADDR] =
 667:.\Generated_Source\PSoC5/Bootloader.c ****                                 (Bootloader_ValidateApp(Bootloader_activeApp) == CYRET_SUCCESS);
 767              		.loc 1 667 0
 768 01c0 FFF7FEFF 		bl	Bootloader_ValidateApplication
 769 01c4 0346     		mov	r3, r0
 770 01c6 002B     		cmp	r3, #0
 771 01c8 14BF     		ite	ne
 772 01ca 0022     		movne	r2, #0
 773 01cc 0122     		moveq	r2, #1
 774              		.loc 1 666 0
 775 01ce 07F51873 		add	r3, r7, #608
 776 01d2 1A71     		strb	r2, [r3, #4]
 668:.\Generated_Source\PSoC5/Bootloader.c ****                     ackCode = CYRET_SUCCESS;
 777              		.loc 1 668 0
 778 01d4 4FF00003 		mov	r3, #0
 779 01d8 87F89133 		strb	r3, [r7, #913]
 669:.\Generated_Source\PSoC5/Bootloader.c ****                 }
 670:.\Generated_Source\PSoC5/Bootloader.c ****                 break;
 780              		.loc 1 670 0
 781 01dc D8E1     		b	.L44
 782              	.L47:
 671:.\Generated_Source\PSoC5/Bootloader.c **** 
 672:.\Generated_Source\PSoC5/Bootloader.c **** 
 673:.\Generated_Source\PSoC5/Bootloader.c ****             /***************************************************************************
 674:.\Generated_Source\PSoC5/Bootloader.c ****             *   Get Flash Size
 675:.\Generated_Source\PSoC5/Bootloader.c ****             ***************************************************************************/
 676:.\Generated_Source\PSoC5/Bootloader.c ****             #if(Bootloader_CMD_GET_FLASH_SIZE_AVAIL == 1u)
 677:.\Generated_Source\PSoC5/Bootloader.c **** 
 678:.\Generated_Source\PSoC5/Bootloader.c ****                 case Bootloader_COMMAND_REPORT_SIZE:
 679:.\Generated_Source\PSoC5/Bootloader.c **** 
 680:.\Generated_Source\PSoC5/Bootloader.c ****                     if(communicationActive && (pktSize == 1u))
 783              		.loc 1 680 0
 784 01de 97F89E33 		ldrb	r3, [r7, #926]	@ zero_extendqisi2
 785 01e2 002B     		cmp	r3, #0
 786 01e4 00F0C581 		beq	.L84
 787 01e8 B7F89833 		ldrh	r3, [r7, #920]
 788 01ec 012B     		cmp	r3, #1
 789 01ee 40F0C281 		bne	.L85
 681:.\Generated_Source\PSoC5/Bootloader.c ****                     {
 682:.\Generated_Source\PSoC5/Bootloader.c ****                         if(btldrData < Bootloader_FLASH_NUMBER_SECTORS)
 790              		.loc 1 682 0
 791 01f2 97F89F33 		ldrb	r3, [r7, #927]	@ zero_extendqisi2
 792 01f6 012B     		cmp	r3, #1
 793 01f8 2AD8     		bhi	.L58
 794              	.LBB4:
 683:.\Generated_Source\PSoC5/Bootloader.c ****                         {
 684:.\Generated_Source\PSoC5/Bootloader.c ****                             uint16 CYDATA startRow = (btldrData == 0)
ARM GAS  C:\DOCUME~1\ADMINI~1\LOCALS~1\Temp\ccjQOVXj.s 			page 27


 685:.\Generated_Source\PSoC5/Bootloader.c ****                                 ? (*Bootloader_SizeBytesAccess / CYDEV_FLS_ROW_SIZE)
 686:.\Generated_Source\PSoC5/Bootloader.c ****                                 : 0;
 795              		.loc 1 686 0
 796 01fa 97F89F33 		ldrb	r3, [r7, #927]	@ zero_extendqisi2
 797 01fe 002B     		cmp	r3, #0
 798 0200 09D1     		bne	.L59
 799              		.loc 1 685 0
 800 0202 40F20003 		movw	r3, #:lower16:Bootloader_SizeBytesAccess
 801 0206 C0F20003 		movt	r3, #:upper16:Bootloader_SizeBytesAccess
 802 020a 1B68     		ldr	r3, [r3, #0]
 803 020c 1B68     		ldr	r3, [r3, #0]
 804 020e 4FEA1323 		lsr	r3, r3, #8
 805              		.loc 1 686 0
 806 0212 9BB2     		uxth	r3, r3
 807 0214 01E0     		b	.L60
 808              	.L59:
 809 0216 4FF00003 		mov	r3, #0
 810              	.L60:
 811 021a A7F8A033 		strh	r3, [r7, #928]	@ movhi
 687:.\Generated_Source\PSoC5/Bootloader.c **** 
 688:.\Generated_Source\PSoC5/Bootloader.c ****                             packetBuffer[Bootloader_DATA_ADDR]     = LO8(startRow);
 812              		.loc 1 688 0
 813 021e B7F8A033 		ldrh	r3, [r7, #928]	@ movhi
 814 0222 DAB2     		uxtb	r2, r3
 815 0224 07F51873 		add	r3, r7, #608
 816 0228 1A71     		strb	r2, [r3, #4]
 689:.\Generated_Source\PSoC5/Bootloader.c ****                             packetBuffer[Bootloader_DATA_ADDR + 1] = HI8(startRow);
 817              		.loc 1 689 0
 818 022a B7F8A033 		ldrh	r3, [r7, #928]
 819 022e 4FEA1323 		lsr	r3, r3, #8
 820 0232 9BB2     		uxth	r3, r3
 821 0234 DAB2     		uxtb	r2, r3
 822 0236 07F51873 		add	r3, r7, #608
 823 023a 5A71     		strb	r2, [r3, #5]
 690:.\Generated_Source\PSoC5/Bootloader.c ****                             packetBuffer[Bootloader_DATA_ADDR + 2] = LO8(CY_FLASH_NUMBER_ROWS - 1);
 824              		.loc 1 690 0
 825 023c 07F51873 		add	r3, r7, #608
 826 0240 4FF0FF32 		mov	r2, #-1
 827 0244 9A71     		strb	r2, [r3, #6]
 691:.\Generated_Source\PSoC5/Bootloader.c ****                             packetBuffer[Bootloader_DATA_ADDR + 3] = HI8(CY_FLASH_NUMBER_ROWS - 1);
 828              		.loc 1 691 0
 829 0246 07F51873 		add	r3, r7, #608
 830 024a 4FF00102 		mov	r2, #1
 831 024e DA71     		strb	r2, [r3, #7]
 832              	.L58:
 833              	.LBE4:
 692:.\Generated_Source\PSoC5/Bootloader.c ****                         }
 693:.\Generated_Source\PSoC5/Bootloader.c **** 
 694:.\Generated_Source\PSoC5/Bootloader.c ****                         rspSize = 4;
 834              		.loc 1 694 0
 835 0250 4FF00403 		mov	r3, #4
 836 0254 A7F88E33 		strh	r3, [r7, #910]	@ movhi
 695:.\Generated_Source\PSoC5/Bootloader.c ****                         ackCode = CYRET_SUCCESS;
 837              		.loc 1 695 0
 838 0258 4FF00003 		mov	r3, #0
 839 025c 87F89133 		strb	r3, [r7, #913]
 696:.\Generated_Source\PSoC5/Bootloader.c ****                     }
ARM GAS  C:\DOCUME~1\ADMINI~1\LOCALS~1\Temp\ccjQOVXj.s 			page 28


 697:.\Generated_Source\PSoC5/Bootloader.c ****                     break;
 840              		.loc 1 697 0
 841 0260 96E1     		b	.L44
 842              	.L48:
 698:.\Generated_Source\PSoC5/Bootloader.c **** 
 699:.\Generated_Source\PSoC5/Bootloader.c ****             #endif  /* (Bootloader_CMD_GET_FLASH_SIZE_AVAIL == 1u) */
 700:.\Generated_Source\PSoC5/Bootloader.c **** 
 701:.\Generated_Source\PSoC5/Bootloader.c **** 
 702:.\Generated_Source\PSoC5/Bootloader.c ****             /***************************************************************************
 703:.\Generated_Source\PSoC5/Bootloader.c ****             *   Get Application Status
 704:.\Generated_Source\PSoC5/Bootloader.c ****             ***************************************************************************/
 705:.\Generated_Source\PSoC5/Bootloader.c ****             #if(1u == Bootloader_DUAL_APP_BOOTLOADER)
 706:.\Generated_Source\PSoC5/Bootloader.c **** 
 707:.\Generated_Source\PSoC5/Bootloader.c ****                 #if(1u == Bootloader_CMD_GET_APP_STATUS_AVAIL)
 708:.\Generated_Source\PSoC5/Bootloader.c **** 
 709:.\Generated_Source\PSoC5/Bootloader.c ****                     case Bootloader_COMMAND_APP_STATUS:
 710:.\Generated_Source\PSoC5/Bootloader.c **** 
 711:.\Generated_Source\PSoC5/Bootloader.c ****                         if(communicationActive && (pktSize == 1u))
 712:.\Generated_Source\PSoC5/Bootloader.c ****                         {
 713:.\Generated_Source\PSoC5/Bootloader.c ****                             rspSize = 2u;
 714:.\Generated_Source\PSoC5/Bootloader.c ****                             packetBuffer[Bootloader_DATA_ADDR] = Bootloader_ValidateApp(btldrData);
 715:.\Generated_Source\PSoC5/Bootloader.c **** 
 716:.\Generated_Source\PSoC5/Bootloader.c ****                             packetBuffer[Bootloader_DATA_ADDR + 1] =
 717:.\Generated_Source\PSoC5/Bootloader.c ****                                         (uint8)(*Bootloader_P_APP_ACTIVE(btldrData));
 718:.\Generated_Source\PSoC5/Bootloader.c **** 
 719:.\Generated_Source\PSoC5/Bootloader.c ****                             ackCode = CYRET_SUCCESS;
 720:.\Generated_Source\PSoC5/Bootloader.c ****                         }
 721:.\Generated_Source\PSoC5/Bootloader.c ****                         break;
 722:.\Generated_Source\PSoC5/Bootloader.c **** 
 723:.\Generated_Source\PSoC5/Bootloader.c ****                 #endif  /* (1u == Bootloader_CMD_GET_APP_STATUS_AVAIL) */
 724:.\Generated_Source\PSoC5/Bootloader.c **** 
 725:.\Generated_Source\PSoC5/Bootloader.c ****             #endif  /* (1u == Bootloader_DUAL_APP_BOOTLOADER) */
 726:.\Generated_Source\PSoC5/Bootloader.c **** 
 727:.\Generated_Source\PSoC5/Bootloader.c **** 
 728:.\Generated_Source\PSoC5/Bootloader.c ****             /***************************************************************************
 729:.\Generated_Source\PSoC5/Bootloader.c ****             *   Erase Row
 730:.\Generated_Source\PSoC5/Bootloader.c ****             ***************************************************************************/
 731:.\Generated_Source\PSoC5/Bootloader.c ****             #if(Bootloader_CMD_ERASE_ROW_AVAIL == 1u)
 732:.\Generated_Source\PSoC5/Bootloader.c **** 
 733:.\Generated_Source\PSoC5/Bootloader.c ****                 case Bootloader_COMMAND_ERASE:
 734:.\Generated_Source\PSoC5/Bootloader.c **** 
 735:.\Generated_Source\PSoC5/Bootloader.c ****                     if(communicationActive && (pktSize != 3u))
 843              		.loc 1 735 0
 844 0262 97F89E33 		ldrb	r3, [r7, #926]	@ zero_extendqisi2
 845 0266 002B     		cmp	r3, #0
 846 0268 04D0     		beq	.L61
 847 026a B7F89833 		ldrh	r3, [r7, #920]
 848 026e 032B     		cmp	r3, #3
 849 0270 40F08381 		bne	.L86
 850              	.L61:
 736:.\Generated_Source\PSoC5/Bootloader.c ****                     {
 737:.\Generated_Source\PSoC5/Bootloader.c ****                         break;
 738:.\Generated_Source\PSoC5/Bootloader.c ****                     }
 739:.\Generated_Source\PSoC5/Bootloader.c **** 
 740:.\Generated_Source\PSoC5/Bootloader.c ****                     dataOffset = Bootloader_FROW_SIZE;
 851              		.loc 1 740 0
 852 0274 4FF49073 		mov	r3, #288
ARM GAS  C:\DOCUME~1\ADMINI~1\LOCALS~1\Temp\ccjQOVXj.s 			page 29


 853 0278 A7F89A33 		strh	r3, [r7, #922]	@ movhi
 741:.\Generated_Source\PSoC5/Bootloader.c ****                     memset(dataBuffer, 0u, Bootloader_FROW_SIZE);
 854              		.loc 1 741 0
 855 027c 07F59A73 		add	r3, r7, #308
 856 0280 1846     		mov	r0, r3
 857 0282 4FF00001 		mov	r1, #0
 858 0286 4FF49072 		mov	r2, #288
 859 028a FFF7FEFF 		bl	memset
 860              	.L52:
 742:.\Generated_Source\PSoC5/Bootloader.c **** 
 743:.\Generated_Source\PSoC5/Bootloader.c ****                     /* Intentional fall through to write the row */
 744:.\Generated_Source\PSoC5/Bootloader.c **** 
 745:.\Generated_Source\PSoC5/Bootloader.c ****             #endif  /* (Bootloader_CMD_ERASE_ROW_AVAIL == 1u) */
 746:.\Generated_Source\PSoC5/Bootloader.c **** 
 747:.\Generated_Source\PSoC5/Bootloader.c **** 
 748:.\Generated_Source\PSoC5/Bootloader.c ****             /***************************************************************************
 749:.\Generated_Source\PSoC5/Bootloader.c ****             *   Program Row
 750:.\Generated_Source\PSoC5/Bootloader.c ****             ***************************************************************************/
 751:.\Generated_Source\PSoC5/Bootloader.c ****             case Bootloader_COMMAND_PROGRAM:
 752:.\Generated_Source\PSoC5/Bootloader.c **** 
 753:.\Generated_Source\PSoC5/Bootloader.c ****                 if(communicationActive && (pktSize >= 3u))
 861              		.loc 1 753 0
 862 028e 97F89E33 		ldrb	r3, [r7, #926]	@ zero_extendqisi2
 863 0292 002B     		cmp	r3, #0
 864 0294 00F07381 		beq	.L87
 865 0298 B7F89833 		ldrh	r3, [r7, #920]
 866 029c 022B     		cmp	r3, #2
 867 029e 40F27081 		bls	.L88
 754:.\Generated_Source\PSoC5/Bootloader.c ****                 {
 755:.\Generated_Source\PSoC5/Bootloader.c ****                     memcpy(&dataBuffer[dataOffset], &packetBuffer[Bootloader_DATA_ADDR + 3], pktSiz
 868              		.loc 1 755 0
 869 02a2 B7F89A23 		ldrh	r2, [r7, #922]
 870 02a6 07F59A73 		add	r3, r7, #308
 871 02aa 1344     		add	r3, r3, r2
 872 02ac B7F89823 		ldrh	r2, [r7, #920]
 873 02b0 A2F10302 		sub	r2, r2, #3
 874 02b4 07F51871 		add	r1, r7, #608
 875 02b8 01F10701 		add	r1, r1, #7
 876 02bc 1846     		mov	r0, r3
 877 02be FFF7FEFF 		bl	memcpy
 756:.\Generated_Source\PSoC5/Bootloader.c ****                     dataOffset += (pktSize - 3);
 878              		.loc 1 756 0
 879 02c2 B7F89823 		ldrh	r2, [r7, #920]	@ movhi
 880 02c6 B7F89A33 		ldrh	r3, [r7, #922]	@ movhi
 881 02ca 1344     		add	r3, r2, r3
 882 02cc 9BB2     		uxth	r3, r3
 883 02ce A3F10303 		sub	r3, r3, #3
 884 02d2 A7F89A33 		strh	r3, [r7, #922]	@ movhi
 757:.\Generated_Source\PSoC5/Bootloader.c **** 
 758:.\Generated_Source\PSoC5/Bootloader.c ****                     pktSize = Bootloader_FROW_SIZE;
 885              		.loc 1 758 0
 886 02d6 4FF49073 		mov	r3, #288
 887 02da A7F89833 		strh	r3, [r7, #920]	@ movhi
 759:.\Generated_Source\PSoC5/Bootloader.c **** 
 760:.\Generated_Source\PSoC5/Bootloader.c ****                     if(dataOffset == pktSize)
 888              		.loc 1 760 0
 889 02de B7F89A23 		ldrh	r2, [r7, #922]
ARM GAS  C:\DOCUME~1\ADMINI~1\LOCALS~1\Temp\ccjQOVXj.s 			page 30


 890 02e2 B7F89833 		ldrh	r3, [r7, #920]
 891 02e6 9A42     		cmp	r2, r3
 892 02e8 37D1     		bne	.L63
 761:.\Generated_Source\PSoC5/Bootloader.c ****                     {
 762:.\Generated_Source\PSoC5/Bootloader.c ****                         #if(!CY_PSOC4)
 763:.\Generated_Source\PSoC5/Bootloader.c ****                             dataOffset = CY_GET_REG16(&(packetBuffer[Bootloader_DATA_ADDR + 1u]));
 893              		.loc 1 763 0
 894 02ea 07F51873 		add	r3, r7, #608
 895 02ee 03F10503 		add	r3, r3, #5
 896 02f2 1B88     		ldrh	r3, [r3, #0]	@ movhi
 897 02f4 A7F89A33 		strh	r3, [r7, #922]	@ movhi
 764:.\Generated_Source\PSoC5/Bootloader.c ****                         #else
 765:.\Generated_Source\PSoC5/Bootloader.c ****                             dataOffset = Bootloader_GET_REG16(&(packetBuffer[Bootloader_DATA_ADDR +
 766:.\Generated_Source\PSoC5/Bootloader.c ****                         #endif  /* (!CY_PSOC4) */
 767:.\Generated_Source\PSoC5/Bootloader.c **** 
 768:.\Generated_Source\PSoC5/Bootloader.c ****                         #if(0u == Bootloader_DUAL_APP_BOOTLOADER)
 769:.\Generated_Source\PSoC5/Bootloader.c **** 
 770:.\Generated_Source\PSoC5/Bootloader.c ****                             if(!clearedMetaData)
 898              		.loc 1 770 0
 899 02f8 97F89D33 		ldrb	r3, [r7, #925]	@ zero_extendqisi2
 900 02fc 002B     		cmp	r3, #0
 901 02fe 17D1     		bne	.L64
 902              	.LBB5:
 771:.\Generated_Source\PSoC5/Bootloader.c ****                             {
 772:.\Generated_Source\PSoC5/Bootloader.c ****                                 uint8 erase[Bootloader_FROW_SIZE];
 773:.\Generated_Source\PSoC5/Bootloader.c **** 
 774:.\Generated_Source\PSoC5/Bootloader.c ****                                 memset(erase, 0, Bootloader_FROW_SIZE);
 903              		.loc 1 774 0
 904 0300 07F10C03 		add	r3, r7, #12
 905 0304 1846     		mov	r0, r3
 906 0306 4FF00001 		mov	r1, #0
 907 030a 4FF49072 		mov	r2, #288
 908 030e FFF7FEFF 		bl	memset
 775:.\Generated_Source\PSoC5/Bootloader.c **** 
 776:.\Generated_Source\PSoC5/Bootloader.c ****                                 #if(CY_PSOC4)
 777:.\Generated_Source\PSoC5/Bootloader.c ****                                     CySysFlashWriteRow(Bootloader_MD_ROW, erase);
 778:.\Generated_Source\PSoC5/Bootloader.c ****                                 #else
 779:.\Generated_Source\PSoC5/Bootloader.c ****                                     CyWriteRowFull(Bootloader_META_ARRAY, Bootloader_MD_ROW, erase,
 909              		.loc 1 779 0
 910 0312 07F10C03 		add	r3, r7, #12
 911 0316 4FF00100 		mov	r0, #1
 912 031a 4FF0FF01 		mov	r1, #255
 913 031e 1A46     		mov	r2, r3
 914 0320 4FF49073 		mov	r3, #288
 915 0324 FFF7FEFF 		bl	CyWriteRowFull
 780:.\Generated_Source\PSoC5/Bootloader.c ****                                 #endif  /* (CY_PSOC4) */
 781:.\Generated_Source\PSoC5/Bootloader.c **** 
 782:.\Generated_Source\PSoC5/Bootloader.c ****                                 clearedMetaData = 1;
 916              		.loc 1 782 0
 917 0328 4FF00103 		mov	r3, #1
 918 032c 87F89D33 		strb	r3, [r7, #925]
 919              	.L64:
 920              	.LBE5:
 783:.\Generated_Source\PSoC5/Bootloader.c ****                             }
 784:.\Generated_Source\PSoC5/Bootloader.c **** 
 785:.\Generated_Source\PSoC5/Bootloader.c ****                         #else
 786:.\Generated_Source\PSoC5/Bootloader.c **** 
ARM GAS  C:\DOCUME~1\ADMINI~1\LOCALS~1\Temp\ccjQOVXj.s 			page 31


 787:.\Generated_Source\PSoC5/Bootloader.c ****                             if(Bootloader_activeApp < 2u)
 788:.\Generated_Source\PSoC5/Bootloader.c ****                             {
 789:.\Generated_Source\PSoC5/Bootloader.c ****                                 #if(CY_PSOC4)
 790:.\Generated_Source\PSoC5/Bootloader.c **** 
 791:.\Generated_Source\PSoC5/Bootloader.c ****                                     uint16 row = dataOffset;
 792:.\Generated_Source\PSoC5/Bootloader.c ****                                     uint16 firstRow = Bootloader_GET_REG32(\
 793:.\Generated_Source\PSoC5/Bootloader.c ****                                         Bootloader_META_LAST_BLDR_ROW_ADDR(Bootloader_activeApp)) +
 794:.\Generated_Source\PSoC5/Bootloader.c **** 
 795:.\Generated_Source\PSoC5/Bootloader.c ****                                 #else
 796:.\Generated_Source\PSoC5/Bootloader.c **** 
 797:.\Generated_Source\PSoC5/Bootloader.c ****                                     uint16 row = (btldrData * (CYDEV_FLS_SECTOR_SIZE / CYDEV_FLS_RO
 798:.\Generated_Source\PSoC5/Bootloader.c ****                                                   dataOffset;
 799:.\Generated_Source\PSoC5/Bootloader.c **** 
 800:.\Generated_Source\PSoC5/Bootloader.c ****                                     uint16 firstRow = (*((uint16 CYCODE *)\
 801:.\Generated_Source\PSoC5/Bootloader.c ****                                         (Bootloader_META_LAST_BLDR_ROW_ADDR(Bootloader_activeApp)))
 802:.\Generated_Source\PSoC5/Bootloader.c ****                                         1;
 803:.\Generated_Source\PSoC5/Bootloader.c **** 
 804:.\Generated_Source\PSoC5/Bootloader.c ****                                 #endif  /* (CY_PSOC4) */
 805:.\Generated_Source\PSoC5/Bootloader.c **** 
 806:.\Generated_Source\PSoC5/Bootloader.c ****                                 /******************************************************************
 807:.\Generated_Source\PSoC5/Bootloader.c ****                                 * Last row is equal to the first row plus the number of rows availa
 808:.\Generated_Source\PSoC5/Bootloader.c ****                                 * To compute this, we first subtract the number of appliaction imag
 809:.\Generated_Source\PSoC5/Bootloader.c ****                                 * flash rows: (CY_FLASH_NUMBER_ROWS - 2u).
 810:.\Generated_Source\PSoC5/Bootloader.c ****                                 *
 811:.\Generated_Source\PSoC5/Bootloader.c ****                                 * Then subtract off the first row:
 812:.\Generated_Source\PSoC5/Bootloader.c ****                                 * App Rows = (CY_FLASH_NUMBER_ROWS - 2u - firstRow)
 813:.\Generated_Source\PSoC5/Bootloader.c ****                                 * Then divide that number by the number of application that must fi
 814:.\Generated_Source\PSoC5/Bootloader.c ****                                 * space, if we are app1 then that number is 2, if app2 then 1.  Our
 815:.\Generated_Source\PSoC5/Bootloader.c ****                                 * (2u - Bootloader_activeApp).
 816:.\Generated_Source\PSoC5/Bootloader.c ****                                 *
 817:.\Generated_Source\PSoC5/Bootloader.c ****                                 * Adding this number to firstRow gives the address right beyond our
 818:.\Generated_Source\PSoC5/Bootloader.c ****                                 * we subtract 1.
 819:.\Generated_Source\PSoC5/Bootloader.c ****                                 *******************************************************************
 820:.\Generated_Source\PSoC5/Bootloader.c ****                                 uint16 lastRow = (firstRow - 1) +
 821:.\Generated_Source\PSoC5/Bootloader.c ****                                                  (((CYDEV_FLASH_SIZE / CYDEV_FLS_ROW_SIZE) - 2u - f
 822:.\Generated_Source\PSoC5/Bootloader.c ****                                                   (2u - Bootloader_activeApp));
 823:.\Generated_Source\PSoC5/Bootloader.c **** 
 824:.\Generated_Source\PSoC5/Bootloader.c **** 
 825:.\Generated_Source\PSoC5/Bootloader.c ****                                 /******************************************************************
 826:.\Generated_Source\PSoC5/Bootloader.c ****                                 * Check to see if the row to program is within the range of the act
 827:.\Generated_Source\PSoC5/Bootloader.c ****                                 * or if it maches the active application's meta data row.  If so, r
 828:.\Generated_Source\PSoC5/Bootloader.c ****                                 * as it would corrupt the active app.
 829:.\Generated_Source\PSoC5/Bootloader.c ****                                 *******************************************************************
 830:.\Generated_Source\PSoC5/Bootloader.c ****                                 if((row >= firstRow && row <= lastRow) ||
 831:.\Generated_Source\PSoC5/Bootloader.c ****                                    (btldrData == Bootloader_META_ARRAY &&
 832:.\Generated_Source\PSoC5/Bootloader.c ****                                    dataOffset == Bootloader_MD_ROW(Bootloader_activeApp)))
 833:.\Generated_Source\PSoC5/Bootloader.c ****                                 {
 834:.\Generated_Source\PSoC5/Bootloader.c ****                                     ackCode = Bootloader_ERR_ACTIVE;
 835:.\Generated_Source\PSoC5/Bootloader.c ****                                     dataOffset = 0;
 836:.\Generated_Source\PSoC5/Bootloader.c ****                                     break;
 837:.\Generated_Source\PSoC5/Bootloader.c ****                                 }
 838:.\Generated_Source\PSoC5/Bootloader.c ****                             }
 839:.\Generated_Source\PSoC5/Bootloader.c **** 
 840:.\Generated_Source\PSoC5/Bootloader.c ****                         #endif  /* (0u == Bootloader_DUAL_APP_BOOTLOADER) */
 841:.\Generated_Source\PSoC5/Bootloader.c **** 
 842:.\Generated_Source\PSoC5/Bootloader.c **** 
 843:.\Generated_Source\PSoC5/Bootloader.c ****                         #if(CY_PSOC4)
ARM GAS  C:\DOCUME~1\ADMINI~1\LOCALS~1\Temp\ccjQOVXj.s 			page 32


 844:.\Generated_Source\PSoC5/Bootloader.c **** 
 845:.\Generated_Source\PSoC5/Bootloader.c ****                             ackCode = CySysFlashWriteRow(dataOffset, dataBuffer) \
 846:.\Generated_Source\PSoC5/Bootloader.c ****                                 ? Bootloader_ERR_ROW \
 847:.\Generated_Source\PSoC5/Bootloader.c ****                                 : CYRET_SUCCESS;
 848:.\Generated_Source\PSoC5/Bootloader.c **** 
 849:.\Generated_Source\PSoC5/Bootloader.c ****                         #else
 850:.\Generated_Source\PSoC5/Bootloader.c **** 
 851:.\Generated_Source\PSoC5/Bootloader.c ****                             ackCode = CyWriteRowFull(btldrData, dataOffset, dataBuffer, pktSize) \
 921              		.loc 1 851 0
 922 0330 97F89F03 		ldrb	r0, [r7, #927]	@ zero_extendqisi2
 923 0334 B7F89A13 		ldrh	r1, [r7, #922]
 924 0338 07F59A72 		add	r2, r7, #308
 925 033c B7F89833 		ldrh	r3, [r7, #920]
 926 0340 FFF7FEFF 		bl	CyWriteRowFull
 927 0344 0346     		mov	r3, r0
 928 0346 002B     		cmp	r3, #0
 929 0348 02D0     		beq	.L65
 930 034a 4FF00A03 		mov	r3, #10
 931 034e 01E0     		b	.L66
 932              	.L65:
 933 0350 4FF00003 		mov	r3, #0
 934              	.L66:
 935 0354 87F89133 		strb	r3, [r7, #913]
 936 0358 03E0     		b	.L67
 937              	.L63:
 852:.\Generated_Source\PSoC5/Bootloader.c ****                                 ? Bootloader_ERR_ROW \
 853:.\Generated_Source\PSoC5/Bootloader.c ****                                 : CYRET_SUCCESS;
 854:.\Generated_Source\PSoC5/Bootloader.c **** 
 855:.\Generated_Source\PSoC5/Bootloader.c ****                         #endif  /* (CY_PSOC4) */
 856:.\Generated_Source\PSoC5/Bootloader.c **** 
 857:.\Generated_Source\PSoC5/Bootloader.c ****                     }
 858:.\Generated_Source\PSoC5/Bootloader.c ****                     else
 859:.\Generated_Source\PSoC5/Bootloader.c ****                     {
 860:.\Generated_Source\PSoC5/Bootloader.c ****                         ackCode = Bootloader_ERR_LENGTH;
 938              		.loc 1 860 0
 939 035a 4FF00303 		mov	r3, #3
 940 035e 87F89133 		strb	r3, [r7, #913]
 941              	.L67:
 861:.\Generated_Source\PSoC5/Bootloader.c ****                     }
 862:.\Generated_Source\PSoC5/Bootloader.c **** 
 863:.\Generated_Source\PSoC5/Bootloader.c ****                     dataOffset = 0;
 942              		.loc 1 863 0
 943 0362 4FF00003 		mov	r3, #0
 944 0366 A7F89A33 		strh	r3, [r7, #922]	@ movhi
 864:.\Generated_Source\PSoC5/Bootloader.c ****                 }
 865:.\Generated_Source\PSoC5/Bootloader.c ****                 break;
 945              		.loc 1 865 0
 946 036a 11E1     		b	.L44
 947              	.L49:
 866:.\Generated_Source\PSoC5/Bootloader.c **** 
 867:.\Generated_Source\PSoC5/Bootloader.c **** 
 868:.\Generated_Source\PSoC5/Bootloader.c ****             /***************************************************************************
 869:.\Generated_Source\PSoC5/Bootloader.c ****             *   Sync Bootloader
 870:.\Generated_Source\PSoC5/Bootloader.c ****             ***************************************************************************/
 871:.\Generated_Source\PSoC5/Bootloader.c ****             #if(1u == Bootloader_CMD_SYNC_BOOTLOADER_AVAIL)
 872:.\Generated_Source\PSoC5/Bootloader.c **** 
 873:.\Generated_Source\PSoC5/Bootloader.c ****             case Bootloader_COMMAND_SYNC:
ARM GAS  C:\DOCUME~1\ADMINI~1\LOCALS~1\Temp\ccjQOVXj.s 			page 33


 874:.\Generated_Source\PSoC5/Bootloader.c **** 
 875:.\Generated_Source\PSoC5/Bootloader.c ****                 /* If something failed the host would send this command to reset the bootloader. */
 876:.\Generated_Source\PSoC5/Bootloader.c ****                 dataOffset = 0;
 948              		.loc 1 876 0
 949 036c 4FF00003 		mov	r3, #0
 950 0370 A7F89A33 		strh	r3, [r7, #922]	@ movhi
 877:.\Generated_Source\PSoC5/Bootloader.c ****                 continue; /* Don't ack the packet, just get ready to accept the next one */
 951              		.loc 1 877 0
 952 0374 1BE1     		b	.L38
 953              	.L50:
 878:.\Generated_Source\PSoC5/Bootloader.c **** 
 879:.\Generated_Source\PSoC5/Bootloader.c ****             #endif  /* (1u == Bootloader_CMD_SYNC_BOOTLOADER_AVAIL) */
 880:.\Generated_Source\PSoC5/Bootloader.c **** 
 881:.\Generated_Source\PSoC5/Bootloader.c **** 
 882:.\Generated_Source\PSoC5/Bootloader.c ****             /***************************************************************************
 883:.\Generated_Source\PSoC5/Bootloader.c ****             *   Set Active Application
 884:.\Generated_Source\PSoC5/Bootloader.c ****             ***************************************************************************/
 885:.\Generated_Source\PSoC5/Bootloader.c ****             #if(1u == Bootloader_DUAL_APP_BOOTLOADER)
 886:.\Generated_Source\PSoC5/Bootloader.c **** 
 887:.\Generated_Source\PSoC5/Bootloader.c ****                 case Bootloader_COMMAND_APP_ACTIVE:
 888:.\Generated_Source\PSoC5/Bootloader.c **** 
 889:.\Generated_Source\PSoC5/Bootloader.c ****                     if(communicationActive && (pktSize == 1))
 890:.\Generated_Source\PSoC5/Bootloader.c ****                     {
 891:.\Generated_Source\PSoC5/Bootloader.c ****                         if(!Bootloader_ValidateApp(btldrData))
 892:.\Generated_Source\PSoC5/Bootloader.c ****                         {
 893:.\Generated_Source\PSoC5/Bootloader.c ****                             uint8 CYDATA idx;
 894:.\Generated_Source\PSoC5/Bootloader.c **** 
 895:.\Generated_Source\PSoC5/Bootloader.c ****                             for(idx = 0; idx < 2u; idx++)
 896:.\Generated_Source\PSoC5/Bootloader.c ****                             {
 897:.\Generated_Source\PSoC5/Bootloader.c ****                                 Bootloader_SetFlashByte(Bootloader_META_APP_ACTIVE_ADDR(idx), idx =
 898:.\Generated_Source\PSoC5/Bootloader.c ****                             }
 899:.\Generated_Source\PSoC5/Bootloader.c ****                             Bootloader_activeApp = btldrData;
 900:.\Generated_Source\PSoC5/Bootloader.c ****                             ackCode = CYRET_SUCCESS;
 901:.\Generated_Source\PSoC5/Bootloader.c ****                         }
 902:.\Generated_Source\PSoC5/Bootloader.c ****                         else
 903:.\Generated_Source\PSoC5/Bootloader.c ****                         {
 904:.\Generated_Source\PSoC5/Bootloader.c ****                             ackCode = Bootloader_ERR_APP;
 905:.\Generated_Source\PSoC5/Bootloader.c ****                         }
 906:.\Generated_Source\PSoC5/Bootloader.c ****                     }
 907:.\Generated_Source\PSoC5/Bootloader.c ****                     break;
 908:.\Generated_Source\PSoC5/Bootloader.c **** 
 909:.\Generated_Source\PSoC5/Bootloader.c ****             #endif  /* (1u == Bootloader_DUAL_APP_BOOTLOADER) */
 910:.\Generated_Source\PSoC5/Bootloader.c **** 
 911:.\Generated_Source\PSoC5/Bootloader.c **** 
 912:.\Generated_Source\PSoC5/Bootloader.c ****             /***************************************************************************
 913:.\Generated_Source\PSoC5/Bootloader.c ****             *   Send Data
 914:.\Generated_Source\PSoC5/Bootloader.c ****             ***************************************************************************/
 915:.\Generated_Source\PSoC5/Bootloader.c ****             #if(Bootloader_CMD_SEND_DATA_AVAIL == 1u)
 916:.\Generated_Source\PSoC5/Bootloader.c **** 
 917:.\Generated_Source\PSoC5/Bootloader.c ****                 case Bootloader_COMMAND_DATA:
 918:.\Generated_Source\PSoC5/Bootloader.c **** 
 919:.\Generated_Source\PSoC5/Bootloader.c ****                     /*  Make sure that dataOffset is valid before copying the data */
 920:.\Generated_Source\PSoC5/Bootloader.c ****                     if((dataOffset + pktSize) <= Bootloader_SIZEOF_COMMAND_BUFFER)
 954              		.loc 1 920 0
 955 0376 B7F89A23 		ldrh	r2, [r7, #922]
 956 037a B7F89833 		ldrh	r3, [r7, #920]
 957 037e 1344     		add	r3, r2, r3
ARM GAS  C:\DOCUME~1\ADMINI~1\LOCALS~1\Temp\ccjQOVXj.s 			page 34


 958 0380 B3F5967F 		cmp	r3, #300
 959 0384 19D8     		bhi	.L68
 921:.\Generated_Source\PSoC5/Bootloader.c ****                     {
 922:.\Generated_Source\PSoC5/Bootloader.c ****                         ackCode = CYRET_SUCCESS;
 960              		.loc 1 922 0
 961 0386 4FF00003 		mov	r3, #0
 962 038a 87F89133 		strb	r3, [r7, #913]
 923:.\Generated_Source\PSoC5/Bootloader.c ****                         memcpy(&dataBuffer[dataOffset], &packetBuffer[Bootloader_DATA_ADDR], pktSiz
 963              		.loc 1 923 0
 964 038e B7F89A23 		ldrh	r2, [r7, #922]
 965 0392 07F59A73 		add	r3, r7, #308
 966 0396 1344     		add	r3, r3, r2
 967 0398 B7F89823 		ldrh	r2, [r7, #920]
 968 039c 07F51871 		add	r1, r7, #608
 969 03a0 01F10401 		add	r1, r1, #4
 970 03a4 1846     		mov	r0, r3
 971 03a6 FFF7FEFF 		bl	memcpy
 924:.\Generated_Source\PSoC5/Bootloader.c ****                         dataOffset += pktSize;
 972              		.loc 1 924 0
 973 03aa B7F89A23 		ldrh	r2, [r7, #922]	@ movhi
 974 03ae B7F89833 		ldrh	r3, [r7, #920]	@ movhi
 975 03b2 1344     		add	r3, r2, r3
 976 03b4 A7F89A33 		strh	r3, [r7, #922]	@ movhi
 925:.\Generated_Source\PSoC5/Bootloader.c ****                     }
 926:.\Generated_Source\PSoC5/Bootloader.c ****                     else
 927:.\Generated_Source\PSoC5/Bootloader.c ****                     {
 928:.\Generated_Source\PSoC5/Bootloader.c ****                         ackCode = Bootloader_ERR_LENGTH;
 929:.\Generated_Source\PSoC5/Bootloader.c ****                     }
 930:.\Generated_Source\PSoC5/Bootloader.c **** 
 931:.\Generated_Source\PSoC5/Bootloader.c ****                     break;
 977              		.loc 1 931 0
 978 03b8 EAE0     		b	.L44
 979              	.L68:
 980              		.loc 1 928 0
 981 03ba 4FF00303 		mov	r3, #3
 982 03be 87F89133 		strb	r3, [r7, #913]
 983              		.loc 1 931 0
 984 03c2 E5E0     		b	.L44
 985              	.L51:
 932:.\Generated_Source\PSoC5/Bootloader.c **** 
 933:.\Generated_Source\PSoC5/Bootloader.c ****             #endif  /* (Bootloader_CMD_SEND_DATA_AVAIL == 1u) */
 934:.\Generated_Source\PSoC5/Bootloader.c **** 
 935:.\Generated_Source\PSoC5/Bootloader.c **** 
 936:.\Generated_Source\PSoC5/Bootloader.c ****             /***************************************************************************
 937:.\Generated_Source\PSoC5/Bootloader.c ****             *   Enter Bootloader
 938:.\Generated_Source\PSoC5/Bootloader.c ****             ***************************************************************************/
 939:.\Generated_Source\PSoC5/Bootloader.c ****             case Bootloader_COMMAND_ENTER:
 940:.\Generated_Source\PSoC5/Bootloader.c **** 
 941:.\Generated_Source\PSoC5/Bootloader.c ****                 if(pktSize == 0)
 986              		.loc 1 941 0
 987 03c4 B7F89833 		ldrh	r3, [r7, #920]
 988 03c8 002B     		cmp	r3, #0
 989 03ca 40F0DC80 		bne	.L89
 990              	.LBB6:
 942:.\Generated_Source\PSoC5/Bootloader.c ****                 {
 943:.\Generated_Source\PSoC5/Bootloader.c ****                     #if(CY_PSOC3)
 944:.\Generated_Source\PSoC5/Bootloader.c **** 
ARM GAS  C:\DOCUME~1\ADMINI~1\LOCALS~1\Temp\ccjQOVXj.s 			page 35


 945:.\Generated_Source\PSoC5/Bootloader.c ****                         Bootloader_ENTER CYDATA BtldrVersion =
 946:.\Generated_Source\PSoC5/Bootloader.c ****                             {CYSWAP_ENDIAN32(CYDEV_CHIP_JTAG_ID), CYDEV_CHIP_REV_EXPECT, Bootloader
 947:.\Generated_Source\PSoC5/Bootloader.c **** 
 948:.\Generated_Source\PSoC5/Bootloader.c ****                     #else
 949:.\Generated_Source\PSoC5/Bootloader.c **** 
 950:.\Generated_Source\PSoC5/Bootloader.c ****                         Bootloader_ENTER CYDATA BtldrVersion =
 951:.\Generated_Source\PSoC5/Bootloader.c ****                             {CYDEV_CHIP_JTAG_ID, CYDEV_CHIP_REV_EXPECT, Bootloader_VERSION};
 991              		.loc 1 951 0
 992 03ce 07F59672 		add	r2, r7, #300
 993 03d2 40F20003 		movw	r3, #:lower16:C.35.3032
 994 03d6 C0F20003 		movt	r3, #:upper16:C.35.3032
 995 03da 93E80300 		ldmia	r3, {r0, r1}
 996 03de 82E80300 		stmia	r2, {r0, r1}
 952:.\Generated_Source\PSoC5/Bootloader.c **** 
 953:.\Generated_Source\PSoC5/Bootloader.c ****                     #endif  /* (CY_PSOC3) */
 954:.\Generated_Source\PSoC5/Bootloader.c **** 
 955:.\Generated_Source\PSoC5/Bootloader.c ****                     communicationActive = 1;
 997              		.loc 1 955 0
 998 03e2 4FF00103 		mov	r3, #1
 999 03e6 87F89E33 		strb	r3, [r7, #926]
 956:.\Generated_Source\PSoC5/Bootloader.c ****                     rspSize = sizeof(Bootloader_ENTER);
 1000              		.loc 1 956 0
 1001 03ea 4FF00803 		mov	r3, #8
 1002 03ee A7F88E33 		strh	r3, [r7, #910]	@ movhi
 957:.\Generated_Source\PSoC5/Bootloader.c ****                     memcpy(&packetBuffer[Bootloader_DATA_ADDR], &BtldrVersion, rspSize);
 1003              		.loc 1 957 0
 1004 03f2 B7F88E33 		ldrh	r3, [r7, #910]
 1005 03f6 07F51872 		add	r2, r7, #608
 1006 03fa 02F10401 		add	r1, r2, #4
 1007 03fe 07F59672 		add	r2, r7, #300
 1008 0402 0846     		mov	r0, r1
 1009 0404 1146     		mov	r1, r2
 1010 0406 1A46     		mov	r2, r3
 1011 0408 FFF7FEFF 		bl	memcpy
 958:.\Generated_Source\PSoC5/Bootloader.c ****                     ackCode = CYRET_SUCCESS;
 1012              		.loc 1 958 0
 1013 040c 4FF00003 		mov	r3, #0
 1014 0410 87F89133 		strb	r3, [r7, #913]
 1015              	.LBE6:
 959:.\Generated_Source\PSoC5/Bootloader.c ****                 }
 960:.\Generated_Source\PSoC5/Bootloader.c ****                 break;
 1016              		.loc 1 960 0
 1017 0414 BCE0     		b	.L44
 1018              	.L53:
 961:.\Generated_Source\PSoC5/Bootloader.c **** 
 962:.\Generated_Source\PSoC5/Bootloader.c **** 
 963:.\Generated_Source\PSoC5/Bootloader.c ****             /***************************************************************************
 964:.\Generated_Source\PSoC5/Bootloader.c ****             *   Verify Row
 965:.\Generated_Source\PSoC5/Bootloader.c ****             ***************************************************************************/
 966:.\Generated_Source\PSoC5/Bootloader.c ****             case Bootloader_COMMAND_VERIFY:
 967:.\Generated_Source\PSoC5/Bootloader.c **** 
 968:.\Generated_Source\PSoC5/Bootloader.c ****                 if(communicationActive && (pktSize == 3u))
 1019              		.loc 1 968 0
 1020 0416 97F89E33 		ldrb	r3, [r7, #926]	@ zero_extendqisi2
 1021 041a 002B     		cmp	r3, #0
 1022 041c 00F0B580 		beq	.L90
 1023 0420 B7F89833 		ldrh	r3, [r7, #920]
ARM GAS  C:\DOCUME~1\ADMINI~1\LOCALS~1\Temp\ccjQOVXj.s 			page 36


 1024 0424 032B     		cmp	r3, #3
 1025 0426 40F0B280 		bne	.L91
 1026              	.LBB7:
 969:.\Generated_Source\PSoC5/Bootloader.c ****                 {
 970:.\Generated_Source\PSoC5/Bootloader.c ****                     /* Read the existing flash data. */
 971:.\Generated_Source\PSoC5/Bootloader.c ****                     #if(!CY_PSOC4)
 972:.\Generated_Source\PSoC5/Bootloader.c ****                         uint16 CYDATA rowNum = CY_GET_REG16(&(packetBuffer[Bootloader_DATA_ADDR + 1
 1027              		.loc 1 972 0
 1028 042a 07F51873 		add	r3, r7, #608
 1029 042e 03F10503 		add	r3, r3, #5
 1030 0432 1B88     		ldrh	r3, [r3, #0]	@ movhi
 1031 0434 A7F8A233 		strh	r3, [r7, #930]	@ movhi
 973:.\Generated_Source\PSoC5/Bootloader.c ****                     #else
 974:.\Generated_Source\PSoC5/Bootloader.c ****                         uint16 CYDATA rowNum =
 975:.\Generated_Source\PSoC5/Bootloader.c ****                                         Bootloader_GET_REG16(&(packetBuffer[Bootloader_DATA_ADDR + 
 976:.\Generated_Source\PSoC5/Bootloader.c ****                     #endif  /* (!CY_PSOC4) */
 977:.\Generated_Source\PSoC5/Bootloader.c **** 
 978:.\Generated_Source\PSoC5/Bootloader.c ****                     uint32 CYDATA rowAddr = ((uint32)btldrData * CYDEV_FLS_SECTOR_SIZE)
 1032              		.loc 1 978 0
 1033 0438 97F89F33 		ldrb	r3, [r7, #927]	@ zero_extendqisi2
 1034 043c 4FEA0322 		lsl	r2, r3, #8
 1035 0440 B7F8A233 		ldrh	r3, [r7, #930]
 1036 0444 1344     		add	r3, r2, r3
 979:.\Generated_Source\PSoC5/Bootloader.c ****                                             + ((uint32)rowNum * CYDEV_FLS_ROW_SIZE);
 1037              		.loc 1 979 0
 1038 0446 4FEA0323 		lsl	r3, r3, #8
 1039 044a C7F8A433 		str	r3, [r7, #932]
 980:.\Generated_Source\PSoC5/Bootloader.c **** 
 981:.\Generated_Source\PSoC5/Bootloader.c ****                     uint8 CYDATA checksum = Bootloader_Calc8BitFlashSum(rowAddr, CYDEV_FLS_ROW_SIZE
 1040              		.loc 1 981 0
 1041 044e D7F8A403 		ldr	r0, [r7, #932]
 1042 0452 4FF48071 		mov	r1, #256
 1043 0456 FFF7FEFF 		bl	Bootloader_Calc8BitFlashSum
 1044 045a 0346     		mov	r3, r0
 1045 045c 87F8AB33 		strb	r3, [r7, #939]
 982:.\Generated_Source\PSoC5/Bootloader.c **** 
 983:.\Generated_Source\PSoC5/Bootloader.c **** 
 984:.\Generated_Source\PSoC5/Bootloader.c ****                     #if(!CY_PSOC4) && (CYDEV_ECC_ENABLE == 0)
 985:.\Generated_Source\PSoC5/Bootloader.c **** 
 986:.\Generated_Source\PSoC5/Bootloader.c ****                         /* Save the ECC area. */
 987:.\Generated_Source\PSoC5/Bootloader.c ****                         uint16 CYDATA index;
 988:.\Generated_Source\PSoC5/Bootloader.c **** 
 989:.\Generated_Source\PSoC5/Bootloader.c ****                         rowAddr = CYDEV_ECC_BASE + ((uint32)btldrData * CYDEV_FLS_SECTOR_SIZE / 8)
 1046              		.loc 1 989 0
 1047 0460 97F89F33 		ldrb	r3, [r7, #927]	@ zero_extendqisi2
 1048 0464 4FEA0343 		lsl	r3, r3, #16
 1049 0468 4FEAD302 		lsr	r2, r3, #3
 990:.\Generated_Source\PSoC5/Bootloader.c ****                                     + ((uint32)rowNum * CYDEV_ECC_ROW_SIZE);
 1050              		.loc 1 990 0
 1051 046c B7F8A233 		ldrh	r3, [r7, #930]
 1052 0470 4FEA4313 		lsl	r3, r3, #5
 1053              		.loc 1 989 0
 1054 0474 1344     		add	r3, r2, r3
 1055 0476 03F19043 		add	r3, r3, #1207959552
 1056 047a C7F8A433 		str	r3, [r7, #932]
 991:.\Generated_Source\PSoC5/Bootloader.c **** 
 992:.\Generated_Source\PSoC5/Bootloader.c ****                         for(index = 0; index < CYDEV_ECC_ROW_SIZE; index++)
ARM GAS  C:\DOCUME~1\ADMINI~1\LOCALS~1\Temp\ccjQOVXj.s 			page 37


 1057              		.loc 1 992 0
 1058 047e 4FF00003 		mov	r3, #0
 1059 0482 A7F8AC33 		strh	r3, [r7, #940]	@ movhi
 1060 0486 11E0     		b	.L72
 1061              	.L73:
 993:.\Generated_Source\PSoC5/Bootloader.c ****                         {
 994:.\Generated_Source\PSoC5/Bootloader.c ****                             checksum += CY_GET_XTND_REG8((uint8 CYFAR *)(rowAddr + index));
 1062              		.loc 1 994 0
 1063 0488 B7F8AC23 		ldrh	r2, [r7, #940]
 1064 048c D7F8A433 		ldr	r3, [r7, #932]
 1065 0490 1344     		add	r3, r2, r3
 1066 0492 1B78     		ldrb	r3, [r3, #0]
 1067 0494 DAB2     		uxtb	r2, r3
 1068 0496 97F8AB33 		ldrb	r3, [r7, #939]
 1069 049a 1344     		add	r3, r2, r3
 1070 049c 87F8AB33 		strb	r3, [r7, #939]
 1071              		.loc 1 992 0
 1072 04a0 B7F8AC33 		ldrh	r3, [r7, #940]	@ movhi
 1073 04a4 03F10103 		add	r3, r3, #1
 1074 04a8 A7F8AC33 		strh	r3, [r7, #940]	@ movhi
 1075              	.L72:
 1076 04ac B7F8AC33 		ldrh	r3, [r7, #940]
 1077 04b0 1F2B     		cmp	r3, #31
 1078 04b2 E9D9     		bls	.L73
 995:.\Generated_Source\PSoC5/Bootloader.c ****                         }
 996:.\Generated_Source\PSoC5/Bootloader.c **** 
 997:.\Generated_Source\PSoC5/Bootloader.c ****                     #endif  /* (!CY_PSOC4) && (CYDEV_ECC_ENABLE == 0) */
 998:.\Generated_Source\PSoC5/Bootloader.c **** 
 999:.\Generated_Source\PSoC5/Bootloader.c **** 
1000:.\Generated_Source\PSoC5/Bootloader.c ****                     /******************************************************************************
1001:.\Generated_Source\PSoC5/Bootloader.c ****                     * App Verified & App Active are information that is updated in flash at runtime
1002:.\Generated_Source\PSoC5/Bootloader.c ****                     * remove these items from the checksum to allow the host to verify everything i
1003:.\Generated_Source\PSoC5/Bootloader.c ****                     * correct.
1004:.\Generated_Source\PSoC5/Bootloader.c ****                      ******************************************************************************
1005:.\Generated_Source\PSoC5/Bootloader.c ****                     #if(1u == Bootloader_DUAL_APP_BOOTLOADER)
1006:.\Generated_Source\PSoC5/Bootloader.c ****                         if(Bootloader_META_ARRAY == btldrData && \
1007:.\Generated_Source\PSoC5/Bootloader.c ****                             (Bootloader_MD_ROW(0) == rowNum || Bootloader_MD_ROW(1) == rowNum))
1008:.\Generated_Source\PSoC5/Bootloader.c ****                     #else
1009:.\Generated_Source\PSoC5/Bootloader.c ****                         if(Bootloader_META_ARRAY == btldrData && Bootloader_MD_ROW == rowNum)
 1079              		.loc 1 1009 0
 1080 04b4 97F89F33 		ldrb	r3, [r7, #927]	@ zero_extendqisi2
 1081 04b8 012B     		cmp	r3, #1
 1082 04ba 2BD1     		bne	.L74
 1083 04bc B7F8A233 		ldrh	r3, [r7, #930]
 1084 04c0 FF2B     		cmp	r3, #255
 1085 04c2 27D1     		bne	.L74
 1086              	.LBB8:
1010:.\Generated_Source\PSoC5/Bootloader.c ****                     #endif  /* (1u == $INSTANCE_NAME`_DUAL_APP_BOOTLOADER) */
1011:.\Generated_Source\PSoC5/Bootloader.c ****                         {
1012:.\Generated_Source\PSoC5/Bootloader.c ****                             uint8 appId = ((rowNum & 1) == 1) ? 0 : 1;
 1087              		.loc 1 1012 0
 1088 04c4 B7F8A233 		ldrh	r3, [r7, #930]
 1089 04c8 03F00103 		and	r3, r3, #1
 1090 04cc DBB2     		uxtb	r3, r3
 1091 04ce 002B     		cmp	r3, #0
 1092 04d0 02D0     		beq	.L75
 1093 04d2 4FF00003 		mov	r3, #0
ARM GAS  C:\DOCUME~1\ADMINI~1\LOCALS~1\Temp\ccjQOVXj.s 			page 38


 1094 04d6 01E0     		b	.L76
 1095              	.L75:
 1096 04d8 4FF00103 		mov	r3, #1
 1097              	.L76:
 1098 04dc 87F8AF33 		strb	r3, [r7, #943]
1013:.\Generated_Source\PSoC5/Bootloader.c **** 
1014:.\Generated_Source\PSoC5/Bootloader.c ****                             checksum -= *Bootloader_P_APP_ACTIVE(appId);
 1099              		.loc 1 1014 0
 1100 04e0 97F8AF33 		ldrb	r3, [r7, #943]	@ zero_extendqisi2
 1101 04e4 C3F50073 		rsb	r3, r3, #512
 1102 04e8 4FEA0323 		lsl	r3, r3, #8
 1103 04ec A3F13003 		sub	r3, r3, #48
 1104 04f0 1B78     		ldrb	r3, [r3, #0]	@ zero_extendqisi2
 1105 04f2 97F8AB23 		ldrb	r2, [r7, #939]
 1106 04f6 C3EB0203 		rsb	r3, r3, r2
 1107 04fa 87F8AB33 		strb	r3, [r7, #939]
1015:.\Generated_Source\PSoC5/Bootloader.c ****                             checksum -= *Bootloader_MD_PTR_APP_VERIFIED;
 1108              		.loc 1 1015 0
 1109 04fe 4FF6D173 		movw	r3, #:lower16:131025
 1110 0502 C0F20103 		movt	r3, #:upper16:131025
 1111 0506 1B78     		ldrb	r3, [r3, #0]	@ zero_extendqisi2
 1112 0508 97F8AB23 		ldrb	r2, [r7, #939]
 1113 050c C3EB0203 		rsb	r3, r3, r2
 1114 0510 87F8AB33 		strb	r3, [r7, #939]
 1115              	.L74:
 1116              	.LBE8:
1016:.\Generated_Source\PSoC5/Bootloader.c ****                         }
1017:.\Generated_Source\PSoC5/Bootloader.c **** 
1018:.\Generated_Source\PSoC5/Bootloader.c ****                     packetBuffer[Bootloader_DATA_ADDR] = 1 + ~checksum;
 1117              		.loc 1 1018 0
 1118 0514 97F8AB33 		ldrb	r3, [r7, #939]	@ zero_extendqisi2
 1119 0518 C3F10003 		rsb	r3, r3, #0
 1120 051c DBB2     		uxtb	r3, r3
 1121 051e DAB2     		uxtb	r2, r3
 1122 0520 07F51873 		add	r3, r7, #608
 1123 0524 1A71     		strb	r2, [r3, #4]
1019:.\Generated_Source\PSoC5/Bootloader.c ****                     ackCode = CYRET_SUCCESS;
 1124              		.loc 1 1019 0
 1125 0526 4FF00003 		mov	r3, #0
 1126 052a 87F89133 		strb	r3, [r7, #913]
1020:.\Generated_Source\PSoC5/Bootloader.c ****                     rspSize = 1u;
 1127              		.loc 1 1020 0
 1128 052e 4FF00103 		mov	r3, #1
 1129 0532 A7F88E33 		strh	r3, [r7, #910]	@ movhi
 1130              	.LBE7:
1021:.\Generated_Source\PSoC5/Bootloader.c ****                 }
1022:.\Generated_Source\PSoC5/Bootloader.c ****                 break;
 1131              		.loc 1 1022 0
 1132 0536 2BE0     		b	.L44
 1133              	.L54:
1023:.\Generated_Source\PSoC5/Bootloader.c **** 
1024:.\Generated_Source\PSoC5/Bootloader.c **** 
1025:.\Generated_Source\PSoC5/Bootloader.c ****             /***************************************************************************
1026:.\Generated_Source\PSoC5/Bootloader.c ****             *   Exit Bootloader
1027:.\Generated_Source\PSoC5/Bootloader.c ****             ***************************************************************************/
1028:.\Generated_Source\PSoC5/Bootloader.c ****             case Bootloader_COMMAND_EXIT:
1029:.\Generated_Source\PSoC5/Bootloader.c **** 
ARM GAS  C:\DOCUME~1\ADMINI~1\LOCALS~1\Temp\ccjQOVXj.s 			page 39


1030:.\Generated_Source\PSoC5/Bootloader.c ****                 if(!Bootloader_ValidateApp(Bootloader_activeApp))
 1134              		.loc 1 1030 0
 1135 0538 FFF7FEFF 		bl	Bootloader_ValidateApplication
 1136 053c 0346     		mov	r3, r0
 1137 053e 002B     		cmp	r3, #0
 1138 0540 06D1     		bne	.L77
1031:.\Generated_Source\PSoC5/Bootloader.c ****                 {
1032:.\Generated_Source\PSoC5/Bootloader.c ****                     Bootloader_SET_RUN_TYPE(Bootloader_START_APP);
 1139              		.loc 1 1032 0
 1140 0542 44F2FA63 		movw	r3, #:lower16:1073759994
 1141 0546 C4F20003 		movt	r3, #:upper16:1073759994
 1142 054a 6FF07F02 		mvn	r2, #127
 1143 054e 1A70     		strb	r2, [r3, #0]
 1144              	.L77:
1033:.\Generated_Source\PSoC5/Bootloader.c ****                 }
1034:.\Generated_Source\PSoC5/Bootloader.c **** 
1035:.\Generated_Source\PSoC5/Bootloader.c ****                 Bootloader_SOFTWARE_RESET;
 1145              		.loc 1 1035 0
 1146 0550 44F2F663 		movw	r3, #:lower16:1073759990
 1147 0554 C4F20003 		movt	r3, #:upper16:1073759990
 1148 0558 4FF00102 		mov	r2, #1
 1149 055c 1A70     		strb	r2, [r3, #0]
1036:.\Generated_Source\PSoC5/Bootloader.c **** 
1037:.\Generated_Source\PSoC5/Bootloader.c ****                 /* Will never get here */
1038:.\Generated_Source\PSoC5/Bootloader.c ****                 continue;
 1150              		.loc 1 1038 0
 1151 055e 26E0     		b	.L38
 1152              	.L45:
1039:.\Generated_Source\PSoC5/Bootloader.c **** 
1040:.\Generated_Source\PSoC5/Bootloader.c ****                 /* Will never get here. Break is intentionally removed. */
1041:.\Generated_Source\PSoC5/Bootloader.c **** 
1042:.\Generated_Source\PSoC5/Bootloader.c **** 
1043:.\Generated_Source\PSoC5/Bootloader.c ****             /***************************************************************************
1044:.\Generated_Source\PSoC5/Bootloader.c ****             *   Unsupported Command
1045:.\Generated_Source\PSoC5/Bootloader.c ****             ***************************************************************************/
1046:.\Generated_Source\PSoC5/Bootloader.c ****             default:
1047:.\Generated_Source\PSoC5/Bootloader.c ****                 ackCode = Bootloader_ERR_CMD;
 1153              		.loc 1 1047 0
 1154 0560 4FF00503 		mov	r3, #5
 1155 0564 87F89133 		strb	r3, [r7, #913]
 1156 0568 12E0     		b	.L44
 1157              	.L82:
 1158              		.loc 1 670 0
 1159 056a 00BF     		nop
 1160 056c 10E0     		b	.L44
 1161              	.L83:
 1162 056e 00BF     		nop
 1163 0570 0EE0     		b	.L44
 1164              	.L84:
 1165              		.loc 1 697 0
 1166 0572 00BF     		nop
 1167 0574 0CE0     		b	.L44
 1168              	.L85:
 1169 0576 00BF     		nop
 1170 0578 0AE0     		b	.L44
 1171              	.L86:
 1172              		.loc 1 737 0
ARM GAS  C:\DOCUME~1\ADMINI~1\LOCALS~1\Temp\ccjQOVXj.s 			page 40


 1173 057a 00BF     		nop
 1174 057c 08E0     		b	.L44
 1175              	.L87:
 1176              		.loc 1 865 0
 1177 057e 00BF     		nop
 1178 0580 06E0     		b	.L44
 1179              	.L88:
 1180 0582 00BF     		nop
 1181 0584 04E0     		b	.L44
 1182              	.L89:
 1183              		.loc 1 960 0
 1184 0586 00BF     		nop
 1185 0588 02E0     		b	.L44
 1186              	.L90:
 1187              		.loc 1 1022 0
 1188 058a 00BF     		nop
 1189 058c 00E0     		b	.L44
 1190              	.L91:
 1191 058e 00BF     		nop
 1192              	.L44:
 1193              	.LBE3:
1048:.\Generated_Source\PSoC5/Bootloader.c ****                 break;
1049:.\Generated_Source\PSoC5/Bootloader.c ****             }
1050:.\Generated_Source\PSoC5/Bootloader.c ****         }
1051:.\Generated_Source\PSoC5/Bootloader.c **** 
1052:.\Generated_Source\PSoC5/Bootloader.c ****         /* ?CK the packet and function. */
1053:.\Generated_Source\PSoC5/Bootloader.c ****         (void) Bootloader_WritePacket(ackCode, packetBuffer, rspSize);
 1194              		.loc 1 1053 0
 1195 0590 97F89113 		ldrb	r1, [r7, #913]	@ zero_extendqisi2
 1196 0594 07F51872 		add	r2, r7, #608
 1197 0598 B7F88E33 		ldrh	r3, [r7, #910]
 1198 059c 0846     		mov	r0, r1
 1199 059e 1146     		mov	r1, r2
 1200 05a0 1A46     		mov	r2, r3
 1201 05a2 FFF7FEFF 		bl	Bootloader_WritePacket
 1202 05a6 02E0     		b	.L38
 1203              	.L80:
 1204              		.loc 1 612 0
 1205 05a8 00BF     		nop
 1206 05aa 00E0     		b	.L38
 1207              	.L81:
 1208 05ac 00BF     		nop
 1209              	.L38:
1054:.\Generated_Source\PSoC5/Bootloader.c **** 
1055:.\Generated_Source\PSoC5/Bootloader.c ****     } while (communicationActive);
 1210              		.loc 1 1055 0
 1211 05ae 97F89E33 		ldrb	r3, [r7, #926]	@ zero_extendqisi2
 1212 05b2 002B     		cmp	r3, #0
 1213 05b4 7FF456AD 		bne	.L78
1056:.\Generated_Source\PSoC5/Bootloader.c **** }
 1214              		.loc 1 1056 0
 1215 05b8 07F56C77 		add	r7, r7, #944
 1216 05bc BD46     		mov	sp, r7
 1217 05be 80BD     		pop	{r7, pc}
 1218              		.cfi_endproc
 1219              	.LFE36:
 1220              		.size	Bootloader_HostLink, .-Bootloader_HostLink
ARM GAS  C:\DOCUME~1\ADMINI~1\LOCALS~1\Temp\ccjQOVXj.s 			page 41


 1221              		.section	.text.Bootloader_WritePacket,"ax",%progbits
 1222              		.align	2
 1223              		.global	Bootloader_WritePacket
 1224              		.thumb
 1225              		.thumb_func
 1226              		.type	Bootloader_WritePacket, %function
 1227              	Bootloader_WritePacket:
 1228              	.LFB37:
1057:.\Generated_Source\PSoC5/Bootloader.c **** 
1058:.\Generated_Source\PSoC5/Bootloader.c **** 
1059:.\Generated_Source\PSoC5/Bootloader.c **** /*******************************************************************************
1060:.\Generated_Source\PSoC5/Bootloader.c **** * Function Name: Bootloader_WritePacket
1061:.\Generated_Source\PSoC5/Bootloader.c **** ********************************************************************************
1062:.\Generated_Source\PSoC5/Bootloader.c **** *
1063:.\Generated_Source\PSoC5/Bootloader.c **** * Summary:
1064:.\Generated_Source\PSoC5/Bootloader.c **** *  Creates a bootloader responce packet and transmits it back to the bootloader
1065:.\Generated_Source\PSoC5/Bootloader.c **** *  host application over the already established communications protocol.
1066:.\Generated_Source\PSoC5/Bootloader.c **** *
1067:.\Generated_Source\PSoC5/Bootloader.c **** * Parameters:
1068:.\Generated_Source\PSoC5/Bootloader.c **** *  status:
1069:.\Generated_Source\PSoC5/Bootloader.c **** *      The status code to pass back as the second byte of the packet
1070:.\Generated_Source\PSoC5/Bootloader.c **** *  buffer:
1071:.\Generated_Source\PSoC5/Bootloader.c **** *      The buffer containing the data portion of the packet
1072:.\Generated_Source\PSoC5/Bootloader.c **** *  size:
1073:.\Generated_Source\PSoC5/Bootloader.c **** *      The number of bytes contained within the buffer to pass back
1074:.\Generated_Source\PSoC5/Bootloader.c **** *
1075:.\Generated_Source\PSoC5/Bootloader.c **** * Return:
1076:.\Generated_Source\PSoC5/Bootloader.c **** *   CYRET_SUCCESS if successful.
1077:.\Generated_Source\PSoC5/Bootloader.c **** *   CYRET_UNKNOWN if there was an error tranmitting the packet.
1078:.\Generated_Source\PSoC5/Bootloader.c **** *
1079:.\Generated_Source\PSoC5/Bootloader.c **** *******************************************************************************/
1080:.\Generated_Source\PSoC5/Bootloader.c **** cystatus Bootloader_WritePacket(uint8 status, uint8 CYXDATA* buffer, uint16 size) CYSMALL 
1081:.\Generated_Source\PSoC5/Bootloader.c **** {
 1229              		.loc 1 1081 0
 1230              		.cfi_startproc
 1231              		@ args = 0, pretend = 0, frame = 24
 1232              		@ frame_needed = 1, uses_anonymous_args = 0
 1233 0000 80B5     		push	{r7, lr}
 1234              	.LCFI19:
 1235              		.cfi_def_cfa_offset 8
 1236 0002 86B0     		sub	sp, sp, #24
 1237              	.LCFI20:
 1238              		.cfi_def_cfa_offset 32
 1239 0004 00AF     		add	r7, sp, #0
 1240              		.cfi_offset 14, -4
 1241              		.cfi_offset 7, -8
 1242              	.LCFI21:
 1243              		.cfi_def_cfa_register 7
 1244 0006 B960     		str	r1, [r7, #8]
 1245 0008 1346     		mov	r3, r2
 1246 000a 0246     		mov	r2, r0
 1247 000c FA73     		strb	r2, [r7, #15]
 1248 000e FB80     		strh	r3, [r7, #6]	@ movhi
1082:.\Generated_Source\PSoC5/Bootloader.c ****     uint16 CYDATA checksum;
1083:.\Generated_Source\PSoC5/Bootloader.c **** 
1084:.\Generated_Source\PSoC5/Bootloader.c ****     /* Start of the packet. */
1085:.\Generated_Source\PSoC5/Bootloader.c ****     buffer[Bootloader_SOP_ADDR]      = Bootloader_SOP;
ARM GAS  C:\DOCUME~1\ADMINI~1\LOCALS~1\Temp\ccjQOVXj.s 			page 42


 1249              		.loc 1 1085 0
 1250 0010 BB68     		ldr	r3, [r7, #8]
 1251 0012 4FF00102 		mov	r2, #1
 1252 0016 1A70     		strb	r2, [r3, #0]
1086:.\Generated_Source\PSoC5/Bootloader.c ****     buffer[Bootloader_CMD_ADDR]      = status;
 1253              		.loc 1 1086 0
 1254 0018 BB68     		ldr	r3, [r7, #8]
 1255 001a 03F10103 		add	r3, r3, #1
 1256 001e FA7B     		ldrb	r2, [r7, #15]
 1257 0020 1A70     		strb	r2, [r3, #0]
1087:.\Generated_Source\PSoC5/Bootloader.c ****     buffer[Bootloader_SIZE_ADDR]     = LO8(size);
 1258              		.loc 1 1087 0
 1259 0022 BB68     		ldr	r3, [r7, #8]
 1260 0024 03F10203 		add	r3, r3, #2
 1261 0028 FA88     		ldrh	r2, [r7, #6]
 1262 002a D2B2     		uxtb	r2, r2
 1263 002c 1A70     		strb	r2, [r3, #0]
1088:.\Generated_Source\PSoC5/Bootloader.c ****     buffer[Bootloader_SIZE_ADDR + 1] = HI8(size);
 1264              		.loc 1 1088 0
 1265 002e BB68     		ldr	r3, [r7, #8]
 1266 0030 03F10303 		add	r3, r3, #3
 1267 0034 FA88     		ldrh	r2, [r7, #6]
 1268 0036 4FEA1222 		lsr	r2, r2, #8
 1269 003a 92B2     		uxth	r2, r2
 1270 003c D2B2     		uxtb	r2, r2
 1271 003e 1A70     		strb	r2, [r3, #0]
1089:.\Generated_Source\PSoC5/Bootloader.c **** 
1090:.\Generated_Source\PSoC5/Bootloader.c ****     /* Compute the checksum. */
1091:.\Generated_Source\PSoC5/Bootloader.c ****     checksum = Bootloader_CalcPacketChecksum(buffer, size + Bootloader_DATA_ADDR);
 1272              		.loc 1 1091 0
 1273 0040 FB88     		ldrh	r3, [r7, #6]
 1274 0042 03F10403 		add	r3, r3, #4
 1275 0046 9BB2     		uxth	r3, r3
 1276 0048 B868     		ldr	r0, [r7, #8]
 1277 004a 1946     		mov	r1, r3
 1278 004c FFF7FEFF 		bl	Bootloader_CalcPacketChecksum
 1279 0050 0346     		mov	r3, r0
 1280 0052 FB82     		strh	r3, [r7, #22]	@ movhi
1092:.\Generated_Source\PSoC5/Bootloader.c **** 
1093:.\Generated_Source\PSoC5/Bootloader.c ****     buffer[Bootloader_CHK_ADDR(size)]     = LO8(checksum);
 1281              		.loc 1 1093 0
 1282 0054 FB88     		ldrh	r3, [r7, #6]
 1283 0056 03F10402 		add	r2, r3, #4
 1284 005a BB68     		ldr	r3, [r7, #8]
 1285 005c 1344     		add	r3, r2, r3
 1286 005e FA8A     		ldrh	r2, [r7, #22]	@ movhi
 1287 0060 D2B2     		uxtb	r2, r2
 1288 0062 1A70     		strb	r2, [r3, #0]
1094:.\Generated_Source\PSoC5/Bootloader.c ****     buffer[Bootloader_CHK_ADDR(1 + size)] = HI8(checksum);
 1289              		.loc 1 1094 0
 1290 0064 FB88     		ldrh	r3, [r7, #6]
 1291 0066 03F10502 		add	r2, r3, #5
 1292 006a BB68     		ldr	r3, [r7, #8]
 1293 006c 1344     		add	r3, r2, r3
 1294 006e FA8A     		ldrh	r2, [r7, #22]
 1295 0070 4FEA1222 		lsr	r2, r2, #8
 1296 0074 92B2     		uxth	r2, r2
ARM GAS  C:\DOCUME~1\ADMINI~1\LOCALS~1\Temp\ccjQOVXj.s 			page 43


 1297 0076 D2B2     		uxtb	r2, r2
 1298 0078 1A70     		strb	r2, [r3, #0]
1095:.\Generated_Source\PSoC5/Bootloader.c ****     buffer[Bootloader_EOP_ADDR(size)]     = Bootloader_EOP;
 1299              		.loc 1 1095 0
 1300 007a FB88     		ldrh	r3, [r7, #6]
 1301 007c 03F10602 		add	r2, r3, #6
 1302 0080 BB68     		ldr	r3, [r7, #8]
 1303 0082 1344     		add	r3, r2, r3
 1304 0084 4FF01702 		mov	r2, #23
 1305 0088 1A70     		strb	r2, [r3, #0]
1096:.\Generated_Source\PSoC5/Bootloader.c **** 
1097:.\Generated_Source\PSoC5/Bootloader.c ****     /* Start the packet transmit. */
1098:.\Generated_Source\PSoC5/Bootloader.c ****     return(CyBtldrCommWrite(buffer, size + Bootloader_MIN_PKT_SIZE, &size, 150u));
 1306              		.loc 1 1098 0
 1307 008a FB88     		ldrh	r3, [r7, #6]
 1308 008c 03F10703 		add	r3, r3, #7
 1309 0090 9AB2     		uxth	r2, r3
 1310 0092 07F10603 		add	r3, r7, #6
 1311 0096 B868     		ldr	r0, [r7, #8]
 1312 0098 1146     		mov	r1, r2
 1313 009a 1A46     		mov	r2, r3
 1314 009c 4FF09603 		mov	r3, #150
 1315 00a0 FFF7FEFF 		bl	USBFS_CyBtldrCommWrite
 1316 00a4 0346     		mov	r3, r0
1099:.\Generated_Source\PSoC5/Bootloader.c **** }
 1317              		.loc 1 1099 0
 1318 00a6 1846     		mov	r0, r3
 1319 00a8 07F11807 		add	r7, r7, #24
 1320 00ac BD46     		mov	sp, r7
 1321 00ae 80BD     		pop	{r7, pc}
 1322              		.cfi_endproc
 1323              	.LFE37:
 1324              		.size	Bootloader_WritePacket, .-Bootloader_WritePacket
 1325              		.section	.text.Bootloader_SetFlashByte,"ax",%progbits
 1326              		.align	2
 1327              		.global	Bootloader_SetFlashByte
 1328              		.thumb
 1329              		.thumb_func
 1330              		.type	Bootloader_SetFlashByte, %function
 1331              	Bootloader_SetFlashByte:
 1332              	.LFB38:
1100:.\Generated_Source\PSoC5/Bootloader.c **** 
1101:.\Generated_Source\PSoC5/Bootloader.c **** 
1102:.\Generated_Source\PSoC5/Bootloader.c **** /*******************************************************************************
1103:.\Generated_Source\PSoC5/Bootloader.c **** * Function Name: Bootloader_SetFlashByte
1104:.\Generated_Source\PSoC5/Bootloader.c **** ********************************************************************************
1105:.\Generated_Source\PSoC5/Bootloader.c **** *
1106:.\Generated_Source\PSoC5/Bootloader.c **** * Summary:
1107:.\Generated_Source\PSoC5/Bootloader.c **** *  Writes byte a flash memory location
1108:.\Generated_Source\PSoC5/Bootloader.c **** *
1109:.\Generated_Source\PSoC5/Bootloader.c **** * Parameters:
1110:.\Generated_Source\PSoC5/Bootloader.c **** *  address:
1111:.\Generated_Source\PSoC5/Bootloader.c **** *      Address in Flash memory where data will be written
1112:.\Generated_Source\PSoC5/Bootloader.c **** *
1113:.\Generated_Source\PSoC5/Bootloader.c **** *  runType:
1114:.\Generated_Source\PSoC5/Bootloader.c **** *      Byte to be written
1115:.\Generated_Source\PSoC5/Bootloader.c **** *
ARM GAS  C:\DOCUME~1\ADMINI~1\LOCALS~1\Temp\ccjQOVXj.s 			page 44


1116:.\Generated_Source\PSoC5/Bootloader.c **** * Return:
1117:.\Generated_Source\PSoC5/Bootloader.c **** *  None
1118:.\Generated_Source\PSoC5/Bootloader.c **** *
1119:.\Generated_Source\PSoC5/Bootloader.c **** *******************************************************************************/
1120:.\Generated_Source\PSoC5/Bootloader.c **** void Bootloader_SetFlashByte(uint32 address, uint8 runType) 
1121:.\Generated_Source\PSoC5/Bootloader.c **** {
 1333              		.loc 1 1121 0
 1334              		.cfi_startproc
 1335              		@ args = 0, pretend = 0, frame = 280
 1336              		@ frame_needed = 1, uses_anonymous_args = 0
 1337 0000 80B5     		push	{r7, lr}
 1338              	.LCFI22:
 1339              		.cfi_def_cfa_offset 8
 1340 0002 C6B0     		sub	sp, sp, #280
 1341              	.LCFI23:
 1342              		.cfi_def_cfa_offset 288
 1343 0004 00AF     		add	r7, sp, #0
 1344              		.cfi_offset 14, -4
 1345              		.cfi_offset 7, -8
 1346              	.LCFI24:
 1347              		.cfi_def_cfa_register 7
 1348 0006 07F10403 		add	r3, r7, #4
 1349 000a 1860     		str	r0, [r3, #0]
 1350 000c 0A46     		mov	r2, r1
 1351 000e 07F10403 		add	r3, r7, #4
 1352 0012 03F1FF33 		add	r3, r3, #-1
 1353 0016 1A70     		strb	r2, [r3, #0]
1122:.\Generated_Source\PSoC5/Bootloader.c ****     uint32 flsAddr = address - CYDEV_FLASH_BASE;
 1354              		.loc 1 1122 0
 1355 0018 07F10403 		add	r3, r7, #4
 1356 001c 1B68     		ldr	r3, [r3, #0]
 1357 001e C7F80831 		str	r3, [r7, #264]
1123:.\Generated_Source\PSoC5/Bootloader.c ****     uint8  rowData[CYDEV_FLS_ROW_SIZE];
1124:.\Generated_Source\PSoC5/Bootloader.c **** 
1125:.\Generated_Source\PSoC5/Bootloader.c ****     #if !(CY_PSOC4)
1126:.\Generated_Source\PSoC5/Bootloader.c ****         uint8 arrayId = (flsAddr / CYDEV_FLS_SECTOR_SIZE);
 1358              		.loc 1 1126 0
 1359 0022 D7F80831 		ldr	r3, [r7, #264]
 1360 0026 4FEA1343 		lsr	r3, r3, #16
 1361 002a 87F80D31 		strb	r3, [r7, #269]
1127:.\Generated_Source\PSoC5/Bootloader.c ****     #endif  /* !(CY_PSOC4) */
1128:.\Generated_Source\PSoC5/Bootloader.c **** 
1129:.\Generated_Source\PSoC5/Bootloader.c ****     uint16 rowNum = ((flsAddr % CYDEV_FLS_SECTOR_SIZE) / CYDEV_FLS_ROW_SIZE);
 1362              		.loc 1 1129 0
 1363 002e D7F80831 		ldr	r3, [r7, #264]
 1364 0032 4FEA0343 		lsl	r3, r3, #16
 1365 0036 4FEA1343 		lsr	r3, r3, #16
 1366 003a 4FEA1323 		lsr	r3, r3, #8
 1367 003e A7F80E31 		strh	r3, [r7, #270]	@ movhi
1130:.\Generated_Source\PSoC5/Bootloader.c ****     uint32 baseAddr = address - (address % CYDEV_FLS_ROW_SIZE);
 1368              		.loc 1 1130 0
 1369 0042 07F10403 		add	r3, r7, #4
 1370 0046 1B68     		ldr	r3, [r3, #0]
 1371 0048 23F0FF03 		bic	r3, r3, #255
 1372 004c C7F81031 		str	r3, [r7, #272]
1131:.\Generated_Source\PSoC5/Bootloader.c ****     uint16 idx;
1132:.\Generated_Source\PSoC5/Bootloader.c **** 
ARM GAS  C:\DOCUME~1\ADMINI~1\LOCALS~1\Temp\ccjQOVXj.s 			page 45


1133:.\Generated_Source\PSoC5/Bootloader.c ****     for(idx = 0; idx < CYDEV_FLS_ROW_SIZE; idx++)
 1373              		.loc 1 1133 0
 1374 0050 4FF00003 		mov	r3, #0
 1375 0054 A7F81631 		strh	r3, [r7, #278]	@ movhi
 1376 0058 10E0     		b	.L95
 1377              	.L96:
1134:.\Generated_Source\PSoC5/Bootloader.c ****     {
1135:.\Generated_Source\PSoC5/Bootloader.c ****         rowData[idx] = Bootloader_GET_CODE_DATA(baseAddr + idx);
 1378              		.loc 1 1135 0
 1379 005a B7F81631 		ldrh	r3, [r7, #278]
 1380 005e B7F81611 		ldrh	r1, [r7, #278]
 1381 0062 D7F81021 		ldr	r2, [r7, #272]
 1382 0066 0A44     		add	r2, r1, r2
 1383 0068 1178     		ldrb	r1, [r2, #0]	@ zero_extendqisi2
 1384 006a 07F10802 		add	r2, r7, #8
 1385 006e D154     		strb	r1, [r2, r3]
 1386              		.loc 1 1133 0
 1387 0070 B7F81631 		ldrh	r3, [r7, #278]	@ movhi
 1388 0074 03F10103 		add	r3, r3, #1
 1389 0078 A7F81631 		strh	r3, [r7, #278]	@ movhi
 1390              	.L95:
 1391 007c B7F81631 		ldrh	r3, [r7, #278]
 1392 0080 FF2B     		cmp	r3, #255
 1393 0082 EAD9     		bls	.L96
1136:.\Generated_Source\PSoC5/Bootloader.c ****     }
1137:.\Generated_Source\PSoC5/Bootloader.c **** 
1138:.\Generated_Source\PSoC5/Bootloader.c ****     rowData[address % CYDEV_FLS_ROW_SIZE] = runType;
 1394              		.loc 1 1138 0
 1395 0084 07F10403 		add	r3, r7, #4
 1396 0088 1B68     		ldr	r3, [r3, #0]
 1397 008a 03F0FF02 		and	r2, r3, #255
 1398 008e 07F10801 		add	r1, r7, #8
 1399 0092 07F10403 		add	r3, r7, #4
 1400 0096 03F1FF33 		add	r3, r3, #-1
 1401 009a 1B78     		ldrb	r3, [r3, #0]
 1402 009c 8B54     		strb	r3, [r1, r2]
1139:.\Generated_Source\PSoC5/Bootloader.c **** 
1140:.\Generated_Source\PSoC5/Bootloader.c ****     #if(CY_PSOC4)
1141:.\Generated_Source\PSoC5/Bootloader.c ****         CySysFlashWriteRow(rowNum, rowData);
1142:.\Generated_Source\PSoC5/Bootloader.c ****     #else
1143:.\Generated_Source\PSoC5/Bootloader.c ****         CyWriteRowData(arrayId, rowNum, rowData);
 1403              		.loc 1 1143 0
 1404 009e 97F80D11 		ldrb	r1, [r7, #269]	@ zero_extendqisi2
 1405 00a2 B7F80E21 		ldrh	r2, [r7, #270]
 1406 00a6 07F10803 		add	r3, r7, #8
 1407 00aa 0846     		mov	r0, r1
 1408 00ac 1146     		mov	r1, r2
 1409 00ae 1A46     		mov	r2, r3
 1410 00b0 FFF7FEFF 		bl	CyWriteRowData
1144:.\Generated_Source\PSoC5/Bootloader.c ****     #endif  /* (CY_PSOC4) */
1145:.\Generated_Source\PSoC5/Bootloader.c **** }
 1411              		.loc 1 1145 0
 1412 00b4 07F58C77 		add	r7, r7, #280
 1413 00b8 BD46     		mov	sp, r7
 1414 00ba 80BD     		pop	{r7, pc}
 1415              		.cfi_endproc
 1416              	.LFE38:
ARM GAS  C:\DOCUME~1\ADMINI~1\LOCALS~1\Temp\ccjQOVXj.s 			page 46


 1417              		.size	Bootloader_SetFlashByte, .-Bootloader_SetFlashByte
 1418              		.section	.rodata
 1419              		.align	2
 1420              		.type	C.35.3032, %object
 1421              		.size	C.35.3032, 8
 1422              	C.35.3032:
 1423 0000 6990102E 		.word	772837481
 1424 0004 00       		.byte	0
 1425 0005 0A       		.byte	10
 1426 0006 01       		.byte	1
 1427 0007 01       		.byte	1
 1428              		.text
 1429              	.Letext0: