ARM GAS  C:\DOCUME~1\ADMINI~1\LOCALS~1\Temp\cc2DMpSh.s 			page 1


   1              		.syntax unified
   2              		.cpu cortex-m3
   3              		.fpu softvfp
   4              		.eabi_attribute 20, 1
   5              		.eabi_attribute 21, 1
   6              		.eabi_attribute 23, 3
   7              		.eabi_attribute 24, 1
   8              		.eabi_attribute 25, 1
   9              		.eabi_attribute 26, 1
  10              		.eabi_attribute 30, 6
  11              		.eabi_attribute 18, 4
  12              		.thumb
  13              		.file	"cyfitter_cfg.c"
  20 0000 B5010000 		.text
  20      0200EA00 
  20      00000201 
  20      FB0E0D00 
  20      01010101 
  21              	.Ltext0:
  22              		.cfi_sections	.debug_frame
  23              		.section	.text.CYMEMZERO,"ax",%progbits
  24              		.align	2
  25              		.thumb
  26              		.thumb_func
  27              		.type	CYMEMZERO, %function
  28              	CYMEMZERO:
  29              	.LFB0:
  30              		.file 1 ".\\Generated_Source\\PSoC5\\cyfitter_cfg.c"
   1:.\Generated_Source\PSoC5/cyfitter_cfg.c **** /*******************************************************************************
   2:.\Generated_Source\PSoC5/cyfitter_cfg.c **** * FILENAME: cyfitter_cfg.c
   3:.\Generated_Source\PSoC5/cyfitter_cfg.c **** * PSoC Creator 2.2 Component Pack 6
   4:.\Generated_Source\PSoC5/cyfitter_cfg.c **** *
   5:.\Generated_Source\PSoC5/cyfitter_cfg.c **** * Description:
   6:.\Generated_Source\PSoC5/cyfitter_cfg.c **** * This file is automatically generated by PSoC Creator with device 
   7:.\Generated_Source\PSoC5/cyfitter_cfg.c **** * initialization code.  Except for the user defined sections in
   8:.\Generated_Source\PSoC5/cyfitter_cfg.c **** * CyClockStartupError(), this file should not be modified.
   9:.\Generated_Source\PSoC5/cyfitter_cfg.c **** *
  10:.\Generated_Source\PSoC5/cyfitter_cfg.c **** ********************************************************************************
  11:.\Generated_Source\PSoC5/cyfitter_cfg.c **** * Copyright 2013, Cypress Semiconductor Corporation.  All rights reserved.
  12:.\Generated_Source\PSoC5/cyfitter_cfg.c **** * You may use this file only in accordance with the license, terms, conditions, 
  13:.\Generated_Source\PSoC5/cyfitter_cfg.c **** * disclaimers, and limitations in the end user license agreement accompanying 
  14:.\Generated_Source\PSoC5/cyfitter_cfg.c **** * the software package with which this file was provided.
  15:.\Generated_Source\PSoC5/cyfitter_cfg.c **** ********************************************************************************/
  16:.\Generated_Source\PSoC5/cyfitter_cfg.c **** 
  17:.\Generated_Source\PSoC5/cyfitter_cfg.c **** #include <string.h>
  18:.\Generated_Source\PSoC5/cyfitter_cfg.c **** #include <cytypes.h>
  19:.\Generated_Source\PSoC5/cyfitter_cfg.c **** #include <cydevice_trm.h>
  20:.\Generated_Source\PSoC5/cyfitter_cfg.c **** #include <cyfitter.h>
  21:.\Generated_Source\PSoC5/cyfitter_cfg.c **** #include <CyLib.h>
  22:.\Generated_Source\PSoC5/cyfitter_cfg.c **** #include <cyfitter_cfg.h>
  23:.\Generated_Source\PSoC5/cyfitter_cfg.c **** 
ARM GAS  C:\DOCUME~1\ADMINI~1\LOCALS~1\Temp\cc2DMpSh.s 			page 2


  24:.\Generated_Source\PSoC5/cyfitter_cfg.c **** /* Clock startup error codes                                                   */
  25:.\Generated_Source\PSoC5/cyfitter_cfg.c **** #define CYCLOCKSTART_NO_ERROR    0u
  26:.\Generated_Source\PSoC5/cyfitter_cfg.c **** #define CYCLOCKSTART_XTAL_ERROR  1u
  27:.\Generated_Source\PSoC5/cyfitter_cfg.c **** #define CYCLOCKSTART_32KHZ_ERROR 2u
  28:.\Generated_Source\PSoC5/cyfitter_cfg.c **** #define CYCLOCKSTART_PLL_ERROR   3u
  29:.\Generated_Source\PSoC5/cyfitter_cfg.c **** 
  30:.\Generated_Source\PSoC5/cyfitter_cfg.c **** #ifdef CY_NEED_CYCLOCKSTARTUPERROR
  31:.\Generated_Source\PSoC5/cyfitter_cfg.c **** /*******************************************************************************
  32:.\Generated_Source\PSoC5/cyfitter_cfg.c **** * Function Name: CyClockStartupError
  33:.\Generated_Source\PSoC5/cyfitter_cfg.c **** ********************************************************************************
  34:.\Generated_Source\PSoC5/cyfitter_cfg.c **** * Summary:
  35:.\Generated_Source\PSoC5/cyfitter_cfg.c **** *  If an error is encountered during clock configuration (crystal startup error,
  36:.\Generated_Source\PSoC5/cyfitter_cfg.c **** *  PLL lock error, etc.), the system will end up here.  Unless reimplemented by
  37:.\Generated_Source\PSoC5/cyfitter_cfg.c **** *  the customer, this function will stop in an infinite loop.
  38:.\Generated_Source\PSoC5/cyfitter_cfg.c **** *
  39:.\Generated_Source\PSoC5/cyfitter_cfg.c **** * Parameters:
  40:.\Generated_Source\PSoC5/cyfitter_cfg.c **** *   void
  41:.\Generated_Source\PSoC5/cyfitter_cfg.c **** *
  42:.\Generated_Source\PSoC5/cyfitter_cfg.c **** * Return:
  43:.\Generated_Source\PSoC5/cyfitter_cfg.c **** *   void
  44:.\Generated_Source\PSoC5/cyfitter_cfg.c **** *
  45:.\Generated_Source\PSoC5/cyfitter_cfg.c **** *******************************************************************************/
  46:.\Generated_Source\PSoC5/cyfitter_cfg.c **** #if defined(__GNUC__) || defined(__ARMCC_VERSION)
  47:.\Generated_Source\PSoC5/cyfitter_cfg.c **** __attribute__ ((unused))
  48:.\Generated_Source\PSoC5/cyfitter_cfg.c **** #endif
  49:.\Generated_Source\PSoC5/cyfitter_cfg.c **** static void CyClockStartupError(uint8 errorCode);
  50:.\Generated_Source\PSoC5/cyfitter_cfg.c **** #if defined(__GNUC__) || defined(__ARMCC_VERSION)
  51:.\Generated_Source\PSoC5/cyfitter_cfg.c **** __attribute__ ((unused))
  52:.\Generated_Source\PSoC5/cyfitter_cfg.c **** #endif
  53:.\Generated_Source\PSoC5/cyfitter_cfg.c **** static void CyClockStartupError(uint8 errorCode)
  54:.\Generated_Source\PSoC5/cyfitter_cfg.c **** {
  55:.\Generated_Source\PSoC5/cyfitter_cfg.c ****     /* To remove the compiler warning if errorCode not used.                */
  56:.\Generated_Source\PSoC5/cyfitter_cfg.c ****     errorCode = errorCode;
  57:.\Generated_Source\PSoC5/cyfitter_cfg.c **** 
  58:.\Generated_Source\PSoC5/cyfitter_cfg.c ****     /* `#START CyClockStartupError` */
  59:.\Generated_Source\PSoC5/cyfitter_cfg.c **** 
  60:.\Generated_Source\PSoC5/cyfitter_cfg.c ****     /* If we have a clock startup error (bad MHz crystal, PLL lock, etc.),  */
  61:.\Generated_Source\PSoC5/cyfitter_cfg.c ****     /* we will end up here to allow the customer to implement something to  */
  62:.\Generated_Source\PSoC5/cyfitter_cfg.c ****     /* deal with the clock condition.                                       */
  63:.\Generated_Source\PSoC5/cyfitter_cfg.c **** 
  64:.\Generated_Source\PSoC5/cyfitter_cfg.c ****     /* `#END` */
  65:.\Generated_Source\PSoC5/cyfitter_cfg.c **** 
  66:.\Generated_Source\PSoC5/cyfitter_cfg.c ****     /* If nothing else, stop here since the clocks have not started         */
  67:.\Generated_Source\PSoC5/cyfitter_cfg.c ****     /* correctly.                                                           */
  68:.\Generated_Source\PSoC5/cyfitter_cfg.c ****     while(1) {}
  69:.\Generated_Source\PSoC5/cyfitter_cfg.c **** }
  70:.\Generated_Source\PSoC5/cyfitter_cfg.c **** #endif
  71:.\Generated_Source\PSoC5/cyfitter_cfg.c **** 
  72:.\Generated_Source\PSoC5/cyfitter_cfg.c **** 
  73:.\Generated_Source\PSoC5/cyfitter_cfg.c **** #if defined(__GNUC__) || defined(__ARMCC_VERSION)
  74:.\Generated_Source\PSoC5/cyfitter_cfg.c **** 	#define CYPACKED __attribute__ ((packed))
  75:.\Generated_Source\PSoC5/cyfitter_cfg.c **** 	#define CYALIGNED __attribute__ ((aligned))
  76:.\Generated_Source\PSoC5/cyfitter_cfg.c **** 	
  77:.\Generated_Source\PSoC5/cyfitter_cfg.c **** 	#if defined(__ARMCC_VERSION)
  78:.\Generated_Source\PSoC5/cyfitter_cfg.c **** 		#define CY_CFG_MEMORY_BARRIER() __memory_changed()
  79:.\Generated_Source\PSoC5/cyfitter_cfg.c **** 	#else
  80:.\Generated_Source\PSoC5/cyfitter_cfg.c **** 		#define CY_CFG_MEMORY_BARRIER() __sync_synchronize()
ARM GAS  C:\DOCUME~1\ADMINI~1\LOCALS~1\Temp\cc2DMpSh.s 			page 3


  81:.\Generated_Source\PSoC5/cyfitter_cfg.c **** 	#endif
  82:.\Generated_Source\PSoC5/cyfitter_cfg.c **** 	
  83:.\Generated_Source\PSoC5/cyfitter_cfg.c **** 
  84:.\Generated_Source\PSoC5/cyfitter_cfg.c **** 	__attribute__ ((unused))
  85:.\Generated_Source\PSoC5/cyfitter_cfg.c **** 	static void CYMEMZERO(void *s, size_t n);
  86:.\Generated_Source\PSoC5/cyfitter_cfg.c **** 	__attribute__ ((unused))
  87:.\Generated_Source\PSoC5/cyfitter_cfg.c **** 	static void CYMEMZERO(void *s, size_t n)
  88:.\Generated_Source\PSoC5/cyfitter_cfg.c **** 	{
  31              		.loc 1 88 0
  32              		.cfi_startproc
  33              		@ args = 0, pretend = 0, frame = 8
  34              		@ frame_needed = 1, uses_anonymous_args = 0
  35 0000 80B5     		push	{r7, lr}
  36              	.LCFI0:
  37              		.cfi_def_cfa_offset 8
  38 0002 82B0     		sub	sp, sp, #8
  39              	.LCFI1:
  40              		.cfi_def_cfa_offset 16
  41 0004 00AF     		add	r7, sp, #0
  42              		.cfi_offset 14, -4
  43              		.cfi_offset 7, -8
  44              	.LCFI2:
  45              		.cfi_def_cfa_register 7
  46 0006 7860     		str	r0, [r7, #4]
  47 0008 3960     		str	r1, [r7, #0]
  89:.\Generated_Source\PSoC5/cyfitter_cfg.c **** 		(void)memset(s, 0, n);
  48              		.loc 1 89 0
  49 000a 7868     		ldr	r0, [r7, #4]
  50 000c 4FF00001 		mov	r1, #0
  51 0010 3A68     		ldr	r2, [r7, #0]
  52 0012 FFF7FEFF 		bl	memset
  90:.\Generated_Source\PSoC5/cyfitter_cfg.c **** 	}
  53              		.loc 1 90 0
  54 0016 07F10807 		add	r7, r7, #8
  55 001a BD46     		mov	sp, r7
  56 001c 80BD     		pop	{r7, pc}
  57              		.cfi_endproc
  58              	.LFE0:
  59              		.size	CYMEMZERO, .-CYMEMZERO
  60 001e 00BF     		.section	.text.CYCONFIGCPY,"ax",%progbits
  61              		.align	2
  62              		.thumb
  63              		.thumb_func
  64              		.type	CYCONFIGCPY, %function
  65              	CYCONFIGCPY:
  66              	.LFB1:
  91:.\Generated_Source\PSoC5/cyfitter_cfg.c **** 	__attribute__ ((unused))
  92:.\Generated_Source\PSoC5/cyfitter_cfg.c **** 	static void CYCONFIGCPY(void *dest, const void *src, size_t n);
  93:.\Generated_Source\PSoC5/cyfitter_cfg.c **** 	__attribute__ ((unused))
  94:.\Generated_Source\PSoC5/cyfitter_cfg.c **** 	static void CYCONFIGCPY(void *dest, const void *src, size_t n)
  95:.\Generated_Source\PSoC5/cyfitter_cfg.c **** 	{
  67              		.loc 1 95 0
  68              		.cfi_startproc
  69              		@ args = 0, pretend = 0, frame = 16
  70              		@ frame_needed = 1, uses_anonymous_args = 0
  71 0000 80B5     		push	{r7, lr}
  72              	.LCFI3:
ARM GAS  C:\DOCUME~1\ADMINI~1\LOCALS~1\Temp\cc2DMpSh.s 			page 4


  73              		.cfi_def_cfa_offset 8
  74 0002 84B0     		sub	sp, sp, #16
  75              	.LCFI4:
  76              		.cfi_def_cfa_offset 24
  77 0004 00AF     		add	r7, sp, #0
  78              		.cfi_offset 14, -4
  79              		.cfi_offset 7, -8
  80              	.LCFI5:
  81              		.cfi_def_cfa_register 7
  82 0006 F860     		str	r0, [r7, #12]
  83 0008 B960     		str	r1, [r7, #8]
  84 000a 7A60     		str	r2, [r7, #4]
  96:.\Generated_Source\PSoC5/cyfitter_cfg.c **** 		(void)memcpy(dest, src, n);
  85              		.loc 1 96 0
  86 000c F868     		ldr	r0, [r7, #12]
  87 000e B968     		ldr	r1, [r7, #8]
  88 0010 7A68     		ldr	r2, [r7, #4]
  89 0012 FFF7FEFF 		bl	memcpy
  97:.\Generated_Source\PSoC5/cyfitter_cfg.c **** 	}
  90              		.loc 1 97 0
  91 0016 07F11007 		add	r7, r7, #16
  92 001a BD46     		mov	sp, r7
  93 001c 80BD     		pop	{r7, pc}
  94              		.cfi_endproc
  95              	.LFE1:
  96              		.size	CYCONFIGCPY, .-CYCONFIGCPY
  97 001e 00BF     		.section	.text.CYCONFIGCPYCODE,"ax",%progbits
  98              		.align	2
  99              		.thumb
 100              		.thumb_func
 101              		.type	CYCONFIGCPYCODE, %function
 102              	CYCONFIGCPYCODE:
 103              	.LFB2:
  98:.\Generated_Source\PSoC5/cyfitter_cfg.c **** 	__attribute__ ((unused))
  99:.\Generated_Source\PSoC5/cyfitter_cfg.c **** 	static void CYCONFIGCPYCODE(void *dest, const void *src, size_t n);
 100:.\Generated_Source\PSoC5/cyfitter_cfg.c **** 	__attribute__ ((unused))
 101:.\Generated_Source\PSoC5/cyfitter_cfg.c **** 	static void CYCONFIGCPYCODE(void *dest, const void *src, size_t n)
 102:.\Generated_Source\PSoC5/cyfitter_cfg.c **** 	{
 104              		.loc 1 102 0
 105              		.cfi_startproc
 106              		@ args = 0, pretend = 0, frame = 16
 107              		@ frame_needed = 1, uses_anonymous_args = 0
 108 0000 80B5     		push	{r7, lr}
 109              	.LCFI6:
 110              		.cfi_def_cfa_offset 8
 111 0002 84B0     		sub	sp, sp, #16
 112              	.LCFI7:
 113              		.cfi_def_cfa_offset 24
 114 0004 00AF     		add	r7, sp, #0
 115              		.cfi_offset 14, -4
 116              		.cfi_offset 7, -8
 117              	.LCFI8:
 118              		.cfi_def_cfa_register 7
 119 0006 F860     		str	r0, [r7, #12]
 120 0008 B960     		str	r1, [r7, #8]
 121 000a 7A60     		str	r2, [r7, #4]
 103:.\Generated_Source\PSoC5/cyfitter_cfg.c **** 		(void)memcpy(dest, src, n);
ARM GAS  C:\DOCUME~1\ADMINI~1\LOCALS~1\Temp\cc2DMpSh.s 			page 5


 122              		.loc 1 103 0
 123 000c F868     		ldr	r0, [r7, #12]
 124 000e B968     		ldr	r1, [r7, #8]
 125 0010 7A68     		ldr	r2, [r7, #4]
 126 0012 FFF7FEFF 		bl	memcpy
 104:.\Generated_Source\PSoC5/cyfitter_cfg.c **** 	}
 127              		.loc 1 104 0
 128 0016 07F11007 		add	r7, r7, #16
 129 001a BD46     		mov	sp, r7
 130 001c 80BD     		pop	{r7, pc}
 131              		.cfi_endproc
 132              	.LFE2:
 133              		.size	CYCONFIGCPYCODE, .-CYCONFIGCPYCODE
 134 001e 00BF     		.section	.text.cfg_write_bytes32,"ax",%progbits
 135              		.align	2
 136              		.thumb
 137              		.thumb_func
 138              		.type	cfg_write_bytes32, %function
 139              	cfg_write_bytes32:
 140              	.LFB3:
 105:.\Generated_Source\PSoC5/cyfitter_cfg.c **** #else
 106:.\Generated_Source\PSoC5/cyfitter_cfg.c **** 	#error Unsupported toolchain
 107:.\Generated_Source\PSoC5/cyfitter_cfg.c **** #endif
 108:.\Generated_Source\PSoC5/cyfitter_cfg.c **** 
 109:.\Generated_Source\PSoC5/cyfitter_cfg.c **** #define CY_CFG_BASE_ADDR_COUNT 17u
 110:.\Generated_Source\PSoC5/cyfitter_cfg.c **** typedef struct
 111:.\Generated_Source\PSoC5/cyfitter_cfg.c **** {
 112:.\Generated_Source\PSoC5/cyfitter_cfg.c **** 	uint8 offset;
 113:.\Generated_Source\PSoC5/cyfitter_cfg.c **** 	uint8 value;
 114:.\Generated_Source\PSoC5/cyfitter_cfg.c **** } CYPACKED cy_cfg_addrvalue_t;
 115:.\Generated_Source\PSoC5/cyfitter_cfg.c **** 
 116:.\Generated_Source\PSoC5/cyfitter_cfg.c **** 
 117:.\Generated_Source\PSoC5/cyfitter_cfg.c **** 
 118:.\Generated_Source\PSoC5/cyfitter_cfg.c **** /*******************************************************************************
 119:.\Generated_Source\PSoC5/cyfitter_cfg.c **** * Function Name: cfg_write_bytes32
 120:.\Generated_Source\PSoC5/cyfitter_cfg.c **** ********************************************************************************
 121:.\Generated_Source\PSoC5/cyfitter_cfg.c **** * Summary:
 122:.\Generated_Source\PSoC5/cyfitter_cfg.c **** *  This function is used for setting up the chip configuration areas that
 123:.\Generated_Source\PSoC5/cyfitter_cfg.c **** *  contain relatively sparse data.
 124:.\Generated_Source\PSoC5/cyfitter_cfg.c **** *
 125:.\Generated_Source\PSoC5/cyfitter_cfg.c **** * Parameters:
 126:.\Generated_Source\PSoC5/cyfitter_cfg.c **** *   void
 127:.\Generated_Source\PSoC5/cyfitter_cfg.c **** *
 128:.\Generated_Source\PSoC5/cyfitter_cfg.c **** * Return:
 129:.\Generated_Source\PSoC5/cyfitter_cfg.c **** *   void
 130:.\Generated_Source\PSoC5/cyfitter_cfg.c **** *
 131:.\Generated_Source\PSoC5/cyfitter_cfg.c **** *******************************************************************************/
 132:.\Generated_Source\PSoC5/cyfitter_cfg.c **** static void cfg_write_bytes32(const uint32 addr_table[], const cy_cfg_addrvalue_t data_table[]);
 133:.\Generated_Source\PSoC5/cyfitter_cfg.c **** static void cfg_write_bytes32(const uint32 addr_table[], const cy_cfg_addrvalue_t data_table[])
 134:.\Generated_Source\PSoC5/cyfitter_cfg.c **** {
 141              		.loc 1 134 0
 142              		.cfi_startproc
 143              		@ args = 0, pretend = 0, frame = 24
 144              		@ frame_needed = 1, uses_anonymous_args = 0
 145              		@ link register save eliminated.
 146 0000 80B4     		push	{r7}
 147              	.LCFI9:
ARM GAS  C:\DOCUME~1\ADMINI~1\LOCALS~1\Temp\cc2DMpSh.s 			page 6


 148              		.cfi_def_cfa_offset 4
 149 0002 87B0     		sub	sp, sp, #28
 150              	.LCFI10:
 151              		.cfi_def_cfa_offset 32
 152 0004 00AF     		add	r7, sp, #0
 153              		.cfi_offset 7, -4
 154              	.LCFI11:
 155              		.cfi_def_cfa_register 7
 156 0006 7860     		str	r0, [r7, #4]
 157 0008 3960     		str	r1, [r7, #0]
 135:.\Generated_Source\PSoC5/cyfitter_cfg.c **** 	/* For 32-bit little-endian architectures */
 136:.\Generated_Source\PSoC5/cyfitter_cfg.c **** 	uint32 i, j = 0u;
 158              		.loc 1 136 0
 159 000a 4FF00003 		mov	r3, #0
 160 000e FB60     		str	r3, [r7, #12]
 137:.\Generated_Source\PSoC5/cyfitter_cfg.c **** 	for (i = 0u; i < CY_CFG_BASE_ADDR_COUNT; i++)
 161              		.loc 1 137 0
 162 0010 4FF00003 		mov	r3, #0
 163 0014 BB60     		str	r3, [r7, #8]
 164 0016 2CE0     		b	.L8
 165              	.L11:
 166              	.LBB2:
 138:.\Generated_Source\PSoC5/cyfitter_cfg.c **** 	{
 139:.\Generated_Source\PSoC5/cyfitter_cfg.c **** 		uint32 baseAddr = addr_table[i];
 167              		.loc 1 139 0
 168 0018 BB68     		ldr	r3, [r7, #8]
 169 001a 4FEA8302 		lsl	r2, r3, #2
 170 001e 7B68     		ldr	r3, [r7, #4]
 171 0020 1344     		add	r3, r2, r3
 172 0022 1B68     		ldr	r3, [r3, #0]
 173 0024 3B61     		str	r3, [r7, #16]
 140:.\Generated_Source\PSoC5/cyfitter_cfg.c **** 		uint8 count = (uint8)baseAddr;
 174              		.loc 1 140 0
 175 0026 3B69     		ldr	r3, [r7, #16]
 176 0028 FB75     		strb	r3, [r7, #23]
 141:.\Generated_Source\PSoC5/cyfitter_cfg.c **** 		baseAddr &= 0xFFFFFF00u;
 177              		.loc 1 141 0
 178 002a 3B69     		ldr	r3, [r7, #16]
 179 002c 23F0FF03 		bic	r3, r3, #255
 180 0030 3B61     		str	r3, [r7, #16]
 142:.\Generated_Source\PSoC5/cyfitter_cfg.c **** 		while (count != 0u)
 181              		.loc 1 142 0
 182 0032 17E0     		b	.L9
 183              	.L10:
 143:.\Generated_Source\PSoC5/cyfitter_cfg.c **** 		{
 144:.\Generated_Source\PSoC5/cyfitter_cfg.c **** 			CY_SET_XTND_REG8((void CYFAR *)(baseAddr + data_table[j].offset), data_table[j].value);
 184              		.loc 1 144 0
 185 0034 FB68     		ldr	r3, [r7, #12]
 186 0036 4FEA4302 		lsl	r2, r3, #1
 187 003a 3B68     		ldr	r3, [r7, #0]
 188 003c 1344     		add	r3, r2, r3
 189 003e 1B78     		ldrb	r3, [r3, #0]	@ zero_extendqisi2
 190 0040 1A46     		mov	r2, r3
 191 0042 3B69     		ldr	r3, [r7, #16]
 192 0044 1344     		add	r3, r2, r3
 193 0046 FA68     		ldr	r2, [r7, #12]
 194 0048 4FEA4201 		lsl	r1, r2, #1
ARM GAS  C:\DOCUME~1\ADMINI~1\LOCALS~1\Temp\cc2DMpSh.s 			page 7


 195 004c 3A68     		ldr	r2, [r7, #0]
 196 004e 0A44     		add	r2, r1, r2
 197 0050 5278     		ldrb	r2, [r2, #1]	@ zero_extendqisi2
 198 0052 1A70     		strb	r2, [r3, #0]
 145:.\Generated_Source\PSoC5/cyfitter_cfg.c **** 			j++;
 199              		.loc 1 145 0
 200 0054 FB68     		ldr	r3, [r7, #12]
 201 0056 03F10103 		add	r3, r3, #1
 202 005a FB60     		str	r3, [r7, #12]
 146:.\Generated_Source\PSoC5/cyfitter_cfg.c **** 			count--;
 203              		.loc 1 146 0
 204 005c FB7D     		ldrb	r3, [r7, #23]
 205 005e 03F1FF33 		add	r3, r3, #-1
 206 0062 FB75     		strb	r3, [r7, #23]
 207              	.L9:
 208              		.loc 1 142 0
 209 0064 FB7D     		ldrb	r3, [r7, #23]	@ zero_extendqisi2
 210 0066 002B     		cmp	r3, #0
 211 0068 E4D1     		bne	.L10
 212              	.LBE2:
 213              		.loc 1 137 0
 214 006a BB68     		ldr	r3, [r7, #8]
 215 006c 03F10103 		add	r3, r3, #1
 216 0070 BB60     		str	r3, [r7, #8]
 217              	.L8:
 218 0072 BB68     		ldr	r3, [r7, #8]
 219 0074 102B     		cmp	r3, #16
 220 0076 CFD9     		bls	.L11
 147:.\Generated_Source\PSoC5/cyfitter_cfg.c **** 		}
 148:.\Generated_Source\PSoC5/cyfitter_cfg.c **** 	}
 149:.\Generated_Source\PSoC5/cyfitter_cfg.c **** }
 221              		.loc 1 149 0
 222 0078 07F11C07 		add	r7, r7, #28
 223 007c BD46     		mov	sp, r7
 224 007e 80BC     		pop	{r7}
 225 0080 7047     		bx	lr
 226              		.cfi_endproc
 227              	.LFE3:
 228              		.size	cfg_write_bytes32, .-cfg_write_bytes32
 229 0082 00BF     		.section	.text.ClockSetup,"ax",%progbits
 230              		.align	2
 231              		.thumb
 232              		.thumb_func
 233              		.type	ClockSetup, %function
 234              	ClockSetup:
 235              	.LFB4:
 150:.\Generated_Source\PSoC5/cyfitter_cfg.c **** 
 151:.\Generated_Source\PSoC5/cyfitter_cfg.c **** /*******************************************************************************
 152:.\Generated_Source\PSoC5/cyfitter_cfg.c **** * Function Name: ClockSetup
 153:.\Generated_Source\PSoC5/cyfitter_cfg.c **** ********************************************************************************
 154:.\Generated_Source\PSoC5/cyfitter_cfg.c **** *
 155:.\Generated_Source\PSoC5/cyfitter_cfg.c **** * Summary:
 156:.\Generated_Source\PSoC5/cyfitter_cfg.c **** *  Performs the initialization of all of the clocks in the device based on the
 157:.\Generated_Source\PSoC5/cyfitter_cfg.c **** *  settings in the Clock tab of the DWR.  This includes enabling the requested
 158:.\Generated_Source\PSoC5/cyfitter_cfg.c **** *  clocks and setting the necessary dividers to produce the desired frequency. 
 159:.\Generated_Source\PSoC5/cyfitter_cfg.c **** *
 160:.\Generated_Source\PSoC5/cyfitter_cfg.c **** * Parameters:
ARM GAS  C:\DOCUME~1\ADMINI~1\LOCALS~1\Temp\cc2DMpSh.s 			page 8


 161:.\Generated_Source\PSoC5/cyfitter_cfg.c **** *  void
 162:.\Generated_Source\PSoC5/cyfitter_cfg.c **** *
 163:.\Generated_Source\PSoC5/cyfitter_cfg.c **** * Return:
 164:.\Generated_Source\PSoC5/cyfitter_cfg.c **** *  void
 165:.\Generated_Source\PSoC5/cyfitter_cfg.c **** *
 166:.\Generated_Source\PSoC5/cyfitter_cfg.c **** *******************************************************************************/
 167:.\Generated_Source\PSoC5/cyfitter_cfg.c **** static void ClockSetup(void);
 168:.\Generated_Source\PSoC5/cyfitter_cfg.c **** static void ClockSetup(void)
 169:.\Generated_Source\PSoC5/cyfitter_cfg.c **** {
 236              		.loc 1 169 0
 237              		.cfi_startproc
 238              		@ args = 0, pretend = 0, frame = 0
 239              		@ frame_needed = 1, uses_anonymous_args = 0
 240              		@ link register save eliminated.
 241 0000 80B4     		push	{r7}
 242              	.LCFI12:
 243              		.cfi_def_cfa_offset 4
 244 0002 00AF     		add	r7, sp, #0
 245              		.cfi_offset 7, -4
 246              	.LCFI13:
 247              		.cfi_def_cfa_register 7
 170:.\Generated_Source\PSoC5/cyfitter_cfg.c **** 
 171:.\Generated_Source\PSoC5/cyfitter_cfg.c **** 
 172:.\Generated_Source\PSoC5/cyfitter_cfg.c **** 	/* Configure Digital Clocks based on settings from Clock DWR */
 173:.\Generated_Source\PSoC5/cyfitter_cfg.c **** 	CY_SET_XTND_REG16((void CYFAR *)(CYREG_CLKDIST_DCFG0_CFG0), 0x0003u);
 248              		.loc 1 173 0
 249 0004 44F28003 		movw	r3, #:lower16:1073758336
 250 0008 C4F20003 		movt	r3, #:upper16:1073758336
 251 000c 4FF00302 		mov	r2, #3
 252 0010 1A80     		strh	r2, [r3, #0]	@ movhi
 174:.\Generated_Source\PSoC5/cyfitter_cfg.c **** 	CY_SET_XTND_REG8((void CYFAR *)(CYREG_CLKDIST_DCFG0_CFG0 + 0x2u), 0x1Bu);
 253              		.loc 1 174 0
 254 0012 44F28203 		movw	r3, #:lower16:1073758338
 255 0016 C4F20003 		movt	r3, #:upper16:1073758338
 256 001a 4FF01B02 		mov	r2, #27
 257 001e 1A70     		strb	r2, [r3, #0]
 175:.\Generated_Source\PSoC5/cyfitter_cfg.c **** 
 176:.\Generated_Source\PSoC5/cyfitter_cfg.c **** 	/* Configure ILO based on settings from Clock DWR */
 177:.\Generated_Source\PSoC5/cyfitter_cfg.c **** 	CY_SET_XTND_REG8((void CYFAR *)(CYREG_SLOWCLK_ILO_CR0), 0x06u);
 258              		.loc 1 177 0
 259 0020 44F20033 		movw	r3, #:lower16:1073758976
 260 0024 C4F20003 		movt	r3, #:upper16:1073758976
 261 0028 4FF00602 		mov	r2, #6
 262 002c 1A70     		strb	r2, [r3, #0]
 178:.\Generated_Source\PSoC5/cyfitter_cfg.c **** 
 179:.\Generated_Source\PSoC5/cyfitter_cfg.c **** 	/* Configure IMO based on settings from Clock DWR */
 180:.\Generated_Source\PSoC5/cyfitter_cfg.c **** 	CY_SET_XTND_REG8((void CYFAR *)(CYREG_FASTCLK_IMO_CR), 0x52u);
 263              		.loc 1 180 0
 264 002e 44F20023 		movw	r3, #:lower16:1073758720
 265 0032 C4F20003 		movt	r3, #:upper16:1073758720
 266 0036 4FF05202 		mov	r2, #82
 267 003a 1A70     		strb	r2, [r3, #0]
 181:.\Generated_Source\PSoC5/cyfitter_cfg.c **** 	CY_SET_XTND_REG8((void CYFAR *)(CYREG_IMO_TR1), (CY_GET_XTND_REG8((void CYFAR *)CYREG_FLSHID_CUST_
 268              		.loc 1 181 0
 269 003c 44F2A163 		movw	r3, #:lower16:1073759905
 270 0040 C4F20003 		movt	r3, #:upper16:1073759905
 271 0044 40F20F12 		movw	r2, #:lower16:1224737039
ARM GAS  C:\DOCUME~1\ADMINI~1\LOCALS~1\Temp\cc2DMpSh.s 			page 9


 272 0048 C4F60012 		movt	r2, #:upper16:1224737039
 273 004c 1278     		ldrb	r2, [r2, #0]
 274 004e D2B2     		uxtb	r2, r2
 275 0050 1A70     		strb	r2, [r3, #0]
 182:.\Generated_Source\PSoC5/cyfitter_cfg.c **** 
 183:.\Generated_Source\PSoC5/cyfitter_cfg.c **** 	/* Configure Bus/Master Clock based on settings from Clock DWR */
 184:.\Generated_Source\PSoC5/cyfitter_cfg.c **** 	CY_SET_XTND_REG16((void CYFAR *)(CYREG_CLKDIST_MSTR0), 0x0000u);
 276              		.loc 1 184 0
 277 0052 44F20403 		movw	r3, #:lower16:1073758212
 278 0056 C4F20003 		movt	r3, #:upper16:1073758212
 279 005a 4FF00002 		mov	r2, #0
 280 005e 1A80     		strh	r2, [r3, #0]	@ movhi
 185:.\Generated_Source\PSoC5/cyfitter_cfg.c **** 	CY_SET_XTND_REG8((void CYFAR *)(CYREG_CLKDIST_MSTR0), 0x07u);
 281              		.loc 1 185 0
 282 0060 44F20403 		movw	r3, #:lower16:1073758212
 283 0064 C4F20003 		movt	r3, #:upper16:1073758212
 284 0068 4FF00702 		mov	r2, #7
 285 006c 1A70     		strb	r2, [r3, #0]
 186:.\Generated_Source\PSoC5/cyfitter_cfg.c **** 	CY_SET_XTND_REG8((void CYFAR *)(CYREG_CLKDIST_BCFG0), 0x00u);
 286              		.loc 1 186 0
 287 006e 44F20603 		movw	r3, #:lower16:1073758214
 288 0072 C4F20003 		movt	r3, #:upper16:1073758214
 289 0076 4FF00002 		mov	r2, #0
 290 007a 1A70     		strb	r2, [r3, #0]
 187:.\Generated_Source\PSoC5/cyfitter_cfg.c **** 	CY_SET_XTND_REG8((void CYFAR *)(CYREG_CLKDIST_BCFG2), 0x48u);
 291              		.loc 1 187 0
 292 007c 44F20803 		movw	r3, #:lower16:1073758216
 293 0080 C4F20003 		movt	r3, #:upper16:1073758216
 294 0084 4FF04802 		mov	r2, #72
 295 0088 1A70     		strb	r2, [r3, #0]
 188:.\Generated_Source\PSoC5/cyfitter_cfg.c **** 	CY_SET_XTND_REG8((void CYFAR *)(CYREG_CLKDIST_MSTR0), 0x00u);
 296              		.loc 1 188 0
 297 008a 44F20403 		movw	r3, #:lower16:1073758212
 298 008e C4F20003 		movt	r3, #:upper16:1073758212
 299 0092 4FF00002 		mov	r2, #0
 300 0096 1A70     		strb	r2, [r3, #0]
 189:.\Generated_Source\PSoC5/cyfitter_cfg.c **** 
 190:.\Generated_Source\PSoC5/cyfitter_cfg.c **** 	/* Configure USB Clock based on settings from Clock DWR */
 191:.\Generated_Source\PSoC5/cyfitter_cfg.c **** 	CY_SET_XTND_REG8((void CYFAR *)(CYREG_CLKDIST_UCFG), 0x00u);
 301              		.loc 1 191 0
 302 0098 44F20903 		movw	r3, #:lower16:1073758217
 303 009c C4F20003 		movt	r3, #:upper16:1073758217
 304 00a0 4FF00002 		mov	r2, #0
 305 00a4 1A70     		strb	r2, [r3, #0]
 192:.\Generated_Source\PSoC5/cyfitter_cfg.c **** 	CY_SET_XTND_REG8((void CYFAR *)(CYREG_CLKDIST_LD), 0x02u);
 306              		.loc 1 192 0
 307 00a6 44F20103 		movw	r3, #:lower16:1073758209
 308 00aa C4F20003 		movt	r3, #:upper16:1073758209
 309 00ae 4FF00202 		mov	r2, #2
 310 00b2 1A70     		strb	r2, [r3, #0]
 193:.\Generated_Source\PSoC5/cyfitter_cfg.c **** 
 194:.\Generated_Source\PSoC5/cyfitter_cfg.c **** 	CY_SET_XTND_REG8((void CYFAR *)(CYREG_PM_ACT_CFG2), ((CY_GET_XTND_REG8((void CYFAR *)CYREG_PM_ACT_
 311              		.loc 1 194 0
 312 00b4 44F2A233 		movw	r3, #:lower16:1073759138
 313 00b8 C4F20003 		movt	r3, #:upper16:1073759138
 314 00bc 44F2A232 		movw	r2, #:lower16:1073759138
 315 00c0 C4F20002 		movt	r2, #:upper16:1073759138
ARM GAS  C:\DOCUME~1\ADMINI~1\LOCALS~1\Temp\cc2DMpSh.s 			page 10


 316 00c4 1278     		ldrb	r2, [r2, #0]
 317 00c6 D2B2     		uxtb	r2, r2
 318 00c8 42F00102 		orr	r2, r2, #1
 319 00cc D2B2     		uxtb	r2, r2
 320 00ce 1A70     		strb	r2, [r3, #0]
 195:.\Generated_Source\PSoC5/cyfitter_cfg.c **** }
 321              		.loc 1 195 0
 322 00d0 BD46     		mov	sp, r7
 323 00d2 80BC     		pop	{r7}
 324 00d4 7047     		bx	lr
 325              		.cfi_endproc
 326              	.LFE4:
 327              		.size	ClockSetup, .-ClockSetup
 328 00d6 00BF     		.section	.text.AnalogSetDefault,"ax",%progbits
 329              		.align	2
 330              		.thumb
 331              		.thumb_func
 332              		.type	AnalogSetDefault, %function
 333              	AnalogSetDefault:
 334              	.LFB5:
 196:.\Generated_Source\PSoC5/cyfitter_cfg.c **** 
 197:.\Generated_Source\PSoC5/cyfitter_cfg.c **** 
 198:.\Generated_Source\PSoC5/cyfitter_cfg.c **** /* Analog API Functions */
 199:.\Generated_Source\PSoC5/cyfitter_cfg.c **** 
 200:.\Generated_Source\PSoC5/cyfitter_cfg.c **** 
 201:.\Generated_Source\PSoC5/cyfitter_cfg.c **** /*******************************************************************************
 202:.\Generated_Source\PSoC5/cyfitter_cfg.c **** * Function Name: AnalogSetDefault
 203:.\Generated_Source\PSoC5/cyfitter_cfg.c **** ********************************************************************************
 204:.\Generated_Source\PSoC5/cyfitter_cfg.c **** *
 205:.\Generated_Source\PSoC5/cyfitter_cfg.c **** * Summary:
 206:.\Generated_Source\PSoC5/cyfitter_cfg.c **** *  Sets up the analog portions of the chip to default values based on chip
 207:.\Generated_Source\PSoC5/cyfitter_cfg.c **** *  configuration options from the project.
 208:.\Generated_Source\PSoC5/cyfitter_cfg.c **** *
 209:.\Generated_Source\PSoC5/cyfitter_cfg.c **** * Parameters:
 210:.\Generated_Source\PSoC5/cyfitter_cfg.c **** *  void
 211:.\Generated_Source\PSoC5/cyfitter_cfg.c **** *
 212:.\Generated_Source\PSoC5/cyfitter_cfg.c **** * Return:
 213:.\Generated_Source\PSoC5/cyfitter_cfg.c **** *  void
 214:.\Generated_Source\PSoC5/cyfitter_cfg.c **** *
 215:.\Generated_Source\PSoC5/cyfitter_cfg.c **** *******************************************************************************/
 216:.\Generated_Source\PSoC5/cyfitter_cfg.c **** static void AnalogSetDefault(void);
 217:.\Generated_Source\PSoC5/cyfitter_cfg.c **** static void AnalogSetDefault(void)
 218:.\Generated_Source\PSoC5/cyfitter_cfg.c **** {
 335              		.loc 1 218 0
 336              		.cfi_startproc
 337              		@ args = 0, pretend = 0, frame = 8
 338              		@ frame_needed = 1, uses_anonymous_args = 0
 339              		@ link register save eliminated.
 340 0000 80B4     		push	{r7}
 341              	.LCFI14:
 342              		.cfi_def_cfa_offset 4
 343 0002 83B0     		sub	sp, sp, #12
 344              	.LCFI15:
 345              		.cfi_def_cfa_offset 16
 346 0004 00AF     		add	r7, sp, #0
 347              		.cfi_offset 7, -4
 348              	.LCFI16:
ARM GAS  C:\DOCUME~1\ADMINI~1\LOCALS~1\Temp\cc2DMpSh.s 			page 11


 349              		.cfi_def_cfa_register 7
 219:.\Generated_Source\PSoC5/cyfitter_cfg.c **** 	uint8 bg_xover_inl_trim = CY_GET_XTND_REG8((void CYFAR *)(CYREG_FLSHID_MFG_CFG_BG_XOVER_INL_TRIM +
 350              		.loc 1 219 0
 351 0006 40F2CF13 		movw	r3, #:lower16:1224737231
 352 000a C4F60013 		movt	r3, #:upper16:1224737231
 353 000e 1B78     		ldrb	r3, [r3, #0]
 354 0010 FB71     		strb	r3, [r7, #7]
 220:.\Generated_Source\PSoC5/cyfitter_cfg.c **** 	CY_SET_XTND_REG8((void CYFAR *)CYREG_BG_DFT0, bg_xover_inl_trim & 0x07u);
 355              		.loc 1 220 0
 356 0012 45F66E03 		movw	r3, #:lower16:1073764462
 357 0016 C4F20003 		movt	r3, #:upper16:1073764462
 358 001a FA79     		ldrb	r2, [r7, #7]	@ zero_extendqisi2
 359 001c 02F00702 		and	r2, r2, #7
 360 0020 1A70     		strb	r2, [r3, #0]
 221:.\Generated_Source\PSoC5/cyfitter_cfg.c **** 	CY_SET_XTND_REG8((void CYFAR *)CYREG_BG_DFT1, ((uint8)((uint8)bg_xover_inl_trim >> 4)) & 0x0Fu);
 361              		.loc 1 221 0
 362 0022 45F66F03 		movw	r3, #:lower16:1073764463
 363 0026 C4F20003 		movt	r3, #:upper16:1073764463
 364 002a FA79     		ldrb	r2, [r7, #7]	@ zero_extendqisi2
 365 002c 4FEA1212 		lsr	r2, r2, #4
 366 0030 D2B2     		uxtb	r2, r2
 367 0032 1A70     		strb	r2, [r3, #0]
 222:.\Generated_Source\PSoC5/cyfitter_cfg.c **** 	CY_SET_XTND_REG8((void CYFAR *)CYREG_PUMP_CR0, 0x44u);
 368              		.loc 1 222 0
 369 0034 45F67603 		movw	r3, #:lower16:1073764470
 370 0038 C4F20003 		movt	r3, #:upper16:1073764470
 371 003c 4FF04402 		mov	r2, #68
 372 0040 1A70     		strb	r2, [r3, #0]
 223:.\Generated_Source\PSoC5/cyfitter_cfg.c **** }
 373              		.loc 1 223 0
 374 0042 07F10C07 		add	r7, r7, #12
 375 0046 BD46     		mov	sp, r7
 376 0048 80BC     		pop	{r7}
 377 004a 7047     		bx	lr
 378              		.cfi_endproc
 379              	.LFE5:
 380              		.size	AnalogSetDefault, .-AnalogSetDefault
 381              		.section	.text.SetAnalogRoutingPumps,"ax",%progbits
 382              		.align	2
 383              		.global	SetAnalogRoutingPumps
 384              		.thumb
 385              		.thumb_func
 386              		.type	SetAnalogRoutingPumps, %function
 387              	SetAnalogRoutingPumps:
 388              	.LFB6:
 224:.\Generated_Source\PSoC5/cyfitter_cfg.c **** 
 225:.\Generated_Source\PSoC5/cyfitter_cfg.c **** 
 226:.\Generated_Source\PSoC5/cyfitter_cfg.c **** /*******************************************************************************
 227:.\Generated_Source\PSoC5/cyfitter_cfg.c **** * Function Name: SetAnalogRoutingPumps
 228:.\Generated_Source\PSoC5/cyfitter_cfg.c **** ********************************************************************************
 229:.\Generated_Source\PSoC5/cyfitter_cfg.c **** *
 230:.\Generated_Source\PSoC5/cyfitter_cfg.c **** * Summary:
 231:.\Generated_Source\PSoC5/cyfitter_cfg.c **** * Enables or disables the analog pumps feeding analog routing switches.
 232:.\Generated_Source\PSoC5/cyfitter_cfg.c **** * Intended to be called at startup, based on the Vdda system configuration;
 233:.\Generated_Source\PSoC5/cyfitter_cfg.c **** * may be called during operation when the user informs us that the Vdda voltage
 234:.\Generated_Source\PSoC5/cyfitter_cfg.c **** * crossed the pump threshold.
 235:.\Generated_Source\PSoC5/cyfitter_cfg.c **** *
ARM GAS  C:\DOCUME~1\ADMINI~1\LOCALS~1\Temp\cc2DMpSh.s 			page 12


 236:.\Generated_Source\PSoC5/cyfitter_cfg.c **** * Parameters:
 237:.\Generated_Source\PSoC5/cyfitter_cfg.c **** *  enabled - 1 to enable the pumps, 0 to disable the pumps
 238:.\Generated_Source\PSoC5/cyfitter_cfg.c **** *
 239:.\Generated_Source\PSoC5/cyfitter_cfg.c **** * Return:
 240:.\Generated_Source\PSoC5/cyfitter_cfg.c **** *  void
 241:.\Generated_Source\PSoC5/cyfitter_cfg.c **** *
 242:.\Generated_Source\PSoC5/cyfitter_cfg.c **** *******************************************************************************/
 243:.\Generated_Source\PSoC5/cyfitter_cfg.c **** void SetAnalogRoutingPumps(uint8 enabled)
 244:.\Generated_Source\PSoC5/cyfitter_cfg.c **** {
 389              		.loc 1 244 0
 390              		.cfi_startproc
 391              		@ args = 0, pretend = 0, frame = 16
 392              		@ frame_needed = 1, uses_anonymous_args = 0
 393              		@ link register save eliminated.
 394 0000 80B4     		push	{r7}
 395              	.LCFI17:
 396              		.cfi_def_cfa_offset 4
 397 0002 85B0     		sub	sp, sp, #20
 398              	.LCFI18:
 399              		.cfi_def_cfa_offset 24
 400 0004 00AF     		add	r7, sp, #0
 401              		.cfi_offset 7, -4
 402              	.LCFI19:
 403              		.cfi_def_cfa_register 7
 404 0006 0346     		mov	r3, r0
 405 0008 FB71     		strb	r3, [r7, #7]
 245:.\Generated_Source\PSoC5/cyfitter_cfg.c **** 	uint8 regValue = CY_GET_XTND_REG8((void CYFAR *)CYREG_PUMP_CR0);
 406              		.loc 1 245 0
 407 000a 45F67603 		movw	r3, #:lower16:1073764470
 408 000e C4F20003 		movt	r3, #:upper16:1073764470
 409 0012 1B78     		ldrb	r3, [r3, #0]
 410 0014 FB73     		strb	r3, [r7, #15]
 246:.\Generated_Source\PSoC5/cyfitter_cfg.c **** 	if (enabled != 0u)
 411              		.loc 1 246 0
 412 0016 FB79     		ldrb	r3, [r7, #7]	@ zero_extendqisi2
 413 0018 002B     		cmp	r3, #0
 247:.\Generated_Source\PSoC5/cyfitter_cfg.c **** 	{
 248:.\Generated_Source\PSoC5/cyfitter_cfg.c **** 		regValue |= 0x00u;
 249:.\Generated_Source\PSoC5/cyfitter_cfg.c **** 	}
 250:.\Generated_Source\PSoC5/cyfitter_cfg.c **** 	else
 251:.\Generated_Source\PSoC5/cyfitter_cfg.c **** 	{
 252:.\Generated_Source\PSoC5/cyfitter_cfg.c **** 		regValue &= (uint8)~0x00u;
 253:.\Generated_Source\PSoC5/cyfitter_cfg.c **** 	}
 254:.\Generated_Source\PSoC5/cyfitter_cfg.c **** 	CY_SET_XTND_REG8((void CYFAR *)CYREG_PUMP_CR0, regValue);
 414              		.loc 1 254 0
 415 001a 45F67603 		movw	r3, #:lower16:1073764470
 416 001e C4F20003 		movt	r3, #:upper16:1073764470
 417 0022 FA7B     		ldrb	r2, [r7, #15]
 418 0024 1A70     		strb	r2, [r3, #0]
 255:.\Generated_Source\PSoC5/cyfitter_cfg.c **** }
 419              		.loc 1 255 0
 420 0026 07F11407 		add	r7, r7, #20
 421 002a BD46     		mov	sp, r7
 422 002c 80BC     		pop	{r7}
 423 002e 7047     		bx	lr
 424              		.cfi_endproc
 425              	.LFE6:
ARM GAS  C:\DOCUME~1\ADMINI~1\LOCALS~1\Temp\cc2DMpSh.s 			page 13


 426              		.size	SetAnalogRoutingPumps, .-SetAnalogRoutingPumps
 427              		.section	.text.cyfitter_cfg,"ax",%progbits
 428              		.align	2
 429              		.global	cyfitter_cfg
 430              		.thumb
 431              		.thumb_func
 432              		.type	cyfitter_cfg, %function
 433              	cyfitter_cfg:
 434              	.LFB7:
 256:.\Generated_Source\PSoC5/cyfitter_cfg.c **** 
 257:.\Generated_Source\PSoC5/cyfitter_cfg.c **** #define CY_AMUX_UNUSED CYREG_BOOST_SR
 258:.\Generated_Source\PSoC5/cyfitter_cfg.c **** 
 259:.\Generated_Source\PSoC5/cyfitter_cfg.c **** 
 260:.\Generated_Source\PSoC5/cyfitter_cfg.c **** /*******************************************************************************
 261:.\Generated_Source\PSoC5/cyfitter_cfg.c **** * Function Name: cyfitter_cfg
 262:.\Generated_Source\PSoC5/cyfitter_cfg.c **** ********************************************************************************
 263:.\Generated_Source\PSoC5/cyfitter_cfg.c **** * Summary:
 264:.\Generated_Source\PSoC5/cyfitter_cfg.c **** *  This function is called by the start-up code for the selected device. It
 265:.\Generated_Source\PSoC5/cyfitter_cfg.c **** *  performs all of the necessary device configuration based on the design
 266:.\Generated_Source\PSoC5/cyfitter_cfg.c **** *  settings.  This includes settings from the Design Wide Resources (DWR) such
 267:.\Generated_Source\PSoC5/cyfitter_cfg.c **** *  as Clocks and Pins as well as any component configuration that is necessary.
 268:.\Generated_Source\PSoC5/cyfitter_cfg.c **** *
 269:.\Generated_Source\PSoC5/cyfitter_cfg.c **** * Parameters:  
 270:.\Generated_Source\PSoC5/cyfitter_cfg.c **** *   void
 271:.\Generated_Source\PSoC5/cyfitter_cfg.c **** *
 272:.\Generated_Source\PSoC5/cyfitter_cfg.c **** * Return:
 273:.\Generated_Source\PSoC5/cyfitter_cfg.c **** *   void
 274:.\Generated_Source\PSoC5/cyfitter_cfg.c **** *
 275:.\Generated_Source\PSoC5/cyfitter_cfg.c **** *******************************************************************************/
 276:.\Generated_Source\PSoC5/cyfitter_cfg.c **** 
 277:.\Generated_Source\PSoC5/cyfitter_cfg.c **** void cyfitter_cfg(void)
 278:.\Generated_Source\PSoC5/cyfitter_cfg.c **** {
 435              		.loc 1 278 0
 436              		.cfi_startproc
 437              		@ args = 0, pretend = 0, frame = 8
 438              		@ frame_needed = 1, uses_anonymous_args = 0
 439 0000 80B5     		push	{r7, lr}
 440              	.LCFI20:
 441              		.cfi_def_cfa_offset 8
 442 0002 82B0     		sub	sp, sp, #8
 443              	.LCFI21:
 444              		.cfi_def_cfa_offset 16
 445 0004 00AF     		add	r7, sp, #0
 446              		.cfi_offset 14, -4
 447              		.cfi_offset 7, -8
 448              	.LCFI22:
 449              		.cfi_def_cfa_register 7
 279:.\Generated_Source\PSoC5/cyfitter_cfg.c **** 	/* IOPINS0_8 Address: CYREG_PRT15_DR Size (bytes): 10 */
 280:.\Generated_Source\PSoC5/cyfitter_cfg.c **** 	static const uint8 CYCODE BS_IOPINS0_8_VAL[] = {
 281:.\Generated_Source\PSoC5/cyfitter_cfg.c **** 		0x00u, 0x00u, 0x00u, 0x00u, 0x00u, 0x00u, 0x00u, 0x00u, 0xC0u, 0x00u};
 282:.\Generated_Source\PSoC5/cyfitter_cfg.c **** 
 283:.\Generated_Source\PSoC5/cyfitter_cfg.c **** 	/* IOPINS0_2 Address: CYREG_PRT2_DR Size (bytes): 10 */
 284:.\Generated_Source\PSoC5/cyfitter_cfg.c **** 	static const uint8 CYCODE BS_IOPINS0_2_VAL[] = {
 285:.\Generated_Source\PSoC5/cyfitter_cfg.c **** 		0x10u, 0x00u, 0x10u, 0x00u, 0x00u, 0x00u, 0x00u, 0x00u, 0x00u, 0x00u};
 286:.\Generated_Source\PSoC5/cyfitter_cfg.c **** 
 287:.\Generated_Source\PSoC5/cyfitter_cfg.c **** 	/* IOPINS0_3 Address: CYREG_PRT3_DM0 Size (bytes): 8 */
 288:.\Generated_Source\PSoC5/cyfitter_cfg.c **** 	static const uint8 CYCODE BS_IOPINS0_3_VAL[] = {
ARM GAS  C:\DOCUME~1\ADMINI~1\LOCALS~1\Temp\cc2DMpSh.s 			page 14


 289:.\Generated_Source\PSoC5/cyfitter_cfg.c **** 		0x00u, 0x02u, 0x02u, 0x00u, 0x02u, 0x00u, 0x00u, 0x00u};
 290:.\Generated_Source\PSoC5/cyfitter_cfg.c **** 
 291:.\Generated_Source\PSoC5/cyfitter_cfg.c **** #ifdef CYGlobalIntDisable
 292:.\Generated_Source\PSoC5/cyfitter_cfg.c **** 	/* Disable interrupts by default. Let user enable if/when they want. */
 293:.\Generated_Source\PSoC5/cyfitter_cfg.c **** 	CYGlobalIntDisable
 450              		.loc 1 293 0
 451              	@ 293 ".\Generated_Source\PSoC5\cyfitter_cfg.c" 1
 452 0006 72B6     		CPSID   i
 453              	@ 0 "" 2
 454              		.thumb
 455              	.LBB3:
 294:.\Generated_Source\PSoC5/cyfitter_cfg.c **** #endif
 295:.\Generated_Source\PSoC5/cyfitter_cfg.c **** 
 296:.\Generated_Source\PSoC5/cyfitter_cfg.c **** 	{
 297:.\Generated_Source\PSoC5/cyfitter_cfg.c **** 		static const uint32 CYCODE cy_cfg_addr_table[] = {
 298:.\Generated_Source\PSoC5/cyfitter_cfg.c **** 			0x40004501u, /* Base address: 0x40004500 Count: 1 */
 299:.\Generated_Source\PSoC5/cyfitter_cfg.c **** 			0x40005203u, /* Base address: 0x40005200 Count: 3 */
 300:.\Generated_Source\PSoC5/cyfitter_cfg.c **** 			0x40006501u, /* Base address: 0x40006500 Count: 1 */
 301:.\Generated_Source\PSoC5/cyfitter_cfg.c **** 			0x4001143Du, /* Base address: 0x40011400 Count: 61 */
 302:.\Generated_Source\PSoC5/cyfitter_cfg.c **** 			0x4001151Cu, /* Base address: 0x40011500 Count: 28 */
 303:.\Generated_Source\PSoC5/cyfitter_cfg.c **** 			0x40011701u, /* Base address: 0x40011700 Count: 1 */
 304:.\Generated_Source\PSoC5/cyfitter_cfg.c **** 			0x40011901u, /* Base address: 0x40011900 Count: 1 */
 305:.\Generated_Source\PSoC5/cyfitter_cfg.c **** 			0x40014003u, /* Base address: 0x40014000 Count: 3 */
 306:.\Generated_Source\PSoC5/cyfitter_cfg.c **** 			0x40014102u, /* Base address: 0x40014100 Count: 2 */
 307:.\Generated_Source\PSoC5/cyfitter_cfg.c **** 			0x40014202u, /* Base address: 0x40014200 Count: 2 */
 308:.\Generated_Source\PSoC5/cyfitter_cfg.c **** 			0x40014302u, /* Base address: 0x40014300 Count: 2 */
 309:.\Generated_Source\PSoC5/cyfitter_cfg.c **** 			0x40014703u, /* Base address: 0x40014700 Count: 3 */
 310:.\Generated_Source\PSoC5/cyfitter_cfg.c **** 			0x40014803u, /* Base address: 0x40014800 Count: 3 */
 311:.\Generated_Source\PSoC5/cyfitter_cfg.c **** 			0x40014904u, /* Base address: 0x40014900 Count: 4 */
 312:.\Generated_Source\PSoC5/cyfitter_cfg.c **** 			0x40014C02u, /* Base address: 0x40014C00 Count: 2 */
 313:.\Generated_Source\PSoC5/cyfitter_cfg.c **** 			0x40015002u, /* Base address: 0x40015000 Count: 2 */
 314:.\Generated_Source\PSoC5/cyfitter_cfg.c **** 			0x40015101u, /* Base address: 0x40015100 Count: 1 */
 315:.\Generated_Source\PSoC5/cyfitter_cfg.c **** 		};
 316:.\Generated_Source\PSoC5/cyfitter_cfg.c **** 
 317:.\Generated_Source\PSoC5/cyfitter_cfg.c **** 		static const cy_cfg_addrvalue_t CYCODE cy_cfg_data_table[] = {
 318:.\Generated_Source\PSoC5/cyfitter_cfg.c **** 			{0x7Eu, 0x02u},
 319:.\Generated_Source\PSoC5/cyfitter_cfg.c **** 			{0x14u, 0x10u},
 320:.\Generated_Source\PSoC5/cyfitter_cfg.c **** 			{0x18u, 0x02u},
 321:.\Generated_Source\PSoC5/cyfitter_cfg.c **** 			{0x7Cu, 0x40u},
 322:.\Generated_Source\PSoC5/cyfitter_cfg.c **** 			{0x84u, 0x2Du},
 323:.\Generated_Source\PSoC5/cyfitter_cfg.c **** 			{0x08u, 0x01u},
 324:.\Generated_Source\PSoC5/cyfitter_cfg.c **** 			{0x34u, 0x01u},
 325:.\Generated_Source\PSoC5/cyfitter_cfg.c **** 			{0x38u, 0x08u},
 326:.\Generated_Source\PSoC5/cyfitter_cfg.c **** 			{0x3Eu, 0x10u},
 327:.\Generated_Source\PSoC5/cyfitter_cfg.c **** 			{0x40u, 0x20u},
 328:.\Generated_Source\PSoC5/cyfitter_cfg.c **** 			{0x41u, 0x04u},
 329:.\Generated_Source\PSoC5/cyfitter_cfg.c **** 			{0x49u, 0xFFu},
 330:.\Generated_Source\PSoC5/cyfitter_cfg.c **** 			{0x4Au, 0xFFu},
 331:.\Generated_Source\PSoC5/cyfitter_cfg.c **** 			{0x4Bu, 0xFFu},
 332:.\Generated_Source\PSoC5/cyfitter_cfg.c **** 			{0x4Du, 0xA0u},
 333:.\Generated_Source\PSoC5/cyfitter_cfg.c **** 			{0x4Fu, 0x04u},
 334:.\Generated_Source\PSoC5/cyfitter_cfg.c **** 			{0x50u, 0x18u},
 335:.\Generated_Source\PSoC5/cyfitter_cfg.c **** 			{0x54u, 0x25u},
 336:.\Generated_Source\PSoC5/cyfitter_cfg.c **** 			{0x58u, 0x04u},
 337:.\Generated_Source\PSoC5/cyfitter_cfg.c **** 			{0x5Au, 0x04u},
 338:.\Generated_Source\PSoC5/cyfitter_cfg.c **** 			{0x5Bu, 0x04u},
 339:.\Generated_Source\PSoC5/cyfitter_cfg.c **** 			{0x5Fu, 0x01u},
ARM GAS  C:\DOCUME~1\ADMINI~1\LOCALS~1\Temp\cc2DMpSh.s 			page 15


 340:.\Generated_Source\PSoC5/cyfitter_cfg.c **** 			{0x60u, 0x40u},
 341:.\Generated_Source\PSoC5/cyfitter_cfg.c **** 			{0x62u, 0xC0u},
 342:.\Generated_Source\PSoC5/cyfitter_cfg.c **** 			{0x64u, 0x40u},
 343:.\Generated_Source\PSoC5/cyfitter_cfg.c **** 			{0x65u, 0x40u},
 344:.\Generated_Source\PSoC5/cyfitter_cfg.c **** 			{0x66u, 0xC0u},
 345:.\Generated_Source\PSoC5/cyfitter_cfg.c **** 			{0x68u, 0xC0u},
 346:.\Generated_Source\PSoC5/cyfitter_cfg.c **** 			{0x6Au, 0xC0u},
 347:.\Generated_Source\PSoC5/cyfitter_cfg.c **** 			{0x6Cu, 0xC0u},
 348:.\Generated_Source\PSoC5/cyfitter_cfg.c **** 			{0x6Eu, 0xC0u},
 349:.\Generated_Source\PSoC5/cyfitter_cfg.c **** 			{0x94u, 0x08u},
 350:.\Generated_Source\PSoC5/cyfitter_cfg.c **** 			{0x9Cu, 0x0Eu},
 351:.\Generated_Source\PSoC5/cyfitter_cfg.c **** 			{0xA4u, 0x0Eu},
 352:.\Generated_Source\PSoC5/cyfitter_cfg.c **** 			{0xAEu, 0x03u},
 353:.\Generated_Source\PSoC5/cyfitter_cfg.c **** 			{0xB0u, 0x08u},
 354:.\Generated_Source\PSoC5/cyfitter_cfg.c **** 			{0xB2u, 0x04u},
 355:.\Generated_Source\PSoC5/cyfitter_cfg.c **** 			{0xB4u, 0x01u},
 356:.\Generated_Source\PSoC5/cyfitter_cfg.c **** 			{0xB6u, 0x02u},
 357:.\Generated_Source\PSoC5/cyfitter_cfg.c **** 			{0xC0u, 0x20u},
 358:.\Generated_Source\PSoC5/cyfitter_cfg.c **** 			{0xC1u, 0x04u},
 359:.\Generated_Source\PSoC5/cyfitter_cfg.c **** 			{0xC5u, 0xD0u},
 360:.\Generated_Source\PSoC5/cyfitter_cfg.c **** 			{0xC6u, 0x02u},
 361:.\Generated_Source\PSoC5/cyfitter_cfg.c **** 			{0xC7u, 0x10u},
 362:.\Generated_Source\PSoC5/cyfitter_cfg.c **** 			{0xC8u, 0x2Eu},
 363:.\Generated_Source\PSoC5/cyfitter_cfg.c **** 			{0xC9u, 0xFFu},
 364:.\Generated_Source\PSoC5/cyfitter_cfg.c **** 			{0xCAu, 0xFFu},
 365:.\Generated_Source\PSoC5/cyfitter_cfg.c **** 			{0xCBu, 0xFFu},
 366:.\Generated_Source\PSoC5/cyfitter_cfg.c **** 			{0xCDu, 0xAFu},
 367:.\Generated_Source\PSoC5/cyfitter_cfg.c **** 			{0xCEu, 0x0Fu},
 368:.\Generated_Source\PSoC5/cyfitter_cfg.c **** 			{0xCFu, 0x04u},
 369:.\Generated_Source\PSoC5/cyfitter_cfg.c **** 			{0xD0u, 0x18u},
 370:.\Generated_Source\PSoC5/cyfitter_cfg.c **** 			{0xD2u, 0x80u},
 371:.\Generated_Source\PSoC5/cyfitter_cfg.c **** 			{0xD8u, 0x04u},
 372:.\Generated_Source\PSoC5/cyfitter_cfg.c **** 			{0xDAu, 0x04u},
 373:.\Generated_Source\PSoC5/cyfitter_cfg.c **** 			{0xDBu, 0x04u},
 374:.\Generated_Source\PSoC5/cyfitter_cfg.c **** 			{0xDFu, 0x01u},
 375:.\Generated_Source\PSoC5/cyfitter_cfg.c **** 			{0xE0u, 0x40u},
 376:.\Generated_Source\PSoC5/cyfitter_cfg.c **** 			{0xE2u, 0xC0u},
 377:.\Generated_Source\PSoC5/cyfitter_cfg.c **** 			{0xE4u, 0x40u},
 378:.\Generated_Source\PSoC5/cyfitter_cfg.c **** 			{0xE5u, 0x40u},
 379:.\Generated_Source\PSoC5/cyfitter_cfg.c **** 			{0xE6u, 0xC0u},
 380:.\Generated_Source\PSoC5/cyfitter_cfg.c **** 			{0xE8u, 0xC0u},
 381:.\Generated_Source\PSoC5/cyfitter_cfg.c **** 			{0xEAu, 0xC0u},
 382:.\Generated_Source\PSoC5/cyfitter_cfg.c **** 			{0xECu, 0xC0u},
 383:.\Generated_Source\PSoC5/cyfitter_cfg.c **** 			{0xEEu, 0xC0u},
 384:.\Generated_Source\PSoC5/cyfitter_cfg.c **** 			{0x00u, 0x10u},
 385:.\Generated_Source\PSoC5/cyfitter_cfg.c **** 			{0x0Eu, 0x20u},
 386:.\Generated_Source\PSoC5/cyfitter_cfg.c **** 			{0x0Fu, 0x02u},
 387:.\Generated_Source\PSoC5/cyfitter_cfg.c **** 			{0x16u, 0x20u},
 388:.\Generated_Source\PSoC5/cyfitter_cfg.c **** 			{0x17u, 0x80u},
 389:.\Generated_Source\PSoC5/cyfitter_cfg.c **** 			{0x18u, 0x14u},
 390:.\Generated_Source\PSoC5/cyfitter_cfg.c **** 			{0x1Cu, 0x02u},
 391:.\Generated_Source\PSoC5/cyfitter_cfg.c **** 			{0x1Du, 0x20u},
 392:.\Generated_Source\PSoC5/cyfitter_cfg.c **** 			{0x1Eu, 0x60u},
 393:.\Generated_Source\PSoC5/cyfitter_cfg.c **** 			{0x41u, 0x20u},
 394:.\Generated_Source\PSoC5/cyfitter_cfg.c **** 			{0x42u, 0x80u},
 395:.\Generated_Source\PSoC5/cyfitter_cfg.c **** 			{0x45u, 0x20u},
 396:.\Generated_Source\PSoC5/cyfitter_cfg.c **** 			{0x46u, 0x80u},
ARM GAS  C:\DOCUME~1\ADMINI~1\LOCALS~1\Temp\cc2DMpSh.s 			page 16


 397:.\Generated_Source\PSoC5/cyfitter_cfg.c **** 			{0x4Du, 0x02u},
 398:.\Generated_Source\PSoC5/cyfitter_cfg.c **** 			{0x56u, 0xA0u},
 399:.\Generated_Source\PSoC5/cyfitter_cfg.c **** 			{0x57u, 0x01u},
 400:.\Generated_Source\PSoC5/cyfitter_cfg.c **** 			{0x59u, 0x02u},
 401:.\Generated_Source\PSoC5/cyfitter_cfg.c **** 			{0x5Au, 0x44u},
 402:.\Generated_Source\PSoC5/cyfitter_cfg.c **** 			{0x60u, 0x04u},
 403:.\Generated_Source\PSoC5/cyfitter_cfg.c **** 			{0x77u, 0x80u},
 404:.\Generated_Source\PSoC5/cyfitter_cfg.c **** 			{0x84u, 0x01u},
 405:.\Generated_Source\PSoC5/cyfitter_cfg.c **** 			{0x86u, 0x84u},
 406:.\Generated_Source\PSoC5/cyfitter_cfg.c **** 			{0xC0u, 0x02u},
 407:.\Generated_Source\PSoC5/cyfitter_cfg.c **** 			{0xC2u, 0xA0u},
 408:.\Generated_Source\PSoC5/cyfitter_cfg.c **** 			{0xC4u, 0xA0u},
 409:.\Generated_Source\PSoC5/cyfitter_cfg.c **** 			{0xD0u, 0xA5u},
 410:.\Generated_Source\PSoC5/cyfitter_cfg.c **** 			{0xD6u, 0x0Bu},
 411:.\Generated_Source\PSoC5/cyfitter_cfg.c **** 			{0xD8u, 0x04u},
 412:.\Generated_Source\PSoC5/cyfitter_cfg.c **** 			{0xEEu, 0x0Au},
 413:.\Generated_Source\PSoC5/cyfitter_cfg.c **** 			{0xEEu, 0x0Au},
 414:.\Generated_Source\PSoC5/cyfitter_cfg.c **** 			{0x33u, 0x80u},
 415:.\Generated_Source\PSoC5/cyfitter_cfg.c **** 			{0x36u, 0x40u},
 416:.\Generated_Source\PSoC5/cyfitter_cfg.c **** 			{0xCCu, 0x30u},
 417:.\Generated_Source\PSoC5/cyfitter_cfg.c **** 			{0xA6u, 0x40u},
 418:.\Generated_Source\PSoC5/cyfitter_cfg.c **** 			{0xA7u, 0x80u},
 419:.\Generated_Source\PSoC5/cyfitter_cfg.c **** 			{0xA6u, 0x40u},
 420:.\Generated_Source\PSoC5/cyfitter_cfg.c **** 			{0xA7u, 0x80u},
 421:.\Generated_Source\PSoC5/cyfitter_cfg.c **** 			{0xA6u, 0x40u},
 422:.\Generated_Source\PSoC5/cyfitter_cfg.c **** 			{0xA7u, 0x80u},
 423:.\Generated_Source\PSoC5/cyfitter_cfg.c **** 			{0x08u, 0x08u},
 424:.\Generated_Source\PSoC5/cyfitter_cfg.c **** 			{0x0Fu, 0x40u},
 425:.\Generated_Source\PSoC5/cyfitter_cfg.c **** 			{0xC2u, 0x0Cu},
 426:.\Generated_Source\PSoC5/cyfitter_cfg.c **** 			{0xAEu, 0x40u},
 427:.\Generated_Source\PSoC5/cyfitter_cfg.c **** 			{0xAFu, 0x80u},
 428:.\Generated_Source\PSoC5/cyfitter_cfg.c **** 			{0xEEu, 0x50u},
 429:.\Generated_Source\PSoC5/cyfitter_cfg.c **** 			{0x57u, 0x20u},
 430:.\Generated_Source\PSoC5/cyfitter_cfg.c **** 			{0x87u, 0x20u},
 431:.\Generated_Source\PSoC5/cyfitter_cfg.c **** 			{0xD4u, 0x40u},
 432:.\Generated_Source\PSoC5/cyfitter_cfg.c **** 			{0xE6u, 0x10u},
 433:.\Generated_Source\PSoC5/cyfitter_cfg.c **** 			{0xACu, 0x08u},
 434:.\Generated_Source\PSoC5/cyfitter_cfg.c **** 			{0xAFu, 0x40u},
 435:.\Generated_Source\PSoC5/cyfitter_cfg.c **** 			{0x10u, 0x01u},
 436:.\Generated_Source\PSoC5/cyfitter_cfg.c **** 			{0x1Au, 0x01u},
 437:.\Generated_Source\PSoC5/cyfitter_cfg.c **** 			{0x00u, 0x0Au},
 438:.\Generated_Source\PSoC5/cyfitter_cfg.c **** 		};
 439:.\Generated_Source\PSoC5/cyfitter_cfg.c **** 
 440:.\Generated_Source\PSoC5/cyfitter_cfg.c **** 
 441:.\Generated_Source\PSoC5/cyfitter_cfg.c **** 
 442:.\Generated_Source\PSoC5/cyfitter_cfg.c **** 		typedef struct {
 443:.\Generated_Source\PSoC5/cyfitter_cfg.c **** 			void CYFAR *address;
 444:.\Generated_Source\PSoC5/cyfitter_cfg.c **** 			uint16 size;
 445:.\Generated_Source\PSoC5/cyfitter_cfg.c **** 		} CYPACKED cfg_memset_t;
 446:.\Generated_Source\PSoC5/cyfitter_cfg.c **** 
 447:.\Generated_Source\PSoC5/cyfitter_cfg.c **** 		static const cfg_memset_t CYCODE cfg_memset_list [] = {
 448:.\Generated_Source\PSoC5/cyfitter_cfg.c **** 			/* address, size */
 449:.\Generated_Source\PSoC5/cyfitter_cfg.c **** 			{(void CYFAR *)(CYREG_PRT0_DR), 32u},
 450:.\Generated_Source\PSoC5/cyfitter_cfg.c **** 			{(void CYFAR *)(CYREG_PRT4_DR), 48u},
 451:.\Generated_Source\PSoC5/cyfitter_cfg.c **** 			{(void CYFAR *)(CYREG_PRT12_DR), 16u},
 452:.\Generated_Source\PSoC5/cyfitter_cfg.c **** 			{(void CYFAR *)(CYDEV_UCFG_B0_P0_U0_BASE), 4096u},
 453:.\Generated_Source\PSoC5/cyfitter_cfg.c **** 			{(void CYFAR *)(CYDEV_UCFG_B1_P2_U0_BASE), 2048u},
ARM GAS  C:\DOCUME~1\ADMINI~1\LOCALS~1\Temp\cc2DMpSh.s 			page 17


 454:.\Generated_Source\PSoC5/cyfitter_cfg.c **** 			{(void CYFAR *)(CYDEV_UCFG_DSI0_BASE), 2560u},
 455:.\Generated_Source\PSoC5/cyfitter_cfg.c **** 			{(void CYFAR *)(CYDEV_UCFG_DSI12_BASE), 512u},
 456:.\Generated_Source\PSoC5/cyfitter_cfg.c **** 			{(void CYFAR *)(CYREG_BCTL0_MDCLK_EN), 32u},
 457:.\Generated_Source\PSoC5/cyfitter_cfg.c **** 		};
 458:.\Generated_Source\PSoC5/cyfitter_cfg.c **** 
 459:.\Generated_Source\PSoC5/cyfitter_cfg.c **** 		uint8 CYDATA i;
 460:.\Generated_Source\PSoC5/cyfitter_cfg.c **** 
 461:.\Generated_Source\PSoC5/cyfitter_cfg.c **** 		/* Zero out critical memory blocks before beginning configuration */
 462:.\Generated_Source\PSoC5/cyfitter_cfg.c **** 		for (i = 0u; i < (sizeof(cfg_memset_list)/sizeof(cfg_memset_list[0])); i++)
 456              		.loc 1 462 0
 457 0008 4FF00003 		mov	r3, #0
 458 000c FB70     		strb	r3, [r7, #3]
 459 000e 2FE0     		b	.L22
 460              	.L23:
 461              	.LBB4:
 463:.\Generated_Source\PSoC5/cyfitter_cfg.c **** 		{
 464:.\Generated_Source\PSoC5/cyfitter_cfg.c **** 			const cfg_memset_t CYCODE * CYDATA ms = &cfg_memset_list[i];
 462              		.loc 1 464 0
 463 0010 FA78     		ldrb	r2, [r7, #3]	@ zero_extendqisi2
 464 0012 1346     		mov	r3, r2
 465 0014 4FEA4303 		lsl	r3, r3, #1
 466 0018 1344     		add	r3, r3, r2
 467 001a 4FEA4303 		lsl	r3, r3, #1
 468 001e 1A46     		mov	r2, r3
 469 0020 40F20003 		movw	r3, #:lower16:cfg_memset_list.2071
 470 0024 C0F20003 		movt	r3, #:upper16:cfg_memset_list.2071
 471 0028 1344     		add	r3, r2, r3
 472 002a 7B60     		str	r3, [r7, #4]
 465:.\Generated_Source\PSoC5/cyfitter_cfg.c **** 			CYMEMZERO(ms->address, (uint32)(ms->size));
 473              		.loc 1 465 0
 474 002c 7B68     		ldr	r3, [r7, #4]
 475 002e 1A78     		ldrb	r2, [r3, #0]	@ zero_extendqisi2
 476 0030 5978     		ldrb	r1, [r3, #1]	@ zero_extendqisi2
 477 0032 4FEA0121 		lsl	r1, r1, #8
 478 0036 41EA0202 		orr	r2, r1, r2
 479 003a 9978     		ldrb	r1, [r3, #2]	@ zero_extendqisi2
 480 003c 4FEA0141 		lsl	r1, r1, #16
 481 0040 41EA0202 		orr	r2, r1, r2
 482 0044 DB78     		ldrb	r3, [r3, #3]	@ zero_extendqisi2
 483 0046 4FEA0363 		lsl	r3, r3, #24
 484 004a 43EA0203 		orr	r3, r3, r2
 485 004e 1A46     		mov	r2, r3
 486 0050 7B68     		ldr	r3, [r7, #4]
 487 0052 1979     		ldrb	r1, [r3, #4]	@ zero_extendqisi2
 488 0054 5B79     		ldrb	r3, [r3, #5]	@ zero_extendqisi2
 489 0056 4FEA0323 		lsl	r3, r3, #8
 490 005a 43EA0103 		orr	r3, r3, r1
 491 005e 9BB2     		uxth	r3, r3
 492 0060 1046     		mov	r0, r2
 493 0062 1946     		mov	r1, r3
 494 0064 FFF7FEFF 		bl	CYMEMZERO
 495              	.LBE4:
 496              		.loc 1 462 0
 497 0068 FB78     		ldrb	r3, [r7, #3]
 498 006a 03F10103 		add	r3, r3, #1
 499 006e FB70     		strb	r3, [r7, #3]
 500              	.L22:
ARM GAS  C:\DOCUME~1\ADMINI~1\LOCALS~1\Temp\cc2DMpSh.s 			page 18


 501 0070 FB78     		ldrb	r3, [r7, #3]	@ zero_extendqisi2
 502 0072 072B     		cmp	r3, #7
 503 0074 CCD9     		bls	.L23
 466:.\Generated_Source\PSoC5/cyfitter_cfg.c **** 		}
 467:.\Generated_Source\PSoC5/cyfitter_cfg.c **** 
 468:.\Generated_Source\PSoC5/cyfitter_cfg.c **** 		cfg_write_bytes32(cy_cfg_addr_table, cy_cfg_data_table);
 504              		.loc 1 468 0
 505 0076 40F20000 		movw	r0, #:lower16:cy_cfg_addr_table.2065
 506 007a C0F20000 		movt	r0, #:upper16:cy_cfg_addr_table.2065
 507 007e 40F20001 		movw	r1, #:lower16:cy_cfg_data_table.2066
 508 0082 C0F20001 		movt	r1, #:upper16:cy_cfg_data_table.2066
 509 0086 FFF7FEFF 		bl	cfg_write_bytes32
 469:.\Generated_Source\PSoC5/cyfitter_cfg.c **** 
 470:.\Generated_Source\PSoC5/cyfitter_cfg.c **** 		/* Enable digital routing */
 471:.\Generated_Source\PSoC5/cyfitter_cfg.c **** 		CY_SET_XTND_REG8((void CYFAR *)CYREG_BCTL0_BANK_CTL, CY_GET_XTND_REG8((void CYFAR *)CYREG_BCTL0_B
 510              		.loc 1 471 0
 511 008a 45F20303 		movw	r3, #:lower16:1073827843
 512 008e C4F20103 		movt	r3, #:upper16:1073827843
 513 0092 45F20302 		movw	r2, #:lower16:1073827843
 514 0096 C4F20102 		movt	r2, #:upper16:1073827843
 515 009a 1278     		ldrb	r2, [r2, #0]
 516 009c D2B2     		uxtb	r2, r2
 517 009e 42F00202 		orr	r2, r2, #2
 518 00a2 D2B2     		uxtb	r2, r2
 519 00a4 1A70     		strb	r2, [r3, #0]
 472:.\Generated_Source\PSoC5/cyfitter_cfg.c **** 		CY_SET_XTND_REG8((void CYFAR *)CYREG_BCTL1_BANK_CTL, CY_GET_XTND_REG8((void CYFAR *)CYREG_BCTL1_B
 520              		.loc 1 472 0
 521 00a6 45F21303 		movw	r3, #:lower16:1073827859
 522 00aa C4F20103 		movt	r3, #:upper16:1073827859
 523 00ae 45F21302 		movw	r2, #:lower16:1073827859
 524 00b2 C4F20102 		movt	r2, #:upper16:1073827859
 525 00b6 1278     		ldrb	r2, [r2, #0]
 526 00b8 D2B2     		uxtb	r2, r2
 527 00ba 42F00202 		orr	r2, r2, #2
 528 00be D2B2     		uxtb	r2, r2
 529 00c0 1A70     		strb	r2, [r3, #0]
 473:.\Generated_Source\PSoC5/cyfitter_cfg.c **** 
 474:.\Generated_Source\PSoC5/cyfitter_cfg.c **** 		/* Enable UDB array */
 475:.\Generated_Source\PSoC5/cyfitter_cfg.c **** 		CY_SET_XTND_REG8((void CYFAR *)CYREG_PM_ACT_CFG0, CY_GET_XTND_REG8((void CYFAR *)CYREG_PM_ACT_CFG
 530              		.loc 1 475 0
 531 00c2 44F2A033 		movw	r3, #:lower16:1073759136
 532 00c6 C4F20003 		movt	r3, #:upper16:1073759136
 533 00ca 44F2A032 		movw	r2, #:lower16:1073759136
 534 00ce C4F20002 		movt	r2, #:upper16:1073759136
 535 00d2 1278     		ldrb	r2, [r2, #0]
 536 00d4 D2B2     		uxtb	r2, r2
 537 00d6 42F04002 		orr	r2, r2, #64
 538 00da D2B2     		uxtb	r2, r2
 539 00dc 1A70     		strb	r2, [r3, #0]
 476:.\Generated_Source\PSoC5/cyfitter_cfg.c **** 		CY_SET_XTND_REG8((void CYFAR *)CYREG_PM_AVAIL_CR2, CY_GET_XTND_REG8((void CYFAR *)CYREG_PM_AVAIL_
 540              		.loc 1 476 0
 541 00de 44F2C233 		movw	r3, #:lower16:1073759170
 542 00e2 C4F20003 		movt	r3, #:upper16:1073759170
 543 00e6 44F2C232 		movw	r2, #:lower16:1073759170
 544 00ea C4F20002 		movt	r2, #:upper16:1073759170
 545 00ee 1278     		ldrb	r2, [r2, #0]
 546 00f0 D2B2     		uxtb	r2, r2
ARM GAS  C:\DOCUME~1\ADMINI~1\LOCALS~1\Temp\cc2DMpSh.s 			page 19


 547 00f2 42F01002 		orr	r2, r2, #16
 548 00f6 D2B2     		uxtb	r2, r2
 549 00f8 1A70     		strb	r2, [r3, #0]
 550              	.LBE3:
 477:.\Generated_Source\PSoC5/cyfitter_cfg.c **** 	}
 478:.\Generated_Source\PSoC5/cyfitter_cfg.c **** 
 479:.\Generated_Source\PSoC5/cyfitter_cfg.c **** 	/* Perform second pass device configuration. These items must be configured in specific order afte
 480:.\Generated_Source\PSoC5/cyfitter_cfg.c **** 	CYCONFIGCPYCODE((void CYFAR *)(CYREG_PRT15_DR), (const void CYCODE *)(BS_IOPINS0_8_VAL), 10u);
 551              		.loc 1 480 0
 552 00fa 45F2F010 		movw	r0, #:lower16:1073762800
 553 00fe C4F20000 		movt	r0, #:upper16:1073762800
 554 0102 40F20001 		movw	r1, #:lower16:BS_IOPINS0_8_VAL.2062
 555 0106 C0F20001 		movt	r1, #:upper16:BS_IOPINS0_8_VAL.2062
 556 010a 4FF00A02 		mov	r2, #10
 557 010e FFF7FEFF 		bl	CYCONFIGCPYCODE
 481:.\Generated_Source\PSoC5/cyfitter_cfg.c **** 	CYCONFIGCPYCODE((void CYFAR *)(CYREG_PRT2_DR), (const void CYCODE *)(BS_IOPINS0_2_VAL), 10u);
 558              		.loc 1 481 0
 559 0112 45F22010 		movw	r0, #:lower16:1073762592
 560 0116 C4F20000 		movt	r0, #:upper16:1073762592
 561 011a 40F20001 		movw	r1, #:lower16:BS_IOPINS0_2_VAL.2063
 562 011e C0F20001 		movt	r1, #:upper16:BS_IOPINS0_2_VAL.2063
 563 0122 4FF00A02 		mov	r2, #10
 564 0126 FFF7FEFF 		bl	CYCONFIGCPYCODE
 482:.\Generated_Source\PSoC5/cyfitter_cfg.c **** 	CYCONFIGCPYCODE((void CYFAR *)(CYREG_PRT3_DM0), (const void CYCODE *)(BS_IOPINS0_3_VAL), 8u);
 565              		.loc 1 482 0
 566 012a 45F23210 		movw	r0, #:lower16:1073762610
 567 012e C4F20000 		movt	r0, #:upper16:1073762610
 568 0132 40F20001 		movw	r1, #:lower16:BS_IOPINS0_3_VAL.2064
 569 0136 C0F20001 		movt	r1, #:upper16:BS_IOPINS0_3_VAL.2064
 570 013a 4FF00802 		mov	r2, #8
 571 013e FFF7FEFF 		bl	CYCONFIGCPYCODE
 483:.\Generated_Source\PSoC5/cyfitter_cfg.c **** 
 484:.\Generated_Source\PSoC5/cyfitter_cfg.c **** 	/* Switch Boost to the precision bandgap reference from its internal reference */
 485:.\Generated_Source\PSoC5/cyfitter_cfg.c **** 	CY_SET_REG8((void CYXDATA *)CYDEV_BOOST_CR2, (CY_GET_REG8((void CYXDATA *)CYDEV_BOOST_CR2) | 0x08u
 572              		.loc 1 485 0
 573 0142 44F22233 		movw	r3, #:lower16:1073759010
 574 0146 C4F20003 		movt	r3, #:upper16:1073759010
 575 014a 44F22232 		movw	r2, #:lower16:1073759010
 576 014e C4F20002 		movt	r2, #:upper16:1073759010
 577 0152 1278     		ldrb	r2, [r2, #0]
 578 0154 D2B2     		uxtb	r2, r2
 579 0156 42F00802 		orr	r2, r2, #8
 580 015a D2B2     		uxtb	r2, r2
 581 015c 1A70     		strb	r2, [r3, #0]
 486:.\Generated_Source\PSoC5/cyfitter_cfg.c **** 
 487:.\Generated_Source\PSoC5/cyfitter_cfg.c **** 	/* Set Flash Cycles based on max possible frequency in case a glitch occurs during ClockSetup(). *
 488:.\Generated_Source\PSoC5/cyfitter_cfg.c **** 	CY_SET_XTND_REG8((void CYFAR *)(CYREG_CACHE_CC_CTL), (((CYDEV_INSTRUCT_CACHE_ENABLED) != 0) ? 0x01
 582              		.loc 1 488 0
 583 015e 44F60003 		movw	r3, #:lower16:1073760256
 584 0162 C4F20003 		movt	r3, #:upper16:1073760256
 585 0166 4FF00102 		mov	r2, #1
 586 016a 1A70     		strb	r2, [r3, #0]
 489:.\Generated_Source\PSoC5/cyfitter_cfg.c **** 	/* Setup clocks based on selections from Clock DWR */
 490:.\Generated_Source\PSoC5/cyfitter_cfg.c **** 	ClockSetup();
 587              		.loc 1 490 0
 588 016c FFF7FEFF 		bl	ClockSetup
 491:.\Generated_Source\PSoC5/cyfitter_cfg.c **** 	/* Set Flash Cycles based on newly configured 24.00MHz Bus Clock. */
ARM GAS  C:\DOCUME~1\ADMINI~1\LOCALS~1\Temp\cc2DMpSh.s 			page 20


 492:.\Generated_Source\PSoC5/cyfitter_cfg.c **** 	CY_SET_XTND_REG8((void CYFAR *)(CYREG_CACHE_CC_CTL), (((CYDEV_INSTRUCT_CACHE_ENABLED) != 0) ? 0x81
 589              		.loc 1 492 0
 590 0170 44F60003 		movw	r3, #:lower16:1073760256
 591 0174 C4F20003 		movt	r3, #:upper16:1073760256
 592 0178 6FF07E02 		mvn	r2, #126
 593 017c 1A70     		strb	r2, [r3, #0]
 493:.\Generated_Source\PSoC5/cyfitter_cfg.c **** 
 494:.\Generated_Source\PSoC5/cyfitter_cfg.c **** 	/* Perform basic analog initialization to defaults */
 495:.\Generated_Source\PSoC5/cyfitter_cfg.c **** 	AnalogSetDefault();
 594              		.loc 1 495 0
 595 017e FFF7FEFF 		bl	AnalogSetDefault
 496:.\Generated_Source\PSoC5/cyfitter_cfg.c **** 
 497:.\Generated_Source\PSoC5/cyfitter_cfg.c **** 	/* Configure alternate active mode */
 498:.\Generated_Source\PSoC5/cyfitter_cfg.c **** 	CYCONFIGCPY((void CYFAR *)CYDEV_PM_STBY_BASE, (const void CYFAR *)CYDEV_PM_ACT_BASE, 14u);
 596              		.loc 1 498 0
 597 0182 44F2B030 		movw	r0, #:lower16:1073759152
 598 0186 C4F20000 		movt	r0, #:upper16:1073759152
 599 018a 44F2A031 		movw	r1, #:lower16:1073759136
 600 018e C4F20001 		movt	r1, #:upper16:1073759136
 601 0192 4FF00E02 		mov	r2, #14
 602 0196 FFF7FEFF 		bl	CYCONFIGCPY
 499:.\Generated_Source\PSoC5/cyfitter_cfg.c **** }
 603              		.loc 1 499 0
 604 019a 07F10807 		add	r7, r7, #8
 605 019e BD46     		mov	sp, r7
 606 01a0 80BD     		pop	{r7, pc}
 607              		.cfi_endproc
 608              	.LFE7:
 609              		.size	cyfitter_cfg, .-cyfitter_cfg
 610 01a2 00BF     		.section	.rodata
 611              		.align	2
 612              		.type	cfg_memset_list.2071, %object
 613              		.size	cfg_memset_list.2071, 48
 614              	cfg_memset_list.2071:
 615 0000 00510040 		.word	1073762560
 616 0004 2000     		.short	32
 617 0006 40510040 		.4byte	1073762624
 618 000a 3000     		.short	48
 619 000c C0510040 		.word	1073762752
 620 0010 1000     		.short	16
 621 0012 00000140 		.4byte	1073807360
 622 0016 0010     		.short	4096
 623 0018 00140140 		.word	1073812480
 624 001c 0008     		.short	2048
 625 001e 00400140 		.4byte	1073823744
 626 0022 000A     		.short	2560
 627 0024 004C0140 		.word	1073826816
 628 0028 0002     		.short	512
 629 002a 00500140 		.4byte	1073827840
 630 002e 2000     		.short	32
 631              		.align	2
 632              		.type	cy_cfg_addr_table.2065, %object
 633              		.size	cy_cfg_addr_table.2065, 68
 634              	cy_cfg_addr_table.2065:
 635 0030 01450040 		.word	1073759489
 636 0034 03520040 		.word	1073762819
 637 0038 01650040 		.word	1073767681
ARM GAS  C:\DOCUME~1\ADMINI~1\LOCALS~1\Temp\cc2DMpSh.s 			page 21


 638 003c 3D140140 		.word	1073812541
 639 0040 1C150140 		.word	1073812764
 640 0044 01170140 		.word	1073813249
 641 0048 01190140 		.word	1073813761
 642 004c 03400140 		.word	1073823747
 643 0050 02410140 		.word	1073824002
 644 0054 02420140 		.word	1073824258
 645 0058 02430140 		.word	1073824514
 646 005c 03470140 		.word	1073825539
 647 0060 03480140 		.word	1073825795
 648 0064 04490140 		.word	1073826052
 649 0068 024C0140 		.word	1073826818
 650 006c 02500140 		.word	1073827842
 651 0070 01510140 		.word	1073828097
 652              		.align	2
 653              		.type	cy_cfg_data_table.2066, %object
 654              		.size	cy_cfg_data_table.2066, 240
 655              	cy_cfg_data_table.2066:
 656 0074 7E       		.byte	126
 657 0075 02       		.byte	2
 658 0076 14       		.byte	20
 659 0077 10       		.byte	16
 660 0078 18       		.byte	24
 661 0079 02       		.byte	2
 662 007a 7C       		.byte	124
 663 007b 40       		.byte	64
 664 007c 84       		.byte	-124
 665 007d 2D       		.byte	45
 666 007e 08       		.byte	8
 667 007f 01       		.byte	1
 668 0080 34       		.byte	52
 669 0081 01       		.byte	1
 670 0082 38       		.byte	56
 671 0083 08       		.byte	8
 672 0084 3E       		.byte	62
 673 0085 10       		.byte	16
 674 0086 40       		.byte	64
 675 0087 20       		.byte	32
 676 0088 41       		.byte	65
 677 0089 04       		.byte	4
 678 008a 49       		.byte	73
 679 008b FF       		.byte	-1
 680 008c 4A       		.byte	74
 681 008d FF       		.byte	-1
 682 008e 4B       		.byte	75
 683 008f FF       		.byte	-1
 684 0090 4D       		.byte	77
 685 0091 A0       		.byte	-96
 686 0092 4F       		.byte	79
 687 0093 04       		.byte	4
 688 0094 50       		.byte	80
 689 0095 18       		.byte	24
 690 0096 54       		.byte	84
 691 0097 25       		.byte	37
 692 0098 58       		.byte	88
 693 0099 04       		.byte	4
 694 009a 5A       		.byte	90
ARM GAS  C:\DOCUME~1\ADMINI~1\LOCALS~1\Temp\cc2DMpSh.s 			page 22


 695 009b 04       		.byte	4
 696 009c 5B       		.byte	91
 697 009d 04       		.byte	4
 698 009e 5F       		.byte	95
 699 009f 01       		.byte	1
 700 00a0 60       		.byte	96
 701 00a1 40       		.byte	64
 702 00a2 62       		.byte	98
 703 00a3 C0       		.byte	-64
 704 00a4 64       		.byte	100
 705 00a5 40       		.byte	64
 706 00a6 65       		.byte	101
 707 00a7 40       		.byte	64
 708 00a8 66       		.byte	102
 709 00a9 C0       		.byte	-64
 710 00aa 68       		.byte	104
 711 00ab C0       		.byte	-64
 712 00ac 6A       		.byte	106
 713 00ad C0       		.byte	-64
 714 00ae 6C       		.byte	108
 715 00af C0       		.byte	-64
 716 00b0 6E       		.byte	110
 717 00b1 C0       		.byte	-64
 718 00b2 94       		.byte	-108
 719 00b3 08       		.byte	8
 720 00b4 9C       		.byte	-100
 721 00b5 0E       		.byte	14
 722 00b6 A4       		.byte	-92
 723 00b7 0E       		.byte	14
 724 00b8 AE       		.byte	-82
 725 00b9 03       		.byte	3
 726 00ba B0       		.byte	-80
 727 00bb 08       		.byte	8
 728 00bc B2       		.byte	-78
 729 00bd 04       		.byte	4
 730 00be B4       		.byte	-76
 731 00bf 01       		.byte	1
 732 00c0 B6       		.byte	-74
 733 00c1 02       		.byte	2
 734 00c2 C0       		.byte	-64
 735 00c3 20       		.byte	32
 736 00c4 C1       		.byte	-63
 737 00c5 04       		.byte	4
 738 00c6 C5       		.byte	-59
 739 00c7 D0       		.byte	-48
 740 00c8 C6       		.byte	-58
 741 00c9 02       		.byte	2
 742 00ca C7       		.byte	-57
 743 00cb 10       		.byte	16
 744 00cc C8       		.byte	-56
 745 00cd 2E       		.byte	46
 746 00ce C9       		.byte	-55
 747 00cf FF       		.byte	-1
 748 00d0 CA       		.byte	-54
 749 00d1 FF       		.byte	-1
 750 00d2 CB       		.byte	-53
 751 00d3 FF       		.byte	-1
ARM GAS  C:\DOCUME~1\ADMINI~1\LOCALS~1\Temp\cc2DMpSh.s 			page 23


 752 00d4 CD       		.byte	-51
 753 00d5 AF       		.byte	-81
 754 00d6 CE       		.byte	-50
 755 00d7 0F       		.byte	15
 756 00d8 CF       		.byte	-49
 757 00d9 04       		.byte	4
 758 00da D0       		.byte	-48
 759 00db 18       		.byte	24
 760 00dc D2       		.byte	-46
 761 00dd 80       		.byte	-128
 762 00de D8       		.byte	-40
 763 00df 04       		.byte	4
 764 00e0 DA       		.byte	-38
 765 00e1 04       		.byte	4
 766 00e2 DB       		.byte	-37
 767 00e3 04       		.byte	4
 768 00e4 DF       		.byte	-33
 769 00e5 01       		.byte	1
 770 00e6 E0       		.byte	-32
 771 00e7 40       		.byte	64
 772 00e8 E2       		.byte	-30
 773 00e9 C0       		.byte	-64
 774 00ea E4       		.byte	-28
 775 00eb 40       		.byte	64
 776 00ec E5       		.byte	-27
 777 00ed 40       		.byte	64
 778 00ee E6       		.byte	-26
 779 00ef C0       		.byte	-64
 780 00f0 E8       		.byte	-24
 781 00f1 C0       		.byte	-64
 782 00f2 EA       		.byte	-22
 783 00f3 C0       		.byte	-64
 784 00f4 EC       		.byte	-20
 785 00f5 C0       		.byte	-64
 786 00f6 EE       		.byte	-18
 787 00f7 C0       		.byte	-64
 788 00f8 00       		.byte	0
 789 00f9 10       		.byte	16
 790 00fa 0E       		.byte	14
 791 00fb 20       		.byte	32
 792 00fc 0F       		.byte	15
 793 00fd 02       		.byte	2
 794 00fe 16       		.byte	22
 795 00ff 20       		.byte	32
 796 0100 17       		.byte	23
 797 0101 80       		.byte	-128
 798 0102 18       		.byte	24
 799 0103 14       		.byte	20
 800 0104 1C       		.byte	28
 801 0105 02       		.byte	2
 802 0106 1D       		.byte	29
 803 0107 20       		.byte	32
 804 0108 1E       		.byte	30
 805 0109 60       		.byte	96
 806 010a 41       		.byte	65
 807 010b 20       		.byte	32
 808 010c 42       		.byte	66
ARM GAS  C:\DOCUME~1\ADMINI~1\LOCALS~1\Temp\cc2DMpSh.s 			page 24


 809 010d 80       		.byte	-128
 810 010e 45       		.byte	69
 811 010f 20       		.byte	32
 812 0110 46       		.byte	70
 813 0111 80       		.byte	-128
 814 0112 4D       		.byte	77
 815 0113 02       		.byte	2
 816 0114 56       		.byte	86
 817 0115 A0       		.byte	-96
 818 0116 57       		.byte	87
 819 0117 01       		.byte	1
 820 0118 59       		.byte	89
 821 0119 02       		.byte	2
 822 011a 5A       		.byte	90
 823 011b 44       		.byte	68
 824 011c 60       		.byte	96
 825 011d 04       		.byte	4
 826 011e 77       		.byte	119
 827 011f 80       		.byte	-128
 828 0120 84       		.byte	-124
 829 0121 01       		.byte	1
 830 0122 86       		.byte	-122
 831 0123 84       		.byte	-124
 832 0124 C0       		.byte	-64
 833 0125 02       		.byte	2
 834 0126 C2       		.byte	-62
 835 0127 A0       		.byte	-96
 836 0128 C4       		.byte	-60
 837 0129 A0       		.byte	-96
 838 012a D0       		.byte	-48
 839 012b A5       		.byte	-91
 840 012c D6       		.byte	-42
 841 012d 0B       		.byte	11
 842 012e D8       		.byte	-40
 843 012f 04       		.byte	4
 844 0130 EE       		.byte	-18
 845 0131 0A       		.byte	10
 846 0132 EE       		.byte	-18
 847 0133 0A       		.byte	10
 848 0134 33       		.byte	51
 849 0135 80       		.byte	-128
 850 0136 36       		.byte	54
 851 0137 40       		.byte	64
 852 0138 CC       		.byte	-52
 853 0139 30       		.byte	48
 854 013a A6       		.byte	-90
 855 013b 40       		.byte	64
 856 013c A7       		.byte	-89
 857 013d 80       		.byte	-128
 858 013e A6       		.byte	-90
 859 013f 40       		.byte	64
 860 0140 A7       		.byte	-89
 861 0141 80       		.byte	-128
 862 0142 A6       		.byte	-90
 863 0143 40       		.byte	64
 864 0144 A7       		.byte	-89
 865 0145 80       		.byte	-128
ARM GAS  C:\DOCUME~1\ADMINI~1\LOCALS~1\Temp\cc2DMpSh.s 			page 25


 866 0146 08       		.byte	8
 867 0147 08       		.byte	8
 868 0148 0F       		.byte	15
 869 0149 40       		.byte	64
 870 014a C2       		.byte	-62
 871 014b 0C       		.byte	12
 872 014c AE       		.byte	-82
 873 014d 40       		.byte	64
 874 014e AF       		.byte	-81
 875 014f 80       		.byte	-128
 876 0150 EE       		.byte	-18
 877 0151 50       		.byte	80
 878 0152 57       		.byte	87
 879 0153 20       		.byte	32
 880 0154 87       		.byte	-121
 881 0155 20       		.byte	32
 882 0156 D4       		.byte	-44
 883 0157 40       		.byte	64
 884 0158 E6       		.byte	-26
 885 0159 10       		.byte	16
 886 015a AC       		.byte	-84
 887 015b 08       		.byte	8
 888 015c AF       		.byte	-81
 889 015d 40       		.byte	64
 890 015e 10       		.byte	16
 891 015f 01       		.byte	1
 892 0160 1A       		.byte	26
 893 0161 01       		.byte	1
 894 0162 00       		.byte	0
 895 0163 0A       		.byte	10
 896              		.align	2
 897              		.type	BS_IOPINS0_8_VAL.2062, %object
 898              		.size	BS_IOPINS0_8_VAL.2062, 10
 899              	BS_IOPINS0_8_VAL.2062:
 900 0164 00       		.byte	0
 901 0165 00       		.byte	0
 902 0166 00       		.byte	0
 903 0167 00       		.byte	0
 904 0168 00       		.byte	0
 905 0169 00       		.byte	0
 906 016a 00       		.byte	0
 907 016b 00       		.byte	0
 908 016c C0       		.byte	-64
 909 016d 00       		.byte	0
 910 016e 0000     		.align	2
 911              		.type	BS_IOPINS0_2_VAL.2063, %object
 912              		.size	BS_IOPINS0_2_VAL.2063, 10
 913              	BS_IOPINS0_2_VAL.2063:
 914 0170 10       		.byte	16
 915 0171 00       		.byte	0
 916 0172 10       		.byte	16
 917 0173 00       		.byte	0
 918 0174 00       		.byte	0
 919 0175 00       		.byte	0
 920 0176 00       		.byte	0
 921 0177 00       		.byte	0
 922 0178 00       		.byte	0
ARM GAS  C:\DOCUME~1\ADMINI~1\LOCALS~1\Temp\cc2DMpSh.s 			page 26


 923 0179 00       		.byte	0
 924 017a 0000     		.align	2
 925              		.type	BS_IOPINS0_3_VAL.2064, %object
 926              		.size	BS_IOPINS0_3_VAL.2064, 8
 927              	BS_IOPINS0_3_VAL.2064:
 928 017c 00       		.byte	0
 929 017d 02       		.byte	2
 930 017e 02       		.byte	2
 931 017f 00       		.byte	0
 932 0180 02       		.byte	2
 933 0181 00       		.byte	0
 934 0182 00       		.byte	0
 935 0183 00       		.byte	0
 936              		.text
 937              	.Letext0: