ARM GAS  C:\DOCUME~1\ADMINI~1\LOCALS~1\Temp\ccaQOVXj.s 			page 1


   1              		.syntax unified
   2              		.cpu cortex-m3
   3              		.fpu softvfp
   4              		.eabi_attribute 20, 1
   5              		.eabi_attribute 21, 1
   6              		.eabi_attribute 23, 3
   7              		.eabi_attribute 24, 1
   8              		.eabi_attribute 25, 1
   9              		.eabi_attribute 26, 1
  10              		.eabi_attribute 30, 6
  11              		.eabi_attribute 18, 4
  12              		.thumb
  13              		.file	"main.c"
  20 0000 98000000 		.text
  20      02005300 
  20      00000201 
  20      FB0E0D00 
  20      01010101 
  21              	.Ltext0:
  22              		.cfi_sections	.debug_frame
  23              		.section	.text.main,"ax",%progbits
  24              		.align	2
  25              		.global	main
  26              		.thumb
  27              		.thumb_func
  28              		.type	main, %function
  29              	main:
  30              	.LFB29:
  31              		.file 1 ".\\main.c"
   1:.\main.c      **** /*****************************************************************************
   2:.\main.c      **** * File Name: main.c
   3:.\main.c      **** * Version 2.02
   4:.\main.c      **** *
   5:.\main.c      **** * Description:
   6:.\main.c      **** *  This file provides the source code to handle bootloader for PSoC 5LP.
   7:.\main.c      **** *
   8:.\main.c      **** * Owner:
   9:.\main.c      **** *	Anu MD, Applications Engineer Senior (anmd@cypress.com)
  10:.\main.c      **** *
  11:.\main.c      **** * Related Document:
  12:.\main.c      **** * 	001-85925 - CY8CKIT-042 PSoC 4 Pioneer Kit IROS
  13:.\main.c      **** *
  14:.\main.c      **** * Hardware Dependency:
  15:.\main.c      **** * 	CY8CKIT-042 (KitProg) 
  16:.\main.c      **** *
  17:.\main.c      **** * Code Tested With:
  18:.\main.c      **** * 	Creator 2.2
  19:.\main.c      **** *	GCC1 4.4.1
  20:.\main.c      **** *	CY8CKIT-042 Rev 1
  21:.\main.c      **** *
  22:.\main.c      **** ******************************************************************************
ARM GAS  C:\DOCUME~1\ADMINI~1\LOCALS~1\Temp\ccaQOVXj.s 			page 2


  23:.\main.c      **** * Copyright (2013), Cypress Semiconductor Corporation.
  24:.\main.c      **** ******************************************************************************
  25:.\main.c      **** * This software is owned by Cypress Semiconductor Corporation (Cypress) and is
  26:.\main.c      **** * protected by and subject to worldwide patent protection (United States and
  27:.\main.c      **** * foreign), United States copyright laws and international treaty provisions.
  28:.\main.c      **** * Cypress hereby grants to licensee a personal, non-exclusive, non-transferable
  29:.\main.c      **** * license to copy, use, modify, create derivative works of, and compile the
  30:.\main.c      **** * Cypress Source Code and derivative works for the sole purpose of creating
  31:.\main.c      **** * custom software in support of licensee product to be used only in conjunction
  32:.\main.c      **** * with a Cypress integrated circuit as specified in the applicable agreement.
  33:.\main.c      **** * Any reproduction, modification, translation, compilation, or representation of
  34:.\main.c      **** * this software except as specified above is prohibited without the express
  35:.\main.c      **** * written permission of Cypress.
  36:.\main.c      **** *
  37:.\main.c      **** * Disclaimer: CYPRESS MAKES NO WARRANTY OF ANY KIND, EXPRESS OR IMPLIED, WITH
  38:.\main.c      **** * REGARD TO THIS MATERIAL, INCLUDING, BUT NOT LIMITED TO, THE IMPLIED
  39:.\main.c      **** * WARRANTIES OF MERCHANTABILITY AND FITNESS FOR A PARTICULAR PURPOSE.
  40:.\main.c      **** * Cypress reserves the right to make changes without further notice to the
  41:.\main.c      **** * materials described herein. Cypress does not assume any liability arising out
  42:.\main.c      **** * of the application or use of any product or circuit described herein. Cypress
  43:.\main.c      **** * does not authorize its products for use as critical components in life-support
  44:.\main.c      **** * systems where a malfunction or failure may reasonably be expected to result in
  45:.\main.c      **** * significant injury to the user. The inclusion of Cypress' product in a life-
  46:.\main.c      **** * support systems application implies that the manufacturer assumes all risk of
  47:.\main.c      **** * such use and in doing so indemnifies Cypress against all charges. Use may be
  48:.\main.c      **** * limited by and subject to the applicable Cypress software license agreement.
  49:.\main.c      **** *****************************************************************************/
  50:.\main.c      **** #include <device.h>
  51:.\main.c      **** #include "Bootloader.h"
  52:.\main.c      **** 
  53:.\main.c      **** /* Defines for Bootloader checksum validation */
  54:.\main.c      **** #define Bootloader_BL_LAST_ROW            (*Bootloader_MD_PTR_LAST_BLDR_ROW    )
  55:.\main.c      **** #define Bootloader_FLASH_NUMBER_SECTORS   (CY_FLASH_NUMBER_ARRAYS)
  56:.\main.c      **** #define Bootloader_CHECKSUM_START         0    /* The bootloader always starts at 0 in flash */
  57:.\main.c      **** #define Bootloader_FROW_SIZE          ((CYDEV_FLS_ROW_SIZE) + (CYDEV_ECC_ROW_SIZE))
  58:.\main.c      **** 
  59:.\main.c      **** /* Function Delaration */
  60:.\main.c      **** void ValidateBootloader(void);
  61:.\main.c      **** uint8   Bootloader_Calc8BitFlashSum(uint32 start, uint32 size) CYSMALL ;
  62:.\main.c      **** 
  63:.\main.c      **** void main()
  64:.\main.c      **** {
  32              		.loc 1 64 0
  33              		.cfi_startproc
  34              		@ args = 0, pretend = 0, frame = 8
  35              		@ frame_needed = 1, uses_anonymous_args = 0
  36 0000 80B5     		push	{r7, lr}
  37              	.LCFI0:
  38              		.cfi_def_cfa_offset 8
  39 0002 82B0     		sub	sp, sp, #8
  40              	.LCFI1:
  41              		.cfi_def_cfa_offset 16
  42 0004 00AF     		add	r7, sp, #0
  43              		.cfi_offset 14, -4
  44              		.cfi_offset 7, -8
  45              	.LCFI2:
  46              		.cfi_def_cfa_register 7
ARM GAS  C:\DOCUME~1\ADMINI~1\LOCALS~1\Temp\ccaQOVXj.s 			page 3


  65:.\main.c      **** 	uint16 counter = 0;
  47              		.loc 1 65 0
  48 0006 4FF00003 		mov	r3, #0
  49 000a FB80     		strh	r3, [r7, #6]	@ movhi
  66:.\main.c      **** 
  67:.\main.c      **** 	/* Check the validity of bootloader by verifying the Bootloader checksum */
  68:.\main.c      **** 	ValidateBootloader();
  50              		.loc 1 68 0
  51 000c FFF7FEFF 		bl	ValidateBootloader
  69:.\main.c      **** 	
  70:.\main.c      **** 	/* Initialize PWM component for LED status control*/
  71:.\main.c      ****     PWM_Init();
  52              		.loc 1 71 0
  53 0010 FFF7FEFF 		bl	PWM_Init
  72:.\main.c      **** 
  73:.\main.c      **** 	/* If the there is a valid application, check if PSoC 4 reset switch is pressed for more than 100m
  74:.\main.c      **** 	 * If yes, blink the LED slowly(ON Time = 1.5s, OFF Time = 1.5s) to indicate that the device is in
  75:.\main.c      **** 	if(Bootloader_ValidateApplication() == CYRET_SUCCESS)
  54              		.loc 1 75 0
  55 0014 FFF7FEFF 		bl	Bootloader_ValidateApplication
  56 0018 0346     		mov	r3, r0
  57 001a 002B     		cmp	r3, #0
  58 001c 2DD1     		bne	.L2
  76:.\main.c      **** 	{
  77:.\main.c      **** 		/* If PSoC 4A XRES pin is pulled low during reset */
  78:.\main.c      **** 		if(Pin_PSoC4A_XRES_Read() == 0)
  59              		.loc 1 78 0
  60 001e FFF7FEFF 		bl	Pin_PSoC4A_XRES_Read
  61 0022 0346     		mov	r3, r0
  62 0024 002B     		cmp	r3, #0
  63 0026 31D1     		bne	.L11
  79:.\main.c      **** 		{
  80:.\main.c      **** 			for(counter = 0; counter <= 100; counter++)
  64              		.loc 1 80 0
  65 0028 4FF00003 		mov	r3, #0
  66 002c FB80     		strh	r3, [r7, #6]	@ movhi
  67 002e 0CE0     		b	.L4
  68              	.L7:
  81:.\main.c      **** 			{
  82:.\main.c      **** 				CyDelay(1);
  69              		.loc 1 82 0
  70 0030 4FF00100 		mov	r0, #1
  71 0034 FFF7FEFF 		bl	CyDelay
  83:.\main.c      **** 				
  84:.\main.c      **** 				/* If the swicth is released before specified time, do not enter bootloader */
  85:.\main.c      **** 				if(Pin_PSoC4A_XRES_Read() != 0)
  72              		.loc 1 85 0
  73 0038 FFF7FEFF 		bl	Pin_PSoC4A_XRES_Read
  74 003c 0346     		mov	r3, r0
  75 003e 002B     		cmp	r3, #0
  76 0040 07D1     		bne	.L12
  77              	.L5:
  78              		.loc 1 80 0
  79 0042 FB88     		ldrh	r3, [r7, #6]	@ movhi
  80 0044 03F10103 		add	r3, r3, #1
  81 0048 FB80     		strh	r3, [r7, #6]	@ movhi
  82              	.L4:
ARM GAS  C:\DOCUME~1\ADMINI~1\LOCALS~1\Temp\ccaQOVXj.s 			page 4


  83 004a FB88     		ldrh	r3, [r7, #6]
  84 004c 642B     		cmp	r3, #100
  85 004e EFD9     		bls	.L7
  86 0050 00E0     		b	.L6
  87              	.L12:
  86:.\main.c      **** 					break;
  88              		.loc 1 86 0
  89 0052 00BF     		nop
  90              	.L6:
  87:.\main.c      **** 			}
  88:.\main.c      **** 						 
  89:.\main.c      **** 			/* If the reset switch was pressed for more than 100 millisecond counter value will be 100 
  90:.\main.c      **** 			 * If so, set the flash run type as bootloader to wait for a bootload operation */
  91:.\main.c      **** 			if(counter >= 100)
  91              		.loc 1 91 0
  92 0054 FB88     		ldrh	r3, [r7, #6]
  93 0056 632B     		cmp	r3, #99
  94 0058 1AD9     		bls	.L13
  92:.\main.c      **** 			{
  93:.\main.c      **** 				/* Set the reset SR0 switch to indicate the */
  94:.\main.c      **** 				Bootloader_SET_RUN_TYPE (Bootloader_START_BTLDR);
  95              		.loc 1 94 0
  96 005a 44F2FA63 		movw	r3, #:lower16:1073759994
  97 005e C4F20003 		movt	r3, #:upper16:1073759994
  98 0062 4FF04002 		mov	r2, #64
  99 0066 1A70     		strb	r2, [r3, #0]
  95:.\main.c      **** 				
  96:.\main.c      **** 				/*Indicate that you have entered the bootloader mode.*/
  97:.\main.c      **** 				PWM_WritePeriod(30000);
 100              		.loc 1 97 0
 101 0068 47F23050 		movw	r0, #30000
 102 006c FFF7FEFF 		bl	PWM_WritePeriod
  98:.\main.c      **** 				PWM_WriteCompare(15000);
 103              		.loc 1 98 0
 104 0070 43F69820 		movw	r0, #15000
 105 0074 FFF7FEFF 		bl	PWM_WriteCompare
 106 0078 0BE0     		b	.L8
 107              	.L2:
  99:.\main.c      **** 			}
 100:.\main.c      **** 		}
 101:.\main.c      **** 	}
 102:.\main.c      **** 	else
 103:.\main.c      **** 	{
 104:.\main.c      **** 		/* If the application is not valid 
 105:.\main.c      **** 		 * Blink the LED very fast (ON Time = 0.25s, OFF Time = 0.25s)*/
 106:.\main.c      **** 		PWM_WritePeriod(5000);
 108              		.loc 1 106 0
 109 007a 41F28830 		movw	r0, #5000
 110 007e FFF7FEFF 		bl	PWM_WritePeriod
 107:.\main.c      **** 		PWM_WriteCompare(2500);
 111              		.loc 1 107 0
 112 0082 40F6C410 		movw	r0, #2500
 113 0086 FFF7FEFF 		bl	PWM_WriteCompare
 114 008a 02E0     		b	.L8
 115              	.L11:
 116              		.loc 1 98 0
 117 008c 00BF     		nop
ARM GAS  C:\DOCUME~1\ADMINI~1\LOCALS~1\Temp\ccaQOVXj.s 			page 5


 118 008e 00E0     		b	.L8
 119              	.L13:
 120 0090 00BF     		nop
 121              	.L8:
 108:.\main.c      **** 	}
 109:.\main.c      **** 	/* Enable the PWM */
 110:.\main.c      **** 	PWM_Enable();
 122              		.loc 1 110 0
 123 0092 FFF7FEFF 		bl	PWM_Enable
 111:.\main.c      **** 
 112:.\main.c      **** 	/* Start Bootloader */
 113:.\main.c      **** 	Bootloader_Start();
 124              		.loc 1 113 0
 125 0096 FFF7FEFF 		bl	Bootloader_Start
 126              	.L9:
 114:.\main.c      ****     for(;;)
 115:.\main.c      ****     {
 116:.\main.c      ****         
 117:.\main.c      ****     }
 127              		.loc 1 117 0
 128 009a FEE7     		b	.L9
 129              		.cfi_endproc
 130              	.LFE29:
 131              		.size	main, .-main
 132              		.section	.text.ValidateBootloader,"ax",%progbits
 133              		.align	2
 134              		.global	ValidateBootloader
 135              		.thumb
 136              		.thumb_func
 137              		.type	ValidateBootloader, %function
 138              	ValidateBootloader:
 139              	.LFB30:
 118:.\main.c      **** }
 119:.\main.c      **** 
 120:.\main.c      **** /*******************************************************************************
 121:.\main.c      **** * Function Name: ValidateBootloader
 122:.\main.c      **** ********************************************************************************
 123:.\main.c      **** *
 124:.\main.c      **** * Summary:
 125:.\main.c      **** *  Function to validate the bootloader bye verifying the bootloader checksum. 
 126:.\main.c      **** *  The CPU execution is halted if Bootloader is not valid.
 127:.\main.c      **** *
 128:.\main.c      **** * Parameters:
 129:.\main.c      **** *  None
 130:.\main.c      **** *
 131:.\main.c      **** * Return:
 132:.\main.c      **** *  None
 133:.\main.c      **** *
 134:.\main.c      **** *******************************************************************************/
 135:.\main.c      **** void ValidateBootloader(void)
 136:.\main.c      **** {
 140              		.loc 1 136 0
 141              		.cfi_startproc
 142              		@ args = 0, pretend = 0, frame = 8
 143              		@ frame_needed = 1, uses_anonymous_args = 0
 144 0000 80B5     		push	{r7, lr}
 145              	.LCFI3:
ARM GAS  C:\DOCUME~1\ADMINI~1\LOCALS~1\Temp\ccaQOVXj.s 			page 6


 146              		.cfi_def_cfa_offset 8
 147 0002 82B0     		sub	sp, sp, #8
 148              	.LCFI4:
 149              		.cfi_def_cfa_offset 16
 150 0004 00AF     		add	r7, sp, #0
 151              		.cfi_offset 14, -4
 152              		.cfi_offset 7, -8
 153              	.LCFI5:
 154              		.cfi_def_cfa_register 7
 137:.\main.c      ****     extern uint8  *Bootloader_ChecksumAccess;
 138:.\main.c      **** 	extern uint32 *Bootloader_SizeBytesAccess;
 139:.\main.c      **** 	uint8 CYDATA calcedChecksum;
 140:.\main.c      **** 	calcedChecksum = Bootloader_Calc8BitFlashSum(Bootloader_CHECKSUM_START,
 155              		.loc 1 140 0
 156 0006 40F20003 		movw	r3, #:lower16:Bootloader_SizeBytesAccess
 157 000a C0F20003 		movt	r3, #:upper16:Bootloader_SizeBytesAccess
 158 000e 1B68     		ldr	r3, [r3, #0]
 141:.\main.c      ****                 	*Bootloader_SizeBytesAccess - Bootloader_CHECKSUM_START);
 159              		.loc 1 141 0
 160 0010 1B68     		ldr	r3, [r3, #0]
 161              		.loc 1 140 0
 162 0012 4FF00000 		mov	r0, #0
 163 0016 1946     		mov	r1, r3
 164 0018 FFF7FEFF 		bl	Bootloader_Calc8BitFlashSum
 165 001c 0346     		mov	r3, r0
 166 001e FB71     		strb	r3, [r7, #7]
 142:.\main.c      **** 
 143:.\main.c      **** 	/* we actually included the checksum, so remove it */
 144:.\main.c      **** 	calcedChecksum -= *Bootloader_ChecksumAccess;
 167              		.loc 1 144 0
 168 0020 40F20003 		movw	r3, #:lower16:Bootloader_ChecksumAccess
 169 0024 C0F20003 		movt	r3, #:upper16:Bootloader_ChecksumAccess
 170 0028 1B68     		ldr	r3, [r3, #0]
 171 002a 1B78     		ldrb	r3, [r3, #0]	@ zero_extendqisi2
 172 002c FA79     		ldrb	r2, [r7, #7]
 173 002e C3EB0203 		rsb	r3, r3, r2
 174 0032 FB71     		strb	r3, [r7, #7]
 145:.\main.c      **** 	calcedChecksum = 1 + ~calcedChecksum;
 175              		.loc 1 145 0
 176 0034 FB79     		ldrb	r3, [r7, #7]	@ zero_extendqisi2
 177 0036 C3F10003 		rsb	r3, r3, #0
 178 003a DBB2     		uxtb	r3, r3
 179 003c FB71     		strb	r3, [r7, #7]
 146:.\main.c      **** 
 147:.\main.c      **** 	/* Halt device if bootloader application is invalid */
 148:.\main.c      **** 	if((calcedChecksum != *Bootloader_ChecksumAccess))
 180              		.loc 1 148 0
 181 003e 40F20003 		movw	r3, #:lower16:Bootloader_ChecksumAccess
 182 0042 C0F20003 		movt	r3, #:upper16:Bootloader_ChecksumAccess
 183 0046 1B68     		ldr	r3, [r3, #0]
 184 0048 1B78     		ldrb	r3, [r3, #0]	@ zero_extendqisi2
 185 004a FA79     		ldrb	r2, [r7, #7]	@ zero_extendqisi2
 186 004c 9A42     		cmp	r2, r3
 187 004e 03D0     		beq	.L16
 149:.\main.c      **** 	{
 150:.\main.c      **** 	    CyHalt(0x00u);
 188              		.loc 1 150 0
ARM GAS  C:\DOCUME~1\ADMINI~1\LOCALS~1\Temp\ccaQOVXj.s 			page 7


 189 0050 4FF00000 		mov	r0, #0
 190 0054 FFF7FEFF 		bl	CyHalt
 191              	.L16:
 151:.\main.c      **** 	}
 152:.\main.c      **** }
 192              		.loc 1 152 0
 193 0058 07F10807 		add	r7, r7, #8
 194 005c BD46     		mov	sp, r7
 195 005e 80BD     		pop	{r7, pc}
 196              		.cfi_endproc
 197              	.LFE30:
 198              		.size	ValidateBootloader, .-ValidateBootloader
 199              		.text
 200              	.Letext0: