ARM GAS  C:\DOCUME~1\ADMINI~1\LOCALS~1\Temp\ccIwl9aE.s 			page 1


   1              		.syntax unified
   2              		.cpu cortex-m3
   3              		.fpu softvfp
   4              		.eabi_attribute 20, 1
   5              		.eabi_attribute 21, 1
   6              		.eabi_attribute 23, 3
   7              		.eabi_attribute 24, 1
   8              		.eabi_attribute 25, 1
   9              		.eabi_attribute 26, 1
  10              		.eabi_attribute 30, 6
  11              		.eabi_attribute 18, 4
  12              		.thumb
  13              		.file	"USBFS.c"
  20 0000 79020000 		.text
  20      02008200 
  20      00000201 
  20      FB0E0D00 
  20      01010101 
  21              	.Ltext0:
  22              		.cfi_sections	.debug_frame
  23              		.global	USBFS_initVar
  24              		.bss
  25              		.type	USBFS_initVar, %object
  26              		.size	USBFS_initVar, 1
  27              	USBFS_initVar:
  28 0000 00       		.space	1
  29              		.section	.text.USBFS_Start,"ax",%progbits
  30              		.align	2
  31              		.global	USBFS_Start
  32              		.thumb
  33              		.thumb_func
  34              		.type	USBFS_Start, %function
  35              	USBFS_Start:
  36              	.LFB0:
  37              		.file 1 ".\\Generated_Source\\PSoC5\\USBFS.c"
   1:.\Generated_Source\PSoC5/USBFS.c **** /*******************************************************************************
   2:.\Generated_Source\PSoC5/USBFS.c **** * File Name: USBFS.c
   3:.\Generated_Source\PSoC5/USBFS.c **** * Version 2.51
   4:.\Generated_Source\PSoC5/USBFS.c **** *
   5:.\Generated_Source\PSoC5/USBFS.c **** * Description:
   6:.\Generated_Source\PSoC5/USBFS.c **** *  API for USBFS Component.
   7:.\Generated_Source\PSoC5/USBFS.c **** *
   8:.\Generated_Source\PSoC5/USBFS.c **** * Note:
   9:.\Generated_Source\PSoC5/USBFS.c **** *  Many of the functions use endpoint number.  RAM arrays are sized with 9
  10:.\Generated_Source\PSoC5/USBFS.c **** *  elements so they are indexed directly by epNumber.  The SIE and ARB
  11:.\Generated_Source\PSoC5/USBFS.c **** *  registers are indexed by variations of epNumber - 1.
  12:.\Generated_Source\PSoC5/USBFS.c **** *
  13:.\Generated_Source\PSoC5/USBFS.c **** ********************************************************************************
  14:.\Generated_Source\PSoC5/USBFS.c **** * Copyright 2008-2012, Cypress Semiconductor Corporation.  All rights reserved.
  15:.\Generated_Source\PSoC5/USBFS.c **** * You may use this file only in accordance with the license, terms, conditions,
  16:.\Generated_Source\PSoC5/USBFS.c **** * disclaimers, and limitations in the end user license agreement accompanying
ARM GAS  C:\DOCUME~1\ADMINI~1\LOCALS~1\Temp\ccIwl9aE.s 			page 2


  17:.\Generated_Source\PSoC5/USBFS.c **** * the software package with which this file was provided.
  18:.\Generated_Source\PSoC5/USBFS.c **** *******************************************************************************/
  19:.\Generated_Source\PSoC5/USBFS.c **** 
  20:.\Generated_Source\PSoC5/USBFS.c **** #include <CyDmac.h>
  21:.\Generated_Source\PSoC5/USBFS.c **** #include "USBFS.h"
  22:.\Generated_Source\PSoC5/USBFS.c **** #include "USBFS_hid.h"
  23:.\Generated_Source\PSoC5/USBFS.c **** #if(USBFS_DMA1_REMOVE == 0u)
  24:.\Generated_Source\PSoC5/USBFS.c ****     #include "USBFS_ep1_dma.h"
  25:.\Generated_Source\PSoC5/USBFS.c **** #endif   /* End USBFS_DMA1_REMOVE */
  26:.\Generated_Source\PSoC5/USBFS.c **** #if(USBFS_DMA2_REMOVE == 0u)
  27:.\Generated_Source\PSoC5/USBFS.c ****     #include "USBFS_ep2_dma.h"
  28:.\Generated_Source\PSoC5/USBFS.c **** #endif   /* End USBFS_DMA2_REMOVE */
  29:.\Generated_Source\PSoC5/USBFS.c **** #if(USBFS_DMA3_REMOVE == 0u)
  30:.\Generated_Source\PSoC5/USBFS.c ****     #include "USBFS_ep3_dma.h"
  31:.\Generated_Source\PSoC5/USBFS.c **** #endif   /* End USBFS_DMA3_REMOVE */
  32:.\Generated_Source\PSoC5/USBFS.c **** #if(USBFS_DMA4_REMOVE == 0u)
  33:.\Generated_Source\PSoC5/USBFS.c ****     #include "USBFS_ep4_dma.h"
  34:.\Generated_Source\PSoC5/USBFS.c **** #endif   /* End USBFS_DMA4_REMOVE */
  35:.\Generated_Source\PSoC5/USBFS.c **** #if(USBFS_DMA5_REMOVE == 0u)
  36:.\Generated_Source\PSoC5/USBFS.c ****     #include "USBFS_ep5_dma.h"
  37:.\Generated_Source\PSoC5/USBFS.c **** #endif   /* End USBFS_DMA5_REMOVE */
  38:.\Generated_Source\PSoC5/USBFS.c **** #if(USBFS_DMA6_REMOVE == 0u)
  39:.\Generated_Source\PSoC5/USBFS.c ****     #include "USBFS_ep6_dma.h"
  40:.\Generated_Source\PSoC5/USBFS.c **** #endif   /* End USBFS_DMA6_REMOVE */
  41:.\Generated_Source\PSoC5/USBFS.c **** #if(USBFS_DMA7_REMOVE == 0u)
  42:.\Generated_Source\PSoC5/USBFS.c ****     #include "USBFS_ep7_dma.h"
  43:.\Generated_Source\PSoC5/USBFS.c **** #endif   /* End USBFS_DMA7_REMOVE */
  44:.\Generated_Source\PSoC5/USBFS.c **** #if(USBFS_DMA8_REMOVE == 0u)
  45:.\Generated_Source\PSoC5/USBFS.c ****     #include "USBFS_ep8_dma.h"
  46:.\Generated_Source\PSoC5/USBFS.c **** #endif   /* End USBFS_DMA8_REMOVE */
  47:.\Generated_Source\PSoC5/USBFS.c **** 
  48:.\Generated_Source\PSoC5/USBFS.c **** 
  49:.\Generated_Source\PSoC5/USBFS.c **** /***************************************
  50:.\Generated_Source\PSoC5/USBFS.c **** * External data references
  51:.\Generated_Source\PSoC5/USBFS.c **** ***************************************/
  52:.\Generated_Source\PSoC5/USBFS.c **** 
  53:.\Generated_Source\PSoC5/USBFS.c **** extern volatile uint8 USBFS_configuration;
  54:.\Generated_Source\PSoC5/USBFS.c **** extern volatile uint8 USBFS_interfaceNumber;
  55:.\Generated_Source\PSoC5/USBFS.c **** extern volatile uint8 USBFS_configurationChanged;
  56:.\Generated_Source\PSoC5/USBFS.c **** extern volatile uint8 USBFS_interfaceSetting[];
  57:.\Generated_Source\PSoC5/USBFS.c **** extern volatile uint8 USBFS_interfaceSetting_last[];
  58:.\Generated_Source\PSoC5/USBFS.c **** extern volatile uint8 USBFS_deviceAddress;
  59:.\Generated_Source\PSoC5/USBFS.c **** extern volatile uint8 USBFS_deviceStatus;
  60:.\Generated_Source\PSoC5/USBFS.c **** extern volatile uint8 USBFS_device;
  61:.\Generated_Source\PSoC5/USBFS.c **** extern volatile uint8 USBFS_transferState;
  62:.\Generated_Source\PSoC5/USBFS.c **** extern volatile uint8 USBFS_lastPacketSize;
  63:.\Generated_Source\PSoC5/USBFS.c **** 
  64:.\Generated_Source\PSoC5/USBFS.c **** extern volatile T_USBFS_EP_CTL_BLOCK USBFS_EP[];
  65:.\Generated_Source\PSoC5/USBFS.c **** 
  66:.\Generated_Source\PSoC5/USBFS.c **** #if defined(USBFS_ENABLE_HID_CLASS)
  67:.\Generated_Source\PSoC5/USBFS.c ****     extern volatile uint8 USBFS_hidProtocol[];
  68:.\Generated_Source\PSoC5/USBFS.c **** #endif /* USBFS_ENABLE_HID_CLASS */
  69:.\Generated_Source\PSoC5/USBFS.c **** 
  70:.\Generated_Source\PSoC5/USBFS.c **** 
  71:.\Generated_Source\PSoC5/USBFS.c **** /***************************************
  72:.\Generated_Source\PSoC5/USBFS.c **** * External function references
  73:.\Generated_Source\PSoC5/USBFS.c **** ***************************************/
ARM GAS  C:\DOCUME~1\ADMINI~1\LOCALS~1\Temp\ccIwl9aE.s 			page 3


  74:.\Generated_Source\PSoC5/USBFS.c **** 
  75:.\Generated_Source\PSoC5/USBFS.c **** CY_ISR_PROTO(USBFS_EP_0_ISR);
  76:.\Generated_Source\PSoC5/USBFS.c **** #if(USBFS_EP1_ISR_REMOVE == 0u)
  77:.\Generated_Source\PSoC5/USBFS.c ****     CY_ISR_PROTO(USBFS_EP_1_ISR);
  78:.\Generated_Source\PSoC5/USBFS.c **** #endif /* End USBFS_EP1_ISR_REMOVE */
  79:.\Generated_Source\PSoC5/USBFS.c **** #if(USBFS_EP2_ISR_REMOVE == 0u)
  80:.\Generated_Source\PSoC5/USBFS.c ****     CY_ISR_PROTO(USBFS_EP_2_ISR);
  81:.\Generated_Source\PSoC5/USBFS.c **** #endif /* End USBFS_EP2_ISR_REMOVE */
  82:.\Generated_Source\PSoC5/USBFS.c **** #if(USBFS_EP3_ISR_REMOVE == 0u)
  83:.\Generated_Source\PSoC5/USBFS.c ****     CY_ISR_PROTO(USBFS_EP_3_ISR);
  84:.\Generated_Source\PSoC5/USBFS.c **** #endif /* End USBFS_EP3_ISR_REMOVE */
  85:.\Generated_Source\PSoC5/USBFS.c **** #if(USBFS_EP4_ISR_REMOVE == 0u)
  86:.\Generated_Source\PSoC5/USBFS.c ****     CY_ISR_PROTO(USBFS_EP_4_ISR);
  87:.\Generated_Source\PSoC5/USBFS.c **** #endif /* End USBFS_EP4_ISR_REMOVE */
  88:.\Generated_Source\PSoC5/USBFS.c **** #if(USBFS_EP5_ISR_REMOVE == 0u)
  89:.\Generated_Source\PSoC5/USBFS.c ****     CY_ISR_PROTO(USBFS_EP_5_ISR);
  90:.\Generated_Source\PSoC5/USBFS.c **** #endif /* End USBFS_EP5_ISR_REMOVE */
  91:.\Generated_Source\PSoC5/USBFS.c **** #if(USBFS_EP6_ISR_REMOVE == 0u)
  92:.\Generated_Source\PSoC5/USBFS.c ****     CY_ISR_PROTO(USBFS_EP_6_ISR);
  93:.\Generated_Source\PSoC5/USBFS.c **** #endif /* End USBFS_EP6_ISR_REMOVE */
  94:.\Generated_Source\PSoC5/USBFS.c **** #if(USBFS_EP7_ISR_REMOVE == 0u)
  95:.\Generated_Source\PSoC5/USBFS.c ****     CY_ISR_PROTO(USBFS_EP_7_ISR);
  96:.\Generated_Source\PSoC5/USBFS.c **** #endif /* End USBFS_EP7_ISR_REMOVE */
  97:.\Generated_Source\PSoC5/USBFS.c **** #if(USBFS_EP8_ISR_REMOVE == 0u)
  98:.\Generated_Source\PSoC5/USBFS.c ****     CY_ISR_PROTO(USBFS_EP_8_ISR);
  99:.\Generated_Source\PSoC5/USBFS.c **** #endif /* End USBFS_EP8_ISR_REMOVE */
 100:.\Generated_Source\PSoC5/USBFS.c **** CY_ISR_PROTO(USBFS_BUS_RESET_ISR);
 101:.\Generated_Source\PSoC5/USBFS.c **** #if(USBFS_SOF_ISR_REMOVE == 0u)
 102:.\Generated_Source\PSoC5/USBFS.c ****     CY_ISR_PROTO(USBFS_SOF_ISR);
 103:.\Generated_Source\PSoC5/USBFS.c **** #endif /* End USBFS_SOF_ISR_REMOVE */
 104:.\Generated_Source\PSoC5/USBFS.c **** #if(USBFS_EP_MM != USBFS__EP_MANUAL)
 105:.\Generated_Source\PSoC5/USBFS.c ****     CY_ISR_PROTO(USBFS_ARB_ISR);
 106:.\Generated_Source\PSoC5/USBFS.c **** #endif /* End USBFS_EP_MM */
 107:.\Generated_Source\PSoC5/USBFS.c **** 
 108:.\Generated_Source\PSoC5/USBFS.c **** 
 109:.\Generated_Source\PSoC5/USBFS.c **** /***************************************
 110:.\Generated_Source\PSoC5/USBFS.c **** * Global data allocation
 111:.\Generated_Source\PSoC5/USBFS.c **** ***************************************/
 112:.\Generated_Source\PSoC5/USBFS.c **** 
 113:.\Generated_Source\PSoC5/USBFS.c **** uint8 USBFS_initVar = 0u;
 114:.\Generated_Source\PSoC5/USBFS.c **** #if(USBFS_EP_MM != USBFS__EP_MANUAL)
 115:.\Generated_Source\PSoC5/USBFS.c ****     uint8 USBFS_DmaChan[USBFS_MAX_EP];
 116:.\Generated_Source\PSoC5/USBFS.c ****     uint8 USBFS_DmaTd[USBFS_MAX_EP];
 117:.\Generated_Source\PSoC5/USBFS.c **** #endif /* End USBFS_EP_MM */
 118:.\Generated_Source\PSoC5/USBFS.c **** 
 119:.\Generated_Source\PSoC5/USBFS.c **** 
 120:.\Generated_Source\PSoC5/USBFS.c **** /*******************************************************************************
 121:.\Generated_Source\PSoC5/USBFS.c **** * Function Name: USBFS_Start
 122:.\Generated_Source\PSoC5/USBFS.c **** ********************************************************************************
 123:.\Generated_Source\PSoC5/USBFS.c **** *
 124:.\Generated_Source\PSoC5/USBFS.c **** * Summary:
 125:.\Generated_Source\PSoC5/USBFS.c **** *  This function initialize the USB SIE, arbiter and the
 126:.\Generated_Source\PSoC5/USBFS.c **** *  endpoint APIs, including setting the D+ Pullup
 127:.\Generated_Source\PSoC5/USBFS.c **** *
 128:.\Generated_Source\PSoC5/USBFS.c **** * Parameters:
 129:.\Generated_Source\PSoC5/USBFS.c **** *  device: Contains the device number of the desired device descriptor.
 130:.\Generated_Source\PSoC5/USBFS.c **** *          The device number can be found in the Device Descriptor Tab of 
ARM GAS  C:\DOCUME~1\ADMINI~1\LOCALS~1\Temp\ccIwl9aE.s 			page 4


 131:.\Generated_Source\PSoC5/USBFS.c **** *          "Configure" dialog, under the settings of desired Device Descriptor,
 132:.\Generated_Source\PSoC5/USBFS.c **** *          in the "Device Number" field.
 133:.\Generated_Source\PSoC5/USBFS.c **** *  mode: The operating voltage. This determines whether the voltage regulator
 134:.\Generated_Source\PSoC5/USBFS.c **** *        is enabled for 5V operation or if pass through mode is used for 3.3V
 135:.\Generated_Source\PSoC5/USBFS.c **** *        operation. Symbolic names and their associated values are given in the
 136:.\Generated_Source\PSoC5/USBFS.c **** *        following table.
 137:.\Generated_Source\PSoC5/USBFS.c **** *       USBFS_3V_OPERATION - Disable voltage regulator and pass-thru
 138:.\Generated_Source\PSoC5/USBFS.c **** *                                       Vcc for pull-up
 139:.\Generated_Source\PSoC5/USBFS.c **** *       USBFS_5V_OPERATION - Enable voltage regulator and use
 140:.\Generated_Source\PSoC5/USBFS.c **** *                                       regulator for pull-up
 141:.\Generated_Source\PSoC5/USBFS.c **** *       USBFS_DWR_VDDD_OPERATION - Enable or Disable voltage
 142:.\Generated_Source\PSoC5/USBFS.c **** *                         regulator depend on Vddd Voltage configuration in DWR.
 143:.\Generated_Source\PSoC5/USBFS.c **** *
 144:.\Generated_Source\PSoC5/USBFS.c **** * Return:
 145:.\Generated_Source\PSoC5/USBFS.c **** *   None.
 146:.\Generated_Source\PSoC5/USBFS.c **** *
 147:.\Generated_Source\PSoC5/USBFS.c **** * Global variables:
 148:.\Generated_Source\PSoC5/USBFS.c **** *  The USBFS_intiVar variable is used to indicate initial
 149:.\Generated_Source\PSoC5/USBFS.c **** *  configuration of this component. The variable is initialized to zero (0u)
 150:.\Generated_Source\PSoC5/USBFS.c **** *  and set to one (1u) the first time USBFS_Start() is called.
 151:.\Generated_Source\PSoC5/USBFS.c **** *  This allows for component Re-Start without unnecessary re-initialization
 152:.\Generated_Source\PSoC5/USBFS.c **** *  in all subsequent calls to the USBFS_Start() routine.
 153:.\Generated_Source\PSoC5/USBFS.c **** *  If re-initialization of the component is required the variable should be set
 154:.\Generated_Source\PSoC5/USBFS.c **** *  to zero before call of UART_Start() routine, or the user may call
 155:.\Generated_Source\PSoC5/USBFS.c **** *  USBFS_Init() and USBFS_InitComponent() as done
 156:.\Generated_Source\PSoC5/USBFS.c **** *  in the USBFS_Start() routine.
 157:.\Generated_Source\PSoC5/USBFS.c **** *
 158:.\Generated_Source\PSoC5/USBFS.c **** * Side Effects:
 159:.\Generated_Source\PSoC5/USBFS.c **** *   This function will reset all communication states to default.
 160:.\Generated_Source\PSoC5/USBFS.c **** *
 161:.\Generated_Source\PSoC5/USBFS.c **** * Reentrant:
 162:.\Generated_Source\PSoC5/USBFS.c **** *  No.
 163:.\Generated_Source\PSoC5/USBFS.c **** *
 164:.\Generated_Source\PSoC5/USBFS.c **** *******************************************************************************/
 165:.\Generated_Source\PSoC5/USBFS.c **** void USBFS_Start(uint8 device, uint8 mode) 
 166:.\Generated_Source\PSoC5/USBFS.c **** {
  38              		.loc 1 166 0
  39              		.cfi_startproc
  40              		@ args = 0, pretend = 0, frame = 8
  41              		@ frame_needed = 1, uses_anonymous_args = 0
  42 0000 80B5     		push	{r7, lr}
  43              	.LCFI0:
  44              		.cfi_def_cfa_offset 8
  45 0002 82B0     		sub	sp, sp, #8
  46              	.LCFI1:
  47              		.cfi_def_cfa_offset 16
  48 0004 00AF     		add	r7, sp, #0
  49              		.cfi_offset 14, -4
  50              		.cfi_offset 7, -8
  51              	.LCFI2:
  52              		.cfi_def_cfa_register 7
  53 0006 0246     		mov	r2, r0
  54 0008 0B46     		mov	r3, r1
  55 000a FA71     		strb	r2, [r7, #7]
  56 000c BB71     		strb	r3, [r7, #6]
 167:.\Generated_Source\PSoC5/USBFS.c ****     /* If not Initialized then initialize all required hardware and software */
 168:.\Generated_Source\PSoC5/USBFS.c ****     if(USBFS_initVar == 0u)
ARM GAS  C:\DOCUME~1\ADMINI~1\LOCALS~1\Temp\ccIwl9aE.s 			page 5


  57              		.loc 1 168 0
  58 000e 40F20003 		movw	r3, #:lower16:USBFS_initVar
  59 0012 C0F20003 		movt	r3, #:upper16:USBFS_initVar
  60 0016 1B78     		ldrb	r3, [r3, #0]	@ zero_extendqisi2
  61 0018 002B     		cmp	r3, #0
  62 001a 08D1     		bne	.L2
 169:.\Generated_Source\PSoC5/USBFS.c ****     {
 170:.\Generated_Source\PSoC5/USBFS.c ****         USBFS_Init();
  63              		.loc 1 170 0
  64 001c FFF7FEFF 		bl	USBFS_Init
 171:.\Generated_Source\PSoC5/USBFS.c ****         USBFS_initVar = 1u;
  65              		.loc 1 171 0
  66 0020 40F20003 		movw	r3, #:lower16:USBFS_initVar
  67 0024 C0F20003 		movt	r3, #:upper16:USBFS_initVar
  68 0028 4FF00102 		mov	r2, #1
  69 002c 1A70     		strb	r2, [r3, #0]
  70              	.L2:
 172:.\Generated_Source\PSoC5/USBFS.c ****     }
 173:.\Generated_Source\PSoC5/USBFS.c ****     USBFS_InitComponent(device, mode);
  71              		.loc 1 173 0
  72 002e FA79     		ldrb	r2, [r7, #7]	@ zero_extendqisi2
  73 0030 BB79     		ldrb	r3, [r7, #6]	@ zero_extendqisi2
  74 0032 1046     		mov	r0, r2
  75 0034 1946     		mov	r1, r3
  76 0036 FFF7FEFF 		bl	USBFS_InitComponent
 174:.\Generated_Source\PSoC5/USBFS.c **** }
  77              		.loc 1 174 0
  78 003a 07F10807 		add	r7, r7, #8
  79 003e BD46     		mov	sp, r7
  80 0040 80BD     		pop	{r7, pc}
  81              		.cfi_endproc
  82              	.LFE0:
  83              		.size	USBFS_Start, .-USBFS_Start
  84 0042 00BF     		.section	.text.USBFS_Init,"ax",%progbits
  85              		.align	2
  86              		.global	USBFS_Init
  87              		.thumb
  88              		.thumb_func
  89              		.type	USBFS_Init, %function
  90              	USBFS_Init:
  91              	.LFB1:
 175:.\Generated_Source\PSoC5/USBFS.c **** 
 176:.\Generated_Source\PSoC5/USBFS.c **** 
 177:.\Generated_Source\PSoC5/USBFS.c **** /*******************************************************************************
 178:.\Generated_Source\PSoC5/USBFS.c **** * Function Name: USBFS_Init
 179:.\Generated_Source\PSoC5/USBFS.c **** ********************************************************************************
 180:.\Generated_Source\PSoC5/USBFS.c **** *
 181:.\Generated_Source\PSoC5/USBFS.c **** * Summary:
 182:.\Generated_Source\PSoC5/USBFS.c **** *  Initialize component's hardware. Usually called in USBFS_Start().
 183:.\Generated_Source\PSoC5/USBFS.c **** *
 184:.\Generated_Source\PSoC5/USBFS.c **** * Parameters:
 185:.\Generated_Source\PSoC5/USBFS.c **** *  None.
 186:.\Generated_Source\PSoC5/USBFS.c **** *
 187:.\Generated_Source\PSoC5/USBFS.c **** * Return:
 188:.\Generated_Source\PSoC5/USBFS.c **** *  None.
 189:.\Generated_Source\PSoC5/USBFS.c **** *
 190:.\Generated_Source\PSoC5/USBFS.c **** * Reentrant:
ARM GAS  C:\DOCUME~1\ADMINI~1\LOCALS~1\Temp\ccIwl9aE.s 			page 6


 191:.\Generated_Source\PSoC5/USBFS.c **** *  No.
 192:.\Generated_Source\PSoC5/USBFS.c **** *
 193:.\Generated_Source\PSoC5/USBFS.c **** *******************************************************************************/
 194:.\Generated_Source\PSoC5/USBFS.c **** void USBFS_Init(void) 
 195:.\Generated_Source\PSoC5/USBFS.c **** {
  92              		.loc 1 195 0
  93              		.cfi_startproc
  94              		@ args = 0, pretend = 0, frame = 8
  95              		@ frame_needed = 1, uses_anonymous_args = 0
  96 0000 80B5     		push	{r7, lr}
  97              	.LCFI3:
  98              		.cfi_def_cfa_offset 8
  99 0002 82B0     		sub	sp, sp, #8
 100              	.LCFI4:
 101              		.cfi_def_cfa_offset 16
 102 0004 00AF     		add	r7, sp, #0
 103              		.cfi_offset 14, -4
 104              		.cfi_offset 7, -8
 105              	.LCFI5:
 106              		.cfi_def_cfa_register 7
 196:.\Generated_Source\PSoC5/USBFS.c ****     uint8 enableInterrupts;
 197:.\Generated_Source\PSoC5/USBFS.c ****     #if(USBFS_EP_MM != USBFS__EP_MANUAL)
 198:.\Generated_Source\PSoC5/USBFS.c ****         uint16 i;
 199:.\Generated_Source\PSoC5/USBFS.c ****     #endif   /* End USBFS_EP_MM != USBFS__EP_MANUAL */
 200:.\Generated_Source\PSoC5/USBFS.c **** 
 201:.\Generated_Source\PSoC5/USBFS.c ****     enableInterrupts = CyEnterCriticalSection();
 107              		.loc 1 201 0
 108 0006 FFF7FEFF 		bl	CyEnterCriticalSection
 109 000a 0346     		mov	r3, r0
 110 000c FB71     		strb	r3, [r7, #7]
 202:.\Generated_Source\PSoC5/USBFS.c **** 
 203:.\Generated_Source\PSoC5/USBFS.c ****     /* Enable USB block  */
 204:.\Generated_Source\PSoC5/USBFS.c ****     USBFS_PM_ACT_CFG_REG |= USBFS_PM_ACT_EN_FSUSB;
 111              		.loc 1 204 0
 112 000e 44F2A533 		movw	r3, #:lower16:1073759141
 113 0012 C4F20003 		movt	r3, #:upper16:1073759141
 114 0016 44F2A532 		movw	r2, #:lower16:1073759141
 115 001a C4F20002 		movt	r2, #:upper16:1073759141
 116 001e 1278     		ldrb	r2, [r2, #0]
 117 0020 D2B2     		uxtb	r2, r2
 118 0022 42F00102 		orr	r2, r2, #1
 119 0026 D2B2     		uxtb	r2, r2
 120 0028 1A70     		strb	r2, [r3, #0]
 205:.\Generated_Source\PSoC5/USBFS.c ****     /* Enable USB block for Standby Power Mode */
 206:.\Generated_Source\PSoC5/USBFS.c ****     USBFS_PM_STBY_CFG_REG |= USBFS_PM_STBY_EN_FSUSB;
 121              		.loc 1 206 0
 122 002a 44F2B533 		movw	r3, #:lower16:1073759157
 123 002e C4F20003 		movt	r3, #:upper16:1073759157
 124 0032 44F2B532 		movw	r2, #:lower16:1073759157
 125 0036 C4F20002 		movt	r2, #:upper16:1073759157
 126 003a 1278     		ldrb	r2, [r2, #0]
 127 003c D2B2     		uxtb	r2, r2
 128 003e 42F00102 		orr	r2, r2, #1
 129 0042 D2B2     		uxtb	r2, r2
 130 0044 1A70     		strb	r2, [r3, #0]
 207:.\Generated_Source\PSoC5/USBFS.c **** 
 208:.\Generated_Source\PSoC5/USBFS.c ****     #if(CY_PSOC5A)
ARM GAS  C:\DOCUME~1\ADMINI~1\LOCALS~1\Temp\ccIwl9aE.s 			page 7


 209:.\Generated_Source\PSoC5/USBFS.c ****         /* Disable USBIO for TO3 */
 210:.\Generated_Source\PSoC5/USBFS.c ****         USBFS_PM_AVAIL_CR_REG &= ~USBFS_PM_AVAIL_EN_FSUSBIO;
 211:.\Generated_Source\PSoC5/USBFS.c ****     #endif /* End CY_PSOC5A */
 212:.\Generated_Source\PSoC5/USBFS.c **** 
 213:.\Generated_Source\PSoC5/USBFS.c ****     /* Enable core clock */
 214:.\Generated_Source\PSoC5/USBFS.c ****     USBFS_USB_CLK_EN_REG = USBFS_USB_CLK_ENABLE;
 131              		.loc 1 214 0
 132 0046 46F29D03 		movw	r3, #:lower16:1073766557
 133 004a C4F20003 		movt	r3, #:upper16:1073766557
 134 004e 4FF00102 		mov	r2, #1
 135 0052 1A70     		strb	r2, [r3, #0]
 215:.\Generated_Source\PSoC5/USBFS.c **** 
 216:.\Generated_Source\PSoC5/USBFS.c ****     USBFS_CR1_REG = USBFS_CR1_ENABLE_LOCK;
 136              		.loc 1 216 0
 137 0054 46F20903 		movw	r3, #:lower16:1073766409
 138 0058 C4F20003 		movt	r3, #:upper16:1073766409
 139 005c 4FF00202 		mov	r2, #2
 140 0060 1A70     		strb	r2, [r3, #0]
 217:.\Generated_Source\PSoC5/USBFS.c **** 
 218:.\Generated_Source\PSoC5/USBFS.c ****     #if(CY_PSOC5A)
 219:.\Generated_Source\PSoC5/USBFS.c ****         /* Enable USBIO for TO3 */
 220:.\Generated_Source\PSoC5/USBFS.c ****         USBFS_PM_AVAIL_CR_REG |= USBFS_PM_AVAIL_EN_FSUSBIO;
 221:.\Generated_Source\PSoC5/USBFS.c ****         /* Bus Reset Length, It has correct default value in ES3 */
 222:.\Generated_Source\PSoC5/USBFS.c ****         USBFS_BUS_RST_CNT_REG = USBFS_BUS_RST_COUNT;
 223:.\Generated_Source\PSoC5/USBFS.c ****     #endif /* End CY_PSOC5A */
 224:.\Generated_Source\PSoC5/USBFS.c **** 
 225:.\Generated_Source\PSoC5/USBFS.c ****     /* ENABLING USBIO PADS IN USB MODE FROM I/O MODE */
 226:.\Generated_Source\PSoC5/USBFS.c ****     #if(!CY_PSOC5A)
 227:.\Generated_Source\PSoC5/USBFS.c ****         /* Ensure USB transmit enable is low (USB_USBIO_CR0.ten). - Manual Transmission - Disabled 
 228:.\Generated_Source\PSoC5/USBFS.c ****         USBFS_USBIO_CR0_REG &= ~USBFS_USBIO_CR0_TEN;
 141              		.loc 1 228 0
 142 0062 46F21003 		movw	r3, #:lower16:1073766416
 143 0066 C4F20003 		movt	r3, #:upper16:1073766416
 144 006a 46F21002 		movw	r2, #:lower16:1073766416
 145 006e C4F20002 		movt	r2, #:upper16:1073766416
 146 0072 1278     		ldrb	r2, [r2, #0]
 147 0074 D2B2     		uxtb	r2, r2
 148 0076 02F07F02 		and	r2, r2, #127
 149 007a 1A70     		strb	r2, [r3, #0]
 229:.\Generated_Source\PSoC5/USBFS.c ****         CyDelayUs(0);  /*~50ns delay */
 150              		.loc 1 229 0
 151 007c 4FF00000 		mov	r0, #0
 152 0080 FFF7FEFF 		bl	CyDelayUs
 230:.\Generated_Source\PSoC5/USBFS.c ****         /* Disable the USBIO by asserting PM.USB_CR0.fsusbio_pd_n(Inverted)
 231:.\Generated_Source\PSoC5/USBFS.c ****         *  high. This will have been set low by the power manger out of reset.
 232:.\Generated_Source\PSoC5/USBFS.c ****         *  Also confirm USBIO pull-up disabled
 233:.\Generated_Source\PSoC5/USBFS.c ****         */
 234:.\Generated_Source\PSoC5/USBFS.c ****         USBFS_PM_USB_CR0_REG &= ~(USBFS_PM_USB_CR0_PD_N |USBFS_PM_USB_CR0_PD_PULLUP_N);
 153              		.loc 1 234 0
 154 0084 44F29433 		movw	r3, #:lower16:1073759124
 155 0088 C4F20003 		movt	r3, #:upper16:1073759124
 156 008c 44F29432 		movw	r2, #:lower16:1073759124
 157 0090 C4F20002 		movt	r2, #:upper16:1073759124
 158 0094 1278     		ldrb	r2, [r2, #0]
 159 0096 D2B2     		uxtb	r2, r2
 160 0098 02F0F902 		and	r2, r2, #249
 161 009c 1A70     		strb	r2, [r3, #0]
ARM GAS  C:\DOCUME~1\ADMINI~1\LOCALS~1\Temp\ccIwl9aE.s 			page 8


 235:.\Generated_Source\PSoC5/USBFS.c **** 
 236:.\Generated_Source\PSoC5/USBFS.c ****         /* Select iomode to USB mode*/
 237:.\Generated_Source\PSoC5/USBFS.c ****         USBFS_USBIO_CR1_REG &= ~ USBFS_USBIO_CR1_IOMODE;
 162              		.loc 1 237 0
 163 009e 46F21203 		movw	r3, #:lower16:1073766418
 164 00a2 C4F20003 		movt	r3, #:upper16:1073766418
 165 00a6 46F21202 		movw	r2, #:lower16:1073766418
 166 00aa C4F20002 		movt	r2, #:upper16:1073766418
 167 00ae 1278     		ldrb	r2, [r2, #0]
 168 00b0 D2B2     		uxtb	r2, r2
 169 00b2 02F0DF02 		and	r2, r2, #223
 170 00b6 1A70     		strb	r2, [r3, #0]
 238:.\Generated_Source\PSoC5/USBFS.c **** 
 239:.\Generated_Source\PSoC5/USBFS.c ****         /* Enable the USBIO reference by setting PM.USB_CR0.fsusbio_ref_en.*/
 240:.\Generated_Source\PSoC5/USBFS.c ****         USBFS_PM_USB_CR0_REG |= USBFS_PM_USB_CR0_REF_EN;
 171              		.loc 1 240 0
 172 00b8 44F29433 		movw	r3, #:lower16:1073759124
 173 00bc C4F20003 		movt	r3, #:upper16:1073759124
 174 00c0 44F29432 		movw	r2, #:lower16:1073759124
 175 00c4 C4F20002 		movt	r2, #:upper16:1073759124
 176 00c8 1278     		ldrb	r2, [r2, #0]
 177 00ca D2B2     		uxtb	r2, r2
 178 00cc 42F00102 		orr	r2, r2, #1
 179 00d0 D2B2     		uxtb	r2, r2
 180 00d2 1A70     		strb	r2, [r3, #0]
 241:.\Generated_Source\PSoC5/USBFS.c ****         /* The reference will be available 1 us after the regulator is enabled */
 242:.\Generated_Source\PSoC5/USBFS.c ****         CyDelayUs(1);
 181              		.loc 1 242 0
 182 00d4 4FF00100 		mov	r0, #1
 183 00d8 FFF7FEFF 		bl	CyDelayUs
 243:.\Generated_Source\PSoC5/USBFS.c ****         /* OR 40us after power restored */
 244:.\Generated_Source\PSoC5/USBFS.c ****         CyDelayUs(40);
 184              		.loc 1 244 0
 185 00dc 4FF02800 		mov	r0, #40
 186 00e0 FFF7FEFF 		bl	CyDelayUs
 245:.\Generated_Source\PSoC5/USBFS.c ****         /* Ensure the single ended disable bits are low (PRT15.INP_DIS[7:6])(input receiver enabled
 246:.\Generated_Source\PSoC5/USBFS.c ****         USBFS_DM_INP_DIS_REG &= ~USBFS_DM_MASK;
 187              		.loc 1 246 0
 188 00e4 45F2F813 		movw	r3, #:lower16:1073762808
 189 00e8 C4F20003 		movt	r3, #:upper16:1073762808
 190 00ec 45F2F812 		movw	r2, #:lower16:1073762808
 191 00f0 C4F20002 		movt	r2, #:upper16:1073762808
 192 00f4 1278     		ldrb	r2, [r2, #0]
 193 00f6 D2B2     		uxtb	r2, r2
 194 00f8 02F07F02 		and	r2, r2, #127
 195 00fc 1A70     		strb	r2, [r3, #0]
 247:.\Generated_Source\PSoC5/USBFS.c ****         USBFS_DP_INP_DIS_REG &= ~USBFS_DP_MASK;
 196              		.loc 1 247 0
 197 00fe 45F2F813 		movw	r3, #:lower16:1073762808
 198 0102 C4F20003 		movt	r3, #:upper16:1073762808
 199 0106 45F2F812 		movw	r2, #:lower16:1073762808
 200 010a C4F20002 		movt	r2, #:upper16:1073762808
 201 010e 1278     		ldrb	r2, [r2, #0]
 202 0110 D2B2     		uxtb	r2, r2
 203 0112 02F0BF02 		and	r2, r2, #191
 204 0116 1A70     		strb	r2, [r3, #0]
 248:.\Generated_Source\PSoC5/USBFS.c **** 
ARM GAS  C:\DOCUME~1\ADMINI~1\LOCALS~1\Temp\ccIwl9aE.s 			page 9


 249:.\Generated_Source\PSoC5/USBFS.c ****         /* Enable USBIO */
 250:.\Generated_Source\PSoC5/USBFS.c ****         USBFS_PM_USB_CR0_REG |= USBFS_PM_USB_CR0_PD_N;
 205              		.loc 1 250 0
 206 0118 44F29433 		movw	r3, #:lower16:1073759124
 207 011c C4F20003 		movt	r3, #:upper16:1073759124
 208 0120 44F29432 		movw	r2, #:lower16:1073759124
 209 0124 C4F20002 		movt	r2, #:upper16:1073759124
 210 0128 1278     		ldrb	r2, [r2, #0]
 211 012a D2B2     		uxtb	r2, r2
 212 012c 42F00202 		orr	r2, r2, #2
 213 0130 D2B2     		uxtb	r2, r2
 214 0132 1A70     		strb	r2, [r3, #0]
 251:.\Generated_Source\PSoC5/USBFS.c ****         CyDelayUs(2);
 215              		.loc 1 251 0
 216 0134 4FF00200 		mov	r0, #2
 217 0138 FFF7FEFF 		bl	CyDelayUs
 252:.\Generated_Source\PSoC5/USBFS.c ****         /* Set the USBIO pull-up enable */
 253:.\Generated_Source\PSoC5/USBFS.c ****         USBFS_PM_USB_CR0_REG |= USBFS_PM_USB_CR0_PD_PULLUP_N;
 218              		.loc 1 253 0
 219 013c 44F29433 		movw	r3, #:lower16:1073759124
 220 0140 C4F20003 		movt	r3, #:upper16:1073759124
 221 0144 44F29432 		movw	r2, #:lower16:1073759124
 222 0148 C4F20002 		movt	r2, #:upper16:1073759124
 223 014c 1278     		ldrb	r2, [r2, #0]
 224 014e D2B2     		uxtb	r2, r2
 225 0150 42F00402 		orr	r2, r2, #4
 226 0154 D2B2     		uxtb	r2, r2
 227 0156 1A70     		strb	r2, [r3, #0]
 254:.\Generated_Source\PSoC5/USBFS.c **** 
 255:.\Generated_Source\PSoC5/USBFS.c ****     #endif /* End !CY_PSOC5A */
 256:.\Generated_Source\PSoC5/USBFS.c **** 
 257:.\Generated_Source\PSoC5/USBFS.c ****     /* Write WAx */
 258:.\Generated_Source\PSoC5/USBFS.c ****     CY_SET_REG8(&USBFS_ARB_RW1_WA_PTR[0u],     0u);
 228              		.loc 1 258 0
 229 0158 46F28403 		movw	r3, #:lower16:1073766532
 230 015c C4F20003 		movt	r3, #:upper16:1073766532
 231 0160 4FF00002 		mov	r2, #0
 232 0164 1A70     		strb	r2, [r3, #0]
 259:.\Generated_Source\PSoC5/USBFS.c ****     CY_SET_REG8(&USBFS_ARB_RW1_WA_MSB_PTR[0u], 0u);
 233              		.loc 1 259 0
 234 0166 46F28503 		movw	r3, #:lower16:1073766533
 235 016a C4F20003 		movt	r3, #:upper16:1073766533
 236 016e 4FF00002 		mov	r2, #0
 237 0172 1A70     		strb	r2, [r3, #0]
 260:.\Generated_Source\PSoC5/USBFS.c **** 
 261:.\Generated_Source\PSoC5/USBFS.c ****     #if(USBFS_EP_MM != USBFS__EP_MANUAL)
 262:.\Generated_Source\PSoC5/USBFS.c ****         /* Init transfer descriptor. This will be used to detect the DMA state - initialized or not
 263:.\Generated_Source\PSoC5/USBFS.c ****         for (i = 0u; i < USBFS_MAX_EP; i++)
 264:.\Generated_Source\PSoC5/USBFS.c ****         {
 265:.\Generated_Source\PSoC5/USBFS.c ****             USBFS_DmaTd[i] = DMA_INVALID_TD;
 266:.\Generated_Source\PSoC5/USBFS.c ****         }
 267:.\Generated_Source\PSoC5/USBFS.c ****     #endif   /* End USBFS_EP_MM != USBFS__EP_MANUAL */
 268:.\Generated_Source\PSoC5/USBFS.c **** 
 269:.\Generated_Source\PSoC5/USBFS.c ****     CyExitCriticalSection(enableInterrupts);
 238              		.loc 1 269 0
 239 0174 FB79     		ldrb	r3, [r7, #7]	@ zero_extendqisi2
 240 0176 1846     		mov	r0, r3
ARM GAS  C:\DOCUME~1\ADMINI~1\LOCALS~1\Temp\ccIwl9aE.s 			page 10


 241 0178 FFF7FEFF 		bl	CyExitCriticalSection
 270:.\Generated_Source\PSoC5/USBFS.c **** 
 271:.\Generated_Source\PSoC5/USBFS.c **** 
 272:.\Generated_Source\PSoC5/USBFS.c ****     /* Set the bus reset Interrupt. */
 273:.\Generated_Source\PSoC5/USBFS.c ****     CyIntSetVector(USBFS_BUS_RESET_VECT_NUM,   USBFS_BUS_RESET_ISR);
 242              		.loc 1 273 0
 243 017c 4FF01700 		mov	r0, #23
 244 0180 40F20001 		movw	r1, #:lower16:USBFS_BUS_RESET_ISR
 245 0184 C0F20001 		movt	r1, #:upper16:USBFS_BUS_RESET_ISR
 246 0188 FFF7FEFF 		bl	CyIntSetVector
 274:.\Generated_Source\PSoC5/USBFS.c ****     CyIntSetPriority(USBFS_BUS_RESET_VECT_NUM, USBFS_BUS_RESET_PRIOR);
 247              		.loc 1 274 0
 248 018c 4FF01700 		mov	r0, #23
 249 0190 4FF00701 		mov	r1, #7
 250 0194 FFF7FEFF 		bl	CyIntSetPriority
 275:.\Generated_Source\PSoC5/USBFS.c **** 
 276:.\Generated_Source\PSoC5/USBFS.c ****     /* Set the SOF Interrupt. */
 277:.\Generated_Source\PSoC5/USBFS.c ****     #if(USBFS_SOF_ISR_REMOVE == 0u)
 278:.\Generated_Source\PSoC5/USBFS.c ****         CyIntSetVector(USBFS_SOF_VECT_NUM,   USBFS_SOF_ISR);
 251              		.loc 1 278 0
 252 0198 4FF01500 		mov	r0, #21
 253 019c 40F20001 		movw	r1, #:lower16:USBFS_SOF_ISR
 254 01a0 C0F20001 		movt	r1, #:upper16:USBFS_SOF_ISR
 255 01a4 FFF7FEFF 		bl	CyIntSetVector
 279:.\Generated_Source\PSoC5/USBFS.c ****         CyIntSetPriority(USBFS_SOF_VECT_NUM, USBFS_SOF_PRIOR);
 256              		.loc 1 279 0
 257 01a8 4FF01500 		mov	r0, #21
 258 01ac 4FF00701 		mov	r1, #7
 259 01b0 FFF7FEFF 		bl	CyIntSetPriority
 280:.\Generated_Source\PSoC5/USBFS.c ****     #endif   /* End USBFS_SOF_ISR_REMOVE */
 281:.\Generated_Source\PSoC5/USBFS.c **** 
 282:.\Generated_Source\PSoC5/USBFS.c ****     /* Set the Control Endpoint Interrupt. */
 283:.\Generated_Source\PSoC5/USBFS.c ****     CyIntSetVector(USBFS_EP_0_VECT_NUM,   USBFS_EP_0_ISR);
 260              		.loc 1 283 0
 261 01b4 4FF01800 		mov	r0, #24
 262 01b8 40F20001 		movw	r1, #:lower16:USBFS_EP_0_ISR
 263 01bc C0F20001 		movt	r1, #:upper16:USBFS_EP_0_ISR
 264 01c0 FFF7FEFF 		bl	CyIntSetVector
 284:.\Generated_Source\PSoC5/USBFS.c ****     CyIntSetPriority(USBFS_EP_0_VECT_NUM, USBFS_EP_0_PRIOR);
 265              		.loc 1 284 0
 266 01c4 4FF01800 		mov	r0, #24
 267 01c8 4FF00701 		mov	r1, #7
 268 01cc FFF7FEFF 		bl	CyIntSetPriority
 285:.\Generated_Source\PSoC5/USBFS.c **** 
 286:.\Generated_Source\PSoC5/USBFS.c ****     /* Set the Data Endpoint 1 Interrupt. */
 287:.\Generated_Source\PSoC5/USBFS.c ****     #if(USBFS_EP1_ISR_REMOVE == 0u)
 288:.\Generated_Source\PSoC5/USBFS.c ****         CyIntSetVector(USBFS_EP_1_VECT_NUM,   USBFS_EP_1_ISR);
 269              		.loc 1 288 0
 270 01d0 4FF00000 		mov	r0, #0
 271 01d4 40F20001 		movw	r1, #:lower16:USBFS_EP_1_ISR
 272 01d8 C0F20001 		movt	r1, #:upper16:USBFS_EP_1_ISR
 273 01dc FFF7FEFF 		bl	CyIntSetVector
 289:.\Generated_Source\PSoC5/USBFS.c ****         CyIntSetPriority(USBFS_EP_1_VECT_NUM, USBFS_EP_1_PRIOR);
 274              		.loc 1 289 0
 275 01e0 4FF00000 		mov	r0, #0
 276 01e4 4FF00701 		mov	r1, #7
 277 01e8 FFF7FEFF 		bl	CyIntSetPriority
ARM GAS  C:\DOCUME~1\ADMINI~1\LOCALS~1\Temp\ccIwl9aE.s 			page 11


 290:.\Generated_Source\PSoC5/USBFS.c ****     #endif   /* End USBFS_EP1_ISR_REMOVE */
 291:.\Generated_Source\PSoC5/USBFS.c **** 
 292:.\Generated_Source\PSoC5/USBFS.c ****     /* Set the Data Endpoint 2 Interrupt. */
 293:.\Generated_Source\PSoC5/USBFS.c ****     #if(USBFS_EP2_ISR_REMOVE == 0u)
 294:.\Generated_Source\PSoC5/USBFS.c ****         CyIntSetVector(USBFS_EP_2_VECT_NUM,   USBFS_EP_2_ISR);
 278              		.loc 1 294 0
 279 01ec 4FF00100 		mov	r0, #1
 280 01f0 40F20001 		movw	r1, #:lower16:USBFS_EP_2_ISR
 281 01f4 C0F20001 		movt	r1, #:upper16:USBFS_EP_2_ISR
 282 01f8 FFF7FEFF 		bl	CyIntSetVector
 295:.\Generated_Source\PSoC5/USBFS.c ****         CyIntSetPriority(USBFS_EP_2_VECT_NUM, USBFS_EP_2_PRIOR);
 283              		.loc 1 295 0
 284 01fc 4FF00100 		mov	r0, #1
 285 0200 4FF00701 		mov	r1, #7
 286 0204 FFF7FEFF 		bl	CyIntSetPriority
 296:.\Generated_Source\PSoC5/USBFS.c ****     #endif   /* End USBFS_EP2_ISR_REMOVE */
 297:.\Generated_Source\PSoC5/USBFS.c **** 
 298:.\Generated_Source\PSoC5/USBFS.c ****     /* Set the Data Endpoint 3 Interrupt. */
 299:.\Generated_Source\PSoC5/USBFS.c ****     #if(USBFS_EP3_ISR_REMOVE == 0u)
 300:.\Generated_Source\PSoC5/USBFS.c ****         CyIntSetVector(USBFS_EP_3_VECT_NUM,   USBFS_EP_3_ISR);
 301:.\Generated_Source\PSoC5/USBFS.c ****         CyIntSetPriority(USBFS_EP_3_VECT_NUM, USBFS_EP_3_PRIOR);
 302:.\Generated_Source\PSoC5/USBFS.c ****     #endif   /* End USBFS_EP3_ISR_REMOVE */
 303:.\Generated_Source\PSoC5/USBFS.c **** 
 304:.\Generated_Source\PSoC5/USBFS.c ****     /* Set the Data Endpoint 4 Interrupt. */
 305:.\Generated_Source\PSoC5/USBFS.c ****     #if(USBFS_EP4_ISR_REMOVE == 0u)
 306:.\Generated_Source\PSoC5/USBFS.c ****         CyIntSetVector(USBFS_EP_4_VECT_NUM,   USBFS_EP_4_ISR);
 307:.\Generated_Source\PSoC5/USBFS.c ****         CyIntSetPriority(USBFS_EP_4_VECT_NUM, USBFS_EP_4_PRIOR);
 308:.\Generated_Source\PSoC5/USBFS.c ****     #endif   /* End USBFS_EP4_ISR_REMOVE */
 309:.\Generated_Source\PSoC5/USBFS.c **** 
 310:.\Generated_Source\PSoC5/USBFS.c ****     /* Set the Data Endpoint 5 Interrupt. */
 311:.\Generated_Source\PSoC5/USBFS.c ****     #if(USBFS_EP5_ISR_REMOVE == 0u)
 312:.\Generated_Source\PSoC5/USBFS.c ****         CyIntSetVector(USBFS_EP_5_VECT_NUM,   USBFS_EP_5_ISR);
 313:.\Generated_Source\PSoC5/USBFS.c ****         CyIntSetPriority(USBFS_EP_5_VECT_NUM, USBFS_EP_5_PRIOR);
 314:.\Generated_Source\PSoC5/USBFS.c ****     #endif   /* End USBFS_EP5_ISR_REMOVE */
 315:.\Generated_Source\PSoC5/USBFS.c **** 
 316:.\Generated_Source\PSoC5/USBFS.c ****     /* Set the Data Endpoint 6 Interrupt. */
 317:.\Generated_Source\PSoC5/USBFS.c ****     #if(USBFS_EP6_ISR_REMOVE == 0u)
 318:.\Generated_Source\PSoC5/USBFS.c ****         CyIntSetVector(USBFS_EP_6_VECT_NUM,   USBFS_EP_6_ISR);
 319:.\Generated_Source\PSoC5/USBFS.c ****         CyIntSetPriority(USBFS_EP_6_VECT_NUM, USBFS_EP_6_PRIOR);
 320:.\Generated_Source\PSoC5/USBFS.c ****     #endif   /* End USBFS_EP6_ISR_REMOVE */
 321:.\Generated_Source\PSoC5/USBFS.c **** 
 322:.\Generated_Source\PSoC5/USBFS.c ****      /* Set the Data Endpoint 7 Interrupt. */
 323:.\Generated_Source\PSoC5/USBFS.c ****     #if(USBFS_EP7_ISR_REMOVE == 0u)
 324:.\Generated_Source\PSoC5/USBFS.c ****         CyIntSetVector(USBFS_EP_7_VECT_NUM,   USBFS_EP_7_ISR);
 325:.\Generated_Source\PSoC5/USBFS.c ****         CyIntSetPriority(USBFS_EP_7_VECT_NUM, USBFS_EP_7_PRIOR);
 326:.\Generated_Source\PSoC5/USBFS.c ****     #endif   /* End USBFS_EP7_ISR_REMOVE */
 327:.\Generated_Source\PSoC5/USBFS.c **** 
 328:.\Generated_Source\PSoC5/USBFS.c ****     /* Set the Data Endpoint 8 Interrupt. */
 329:.\Generated_Source\PSoC5/USBFS.c ****     #if(USBFS_EP8_ISR_REMOVE == 0u)
 330:.\Generated_Source\PSoC5/USBFS.c ****         CyIntSetVector(USBFS_EP_8_VECT_NUM,   USBFS_EP_8_ISR);
 331:.\Generated_Source\PSoC5/USBFS.c ****         CyIntSetPriority(USBFS_EP_8_VECT_NUM, USBFS_EP_8_PRIOR);
 332:.\Generated_Source\PSoC5/USBFS.c ****     #endif   /* End USBFS_EP8_ISR_REMOVE */
 333:.\Generated_Source\PSoC5/USBFS.c **** 
 334:.\Generated_Source\PSoC5/USBFS.c ****     #if((USBFS_EP_MM != USBFS__EP_MANUAL) && (USBFS_ARB_ISR_REMOVE == 0u))
 335:.\Generated_Source\PSoC5/USBFS.c ****         /* Set the ARB Interrupt. */
 336:.\Generated_Source\PSoC5/USBFS.c ****         CyIntSetVector(USBFS_ARB_VECT_NUM,   USBFS_ARB_ISR);
 337:.\Generated_Source\PSoC5/USBFS.c ****         CyIntSetPriority(USBFS_ARB_VECT_NUM, USBFS_ARB_PRIOR);
ARM GAS  C:\DOCUME~1\ADMINI~1\LOCALS~1\Temp\ccIwl9aE.s 			page 12


 338:.\Generated_Source\PSoC5/USBFS.c ****     #endif   /* End USBFS_EP_MM != USBFS__EP_MANUAL */
 339:.\Generated_Source\PSoC5/USBFS.c **** 
 340:.\Generated_Source\PSoC5/USBFS.c **** }
 287              		.loc 1 340 0
 288 0208 07F10807 		add	r7, r7, #8
 289 020c BD46     		mov	sp, r7
 290 020e 80BD     		pop	{r7, pc}
 291              		.cfi_endproc
 292              	.LFE1:
 293              		.size	USBFS_Init, .-USBFS_Init
 294              		.section	.text.USBFS_InitComponent,"ax",%progbits
 295              		.align	2
 296              		.global	USBFS_InitComponent
 297              		.thumb
 298              		.thumb_func
 299              		.type	USBFS_InitComponent, %function
 300              	USBFS_InitComponent:
 301              	.LFB2:
 341:.\Generated_Source\PSoC5/USBFS.c **** 
 342:.\Generated_Source\PSoC5/USBFS.c **** 
 343:.\Generated_Source\PSoC5/USBFS.c **** /*******************************************************************************
 344:.\Generated_Source\PSoC5/USBFS.c **** * Function Name: USBFS_InitComponent
 345:.\Generated_Source\PSoC5/USBFS.c **** ********************************************************************************
 346:.\Generated_Source\PSoC5/USBFS.c **** *
 347:.\Generated_Source\PSoC5/USBFS.c **** * Summary:
 348:.\Generated_Source\PSoC5/USBFS.c **** *  Initialize the component, except for the HW which is done one time in
 349:.\Generated_Source\PSoC5/USBFS.c **** *  the Start function.  This function pulls up D+.
 350:.\Generated_Source\PSoC5/USBFS.c **** *
 351:.\Generated_Source\PSoC5/USBFS.c **** * Parameters:
 352:.\Generated_Source\PSoC5/USBFS.c **** *  device: Contains the device number of the desired device descriptor.
 353:.\Generated_Source\PSoC5/USBFS.c **** *          The device number can be found in the Device Descriptor Tab of 
 354:.\Generated_Source\PSoC5/USBFS.c **** *          "Configure" dialog, under the settings of desired Device Descriptor,
 355:.\Generated_Source\PSoC5/USBFS.c **** *          in the "Device Number" field.
 356:.\Generated_Source\PSoC5/USBFS.c **** *  mode: The operating voltage. This determines whether the voltage regulator
 357:.\Generated_Source\PSoC5/USBFS.c **** *        is enabled for 5V operation or if pass through mode is used for 3.3V
 358:.\Generated_Source\PSoC5/USBFS.c **** *        operation. Symbolic names and their associated values are given in the
 359:.\Generated_Source\PSoC5/USBFS.c **** *        following table.
 360:.\Generated_Source\PSoC5/USBFS.c **** *       USBFS_3V_OPERATION - Disable voltage regulator and pass-thru
 361:.\Generated_Source\PSoC5/USBFS.c **** *                                       Vcc for pull-up
 362:.\Generated_Source\PSoC5/USBFS.c **** *       USBFS_5V_OPERATION - Enable voltage regulator and use
 363:.\Generated_Source\PSoC5/USBFS.c **** *                                       regulator for pull-up
 364:.\Generated_Source\PSoC5/USBFS.c **** *       USBFS_DWR_VDDD_OPERATION - Enable or Disable voltage
 365:.\Generated_Source\PSoC5/USBFS.c **** *                         regulator depend on Vddd Voltage configuration in DWR.
 366:.\Generated_Source\PSoC5/USBFS.c **** *
 367:.\Generated_Source\PSoC5/USBFS.c **** * Return:
 368:.\Generated_Source\PSoC5/USBFS.c **** *   None.
 369:.\Generated_Source\PSoC5/USBFS.c **** *
 370:.\Generated_Source\PSoC5/USBFS.c **** * Global variables:
 371:.\Generated_Source\PSoC5/USBFS.c **** *   USBFS_device: Contains the device number of the desired device
 372:.\Generated_Source\PSoC5/USBFS.c **** *       descriptor. The device number can be found in the Device Descriptor Tab 
 373:.\Generated_Source\PSoC5/USBFS.c **** *       of "Configure" dialog, under the settings of desired Device Descriptor,
 374:.\Generated_Source\PSoC5/USBFS.c **** *       in the "Device Number" field.
 375:.\Generated_Source\PSoC5/USBFS.c **** *   USBFS_transferState: This variable used by the communication
 376:.\Generated_Source\PSoC5/USBFS.c **** *       functions to handle current transfer state. Initialized to
 377:.\Generated_Source\PSoC5/USBFS.c **** *       TRANS_STATE_IDLE in this API.
 378:.\Generated_Source\PSoC5/USBFS.c **** *   USBFS_configuration: Contains current configuration number
 379:.\Generated_Source\PSoC5/USBFS.c **** *       which is set by the Host using SET_CONFIGURATION request.
ARM GAS  C:\DOCUME~1\ADMINI~1\LOCALS~1\Temp\ccIwl9aE.s 			page 13


 380:.\Generated_Source\PSoC5/USBFS.c **** *       Initialized to zero in this API.
 381:.\Generated_Source\PSoC5/USBFS.c **** *   USBFS_deviceAddress: Contains current device address. This
 382:.\Generated_Source\PSoC5/USBFS.c **** *       variable is initialized to zero in this API. Host starts to communicate
 383:.\Generated_Source\PSoC5/USBFS.c **** *      to device with address 0 and then set it to whatever value using
 384:.\Generated_Source\PSoC5/USBFS.c **** *      SET_ADDRESS request.
 385:.\Generated_Source\PSoC5/USBFS.c **** *   USBFS_deviceStatus: initialized to 0.
 386:.\Generated_Source\PSoC5/USBFS.c **** *       This is two bit variable which contain power status in first bit
 387:.\Generated_Source\PSoC5/USBFS.c **** *       (DEVICE_STATUS_BUS_POWERED or DEVICE_STATUS_SELF_POWERED) and remote
 388:.\Generated_Source\PSoC5/USBFS.c **** *       wakeup status (DEVICE_STATUS_REMOTE_WAKEUP) in second bit.
 389:.\Generated_Source\PSoC5/USBFS.c **** *   USBFS_lastPacketSize initialized to 0;
 390:.\Generated_Source\PSoC5/USBFS.c **** *
 391:.\Generated_Source\PSoC5/USBFS.c **** * Reentrant:
 392:.\Generated_Source\PSoC5/USBFS.c **** *  No.
 393:.\Generated_Source\PSoC5/USBFS.c **** *
 394:.\Generated_Source\PSoC5/USBFS.c **** *******************************************************************************/
 395:.\Generated_Source\PSoC5/USBFS.c **** void USBFS_InitComponent(uint8 device, uint8 mode) 
 396:.\Generated_Source\PSoC5/USBFS.c **** {
 302              		.loc 1 396 0
 303              		.cfi_startproc
 304              		@ args = 0, pretend = 0, frame = 16
 305              		@ frame_needed = 1, uses_anonymous_args = 0
 306 0000 80B5     		push	{r7, lr}
 307              	.LCFI6:
 308              		.cfi_def_cfa_offset 8
 309 0002 84B0     		sub	sp, sp, #16
 310              	.LCFI7:
 311              		.cfi_def_cfa_offset 24
 312 0004 00AF     		add	r7, sp, #0
 313              		.cfi_offset 14, -4
 314              		.cfi_offset 7, -8
 315              	.LCFI8:
 316              		.cfi_def_cfa_register 7
 317 0006 0246     		mov	r2, r0
 318 0008 0B46     		mov	r3, r1
 319 000a FA71     		strb	r2, [r7, #7]
 320 000c BB71     		strb	r3, [r7, #6]
 397:.\Generated_Source\PSoC5/USBFS.c ****     /* Initialize _hidProtocol variable to comply with
 398:.\Generated_Source\PSoC5/USBFS.c ****     *  HID 7.2.6 Set_Protocol Request:
 399:.\Generated_Source\PSoC5/USBFS.c ****     *  "When initialized, all devices default to report protocol."
 400:.\Generated_Source\PSoC5/USBFS.c ****     */
 401:.\Generated_Source\PSoC5/USBFS.c ****     #if defined(USBFS_ENABLE_HID_CLASS)
 402:.\Generated_Source\PSoC5/USBFS.c ****         uint8 interface;
 403:.\Generated_Source\PSoC5/USBFS.c **** 
 404:.\Generated_Source\PSoC5/USBFS.c ****         for (interface = 0u; interface < USBFS_MAX_INTERFACES_NUMBER; interface++)
 321              		.loc 1 404 0
 322 000e 4FF00003 		mov	r3, #0
 323 0012 FB73     		strb	r3, [r7, #15]
 324 0014 0BE0     		b	.L7
 325              	.L8:
 405:.\Generated_Source\PSoC5/USBFS.c ****         {
 406:.\Generated_Source\PSoC5/USBFS.c ****             USBFS_hidProtocol[interface] = USBFS_PROTOCOL_REPORT;
 326              		.loc 1 406 0
 327 0016 FA7B     		ldrb	r2, [r7, #15]	@ zero_extendqisi2
 328 0018 40F20003 		movw	r3, #:lower16:USBFS_hidProtocol
 329 001c C0F20003 		movt	r3, #:upper16:USBFS_hidProtocol
 330 0020 4FF00101 		mov	r1, #1
 331 0024 9954     		strb	r1, [r3, r2]
ARM GAS  C:\DOCUME~1\ADMINI~1\LOCALS~1\Temp\ccIwl9aE.s 			page 14


 332              		.loc 1 404 0
 333 0026 FB7B     		ldrb	r3, [r7, #15]
 334 0028 03F10103 		add	r3, r3, #1
 335 002c FB73     		strb	r3, [r7, #15]
 336              	.L7:
 337 002e FB7B     		ldrb	r3, [r7, #15]	@ zero_extendqisi2
 338 0030 002B     		cmp	r3, #0
 339 0032 F0D0     		beq	.L8
 407:.\Generated_Source\PSoC5/USBFS.c ****         }
 408:.\Generated_Source\PSoC5/USBFS.c ****     #endif /* USBFS_ENABLE_HID_CLASS */
 409:.\Generated_Source\PSoC5/USBFS.c **** 
 410:.\Generated_Source\PSoC5/USBFS.c ****     /* Enable Interrupts. */
 411:.\Generated_Source\PSoC5/USBFS.c ****     CyIntEnable(USBFS_BUS_RESET_VECT_NUM);
 340              		.loc 1 411 0
 341 0034 4EF20013 		movw	r3, #:lower16:-536813312
 342 0038 CEF20003 		movt	r3, #:upper16:-536813312
 343 003c 4FF40002 		mov	r2, #8388608
 344 0040 1A60     		str	r2, [r3, #0]
 412:.\Generated_Source\PSoC5/USBFS.c ****     CyIntEnable(USBFS_EP_0_VECT_NUM);
 345              		.loc 1 412 0
 346 0042 4EF20013 		movw	r3, #:lower16:-536813312
 347 0046 CEF20003 		movt	r3, #:upper16:-536813312
 348 004a 4FF08072 		mov	r2, #16777216
 349 004e 1A60     		str	r2, [r3, #0]
 413:.\Generated_Source\PSoC5/USBFS.c ****     #if(USBFS_EP1_ISR_REMOVE == 0u)
 414:.\Generated_Source\PSoC5/USBFS.c ****         CyIntEnable(USBFS_EP_1_VECT_NUM);
 350              		.loc 1 414 0
 351 0050 4EF20013 		movw	r3, #:lower16:-536813312
 352 0054 CEF20003 		movt	r3, #:upper16:-536813312
 353 0058 4FF00102 		mov	r2, #1
 354 005c 1A60     		str	r2, [r3, #0]
 415:.\Generated_Source\PSoC5/USBFS.c ****     #endif   /* End USBFS_EP1_ISR_REMOVE */
 416:.\Generated_Source\PSoC5/USBFS.c ****     #if(USBFS_EP2_ISR_REMOVE == 0u)
 417:.\Generated_Source\PSoC5/USBFS.c ****         CyIntEnable(USBFS_EP_2_VECT_NUM);
 355              		.loc 1 417 0
 356 005e 4EF20013 		movw	r3, #:lower16:-536813312
 357 0062 CEF20003 		movt	r3, #:upper16:-536813312
 358 0066 4FF00202 		mov	r2, #2
 359 006a 1A60     		str	r2, [r3, #0]
 418:.\Generated_Source\PSoC5/USBFS.c ****     #endif   /* End USBFS_EP2_ISR_REMOVE */
 419:.\Generated_Source\PSoC5/USBFS.c ****     #if(USBFS_EP3_ISR_REMOVE == 0u)
 420:.\Generated_Source\PSoC5/USBFS.c ****         CyIntEnable(USBFS_EP_3_VECT_NUM);
 421:.\Generated_Source\PSoC5/USBFS.c ****     #endif   /* End USBFS_EP3_ISR_REMOVE */
 422:.\Generated_Source\PSoC5/USBFS.c ****     #if(USBFS_EP4_ISR_REMOVE == 0u)
 423:.\Generated_Source\PSoC5/USBFS.c ****         CyIntEnable(USBFS_EP_4_VECT_NUM);
 424:.\Generated_Source\PSoC5/USBFS.c ****     #endif   /* End USBFS_EP4_ISR_REMOVE */
 425:.\Generated_Source\PSoC5/USBFS.c ****     #if(USBFS_EP5_ISR_REMOVE == 0u)
 426:.\Generated_Source\PSoC5/USBFS.c ****         CyIntEnable(USBFS_EP_5_VECT_NUM);
 427:.\Generated_Source\PSoC5/USBFS.c ****     #endif   /* End USBFS_EP5_ISR_REMOVE */
 428:.\Generated_Source\PSoC5/USBFS.c ****     #if(USBFS_EP6_ISR_REMOVE == 0u)
 429:.\Generated_Source\PSoC5/USBFS.c ****         CyIntEnable(USBFS_EP_6_VECT_NUM);
 430:.\Generated_Source\PSoC5/USBFS.c ****     #endif   /* End USBFS_EP6_ISR_REMOVE */
 431:.\Generated_Source\PSoC5/USBFS.c ****     #if(USBFS_EP7_ISR_REMOVE == 0u)
 432:.\Generated_Source\PSoC5/USBFS.c ****         CyIntEnable(USBFS_EP_7_VECT_NUM);
 433:.\Generated_Source\PSoC5/USBFS.c ****     #endif   /* End USBFS_EP7_ISR_REMOVE */
 434:.\Generated_Source\PSoC5/USBFS.c ****     #if(USBFS_EP8_ISR_REMOVE == 0u)
 435:.\Generated_Source\PSoC5/USBFS.c ****         CyIntEnable(USBFS_EP_8_VECT_NUM);
ARM GAS  C:\DOCUME~1\ADMINI~1\LOCALS~1\Temp\ccIwl9aE.s 			page 15


 436:.\Generated_Source\PSoC5/USBFS.c ****     #endif   /* End USBFS_EP8_ISR_REMOVE */
 437:.\Generated_Source\PSoC5/USBFS.c ****     #if((USBFS_EP_MM != USBFS__EP_MANUAL) && (USBFS_ARB_ISR_REMOVE == 0u))
 438:.\Generated_Source\PSoC5/USBFS.c ****         /* usb arb interrupt enable */
 439:.\Generated_Source\PSoC5/USBFS.c ****         USBFS_ARB_INT_EN_REG = USBFS_ARB_INT_MASK;
 440:.\Generated_Source\PSoC5/USBFS.c ****         CyIntEnable(USBFS_ARB_VECT_NUM);
 441:.\Generated_Source\PSoC5/USBFS.c ****     #endif   /* End USBFS_EP_MM != USBFS__EP_MANUAL */
 442:.\Generated_Source\PSoC5/USBFS.c **** 
 443:.\Generated_Source\PSoC5/USBFS.c ****     /* Arbiter congiguration for DMA transfers */
 444:.\Generated_Source\PSoC5/USBFS.c ****     #if(USBFS_EP_MM != USBFS__EP_MANUAL)
 445:.\Generated_Source\PSoC5/USBFS.c **** 
 446:.\Generated_Source\PSoC5/USBFS.c ****         #if(USBFS_EP_MM == USBFS__EP_DMAMANUAL)
 447:.\Generated_Source\PSoC5/USBFS.c ****             USBFS_ARB_CFG_REG = USBFS_ARB_CFG_MANUAL_DMA;
 448:.\Generated_Source\PSoC5/USBFS.c ****         #endif   /* End USBFS_EP_MM == USBFS__EP_DMAMANUAL */
 449:.\Generated_Source\PSoC5/USBFS.c ****         #if(USBFS_EP_MM == USBFS__EP_DMAAUTO)
 450:.\Generated_Source\PSoC5/USBFS.c ****             /*Set cfg cmplt this rises DMA request when the full configuration is done */
 451:.\Generated_Source\PSoC5/USBFS.c ****             USBFS_ARB_CFG_REG = USBFS_ARB_CFG_AUTO_DMA | USBFS_ARB_CFG_AUTO_MEM;
 452:.\Generated_Source\PSoC5/USBFS.c ****         #endif   /* End USBFS_EP_MM == USBFS__EP_DMAAUTO */
 453:.\Generated_Source\PSoC5/USBFS.c ****     #endif   /* End USBFS_EP_MM != USBFS__EP_MANUAL */
 454:.\Generated_Source\PSoC5/USBFS.c **** 
 455:.\Generated_Source\PSoC5/USBFS.c ****     USBFS_transferState = USBFS_TRANS_STATE_IDLE;
 360              		.loc 1 455 0
 361 006c 40F20003 		movw	r3, #:lower16:USBFS_transferState
 362 0070 C0F20003 		movt	r3, #:upper16:USBFS_transferState
 363 0074 4FF00002 		mov	r2, #0
 364 0078 1A70     		strb	r2, [r3, #0]
 456:.\Generated_Source\PSoC5/USBFS.c **** 
 457:.\Generated_Source\PSoC5/USBFS.c ****     /* USB Locking: Enabled, VRegulator: depend on mode or DWR Voltage configuration*/
 458:.\Generated_Source\PSoC5/USBFS.c ****     switch(mode)
 365              		.loc 1 458 0
 366 007a BB79     		ldrb	r3, [r7, #6]	@ zero_extendqisi2
 367 007c 002B     		cmp	r3, #0
 368 007e 02D0     		beq	.L10
 369 0080 012B     		cmp	r3, #1
 370 0082 08D0     		beq	.L11
 371 0084 0FE0     		b	.L14
 372              	.L10:
 459:.\Generated_Source\PSoC5/USBFS.c ****     {
 460:.\Generated_Source\PSoC5/USBFS.c ****         case USBFS_3V_OPERATION:
 461:.\Generated_Source\PSoC5/USBFS.c ****             USBFS_CR1_REG = USBFS_CR1_ENABLE_LOCK;
 373              		.loc 1 461 0
 374 0086 46F20903 		movw	r3, #:lower16:1073766409
 375 008a C4F20003 		movt	r3, #:upper16:1073766409
 376 008e 4FF00202 		mov	r2, #2
 377 0092 1A70     		strb	r2, [r3, #0]
 462:.\Generated_Source\PSoC5/USBFS.c ****             break;
 378              		.loc 1 462 0
 379 0094 0EE0     		b	.L12
 380              	.L11:
 463:.\Generated_Source\PSoC5/USBFS.c ****         case USBFS_5V_OPERATION:
 464:.\Generated_Source\PSoC5/USBFS.c ****             USBFS_CR1_REG = USBFS_CR1_ENABLE_LOCK | USBFS_CR1_REG_ENABLE;
 381              		.loc 1 464 0
 382 0096 46F20903 		movw	r3, #:lower16:1073766409
 383 009a C4F20003 		movt	r3, #:upper16:1073766409
 384 009e 4FF00302 		mov	r2, #3
 385 00a2 1A70     		strb	r2, [r3, #0]
 465:.\Generated_Source\PSoC5/USBFS.c ****             break;
 386              		.loc 1 465 0
ARM GAS  C:\DOCUME~1\ADMINI~1\LOCALS~1\Temp\ccIwl9aE.s 			page 16


 387 00a4 06E0     		b	.L12
 388              	.L14:
 466:.\Generated_Source\PSoC5/USBFS.c ****         default:   /*USBFS_DWR_VDDD_OPERATION */
 467:.\Generated_Source\PSoC5/USBFS.c ****             #if(USBFS_VDDD_MV < USBFS_3500MV)
 468:.\Generated_Source\PSoC5/USBFS.c ****                 USBFS_CR1_REG = USBFS_CR1_ENABLE_LOCK;
 469:.\Generated_Source\PSoC5/USBFS.c ****             #else
 470:.\Generated_Source\PSoC5/USBFS.c ****                 USBFS_CR1_REG = USBFS_CR1_ENABLE_LOCK | USBFS_CR1_REG_ENABLE;
 389              		.loc 1 470 0
 390 00a6 46F20903 		movw	r3, #:lower16:1073766409
 391 00aa C4F20003 		movt	r3, #:upper16:1073766409
 392 00ae 4FF00302 		mov	r2, #3
 393 00b2 1A70     		strb	r2, [r3, #0]
 394              	.L12:
 471:.\Generated_Source\PSoC5/USBFS.c ****             #endif /* End USBFS_VDDD_MV < USBFS_3500MV */
 472:.\Generated_Source\PSoC5/USBFS.c ****             break;
 473:.\Generated_Source\PSoC5/USBFS.c ****     }
 474:.\Generated_Source\PSoC5/USBFS.c **** 
 475:.\Generated_Source\PSoC5/USBFS.c ****     /* Record the descriptor selection */
 476:.\Generated_Source\PSoC5/USBFS.c ****     USBFS_device = device;
 395              		.loc 1 476 0
 396 00b4 40F20003 		movw	r3, #:lower16:USBFS_device
 397 00b8 C0F20003 		movt	r3, #:upper16:USBFS_device
 398 00bc FA79     		ldrb	r2, [r7, #7]
 399 00be 1A70     		strb	r2, [r3, #0]
 477:.\Generated_Source\PSoC5/USBFS.c **** 
 478:.\Generated_Source\PSoC5/USBFS.c ****     /* Clear all of the component data */
 479:.\Generated_Source\PSoC5/USBFS.c ****     USBFS_configuration = 0u;
 400              		.loc 1 479 0
 401 00c0 40F20003 		movw	r3, #:lower16:USBFS_configuration
 402 00c4 C0F20003 		movt	r3, #:upper16:USBFS_configuration
 403 00c8 4FF00002 		mov	r2, #0
 404 00cc 1A70     		strb	r2, [r3, #0]
 480:.\Generated_Source\PSoC5/USBFS.c ****     USBFS_interfaceNumber = 0u;
 405              		.loc 1 480 0
 406 00ce 40F20003 		movw	r3, #:lower16:USBFS_interfaceNumber
 407 00d2 C0F20003 		movt	r3, #:upper16:USBFS_interfaceNumber
 408 00d6 4FF00002 		mov	r2, #0
 409 00da 1A70     		strb	r2, [r3, #0]
 481:.\Generated_Source\PSoC5/USBFS.c ****     USBFS_configurationChanged = 0u;
 410              		.loc 1 481 0
 411 00dc 40F20003 		movw	r3, #:lower16:USBFS_configurationChanged
 412 00e0 C0F20003 		movt	r3, #:upper16:USBFS_configurationChanged
 413 00e4 4FF00002 		mov	r2, #0
 414 00e8 1A70     		strb	r2, [r3, #0]
 482:.\Generated_Source\PSoC5/USBFS.c ****     USBFS_deviceAddress  = 0u;
 415              		.loc 1 482 0
 416 00ea 40F20003 		movw	r3, #:lower16:USBFS_deviceAddress
 417 00ee C0F20003 		movt	r3, #:upper16:USBFS_deviceAddress
 418 00f2 4FF00002 		mov	r2, #0
 419 00f6 1A70     		strb	r2, [r3, #0]
 483:.\Generated_Source\PSoC5/USBFS.c ****     USBFS_deviceStatus = 0u;
 420              		.loc 1 483 0
 421 00f8 40F20003 		movw	r3, #:lower16:USBFS_deviceStatus
 422 00fc C0F20003 		movt	r3, #:upper16:USBFS_deviceStatus
 423 0100 4FF00002 		mov	r2, #0
 424 0104 1A70     		strb	r2, [r3, #0]
 484:.\Generated_Source\PSoC5/USBFS.c **** 
ARM GAS  C:\DOCUME~1\ADMINI~1\LOCALS~1\Temp\ccIwl9aE.s 			page 17


 485:.\Generated_Source\PSoC5/USBFS.c ****     USBFS_lastPacketSize = 0u;
 425              		.loc 1 485 0
 426 0106 40F20003 		movw	r3, #:lower16:USBFS_lastPacketSize
 427 010a C0F20003 		movt	r3, #:upper16:USBFS_lastPacketSize
 428 010e 4FF00002 		mov	r2, #0
 429 0112 1A70     		strb	r2, [r3, #0]
 486:.\Generated_Source\PSoC5/USBFS.c **** 
 487:.\Generated_Source\PSoC5/USBFS.c ****     /*  ACK Setup, Stall IN/OUT */
 488:.\Generated_Source\PSoC5/USBFS.c ****     CY_SET_REG8(USBFS_EP0_CR_PTR, USBFS_MODE_STALL_IN_OUT);
 430              		.loc 1 488 0
 431 0114 46F22803 		movw	r3, #:lower16:1073766440
 432 0118 C4F20003 		movt	r3, #:upper16:1073766440
 433 011c 4FF00302 		mov	r2, #3
 434 0120 1A70     		strb	r2, [r3, #0]
 489:.\Generated_Source\PSoC5/USBFS.c **** 
 490:.\Generated_Source\PSoC5/USBFS.c ****     /* Enable the SIE with an address 0 */
 491:.\Generated_Source\PSoC5/USBFS.c ****     CY_SET_REG8(USBFS_CR0_PTR, USBFS_CR0_ENABLE);
 435              		.loc 1 491 0
 436 0122 46F20803 		movw	r3, #:lower16:1073766408
 437 0126 C4F20003 		movt	r3, #:upper16:1073766408
 438 012a 6FF07F02 		mvn	r2, #127
 439 012e 1A70     		strb	r2, [r3, #0]
 492:.\Generated_Source\PSoC5/USBFS.c **** 
 493:.\Generated_Source\PSoC5/USBFS.c ****     /* Workarond for PSOC5LP */
 494:.\Generated_Source\PSoC5/USBFS.c ****     CyDelayCycles(1);
 440              		.loc 1 494 0
 441 0130 4FF00100 		mov	r0, #1
 442 0134 FFF7FEFF 		bl	CyDelayCycles
 495:.\Generated_Source\PSoC5/USBFS.c ****     
 496:.\Generated_Source\PSoC5/USBFS.c ****     /* Finally, Enable d+ pullup and select iomode to USB mode*/
 497:.\Generated_Source\PSoC5/USBFS.c ****     CY_SET_REG8(USBFS_USBIO_CR1_PTR, USBFS_USBIO_CR1_USBPUEN);
 443              		.loc 1 497 0
 444 0138 46F21203 		movw	r3, #:lower16:1073766418
 445 013c C4F20003 		movt	r3, #:upper16:1073766418
 446 0140 4FF00402 		mov	r2, #4
 447 0144 1A70     		strb	r2, [r3, #0]
 498:.\Generated_Source\PSoC5/USBFS.c **** }
 448              		.loc 1 498 0
 449 0146 07F11007 		add	r7, r7, #16
 450 014a BD46     		mov	sp, r7
 451 014c 80BD     		pop	{r7, pc}
 452              		.cfi_endproc
 453              	.LFE2:
 454              		.size	USBFS_InitComponent, .-USBFS_InitComponent
 455 014e 00BF     		.section	.text.USBFS_ReInitComponent,"ax",%progbits
 456              		.align	2
 457              		.global	USBFS_ReInitComponent
 458              		.thumb
 459              		.thumb_func
 460              		.type	USBFS_ReInitComponent, %function
 461              	USBFS_ReInitComponent:
 462              	.LFB3:
 499:.\Generated_Source\PSoC5/USBFS.c **** 
 500:.\Generated_Source\PSoC5/USBFS.c **** 
 501:.\Generated_Source\PSoC5/USBFS.c **** /*******************************************************************************
 502:.\Generated_Source\PSoC5/USBFS.c **** * Function Name: USBFS_ReInitComponent
 503:.\Generated_Source\PSoC5/USBFS.c **** ********************************************************************************
ARM GAS  C:\DOCUME~1\ADMINI~1\LOCALS~1\Temp\ccIwl9aE.s 			page 18


 504:.\Generated_Source\PSoC5/USBFS.c **** *
 505:.\Generated_Source\PSoC5/USBFS.c **** * Summary:
 506:.\Generated_Source\PSoC5/USBFS.c **** *  This function reinitialize the component configuration and is
 507:.\Generated_Source\PSoC5/USBFS.c **** *  intend to be called from the Reset interrupt.
 508:.\Generated_Source\PSoC5/USBFS.c **** *
 509:.\Generated_Source\PSoC5/USBFS.c **** * Parameters:
 510:.\Generated_Source\PSoC5/USBFS.c **** *  None.
 511:.\Generated_Source\PSoC5/USBFS.c **** *
 512:.\Generated_Source\PSoC5/USBFS.c **** * Return:
 513:.\Generated_Source\PSoC5/USBFS.c **** *   None.
 514:.\Generated_Source\PSoC5/USBFS.c **** *
 515:.\Generated_Source\PSoC5/USBFS.c **** * Global variables:
 516:.\Generated_Source\PSoC5/USBFS.c **** *   USBFS_device: Contains the device number of the desired device 
 517:.\Generated_Source\PSoC5/USBFS.c **** *		descriptor. The device number can be found in the Device Descriptor Tab 
 518:.\Generated_Source\PSoC5/USBFS.c **** *       of "Configure" dialog, under the settings of desired Device Descriptor,
 519:.\Generated_Source\PSoC5/USBFS.c **** *       in the "Device Number" field.
 520:.\Generated_Source\PSoC5/USBFS.c **** *   USBFS_transferState: This variable used by the communication
 521:.\Generated_Source\PSoC5/USBFS.c **** *       functions to handle current transfer state. Initialized to
 522:.\Generated_Source\PSoC5/USBFS.c **** *       TRANS_STATE_IDLE in this API.
 523:.\Generated_Source\PSoC5/USBFS.c **** *   USBFS_configuration: Contains current configuration number
 524:.\Generated_Source\PSoC5/USBFS.c **** *       which is set by the Host using SET_CONFIGURATION request.
 525:.\Generated_Source\PSoC5/USBFS.c **** *       Initialized to zero in this API.
 526:.\Generated_Source\PSoC5/USBFS.c **** *   USBFS_deviceAddress: Contains current device address. This
 527:.\Generated_Source\PSoC5/USBFS.c **** *       variable is initialized to zero in this API. Host starts to communicate
 528:.\Generated_Source\PSoC5/USBFS.c **** *      to device with address 0 and then set it to whatever value using
 529:.\Generated_Source\PSoC5/USBFS.c **** *      SET_ADDRESS request.
 530:.\Generated_Source\PSoC5/USBFS.c **** *   USBFS_deviceStatus: initialized to 0.
 531:.\Generated_Source\PSoC5/USBFS.c **** *       This is two bit variable which contain power status in first bit
 532:.\Generated_Source\PSoC5/USBFS.c **** *       (DEVICE_STATUS_BUS_POWERED or DEVICE_STATUS_SELF_POWERED) and remote
 533:.\Generated_Source\PSoC5/USBFS.c **** *       wakeup status (DEVICE_STATUS_REMOTE_WAKEUP) in second bit.
 534:.\Generated_Source\PSoC5/USBFS.c **** *   USBFS_lastPacketSize initialized to 0;
 535:.\Generated_Source\PSoC5/USBFS.c **** *
 536:.\Generated_Source\PSoC5/USBFS.c **** * Reentrant:
 537:.\Generated_Source\PSoC5/USBFS.c **** *  No.
 538:.\Generated_Source\PSoC5/USBFS.c **** *
 539:.\Generated_Source\PSoC5/USBFS.c **** *******************************************************************************/
 540:.\Generated_Source\PSoC5/USBFS.c **** void USBFS_ReInitComponent() 
 541:.\Generated_Source\PSoC5/USBFS.c **** {
 463              		.loc 1 541 0
 464              		.cfi_startproc
 465              		@ args = 0, pretend = 0, frame = 8
 466              		@ frame_needed = 1, uses_anonymous_args = 0
 467              		@ link register save eliminated.
 468 0000 80B4     		push	{r7}
 469              	.LCFI9:
 470              		.cfi_def_cfa_offset 4
 471 0002 83B0     		sub	sp, sp, #12
 472              	.LCFI10:
 473              		.cfi_def_cfa_offset 16
 474 0004 00AF     		add	r7, sp, #0
 475              		.cfi_offset 7, -4
 476              	.LCFI11:
 477              		.cfi_def_cfa_register 7
 542:.\Generated_Source\PSoC5/USBFS.c ****     /* Initialize _hidProtocol variable to comply with HID 7.2.6 Set_Protocol
 543:.\Generated_Source\PSoC5/USBFS.c ****     *  Request: "When initialized, all devices default to report protocol."
 544:.\Generated_Source\PSoC5/USBFS.c ****     */
 545:.\Generated_Source\PSoC5/USBFS.c ****     #if defined(USBFS_ENABLE_HID_CLASS)
ARM GAS  C:\DOCUME~1\ADMINI~1\LOCALS~1\Temp\ccIwl9aE.s 			page 19


 546:.\Generated_Source\PSoC5/USBFS.c ****         uint8 interface;
 547:.\Generated_Source\PSoC5/USBFS.c **** 
 548:.\Generated_Source\PSoC5/USBFS.c ****         for (interface = 0u; interface < USBFS_MAX_INTERFACES_NUMBER; interface++)
 478              		.loc 1 548 0
 479 0006 4FF00003 		mov	r3, #0
 480 000a FB71     		strb	r3, [r7, #7]
 481 000c 0BE0     		b	.L16
 482              	.L17:
 549:.\Generated_Source\PSoC5/USBFS.c ****         {
 550:.\Generated_Source\PSoC5/USBFS.c ****             USBFS_hidProtocol[interface] = USBFS_PROTOCOL_REPORT;
 483              		.loc 1 550 0
 484 000e FA79     		ldrb	r2, [r7, #7]	@ zero_extendqisi2
 485 0010 40F20003 		movw	r3, #:lower16:USBFS_hidProtocol
 486 0014 C0F20003 		movt	r3, #:upper16:USBFS_hidProtocol
 487 0018 4FF00101 		mov	r1, #1
 488 001c 9954     		strb	r1, [r3, r2]
 489              		.loc 1 548 0
 490 001e FB79     		ldrb	r3, [r7, #7]
 491 0020 03F10103 		add	r3, r3, #1
 492 0024 FB71     		strb	r3, [r7, #7]
 493              	.L16:
 494 0026 FB79     		ldrb	r3, [r7, #7]	@ zero_extendqisi2
 495 0028 002B     		cmp	r3, #0
 496 002a F0D0     		beq	.L17
 551:.\Generated_Source\PSoC5/USBFS.c ****         }
 552:.\Generated_Source\PSoC5/USBFS.c ****     #endif /* USBFS_ENABLE_HID_CLASS */
 553:.\Generated_Source\PSoC5/USBFS.c **** 
 554:.\Generated_Source\PSoC5/USBFS.c ****     USBFS_transferState = USBFS_TRANS_STATE_IDLE;
 497              		.loc 1 554 0
 498 002c 40F20003 		movw	r3, #:lower16:USBFS_transferState
 499 0030 C0F20003 		movt	r3, #:upper16:USBFS_transferState
 500 0034 4FF00002 		mov	r2, #0
 501 0038 1A70     		strb	r2, [r3, #0]
 555:.\Generated_Source\PSoC5/USBFS.c **** 
 556:.\Generated_Source\PSoC5/USBFS.c ****     /* Clear all of the component data */
 557:.\Generated_Source\PSoC5/USBFS.c ****     USBFS_configuration = 0u;
 502              		.loc 1 557 0
 503 003a 40F20003 		movw	r3, #:lower16:USBFS_configuration
 504 003e C0F20003 		movt	r3, #:upper16:USBFS_configuration
 505 0042 4FF00002 		mov	r2, #0
 506 0046 1A70     		strb	r2, [r3, #0]
 558:.\Generated_Source\PSoC5/USBFS.c ****     USBFS_interfaceNumber = 0u;
 507              		.loc 1 558 0
 508 0048 40F20003 		movw	r3, #:lower16:USBFS_interfaceNumber
 509 004c C0F20003 		movt	r3, #:upper16:USBFS_interfaceNumber
 510 0050 4FF00002 		mov	r2, #0
 511 0054 1A70     		strb	r2, [r3, #0]
 559:.\Generated_Source\PSoC5/USBFS.c ****     USBFS_configurationChanged = 0u;
 512              		.loc 1 559 0
 513 0056 40F20003 		movw	r3, #:lower16:USBFS_configurationChanged
 514 005a C0F20003 		movt	r3, #:upper16:USBFS_configurationChanged
 515 005e 4FF00002 		mov	r2, #0
 516 0062 1A70     		strb	r2, [r3, #0]
 560:.\Generated_Source\PSoC5/USBFS.c ****     USBFS_deviceAddress  = 0u;
 517              		.loc 1 560 0
 518 0064 40F20003 		movw	r3, #:lower16:USBFS_deviceAddress
 519 0068 C0F20003 		movt	r3, #:upper16:USBFS_deviceAddress
ARM GAS  C:\DOCUME~1\ADMINI~1\LOCALS~1\Temp\ccIwl9aE.s 			page 20


 520 006c 4FF00002 		mov	r2, #0
 521 0070 1A70     		strb	r2, [r3, #0]
 561:.\Generated_Source\PSoC5/USBFS.c ****     USBFS_deviceStatus = 0u;
 522              		.loc 1 561 0
 523 0072 40F20003 		movw	r3, #:lower16:USBFS_deviceStatus
 524 0076 C0F20003 		movt	r3, #:upper16:USBFS_deviceStatus
 525 007a 4FF00002 		mov	r2, #0
 526 007e 1A70     		strb	r2, [r3, #0]
 562:.\Generated_Source\PSoC5/USBFS.c **** 
 563:.\Generated_Source\PSoC5/USBFS.c ****     USBFS_lastPacketSize = 0u;
 527              		.loc 1 563 0
 528 0080 40F20003 		movw	r3, #:lower16:USBFS_lastPacketSize
 529 0084 C0F20003 		movt	r3, #:upper16:USBFS_lastPacketSize
 530 0088 4FF00002 		mov	r2, #0
 531 008c 1A70     		strb	r2, [r3, #0]
 564:.\Generated_Source\PSoC5/USBFS.c **** 
 565:.\Generated_Source\PSoC5/USBFS.c **** 
 566:.\Generated_Source\PSoC5/USBFS.c ****     /*  ACK Setup, Stall IN/OUT */
 567:.\Generated_Source\PSoC5/USBFS.c ****     CY_SET_REG8(USBFS_EP0_CR_PTR, USBFS_MODE_STALL_IN_OUT);
 532              		.loc 1 567 0
 533 008e 46F22803 		movw	r3, #:lower16:1073766440
 534 0092 C4F20003 		movt	r3, #:upper16:1073766440
 535 0096 4FF00302 		mov	r2, #3
 536 009a 1A70     		strb	r2, [r3, #0]
 568:.\Generated_Source\PSoC5/USBFS.c **** 
 569:.\Generated_Source\PSoC5/USBFS.c ****     /* Enable the SIE with an address 0 */
 570:.\Generated_Source\PSoC5/USBFS.c ****     CY_SET_REG8(USBFS_CR0_PTR, USBFS_CR0_ENABLE);
 537              		.loc 1 570 0
 538 009c 46F20803 		movw	r3, #:lower16:1073766408
 539 00a0 C4F20003 		movt	r3, #:upper16:1073766408
 540 00a4 6FF07F02 		mvn	r2, #127
 541 00a8 1A70     		strb	r2, [r3, #0]
 571:.\Generated_Source\PSoC5/USBFS.c **** 
 572:.\Generated_Source\PSoC5/USBFS.c **** }
 542              		.loc 1 572 0
 543 00aa 07F10C07 		add	r7, r7, #12
 544 00ae BD46     		mov	sp, r7
 545 00b0 80BC     		pop	{r7}
 546 00b2 7047     		bx	lr
 547              		.cfi_endproc
 548              	.LFE3:
 549              		.size	USBFS_ReInitComponent, .-USBFS_ReInitComponent
 550              		.section	.text.USBFS_Stop,"ax",%progbits
 551              		.align	2
 552              		.global	USBFS_Stop
 553              		.thumb
 554              		.thumb_func
 555              		.type	USBFS_Stop, %function
 556              	USBFS_Stop:
 557              	.LFB4:
 573:.\Generated_Source\PSoC5/USBFS.c **** 
 574:.\Generated_Source\PSoC5/USBFS.c **** 
 575:.\Generated_Source\PSoC5/USBFS.c **** /*******************************************************************************
 576:.\Generated_Source\PSoC5/USBFS.c **** * Function Name: USBFS_Stop
 577:.\Generated_Source\PSoC5/USBFS.c **** ********************************************************************************
 578:.\Generated_Source\PSoC5/USBFS.c **** *
 579:.\Generated_Source\PSoC5/USBFS.c **** * Summary:
ARM GAS  C:\DOCUME~1\ADMINI~1\LOCALS~1\Temp\ccIwl9aE.s 			page 21


 580:.\Generated_Source\PSoC5/USBFS.c **** *  This function shuts down the USB function including to release
 581:.\Generated_Source\PSoC5/USBFS.c **** *  the D+ Pullup and disabling the SIE.
 582:.\Generated_Source\PSoC5/USBFS.c **** *
 583:.\Generated_Source\PSoC5/USBFS.c **** * Parameters:
 584:.\Generated_Source\PSoC5/USBFS.c **** *  None.
 585:.\Generated_Source\PSoC5/USBFS.c **** *
 586:.\Generated_Source\PSoC5/USBFS.c **** * Return:
 587:.\Generated_Source\PSoC5/USBFS.c **** *  None.
 588:.\Generated_Source\PSoC5/USBFS.c **** *
 589:.\Generated_Source\PSoC5/USBFS.c **** * Global variables:
 590:.\Generated_Source\PSoC5/USBFS.c **** *   USBFS_configuration: Contains current configuration number
 591:.\Generated_Source\PSoC5/USBFS.c **** *       which is set by the Host using SET_CONFIGURATION request.
 592:.\Generated_Source\PSoC5/USBFS.c **** *       Initialized to zero in this API.
 593:.\Generated_Source\PSoC5/USBFS.c **** *   USBFS_deviceAddress: Contains current device address. This
 594:.\Generated_Source\PSoC5/USBFS.c **** *       variable is initialized to zero in this API. Host starts to communicate
 595:.\Generated_Source\PSoC5/USBFS.c **** *      to device with address 0 and then set it to whatever value using
 596:.\Generated_Source\PSoC5/USBFS.c **** *      SET_ADDRESS request.
 597:.\Generated_Source\PSoC5/USBFS.c **** *   USBFS_deviceStatus: initialized to 0.
 598:.\Generated_Source\PSoC5/USBFS.c **** *       This is two bit variable which contain power status in first bit
 599:.\Generated_Source\PSoC5/USBFS.c **** *       (DEVICE_STATUS_BUS_POWERED or DEVICE_STATUS_SELF_POWERED) and remote
 600:.\Generated_Source\PSoC5/USBFS.c **** *       wakeup status (DEVICE_STATUS_REMOTE_WAKEUP) in second bit.
 601:.\Generated_Source\PSoC5/USBFS.c **** *   USBFS_configurationChanged: This variable is set to one after
 602:.\Generated_Source\PSoC5/USBFS.c **** *       SET_CONFIGURATION request and cleared in this function.
 603:.\Generated_Source\PSoC5/USBFS.c **** *   USBFS_intiVar variable is set to zero
 604:.\Generated_Source\PSoC5/USBFS.c **** *
 605:.\Generated_Source\PSoC5/USBFS.c **** *******************************************************************************/
 606:.\Generated_Source\PSoC5/USBFS.c **** void USBFS_Stop(void) 
 607:.\Generated_Source\PSoC5/USBFS.c **** {
 558              		.loc 1 607 0
 559              		.cfi_startproc
 560              		@ args = 0, pretend = 0, frame = 0
 561              		@ frame_needed = 1, uses_anonymous_args = 0
 562              		@ link register save eliminated.
 563 0000 80B4     		push	{r7}
 564              	.LCFI12:
 565              		.cfi_def_cfa_offset 4
 566 0002 00AF     		add	r7, sp, #0
 567              		.cfi_offset 7, -4
 568              	.LCFI13:
 569              		.cfi_def_cfa_register 7
 608:.\Generated_Source\PSoC5/USBFS.c **** 
 609:.\Generated_Source\PSoC5/USBFS.c ****     #if(USBFS_EP_MM != USBFS__EP_MANUAL)
 610:.\Generated_Source\PSoC5/USBFS.c ****         USBFS_Stop_DMA(USBFS_MAX_EP);     /* Stop all DMAs */
 611:.\Generated_Source\PSoC5/USBFS.c ****     #endif   /* End USBFS_EP_MM != USBFS__EP_MANUAL */
 612:.\Generated_Source\PSoC5/USBFS.c **** 
 613:.\Generated_Source\PSoC5/USBFS.c ****     /* Disable the SIE */
 614:.\Generated_Source\PSoC5/USBFS.c ****     USBFS_CR0_REG &= ~USBFS_CR0_ENABLE;
 570              		.loc 1 614 0
 571 0004 46F20803 		movw	r3, #:lower16:1073766408
 572 0008 C4F20003 		movt	r3, #:upper16:1073766408
 573 000c 46F20802 		movw	r2, #:lower16:1073766408
 574 0010 C4F20002 		movt	r2, #:upper16:1073766408
 575 0014 1278     		ldrb	r2, [r2, #0]
 576 0016 D2B2     		uxtb	r2, r2
 577 0018 02F07F02 		and	r2, r2, #127
 578 001c 1A70     		strb	r2, [r3, #0]
 615:.\Generated_Source\PSoC5/USBFS.c ****     /* Disable the d+ pullup */
ARM GAS  C:\DOCUME~1\ADMINI~1\LOCALS~1\Temp\ccIwl9aE.s 			page 22


 616:.\Generated_Source\PSoC5/USBFS.c ****     USBFS_USBIO_CR1_REG &= ~USBFS_USBIO_CR1_USBPUEN;
 579              		.loc 1 616 0
 580 001e 46F21203 		movw	r3, #:lower16:1073766418
 581 0022 C4F20003 		movt	r3, #:upper16:1073766418
 582 0026 46F21202 		movw	r2, #:lower16:1073766418
 583 002a C4F20002 		movt	r2, #:upper16:1073766418
 584 002e 1278     		ldrb	r2, [r2, #0]
 585 0030 D2B2     		uxtb	r2, r2
 586 0032 02F0FB02 		and	r2, r2, #251
 587 0036 1A70     		strb	r2, [r3, #0]
 617:.\Generated_Source\PSoC5/USBFS.c ****     #if(CY_PSOC5A)
 618:.\Generated_Source\PSoC5/USBFS.c ****         /* Disable USBIO block*/
 619:.\Generated_Source\PSoC5/USBFS.c ****         USBFS_PM_AVAIL_CR_REG &= ~USBFS_PM_AVAIL_EN_FSUSBIO;
 620:.\Generated_Source\PSoC5/USBFS.c ****     #endif /* End CY_PSOC5A */    
 621:.\Generated_Source\PSoC5/USBFS.c ****     /* Disable USB in ACT PM */
 622:.\Generated_Source\PSoC5/USBFS.c ****     USBFS_PM_ACT_CFG_REG &= ~USBFS_PM_ACT_EN_FSUSB;
 588              		.loc 1 622 0
 589 0038 44F2A533 		movw	r3, #:lower16:1073759141
 590 003c C4F20003 		movt	r3, #:upper16:1073759141
 591 0040 44F2A532 		movw	r2, #:lower16:1073759141
 592 0044 C4F20002 		movt	r2, #:upper16:1073759141
 593 0048 1278     		ldrb	r2, [r2, #0]
 594 004a D2B2     		uxtb	r2, r2
 595 004c 02F0FE02 		and	r2, r2, #254
 596 0050 1A70     		strb	r2, [r3, #0]
 623:.\Generated_Source\PSoC5/USBFS.c ****     /* Disable USB block for Standby Power Mode */
 624:.\Generated_Source\PSoC5/USBFS.c ****     USBFS_PM_STBY_CFG_REG &= ~USBFS_PM_STBY_EN_FSUSB;
 597              		.loc 1 624 0
 598 0052 44F2B533 		movw	r3, #:lower16:1073759157
 599 0056 C4F20003 		movt	r3, #:upper16:1073759157
 600 005a 44F2B532 		movw	r2, #:lower16:1073759157
 601 005e C4F20002 		movt	r2, #:upper16:1073759157
 602 0062 1278     		ldrb	r2, [r2, #0]
 603 0064 D2B2     		uxtb	r2, r2
 604 0066 02F0FE02 		and	r2, r2, #254
 605 006a 1A70     		strb	r2, [r3, #0]
 625:.\Generated_Source\PSoC5/USBFS.c **** 
 626:.\Generated_Source\PSoC5/USBFS.c ****     /* Disable the reset and EP interrupts */
 627:.\Generated_Source\PSoC5/USBFS.c ****     CyIntDisable(USBFS_BUS_RESET_VECT_NUM);
 606              		.loc 1 627 0
 607 006c 4EF28013 		movw	r3, #:lower16:-536813184
 608 0070 CEF20003 		movt	r3, #:upper16:-536813184
 609 0074 4FF40002 		mov	r2, #8388608
 610 0078 1A60     		str	r2, [r3, #0]
 628:.\Generated_Source\PSoC5/USBFS.c ****     CyIntDisable(USBFS_EP_0_VECT_NUM);
 611              		.loc 1 628 0
 612 007a 4EF28013 		movw	r3, #:lower16:-536813184
 613 007e CEF20003 		movt	r3, #:upper16:-536813184
 614 0082 4FF08072 		mov	r2, #16777216
 615 0086 1A60     		str	r2, [r3, #0]
 629:.\Generated_Source\PSoC5/USBFS.c ****     #if(USBFS_EP1_ISR_REMOVE == 0u)
 630:.\Generated_Source\PSoC5/USBFS.c ****         CyIntDisable(USBFS_EP_1_VECT_NUM);
 616              		.loc 1 630 0
 617 0088 4EF28013 		movw	r3, #:lower16:-536813184
 618 008c CEF20003 		movt	r3, #:upper16:-536813184
 619 0090 4FF00102 		mov	r2, #1
 620 0094 1A60     		str	r2, [r3, #0]
ARM GAS  C:\DOCUME~1\ADMINI~1\LOCALS~1\Temp\ccIwl9aE.s 			page 23


 631:.\Generated_Source\PSoC5/USBFS.c ****     #endif   /* End USBFS_EP1_ISR_REMOVE */
 632:.\Generated_Source\PSoC5/USBFS.c ****     #if(USBFS_EP2_ISR_REMOVE == 0u)
 633:.\Generated_Source\PSoC5/USBFS.c ****         CyIntDisable(USBFS_EP_2_VECT_NUM);
 621              		.loc 1 633 0
 622 0096 4EF28013 		movw	r3, #:lower16:-536813184
 623 009a CEF20003 		movt	r3, #:upper16:-536813184
 624 009e 4FF00202 		mov	r2, #2
 625 00a2 1A60     		str	r2, [r3, #0]
 634:.\Generated_Source\PSoC5/USBFS.c ****     #endif   /* End USBFS_EP2_ISR_REMOVE */
 635:.\Generated_Source\PSoC5/USBFS.c ****     #if(USBFS_EP3_ISR_REMOVE == 0u)
 636:.\Generated_Source\PSoC5/USBFS.c ****         CyIntDisable(USBFS_EP_3_VECT_NUM);
 637:.\Generated_Source\PSoC5/USBFS.c ****     #endif   /* End USBFS_EP3_ISR_REMOVE */
 638:.\Generated_Source\PSoC5/USBFS.c ****     #if(USBFS_EP4_ISR_REMOVE == 0u)
 639:.\Generated_Source\PSoC5/USBFS.c ****         CyIntDisable(USBFS_EP_4_VECT_NUM);
 640:.\Generated_Source\PSoC5/USBFS.c ****     #endif   /* End USBFS_EP4_ISR_REMOVE */
 641:.\Generated_Source\PSoC5/USBFS.c ****     #if(USBFS_EP5_ISR_REMOVE == 0u)
 642:.\Generated_Source\PSoC5/USBFS.c ****         CyIntDisable(USBFS_EP_5_VECT_NUM);
 643:.\Generated_Source\PSoC5/USBFS.c ****     #endif   /* End USBFS_EP5_ISR_REMOVE */
 644:.\Generated_Source\PSoC5/USBFS.c ****     #if(USBFS_EP6_ISR_REMOVE == 0u)
 645:.\Generated_Source\PSoC5/USBFS.c ****         CyIntDisable(USBFS_EP_6_VECT_NUM);
 646:.\Generated_Source\PSoC5/USBFS.c ****     #endif   /* End USBFS_EP6_ISR_REMOVE */
 647:.\Generated_Source\PSoC5/USBFS.c ****     #if(USBFS_EP7_ISR_REMOVE == 0u)
 648:.\Generated_Source\PSoC5/USBFS.c ****         CyIntDisable(USBFS_EP_7_VECT_NUM);
 649:.\Generated_Source\PSoC5/USBFS.c ****     #endif   /* End USBFS_EP7_ISR_REMOVE */
 650:.\Generated_Source\PSoC5/USBFS.c ****     #if(USBFS_EP8_ISR_REMOVE == 0u)
 651:.\Generated_Source\PSoC5/USBFS.c ****         CyIntDisable(USBFS_EP_8_VECT_NUM);
 652:.\Generated_Source\PSoC5/USBFS.c ****     #endif   /* End USBFS_EP8_ISR_REMOVE */
 653:.\Generated_Source\PSoC5/USBFS.c **** 
 654:.\Generated_Source\PSoC5/USBFS.c ****     /* Clear all of the component data */
 655:.\Generated_Source\PSoC5/USBFS.c ****     USBFS_configuration = 0u;
 626              		.loc 1 655 0
 627 00a4 40F20003 		movw	r3, #:lower16:USBFS_configuration
 628 00a8 C0F20003 		movt	r3, #:upper16:USBFS_configuration
 629 00ac 4FF00002 		mov	r2, #0
 630 00b0 1A70     		strb	r2, [r3, #0]
 656:.\Generated_Source\PSoC5/USBFS.c ****     USBFS_interfaceNumber = 0u;
 631              		.loc 1 656 0
 632 00b2 40F20003 		movw	r3, #:lower16:USBFS_interfaceNumber
 633 00b6 C0F20003 		movt	r3, #:upper16:USBFS_interfaceNumber
 634 00ba 4FF00002 		mov	r2, #0
 635 00be 1A70     		strb	r2, [r3, #0]
 657:.\Generated_Source\PSoC5/USBFS.c ****     USBFS_configurationChanged = 0u;
 636              		.loc 1 657 0
 637 00c0 40F20003 		movw	r3, #:lower16:USBFS_configurationChanged
 638 00c4 C0F20003 		movt	r3, #:upper16:USBFS_configurationChanged
 639 00c8 4FF00002 		mov	r2, #0
 640 00cc 1A70     		strb	r2, [r3, #0]
 658:.\Generated_Source\PSoC5/USBFS.c ****     USBFS_deviceAddress  = 0u;
 641              		.loc 1 658 0
 642 00ce 40F20003 		movw	r3, #:lower16:USBFS_deviceAddress
 643 00d2 C0F20003 		movt	r3, #:upper16:USBFS_deviceAddress
 644 00d6 4FF00002 		mov	r2, #0
 645 00da 1A70     		strb	r2, [r3, #0]
 659:.\Generated_Source\PSoC5/USBFS.c ****     USBFS_deviceStatus = 0u;
 646              		.loc 1 659 0
 647 00dc 40F20003 		movw	r3, #:lower16:USBFS_deviceStatus
 648 00e0 C0F20003 		movt	r3, #:upper16:USBFS_deviceStatus
ARM GAS  C:\DOCUME~1\ADMINI~1\LOCALS~1\Temp\ccIwl9aE.s 			page 24


 649 00e4 4FF00002 		mov	r2, #0
 650 00e8 1A70     		strb	r2, [r3, #0]
 660:.\Generated_Source\PSoC5/USBFS.c ****     USBFS_initVar = 0u;
 651              		.loc 1 660 0
 652 00ea 40F20003 		movw	r3, #:lower16:USBFS_initVar
 653 00ee C0F20003 		movt	r3, #:upper16:USBFS_initVar
 654 00f2 4FF00002 		mov	r2, #0
 655 00f6 1A70     		strb	r2, [r3, #0]
 661:.\Generated_Source\PSoC5/USBFS.c **** 
 662:.\Generated_Source\PSoC5/USBFS.c **** }
 656              		.loc 1 662 0
 657 00f8 BD46     		mov	sp, r7
 658 00fa 80BC     		pop	{r7}
 659 00fc 7047     		bx	lr
 660              		.cfi_endproc
 661              	.LFE4:
 662              		.size	USBFS_Stop, .-USBFS_Stop
 663 00fe 00BF     		.section	.text.USBFS_CheckActivity,"ax",%progbits
 664              		.align	2
 665              		.global	USBFS_CheckActivity
 666              		.thumb
 667              		.thumb_func
 668              		.type	USBFS_CheckActivity, %function
 669              	USBFS_CheckActivity:
 670              	.LFB5:
 663:.\Generated_Source\PSoC5/USBFS.c **** 
 664:.\Generated_Source\PSoC5/USBFS.c **** 
 665:.\Generated_Source\PSoC5/USBFS.c **** /*******************************************************************************
 666:.\Generated_Source\PSoC5/USBFS.c **** * Function Name: USBFS_CheckActivity
 667:.\Generated_Source\PSoC5/USBFS.c **** ********************************************************************************
 668:.\Generated_Source\PSoC5/USBFS.c **** *
 669:.\Generated_Source\PSoC5/USBFS.c **** * Summary:
 670:.\Generated_Source\PSoC5/USBFS.c **** *  Returns the activity status of the bus.  Clears the status hardware to
 671:.\Generated_Source\PSoC5/USBFS.c **** *  provide fresh activity status on the next call of this routine.
 672:.\Generated_Source\PSoC5/USBFS.c **** *
 673:.\Generated_Source\PSoC5/USBFS.c **** * Parameters:
 674:.\Generated_Source\PSoC5/USBFS.c **** *  None.
 675:.\Generated_Source\PSoC5/USBFS.c **** *
 676:.\Generated_Source\PSoC5/USBFS.c **** * Return:
 677:.\Generated_Source\PSoC5/USBFS.c **** *  1 - If bus activity was detected since the last call to this function
 678:.\Generated_Source\PSoC5/USBFS.c **** *  0 - If bus activity not was detected since the last call to this function
 679:.\Generated_Source\PSoC5/USBFS.c **** *
 680:.\Generated_Source\PSoC5/USBFS.c **** *******************************************************************************/
 681:.\Generated_Source\PSoC5/USBFS.c **** uint8 USBFS_CheckActivity(void) 
 682:.\Generated_Source\PSoC5/USBFS.c **** {
 671              		.loc 1 682 0
 672              		.cfi_startproc
 673              		@ args = 0, pretend = 0, frame = 8
 674              		@ frame_needed = 1, uses_anonymous_args = 0
 675              		@ link register save eliminated.
 676 0000 80B4     		push	{r7}
 677              	.LCFI14:
 678              		.cfi_def_cfa_offset 4
 679 0002 83B0     		sub	sp, sp, #12
 680              	.LCFI15:
 681              		.cfi_def_cfa_offset 16
 682 0004 00AF     		add	r7, sp, #0
ARM GAS  C:\DOCUME~1\ADMINI~1\LOCALS~1\Temp\ccIwl9aE.s 			page 25


 683              		.cfi_offset 7, -4
 684              	.LCFI16:
 685              		.cfi_def_cfa_register 7
 683:.\Generated_Source\PSoC5/USBFS.c ****     uint8 r;
 684:.\Generated_Source\PSoC5/USBFS.c **** 
 685:.\Generated_Source\PSoC5/USBFS.c ****     r = CY_GET_REG8(USBFS_CR1_PTR);
 686              		.loc 1 685 0
 687 0006 46F20903 		movw	r3, #:lower16:1073766409
 688 000a C4F20003 		movt	r3, #:upper16:1073766409
 689 000e 1B78     		ldrb	r3, [r3, #0]
 690 0010 FB71     		strb	r3, [r7, #7]
 686:.\Generated_Source\PSoC5/USBFS.c ****     CY_SET_REG8(USBFS_CR1_PTR, (r & ~USBFS_CR1_BUS_ACTIVITY));
 691              		.loc 1 686 0
 692 0012 46F20903 		movw	r3, #:lower16:1073766409
 693 0016 C4F20003 		movt	r3, #:upper16:1073766409
 694 001a FA79     		ldrb	r2, [r7, #7]	@ zero_extendqisi2
 695 001c 02F0FB02 		and	r2, r2, #251
 696 0020 1A70     		strb	r2, [r3, #0]
 687:.\Generated_Source\PSoC5/USBFS.c **** 
 688:.\Generated_Source\PSoC5/USBFS.c ****     return((r & USBFS_CR1_BUS_ACTIVITY) >> USBFS_CR1_BUS_ACTIVITY_SHIFT);
 697              		.loc 1 688 0
 698 0022 FB79     		ldrb	r3, [r7, #7]	@ zero_extendqisi2
 699 0024 03F00403 		and	r3, r3, #4
 700 0028 4FEA9303 		lsr	r3, r3, #2
 701 002c DBB2     		uxtb	r3, r3
 689:.\Generated_Source\PSoC5/USBFS.c **** }
 702              		.loc 1 689 0
 703 002e 1846     		mov	r0, r3
 704 0030 07F10C07 		add	r7, r7, #12
 705 0034 BD46     		mov	sp, r7
 706 0036 80BC     		pop	{r7}
 707 0038 7047     		bx	lr
 708              		.cfi_endproc
 709              	.LFE5:
 710              		.size	USBFS_CheckActivity, .-USBFS_CheckActivity
 711 003a 00BF     		.section	.text.USBFS_GetConfiguration,"ax",%progbits
 712              		.align	2
 713              		.global	USBFS_GetConfiguration
 714              		.thumb
 715              		.thumb_func
 716              		.type	USBFS_GetConfiguration, %function
 717              	USBFS_GetConfiguration:
 718              	.LFB6:
 690:.\Generated_Source\PSoC5/USBFS.c **** 
 691:.\Generated_Source\PSoC5/USBFS.c **** 
 692:.\Generated_Source\PSoC5/USBFS.c **** /*******************************************************************************
 693:.\Generated_Source\PSoC5/USBFS.c **** * Function Name: USBFS_GetConfiguration
 694:.\Generated_Source\PSoC5/USBFS.c **** ********************************************************************************
 695:.\Generated_Source\PSoC5/USBFS.c **** *
 696:.\Generated_Source\PSoC5/USBFS.c **** * Summary:
 697:.\Generated_Source\PSoC5/USBFS.c **** *  Returns the current configuration setting
 698:.\Generated_Source\PSoC5/USBFS.c **** *
 699:.\Generated_Source\PSoC5/USBFS.c **** * Parameters:
 700:.\Generated_Source\PSoC5/USBFS.c **** *  None.
 701:.\Generated_Source\PSoC5/USBFS.c **** *
 702:.\Generated_Source\PSoC5/USBFS.c **** * Return:
 703:.\Generated_Source\PSoC5/USBFS.c **** *  configuration.
ARM GAS  C:\DOCUME~1\ADMINI~1\LOCALS~1\Temp\ccIwl9aE.s 			page 26


 704:.\Generated_Source\PSoC5/USBFS.c **** *
 705:.\Generated_Source\PSoC5/USBFS.c **** *******************************************************************************/
 706:.\Generated_Source\PSoC5/USBFS.c **** uint8 USBFS_GetConfiguration(void) 
 707:.\Generated_Source\PSoC5/USBFS.c **** {
 719              		.loc 1 707 0
 720              		.cfi_startproc
 721              		@ args = 0, pretend = 0, frame = 0
 722              		@ frame_needed = 1, uses_anonymous_args = 0
 723              		@ link register save eliminated.
 724 0000 80B4     		push	{r7}
 725              	.LCFI17:
 726              		.cfi_def_cfa_offset 4
 727 0002 00AF     		add	r7, sp, #0
 728              		.cfi_offset 7, -4
 729              	.LCFI18:
 730              		.cfi_def_cfa_register 7
 708:.\Generated_Source\PSoC5/USBFS.c ****     return(USBFS_configuration);
 731              		.loc 1 708 0
 732 0004 40F20003 		movw	r3, #:lower16:USBFS_configuration
 733 0008 C0F20003 		movt	r3, #:upper16:USBFS_configuration
 734 000c 1B78     		ldrb	r3, [r3, #0]
 735 000e DBB2     		uxtb	r3, r3
 709:.\Generated_Source\PSoC5/USBFS.c **** }
 736              		.loc 1 709 0
 737 0010 1846     		mov	r0, r3
 738 0012 BD46     		mov	sp, r7
 739 0014 80BC     		pop	{r7}
 740 0016 7047     		bx	lr
 741              		.cfi_endproc
 742              	.LFE6:
 743              		.size	USBFS_GetConfiguration, .-USBFS_GetConfiguration
 744              		.section	.text.USBFS_IsConfigurationChanged,"ax",%progbits
 745              		.align	2
 746              		.global	USBFS_IsConfigurationChanged
 747              		.thumb
 748              		.thumb_func
 749              		.type	USBFS_IsConfigurationChanged, %function
 750              	USBFS_IsConfigurationChanged:
 751              	.LFB7:
 710:.\Generated_Source\PSoC5/USBFS.c **** 
 711:.\Generated_Source\PSoC5/USBFS.c **** 
 712:.\Generated_Source\PSoC5/USBFS.c **** /*******************************************************************************
 713:.\Generated_Source\PSoC5/USBFS.c **** * Function Name: USBFS_IsConfigurationChanged
 714:.\Generated_Source\PSoC5/USBFS.c **** ********************************************************************************
 715:.\Generated_Source\PSoC5/USBFS.c **** *
 716:.\Generated_Source\PSoC5/USBFS.c **** * Summary:
 717:.\Generated_Source\PSoC5/USBFS.c **** *  Returns the clear on read configuration state. It is usefull when PC send
 718:.\Generated_Source\PSoC5/USBFS.c **** *  double SET_CONFIGURATION request with same configuration number.
 719:.\Generated_Source\PSoC5/USBFS.c **** *
 720:.\Generated_Source\PSoC5/USBFS.c **** * Parameters:
 721:.\Generated_Source\PSoC5/USBFS.c **** *  None.
 722:.\Generated_Source\PSoC5/USBFS.c **** *
 723:.\Generated_Source\PSoC5/USBFS.c **** * Return:
 724:.\Generated_Source\PSoC5/USBFS.c **** *  Not zero value when new configuration has been changed, otherwise zero is
 725:.\Generated_Source\PSoC5/USBFS.c **** *  returned.
 726:.\Generated_Source\PSoC5/USBFS.c **** *
 727:.\Generated_Source\PSoC5/USBFS.c **** * Global variables:
ARM GAS  C:\DOCUME~1\ADMINI~1\LOCALS~1\Temp\ccIwl9aE.s 			page 27


 728:.\Generated_Source\PSoC5/USBFS.c **** *   USBFS_configurationChanged: This variable is set to one after
 729:.\Generated_Source\PSoC5/USBFS.c **** *       SET_CONFIGURATION request and cleared in this function.
 730:.\Generated_Source\PSoC5/USBFS.c **** *
 731:.\Generated_Source\PSoC5/USBFS.c **** *******************************************************************************/
 732:.\Generated_Source\PSoC5/USBFS.c **** uint8 USBFS_IsConfigurationChanged(void) 
 733:.\Generated_Source\PSoC5/USBFS.c **** {
 752              		.loc 1 733 0
 753              		.cfi_startproc
 754              		@ args = 0, pretend = 0, frame = 8
 755              		@ frame_needed = 1, uses_anonymous_args = 0
 756              		@ link register save eliminated.
 757 0000 80B4     		push	{r7}
 758              	.LCFI19:
 759              		.cfi_def_cfa_offset 4
 760 0002 83B0     		sub	sp, sp, #12
 761              	.LCFI20:
 762              		.cfi_def_cfa_offset 16
 763 0004 00AF     		add	r7, sp, #0
 764              		.cfi_offset 7, -4
 765              	.LCFI21:
 766              		.cfi_def_cfa_register 7
 734:.\Generated_Source\PSoC5/USBFS.c ****     uint8 res = 0u;
 767              		.loc 1 734 0
 768 0006 4FF00003 		mov	r3, #0
 769 000a FB71     		strb	r3, [r7, #7]
 735:.\Generated_Source\PSoC5/USBFS.c **** 
 736:.\Generated_Source\PSoC5/USBFS.c ****     if(USBFS_configurationChanged != 0u)
 770              		.loc 1 736 0
 771 000c 40F20003 		movw	r3, #:lower16:USBFS_configurationChanged
 772 0010 C0F20003 		movt	r3, #:upper16:USBFS_configurationChanged
 773 0014 1B78     		ldrb	r3, [r3, #0]
 774 0016 DBB2     		uxtb	r3, r3
 775 0018 002B     		cmp	r3, #0
 776 001a 0CD0     		beq	.L26
 737:.\Generated_Source\PSoC5/USBFS.c ****     {
 738:.\Generated_Source\PSoC5/USBFS.c ****         res = USBFS_configurationChanged;
 777              		.loc 1 738 0
 778 001c 40F20003 		movw	r3, #:lower16:USBFS_configurationChanged
 779 0020 C0F20003 		movt	r3, #:upper16:USBFS_configurationChanged
 780 0024 1B78     		ldrb	r3, [r3, #0]
 781 0026 FB71     		strb	r3, [r7, #7]
 739:.\Generated_Source\PSoC5/USBFS.c ****         USBFS_configurationChanged = 0u;
 782              		.loc 1 739 0
 783 0028 40F20003 		movw	r3, #:lower16:USBFS_configurationChanged
 784 002c C0F20003 		movt	r3, #:upper16:USBFS_configurationChanged
 785 0030 4FF00002 		mov	r2, #0
 786 0034 1A70     		strb	r2, [r3, #0]
 787              	.L26:
 740:.\Generated_Source\PSoC5/USBFS.c ****     }
 741:.\Generated_Source\PSoC5/USBFS.c **** 
 742:.\Generated_Source\PSoC5/USBFS.c ****     return(res);
 788              		.loc 1 742 0
 789 0036 FB79     		ldrb	r3, [r7, #7]	@ zero_extendqisi2
 743:.\Generated_Source\PSoC5/USBFS.c **** }
 790              		.loc 1 743 0
 791 0038 1846     		mov	r0, r3
 792 003a 07F10C07 		add	r7, r7, #12
ARM GAS  C:\DOCUME~1\ADMINI~1\LOCALS~1\Temp\ccIwl9aE.s 			page 28


 793 003e BD46     		mov	sp, r7
 794 0040 80BC     		pop	{r7}
 795 0042 7047     		bx	lr
 796              		.cfi_endproc
 797              	.LFE7:
 798              		.size	USBFS_IsConfigurationChanged, .-USBFS_IsConfigurationChanged
 799              		.section	.text.USBFS_GetInterfaceSetting,"ax",%progbits
 800              		.align	2
 801              		.global	USBFS_GetInterfaceSetting
 802              		.thumb
 803              		.thumb_func
 804              		.type	USBFS_GetInterfaceSetting, %function
 805              	USBFS_GetInterfaceSetting:
 806              	.LFB8:
 744:.\Generated_Source\PSoC5/USBFS.c **** 
 745:.\Generated_Source\PSoC5/USBFS.c **** 
 746:.\Generated_Source\PSoC5/USBFS.c **** /*******************************************************************************
 747:.\Generated_Source\PSoC5/USBFS.c **** * Function Name: USBFS_GetInterfaceSetting
 748:.\Generated_Source\PSoC5/USBFS.c **** ********************************************************************************
 749:.\Generated_Source\PSoC5/USBFS.c **** *
 750:.\Generated_Source\PSoC5/USBFS.c **** * Summary:
 751:.\Generated_Source\PSoC5/USBFS.c **** *  Returns the alternate setting from current interface
 752:.\Generated_Source\PSoC5/USBFS.c **** *
 753:.\Generated_Source\PSoC5/USBFS.c **** * Parameters:
 754:.\Generated_Source\PSoC5/USBFS.c **** *  uint8 interfaceNumber, interface number
 755:.\Generated_Source\PSoC5/USBFS.c **** *
 756:.\Generated_Source\PSoC5/USBFS.c **** * Return:
 757:.\Generated_Source\PSoC5/USBFS.c **** *  Alternate setting.
 758:.\Generated_Source\PSoC5/USBFS.c **** *
 759:.\Generated_Source\PSoC5/USBFS.c **** *******************************************************************************/
 760:.\Generated_Source\PSoC5/USBFS.c **** uint8  USBFS_GetInterfaceSetting(uint8 interfaceNumber)
 761:.\Generated_Source\PSoC5/USBFS.c ****                                                     
 762:.\Generated_Source\PSoC5/USBFS.c **** {
 807              		.loc 1 762 0
 808              		.cfi_startproc
 809              		@ args = 0, pretend = 0, frame = 8
 810              		@ frame_needed = 1, uses_anonymous_args = 0
 811              		@ link register save eliminated.
 812 0000 80B4     		push	{r7}
 813              	.LCFI22:
 814              		.cfi_def_cfa_offset 4
 815 0002 83B0     		sub	sp, sp, #12
 816              	.LCFI23:
 817              		.cfi_def_cfa_offset 16
 818 0004 00AF     		add	r7, sp, #0
 819              		.cfi_offset 7, -4
 820              	.LCFI24:
 821              		.cfi_def_cfa_register 7
 822 0006 0346     		mov	r3, r0
 823 0008 FB71     		strb	r3, [r7, #7]
 763:.\Generated_Source\PSoC5/USBFS.c ****     return(USBFS_interfaceSetting[interfaceNumber]);
 824              		.loc 1 763 0
 825 000a FA79     		ldrb	r2, [r7, #7]	@ zero_extendqisi2
 826 000c 40F20003 		movw	r3, #:lower16:USBFS_interfaceSetting
 827 0010 C0F20003 		movt	r3, #:upper16:USBFS_interfaceSetting
 828 0014 9B5C     		ldrb	r3, [r3, r2]
 829 0016 DBB2     		uxtb	r3, r3
ARM GAS  C:\DOCUME~1\ADMINI~1\LOCALS~1\Temp\ccIwl9aE.s 			page 29


 764:.\Generated_Source\PSoC5/USBFS.c **** }
 830              		.loc 1 764 0
 831 0018 1846     		mov	r0, r3
 832 001a 07F10C07 		add	r7, r7, #12
 833 001e BD46     		mov	sp, r7
 834 0020 80BC     		pop	{r7}
 835 0022 7047     		bx	lr
 836              		.cfi_endproc
 837              	.LFE8:
 838              		.size	USBFS_GetInterfaceSetting, .-USBFS_GetInterfaceSetting
 839              		.section	.text.USBFS_GetEPState,"ax",%progbits
 840              		.align	2
 841              		.global	USBFS_GetEPState
 842              		.thumb
 843              		.thumb_func
 844              		.type	USBFS_GetEPState, %function
 845              	USBFS_GetEPState:
 846              	.LFB9:
 765:.\Generated_Source\PSoC5/USBFS.c **** 
 766:.\Generated_Source\PSoC5/USBFS.c **** 
 767:.\Generated_Source\PSoC5/USBFS.c **** /*******************************************************************************
 768:.\Generated_Source\PSoC5/USBFS.c **** * Function Name: USBFS_GetEPState
 769:.\Generated_Source\PSoC5/USBFS.c **** ********************************************************************************
 770:.\Generated_Source\PSoC5/USBFS.c **** *
 771:.\Generated_Source\PSoC5/USBFS.c **** * Summary:
 772:.\Generated_Source\PSoC5/USBFS.c **** *  Returned the state of the requested endpoint.
 773:.\Generated_Source\PSoC5/USBFS.c **** *
 774:.\Generated_Source\PSoC5/USBFS.c **** * Parameters:
 775:.\Generated_Source\PSoC5/USBFS.c **** *  epNumber: Endpoint Number
 776:.\Generated_Source\PSoC5/USBFS.c **** *
 777:.\Generated_Source\PSoC5/USBFS.c **** * Return:
 778:.\Generated_Source\PSoC5/USBFS.c **** *  State of the requested endpoint.
 779:.\Generated_Source\PSoC5/USBFS.c **** *
 780:.\Generated_Source\PSoC5/USBFS.c **** *******************************************************************************/
 781:.\Generated_Source\PSoC5/USBFS.c **** uint8 USBFS_GetEPState(uint8 epNumber) 
 782:.\Generated_Source\PSoC5/USBFS.c **** {
 847              		.loc 1 782 0
 848              		.cfi_startproc
 849              		@ args = 0, pretend = 0, frame = 8
 850              		@ frame_needed = 1, uses_anonymous_args = 0
 851              		@ link register save eliminated.
 852 0000 80B4     		push	{r7}
 853              	.LCFI25:
 854              		.cfi_def_cfa_offset 4
 855 0002 83B0     		sub	sp, sp, #12
 856              	.LCFI26:
 857              		.cfi_def_cfa_offset 16
 858 0004 00AF     		add	r7, sp, #0
 859              		.cfi_offset 7, -4
 860              	.LCFI27:
 861              		.cfi_def_cfa_register 7
 862 0006 0346     		mov	r3, r0
 863 0008 FB71     		strb	r3, [r7, #7]
 783:.\Generated_Source\PSoC5/USBFS.c ****     return(USBFS_EP[epNumber].apiEpState);
 864              		.loc 1 783 0
 865 000a F979     		ldrb	r1, [r7, #7]	@ zero_extendqisi2
 866 000c 40F20002 		movw	r2, #:lower16:USBFS_EP
ARM GAS  C:\DOCUME~1\ADMINI~1\LOCALS~1\Temp\ccIwl9aE.s 			page 30


 867 0010 C0F20002 		movt	r2, #:upper16:USBFS_EP
 868 0014 0B46     		mov	r3, r1
 869 0016 4FEA4303 		lsl	r3, r3, #1
 870 001a 0B44     		add	r3, r3, r1
 871 001c 4FEA8303 		lsl	r3, r3, #2
 872 0020 1344     		add	r3, r3, r2
 873 0022 5B78     		ldrb	r3, [r3, #1]
 874 0024 DBB2     		uxtb	r3, r3
 784:.\Generated_Source\PSoC5/USBFS.c **** }
 875              		.loc 1 784 0
 876 0026 1846     		mov	r0, r3
 877 0028 07F10C07 		add	r7, r7, #12
 878 002c BD46     		mov	sp, r7
 879 002e 80BC     		pop	{r7}
 880 0030 7047     		bx	lr
 881              		.cfi_endproc
 882              	.LFE9:
 883              		.size	USBFS_GetEPState, .-USBFS_GetEPState
 884 0032 00BF     		.section	.text.USBFS_GetEPCount,"ax",%progbits
 885              		.align	2
 886              		.global	USBFS_GetEPCount
 887              		.thumb
 888              		.thumb_func
 889              		.type	USBFS_GetEPCount, %function
 890              	USBFS_GetEPCount:
 891              	.LFB10:
 785:.\Generated_Source\PSoC5/USBFS.c **** 
 786:.\Generated_Source\PSoC5/USBFS.c **** 
 787:.\Generated_Source\PSoC5/USBFS.c **** /*******************************************************************************
 788:.\Generated_Source\PSoC5/USBFS.c **** * Function Name: USBFS_GetEPCount
 789:.\Generated_Source\PSoC5/USBFS.c **** ********************************************************************************
 790:.\Generated_Source\PSoC5/USBFS.c **** *
 791:.\Generated_Source\PSoC5/USBFS.c **** * Summary:
 792:.\Generated_Source\PSoC5/USBFS.c **** *  This function supports Data Endpoints only(EP1-EP8).
 793:.\Generated_Source\PSoC5/USBFS.c **** *  Returns the transfer count for the requested endpoint.  The value from
 794:.\Generated_Source\PSoC5/USBFS.c **** *  the count registers includes 2 counts for the two byte checksum of the
 795:.\Generated_Source\PSoC5/USBFS.c **** *  packet.  This function subtracts the two counts.
 796:.\Generated_Source\PSoC5/USBFS.c **** *
 797:.\Generated_Source\PSoC5/USBFS.c **** * Parameters:
 798:.\Generated_Source\PSoC5/USBFS.c **** *  epNumber: Data Endpoint Number.
 799:.\Generated_Source\PSoC5/USBFS.c **** *            Valid values are between 1 and 8.
 800:.\Generated_Source\PSoC5/USBFS.c **** *
 801:.\Generated_Source\PSoC5/USBFS.c **** * Return:
 802:.\Generated_Source\PSoC5/USBFS.c **** *  Returns the current byte count from the specified endpoin or 0 for an
 803:.\Generated_Source\PSoC5/USBFS.c **** *  invalid endpoint.
 804:.\Generated_Source\PSoC5/USBFS.c **** *
 805:.\Generated_Source\PSoC5/USBFS.c **** *******************************************************************************/
 806:.\Generated_Source\PSoC5/USBFS.c **** uint16 USBFS_GetEPCount(uint8 epNumber) 
 807:.\Generated_Source\PSoC5/USBFS.c **** {
 892              		.loc 1 807 0
 893              		.cfi_startproc
 894              		@ args = 0, pretend = 0, frame = 16
 895              		@ frame_needed = 1, uses_anonymous_args = 0
 896              		@ link register save eliminated.
 897 0000 80B4     		push	{r7}
 898              	.LCFI28:
 899              		.cfi_def_cfa_offset 4
ARM GAS  C:\DOCUME~1\ADMINI~1\LOCALS~1\Temp\ccIwl9aE.s 			page 31


 900 0002 85B0     		sub	sp, sp, #20
 901              	.LCFI29:
 902              		.cfi_def_cfa_offset 24
 903 0004 00AF     		add	r7, sp, #0
 904              		.cfi_offset 7, -4
 905              	.LCFI30:
 906              		.cfi_def_cfa_register 7
 907 0006 0346     		mov	r3, r0
 908 0008 FB71     		strb	r3, [r7, #7]
 808:.\Generated_Source\PSoC5/USBFS.c ****     uint8 ri;
 809:.\Generated_Source\PSoC5/USBFS.c ****     uint16 count = 0u;
 909              		.loc 1 809 0
 910 000a 4FF00003 		mov	r3, #0
 911 000e FB81     		strh	r3, [r7, #14]	@ movhi
 810:.\Generated_Source\PSoC5/USBFS.c **** 
 811:.\Generated_Source\PSoC5/USBFS.c ****     if((epNumber > USBFS_EP0) && (epNumber < USBFS_MAX_EP))
 912              		.loc 1 811 0
 913 0010 FB79     		ldrb	r3, [r7, #7]	@ zero_extendqisi2
 914 0012 002B     		cmp	r3, #0
 915 0014 24D0     		beq	.L33
 916 0016 FB79     		ldrb	r3, [r7, #7]	@ zero_extendqisi2
 917 0018 082B     		cmp	r3, #8
 918 001a 21D8     		bhi	.L33
 812:.\Generated_Source\PSoC5/USBFS.c ****     {
 813:.\Generated_Source\PSoC5/USBFS.c ****         ri = ((epNumber - USBFS_EP1) << USBFS_EPX_CNTX_ADDR_SHIFT);
 919              		.loc 1 813 0
 920 001c FB79     		ldrb	r3, [r7, #7]
 921 001e 03F1FF33 		add	r3, r3, #-1
 922 0022 DBB2     		uxtb	r3, r3
 923 0024 4FEA0313 		lsl	r3, r3, #4
 924 0028 7B73     		strb	r3, [r7, #13]
 814:.\Generated_Source\PSoC5/USBFS.c **** 
 815:.\Generated_Source\PSoC5/USBFS.c ****         count = ((uint16)((CY_GET_REG8(&USBFS_SIE_EP1_CNT0_PTR[ri]) & USBFS_EPX_CNT0_MASK) << 8u)
 925              		.loc 1 815 0
 926 002a 7A7B     		ldrb	r2, [r7, #13]	@ zero_extendqisi2
 927 002c 46F20C03 		movw	r3, #:lower16:1073766412
 928 0030 C4F20003 		movt	r3, #:upper16:1073766412
 929 0034 1344     		add	r3, r2, r3
 930 0036 1B78     		ldrb	r3, [r3, #0]
 931 0038 DBB2     		uxtb	r3, r3
 932 003a 03F00703 		and	r3, r3, #7
 933 003e 4FEA0323 		lsl	r3, r3, #8
 934 0042 9AB2     		uxth	r2, r3
 816:.\Generated_Source\PSoC5/USBFS.c ****                          | CY_GET_REG8(&USBFS_SIE_EP1_CNT1_PTR[ri]))
 935              		.loc 1 816 0
 936 0044 797B     		ldrb	r1, [r7, #13]	@ zero_extendqisi2
 937 0046 46F20D03 		movw	r3, #:lower16:1073766413
 938 004a C4F20003 		movt	r3, #:upper16:1073766413
 939 004e 0B44     		add	r3, r1, r3
 940 0050 1B78     		ldrb	r3, [r3, #0]
 941 0052 DBB2     		uxtb	r3, r3
 942              		.loc 1 815 0
 943 0054 42EA0303 		orr	r3, r2, r3
 944 0058 9BB2     		uxth	r3, r3
 945 005a A3F10203 		sub	r3, r3, #2
 946 005e FB81     		strh	r3, [r7, #14]	@ movhi
 947              	.L33:
ARM GAS  C:\DOCUME~1\ADMINI~1\LOCALS~1\Temp\ccIwl9aE.s 			page 32


 817:.\Generated_Source\PSoC5/USBFS.c ****                          - USBFS_EPX_CNTX_CRC_COUNT;
 818:.\Generated_Source\PSoC5/USBFS.c ****     }
 819:.\Generated_Source\PSoC5/USBFS.c ****     return(count);
 948              		.loc 1 819 0
 949 0060 FB89     		ldrh	r3, [r7, #14]
 820:.\Generated_Source\PSoC5/USBFS.c **** }
 950              		.loc 1 820 0
 951 0062 1846     		mov	r0, r3
 952 0064 07F11407 		add	r7, r7, #20
 953 0068 BD46     		mov	sp, r7
 954 006a 80BC     		pop	{r7}
 955 006c 7047     		bx	lr
 956              		.cfi_endproc
 957              	.LFE10:
 958              		.size	USBFS_GetEPCount, .-USBFS_GetEPCount
 959 006e 00BF     		.section	.text.USBFS_LoadInEP,"ax",%progbits
 960              		.align	2
 961              		.global	USBFS_LoadInEP
 962              		.thumb
 963              		.thumb_func
 964              		.type	USBFS_LoadInEP, %function
 965              	USBFS_LoadInEP:
 966              	.LFB11:
 821:.\Generated_Source\PSoC5/USBFS.c **** 
 822:.\Generated_Source\PSoC5/USBFS.c **** 
 823:.\Generated_Source\PSoC5/USBFS.c **** #if(USBFS_EP_MM != USBFS__EP_MANUAL)
 824:.\Generated_Source\PSoC5/USBFS.c **** 
 825:.\Generated_Source\PSoC5/USBFS.c **** 
 826:.\Generated_Source\PSoC5/USBFS.c ****     /*******************************************************************************
 827:.\Generated_Source\PSoC5/USBFS.c ****     * Function Name: USBFS_InitEP_DMA
 828:.\Generated_Source\PSoC5/USBFS.c ****     ********************************************************************************
 829:.\Generated_Source\PSoC5/USBFS.c ****     *
 830:.\Generated_Source\PSoC5/USBFS.c ****     * Summary: This function allocate and initializes a EP DMA chanel to be used
 831:.\Generated_Source\PSoC5/USBFS.c ****     *     by the USBFS_LoadInEP() or USBFS_ReadOutEP() APIs.
 832:.\Generated_Source\PSoC5/USBFS.c ****     *
 833:.\Generated_Source\PSoC5/USBFS.c ****     * Parameters:
 834:.\Generated_Source\PSoC5/USBFS.c ****     *  epNumber: Contains the data endpoint number.
 835:.\Generated_Source\PSoC5/USBFS.c ****     *            Valid values are between 1 and 8.
 836:.\Generated_Source\PSoC5/USBFS.c ****     *  *pData: A pointer to a data array which will be related to the EP transfers
 837:.\Generated_Source\PSoC5/USBFS.c ****     *
 838:.\Generated_Source\PSoC5/USBFS.c ****     * Return:
 839:.\Generated_Source\PSoC5/USBFS.c ****     *  None.
 840:.\Generated_Source\PSoC5/USBFS.c ****     *
 841:.\Generated_Source\PSoC5/USBFS.c ****     * Reentrant:
 842:.\Generated_Source\PSoC5/USBFS.c ****     *  No.
 843:.\Generated_Source\PSoC5/USBFS.c ****     *
 844:.\Generated_Source\PSoC5/USBFS.c ****     *******************************************************************************/
 845:.\Generated_Source\PSoC5/USBFS.c ****     void USBFS_InitEP_DMA(uint8 epNumber, uint8 *pData) 
 846:.\Generated_Source\PSoC5/USBFS.c ****     {
 847:.\Generated_Source\PSoC5/USBFS.c ****         uint16 src;
 848:.\Generated_Source\PSoC5/USBFS.c ****         uint16 dst;
 849:.\Generated_Source\PSoC5/USBFS.c ****         #if (defined(__C51__))          /* PSoC 3 - Source is Flash */
 850:.\Generated_Source\PSoC5/USBFS.c ****             src = HI16(CYDEV_SRAM_BASE);
 851:.\Generated_Source\PSoC5/USBFS.c ****             dst = HI16(CYDEV_PERIPH_BASE);
 852:.\Generated_Source\PSoC5/USBFS.c ****             pData = pData;
 853:.\Generated_Source\PSoC5/USBFS.c ****         #else                           /* PSoC 5 */
 854:.\Generated_Source\PSoC5/USBFS.c ****             if((USBFS_EP[epNumber].addr & USBFS_DIR_IN) != 0u )
ARM GAS  C:\DOCUME~1\ADMINI~1\LOCALS~1\Temp\ccIwl9aE.s 			page 33


 855:.\Generated_Source\PSoC5/USBFS.c ****             {   /* for the IN EP source is the flash memory buffer */
 856:.\Generated_Source\PSoC5/USBFS.c ****                 src = HI16(pData);
 857:.\Generated_Source\PSoC5/USBFS.c ****                 dst = HI16(CYDEV_PERIPH_BASE);
 858:.\Generated_Source\PSoC5/USBFS.c ****             }
 859:.\Generated_Source\PSoC5/USBFS.c ****             else
 860:.\Generated_Source\PSoC5/USBFS.c ****             {   /* for the OUT EP source is the SIE register */
 861:.\Generated_Source\PSoC5/USBFS.c ****                 src = HI16(CYDEV_PERIPH_BASE);
 862:.\Generated_Source\PSoC5/USBFS.c ****                 dst = HI16(pData);
 863:.\Generated_Source\PSoC5/USBFS.c ****             }
 864:.\Generated_Source\PSoC5/USBFS.c ****         #endif  /* End C51 */
 865:.\Generated_Source\PSoC5/USBFS.c ****         switch(epNumber)
 866:.\Generated_Source\PSoC5/USBFS.c ****         {
 867:.\Generated_Source\PSoC5/USBFS.c ****             case USBFS_EP1:
 868:.\Generated_Source\PSoC5/USBFS.c ****                 #if(USBFS_DMA1_REMOVE == 0u)
 869:.\Generated_Source\PSoC5/USBFS.c ****                     USBFS_DmaChan[epNumber] = USBFS_ep1_DmaInitialize(
 870:.\Generated_Source\PSoC5/USBFS.c ****                         USBFS_DMA_BYTES_PER_BURST, USBFS_DMA_REQUEST_PER_BURST, src, dst);
 871:.\Generated_Source\PSoC5/USBFS.c ****                 #endif   /* End USBFS_DMA1_REMOVE */
 872:.\Generated_Source\PSoC5/USBFS.c ****                 break;
 873:.\Generated_Source\PSoC5/USBFS.c ****             case USBFS_EP2:
 874:.\Generated_Source\PSoC5/USBFS.c ****                 #if(USBFS_DMA2_REMOVE == 0u)
 875:.\Generated_Source\PSoC5/USBFS.c ****                     USBFS_DmaChan[epNumber] = USBFS_ep2_DmaInitialize(
 876:.\Generated_Source\PSoC5/USBFS.c ****                         USBFS_DMA_BYTES_PER_BURST, USBFS_DMA_REQUEST_PER_BURST, src, dst);
 877:.\Generated_Source\PSoC5/USBFS.c ****                 #endif   /* End USBFS_DMA2_REMOVE */
 878:.\Generated_Source\PSoC5/USBFS.c ****                 break;
 879:.\Generated_Source\PSoC5/USBFS.c ****             case USBFS_EP3:
 880:.\Generated_Source\PSoC5/USBFS.c ****                 #if(USBFS_DMA3_REMOVE == 0u)
 881:.\Generated_Source\PSoC5/USBFS.c ****                     USBFS_DmaChan[epNumber] = USBFS_ep3_DmaInitialize(
 882:.\Generated_Source\PSoC5/USBFS.c ****                         USBFS_DMA_BYTES_PER_BURST, USBFS_DMA_REQUEST_PER_BURST, src, dst);
 883:.\Generated_Source\PSoC5/USBFS.c ****                 #endif   /* End USBFS_DMA3_REMOVE */
 884:.\Generated_Source\PSoC5/USBFS.c ****                 break;
 885:.\Generated_Source\PSoC5/USBFS.c ****             case USBFS_EP4:
 886:.\Generated_Source\PSoC5/USBFS.c ****                 #if(USBFS_DMA4_REMOVE == 0u)
 887:.\Generated_Source\PSoC5/USBFS.c ****                     USBFS_DmaChan[epNumber] = USBFS_ep4_DmaInitialize(
 888:.\Generated_Source\PSoC5/USBFS.c ****                         USBFS_DMA_BYTES_PER_BURST, USBFS_DMA_REQUEST_PER_BURST, src, dst);
 889:.\Generated_Source\PSoC5/USBFS.c ****                 #endif   /* End USBFS_DMA4_REMOVE */
 890:.\Generated_Source\PSoC5/USBFS.c ****                 break;
 891:.\Generated_Source\PSoC5/USBFS.c ****             case USBFS_EP5:
 892:.\Generated_Source\PSoC5/USBFS.c ****                 #if(USBFS_DMA5_REMOVE == 0u)
 893:.\Generated_Source\PSoC5/USBFS.c ****                     USBFS_DmaChan[epNumber] = USBFS_ep5_DmaInitialize(
 894:.\Generated_Source\PSoC5/USBFS.c ****                         USBFS_DMA_BYTES_PER_BURST, USBFS_DMA_REQUEST_PER_BURST, src, dst);
 895:.\Generated_Source\PSoC5/USBFS.c ****                 #endif   /* End USBFS_DMA5_REMOVE */
 896:.\Generated_Source\PSoC5/USBFS.c ****                 break;
 897:.\Generated_Source\PSoC5/USBFS.c ****             case USBFS_EP6:
 898:.\Generated_Source\PSoC5/USBFS.c ****                 #if(USBFS_DMA6_REMOVE == 0u)
 899:.\Generated_Source\PSoC5/USBFS.c ****                     USBFS_DmaChan[epNumber] = USBFS_ep6_DmaInitialize(
 900:.\Generated_Source\PSoC5/USBFS.c ****                         USBFS_DMA_BYTES_PER_BURST, USBFS_DMA_REQUEST_PER_BURST, src, dst);
 901:.\Generated_Source\PSoC5/USBFS.c ****                 #endif   /* End USBFS_DMA6_REMOVE */
 902:.\Generated_Source\PSoC5/USBFS.c ****                 break;
 903:.\Generated_Source\PSoC5/USBFS.c ****             case USBFS_EP7:
 904:.\Generated_Source\PSoC5/USBFS.c ****                 #if(USBFS_DMA7_REMOVE == 0u)
 905:.\Generated_Source\PSoC5/USBFS.c ****                     USBFS_DmaChan[epNumber] = USBFS_ep7_DmaInitialize(
 906:.\Generated_Source\PSoC5/USBFS.c ****                         USBFS_DMA_BYTES_PER_BURST, USBFS_DMA_REQUEST_PER_BURST, src, dst);
 907:.\Generated_Source\PSoC5/USBFS.c ****                 #endif   /* End USBFS_DMA7_REMOVE */
 908:.\Generated_Source\PSoC5/USBFS.c ****                 break;
 909:.\Generated_Source\PSoC5/USBFS.c ****             case USBFS_EP8:
 910:.\Generated_Source\PSoC5/USBFS.c ****                 #if(USBFS_DMA8_REMOVE == 0u)
 911:.\Generated_Source\PSoC5/USBFS.c ****                     USBFS_DmaChan[epNumber] = USBFS_ep8_DmaInitialize(
ARM GAS  C:\DOCUME~1\ADMINI~1\LOCALS~1\Temp\ccIwl9aE.s 			page 34


 912:.\Generated_Source\PSoC5/USBFS.c ****                         USBFS_DMA_BYTES_PER_BURST, USBFS_DMA_REQUEST_PER_BURST, src, dst);
 913:.\Generated_Source\PSoC5/USBFS.c ****                 #endif   /* End USBFS_DMA8_REMOVE */
 914:.\Generated_Source\PSoC5/USBFS.c ****                 break;
 915:.\Generated_Source\PSoC5/USBFS.c ****             default:
 916:.\Generated_Source\PSoC5/USBFS.c ****                 /* Do not support EP0 DMA transfers */
 917:.\Generated_Source\PSoC5/USBFS.c ****                 break;
 918:.\Generated_Source\PSoC5/USBFS.c ****         }
 919:.\Generated_Source\PSoC5/USBFS.c ****         if((epNumber > USBFS_EP0) && (epNumber < USBFS_MAX_EP))
 920:.\Generated_Source\PSoC5/USBFS.c ****         {
 921:.\Generated_Source\PSoC5/USBFS.c ****             USBFS_DmaTd[epNumber] = CyDmaTdAllocate();
 922:.\Generated_Source\PSoC5/USBFS.c ****         }
 923:.\Generated_Source\PSoC5/USBFS.c ****     }
 924:.\Generated_Source\PSoC5/USBFS.c **** 
 925:.\Generated_Source\PSoC5/USBFS.c **** 
 926:.\Generated_Source\PSoC5/USBFS.c ****     /*******************************************************************************
 927:.\Generated_Source\PSoC5/USBFS.c ****     * Function Name: USBFS_Stop_DMA
 928:.\Generated_Source\PSoC5/USBFS.c ****     ********************************************************************************
 929:.\Generated_Source\PSoC5/USBFS.c ****     *
 930:.\Generated_Source\PSoC5/USBFS.c ****     * Summary: Stops and free DMA
 931:.\Generated_Source\PSoC5/USBFS.c ****     *
 932:.\Generated_Source\PSoC5/USBFS.c ****     * Parameters:
 933:.\Generated_Source\PSoC5/USBFS.c ****     *  epNumber: Contains the data endpoint number or
 934:.\Generated_Source\PSoC5/USBFS.c ****     *           USBFS_MAX_EP to stop all DMAs
 935:.\Generated_Source\PSoC5/USBFS.c ****     *
 936:.\Generated_Source\PSoC5/USBFS.c ****     * Return:
 937:.\Generated_Source\PSoC5/USBFS.c ****     *  None.
 938:.\Generated_Source\PSoC5/USBFS.c ****     *
 939:.\Generated_Source\PSoC5/USBFS.c ****     * Reentrant:
 940:.\Generated_Source\PSoC5/USBFS.c ****     *  No.
 941:.\Generated_Source\PSoC5/USBFS.c ****     *
 942:.\Generated_Source\PSoC5/USBFS.c ****     *******************************************************************************/
 943:.\Generated_Source\PSoC5/USBFS.c ****     void USBFS_Stop_DMA(uint8 epNumber) 
 944:.\Generated_Source\PSoC5/USBFS.c ****     {
 945:.\Generated_Source\PSoC5/USBFS.c ****         uint8 i;
 946:.\Generated_Source\PSoC5/USBFS.c ****         i = (epNumber < USBFS_MAX_EP) ? epNumber : USBFS_EP1;
 947:.\Generated_Source\PSoC5/USBFS.c ****         do
 948:.\Generated_Source\PSoC5/USBFS.c ****         {
 949:.\Generated_Source\PSoC5/USBFS.c ****             if(USBFS_DmaTd[i] != DMA_INVALID_TD)
 950:.\Generated_Source\PSoC5/USBFS.c ****             {
 951:.\Generated_Source\PSoC5/USBFS.c ****                 CyDmaChDisable(USBFS_DmaChan[i]);
 952:.\Generated_Source\PSoC5/USBFS.c ****                 CyDmaTdFree(USBFS_DmaTd[i]);
 953:.\Generated_Source\PSoC5/USBFS.c ****                 USBFS_DmaTd[i] = DMA_INVALID_TD;
 954:.\Generated_Source\PSoC5/USBFS.c ****             }
 955:.\Generated_Source\PSoC5/USBFS.c ****             i++;
 956:.\Generated_Source\PSoC5/USBFS.c ****         }while((i < USBFS_MAX_EP) && (epNumber == USBFS_MAX_EP));
 957:.\Generated_Source\PSoC5/USBFS.c ****     }
 958:.\Generated_Source\PSoC5/USBFS.c **** 
 959:.\Generated_Source\PSoC5/USBFS.c **** #endif /* End USBFS_EP_MM != USBFS__EP_MANUAL */
 960:.\Generated_Source\PSoC5/USBFS.c **** 
 961:.\Generated_Source\PSoC5/USBFS.c **** 
 962:.\Generated_Source\PSoC5/USBFS.c **** /*******************************************************************************
 963:.\Generated_Source\PSoC5/USBFS.c **** * Function Name: USBFS_LoadInEP
 964:.\Generated_Source\PSoC5/USBFS.c **** ********************************************************************************
 965:.\Generated_Source\PSoC5/USBFS.c **** *
 966:.\Generated_Source\PSoC5/USBFS.c **** * Summary:
 967:.\Generated_Source\PSoC5/USBFS.c **** *  Loads and enables the specified USB data endpoint for an IN interrupt or bulk
 968:.\Generated_Source\PSoC5/USBFS.c **** *  transfer.
ARM GAS  C:\DOCUME~1\ADMINI~1\LOCALS~1\Temp\ccIwl9aE.s 			page 35


 969:.\Generated_Source\PSoC5/USBFS.c **** *
 970:.\Generated_Source\PSoC5/USBFS.c **** * Parameters:
 971:.\Generated_Source\PSoC5/USBFS.c **** *  epNumber: Contains the data endpoint number.
 972:.\Generated_Source\PSoC5/USBFS.c **** *            Valid values are between 1 and 8.
 973:.\Generated_Source\PSoC5/USBFS.c **** *  *pData: A pointer to a data array from which the data for the endpoint space
 974:.\Generated_Source\PSoC5/USBFS.c **** *          is loaded.
 975:.\Generated_Source\PSoC5/USBFS.c **** *  length: The number of bytes to transfer from the array and then send as a
 976:.\Generated_Source\PSoC5/USBFS.c **** *          result of an IN request. Valid values are between 0 and 512.
 977:.\Generated_Source\PSoC5/USBFS.c **** *
 978:.\Generated_Source\PSoC5/USBFS.c **** * Return:
 979:.\Generated_Source\PSoC5/USBFS.c **** *  None.
 980:.\Generated_Source\PSoC5/USBFS.c **** *
 981:.\Generated_Source\PSoC5/USBFS.c **** * Reentrant:
 982:.\Generated_Source\PSoC5/USBFS.c **** *  No.
 983:.\Generated_Source\PSoC5/USBFS.c **** *
 984:.\Generated_Source\PSoC5/USBFS.c **** *******************************************************************************/
 985:.\Generated_Source\PSoC5/USBFS.c **** void USBFS_LoadInEP(uint8 epNumber, uint8 *pData, uint16 length)
 986:.\Generated_Source\PSoC5/USBFS.c ****                                                                         
 987:.\Generated_Source\PSoC5/USBFS.c **** {
 967              		.loc 1 987 0
 968              		.cfi_startproc
 969              		@ args = 0, pretend = 0, frame = 32
 970              		@ frame_needed = 1, uses_anonymous_args = 0
 971              		@ link register save eliminated.
 972 0000 80B4     		push	{r7}
 973              	.LCFI31:
 974              		.cfi_def_cfa_offset 4
 975 0002 89B0     		sub	sp, sp, #36
 976              	.LCFI32:
 977              		.cfi_def_cfa_offset 40
 978 0004 00AF     		add	r7, sp, #0
 979              		.cfi_offset 7, -4
 980              	.LCFI33:
 981              		.cfi_def_cfa_register 7
 982 0006 B960     		str	r1, [r7, #8]
 983 0008 1346     		mov	r3, r2
 984 000a 0246     		mov	r2, r0
 985 000c FA73     		strb	r2, [r7, #15]
 986 000e FB80     		strh	r3, [r7, #6]	@ movhi
 988:.\Generated_Source\PSoC5/USBFS.c ****     uint8 ri;
 989:.\Generated_Source\PSoC5/USBFS.c ****     uint8 *p;
 990:.\Generated_Source\PSoC5/USBFS.c ****     #if(USBFS_EP_MM == USBFS__EP_MANUAL)
 991:.\Generated_Source\PSoC5/USBFS.c ****         uint16 i;
 992:.\Generated_Source\PSoC5/USBFS.c ****     #endif /* End USBFS_EP_MM == USBFS__EP_MANUAL */
 993:.\Generated_Source\PSoC5/USBFS.c **** 
 994:.\Generated_Source\PSoC5/USBFS.c ****     if((epNumber > USBFS_EP0) && (epNumber < USBFS_MAX_EP))
 987              		.loc 1 994 0
 988 0010 FB7B     		ldrb	r3, [r7, #15]	@ zero_extendqisi2
 989 0012 002B     		cmp	r3, #0
 990 0014 00F09A80 		beq	.L41
 991 0018 FB7B     		ldrb	r3, [r7, #15]	@ zero_extendqisi2
 992 001a 082B     		cmp	r3, #8
 993 001c 00F29680 		bhi	.L41
 995:.\Generated_Source\PSoC5/USBFS.c ****     {
 996:.\Generated_Source\PSoC5/USBFS.c ****         ri = ((epNumber - USBFS_EP1) << USBFS_EPX_CNTX_ADDR_SHIFT);
 994              		.loc 1 996 0
 995 0020 FB7B     		ldrb	r3, [r7, #15]
ARM GAS  C:\DOCUME~1\ADMINI~1\LOCALS~1\Temp\ccIwl9aE.s 			page 36


 996 0022 03F1FF33 		add	r3, r3, #-1
 997 0026 DBB2     		uxtb	r3, r3
 998 0028 4FEA0313 		lsl	r3, r3, #4
 999 002c FB75     		strb	r3, [r7, #23]
 997:.\Generated_Source\PSoC5/USBFS.c ****         p = (uint8 *)&USBFS_ARB_RW1_DR_PTR[ri];
 1000              		.loc 1 997 0
 1001 002e FA7D     		ldrb	r2, [r7, #23]	@ zero_extendqisi2
 1002 0030 46F28803 		movw	r3, #:lower16:1073766536
 1003 0034 C4F20003 		movt	r3, #:upper16:1073766536
 1004 0038 1344     		add	r3, r2, r3
 1005 003a BB61     		str	r3, [r7, #24]
 998:.\Generated_Source\PSoC5/USBFS.c **** 
 999:.\Generated_Source\PSoC5/USBFS.c ****         #if(USBFS_EP_MM != USBFS__EP_DMAAUTO)
1000:.\Generated_Source\PSoC5/USBFS.c ****             /* Limits length to available buffer space, auto MM could send packets up to 1024 bytes
1001:.\Generated_Source\PSoC5/USBFS.c ****             if(length > USBFS_EPX_DATA_BUF_MAX - USBFS_EP[epNumber].buffOffset)
 1006              		.loc 1 1001 0
 1007 003c F888     		ldrh	r0, [r7, #6]
 1008 003e F97B     		ldrb	r1, [r7, #15]	@ zero_extendqisi2
 1009 0040 40F20002 		movw	r2, #:lower16:USBFS_EP
 1010 0044 C0F20002 		movt	r2, #:upper16:USBFS_EP
 1011 0048 0B46     		mov	r3, r1
 1012 004a 4FEA4303 		lsl	r3, r3, #1
 1013 004e 0B44     		add	r3, r3, r1
 1014 0050 4FEA8303 		lsl	r3, r3, #2
 1015 0054 1344     		add	r3, r3, r2
 1016 0056 03F10603 		add	r3, r3, #6
 1017 005a 1B88     		ldrh	r3, [r3, #0]	@ movhi
 1018 005c 9BB2     		uxth	r3, r3
 1019 005e C3F50073 		rsb	r3, r3, #512
 1020 0062 9842     		cmp	r0, r3
 1021 0064 12D9     		bls	.L37
1002:.\Generated_Source\PSoC5/USBFS.c ****             {
1003:.\Generated_Source\PSoC5/USBFS.c ****                 length = USBFS_EPX_DATA_BUF_MAX - USBFS_EP[epNumber].buffOffset;
 1022              		.loc 1 1003 0
 1023 0066 F97B     		ldrb	r1, [r7, #15]	@ zero_extendqisi2
 1024 0068 40F20002 		movw	r2, #:lower16:USBFS_EP
 1025 006c C0F20002 		movt	r2, #:upper16:USBFS_EP
 1026 0070 0B46     		mov	r3, r1
 1027 0072 4FEA4303 		lsl	r3, r3, #1
 1028 0076 0B44     		add	r3, r3, r1
 1029 0078 4FEA8303 		lsl	r3, r3, #2
 1030 007c 1344     		add	r3, r3, r2
 1031 007e 03F10603 		add	r3, r3, #6
 1032 0082 1B88     		ldrh	r3, [r3, #0]	@ movhi
 1033 0084 9BB2     		uxth	r3, r3
 1034 0086 C3F50073 		rsb	r3, r3, #512
 1035 008a FB80     		strh	r3, [r7, #6]	@ movhi
 1036              	.L37:
1004:.\Generated_Source\PSoC5/USBFS.c ****             }
1005:.\Generated_Source\PSoC5/USBFS.c ****         #endif /* End USBFS_EP_MM != USBFS__EP_DMAAUTO */
1006:.\Generated_Source\PSoC5/USBFS.c **** 
1007:.\Generated_Source\PSoC5/USBFS.c ****         /* Set the count and data toggle */
1008:.\Generated_Source\PSoC5/USBFS.c ****         CY_SET_REG8(&USBFS_SIE_EP1_CNT0_PTR[ri], (length >> 8u) | (USBFS_EP[epNumber].epToggle));
 1037              		.loc 1 1008 0
 1038 008c FA7D     		ldrb	r2, [r7, #23]	@ zero_extendqisi2
 1039 008e 46F20C03 		movw	r3, #:lower16:1073766412
 1040 0092 C4F20003 		movt	r3, #:upper16:1073766412
ARM GAS  C:\DOCUME~1\ADMINI~1\LOCALS~1\Temp\ccIwl9aE.s 			page 37


 1041 0096 1344     		add	r3, r2, r3
 1042 0098 FA88     		ldrh	r2, [r7, #6]
 1043 009a 4FEA1222 		lsr	r2, r2, #8
 1044 009e 92B2     		uxth	r2, r2
 1045 00a0 5FFA82FC 		uxtb	ip, r2
 1046 00a4 F87B     		ldrb	r0, [r7, #15]	@ zero_extendqisi2
 1047 00a6 40F20001 		movw	r1, #:lower16:USBFS_EP
 1048 00aa C0F20001 		movt	r1, #:upper16:USBFS_EP
 1049 00ae 0246     		mov	r2, r0
 1050 00b0 4FEA4202 		lsl	r2, r2, #1
 1051 00b4 0244     		add	r2, r2, r0
 1052 00b6 4FEA8202 		lsl	r2, r2, #2
 1053 00ba 0A44     		add	r2, r2, r1
 1054 00bc D278     		ldrb	r2, [r2, #3]
 1055 00be D2B2     		uxtb	r2, r2
 1056 00c0 4CEA0202 		orr	r2, ip, r2
 1057 00c4 D2B2     		uxtb	r2, r2
 1058 00c6 1A70     		strb	r2, [r3, #0]
1009:.\Generated_Source\PSoC5/USBFS.c ****         CY_SET_REG8(&USBFS_SIE_EP1_CNT1_PTR[ri],  length & 0xFFu);
 1059              		.loc 1 1009 0
 1060 00c8 FA7D     		ldrb	r2, [r7, #23]	@ zero_extendqisi2
 1061 00ca 46F20D03 		movw	r3, #:lower16:1073766413
 1062 00ce C4F20003 		movt	r3, #:upper16:1073766413
 1063 00d2 1344     		add	r3, r2, r3
 1064 00d4 FA88     		ldrh	r2, [r7, #6]	@ movhi
 1065 00d6 D2B2     		uxtb	r2, r2
 1066 00d8 1A70     		strb	r2, [r3, #0]
1010:.\Generated_Source\PSoC5/USBFS.c **** 
1011:.\Generated_Source\PSoC5/USBFS.c ****         #if(USBFS_EP_MM == USBFS__EP_MANUAL)
1012:.\Generated_Source\PSoC5/USBFS.c ****             if(pData != NULL)
 1067              		.loc 1 1012 0
 1068 00da BB68     		ldr	r3, [r7, #8]
 1069 00dc 002B     		cmp	r3, #0
 1070 00de 11D0     		beq	.L38
1013:.\Generated_Source\PSoC5/USBFS.c ****             {
1014:.\Generated_Source\PSoC5/USBFS.c ****                 /* Copy the data using the arbiter data register */
1015:.\Generated_Source\PSoC5/USBFS.c ****                 for (i = 0u; i < length; i++)
 1071              		.loc 1 1015 0
 1072 00e0 4FF00003 		mov	r3, #0
 1073 00e4 FB83     		strh	r3, [r7, #30]	@ movhi
 1074 00e6 09E0     		b	.L39
 1075              	.L40:
1016:.\Generated_Source\PSoC5/USBFS.c ****                 {
1017:.\Generated_Source\PSoC5/USBFS.c ****                     CY_SET_REG8(p, pData[i]);
 1076              		.loc 1 1017 0
 1077 00e8 BB69     		ldr	r3, [r7, #24]
 1078 00ea F98B     		ldrh	r1, [r7, #30]
 1079 00ec BA68     		ldr	r2, [r7, #8]
 1080 00ee 0A44     		add	r2, r1, r2
 1081 00f0 1278     		ldrb	r2, [r2, #0]	@ zero_extendqisi2
 1082 00f2 1A70     		strb	r2, [r3, #0]
 1083              		.loc 1 1015 0
 1084 00f4 FB8B     		ldrh	r3, [r7, #30]	@ movhi
 1085 00f6 03F10103 		add	r3, r3, #1
 1086 00fa FB83     		strh	r3, [r7, #30]	@ movhi
 1087              	.L39:
 1088 00fc FA8B     		ldrh	r2, [r7, #30]
ARM GAS  C:\DOCUME~1\ADMINI~1\LOCALS~1\Temp\ccIwl9aE.s 			page 38


 1089 00fe FB88     		ldrh	r3, [r7, #6]
 1090 0100 9A42     		cmp	r2, r3
 1091 0102 F1D3     		bcc	.L40
 1092              	.L38:
1018:.\Generated_Source\PSoC5/USBFS.c ****                 }
1019:.\Generated_Source\PSoC5/USBFS.c ****             }
1020:.\Generated_Source\PSoC5/USBFS.c ****             USBFS_EP[epNumber].apiEpState = USBFS_NO_EVENT_PENDING;
 1093              		.loc 1 1020 0
 1094 0104 F97B     		ldrb	r1, [r7, #15]	@ zero_extendqisi2
 1095 0106 40F20002 		movw	r2, #:lower16:USBFS_EP
 1096 010a C0F20002 		movt	r2, #:upper16:USBFS_EP
 1097 010e 0B46     		mov	r3, r1
 1098 0110 4FEA4303 		lsl	r3, r3, #1
 1099 0114 0B44     		add	r3, r3, r1
 1100 0116 4FEA8303 		lsl	r3, r3, #2
 1101 011a 1344     		add	r3, r3, r2
 1102 011c 4FF00002 		mov	r2, #0
 1103 0120 5A70     		strb	r2, [r3, #1]
1021:.\Generated_Source\PSoC5/USBFS.c ****             /* Write the Mode register */
1022:.\Generated_Source\PSoC5/USBFS.c ****             USBFS_SIE_EP1_CR0_PTR[ri] = USBFS_EP[epNumber].epMode;
 1104              		.loc 1 1022 0
 1105 0122 FA7D     		ldrb	r2, [r7, #23]	@ zero_extendqisi2
 1106 0124 46F20E03 		movw	r3, #:lower16:1073766414
 1107 0128 C4F20003 		movt	r3, #:upper16:1073766414
 1108 012c 1344     		add	r3, r2, r3
 1109 012e F87B     		ldrb	r0, [r7, #15]	@ zero_extendqisi2
 1110 0130 40F20001 		movw	r1, #:lower16:USBFS_EP
 1111 0134 C0F20001 		movt	r1, #:upper16:USBFS_EP
 1112 0138 0246     		mov	r2, r0
 1113 013a 4FEA4202 		lsl	r2, r2, #1
 1114 013e 0244     		add	r2, r2, r0
 1115 0140 4FEA8202 		lsl	r2, r2, #2
 1116 0144 0A44     		add	r2, r2, r1
 1117 0146 5279     		ldrb	r2, [r2, #5]
 1118 0148 D2B2     		uxtb	r2, r2
 1119 014a 1A70     		strb	r2, [r3, #0]
 1120              	.L41:
1023:.\Generated_Source\PSoC5/USBFS.c ****         #else
1024:.\Generated_Source\PSoC5/USBFS.c ****             /*Init DMA if it was not initialized */
1025:.\Generated_Source\PSoC5/USBFS.c ****             if(USBFS_DmaTd[epNumber] == DMA_INVALID_TD)
1026:.\Generated_Source\PSoC5/USBFS.c ****             {
1027:.\Generated_Source\PSoC5/USBFS.c ****                 USBFS_InitEP_DMA(epNumber, pData);
1028:.\Generated_Source\PSoC5/USBFS.c ****             }
1029:.\Generated_Source\PSoC5/USBFS.c ****         #endif /* End USBFS_EP_MM == USBFS__EP_MANUAL */
1030:.\Generated_Source\PSoC5/USBFS.c **** 
1031:.\Generated_Source\PSoC5/USBFS.c ****         #if(USBFS_EP_MM == USBFS__EP_DMAMANUAL)
1032:.\Generated_Source\PSoC5/USBFS.c ****             if((pData != NULL) && (length > 0))
1033:.\Generated_Source\PSoC5/USBFS.c ****             {
1034:.\Generated_Source\PSoC5/USBFS.c **** 
1035:.\Generated_Source\PSoC5/USBFS.c ****                 /* Enable DMA in mode2 for transfering data */
1036:.\Generated_Source\PSoC5/USBFS.c ****                 CyDmaChDisable(USBFS_DmaChan[epNumber]);
1037:.\Generated_Source\PSoC5/USBFS.c ****                 CyDmaTdSetConfiguration(USBFS_DmaTd[epNumber], length, DMA_INVALID_TD,\
1038:.\Generated_Source\PSoC5/USBFS.c ****                                                                                     TD_TERMIN_EN | 
1039:.\Generated_Source\PSoC5/USBFS.c ****                 CyDmaTdSetAddress(USBFS_DmaTd[epNumber],  LO16((uint32)pData), LO16((uint32)p));
1040:.\Generated_Source\PSoC5/USBFS.c ****                 /* Enable the DMA */
1041:.\Generated_Source\PSoC5/USBFS.c ****                 CyDmaChSetInitialTd(USBFS_DmaChan[epNumber], USBFS_DmaTd[epNumber]);
1042:.\Generated_Source\PSoC5/USBFS.c ****                 CyDmaChEnable(USBFS_DmaChan[epNumber], 1);
ARM GAS  C:\DOCUME~1\ADMINI~1\LOCALS~1\Temp\ccIwl9aE.s 			page 39


1043:.\Generated_Source\PSoC5/USBFS.c ****                 /* Generate DMA request */
1044:.\Generated_Source\PSoC5/USBFS.c ****                 USBFS_ARB_EP1_CFG_PTR[ri] |= USBFS_ARB_EPX_CFG_DMA_REQ;
1045:.\Generated_Source\PSoC5/USBFS.c ****                 USBFS_ARB_EP1_CFG_PTR[ri] &= ~USBFS_ARB_EPX_CFG_DMA_REQ;
1046:.\Generated_Source\PSoC5/USBFS.c ****                 /* Mode register will be writen in arb ISR after DMA transfer copmlete */
1047:.\Generated_Source\PSoC5/USBFS.c ****             }
1048:.\Generated_Source\PSoC5/USBFS.c ****             else
1049:.\Generated_Source\PSoC5/USBFS.c ****             {
1050:.\Generated_Source\PSoC5/USBFS.c ****                 /* When zero-length packet - write the Mode register directly */
1051:.\Generated_Source\PSoC5/USBFS.c ****                 USBFS_SIE_EP1_CR0_PTR[ri] = USBFS_EP[epNumber].epMode;
1052:.\Generated_Source\PSoC5/USBFS.c ****             }
1053:.\Generated_Source\PSoC5/USBFS.c ****         #endif /* End USBFS_EP_MM == USBFS__EP_DMAMANUAL */
1054:.\Generated_Source\PSoC5/USBFS.c **** 
1055:.\Generated_Source\PSoC5/USBFS.c ****         #if(USBFS_EP_MM == USBFS__EP_DMAAUTO)
1056:.\Generated_Source\PSoC5/USBFS.c ****             if(pData != NULL)
1057:.\Generated_Source\PSoC5/USBFS.c ****             {
1058:.\Generated_Source\PSoC5/USBFS.c ****                 /* Enable DMA in mode3 for transfering data */
1059:.\Generated_Source\PSoC5/USBFS.c ****                 CyDmaChDisable(USBFS_DmaChan[epNumber]);
1060:.\Generated_Source\PSoC5/USBFS.c ****                 CyDmaTdSetConfiguration(USBFS_DmaTd[epNumber], length, USBFS_DmaTd[epNumber],\
1061:.\Generated_Source\PSoC5/USBFS.c ****                                                                                     TD_TERMIN_EN | 
1062:.\Generated_Source\PSoC5/USBFS.c ****                 CyDmaTdSetAddress(USBFS_DmaTd[epNumber],  LO16((uint32)pData), LO16((uint32)p));
1063:.\Generated_Source\PSoC5/USBFS.c ****                 /* Clear Any potential pending DMA requests before starting the DMA channel to tran
1064:.\Generated_Source\PSoC5/USBFS.c ****                 CyDmaClearPendingDrq(USBFS_DmaChan[epNumber]);
1065:.\Generated_Source\PSoC5/USBFS.c ****                 /* Enable the DMA */
1066:.\Generated_Source\PSoC5/USBFS.c ****                 CyDmaChSetInitialTd(USBFS_DmaChan[epNumber], USBFS_DmaTd[epNumber]);
1067:.\Generated_Source\PSoC5/USBFS.c ****                 CyDmaChEnable(USBFS_DmaChan[epNumber], 1);
1068:.\Generated_Source\PSoC5/USBFS.c ****             }
1069:.\Generated_Source\PSoC5/USBFS.c ****             else
1070:.\Generated_Source\PSoC5/USBFS.c ****             {
1071:.\Generated_Source\PSoC5/USBFS.c ****                 USBFS_EP[epNumber].apiEpState = USBFS_NO_EVENT_PENDING;
1072:.\Generated_Source\PSoC5/USBFS.c ****                 if(length > 0)
1073:.\Generated_Source\PSoC5/USBFS.c ****                 {
1074:.\Generated_Source\PSoC5/USBFS.c ****                     /* Set Data ready status, This will generate DMA request */
1075:.\Generated_Source\PSoC5/USBFS.c ****                     USBFS_ARB_EP1_CFG_PTR[ri] |= USBFS_ARB_EPX_CFG_IN_DATA_RDY;
1076:.\Generated_Source\PSoC5/USBFS.c ****                     /* Mode register will be writen in arb ISR(In Buffer Full) after first DMA tran
1077:.\Generated_Source\PSoC5/USBFS.c ****                 }
1078:.\Generated_Source\PSoC5/USBFS.c ****                 else
1079:.\Generated_Source\PSoC5/USBFS.c ****                 {
1080:.\Generated_Source\PSoC5/USBFS.c ****                     /* When zero-length packet - write the Mode register directly */
1081:.\Generated_Source\PSoC5/USBFS.c ****                     USBFS_SIE_EP1_CR0_PTR[ri] = USBFS_EP[epNumber].epMode;
1082:.\Generated_Source\PSoC5/USBFS.c ****                 }
1083:.\Generated_Source\PSoC5/USBFS.c ****             }
1084:.\Generated_Source\PSoC5/USBFS.c ****         #endif /* End USBFS_EP_MM == USBFS__EP_DMAAUTO */
1085:.\Generated_Source\PSoC5/USBFS.c **** 
1086:.\Generated_Source\PSoC5/USBFS.c ****     }
1087:.\Generated_Source\PSoC5/USBFS.c **** }
 1121              		.loc 1 1087 0
 1122 014c 07F12407 		add	r7, r7, #36
 1123 0150 BD46     		mov	sp, r7
 1124 0152 80BC     		pop	{r7}
 1125 0154 7047     		bx	lr
 1126              		.cfi_endproc
 1127              	.LFE11:
 1128              		.size	USBFS_LoadInEP, .-USBFS_LoadInEP
 1129 0156 00BF     		.section	.text.USBFS_ReadOutEP,"ax",%progbits
 1130              		.align	2
 1131              		.global	USBFS_ReadOutEP
 1132              		.thumb
ARM GAS  C:\DOCUME~1\ADMINI~1\LOCALS~1\Temp\ccIwl9aE.s 			page 40


 1133              		.thumb_func
 1134              		.type	USBFS_ReadOutEP, %function
 1135              	USBFS_ReadOutEP:
 1136              	.LFB12:
1088:.\Generated_Source\PSoC5/USBFS.c **** 
1089:.\Generated_Source\PSoC5/USBFS.c **** 
1090:.\Generated_Source\PSoC5/USBFS.c **** /*******************************************************************************
1091:.\Generated_Source\PSoC5/USBFS.c **** * Function Name: USBFS_ReadOutEP
1092:.\Generated_Source\PSoC5/USBFS.c **** ********************************************************************************
1093:.\Generated_Source\PSoC5/USBFS.c **** *
1094:.\Generated_Source\PSoC5/USBFS.c **** * Summary:
1095:.\Generated_Source\PSoC5/USBFS.c **** *  Read data from an endpoint.  The application must call
1096:.\Generated_Source\PSoC5/USBFS.c **** *  USBFS_GetEPState to see if an event is pending.
1097:.\Generated_Source\PSoC5/USBFS.c **** *
1098:.\Generated_Source\PSoC5/USBFS.c **** * Parameters:
1099:.\Generated_Source\PSoC5/USBFS.c **** *  epNumber: Contains the data endpoint number.
1100:.\Generated_Source\PSoC5/USBFS.c **** *            Valid values are between 1 and 8.
1101:.\Generated_Source\PSoC5/USBFS.c **** *  pData: A pointer to a data array from which the data for the endpoint space
1102:.\Generated_Source\PSoC5/USBFS.c **** *         is loaded.
1103:.\Generated_Source\PSoC5/USBFS.c **** *  length: The number of bytes to transfer from the USB Out enpoint and loads
1104:.\Generated_Source\PSoC5/USBFS.c **** *          it into data array. Valid values are between 0 and 1023. The function
1105:.\Generated_Source\PSoC5/USBFS.c **** *          moves fewer than the requested number of bytes if the host sends
1106:.\Generated_Source\PSoC5/USBFS.c **** *          fewer bytes than requested.
1107:.\Generated_Source\PSoC5/USBFS.c **** *
1108:.\Generated_Source\PSoC5/USBFS.c **** * Returns:
1109:.\Generated_Source\PSoC5/USBFS.c **** *  Number of bytes received, 0 for an invalid endpoint.
1110:.\Generated_Source\PSoC5/USBFS.c **** *
1111:.\Generated_Source\PSoC5/USBFS.c **** * Reentrant:
1112:.\Generated_Source\PSoC5/USBFS.c **** *  No.
1113:.\Generated_Source\PSoC5/USBFS.c **** *
1114:.\Generated_Source\PSoC5/USBFS.c **** *******************************************************************************/
1115:.\Generated_Source\PSoC5/USBFS.c **** uint16 USBFS_ReadOutEP(uint8 epNumber, uint8 *pData, uint16 length)
1116:.\Generated_Source\PSoC5/USBFS.c ****                                                                         
1117:.\Generated_Source\PSoC5/USBFS.c **** {
 1137              		.loc 1 1117 0
 1138              		.cfi_startproc
 1139              		@ args = 0, pretend = 0, frame = 32
 1140              		@ frame_needed = 1, uses_anonymous_args = 0
 1141 0000 80B5     		push	{r7, lr}
 1142              	.LCFI34:
 1143              		.cfi_def_cfa_offset 8
 1144 0002 88B0     		sub	sp, sp, #32
 1145              	.LCFI35:
 1146              		.cfi_def_cfa_offset 40
 1147 0004 00AF     		add	r7, sp, #0
 1148              		.cfi_offset 14, -4
 1149              		.cfi_offset 7, -8
 1150              	.LCFI36:
 1151              		.cfi_def_cfa_register 7
 1152 0006 B960     		str	r1, [r7, #8]
 1153 0008 1346     		mov	r3, r2
 1154 000a 0246     		mov	r2, r0
 1155 000c FA73     		strb	r2, [r7, #15]
 1156 000e FB80     		strh	r3, [r7, #6]	@ movhi
1118:.\Generated_Source\PSoC5/USBFS.c ****     uint8 ri;
1119:.\Generated_Source\PSoC5/USBFS.c ****     uint8 *p;
1120:.\Generated_Source\PSoC5/USBFS.c ****     #if(USBFS_EP_MM == USBFS__EP_MANUAL)
ARM GAS  C:\DOCUME~1\ADMINI~1\LOCALS~1\Temp\ccIwl9aE.s 			page 41


1121:.\Generated_Source\PSoC5/USBFS.c ****         uint16 i;
1122:.\Generated_Source\PSoC5/USBFS.c ****     #endif /* End USBFS_EP_MM == USBFS__EP_MANUAL */
1123:.\Generated_Source\PSoC5/USBFS.c ****     #if(USBFS_EP_MM != USBFS__EP_DMAAUTO)
1124:.\Generated_Source\PSoC5/USBFS.c ****         uint16 xferCount;
1125:.\Generated_Source\PSoC5/USBFS.c ****     #endif /* End USBFS_EP_MM != $INSTANCE_NAME`__EP_DMAAUTO */
1126:.\Generated_Source\PSoC5/USBFS.c **** 
1127:.\Generated_Source\PSoC5/USBFS.c ****     if((epNumber > USBFS_EP0) && (epNumber < USBFS_MAX_EP) && (pData != NULL))
 1157              		.loc 1 1127 0
 1158 0010 FB7B     		ldrb	r3, [r7, #15]	@ zero_extendqisi2
 1159 0012 002B     		cmp	r3, #0
 1160 0014 37D0     		beq	.L43
 1161 0016 FB7B     		ldrb	r3, [r7, #15]	@ zero_extendqisi2
 1162 0018 082B     		cmp	r3, #8
 1163 001a 34D8     		bhi	.L43
 1164 001c BB68     		ldr	r3, [r7, #8]
 1165 001e 002B     		cmp	r3, #0
 1166 0020 31D0     		beq	.L43
1128:.\Generated_Source\PSoC5/USBFS.c ****     {
1129:.\Generated_Source\PSoC5/USBFS.c ****         ri = ((epNumber - USBFS_EP1) << USBFS_EPX_CNTX_ADDR_SHIFT);
 1167              		.loc 1 1129 0
 1168 0022 FB7B     		ldrb	r3, [r7, #15]
 1169 0024 03F1FF33 		add	r3, r3, #-1
 1170 0028 DBB2     		uxtb	r3, r3
 1171 002a 4FEA0313 		lsl	r3, r3, #4
 1172 002e FB75     		strb	r3, [r7, #23]
1130:.\Generated_Source\PSoC5/USBFS.c ****         p = (uint8 *)&USBFS_ARB_RW1_DR_PTR[ri];
 1173              		.loc 1 1130 0
 1174 0030 FA7D     		ldrb	r2, [r7, #23]	@ zero_extendqisi2
 1175 0032 46F28803 		movw	r3, #:lower16:1073766536
 1176 0036 C4F20003 		movt	r3, #:upper16:1073766536
 1177 003a 1344     		add	r3, r2, r3
 1178 003c BB61     		str	r3, [r7, #24]
1131:.\Generated_Source\PSoC5/USBFS.c **** 
1132:.\Generated_Source\PSoC5/USBFS.c ****         #if(USBFS_EP_MM != USBFS__EP_DMAAUTO)
1133:.\Generated_Source\PSoC5/USBFS.c ****             /* Determine which is smaller the requested data or the available data */
1134:.\Generated_Source\PSoC5/USBFS.c ****             xferCount = USBFS_GetEPCount(epNumber);
 1179              		.loc 1 1134 0
 1180 003e FB7B     		ldrb	r3, [r7, #15]	@ zero_extendqisi2
 1181 0040 1846     		mov	r0, r3
 1182 0042 FFF7FEFF 		bl	USBFS_GetEPCount
 1183 0046 0346     		mov	r3, r0
 1184 0048 FB83     		strh	r3, [r7, #30]	@ movhi
1135:.\Generated_Source\PSoC5/USBFS.c ****             if (length > xferCount)
 1185              		.loc 1 1135 0
 1186 004a FA88     		ldrh	r2, [r7, #6]
 1187 004c FB8B     		ldrh	r3, [r7, #30]
 1188 004e 9A42     		cmp	r2, r3
 1189 0050 01D9     		bls	.L44
1136:.\Generated_Source\PSoC5/USBFS.c ****             {
1137:.\Generated_Source\PSoC5/USBFS.c ****                 length = xferCount;
 1190              		.loc 1 1137 0
 1191 0052 FB8B     		ldrh	r3, [r7, #30]	@ movhi
 1192 0054 FB80     		strh	r3, [r7, #6]	@ movhi
 1193              	.L44:
1138:.\Generated_Source\PSoC5/USBFS.c ****             }
1139:.\Generated_Source\PSoC5/USBFS.c ****         #endif /* End USBFS_EP_MM != USBFS__EP_DMAAUTO */
1140:.\Generated_Source\PSoC5/USBFS.c **** 
ARM GAS  C:\DOCUME~1\ADMINI~1\LOCALS~1\Temp\ccIwl9aE.s 			page 42


1141:.\Generated_Source\PSoC5/USBFS.c ****         #if(USBFS_EP_MM == USBFS__EP_MANUAL)
1142:.\Generated_Source\PSoC5/USBFS.c ****             /* Copy the data using the arbiter data register */
1143:.\Generated_Source\PSoC5/USBFS.c ****             for (i = 0u; i < length; i++)
 1194              		.loc 1 1143 0
 1195 0056 4FF00003 		mov	r3, #0
 1196 005a BB83     		strh	r3, [r7, #28]	@ movhi
 1197 005c 0AE0     		b	.L45
 1198              	.L46:
1144:.\Generated_Source\PSoC5/USBFS.c ****             {
1145:.\Generated_Source\PSoC5/USBFS.c ****                 pData[i] = CY_GET_REG8(p);
 1199              		.loc 1 1145 0
 1200 005e BA8B     		ldrh	r2, [r7, #28]
 1201 0060 BB68     		ldr	r3, [r7, #8]
 1202 0062 1344     		add	r3, r2, r3
 1203 0064 BA69     		ldr	r2, [r7, #24]
 1204 0066 1278     		ldrb	r2, [r2, #0]
 1205 0068 D2B2     		uxtb	r2, r2
 1206 006a 1A70     		strb	r2, [r3, #0]
 1207              		.loc 1 1143 0
 1208 006c BB8B     		ldrh	r3, [r7, #28]	@ movhi
 1209 006e 03F10103 		add	r3, r3, #1
 1210 0072 BB83     		strh	r3, [r7, #28]	@ movhi
 1211              	.L45:
 1212 0074 BA8B     		ldrh	r2, [r7, #28]
 1213 0076 FB88     		ldrh	r3, [r7, #6]
 1214 0078 9A42     		cmp	r2, r3
 1215 007a F0D3     		bcc	.L46
1146:.\Generated_Source\PSoC5/USBFS.c ****             }
1147:.\Generated_Source\PSoC5/USBFS.c **** 
1148:.\Generated_Source\PSoC5/USBFS.c ****             /* (re)arming of OUT endpoint */
1149:.\Generated_Source\PSoC5/USBFS.c ****             USBFS_EnableOutEP(epNumber);
 1216              		.loc 1 1149 0
 1217 007c FB7B     		ldrb	r3, [r7, #15]	@ zero_extendqisi2
 1218 007e 1846     		mov	r0, r3
 1219 0080 FFF7FEFF 		bl	USBFS_EnableOutEP
 1220              		.loc 1 1127 0
 1221 0084 02E0     		b	.L47
 1222              	.L43:
1150:.\Generated_Source\PSoC5/USBFS.c ****         #else
1151:.\Generated_Source\PSoC5/USBFS.c ****             /*Init DMA if it was not initialized */
1152:.\Generated_Source\PSoC5/USBFS.c ****             if(USBFS_DmaTd[epNumber] == DMA_INVALID_TD)
1153:.\Generated_Source\PSoC5/USBFS.c ****             {
1154:.\Generated_Source\PSoC5/USBFS.c ****                 USBFS_InitEP_DMA(epNumber, pData);
1155:.\Generated_Source\PSoC5/USBFS.c ****             }
1156:.\Generated_Source\PSoC5/USBFS.c ****         #endif /* End USBFS_EP_MM == USBFS__EP_MANUAL */
1157:.\Generated_Source\PSoC5/USBFS.c **** 
1158:.\Generated_Source\PSoC5/USBFS.c ****         #if(USBFS_EP_MM == USBFS__EP_DMAMANUAL)
1159:.\Generated_Source\PSoC5/USBFS.c ****             /* Enable DMA in mode2 for transfering data */
1160:.\Generated_Source\PSoC5/USBFS.c ****             CyDmaChDisable(USBFS_DmaChan[epNumber]);
1161:.\Generated_Source\PSoC5/USBFS.c ****             CyDmaTdSetConfiguration(USBFS_DmaTd[epNumber], length, DMA_INVALID_TD,
1162:.\Generated_Source\PSoC5/USBFS.c ****                                                                                 TD_TERMIN_EN | TD_I
1163:.\Generated_Source\PSoC5/USBFS.c ****             CyDmaTdSetAddress(USBFS_DmaTd[epNumber],  LO16((uint32)p), LO16((uint32)pData));
1164:.\Generated_Source\PSoC5/USBFS.c ****             /* Enable the DMA */
1165:.\Generated_Source\PSoC5/USBFS.c ****             CyDmaChSetInitialTd(USBFS_DmaChan[epNumber], USBFS_DmaTd[epNumber]);
1166:.\Generated_Source\PSoC5/USBFS.c ****             CyDmaChEnable(USBFS_DmaChan[epNumber], 1);
1167:.\Generated_Source\PSoC5/USBFS.c **** 
1168:.\Generated_Source\PSoC5/USBFS.c ****             /* Generate DMA request */
ARM GAS  C:\DOCUME~1\ADMINI~1\LOCALS~1\Temp\ccIwl9aE.s 			page 43


1169:.\Generated_Source\PSoC5/USBFS.c ****             USBFS_ARB_EP1_CFG_PTR[ri] |= USBFS_ARB_EPX_CFG_DMA_REQ;
1170:.\Generated_Source\PSoC5/USBFS.c ****             USBFS_ARB_EP1_CFG_PTR[ri] &= ~USBFS_ARB_EPX_CFG_DMA_REQ;
1171:.\Generated_Source\PSoC5/USBFS.c ****             /* Out EP will be (re)armed in arb ISR after transfer complete */
1172:.\Generated_Source\PSoC5/USBFS.c ****         #endif /* End USBFS_EP_MM == USBFS__EP_DMAMANUAL */
1173:.\Generated_Source\PSoC5/USBFS.c **** 
1174:.\Generated_Source\PSoC5/USBFS.c ****         #if(USBFS_EP_MM == USBFS__EP_DMAAUTO)
1175:.\Generated_Source\PSoC5/USBFS.c ****             /* Enable DMA in mode3 for transfering data */
1176:.\Generated_Source\PSoC5/USBFS.c ****             CyDmaChDisable(USBFS_DmaChan[epNumber]);
1177:.\Generated_Source\PSoC5/USBFS.c ****             CyDmaTdSetConfiguration(USBFS_DmaTd[epNumber], length, USBFS_DmaTd[epNumber],
1178:.\Generated_Source\PSoC5/USBFS.c ****                                                                                 TD_TERMIN_EN | TD_I
1179:.\Generated_Source\PSoC5/USBFS.c ****             CyDmaTdSetAddress(USBFS_DmaTd[epNumber],  LO16((uint32)p), LO16((uint32)pData));
1180:.\Generated_Source\PSoC5/USBFS.c **** 
1181:.\Generated_Source\PSoC5/USBFS.c ****             /* Clear Any potential pending DMA requests before starting the DMA channel to transfer
1182:.\Generated_Source\PSoC5/USBFS.c ****             CyDmaClearPendingDrq(USBFS_DmaChan[epNumber]);
1183:.\Generated_Source\PSoC5/USBFS.c ****             /* Enable the DMA */
1184:.\Generated_Source\PSoC5/USBFS.c ****             CyDmaChSetInitialTd(USBFS_DmaChan[epNumber], USBFS_DmaTd[epNumber]);
1185:.\Generated_Source\PSoC5/USBFS.c ****             CyDmaChEnable(USBFS_DmaChan[epNumber], 1);
1186:.\Generated_Source\PSoC5/USBFS.c ****             /* Out EP will be (re)armed in arb ISR after transfer complete */
1187:.\Generated_Source\PSoC5/USBFS.c ****         #endif /* End USBFS_EP_MM == USBFS__EP_DMAAUTO */
1188:.\Generated_Source\PSoC5/USBFS.c **** 
1189:.\Generated_Source\PSoC5/USBFS.c ****     }
1190:.\Generated_Source\PSoC5/USBFS.c ****     else
1191:.\Generated_Source\PSoC5/USBFS.c ****     {
1192:.\Generated_Source\PSoC5/USBFS.c ****         length = 0;
 1223              		.loc 1 1192 0
 1224 0086 4FF00003 		mov	r3, #0
 1225 008a FB80     		strh	r3, [r7, #6]	@ movhi
 1226              	.L47:
1193:.\Generated_Source\PSoC5/USBFS.c ****     }
1194:.\Generated_Source\PSoC5/USBFS.c **** 
1195:.\Generated_Source\PSoC5/USBFS.c ****     return(length);
 1227              		.loc 1 1195 0
 1228 008c FB88     		ldrh	r3, [r7, #6]
1196:.\Generated_Source\PSoC5/USBFS.c **** }
 1229              		.loc 1 1196 0
 1230 008e 1846     		mov	r0, r3
 1231 0090 07F12007 		add	r7, r7, #32
 1232 0094 BD46     		mov	sp, r7
 1233 0096 80BD     		pop	{r7, pc}
 1234              		.cfi_endproc
 1235              	.LFE12:
 1236              		.size	USBFS_ReadOutEP, .-USBFS_ReadOutEP
 1237              		.section	.text.USBFS_EnableOutEP,"ax",%progbits
 1238              		.align	2
 1239              		.global	USBFS_EnableOutEP
 1240              		.thumb
 1241              		.thumb_func
 1242              		.type	USBFS_EnableOutEP, %function
 1243              	USBFS_EnableOutEP:
 1244              	.LFB13:
1197:.\Generated_Source\PSoC5/USBFS.c **** 
1198:.\Generated_Source\PSoC5/USBFS.c **** 
1199:.\Generated_Source\PSoC5/USBFS.c **** /*******************************************************************************
1200:.\Generated_Source\PSoC5/USBFS.c **** * Function Name: USBFS_EnableOutEP
1201:.\Generated_Source\PSoC5/USBFS.c **** ********************************************************************************
1202:.\Generated_Source\PSoC5/USBFS.c **** *
1203:.\Generated_Source\PSoC5/USBFS.c **** * Summary:
ARM GAS  C:\DOCUME~1\ADMINI~1\LOCALS~1\Temp\ccIwl9aE.s 			page 44


1204:.\Generated_Source\PSoC5/USBFS.c **** *  This function enables an OUT endpoint.  It should not be
1205:.\Generated_Source\PSoC5/USBFS.c **** *  called for an IN endpoint.
1206:.\Generated_Source\PSoC5/USBFS.c **** *
1207:.\Generated_Source\PSoC5/USBFS.c **** * Parameters:
1208:.\Generated_Source\PSoC5/USBFS.c **** *  epNumber: Endpoint Number
1209:.\Generated_Source\PSoC5/USBFS.c **** *            Valid values are between 1 and 8.
1210:.\Generated_Source\PSoC5/USBFS.c **** *
1211:.\Generated_Source\PSoC5/USBFS.c **** * Return:
1212:.\Generated_Source\PSoC5/USBFS.c **** *   None.
1213:.\Generated_Source\PSoC5/USBFS.c **** *
1214:.\Generated_Source\PSoC5/USBFS.c **** * Global variables:
1215:.\Generated_Source\PSoC5/USBFS.c **** *  USBFS_EP[epNumber].apiEpState - set to NO_EVENT_PENDING
1216:.\Generated_Source\PSoC5/USBFS.c **** *
1217:.\Generated_Source\PSoC5/USBFS.c **** * Reentrant:
1218:.\Generated_Source\PSoC5/USBFS.c **** *  No.
1219:.\Generated_Source\PSoC5/USBFS.c **** *
1220:.\Generated_Source\PSoC5/USBFS.c **** *******************************************************************************/
1221:.\Generated_Source\PSoC5/USBFS.c **** void USBFS_EnableOutEP(uint8 epNumber) 
1222:.\Generated_Source\PSoC5/USBFS.c **** {
 1245              		.loc 1 1222 0
 1246              		.cfi_startproc
 1247              		@ args = 0, pretend = 0, frame = 16
 1248              		@ frame_needed = 1, uses_anonymous_args = 0
 1249              		@ link register save eliminated.
 1250 0000 80B4     		push	{r7}
 1251              	.LCFI37:
 1252              		.cfi_def_cfa_offset 4
 1253 0002 85B0     		sub	sp, sp, #20
 1254              	.LCFI38:
 1255              		.cfi_def_cfa_offset 24
 1256 0004 00AF     		add	r7, sp, #0
 1257              		.cfi_offset 7, -4
 1258              	.LCFI39:
 1259              		.cfi_def_cfa_register 7
 1260 0006 0346     		mov	r3, r0
 1261 0008 FB71     		strb	r3, [r7, #7]
1223:.\Generated_Source\PSoC5/USBFS.c ****     uint8 ri;
1224:.\Generated_Source\PSoC5/USBFS.c **** 
1225:.\Generated_Source\PSoC5/USBFS.c ****     if((epNumber > USBFS_EP0) && (epNumber < USBFS_MAX_EP))
 1262              		.loc 1 1225 0
 1263 000a FB79     		ldrb	r3, [r7, #7]	@ zero_extendqisi2
 1264 000c 002B     		cmp	r3, #0
 1265 000e 2DD0     		beq	.L51
 1266 0010 FB79     		ldrb	r3, [r7, #7]	@ zero_extendqisi2
 1267 0012 082B     		cmp	r3, #8
 1268 0014 2AD8     		bhi	.L51
1226:.\Generated_Source\PSoC5/USBFS.c ****     {
1227:.\Generated_Source\PSoC5/USBFS.c ****         ri = ((epNumber - USBFS_EP1) << USBFS_EPX_CNTX_ADDR_SHIFT);
 1269              		.loc 1 1227 0
 1270 0016 FB79     		ldrb	r3, [r7, #7]
 1271 0018 03F1FF33 		add	r3, r3, #-1
 1272 001c DBB2     		uxtb	r3, r3
 1273 001e 4FEA0313 		lsl	r3, r3, #4
 1274 0022 FB73     		strb	r3, [r7, #15]
1228:.\Generated_Source\PSoC5/USBFS.c ****         USBFS_EP[epNumber].apiEpState = USBFS_NO_EVENT_PENDING;
 1275              		.loc 1 1228 0
 1276 0024 F979     		ldrb	r1, [r7, #7]	@ zero_extendqisi2
ARM GAS  C:\DOCUME~1\ADMINI~1\LOCALS~1\Temp\ccIwl9aE.s 			page 45


 1277 0026 40F20002 		movw	r2, #:lower16:USBFS_EP
 1278 002a C0F20002 		movt	r2, #:upper16:USBFS_EP
 1279 002e 0B46     		mov	r3, r1
 1280 0030 4FEA4303 		lsl	r3, r3, #1
 1281 0034 0B44     		add	r3, r3, r1
 1282 0036 4FEA8303 		lsl	r3, r3, #2
 1283 003a 1344     		add	r3, r3, r2
 1284 003c 4FF00002 		mov	r2, #0
 1285 0040 5A70     		strb	r2, [r3, #1]
1229:.\Generated_Source\PSoC5/USBFS.c ****         /* Write the Mode register */
1230:.\Generated_Source\PSoC5/USBFS.c ****         CY_SET_REG8(&USBFS_SIE_EP1_CR0_PTR[ri], USBFS_EP[epNumber].epMode);
 1286              		.loc 1 1230 0
 1287 0042 FA7B     		ldrb	r2, [r7, #15]	@ zero_extendqisi2
 1288 0044 46F20E03 		movw	r3, #:lower16:1073766414
 1289 0048 C4F20003 		movt	r3, #:upper16:1073766414
 1290 004c 1344     		add	r3, r2, r3
 1291 004e F879     		ldrb	r0, [r7, #7]	@ zero_extendqisi2
 1292 0050 40F20001 		movw	r1, #:lower16:USBFS_EP
 1293 0054 C0F20001 		movt	r1, #:upper16:USBFS_EP
 1294 0058 0246     		mov	r2, r0
 1295 005a 4FEA4202 		lsl	r2, r2, #1
 1296 005e 0244     		add	r2, r2, r0
 1297 0060 4FEA8202 		lsl	r2, r2, #2
 1298 0064 0A44     		add	r2, r2, r1
 1299 0066 5279     		ldrb	r2, [r2, #5]
 1300 0068 D2B2     		uxtb	r2, r2
 1301 006a 1A70     		strb	r2, [r3, #0]
 1302              	.L51:
1231:.\Generated_Source\PSoC5/USBFS.c ****     }
1232:.\Generated_Source\PSoC5/USBFS.c **** }
 1303              		.loc 1 1232 0
 1304 006c 07F11407 		add	r7, r7, #20
 1305 0070 BD46     		mov	sp, r7
 1306 0072 80BC     		pop	{r7}
 1307 0074 7047     		bx	lr
 1308              		.cfi_endproc
 1309              	.LFE13:
 1310              		.size	USBFS_EnableOutEP, .-USBFS_EnableOutEP
 1311 0076 00BF     		.section	.text.USBFS_DisableOutEP,"ax",%progbits
 1312              		.align	2
 1313              		.global	USBFS_DisableOutEP
 1314              		.thumb
 1315              		.thumb_func
 1316              		.type	USBFS_DisableOutEP, %function
 1317              	USBFS_DisableOutEP:
 1318              	.LFB14:
1233:.\Generated_Source\PSoC5/USBFS.c **** 
1234:.\Generated_Source\PSoC5/USBFS.c **** 
1235:.\Generated_Source\PSoC5/USBFS.c **** /*******************************************************************************
1236:.\Generated_Source\PSoC5/USBFS.c **** * Function Name: USBFS_DisableOutEP
1237:.\Generated_Source\PSoC5/USBFS.c **** ********************************************************************************
1238:.\Generated_Source\PSoC5/USBFS.c **** *
1239:.\Generated_Source\PSoC5/USBFS.c **** * Summary:
1240:.\Generated_Source\PSoC5/USBFS.c **** *  This function disables an OUT endpoint.  It should not be
1241:.\Generated_Source\PSoC5/USBFS.c **** *  called for an IN endpoint.
1242:.\Generated_Source\PSoC5/USBFS.c **** *
1243:.\Generated_Source\PSoC5/USBFS.c **** * Parameters:
ARM GAS  C:\DOCUME~1\ADMINI~1\LOCALS~1\Temp\ccIwl9aE.s 			page 46


1244:.\Generated_Source\PSoC5/USBFS.c **** *  epNumber: Endpoint Number
1245:.\Generated_Source\PSoC5/USBFS.c **** *            Valid values are between 1 and 8.
1246:.\Generated_Source\PSoC5/USBFS.c **** *
1247:.\Generated_Source\PSoC5/USBFS.c **** * Return:
1248:.\Generated_Source\PSoC5/USBFS.c **** *  None.
1249:.\Generated_Source\PSoC5/USBFS.c **** *
1250:.\Generated_Source\PSoC5/USBFS.c **** *******************************************************************************/
1251:.\Generated_Source\PSoC5/USBFS.c **** void USBFS_DisableOutEP(uint8 epNumber) 
1252:.\Generated_Source\PSoC5/USBFS.c **** {
 1319              		.loc 1 1252 0
 1320              		.cfi_startproc
 1321              		@ args = 0, pretend = 0, frame = 16
 1322              		@ frame_needed = 1, uses_anonymous_args = 0
 1323              		@ link register save eliminated.
 1324 0000 80B4     		push	{r7}
 1325              	.LCFI40:
 1326              		.cfi_def_cfa_offset 4
 1327 0002 85B0     		sub	sp, sp, #20
 1328              	.LCFI41:
 1329              		.cfi_def_cfa_offset 24
 1330 0004 00AF     		add	r7, sp, #0
 1331              		.cfi_offset 7, -4
 1332              	.LCFI42:
 1333              		.cfi_def_cfa_register 7
 1334 0006 0346     		mov	r3, r0
 1335 0008 FB71     		strb	r3, [r7, #7]
1253:.\Generated_Source\PSoC5/USBFS.c ****     uint8 ri ;
1254:.\Generated_Source\PSoC5/USBFS.c **** 
1255:.\Generated_Source\PSoC5/USBFS.c ****     if((epNumber > USBFS_EP0) && (epNumber < USBFS_MAX_EP))
 1336              		.loc 1 1255 0
 1337 000a FB79     		ldrb	r3, [r7, #7]	@ zero_extendqisi2
 1338 000c 002B     		cmp	r3, #0
 1339 000e 12D0     		beq	.L54
 1340 0010 FB79     		ldrb	r3, [r7, #7]	@ zero_extendqisi2
 1341 0012 082B     		cmp	r3, #8
 1342 0014 0FD8     		bhi	.L54
1256:.\Generated_Source\PSoC5/USBFS.c ****     {
1257:.\Generated_Source\PSoC5/USBFS.c ****         ri = ((epNumber - USBFS_EP1) << USBFS_EPX_CNTX_ADDR_SHIFT);
 1343              		.loc 1 1257 0
 1344 0016 FB79     		ldrb	r3, [r7, #7]
 1345 0018 03F1FF33 		add	r3, r3, #-1
 1346 001c DBB2     		uxtb	r3, r3
 1347 001e 4FEA0313 		lsl	r3, r3, #4
 1348 0022 FB73     		strb	r3, [r7, #15]
1258:.\Generated_Source\PSoC5/USBFS.c ****         /* Write the Mode register */
1259:.\Generated_Source\PSoC5/USBFS.c ****         CY_SET_REG8(&USBFS_SIE_EP1_CR0_PTR[ri], USBFS_MODE_NAK_OUT);
 1349              		.loc 1 1259 0
 1350 0024 FA7B     		ldrb	r2, [r7, #15]	@ zero_extendqisi2
 1351 0026 46F20E03 		movw	r3, #:lower16:1073766414
 1352 002a C4F20003 		movt	r3, #:upper16:1073766414
 1353 002e 1344     		add	r3, r2, r3
 1354 0030 4FF00802 		mov	r2, #8
 1355 0034 1A70     		strb	r2, [r3, #0]
 1356              	.L54:
1260:.\Generated_Source\PSoC5/USBFS.c ****     }
1261:.\Generated_Source\PSoC5/USBFS.c **** }
 1357              		.loc 1 1261 0
ARM GAS  C:\DOCUME~1\ADMINI~1\LOCALS~1\Temp\ccIwl9aE.s 			page 47


 1358 0036 07F11407 		add	r7, r7, #20
 1359 003a BD46     		mov	sp, r7
 1360 003c 80BC     		pop	{r7}
 1361 003e 7047     		bx	lr
 1362              		.cfi_endproc
 1363              	.LFE14:
 1364              		.size	USBFS_DisableOutEP, .-USBFS_DisableOutEP
 1365              		.section	.text.USBFS_Force,"ax",%progbits
 1366              		.align	2
 1367              		.global	USBFS_Force
 1368              		.thumb
 1369              		.thumb_func
 1370              		.type	USBFS_Force, %function
 1371              	USBFS_Force:
 1372              	.LFB15:
1262:.\Generated_Source\PSoC5/USBFS.c **** 
1263:.\Generated_Source\PSoC5/USBFS.c **** 
1264:.\Generated_Source\PSoC5/USBFS.c **** /*******************************************************************************
1265:.\Generated_Source\PSoC5/USBFS.c **** * Function Name: USBFS_Force
1266:.\Generated_Source\PSoC5/USBFS.c **** ********************************************************************************
1267:.\Generated_Source\PSoC5/USBFS.c **** *
1268:.\Generated_Source\PSoC5/USBFS.c **** * Summary:
1269:.\Generated_Source\PSoC5/USBFS.c **** *  Forces the bus state
1270:.\Generated_Source\PSoC5/USBFS.c **** *
1271:.\Generated_Source\PSoC5/USBFS.c **** * Parameters:
1272:.\Generated_Source\PSoC5/USBFS.c **** *  bState
1273:.\Generated_Source\PSoC5/USBFS.c **** *    USBFS_FORCE_J
1274:.\Generated_Source\PSoC5/USBFS.c **** *    USBFS_FORCE_K
1275:.\Generated_Source\PSoC5/USBFS.c **** *    USBFS_FORCE_SE0
1276:.\Generated_Source\PSoC5/USBFS.c **** *    USBFS_FORCE_NONE
1277:.\Generated_Source\PSoC5/USBFS.c **** *
1278:.\Generated_Source\PSoC5/USBFS.c **** * Return:
1279:.\Generated_Source\PSoC5/USBFS.c **** *  None.
1280:.\Generated_Source\PSoC5/USBFS.c **** *
1281:.\Generated_Source\PSoC5/USBFS.c **** *******************************************************************************/
1282:.\Generated_Source\PSoC5/USBFS.c **** void USBFS_Force(uint8 bState) 
1283:.\Generated_Source\PSoC5/USBFS.c **** {
 1373              		.loc 1 1283 0
 1374              		.cfi_startproc
 1375              		@ args = 0, pretend = 0, frame = 8
 1376              		@ frame_needed = 1, uses_anonymous_args = 0
 1377              		@ link register save eliminated.
 1378 0000 80B4     		push	{r7}
 1379              	.LCFI43:
 1380              		.cfi_def_cfa_offset 4
 1381 0002 83B0     		sub	sp, sp, #12
 1382              	.LCFI44:
 1383              		.cfi_def_cfa_offset 16
 1384 0004 00AF     		add	r7, sp, #0
 1385              		.cfi_offset 7, -4
 1386              	.LCFI45:
 1387              		.cfi_def_cfa_register 7
 1388 0006 0346     		mov	r3, r0
 1389 0008 FB71     		strb	r3, [r7, #7]
1284:.\Generated_Source\PSoC5/USBFS.c ****     CY_SET_REG8(USBFS_USBIO_CR0_PTR, bState);
 1390              		.loc 1 1284 0
 1391 000a 46F21003 		movw	r3, #:lower16:1073766416
ARM GAS  C:\DOCUME~1\ADMINI~1\LOCALS~1\Temp\ccIwl9aE.s 			page 48


 1392 000e C4F20003 		movt	r3, #:upper16:1073766416
 1393 0012 FA79     		ldrb	r2, [r7, #7]
 1394 0014 1A70     		strb	r2, [r3, #0]
1285:.\Generated_Source\PSoC5/USBFS.c **** }
 1395              		.loc 1 1285 0
 1396 0016 07F10C07 		add	r7, r7, #12
 1397 001a BD46     		mov	sp, r7
 1398 001c 80BC     		pop	{r7}
 1399 001e 7047     		bx	lr
 1400              		.cfi_endproc
 1401              	.LFE15:
 1402              		.size	USBFS_Force, .-USBFS_Force
 1403              		.section	.text.USBFS_GetEPAckState,"ax",%progbits
 1404              		.align	2
 1405              		.global	USBFS_GetEPAckState
 1406              		.thumb
 1407              		.thumb_func
 1408              		.type	USBFS_GetEPAckState, %function
 1409              	USBFS_GetEPAckState:
 1410              	.LFB16:
1286:.\Generated_Source\PSoC5/USBFS.c **** 
1287:.\Generated_Source\PSoC5/USBFS.c **** 
1288:.\Generated_Source\PSoC5/USBFS.c **** /*******************************************************************************
1289:.\Generated_Source\PSoC5/USBFS.c **** * Function Name: USBFS_GetEPAckState
1290:.\Generated_Source\PSoC5/USBFS.c **** ********************************************************************************
1291:.\Generated_Source\PSoC5/USBFS.c **** *
1292:.\Generated_Source\PSoC5/USBFS.c **** * Summary:
1293:.\Generated_Source\PSoC5/USBFS.c **** *  Returns the ACK of the CR0 Register (ACKD)
1294:.\Generated_Source\PSoC5/USBFS.c **** *
1295:.\Generated_Source\PSoC5/USBFS.c **** * Parameters:
1296:.\Generated_Source\PSoC5/USBFS.c **** *  epNumber: Endpoint Number
1297:.\Generated_Source\PSoC5/USBFS.c **** *            Valid values are between 1 and 8.
1298:.\Generated_Source\PSoC5/USBFS.c **** *
1299:.\Generated_Source\PSoC5/USBFS.c **** * Returns
1300:.\Generated_Source\PSoC5/USBFS.c **** *  0 if nothing has been ACKD, non-=zero something has been ACKD
1301:.\Generated_Source\PSoC5/USBFS.c **** *
1302:.\Generated_Source\PSoC5/USBFS.c **** *******************************************************************************/
1303:.\Generated_Source\PSoC5/USBFS.c **** uint8 USBFS_GetEPAckState(uint8 epNumber) 
1304:.\Generated_Source\PSoC5/USBFS.c **** {
 1411              		.loc 1 1304 0
 1412              		.cfi_startproc
 1413              		@ args = 0, pretend = 0, frame = 16
 1414              		@ frame_needed = 1, uses_anonymous_args = 0
 1415              		@ link register save eliminated.
 1416 0000 80B4     		push	{r7}
 1417              	.LCFI46:
 1418              		.cfi_def_cfa_offset 4
 1419 0002 85B0     		sub	sp, sp, #20
 1420              	.LCFI47:
 1421              		.cfi_def_cfa_offset 24
 1422 0004 00AF     		add	r7, sp, #0
 1423              		.cfi_offset 7, -4
 1424              	.LCFI48:
 1425              		.cfi_def_cfa_register 7
 1426 0006 0346     		mov	r3, r0
 1427 0008 FB71     		strb	r3, [r7, #7]
1305:.\Generated_Source\PSoC5/USBFS.c ****     uint8 ri;
ARM GAS  C:\DOCUME~1\ADMINI~1\LOCALS~1\Temp\ccIwl9aE.s 			page 49


1306:.\Generated_Source\PSoC5/USBFS.c ****     uint8 cr = 0;
 1428              		.loc 1 1306 0
 1429 000a 4FF00003 		mov	r3, #0
 1430 000e FB73     		strb	r3, [r7, #15]
1307:.\Generated_Source\PSoC5/USBFS.c **** 
1308:.\Generated_Source\PSoC5/USBFS.c ****     if((epNumber > USBFS_EP0) && (epNumber < USBFS_MAX_EP))
 1431              		.loc 1 1308 0
 1432 0010 FB79     		ldrb	r3, [r7, #7]	@ zero_extendqisi2
 1433 0012 002B     		cmp	r3, #0
 1434 0014 14D0     		beq	.L58
 1435 0016 FB79     		ldrb	r3, [r7, #7]	@ zero_extendqisi2
 1436 0018 082B     		cmp	r3, #8
 1437 001a 11D8     		bhi	.L58
1309:.\Generated_Source\PSoC5/USBFS.c ****     {
1310:.\Generated_Source\PSoC5/USBFS.c ****         ri = ((epNumber - USBFS_EP1) << USBFS_EPX_CNTX_ADDR_SHIFT);
 1438              		.loc 1 1310 0
 1439 001c FB79     		ldrb	r3, [r7, #7]
 1440 001e 03F1FF33 		add	r3, r3, #-1
 1441 0022 DBB2     		uxtb	r3, r3
 1442 0024 4FEA0313 		lsl	r3, r3, #4
 1443 0028 BB73     		strb	r3, [r7, #14]
1311:.\Generated_Source\PSoC5/USBFS.c ****         cr = CY_GET_REG8(&USBFS_SIE_EP1_CR0_PTR[ri]) & USBFS_MODE_ACKD;
 1444              		.loc 1 1311 0
 1445 002a BA7B     		ldrb	r2, [r7, #14]	@ zero_extendqisi2
 1446 002c 46F20E03 		movw	r3, #:lower16:1073766414
 1447 0030 C4F20003 		movt	r3, #:upper16:1073766414
 1448 0034 1344     		add	r3, r2, r3
 1449 0036 1B78     		ldrb	r3, [r3, #0]
 1450 0038 DBB2     		uxtb	r3, r3
 1451 003a 03F01003 		and	r3, r3, #16
 1452 003e FB73     		strb	r3, [r7, #15]
 1453              	.L58:
1312:.\Generated_Source\PSoC5/USBFS.c ****     }
1313:.\Generated_Source\PSoC5/USBFS.c **** 
1314:.\Generated_Source\PSoC5/USBFS.c ****     return(cr);
 1454              		.loc 1 1314 0
 1455 0040 FB7B     		ldrb	r3, [r7, #15]	@ zero_extendqisi2
1315:.\Generated_Source\PSoC5/USBFS.c **** }
 1456              		.loc 1 1315 0
 1457 0042 1846     		mov	r0, r3
 1458 0044 07F11407 		add	r7, r7, #20
 1459 0048 BD46     		mov	sp, r7
 1460 004a 80BC     		pop	{r7}
 1461 004c 7047     		bx	lr
 1462              		.cfi_endproc
 1463              	.LFE16:
 1464              		.size	USBFS_GetEPAckState, .-USBFS_GetEPAckState
 1465 004e 00BF     		.section	.text.USBFS_SetPowerStatus,"ax",%progbits
 1466              		.align	2
 1467              		.global	USBFS_SetPowerStatus
 1468              		.thumb
 1469              		.thumb_func
 1470              		.type	USBFS_SetPowerStatus, %function
 1471              	USBFS_SetPowerStatus:
 1472              	.LFB17:
1316:.\Generated_Source\PSoC5/USBFS.c **** 
1317:.\Generated_Source\PSoC5/USBFS.c **** 
ARM GAS  C:\DOCUME~1\ADMINI~1\LOCALS~1\Temp\ccIwl9aE.s 			page 50


1318:.\Generated_Source\PSoC5/USBFS.c **** /*******************************************************************************
1319:.\Generated_Source\PSoC5/USBFS.c **** * Function Name: USBFS_SetPowerStatus
1320:.\Generated_Source\PSoC5/USBFS.c **** ********************************************************************************
1321:.\Generated_Source\PSoC5/USBFS.c **** *
1322:.\Generated_Source\PSoC5/USBFS.c **** * Summary:
1323:.\Generated_Source\PSoC5/USBFS.c **** *  Sets the device power status for reporting in the Get Device Status
1324:.\Generated_Source\PSoC5/USBFS.c **** *  request
1325:.\Generated_Source\PSoC5/USBFS.c **** *
1326:.\Generated_Source\PSoC5/USBFS.c **** * Parameters:
1327:.\Generated_Source\PSoC5/USBFS.c **** *  powerStatus: USBFS_DEVICE_STATUS_BUS_POWERED(0) - Bus Powered,
1328:.\Generated_Source\PSoC5/USBFS.c **** *               USBFS_DEVICE_STATUS_SELF_POWERED(1) - Self Powered
1329:.\Generated_Source\PSoC5/USBFS.c **** *
1330:.\Generated_Source\PSoC5/USBFS.c **** * Return:
1331:.\Generated_Source\PSoC5/USBFS.c **** *   None.
1332:.\Generated_Source\PSoC5/USBFS.c **** *
1333:.\Generated_Source\PSoC5/USBFS.c **** * Global variables:
1334:.\Generated_Source\PSoC5/USBFS.c **** *  USBFS_deviceStatus - set power status
1335:.\Generated_Source\PSoC5/USBFS.c **** *
1336:.\Generated_Source\PSoC5/USBFS.c **** * Reentrant:
1337:.\Generated_Source\PSoC5/USBFS.c **** *  No.
1338:.\Generated_Source\PSoC5/USBFS.c **** *
1339:.\Generated_Source\PSoC5/USBFS.c **** *******************************************************************************/
1340:.\Generated_Source\PSoC5/USBFS.c **** void USBFS_SetPowerStatus(uint8 powerStatus) 
1341:.\Generated_Source\PSoC5/USBFS.c **** {
 1473              		.loc 1 1341 0
 1474              		.cfi_startproc
 1475              		@ args = 0, pretend = 0, frame = 8
 1476              		@ frame_needed = 1, uses_anonymous_args = 0
 1477              		@ link register save eliminated.
 1478 0000 80B4     		push	{r7}
 1479              	.LCFI49:
 1480              		.cfi_def_cfa_offset 4
 1481 0002 83B0     		sub	sp, sp, #12
 1482              	.LCFI50:
 1483              		.cfi_def_cfa_offset 16
 1484 0004 00AF     		add	r7, sp, #0
 1485              		.cfi_offset 7, -4
 1486              	.LCFI51:
 1487              		.cfi_def_cfa_register 7
 1488 0006 0346     		mov	r3, r0
 1489 0008 FB71     		strb	r3, [r7, #7]
1342:.\Generated_Source\PSoC5/USBFS.c ****     if (powerStatus != USBFS_DEVICE_STATUS_BUS_POWERED)
 1490              		.loc 1 1342 0
 1491 000a FB79     		ldrb	r3, [r7, #7]	@ zero_extendqisi2
 1492 000c 002B     		cmp	r3, #0
 1493 000e 0ED0     		beq	.L61
1343:.\Generated_Source\PSoC5/USBFS.c ****     {
1344:.\Generated_Source\PSoC5/USBFS.c ****         USBFS_deviceStatus |=  USBFS_DEVICE_STATUS_SELF_POWERED;
 1494              		.loc 1 1344 0
 1495 0010 40F20003 		movw	r3, #:lower16:USBFS_deviceStatus
 1496 0014 C0F20003 		movt	r3, #:upper16:USBFS_deviceStatus
 1497 0018 1B78     		ldrb	r3, [r3, #0]
 1498 001a DBB2     		uxtb	r3, r3
 1499 001c 43F00103 		orr	r3, r3, #1
 1500 0020 DAB2     		uxtb	r2, r3
 1501 0022 40F20003 		movw	r3, #:lower16:USBFS_deviceStatus
 1502 0026 C0F20003 		movt	r3, #:upper16:USBFS_deviceStatus
ARM GAS  C:\DOCUME~1\ADMINI~1\LOCALS~1\Temp\ccIwl9aE.s 			page 51


 1503 002a 1A70     		strb	r2, [r3, #0]
 1504 002c 0DE0     		b	.L63
 1505              	.L61:
1345:.\Generated_Source\PSoC5/USBFS.c ****     }
1346:.\Generated_Source\PSoC5/USBFS.c ****     else
1347:.\Generated_Source\PSoC5/USBFS.c ****     {
1348:.\Generated_Source\PSoC5/USBFS.c ****         USBFS_deviceStatus &=  ~USBFS_DEVICE_STATUS_SELF_POWERED;
 1506              		.loc 1 1348 0
 1507 002e 40F20003 		movw	r3, #:lower16:USBFS_deviceStatus
 1508 0032 C0F20003 		movt	r3, #:upper16:USBFS_deviceStatus
 1509 0036 1B78     		ldrb	r3, [r3, #0]
 1510 0038 DBB2     		uxtb	r3, r3
 1511 003a 1A46     		mov	r2, r3
 1512 003c 02F0FE02 		and	r2, r2, #254
 1513 0040 40F20003 		movw	r3, #:lower16:USBFS_deviceStatus
 1514 0044 C0F20003 		movt	r3, #:upper16:USBFS_deviceStatus
 1515 0048 1A70     		strb	r2, [r3, #0]
 1516              	.L63:
1349:.\Generated_Source\PSoC5/USBFS.c ****     }
1350:.\Generated_Source\PSoC5/USBFS.c **** }
 1517              		.loc 1 1350 0
 1518 004a 07F10C07 		add	r7, r7, #12
 1519 004e BD46     		mov	sp, r7
 1520 0050 80BC     		pop	{r7}
 1521 0052 7047     		bx	lr
 1522              		.cfi_endproc
 1523              	.LFE17:
 1524              		.size	USBFS_SetPowerStatus, .-USBFS_SetPowerStatus
 1525              		.section	.text.USBFS_RWUEnabled,"ax",%progbits
 1526              		.align	2
 1527              		.global	USBFS_RWUEnabled
 1528              		.thumb
 1529              		.thumb_func
 1530              		.type	USBFS_RWUEnabled, %function
 1531              	USBFS_RWUEnabled:
 1532              	.LFB18:
1351:.\Generated_Source\PSoC5/USBFS.c **** 
1352:.\Generated_Source\PSoC5/USBFS.c **** 
1353:.\Generated_Source\PSoC5/USBFS.c **** #if (USBFS_MON_VBUS == 1u)
1354:.\Generated_Source\PSoC5/USBFS.c **** 
1355:.\Generated_Source\PSoC5/USBFS.c ****     /*******************************************************************************
1356:.\Generated_Source\PSoC5/USBFS.c ****     * Function Name: USBFS_VBusPresent
1357:.\Generated_Source\PSoC5/USBFS.c ****     ********************************************************************************
1358:.\Generated_Source\PSoC5/USBFS.c ****     *
1359:.\Generated_Source\PSoC5/USBFS.c ****     * Summary:
1360:.\Generated_Source\PSoC5/USBFS.c ****     *  Determines VBUS presence for Self Powered Devices.
1361:.\Generated_Source\PSoC5/USBFS.c ****     *
1362:.\Generated_Source\PSoC5/USBFS.c ****     * Parameters:
1363:.\Generated_Source\PSoC5/USBFS.c ****     *  None.
1364:.\Generated_Source\PSoC5/USBFS.c ****     *
1365:.\Generated_Source\PSoC5/USBFS.c ****     * Return:
1366:.\Generated_Source\PSoC5/USBFS.c ****     *  1 if VBUS is present, otherwise 0.
1367:.\Generated_Source\PSoC5/USBFS.c ****     *
1368:.\Generated_Source\PSoC5/USBFS.c ****     *******************************************************************************/
1369:.\Generated_Source\PSoC5/USBFS.c ****     uint8 USBFS_VBusPresent(void) 
1370:.\Generated_Source\PSoC5/USBFS.c ****     {
1371:.\Generated_Source\PSoC5/USBFS.c ****         return((CY_GET_REG8(USBFS_VBUS_PS_PTR) & USBFS_VBUS_MASK) ? 1u : 0u);
ARM GAS  C:\DOCUME~1\ADMINI~1\LOCALS~1\Temp\ccIwl9aE.s 			page 52


1372:.\Generated_Source\PSoC5/USBFS.c ****     }
1373:.\Generated_Source\PSoC5/USBFS.c **** 
1374:.\Generated_Source\PSoC5/USBFS.c **** #endif /* USBFS_MON_VBUS */
1375:.\Generated_Source\PSoC5/USBFS.c **** 
1376:.\Generated_Source\PSoC5/USBFS.c **** 
1377:.\Generated_Source\PSoC5/USBFS.c **** /*******************************************************************************
1378:.\Generated_Source\PSoC5/USBFS.c **** * Function Name: USBFS_RWUEnabled
1379:.\Generated_Source\PSoC5/USBFS.c **** ********************************************************************************
1380:.\Generated_Source\PSoC5/USBFS.c **** *
1381:.\Generated_Source\PSoC5/USBFS.c **** * Summary:
1382:.\Generated_Source\PSoC5/USBFS.c **** *  Returns TRUE if Remote Wake Up is enabled, otherwise FALSE
1383:.\Generated_Source\PSoC5/USBFS.c **** *
1384:.\Generated_Source\PSoC5/USBFS.c **** * Parameters:
1385:.\Generated_Source\PSoC5/USBFS.c **** *   None.
1386:.\Generated_Source\PSoC5/USBFS.c **** *
1387:.\Generated_Source\PSoC5/USBFS.c **** * Return:
1388:.\Generated_Source\PSoC5/USBFS.c **** *  TRUE -  Remote Wake Up Enabled
1389:.\Generated_Source\PSoC5/USBFS.c **** *  FALSE - Remote Wake Up Disabled
1390:.\Generated_Source\PSoC5/USBFS.c **** *
1391:.\Generated_Source\PSoC5/USBFS.c **** * Global variables:
1392:.\Generated_Source\PSoC5/USBFS.c **** *  USBFS_deviceStatus - checked to determine remote status
1393:.\Generated_Source\PSoC5/USBFS.c **** *
1394:.\Generated_Source\PSoC5/USBFS.c **** *******************************************************************************/
1395:.\Generated_Source\PSoC5/USBFS.c **** uint8 USBFS_RWUEnabled(void) 
1396:.\Generated_Source\PSoC5/USBFS.c **** {
 1533              		.loc 1 1396 0
 1534              		.cfi_startproc
 1535              		@ args = 0, pretend = 0, frame = 8
 1536              		@ frame_needed = 1, uses_anonymous_args = 0
 1537              		@ link register save eliminated.
 1538 0000 80B4     		push	{r7}
 1539              	.LCFI52:
 1540              		.cfi_def_cfa_offset 4
 1541 0002 83B0     		sub	sp, sp, #12
 1542              	.LCFI53:
 1543              		.cfi_def_cfa_offset 16
 1544 0004 00AF     		add	r7, sp, #0
 1545              		.cfi_offset 7, -4
 1546              	.LCFI54:
 1547              		.cfi_def_cfa_register 7
1397:.\Generated_Source\PSoC5/USBFS.c ****     uint8 result = USBFS_FALSE;
 1548              		.loc 1 1397 0
 1549 0006 4FF00003 		mov	r3, #0
 1550 000a FB71     		strb	r3, [r7, #7]
1398:.\Generated_Source\PSoC5/USBFS.c ****     if((USBFS_deviceStatus & USBFS_DEVICE_STATUS_REMOTE_WAKEUP) != 0u)
 1551              		.loc 1 1398 0
 1552 000c 40F20003 		movw	r3, #:lower16:USBFS_deviceStatus
 1553 0010 C0F20003 		movt	r3, #:upper16:USBFS_deviceStatus
 1554 0014 1B78     		ldrb	r3, [r3, #0]
 1555 0016 DBB2     		uxtb	r3, r3
 1556 0018 03F00203 		and	r3, r3, #2
 1557 001c 002B     		cmp	r3, #0
 1558 001e 02D0     		beq	.L65
1399:.\Generated_Source\PSoC5/USBFS.c ****     {
1400:.\Generated_Source\PSoC5/USBFS.c ****         result = USBFS_TRUE;
 1559              		.loc 1 1400 0
 1560 0020 4FF00103 		mov	r3, #1
ARM GAS  C:\DOCUME~1\ADMINI~1\LOCALS~1\Temp\ccIwl9aE.s 			page 53


 1561 0024 FB71     		strb	r3, [r7, #7]
 1562              	.L65:
1401:.\Generated_Source\PSoC5/USBFS.c ****     }
1402:.\Generated_Source\PSoC5/USBFS.c **** 
1403:.\Generated_Source\PSoC5/USBFS.c ****     return(result);
 1563              		.loc 1 1403 0
 1564 0026 FB79     		ldrb	r3, [r7, #7]	@ zero_extendqisi2
1404:.\Generated_Source\PSoC5/USBFS.c **** }
 1565              		.loc 1 1404 0
 1566 0028 1846     		mov	r0, r3
 1567 002a 07F10C07 		add	r7, r7, #12
 1568 002e BD46     		mov	sp, r7
 1569 0030 80BC     		pop	{r7}
 1570 0032 7047     		bx	lr
 1571              		.cfi_endproc
 1572              	.LFE18:
 1573              		.size	USBFS_RWUEnabled, .-USBFS_RWUEnabled
 1574              		.text
 1575              	.Letext0: