ARM GAS  C:\DOCUME~1\ADMINI~1\LOCALS~1\Temp\ccMvMRW8.s 			page 1


   1              		.syntax unified
   2              		.cpu cortex-m3
   3              		.fpu softvfp
   4              		.eabi_attribute 20, 1
   5              		.eabi_attribute 21, 1
   6              		.eabi_attribute 23, 3
   7              		.eabi_attribute 24, 1
   8              		.eabi_attribute 25, 1
   9              		.eabi_attribute 26, 1
  10              		.eabi_attribute 30, 6
  11              		.eabi_attribute 18, 4
  12              		.thumb
  13              		.file	"USBFS_boot.c"
  20 0000 ED000000 		.text
  20      02006300 
  20      00000201 
  20      FB0E0D00 
  20      01010101 
  21              	.Ltext0:
  22              		.cfi_sections	.debug_frame
  23              		.global	USBFS_universalTime
  24              		.bss
  25              		.align	1
  26              		.type	USBFS_universalTime, %object
  27              		.size	USBFS_universalTime, 2
  28              	USBFS_universalTime:
  29 0000 0000     		.space	2
  30              		.global	USBFS_started
  31              		.type	USBFS_started, %object
  32              		.size	USBFS_started, 1
  33              	USBFS_started:
  34 0002 00       		.space	1
  35 0003 00       		.section	.text.USBFS_CyBtldrCommStart,"ax",%progbits
  36              		.align	2
  37              		.global	USBFS_CyBtldrCommStart
  38              		.thumb
  39              		.thumb_func
  40              		.type	USBFS_CyBtldrCommStart, %function
  41              	USBFS_CyBtldrCommStart:
  42              	.LFB0:
  43              		.file 1 ".\\Generated_Source\\PSoC5\\USBFS_boot.c"
   1:.\Generated_Source\PSoC5/USBFS_boot.c **** /*******************************************************************************
   2:.\Generated_Source\PSoC5/USBFS_boot.c **** * File Name: USBFS_boot.c
   3:.\Generated_Source\PSoC5/USBFS_boot.c **** * Version 2.51
   4:.\Generated_Source\PSoC5/USBFS_boot.c **** *
   5:.\Generated_Source\PSoC5/USBFS_boot.c **** * Description:
   6:.\Generated_Source\PSoC5/USBFS_boot.c **** *  Boot loader API for USBFS Component.
   7:.\Generated_Source\PSoC5/USBFS_boot.c **** *
   8:.\Generated_Source\PSoC5/USBFS_boot.c **** *  Note:
   9:.\Generated_Source\PSoC5/USBFS_boot.c **** *
  10:.\Generated_Source\PSoC5/USBFS_boot.c **** ********************************************************************************
ARM GAS  C:\DOCUME~1\ADMINI~1\LOCALS~1\Temp\ccMvMRW8.s 			page 2


  11:.\Generated_Source\PSoC5/USBFS_boot.c **** * Copyright 2008-2012, Cypress Semiconductor Corporation.  All rights reserved.
  12:.\Generated_Source\PSoC5/USBFS_boot.c **** * You may use this file only in accordance with the license, terms, conditions,
  13:.\Generated_Source\PSoC5/USBFS_boot.c **** * disclaimers, and limitations in the end user license agreement accompanying
  14:.\Generated_Source\PSoC5/USBFS_boot.c **** * the software package with which this file was provided.
  15:.\Generated_Source\PSoC5/USBFS_boot.c **** *******************************************************************************/
  16:.\Generated_Source\PSoC5/USBFS_boot.c **** 
  17:.\Generated_Source\PSoC5/USBFS_boot.c **** #include "USBFS.h"
  18:.\Generated_Source\PSoC5/USBFS_boot.c **** 
  19:.\Generated_Source\PSoC5/USBFS_boot.c **** #if defined(CYDEV_BOOTLOADER_IO_COMP) && ((CYDEV_BOOTLOADER_IO_COMP == CyBtldr_USBFS) || \
  20:.\Generated_Source\PSoC5/USBFS_boot.c ****                                           (CYDEV_BOOTLOADER_IO_COMP == CyBtldr_Custom_Interface))
  21:.\Generated_Source\PSoC5/USBFS_boot.c **** 
  22:.\Generated_Source\PSoC5/USBFS_boot.c **** 
  23:.\Generated_Source\PSoC5/USBFS_boot.c **** /***************************************
  24:.\Generated_Source\PSoC5/USBFS_boot.c **** *    Bootloader defines
  25:.\Generated_Source\PSoC5/USBFS_boot.c **** ***************************************/
  26:.\Generated_Source\PSoC5/USBFS_boot.c **** 
  27:.\Generated_Source\PSoC5/USBFS_boot.c **** #define USBFS_CyBtLdrStarttimer(X, T)         {USBFS_universalTime = T * 10; X = 0u;}
  28:.\Generated_Source\PSoC5/USBFS_boot.c **** #define USBFS_CyBtLdrChecktimer(X)            ((X++ < USBFS_universalTime) ? 1u : 0u)
  29:.\Generated_Source\PSoC5/USBFS_boot.c **** 
  30:.\Generated_Source\PSoC5/USBFS_boot.c **** #define USBFS_BTLDR_OUT_EP      (0x01u)
  31:.\Generated_Source\PSoC5/USBFS_boot.c **** #define USBFS_BTLDR_IN_EP       (0x02u)
  32:.\Generated_Source\PSoC5/USBFS_boot.c **** 
  33:.\Generated_Source\PSoC5/USBFS_boot.c **** 
  34:.\Generated_Source\PSoC5/USBFS_boot.c **** /***************************************
  35:.\Generated_Source\PSoC5/USBFS_boot.c **** *    Bootloader Variables
  36:.\Generated_Source\PSoC5/USBFS_boot.c **** ***************************************/
  37:.\Generated_Source\PSoC5/USBFS_boot.c **** 
  38:.\Generated_Source\PSoC5/USBFS_boot.c **** uint16 USBFS_universalTime = 0u;
  39:.\Generated_Source\PSoC5/USBFS_boot.c **** uint8 USBFS_started = 0u;
  40:.\Generated_Source\PSoC5/USBFS_boot.c **** 
  41:.\Generated_Source\PSoC5/USBFS_boot.c **** 
  42:.\Generated_Source\PSoC5/USBFS_boot.c **** /*******************************************************************************
  43:.\Generated_Source\PSoC5/USBFS_boot.c **** * Function Name: USBFS_CyBtldrCommStart
  44:.\Generated_Source\PSoC5/USBFS_boot.c **** ********************************************************************************
  45:.\Generated_Source\PSoC5/USBFS_boot.c **** *
  46:.\Generated_Source\PSoC5/USBFS_boot.c **** * Summary:
  47:.\Generated_Source\PSoC5/USBFS_boot.c **** *  Starts the component and enables the interupt.
  48:.\Generated_Source\PSoC5/USBFS_boot.c **** *
  49:.\Generated_Source\PSoC5/USBFS_boot.c **** * Parameters:
  50:.\Generated_Source\PSoC5/USBFS_boot.c **** *  None.
  51:.\Generated_Source\PSoC5/USBFS_boot.c **** *
  52:.\Generated_Source\PSoC5/USBFS_boot.c **** * Return:
  53:.\Generated_Source\PSoC5/USBFS_boot.c **** *  None.
  54:.\Generated_Source\PSoC5/USBFS_boot.c **** *
  55:.\Generated_Source\PSoC5/USBFS_boot.c **** * Side Effects:
  56:.\Generated_Source\PSoC5/USBFS_boot.c **** *  This function starts the USB with 3V or 5V operation.
  57:.\Generated_Source\PSoC5/USBFS_boot.c **** *
  58:.\Generated_Source\PSoC5/USBFS_boot.c **** * Reentrant:
  59:.\Generated_Source\PSoC5/USBFS_boot.c **** *  No.
  60:.\Generated_Source\PSoC5/USBFS_boot.c **** *
  61:.\Generated_Source\PSoC5/USBFS_boot.c **** *******************************************************************************/
  62:.\Generated_Source\PSoC5/USBFS_boot.c **** void USBFS_CyBtldrCommStart(void) 
  63:.\Generated_Source\PSoC5/USBFS_boot.c **** {
  44              		.loc 1 63 0
  45              		.cfi_startproc
  46              		@ args = 0, pretend = 0, frame = 0
  47              		@ frame_needed = 1, uses_anonymous_args = 0
ARM GAS  C:\DOCUME~1\ADMINI~1\LOCALS~1\Temp\ccMvMRW8.s 			page 3


  48 0000 80B5     		push	{r7, lr}
  49              	.LCFI0:
  50              		.cfi_def_cfa_offset 8
  51 0002 00AF     		add	r7, sp, #0
  52              		.cfi_offset 14, -4
  53              		.cfi_offset 7, -8
  54              	.LCFI1:
  55              		.cfi_def_cfa_register 7
  64:.\Generated_Source\PSoC5/USBFS_boot.c ****     CyGlobalIntEnable;      /* Enable Global Interrupts */
  56              		.loc 1 64 0
  57              	@ 64 ".\Generated_Source\PSoC5\USBFS_boot.c" 1
  58 0004 62B6     		CPSIE   i
  59              	@ 0 "" 2
  65:.\Generated_Source\PSoC5/USBFS_boot.c **** 
  66:.\Generated_Source\PSoC5/USBFS_boot.c ****     /*Start USBFS Operation/device 0 and with 5V or 3V operation depend on Voltage Congiguration in
  67:.\Generated_Source\PSoC5/USBFS_boot.c ****     USBFS_Start(0u, USBFS_DWR_VDDD_OPERATION);
  60              		.loc 1 67 0
  61              		.thumb
  62 0006 4FF00000 		mov	r0, #0
  63 000a 4FF00201 		mov	r1, #2
  64 000e FFF7FEFF 		bl	USBFS_Start
  68:.\Generated_Source\PSoC5/USBFS_boot.c **** 
  69:.\Generated_Source\PSoC5/USBFS_boot.c ****     /* USB componet started, the correct enumeration will be checked in first Read operation */
  70:.\Generated_Source\PSoC5/USBFS_boot.c ****     USBFS_started = 1u;
  65              		.loc 1 70 0
  66 0012 40F20003 		movw	r3, #:lower16:USBFS_started
  67 0016 C0F20003 		movt	r3, #:upper16:USBFS_started
  68 001a 4FF00102 		mov	r2, #1
  69 001e 1A70     		strb	r2, [r3, #0]
  71:.\Generated_Source\PSoC5/USBFS_boot.c **** 
  72:.\Generated_Source\PSoC5/USBFS_boot.c **** }
  70              		.loc 1 72 0
  71 0020 80BD     		pop	{r7, pc}
  72              		.cfi_endproc
  73              	.LFE0:
  74              		.size	USBFS_CyBtldrCommStart, .-USBFS_CyBtldrCommStart
  75 0022 00BF     		.section	.text.USBFS_CyBtldrCommStop,"ax",%progbits
  76              		.align	2
  77              		.global	USBFS_CyBtldrCommStop
  78              		.thumb
  79              		.thumb_func
  80              		.type	USBFS_CyBtldrCommStop, %function
  81              	USBFS_CyBtldrCommStop:
  82              	.LFB1:
  73:.\Generated_Source\PSoC5/USBFS_boot.c **** 
  74:.\Generated_Source\PSoC5/USBFS_boot.c **** 
  75:.\Generated_Source\PSoC5/USBFS_boot.c **** /*******************************************************************************
  76:.\Generated_Source\PSoC5/USBFS_boot.c **** * Function Name: USBFS_CyBtldrCommStop.
  77:.\Generated_Source\PSoC5/USBFS_boot.c **** ********************************************************************************
  78:.\Generated_Source\PSoC5/USBFS_boot.c **** *
  79:.\Generated_Source\PSoC5/USBFS_boot.c **** * Summary:
  80:.\Generated_Source\PSoC5/USBFS_boot.c **** *  Disable the component and disable the interrupt.
  81:.\Generated_Source\PSoC5/USBFS_boot.c **** *
  82:.\Generated_Source\PSoC5/USBFS_boot.c **** * Parameters:
  83:.\Generated_Source\PSoC5/USBFS_boot.c **** *  None.
  84:.\Generated_Source\PSoC5/USBFS_boot.c **** *
  85:.\Generated_Source\PSoC5/USBFS_boot.c **** * Return:
ARM GAS  C:\DOCUME~1\ADMINI~1\LOCALS~1\Temp\ccMvMRW8.s 			page 4


  86:.\Generated_Source\PSoC5/USBFS_boot.c **** *  None.
  87:.\Generated_Source\PSoC5/USBFS_boot.c **** *
  88:.\Generated_Source\PSoC5/USBFS_boot.c **** *******************************************************************************/
  89:.\Generated_Source\PSoC5/USBFS_boot.c **** void USBFS_CyBtldrCommStop(void) 
  90:.\Generated_Source\PSoC5/USBFS_boot.c **** {
  83              		.loc 1 90 0
  84              		.cfi_startproc
  85              		@ args = 0, pretend = 0, frame = 0
  86              		@ frame_needed = 1, uses_anonymous_args = 0
  87 0000 80B5     		push	{r7, lr}
  88              	.LCFI2:
  89              		.cfi_def_cfa_offset 8
  90 0002 00AF     		add	r7, sp, #0
  91              		.cfi_offset 14, -4
  92              		.cfi_offset 7, -8
  93              	.LCFI3:
  94              		.cfi_def_cfa_register 7
  91:.\Generated_Source\PSoC5/USBFS_boot.c ****     USBFS_Stop();
  95              		.loc 1 91 0
  96 0004 FFF7FEFF 		bl	USBFS_Stop
  92:.\Generated_Source\PSoC5/USBFS_boot.c **** }
  97              		.loc 1 92 0
  98 0008 80BD     		pop	{r7, pc}
  99              		.cfi_endproc
 100              	.LFE1:
 101              		.size	USBFS_CyBtldrCommStop, .-USBFS_CyBtldrCommStop
 102 000a 00BF     		.section	.text.USBFS_CyBtldrCommReset,"ax",%progbits
 103              		.align	2
 104              		.global	USBFS_CyBtldrCommReset
 105              		.thumb
 106              		.thumb_func
 107              		.type	USBFS_CyBtldrCommReset, %function
 108              	USBFS_CyBtldrCommReset:
 109              	.LFB2:
  93:.\Generated_Source\PSoC5/USBFS_boot.c **** 
  94:.\Generated_Source\PSoC5/USBFS_boot.c **** 
  95:.\Generated_Source\PSoC5/USBFS_boot.c **** /*******************************************************************************
  96:.\Generated_Source\PSoC5/USBFS_boot.c **** * Function Name: USBFS_CyBtldrCommReset.
  97:.\Generated_Source\PSoC5/USBFS_boot.c **** ********************************************************************************
  98:.\Generated_Source\PSoC5/USBFS_boot.c **** *
  99:.\Generated_Source\PSoC5/USBFS_boot.c **** * Summary:
 100:.\Generated_Source\PSoC5/USBFS_boot.c **** *  Resets the receive and transmit communication Buffers.
 101:.\Generated_Source\PSoC5/USBFS_boot.c **** *
 102:.\Generated_Source\PSoC5/USBFS_boot.c **** * Parameters:
 103:.\Generated_Source\PSoC5/USBFS_boot.c **** *  None.
 104:.\Generated_Source\PSoC5/USBFS_boot.c **** *
 105:.\Generated_Source\PSoC5/USBFS_boot.c **** * Return:
 106:.\Generated_Source\PSoC5/USBFS_boot.c **** *  None.
 107:.\Generated_Source\PSoC5/USBFS_boot.c **** *
 108:.\Generated_Source\PSoC5/USBFS_boot.c **** * Reentrant:
 109:.\Generated_Source\PSoC5/USBFS_boot.c **** *  No.
 110:.\Generated_Source\PSoC5/USBFS_boot.c **** *
 111:.\Generated_Source\PSoC5/USBFS_boot.c **** *******************************************************************************/
 112:.\Generated_Source\PSoC5/USBFS_boot.c **** void USBFS_CyBtldrCommReset(void) 
 113:.\Generated_Source\PSoC5/USBFS_boot.c **** {
 110              		.loc 1 113 0
 111              		.cfi_startproc
ARM GAS  C:\DOCUME~1\ADMINI~1\LOCALS~1\Temp\ccMvMRW8.s 			page 5


 112              		@ args = 0, pretend = 0, frame = 0
 113              		@ frame_needed = 1, uses_anonymous_args = 0
 114 0000 80B5     		push	{r7, lr}
 115              	.LCFI4:
 116              		.cfi_def_cfa_offset 8
 117 0002 00AF     		add	r7, sp, #0
 118              		.cfi_offset 14, -4
 119              		.cfi_offset 7, -8
 120              	.LCFI5:
 121              		.cfi_def_cfa_register 7
 114:.\Generated_Source\PSoC5/USBFS_boot.c ****     USBFS_EnableOutEP(USBFS_BTLDR_OUT_EP);  /* Enable the OUT endpoint */
 122              		.loc 1 114 0
 123 0004 4FF00100 		mov	r0, #1
 124 0008 FFF7FEFF 		bl	USBFS_EnableOutEP
 115:.\Generated_Source\PSoC5/USBFS_boot.c **** }
 125              		.loc 1 115 0
 126 000c 80BD     		pop	{r7, pc}
 127              		.cfi_endproc
 128              	.LFE2:
 129              		.size	USBFS_CyBtldrCommReset, .-USBFS_CyBtldrCommReset
 130 000e 00BF     		.section	.text.USBFS_CyBtldrCommWrite,"ax",%progbits
 131              		.align	2
 132              		.global	USBFS_CyBtldrCommWrite
 133              		.thumb
 134              		.thumb_func
 135              		.type	USBFS_CyBtldrCommWrite, %function
 136              	USBFS_CyBtldrCommWrite:
 137              	.LFB3:
 116:.\Generated_Source\PSoC5/USBFS_boot.c **** 
 117:.\Generated_Source\PSoC5/USBFS_boot.c **** 
 118:.\Generated_Source\PSoC5/USBFS_boot.c **** /*******************************************************************************
 119:.\Generated_Source\PSoC5/USBFS_boot.c **** * Function Name: USBFS_CyBtldrCommWrite.
 120:.\Generated_Source\PSoC5/USBFS_boot.c **** ********************************************************************************
 121:.\Generated_Source\PSoC5/USBFS_boot.c **** *
 122:.\Generated_Source\PSoC5/USBFS_boot.c **** * Summary:
 123:.\Generated_Source\PSoC5/USBFS_boot.c **** *  Allows the caller to write data to the boot loader host. The function will
 124:.\Generated_Source\PSoC5/USBFS_boot.c **** *  handle polling to allow a block of data to be completely sent to the host
 125:.\Generated_Source\PSoC5/USBFS_boot.c **** *  device.
 126:.\Generated_Source\PSoC5/USBFS_boot.c **** *
 127:.\Generated_Source\PSoC5/USBFS_boot.c **** * Parameters:
 128:.\Generated_Source\PSoC5/USBFS_boot.c **** *  pData:    A pointer to the block of data to send to the device
 129:.\Generated_Source\PSoC5/USBFS_boot.c **** *  size:     The number of bytes to write.
 130:.\Generated_Source\PSoC5/USBFS_boot.c **** *  count:    Pointer to an unsigned short variable to write the number of
 131:.\Generated_Source\PSoC5/USBFS_boot.c **** *             bytes actually written.
 132:.\Generated_Source\PSoC5/USBFS_boot.c **** *  timeOut:  Number of units to wait before returning because of a timeout.
 133:.\Generated_Source\PSoC5/USBFS_boot.c **** *
 134:.\Generated_Source\PSoC5/USBFS_boot.c **** * Return:
 135:.\Generated_Source\PSoC5/USBFS_boot.c **** *  Returns the value that best describes the problem.
 136:.\Generated_Source\PSoC5/USBFS_boot.c **** *
 137:.\Generated_Source\PSoC5/USBFS_boot.c **** * Reentrant:
 138:.\Generated_Source\PSoC5/USBFS_boot.c **** *  No.
 139:.\Generated_Source\PSoC5/USBFS_boot.c **** *
 140:.\Generated_Source\PSoC5/USBFS_boot.c **** *******************************************************************************/
 141:.\Generated_Source\PSoC5/USBFS_boot.c **** cystatus USBFS_CyBtldrCommWrite(uint8 *pData, uint16 size, uint16 *count, uint8 timeOut) CYSMALL
 142:.\Generated_Source\PSoC5/USBFS_boot.c ****                                                             
 143:.\Generated_Source\PSoC5/USBFS_boot.c **** {
 138              		.loc 1 143 0
ARM GAS  C:\DOCUME~1\ADMINI~1\LOCALS~1\Temp\ccMvMRW8.s 			page 6


 139              		.cfi_startproc
 140              		@ args = 0, pretend = 0, frame = 24
 141              		@ frame_needed = 1, uses_anonymous_args = 0
 142 0000 80B5     		push	{r7, lr}
 143              	.LCFI6:
 144              		.cfi_def_cfa_offset 8
 145 0002 86B0     		sub	sp, sp, #24
 146              	.LCFI7:
 147              		.cfi_def_cfa_offset 32
 148 0004 00AF     		add	r7, sp, #0
 149              		.cfi_offset 14, -4
 150              		.cfi_offset 7, -8
 151              	.LCFI8:
 152              		.cfi_def_cfa_register 7
 153 0006 F860     		str	r0, [r7, #12]
 154 0008 7A60     		str	r2, [r7, #4]
 155 000a 0A46     		mov	r2, r1	@ movhi
 156 000c 7A81     		strh	r2, [r7, #10]	@ movhi
 157 000e FB70     		strb	r3, [r7, #3]
 144:.\Generated_Source\PSoC5/USBFS_boot.c ****     uint16 time;
 145:.\Generated_Source\PSoC5/USBFS_boot.c ****     cystatus status;
 146:.\Generated_Source\PSoC5/USBFS_boot.c **** 
 147:.\Generated_Source\PSoC5/USBFS_boot.c ****     /* Enable IN transfer */
 148:.\Generated_Source\PSoC5/USBFS_boot.c ****     USBFS_LoadInEP(USBFS_BTLDR_IN_EP, pData, USBFS_BTLDR_SIZEOF_READ_BUFFER);
 158              		.loc 1 148 0
 159 0010 4FF00200 		mov	r0, #2
 160 0014 F968     		ldr	r1, [r7, #12]
 161 0016 4FF04002 		mov	r2, #64
 162 001a FFF7FEFF 		bl	USBFS_LoadInEP
 149:.\Generated_Source\PSoC5/USBFS_boot.c **** 
 150:.\Generated_Source\PSoC5/USBFS_boot.c ****     /* Start a timer to wait on. */
 151:.\Generated_Source\PSoC5/USBFS_boot.c ****     USBFS_CyBtLdrStarttimer(time, timeOut);
 163              		.loc 1 151 0
 164 001e FB78     		ldrb	r3, [r7, #3]	@ zero_extendqisi2
 165 0020 1A46     		mov	r2, r3	@ movhi
 166 0022 4FEA8202 		lsl	r2, r2, #2
 167 0026 1344     		add	r3, r2, r3
 168 0028 4FEA4303 		lsl	r3, r3, #1
 169 002c 9AB2     		uxth	r2, r3
 170 002e 40F20003 		movw	r3, #:lower16:USBFS_universalTime
 171 0032 C0F20003 		movt	r3, #:upper16:USBFS_universalTime
 172 0036 1A80     		strh	r2, [r3, #0]	@ movhi
 173 0038 4FF00003 		mov	r3, #0
 174 003c 7B82     		strh	r3, [r7, #18]	@ movhi
 152:.\Generated_Source\PSoC5/USBFS_boot.c **** 
 153:.\Generated_Source\PSoC5/USBFS_boot.c ****     /* Wait for the master to read it. */
 154:.\Generated_Source\PSoC5/USBFS_boot.c ****     while((USBFS_GetEPState(USBFS_BTLDR_IN_EP) == USBFS_IN_BUFFER_FULL) && \
 175              		.loc 1 154 0
 176 003e 03E0     		b	.L8
 177              	.L10:
 155:.\Generated_Source\PSoC5/USBFS_boot.c ****            USBFS_CyBtLdrChecktimer(time))
 156:.\Generated_Source\PSoC5/USBFS_boot.c ****     {
 157:.\Generated_Source\PSoC5/USBFS_boot.c ****         CyDelay(1); /* 1ms delay */
 178              		.loc 1 157 0
 179 0040 4FF00100 		mov	r0, #1
 180 0044 FFF7FEFF 		bl	CyDelay
 181              	.L8:
ARM GAS  C:\DOCUME~1\ADMINI~1\LOCALS~1\Temp\ccMvMRW8.s 			page 7


 182              		.loc 1 154 0
 183 0048 4FF00200 		mov	r0, #2
 184 004c FFF7FEFF 		bl	USBFS_GetEPState
 185 0050 0346     		mov	r3, r0
 186 0052 002B     		cmp	r3, #0
 187 0054 10D1     		bne	.L9
 188              		.loc 1 155 0
 189 0056 40F20003 		movw	r3, #:lower16:USBFS_universalTime
 190 005a C0F20003 		movt	r3, #:upper16:USBFS_universalTime
 191 005e 1B88     		ldrh	r3, [r3, #0]
 192 0060 7A8A     		ldrh	r2, [r7, #18]
 193 0062 9A42     		cmp	r2, r3
 194 0064 2CBF     		ite	cs
 195 0066 0023     		movcs	r3, #0
 196 0068 0123     		movcc	r3, #1
 197 006a DBB2     		uxtb	r3, r3
 198 006c 7A8A     		ldrh	r2, [r7, #18]	@ movhi
 199 006e 02F10102 		add	r2, r2, #1
 200 0072 7A82     		strh	r2, [r7, #18]	@ movhi
 201              		.loc 1 154 0
 202 0074 002B     		cmp	r3, #0
 203 0076 E3D1     		bne	.L10
 204              	.L9:
 158:.\Generated_Source\PSoC5/USBFS_boot.c ****     }
 159:.\Generated_Source\PSoC5/USBFS_boot.c **** 
 160:.\Generated_Source\PSoC5/USBFS_boot.c ****     if (USBFS_GetEPState(USBFS_BTLDR_IN_EP) == USBFS_IN_BUFFER_FULL)
 205              		.loc 1 160 0
 206 0078 4FF00200 		mov	r0, #2
 207 007c FFF7FEFF 		bl	USBFS_GetEPState
 208 0080 0346     		mov	r3, r0
 209 0082 002B     		cmp	r3, #0
 210 0084 03D1     		bne	.L11
 161:.\Generated_Source\PSoC5/USBFS_boot.c ****     {
 162:.\Generated_Source\PSoC5/USBFS_boot.c ****         status = CYRET_TIMEOUT;
 211              		.loc 1 162 0
 212 0086 4FF01003 		mov	r3, #16
 213 008a 7B61     		str	r3, [r7, #20]
 214 008c 05E0     		b	.L12
 215              	.L11:
 163:.\Generated_Source\PSoC5/USBFS_boot.c ****     }
 164:.\Generated_Source\PSoC5/USBFS_boot.c ****     else
 165:.\Generated_Source\PSoC5/USBFS_boot.c ****     {
 166:.\Generated_Source\PSoC5/USBFS_boot.c ****         *count = size;
 216              		.loc 1 166 0
 217 008e 7B68     		ldr	r3, [r7, #4]
 218 0090 7A89     		ldrh	r2, [r7, #10]	@ movhi
 219 0092 1A80     		strh	r2, [r3, #0]	@ movhi
 167:.\Generated_Source\PSoC5/USBFS_boot.c ****         status = CYRET_SUCCESS;
 220              		.loc 1 167 0
 221 0094 4FF00003 		mov	r3, #0
 222 0098 7B61     		str	r3, [r7, #20]
 223              	.L12:
 168:.\Generated_Source\PSoC5/USBFS_boot.c ****     }
 169:.\Generated_Source\PSoC5/USBFS_boot.c **** 
 170:.\Generated_Source\PSoC5/USBFS_boot.c ****     return(status);
 224              		.loc 1 170 0
 225 009a 7B69     		ldr	r3, [r7, #20]
ARM GAS  C:\DOCUME~1\ADMINI~1\LOCALS~1\Temp\ccMvMRW8.s 			page 8


 171:.\Generated_Source\PSoC5/USBFS_boot.c **** }
 226              		.loc 1 171 0
 227 009c 1846     		mov	r0, r3
 228 009e 07F11807 		add	r7, r7, #24
 229 00a2 BD46     		mov	sp, r7
 230 00a4 80BD     		pop	{r7, pc}
 231              		.cfi_endproc
 232              	.LFE3:
 233              		.size	USBFS_CyBtldrCommWrite, .-USBFS_CyBtldrCommWrite
 234 00a6 00BF     		.section	.text.USBFS_CyBtldrCommRead,"ax",%progbits
 235              		.align	2
 236              		.global	USBFS_CyBtldrCommRead
 237              		.thumb
 238              		.thumb_func
 239              		.type	USBFS_CyBtldrCommRead, %function
 240              	USBFS_CyBtldrCommRead:
 241              	.LFB4:
 172:.\Generated_Source\PSoC5/USBFS_boot.c **** 
 173:.\Generated_Source\PSoC5/USBFS_boot.c **** 
 174:.\Generated_Source\PSoC5/USBFS_boot.c **** /*******************************************************************************
 175:.\Generated_Source\PSoC5/USBFS_boot.c **** * Function Name: USBFS_CyBtldrCommRead.
 176:.\Generated_Source\PSoC5/USBFS_boot.c **** ********************************************************************************
 177:.\Generated_Source\PSoC5/USBFS_boot.c **** *
 178:.\Generated_Source\PSoC5/USBFS_boot.c **** * Summary:
 179:.\Generated_Source\PSoC5/USBFS_boot.c **** *  Allows the caller to read data from the boot loader host. The function will
 180:.\Generated_Source\PSoC5/USBFS_boot.c **** *  handle polling to allow a block of data to be completely received from the
 181:.\Generated_Source\PSoC5/USBFS_boot.c **** *  host device.
 182:.\Generated_Source\PSoC5/USBFS_boot.c **** *
 183:.\Generated_Source\PSoC5/USBFS_boot.c **** * Parameters:
 184:.\Generated_Source\PSoC5/USBFS_boot.c **** *  pData:    A pointer to the area to store the block of data received
 185:.\Generated_Source\PSoC5/USBFS_boot.c **** *             from the device.
 186:.\Generated_Source\PSoC5/USBFS_boot.c **** *  size:     The number of bytes to read.
 187:.\Generated_Source\PSoC5/USBFS_boot.c **** *  count:    Pointer to an unsigned short variable to write the number
 188:.\Generated_Source\PSoC5/USBFS_boot.c **** *             of bytes actually read.
 189:.\Generated_Source\PSoC5/USBFS_boot.c **** *  timeOut:  Number of units to wait before returning because of a timeOut.
 190:.\Generated_Source\PSoC5/USBFS_boot.c **** *            Timeout is measured in 10s of ms.
 191:.\Generated_Source\PSoC5/USBFS_boot.c **** *
 192:.\Generated_Source\PSoC5/USBFS_boot.c **** * Return:
 193:.\Generated_Source\PSoC5/USBFS_boot.c **** *  Returns the value that best describes the problem.
 194:.\Generated_Source\PSoC5/USBFS_boot.c **** *
 195:.\Generated_Source\PSoC5/USBFS_boot.c **** * Reentrant:
 196:.\Generated_Source\PSoC5/USBFS_boot.c **** *  No.
 197:.\Generated_Source\PSoC5/USBFS_boot.c **** *
 198:.\Generated_Source\PSoC5/USBFS_boot.c **** *******************************************************************************/
 199:.\Generated_Source\PSoC5/USBFS_boot.c **** cystatus USBFS_CyBtldrCommRead(uint8 *pData, uint16 size, uint16 *count, uint8 timeOut) CYSMALL
 200:.\Generated_Source\PSoC5/USBFS_boot.c ****                                                             
 201:.\Generated_Source\PSoC5/USBFS_boot.c **** {
 242              		.loc 1 201 0
 243              		.cfi_startproc
 244              		@ args = 0, pretend = 0, frame = 24
 245              		@ frame_needed = 1, uses_anonymous_args = 0
 246 0000 80B5     		push	{r7, lr}
 247              	.LCFI9:
 248              		.cfi_def_cfa_offset 8
 249 0002 86B0     		sub	sp, sp, #24
 250              	.LCFI10:
 251              		.cfi_def_cfa_offset 32
ARM GAS  C:\DOCUME~1\ADMINI~1\LOCALS~1\Temp\ccMvMRW8.s 			page 9


 252 0004 00AF     		add	r7, sp, #0
 253              		.cfi_offset 14, -4
 254              		.cfi_offset 7, -8
 255              	.LCFI11:
 256              		.cfi_def_cfa_register 7
 257 0006 F860     		str	r0, [r7, #12]
 258 0008 7A60     		str	r2, [r7, #4]
 259 000a 0A46     		mov	r2, r1	@ movhi
 260 000c 7A81     		strh	r2, [r7, #10]	@ movhi
 261 000e FB70     		strb	r3, [r7, #3]
 202:.\Generated_Source\PSoC5/USBFS_boot.c ****     cystatus status;
 203:.\Generated_Source\PSoC5/USBFS_boot.c ****     uint16 time;
 204:.\Generated_Source\PSoC5/USBFS_boot.c **** 
 205:.\Generated_Source\PSoC5/USBFS_boot.c ****     if(size > USBFS_BTLDR_SIZEOF_WRITE_BUFFER)
 262              		.loc 1 205 0
 263 0010 7B89     		ldrh	r3, [r7, #10]
 264 0012 402B     		cmp	r3, #64
 265 0014 02D9     		bls	.L15
 206:.\Generated_Source\PSoC5/USBFS_boot.c ****     {
 207:.\Generated_Source\PSoC5/USBFS_boot.c ****         size = USBFS_BTLDR_SIZEOF_WRITE_BUFFER;
 266              		.loc 1 207 0
 267 0016 4FF04003 		mov	r3, #64
 268 001a 7B81     		strh	r3, [r7, #10]	@ movhi
 269              	.L15:
 208:.\Generated_Source\PSoC5/USBFS_boot.c ****     }
 209:.\Generated_Source\PSoC5/USBFS_boot.c ****     /* Start a timer to wait on. */
 210:.\Generated_Source\PSoC5/USBFS_boot.c ****     USBFS_CyBtLdrStarttimer(time, timeOut);
 270              		.loc 1 210 0
 271 001c FB78     		ldrb	r3, [r7, #3]	@ zero_extendqisi2
 272 001e 1A46     		mov	r2, r3	@ movhi
 273 0020 4FEA8202 		lsl	r2, r2, #2
 274 0024 1344     		add	r3, r2, r3
 275 0026 4FEA4303 		lsl	r3, r3, #1
 276 002a 9AB2     		uxth	r2, r3
 277 002c 40F20003 		movw	r3, #:lower16:USBFS_universalTime
 278 0030 C0F20003 		movt	r3, #:upper16:USBFS_universalTime
 279 0034 1A80     		strh	r2, [r3, #0]	@ movhi
 280 0036 4FF00003 		mov	r3, #0
 281 003a FB82     		strh	r3, [r7, #22]	@ movhi
 211:.\Generated_Source\PSoC5/USBFS_boot.c **** 
 212:.\Generated_Source\PSoC5/USBFS_boot.c ****     /* Wait on enumeration in first time */
 213:.\Generated_Source\PSoC5/USBFS_boot.c ****     if(USBFS_started)
 282              		.loc 1 213 0
 283 003c 40F20003 		movw	r3, #:lower16:USBFS_started
 284 0040 C0F20003 		movt	r3, #:upper16:USBFS_started
 285 0044 1B78     		ldrb	r3, [r3, #0]	@ zero_extendqisi2
 286 0046 002B     		cmp	r3, #0
 287 0048 2BD0     		beq	.L16
 214:.\Generated_Source\PSoC5/USBFS_boot.c ****     {
 215:.\Generated_Source\PSoC5/USBFS_boot.c ****         /* Wait for Device to enumerate */
 216:.\Generated_Source\PSoC5/USBFS_boot.c ****         while(!USBFS_GetConfiguration() && USBFS_CyBtLdrChecktimer(time))
 288              		.loc 1 216 0
 289 004a 03E0     		b	.L17
 290              	.L19:
 217:.\Generated_Source\PSoC5/USBFS_boot.c ****         {
 218:.\Generated_Source\PSoC5/USBFS_boot.c ****             CyDelay(1); /* 1ms delay */
 291              		.loc 1 218 0
ARM GAS  C:\DOCUME~1\ADMINI~1\LOCALS~1\Temp\ccMvMRW8.s 			page 10


 292 004c 4FF00100 		mov	r0, #1
 293 0050 FFF7FEFF 		bl	CyDelay
 294              	.L17:
 295              		.loc 1 216 0
 296 0054 FFF7FEFF 		bl	USBFS_GetConfiguration
 297 0058 0346     		mov	r3, r0
 298 005a 002B     		cmp	r3, #0
 299 005c 10D1     		bne	.L18
 300 005e 40F20003 		movw	r3, #:lower16:USBFS_universalTime
 301 0062 C0F20003 		movt	r3, #:upper16:USBFS_universalTime
 302 0066 1B88     		ldrh	r3, [r3, #0]
 303 0068 FA8A     		ldrh	r2, [r7, #22]
 304 006a 9A42     		cmp	r2, r3
 305 006c 2CBF     		ite	cs
 306 006e 0023     		movcs	r3, #0
 307 0070 0123     		movcc	r3, #1
 308 0072 DBB2     		uxtb	r3, r3
 309 0074 FA8A     		ldrh	r2, [r7, #22]	@ movhi
 310 0076 02F10102 		add	r2, r2, #1
 311 007a FA82     		strh	r2, [r7, #22]	@ movhi
 312 007c 002B     		cmp	r3, #0
 313 007e E5D1     		bne	.L19
 314              	.L18:
 219:.\Generated_Source\PSoC5/USBFS_boot.c ****         }
 220:.\Generated_Source\PSoC5/USBFS_boot.c ****         /* Enable first OUT, if enumeration complete */
 221:.\Generated_Source\PSoC5/USBFS_boot.c ****         if(USBFS_GetConfiguration())
 315              		.loc 1 221 0
 316 0080 FFF7FEFF 		bl	USBFS_GetConfiguration
 317 0084 0346     		mov	r3, r0
 318 0086 002B     		cmp	r3, #0
 319 0088 1DD0     		beq	.L28
 222:.\Generated_Source\PSoC5/USBFS_boot.c ****         {
 223:.\Generated_Source\PSoC5/USBFS_boot.c ****             USBFS_IsConfigurationChanged();  /* Crear configuration changes state status */
 320              		.loc 1 223 0
 321 008a FFF7FEFF 		bl	USBFS_IsConfigurationChanged
 224:.\Generated_Source\PSoC5/USBFS_boot.c ****             USBFS_CyBtldrCommReset();
 322              		.loc 1 224 0
 323 008e FFF7FEFF 		bl	USBFS_CyBtldrCommReset
 225:.\Generated_Source\PSoC5/USBFS_boot.c ****             USBFS_started = 0u;
 324              		.loc 1 225 0
 325 0092 40F20003 		movw	r3, #:lower16:USBFS_started
 326 0096 C0F20003 		movt	r3, #:upper16:USBFS_started
 327 009a 4FF00002 		mov	r2, #0
 328 009e 1A70     		strb	r2, [r3, #0]
 226:.\Generated_Source\PSoC5/USBFS_boot.c ****         }
 227:.\Generated_Source\PSoC5/USBFS_boot.c ****     }
 228:.\Generated_Source\PSoC5/USBFS_boot.c ****     else /* Check for configuration changes has been done by Host */
 229:.\Generated_Source\PSoC5/USBFS_boot.c ****     {
 230:.\Generated_Source\PSoC5/USBFS_boot.c ****         if(USBFS_IsConfigurationChanged() != 0) /* Host could send double SET_INTERFACE request or 
 231:.\Generated_Source\PSoC5/USBFS_boot.c ****         {
 232:.\Generated_Source\PSoC5/USBFS_boot.c ****             if(USBFS_GetConfiguration() != 0)    /* Init IN endpoints when device configured */
 233:.\Generated_Source\PSoC5/USBFS_boot.c ****             {
 234:.\Generated_Source\PSoC5/USBFS_boot.c ****                 USBFS_CyBtldrCommReset();
 235:.\Generated_Source\PSoC5/USBFS_boot.c ****             }
 236:.\Generated_Source\PSoC5/USBFS_boot.c ****         }    
 237:.\Generated_Source\PSoC5/USBFS_boot.c ****     }
 238:.\Generated_Source\PSoC5/USBFS_boot.c **** 
ARM GAS  C:\DOCUME~1\ADMINI~1\LOCALS~1\Temp\ccMvMRW8.s 			page 11


 239:.\Generated_Source\PSoC5/USBFS_boot.c ****     /* Wait on next packet */
 240:.\Generated_Source\PSoC5/USBFS_boot.c ****     while((USBFS_GetEPState(USBFS_BTLDR_OUT_EP) != USBFS_OUT_BUFFER_FULL) && \
 329              		.loc 1 240 0
 330 00a0 16E0     		b	.L22
 331              	.L16:
 332              		.loc 1 230 0
 333 00a2 FFF7FEFF 		bl	USBFS_IsConfigurationChanged
 334 00a6 0346     		mov	r3, r0
 335 00a8 002B     		cmp	r3, #0
 336 00aa 0ED0     		beq	.L29
 337              		.loc 1 232 0
 338 00ac FFF7FEFF 		bl	USBFS_GetConfiguration
 339 00b0 0346     		mov	r3, r0
 340 00b2 002B     		cmp	r3, #0
 341 00b4 0BD0     		beq	.L30
 342              		.loc 1 234 0
 343 00b6 FFF7FEFF 		bl	USBFS_CyBtldrCommReset
 344              		.loc 1 240 0
 345 00ba 09E0     		b	.L22
 346              	.L24:
 241:.\Generated_Source\PSoC5/USBFS_boot.c ****            USBFS_CyBtLdrChecktimer(time))
 242:.\Generated_Source\PSoC5/USBFS_boot.c ****     {
 243:.\Generated_Source\PSoC5/USBFS_boot.c ****         CyDelay(1); /* 1ms delay */
 347              		.loc 1 243 0
 348 00bc 4FF00100 		mov	r0, #1
 349 00c0 FFF7FEFF 		bl	CyDelay
 350 00c4 04E0     		b	.L22
 351              	.L28:
 352              		.loc 1 240 0
 353 00c6 00BF     		nop
 354 00c8 02E0     		b	.L22
 355              	.L29:
 356 00ca 00BF     		nop
 357 00cc 00E0     		b	.L22
 358              	.L30:
 359 00ce 00BF     		nop
 360              	.L22:
 361 00d0 4FF00100 		mov	r0, #1
 362 00d4 FFF7FEFF 		bl	USBFS_GetEPState
 363 00d8 0346     		mov	r3, r0
 364 00da 012B     		cmp	r3, #1
 365 00dc 10D0     		beq	.L23
 366              		.loc 1 241 0
 367 00de 40F20003 		movw	r3, #:lower16:USBFS_universalTime
 368 00e2 C0F20003 		movt	r3, #:upper16:USBFS_universalTime
 369 00e6 1B88     		ldrh	r3, [r3, #0]
 370 00e8 FA8A     		ldrh	r2, [r7, #22]
 371 00ea 9A42     		cmp	r2, r3
 372 00ec 2CBF     		ite	cs
 373 00ee 0023     		movcs	r3, #0
 374 00f0 0123     		movcc	r3, #1
 375 00f2 DBB2     		uxtb	r3, r3
 376 00f4 FA8A     		ldrh	r2, [r7, #22]	@ movhi
 377 00f6 02F10102 		add	r2, r2, #1
 378 00fa FA82     		strh	r2, [r7, #22]	@ movhi
 379              		.loc 1 240 0
 380 00fc 002B     		cmp	r3, #0
ARM GAS  C:\DOCUME~1\ADMINI~1\LOCALS~1\Temp\ccMvMRW8.s 			page 12


 381 00fe DDD1     		bne	.L24
 382              	.L23:
 244:.\Generated_Source\PSoC5/USBFS_boot.c ****     }
 245:.\Generated_Source\PSoC5/USBFS_boot.c **** 
 246:.\Generated_Source\PSoC5/USBFS_boot.c ****     /* OUT EP has completed */
 247:.\Generated_Source\PSoC5/USBFS_boot.c ****     if (USBFS_GetEPState(USBFS_BTLDR_OUT_EP) == USBFS_OUT_BUFFER_FULL)
 383              		.loc 1 247 0
 384 0100 4FF00100 		mov	r0, #1
 385 0104 FFF7FEFF 		bl	USBFS_GetEPState
 386 0108 0346     		mov	r3, r0
 387 010a 012B     		cmp	r3, #1
 388 010c 0ED1     		bne	.L25
 248:.\Generated_Source\PSoC5/USBFS_boot.c ****     {
 249:.\Generated_Source\PSoC5/USBFS_boot.c ****         *count = USBFS_ReadOutEP(USBFS_BTLDR_OUT_EP, pData, size);
 389              		.loc 1 249 0
 390 010e 7B89     		ldrh	r3, [r7, #10]
 391 0110 4FF00100 		mov	r0, #1
 392 0114 F968     		ldr	r1, [r7, #12]
 393 0116 1A46     		mov	r2, r3
 394 0118 FFF7FEFF 		bl	USBFS_ReadOutEP
 395 011c 0346     		mov	r3, r0
 396 011e 1A46     		mov	r2, r3
 397 0120 7B68     		ldr	r3, [r7, #4]
 398 0122 1A80     		strh	r2, [r3, #0]	@ movhi
 250:.\Generated_Source\PSoC5/USBFS_boot.c ****         status = CYRET_SUCCESS;
 399              		.loc 1 250 0
 400 0124 4FF00003 		mov	r3, #0
 401 0128 3B61     		str	r3, [r7, #16]
 402 012a 06E0     		b	.L26
 403              	.L25:
 251:.\Generated_Source\PSoC5/USBFS_boot.c ****     }
 252:.\Generated_Source\PSoC5/USBFS_boot.c ****     else
 253:.\Generated_Source\PSoC5/USBFS_boot.c ****     {
 254:.\Generated_Source\PSoC5/USBFS_boot.c ****         *count = 0u;
 404              		.loc 1 254 0
 405 012c 7B68     		ldr	r3, [r7, #4]
 406 012e 4FF00002 		mov	r2, #0
 407 0132 1A80     		strh	r2, [r3, #0]	@ movhi
 255:.\Generated_Source\PSoC5/USBFS_boot.c ****         status = CYRET_TIMEOUT;
 408              		.loc 1 255 0
 409 0134 4FF01003 		mov	r3, #16
 410 0138 3B61     		str	r3, [r7, #16]
 411              	.L26:
 256:.\Generated_Source\PSoC5/USBFS_boot.c ****     }
 257:.\Generated_Source\PSoC5/USBFS_boot.c ****     return(status);
 412              		.loc 1 257 0
 413 013a 3B69     		ldr	r3, [r7, #16]
 258:.\Generated_Source\PSoC5/USBFS_boot.c **** }
 414              		.loc 1 258 0
 415 013c 1846     		mov	r0, r3
 416 013e 07F11807 		add	r7, r7, #24
 417 0142 BD46     		mov	sp, r7
 418 0144 80BD     		pop	{r7, pc}
 419              		.cfi_endproc
 420              	.LFE4:
 421              		.size	USBFS_CyBtldrCommRead, .-USBFS_CyBtldrCommRead
 422 0146 00BF     		.text
ARM GAS  C:\DOCUME~1\ADMINI~1\LOCALS~1\Temp\ccMvMRW8.s 			page 13


 423              	.Letext0: