ARM GAS  C:\DOCUME~1\ADMINI~1\LOCALS~1\Temp\ccQLwFFq.s 			page 1


   1              		.syntax unified
   2              		.cpu cortex-m3
   3              		.fpu softvfp
   4              		.eabi_attribute 20, 1
   5              		.eabi_attribute 21, 1
   6              		.eabi_attribute 23, 3
   7              		.eabi_attribute 24, 1
   8              		.eabi_attribute 25, 1
   9              		.eabi_attribute 26, 1
  10              		.eabi_attribute 30, 6
  11              		.eabi_attribute 18, 4
  12              		.thumb
  13              		.file	"USBFS_episr.c"
  20 0000 CC000000 		.text
  20      02006F00 
  20      00000201 
  20      FB0E0D00 
  20      01010101 
  21              	.Ltext0:
  22              		.cfi_sections	.debug_frame
  23              		.section	.text.USBFS_EP_1_ISR,"ax",%progbits
  24              		.align	2
  25              		.global	USBFS_EP_1_ISR
  26              		.thumb
  27              		.thumb_func
  28              		.type	USBFS_EP_1_ISR, %function
  29              	USBFS_EP_1_ISR:
  30              	.LFB0:
  31              		.file 1 ".\\Generated_Source\\PSoC5\\USBFS_episr.c"
   1:.\Generated_Source\PSoC5/USBFS_episr.c **** /*******************************************************************************
   2:.\Generated_Source\PSoC5/USBFS_episr.c **** * File Name: USBFS_episr.c
   3:.\Generated_Source\PSoC5/USBFS_episr.c **** * Version 2.51
   4:.\Generated_Source\PSoC5/USBFS_episr.c **** *
   5:.\Generated_Source\PSoC5/USBFS_episr.c **** * Description:
   6:.\Generated_Source\PSoC5/USBFS_episr.c **** *  Data endpoint Interrupt Service Routines
   7:.\Generated_Source\PSoC5/USBFS_episr.c **** *
   8:.\Generated_Source\PSoC5/USBFS_episr.c **** * Note:
   9:.\Generated_Source\PSoC5/USBFS_episr.c **** *
  10:.\Generated_Source\PSoC5/USBFS_episr.c **** ********************************************************************************
  11:.\Generated_Source\PSoC5/USBFS_episr.c **** * Copyright 2008-2012, Cypress Semiconductor Corporation.  All rights reserved.
  12:.\Generated_Source\PSoC5/USBFS_episr.c **** * You may use this file only in accordance with the license, terms, conditions,
  13:.\Generated_Source\PSoC5/USBFS_episr.c **** * disclaimers, and limitations in the end user license agreement accompanying
  14:.\Generated_Source\PSoC5/USBFS_episr.c **** * the software package with which this file was provided.
  15:.\Generated_Source\PSoC5/USBFS_episr.c **** *******************************************************************************/
  16:.\Generated_Source\PSoC5/USBFS_episr.c **** 
  17:.\Generated_Source\PSoC5/USBFS_episr.c **** #include "USBFS.h"
  18:.\Generated_Source\PSoC5/USBFS_episr.c **** 
  19:.\Generated_Source\PSoC5/USBFS_episr.c **** 
  20:.\Generated_Source\PSoC5/USBFS_episr.c **** /***************************************
  21:.\Generated_Source\PSoC5/USBFS_episr.c **** * Custom Declarations
  22:.\Generated_Source\PSoC5/USBFS_episr.c **** ***************************************/
ARM GAS  C:\DOCUME~1\ADMINI~1\LOCALS~1\Temp\ccQLwFFq.s 			page 2


  23:.\Generated_Source\PSoC5/USBFS_episr.c **** /* `#START CUSTOM_DECLARATIONS` Place your declaration here */
  24:.\Generated_Source\PSoC5/USBFS_episr.c **** 
  25:.\Generated_Source\PSoC5/USBFS_episr.c **** /* `#END` */
  26:.\Generated_Source\PSoC5/USBFS_episr.c **** 
  27:.\Generated_Source\PSoC5/USBFS_episr.c **** 
  28:.\Generated_Source\PSoC5/USBFS_episr.c **** /***************************************
  29:.\Generated_Source\PSoC5/USBFS_episr.c **** * External function references
  30:.\Generated_Source\PSoC5/USBFS_episr.c **** ***************************************/
  31:.\Generated_Source\PSoC5/USBFS_episr.c **** 
  32:.\Generated_Source\PSoC5/USBFS_episr.c **** void USBFS_InitComponent(uint8 device, uint8 mode) ;
  33:.\Generated_Source\PSoC5/USBFS_episr.c **** void USBFS_ReInitComponent(void) ;
  34:.\Generated_Source\PSoC5/USBFS_episr.c **** #if defined(USBFS_ENABLE_MIDI_STREAMING) && (USBFS_ENABLE_MIDI_API != 0u)
  35:.\Generated_Source\PSoC5/USBFS_episr.c ****     void USBFS_MIDI_OUT_EP_Service(void) ;
  36:.\Generated_Source\PSoC5/USBFS_episr.c **** #endif /* End USBFS_ENABLE_MIDI_STREAMING*/
  37:.\Generated_Source\PSoC5/USBFS_episr.c **** 
  38:.\Generated_Source\PSoC5/USBFS_episr.c **** 
  39:.\Generated_Source\PSoC5/USBFS_episr.c **** /***************************************
  40:.\Generated_Source\PSoC5/USBFS_episr.c **** * External references
  41:.\Generated_Source\PSoC5/USBFS_episr.c **** ***************************************/
  42:.\Generated_Source\PSoC5/USBFS_episr.c **** 
  43:.\Generated_Source\PSoC5/USBFS_episr.c **** extern volatile T_USBFS_EP_CTL_BLOCK USBFS_EP[];
  44:.\Generated_Source\PSoC5/USBFS_episr.c **** extern volatile uint8 USBFS_device;
  45:.\Generated_Source\PSoC5/USBFS_episr.c **** #if defined(USBFS_ENABLE_MIDI_STREAMING) && (USBFS_ENABLE_MIDI_API != 0u)
  46:.\Generated_Source\PSoC5/USBFS_episr.c ****     extern volatile uint8 USBFS_midi_out_ep;
  47:.\Generated_Source\PSoC5/USBFS_episr.c ****     extern volatile uint8 USBFS_midi_in_ep;
  48:.\Generated_Source\PSoC5/USBFS_episr.c ****     #if USBFS_MIDI_IN_BUFF_SIZE >= 256
  49:.\Generated_Source\PSoC5/USBFS_episr.c ****         extern volatile uint16 USBFS_midiInPointer;     /* Input endpoint buffer pointer */
  50:.\Generated_Source\PSoC5/USBFS_episr.c ****     #else
  51:.\Generated_Source\PSoC5/USBFS_episr.c ****         extern volatile uint8 USBFS_midiInPointer;      /* Input endpoint buffer pointer */
  52:.\Generated_Source\PSoC5/USBFS_episr.c ****     #endif /* End USBFS_MIDI_IN_BUFF_SIZE >=256 */    
  53:.\Generated_Source\PSoC5/USBFS_episr.c **** #endif /* End USBFS_ENABLE_MIDI_STREAMING*/
  54:.\Generated_Source\PSoC5/USBFS_episr.c **** 
  55:.\Generated_Source\PSoC5/USBFS_episr.c **** #if(USBFS_EP1_ISR_REMOVE == 0u)
  56:.\Generated_Source\PSoC5/USBFS_episr.c **** 
  57:.\Generated_Source\PSoC5/USBFS_episr.c **** 
  58:.\Generated_Source\PSoC5/USBFS_episr.c ****     /******************************************************************************
  59:.\Generated_Source\PSoC5/USBFS_episr.c ****     * Function Name: USBFS_EP_1_ISR
  60:.\Generated_Source\PSoC5/USBFS_episr.c ****     *******************************************************************************
  61:.\Generated_Source\PSoC5/USBFS_episr.c ****     *
  62:.\Generated_Source\PSoC5/USBFS_episr.c ****     * Summary:
  63:.\Generated_Source\PSoC5/USBFS_episr.c ****     *  Endpoint 1 Interrupt Service Routine
  64:.\Generated_Source\PSoC5/USBFS_episr.c ****     *
  65:.\Generated_Source\PSoC5/USBFS_episr.c ****     * Parameters:
  66:.\Generated_Source\PSoC5/USBFS_episr.c ****     *  None.
  67:.\Generated_Source\PSoC5/USBFS_episr.c ****     *
  68:.\Generated_Source\PSoC5/USBFS_episr.c ****     * Return:
  69:.\Generated_Source\PSoC5/USBFS_episr.c ****     *  None.
  70:.\Generated_Source\PSoC5/USBFS_episr.c ****     *
  71:.\Generated_Source\PSoC5/USBFS_episr.c ****     ******************************************************************************/
  72:.\Generated_Source\PSoC5/USBFS_episr.c ****     CY_ISR(USBFS_EP_1_ISR)
  73:.\Generated_Source\PSoC5/USBFS_episr.c ****     {
  32              		.loc 1 73 0
  33              		.cfi_startproc
  34              		@ args = 0, pretend = 0, frame = 0
  35              		@ frame_needed = 1, uses_anonymous_args = 0
  36              		@ link register save eliminated.
  37 0000 80B4     		push	{r7}
ARM GAS  C:\DOCUME~1\ADMINI~1\LOCALS~1\Temp\ccQLwFFq.s 			page 3


  38              	.LCFI0:
  39              		.cfi_def_cfa_offset 4
  40 0002 00AF     		add	r7, sp, #0
  41              		.cfi_offset 7, -4
  42              	.LCFI1:
  43              		.cfi_def_cfa_register 7
  74:.\Generated_Source\PSoC5/USBFS_episr.c ****         #if defined(USBFS_ENABLE_MIDI_STREAMING) && (USBFS_ENABLE_MIDI_API != 0u) && \
  75:.\Generated_Source\PSoC5/USBFS_episr.c ****             (USBFS_EP_MM == USBFS__EP_DMAAUTO) && (CY_PSOC3)
  76:.\Generated_Source\PSoC5/USBFS_episr.c ****             uint8 int_en;
  77:.\Generated_Source\PSoC5/USBFS_episr.c ****         #endif /* CY_PSOC3 & ENABLE_MIDI_STREAMING */
  78:.\Generated_Source\PSoC5/USBFS_episr.c ****     
  79:.\Generated_Source\PSoC5/USBFS_episr.c ****         /* `#START EP1_USER_CODE` Place your code here */
  80:.\Generated_Source\PSoC5/USBFS_episr.c **** 
  81:.\Generated_Source\PSoC5/USBFS_episr.c ****         /* `#END` */
  82:.\Generated_Source\PSoC5/USBFS_episr.c **** 
  83:.\Generated_Source\PSoC5/USBFS_episr.c ****         #if defined(USBFS_ENABLE_MIDI_STREAMING) && (USBFS_ENABLE_MIDI_API != 0u) && \
  84:.\Generated_Source\PSoC5/USBFS_episr.c ****             (USBFS_EP_MM == USBFS__EP_DMAAUTO) && (CY_PSOC3)
  85:.\Generated_Source\PSoC5/USBFS_episr.c ****             int_en = EA;
  86:.\Generated_Source\PSoC5/USBFS_episr.c ****             CyGlobalIntEnable;  /* Make sure nested interrupt is enabled */
  87:.\Generated_Source\PSoC5/USBFS_episr.c ****         #endif /* CY_PSOC3 & ENABLE_MIDI_STREAMING */
  88:.\Generated_Source\PSoC5/USBFS_episr.c **** 
  89:.\Generated_Source\PSoC5/USBFS_episr.c ****         CY_GET_REG8(USBFS_SIE_EP1_CR0_PTR); /* Must read the mode reg */
  44              		.loc 1 89 0
  45 0004 46F20E03 		movw	r3, #:lower16:1073766414
  46 0008 C4F20003 		movt	r3, #:upper16:1073766414
  47 000c 1B78     		ldrb	r3, [r3, #0]
  90:.\Generated_Source\PSoC5/USBFS_episr.c ****         /* Do not toggle ISOC endpoint */
  91:.\Generated_Source\PSoC5/USBFS_episr.c ****         if((USBFS_EP[USBFS_EP1].attrib & USBFS_EP_TYPE_MASK) !=
  48              		.loc 1 91 0
  49 000e 40F20003 		movw	r3, #:lower16:USBFS_EP
  50 0012 C0F20003 		movt	r3, #:upper16:USBFS_EP
  51 0016 1B7B     		ldrb	r3, [r3, #12]
  52 0018 DBB2     		uxtb	r3, r3
  53 001a 03F00303 		and	r3, r3, #3
  54 001e 012B     		cmp	r3, #1
  55 0020 0FD0     		beq	.L2
  92:.\Generated_Source\PSoC5/USBFS_episr.c ****                                                                                     USBFS_EP_TYPE_I
  93:.\Generated_Source\PSoC5/USBFS_episr.c ****         {
  94:.\Generated_Source\PSoC5/USBFS_episr.c ****             USBFS_EP[USBFS_EP1].epToggle ^= USBFS_EPX_CNT_DATA_TOGGLE;
  56              		.loc 1 94 0
  57 0022 40F20003 		movw	r3, #:lower16:USBFS_EP
  58 0026 C0F20003 		movt	r3, #:upper16:USBFS_EP
  59 002a DB7B     		ldrb	r3, [r3, #15]
  60 002c DAB2     		uxtb	r2, r3
  61 002e 6FF07F03 		mvn	r3, #127
  62 0032 82EA0303 		eor	r3, r2, r3
  63 0036 DAB2     		uxtb	r2, r3
  64 0038 40F20003 		movw	r3, #:lower16:USBFS_EP
  65 003c C0F20003 		movt	r3, #:upper16:USBFS_EP
  66 0040 DA73     		strb	r2, [r3, #15]
  67              	.L2:
  95:.\Generated_Source\PSoC5/USBFS_episr.c ****         }
  96:.\Generated_Source\PSoC5/USBFS_episr.c ****         USBFS_EP[USBFS_EP1].apiEpState = USBFS_EVENT_PENDING;
  68              		.loc 1 96 0
  69 0042 40F20003 		movw	r3, #:lower16:USBFS_EP
  70 0046 C0F20003 		movt	r3, #:upper16:USBFS_EP
  71 004a 4FF00102 		mov	r2, #1
ARM GAS  C:\DOCUME~1\ADMINI~1\LOCALS~1\Temp\ccQLwFFq.s 			page 4


  72 004e 5A73     		strb	r2, [r3, #13]
  97:.\Generated_Source\PSoC5/USBFS_episr.c ****         CY_SET_REG8(USBFS_SIE_EP_INT_SR_PTR, CY_GET_REG8(USBFS_SIE_EP_INT_SR_PTR)
  73              		.loc 1 97 0
  74 0050 46F20B03 		movw	r3, #:lower16:1073766411
  75 0054 C4F20003 		movt	r3, #:upper16:1073766411
  76 0058 46F20B02 		movw	r2, #:lower16:1073766411
  77 005c C4F20002 		movt	r2, #:upper16:1073766411
  78 0060 1278     		ldrb	r2, [r2, #0]
  79 0062 D2B2     		uxtb	r2, r2
  80 0064 02F0FE02 		and	r2, r2, #254
  81 0068 1A70     		strb	r2, [r3, #0]
  98:.\Generated_Source\PSoC5/USBFS_episr.c ****                                                                             & ~USBFS_SIE_EP_INT_EP1
  99:.\Generated_Source\PSoC5/USBFS_episr.c **** 
 100:.\Generated_Source\PSoC5/USBFS_episr.c ****         #if defined(USBFS_ENABLE_MIDI_STREAMING) && (USBFS_ENABLE_MIDI_API != 0u) && \
 101:.\Generated_Source\PSoC5/USBFS_episr.c ****             (USBFS_EP_MM == USBFS__EP_DMAAUTO) 
 102:.\Generated_Source\PSoC5/USBFS_episr.c ****             if(USBFS_midi_out_ep == USBFS_EP1)
 103:.\Generated_Source\PSoC5/USBFS_episr.c ****             {
 104:.\Generated_Source\PSoC5/USBFS_episr.c ****                 USBFS_MIDI_OUT_EP_Service();
 105:.\Generated_Source\PSoC5/USBFS_episr.c ****             }   
 106:.\Generated_Source\PSoC5/USBFS_episr.c ****         #endif /* End USBFS_ENABLE_MIDI_STREAMING*/
 107:.\Generated_Source\PSoC5/USBFS_episr.c **** 
 108:.\Generated_Source\PSoC5/USBFS_episr.c ****         /* `#START EP1_END_USER_CODE` Place your code here */
 109:.\Generated_Source\PSoC5/USBFS_episr.c **** 
 110:.\Generated_Source\PSoC5/USBFS_episr.c ****         /* `#END` */
 111:.\Generated_Source\PSoC5/USBFS_episr.c **** 
 112:.\Generated_Source\PSoC5/USBFS_episr.c ****         #if defined(USBFS_ENABLE_MIDI_STREAMING) && (USBFS_ENABLE_MIDI_API != 0u) && \
 113:.\Generated_Source\PSoC5/USBFS_episr.c ****             (USBFS_EP_MM == USBFS__EP_DMAAUTO) && (CY_PSOC3)
 114:.\Generated_Source\PSoC5/USBFS_episr.c ****             EA = int_en;
 115:.\Generated_Source\PSoC5/USBFS_episr.c ****         #endif /* CY_PSOC3 & ENABLE_MIDI_STREAMING */
 116:.\Generated_Source\PSoC5/USBFS_episr.c ****     }
  82              		.loc 1 116 0
  83 006a BD46     		mov	sp, r7
  84 006c 80BC     		pop	{r7}
  85 006e 7047     		bx	lr
  86              		.cfi_endproc
  87              	.LFE0:
  88              		.size	USBFS_EP_1_ISR, .-USBFS_EP_1_ISR
  89              		.section	.text.USBFS_EP_2_ISR,"ax",%progbits
  90              		.align	2
  91              		.global	USBFS_EP_2_ISR
  92              		.thumb
  93              		.thumb_func
  94              		.type	USBFS_EP_2_ISR, %function
  95              	USBFS_EP_2_ISR:
  96              	.LFB1:
 117:.\Generated_Source\PSoC5/USBFS_episr.c **** 
 118:.\Generated_Source\PSoC5/USBFS_episr.c **** #endif   /* End USBFS_EP1_ISR_REMOVE */
 119:.\Generated_Source\PSoC5/USBFS_episr.c **** 
 120:.\Generated_Source\PSoC5/USBFS_episr.c **** 
 121:.\Generated_Source\PSoC5/USBFS_episr.c **** #if(USBFS_EP2_ISR_REMOVE == 0u)
 122:.\Generated_Source\PSoC5/USBFS_episr.c **** 
 123:.\Generated_Source\PSoC5/USBFS_episr.c ****     /*******************************************************************************
 124:.\Generated_Source\PSoC5/USBFS_episr.c ****     * Function Name: USBFS_EP_2_ISR
 125:.\Generated_Source\PSoC5/USBFS_episr.c ****     ********************************************************************************
 126:.\Generated_Source\PSoC5/USBFS_episr.c ****     *
 127:.\Generated_Source\PSoC5/USBFS_episr.c ****     * Summary:
 128:.\Generated_Source\PSoC5/USBFS_episr.c ****     *  Endpoint 2 Interrupt Service Routine
ARM GAS  C:\DOCUME~1\ADMINI~1\LOCALS~1\Temp\ccQLwFFq.s 			page 5


 129:.\Generated_Source\PSoC5/USBFS_episr.c ****     *
 130:.\Generated_Source\PSoC5/USBFS_episr.c ****     * Parameters:
 131:.\Generated_Source\PSoC5/USBFS_episr.c ****     *  None.
 132:.\Generated_Source\PSoC5/USBFS_episr.c ****     *
 133:.\Generated_Source\PSoC5/USBFS_episr.c ****     * Return:
 134:.\Generated_Source\PSoC5/USBFS_episr.c ****     *  None.
 135:.\Generated_Source\PSoC5/USBFS_episr.c ****     *
 136:.\Generated_Source\PSoC5/USBFS_episr.c ****     *******************************************************************************/
 137:.\Generated_Source\PSoC5/USBFS_episr.c ****     CY_ISR(USBFS_EP_2_ISR)
 138:.\Generated_Source\PSoC5/USBFS_episr.c ****     {
  97              		.loc 1 138 0
  98              		.cfi_startproc
  99              		@ args = 0, pretend = 0, frame = 0
 100              		@ frame_needed = 1, uses_anonymous_args = 0
 101              		@ link register save eliminated.
 102 0000 80B4     		push	{r7}
 103              	.LCFI2:
 104              		.cfi_def_cfa_offset 4
 105 0002 00AF     		add	r7, sp, #0
 106              		.cfi_offset 7, -4
 107              	.LCFI3:
 108              		.cfi_def_cfa_register 7
 139:.\Generated_Source\PSoC5/USBFS_episr.c ****         #if defined(USBFS_ENABLE_MIDI_STREAMING) && (USBFS_ENABLE_MIDI_API != 0u) && \
 140:.\Generated_Source\PSoC5/USBFS_episr.c ****             (USBFS_EP_MM == USBFS__EP_DMAAUTO) && (CY_PSOC3)
 141:.\Generated_Source\PSoC5/USBFS_episr.c ****             uint8 int_en;
 142:.\Generated_Source\PSoC5/USBFS_episr.c ****         #endif /* CY_PSOC3 & ENABLE_MIDI_STREAMING */
 143:.\Generated_Source\PSoC5/USBFS_episr.c ****     
 144:.\Generated_Source\PSoC5/USBFS_episr.c ****         /* `#START EP2_USER_CODE` Place your code here */
 145:.\Generated_Source\PSoC5/USBFS_episr.c **** 
 146:.\Generated_Source\PSoC5/USBFS_episr.c ****         /* `#END` */
 147:.\Generated_Source\PSoC5/USBFS_episr.c **** 
 148:.\Generated_Source\PSoC5/USBFS_episr.c ****         #if defined(USBFS_ENABLE_MIDI_STREAMING) && (USBFS_ENABLE_MIDI_API != 0u) && \
 149:.\Generated_Source\PSoC5/USBFS_episr.c ****             (USBFS_EP_MM == USBFS__EP_DMAAUTO) && (CY_PSOC3)
 150:.\Generated_Source\PSoC5/USBFS_episr.c ****             int_en = EA;
 151:.\Generated_Source\PSoC5/USBFS_episr.c ****             CyGlobalIntEnable;  /* Make sure nested interrupt is enabled */
 152:.\Generated_Source\PSoC5/USBFS_episr.c ****         #endif /* CY_PSOC3 & ENABLE_MIDI_STREAMING */
 153:.\Generated_Source\PSoC5/USBFS_episr.c **** 
 154:.\Generated_Source\PSoC5/USBFS_episr.c ****         CY_GET_REG8(USBFS_SIE_EP2_CR0_PTR); /* Must read the mode reg */
 109              		.loc 1 154 0
 110 0004 46F21E03 		movw	r3, #:lower16:1073766430
 111 0008 C4F20003 		movt	r3, #:upper16:1073766430
 112 000c 1B78     		ldrb	r3, [r3, #0]
 155:.\Generated_Source\PSoC5/USBFS_episr.c ****         /* Do not toggle ISOC endpoint */
 156:.\Generated_Source\PSoC5/USBFS_episr.c ****         if((USBFS_EP[USBFS_EP2].attrib & USBFS_EP_TYPE_MASK) !=
 113              		.loc 1 156 0
 114 000e 40F20003 		movw	r3, #:lower16:USBFS_EP
 115 0012 C0F20003 		movt	r3, #:upper16:USBFS_EP
 116 0016 1B7E     		ldrb	r3, [r3, #24]
 117 0018 DBB2     		uxtb	r3, r3
 118 001a 03F00303 		and	r3, r3, #3
 119 001e 012B     		cmp	r3, #1
 120 0020 0FD0     		beq	.L5
 157:.\Generated_Source\PSoC5/USBFS_episr.c ****                                                                                     USBFS_EP_TYPE_I
 158:.\Generated_Source\PSoC5/USBFS_episr.c ****         {
 159:.\Generated_Source\PSoC5/USBFS_episr.c ****             USBFS_EP[USBFS_EP2].epToggle ^= USBFS_EPX_CNT_DATA_TOGGLE;
 121              		.loc 1 159 0
 122 0022 40F20003 		movw	r3, #:lower16:USBFS_EP
ARM GAS  C:\DOCUME~1\ADMINI~1\LOCALS~1\Temp\ccQLwFFq.s 			page 6


 123 0026 C0F20003 		movt	r3, #:upper16:USBFS_EP
 124 002a DB7E     		ldrb	r3, [r3, #27]
 125 002c DAB2     		uxtb	r2, r3
 126 002e 6FF07F03 		mvn	r3, #127
 127 0032 82EA0303 		eor	r3, r2, r3
 128 0036 DAB2     		uxtb	r2, r3
 129 0038 40F20003 		movw	r3, #:lower16:USBFS_EP
 130 003c C0F20003 		movt	r3, #:upper16:USBFS_EP
 131 0040 DA76     		strb	r2, [r3, #27]
 132              	.L5:
 160:.\Generated_Source\PSoC5/USBFS_episr.c ****         }
 161:.\Generated_Source\PSoC5/USBFS_episr.c ****         USBFS_EP[USBFS_EP2].apiEpState = USBFS_EVENT_PENDING;
 133              		.loc 1 161 0
 134 0042 40F20003 		movw	r3, #:lower16:USBFS_EP
 135 0046 C0F20003 		movt	r3, #:upper16:USBFS_EP
 136 004a 4FF00102 		mov	r2, #1
 137 004e 5A76     		strb	r2, [r3, #25]
 162:.\Generated_Source\PSoC5/USBFS_episr.c ****         CY_SET_REG8(USBFS_SIE_EP_INT_SR_PTR, CY_GET_REG8(USBFS_SIE_EP_INT_SR_PTR)
 138              		.loc 1 162 0
 139 0050 46F20B03 		movw	r3, #:lower16:1073766411
 140 0054 C4F20003 		movt	r3, #:upper16:1073766411
 141 0058 46F20B02 		movw	r2, #:lower16:1073766411
 142 005c C4F20002 		movt	r2, #:upper16:1073766411
 143 0060 1278     		ldrb	r2, [r2, #0]
 144 0062 D2B2     		uxtb	r2, r2
 145 0064 02F0FD02 		and	r2, r2, #253
 146 0068 1A70     		strb	r2, [r3, #0]
 163:.\Generated_Source\PSoC5/USBFS_episr.c ****                                                                         & ~USBFS_SIE_EP_INT_EP2_MAS
 164:.\Generated_Source\PSoC5/USBFS_episr.c **** 
 165:.\Generated_Source\PSoC5/USBFS_episr.c ****         #if defined(USBFS_ENABLE_MIDI_STREAMING) && (USBFS_ENABLE_MIDI_API != 0u) && \
 166:.\Generated_Source\PSoC5/USBFS_episr.c ****             (USBFS_EP_MM == USBFS__EP_DMAAUTO)
 167:.\Generated_Source\PSoC5/USBFS_episr.c ****             if(USBFS_midi_out_ep == USBFS_EP2)
 168:.\Generated_Source\PSoC5/USBFS_episr.c ****             {
 169:.\Generated_Source\PSoC5/USBFS_episr.c ****                 USBFS_MIDI_OUT_EP_Service();
 170:.\Generated_Source\PSoC5/USBFS_episr.c ****             }   
 171:.\Generated_Source\PSoC5/USBFS_episr.c ****         #endif /* End USBFS_ENABLE_MIDI_STREAMING*/
 172:.\Generated_Source\PSoC5/USBFS_episr.c **** 
 173:.\Generated_Source\PSoC5/USBFS_episr.c ****         /* `#START EP2_END_USER_CODE` Place your code here */
 174:.\Generated_Source\PSoC5/USBFS_episr.c **** 
 175:.\Generated_Source\PSoC5/USBFS_episr.c ****         /* `#END` */
 176:.\Generated_Source\PSoC5/USBFS_episr.c **** 
 177:.\Generated_Source\PSoC5/USBFS_episr.c ****         #if defined(USBFS_ENABLE_MIDI_STREAMING) && (USBFS_ENABLE_MIDI_API != 0u) && \
 178:.\Generated_Source\PSoC5/USBFS_episr.c ****             (USBFS_EP_MM == USBFS__EP_DMAAUTO) && (CY_PSOC3)
 179:.\Generated_Source\PSoC5/USBFS_episr.c ****             EA = int_en;
 180:.\Generated_Source\PSoC5/USBFS_episr.c ****         #endif /* CY_PSOC3 & ENABLE_MIDI_STREAMING */
 181:.\Generated_Source\PSoC5/USBFS_episr.c ****     }
 147              		.loc 1 181 0
 148 006a BD46     		mov	sp, r7
 149 006c 80BC     		pop	{r7}
 150 006e 7047     		bx	lr
 151              		.cfi_endproc
 152              	.LFE1:
 153              		.size	USBFS_EP_2_ISR, .-USBFS_EP_2_ISR
 154              		.section	.text.USBFS_SOF_ISR,"ax",%progbits
 155              		.align	2
 156              		.global	USBFS_SOF_ISR
 157              		.thumb
ARM GAS  C:\DOCUME~1\ADMINI~1\LOCALS~1\Temp\ccQLwFFq.s 			page 7


 158              		.thumb_func
 159              		.type	USBFS_SOF_ISR, %function
 160              	USBFS_SOF_ISR:
 161              	.LFB2:
 182:.\Generated_Source\PSoC5/USBFS_episr.c **** 
 183:.\Generated_Source\PSoC5/USBFS_episr.c **** #endif   /* End USBFS_EP2_ISR_REMOVE */
 184:.\Generated_Source\PSoC5/USBFS_episr.c **** 
 185:.\Generated_Source\PSoC5/USBFS_episr.c **** 
 186:.\Generated_Source\PSoC5/USBFS_episr.c **** #if(USBFS_EP3_ISR_REMOVE == 0u)
 187:.\Generated_Source\PSoC5/USBFS_episr.c **** 
 188:.\Generated_Source\PSoC5/USBFS_episr.c ****     /*******************************************************************************
 189:.\Generated_Source\PSoC5/USBFS_episr.c ****     * Function Name: USBFS_EP_3_ISR
 190:.\Generated_Source\PSoC5/USBFS_episr.c ****     ********************************************************************************
 191:.\Generated_Source\PSoC5/USBFS_episr.c ****     *
 192:.\Generated_Source\PSoC5/USBFS_episr.c ****     * Summary:
 193:.\Generated_Source\PSoC5/USBFS_episr.c ****     *  Endpoint 3 Interrupt Service Routine
 194:.\Generated_Source\PSoC5/USBFS_episr.c ****     *
 195:.\Generated_Source\PSoC5/USBFS_episr.c ****     * Parameters:
 196:.\Generated_Source\PSoC5/USBFS_episr.c ****     *  None.
 197:.\Generated_Source\PSoC5/USBFS_episr.c ****     *
 198:.\Generated_Source\PSoC5/USBFS_episr.c ****     * Return:
 199:.\Generated_Source\PSoC5/USBFS_episr.c ****     *  None.
 200:.\Generated_Source\PSoC5/USBFS_episr.c ****     *
 201:.\Generated_Source\PSoC5/USBFS_episr.c ****     *******************************************************************************/
 202:.\Generated_Source\PSoC5/USBFS_episr.c ****     CY_ISR(USBFS_EP_3_ISR)
 203:.\Generated_Source\PSoC5/USBFS_episr.c ****     {
 204:.\Generated_Source\PSoC5/USBFS_episr.c ****         #if defined(USBFS_ENABLE_MIDI_STREAMING) && (USBFS_ENABLE_MIDI_API != 0u) && \
 205:.\Generated_Source\PSoC5/USBFS_episr.c ****             (USBFS_EP_MM == USBFS__EP_DMAAUTO) && (CY_PSOC3)
 206:.\Generated_Source\PSoC5/USBFS_episr.c ****             uint8 int_en;
 207:.\Generated_Source\PSoC5/USBFS_episr.c ****         #endif /* CY_PSOC3 & ENABLE_MIDI_STREAMING */
 208:.\Generated_Source\PSoC5/USBFS_episr.c ****     
 209:.\Generated_Source\PSoC5/USBFS_episr.c ****         /* `#START EP3_USER_CODE` Place your code here */
 210:.\Generated_Source\PSoC5/USBFS_episr.c **** 
 211:.\Generated_Source\PSoC5/USBFS_episr.c ****         /* `#END` */
 212:.\Generated_Source\PSoC5/USBFS_episr.c **** 
 213:.\Generated_Source\PSoC5/USBFS_episr.c ****         #if defined(USBFS_ENABLE_MIDI_STREAMING) && (USBFS_ENABLE_MIDI_API != 0u) && \
 214:.\Generated_Source\PSoC5/USBFS_episr.c ****             (USBFS_EP_MM == USBFS__EP_DMAAUTO) && (CY_PSOC3)
 215:.\Generated_Source\PSoC5/USBFS_episr.c ****             int_en = EA;
 216:.\Generated_Source\PSoC5/USBFS_episr.c ****             CyGlobalIntEnable;  /* Make sure nested interrupt is enabled */
 217:.\Generated_Source\PSoC5/USBFS_episr.c ****         #endif /* CY_PSOC3 & ENABLE_MIDI_STREAMING */
 218:.\Generated_Source\PSoC5/USBFS_episr.c **** 
 219:.\Generated_Source\PSoC5/USBFS_episr.c ****         CY_GET_REG8(USBFS_SIE_EP3_CR0_PTR); /* Must read the mode reg */
 220:.\Generated_Source\PSoC5/USBFS_episr.c ****         /* Do not toggle ISOC endpoint */
 221:.\Generated_Source\PSoC5/USBFS_episr.c ****         if((USBFS_EP[USBFS_EP3].attrib & USBFS_EP_TYPE_MASK) !=
 222:.\Generated_Source\PSoC5/USBFS_episr.c ****                                                                                     USBFS_EP_TYPE_I
 223:.\Generated_Source\PSoC5/USBFS_episr.c ****         {
 224:.\Generated_Source\PSoC5/USBFS_episr.c ****             USBFS_EP[USBFS_EP3].epToggle ^= USBFS_EPX_CNT_DATA_TOGGLE;
 225:.\Generated_Source\PSoC5/USBFS_episr.c ****         }
 226:.\Generated_Source\PSoC5/USBFS_episr.c ****         USBFS_EP[USBFS_EP3].apiEpState = USBFS_EVENT_PENDING;
 227:.\Generated_Source\PSoC5/USBFS_episr.c ****         CY_SET_REG8(USBFS_SIE_EP_INT_SR_PTR, CY_GET_REG8(USBFS_SIE_EP_INT_SR_PTR)
 228:.\Generated_Source\PSoC5/USBFS_episr.c ****                                                                         & ~USBFS_SIE_EP_INT_EP3_MAS
 229:.\Generated_Source\PSoC5/USBFS_episr.c **** 
 230:.\Generated_Source\PSoC5/USBFS_episr.c ****         #if defined(USBFS_ENABLE_MIDI_STREAMING) && (USBFS_ENABLE_MIDI_API != 0u) && \
 231:.\Generated_Source\PSoC5/USBFS_episr.c ****             (USBFS_EP_MM == USBFS__EP_DMAAUTO) 
 232:.\Generated_Source\PSoC5/USBFS_episr.c ****             if(USBFS_midi_out_ep == USBFS_EP3)
 233:.\Generated_Source\PSoC5/USBFS_episr.c ****             {
 234:.\Generated_Source\PSoC5/USBFS_episr.c ****                 USBFS_MIDI_OUT_EP_Service();
ARM GAS  C:\DOCUME~1\ADMINI~1\LOCALS~1\Temp\ccQLwFFq.s 			page 8


 235:.\Generated_Source\PSoC5/USBFS_episr.c ****             }   
 236:.\Generated_Source\PSoC5/USBFS_episr.c ****         #endif /* End USBFS_ENABLE_MIDI_STREAMING*/
 237:.\Generated_Source\PSoC5/USBFS_episr.c **** 
 238:.\Generated_Source\PSoC5/USBFS_episr.c ****         /* `#START EP3_END_USER_CODE` Place your code here */
 239:.\Generated_Source\PSoC5/USBFS_episr.c **** 
 240:.\Generated_Source\PSoC5/USBFS_episr.c ****         /* `#END` */
 241:.\Generated_Source\PSoC5/USBFS_episr.c **** 
 242:.\Generated_Source\PSoC5/USBFS_episr.c ****         #if defined(USBFS_ENABLE_MIDI_STREAMING) && (USBFS_ENABLE_MIDI_API != 0u) && \
 243:.\Generated_Source\PSoC5/USBFS_episr.c ****             (USBFS_EP_MM == USBFS__EP_DMAAUTO) && (CY_PSOC3)
 244:.\Generated_Source\PSoC5/USBFS_episr.c ****             EA = int_en;
 245:.\Generated_Source\PSoC5/USBFS_episr.c ****         #endif /* CY_PSOC3 & ENABLE_MIDI_STREAMING */
 246:.\Generated_Source\PSoC5/USBFS_episr.c ****     }
 247:.\Generated_Source\PSoC5/USBFS_episr.c **** 
 248:.\Generated_Source\PSoC5/USBFS_episr.c **** #endif   /* End USBFS_EP3_ISR_REMOVE */
 249:.\Generated_Source\PSoC5/USBFS_episr.c **** 
 250:.\Generated_Source\PSoC5/USBFS_episr.c **** 
 251:.\Generated_Source\PSoC5/USBFS_episr.c **** #if(USBFS_EP4_ISR_REMOVE == 0u)
 252:.\Generated_Source\PSoC5/USBFS_episr.c **** 
 253:.\Generated_Source\PSoC5/USBFS_episr.c ****     /*******************************************************************************
 254:.\Generated_Source\PSoC5/USBFS_episr.c ****     * Function Name: USBFS_EP_4_ISR
 255:.\Generated_Source\PSoC5/USBFS_episr.c ****     ********************************************************************************
 256:.\Generated_Source\PSoC5/USBFS_episr.c ****     *
 257:.\Generated_Source\PSoC5/USBFS_episr.c ****     * Summary:
 258:.\Generated_Source\PSoC5/USBFS_episr.c ****     *  Endpoint 4 Interrupt Service Routine
 259:.\Generated_Source\PSoC5/USBFS_episr.c ****     *
 260:.\Generated_Source\PSoC5/USBFS_episr.c ****     * Parameters:
 261:.\Generated_Source\PSoC5/USBFS_episr.c ****     *  None.
 262:.\Generated_Source\PSoC5/USBFS_episr.c ****     *
 263:.\Generated_Source\PSoC5/USBFS_episr.c ****     * Return:
 264:.\Generated_Source\PSoC5/USBFS_episr.c ****     *  None.
 265:.\Generated_Source\PSoC5/USBFS_episr.c ****     *
 266:.\Generated_Source\PSoC5/USBFS_episr.c ****     *******************************************************************************/
 267:.\Generated_Source\PSoC5/USBFS_episr.c ****     CY_ISR(USBFS_EP_4_ISR)
 268:.\Generated_Source\PSoC5/USBFS_episr.c ****     {
 269:.\Generated_Source\PSoC5/USBFS_episr.c ****         #if defined(USBFS_ENABLE_MIDI_STREAMING) && (USBFS_ENABLE_MIDI_API != 0u) && \
 270:.\Generated_Source\PSoC5/USBFS_episr.c ****             (USBFS_EP_MM == USBFS__EP_DMAAUTO) && (CY_PSOC3)
 271:.\Generated_Source\PSoC5/USBFS_episr.c ****             uint8 int_en;
 272:.\Generated_Source\PSoC5/USBFS_episr.c ****         #endif /* CY_PSOC3 & ENABLE_MIDI_STREAMING */
 273:.\Generated_Source\PSoC5/USBFS_episr.c ****     
 274:.\Generated_Source\PSoC5/USBFS_episr.c ****         /* `#START EP4_USER_CODE` Place your code here */
 275:.\Generated_Source\PSoC5/USBFS_episr.c **** 
 276:.\Generated_Source\PSoC5/USBFS_episr.c ****         /* `#END` */
 277:.\Generated_Source\PSoC5/USBFS_episr.c **** 
 278:.\Generated_Source\PSoC5/USBFS_episr.c ****         #if defined(USBFS_ENABLE_MIDI_STREAMING) && (USBFS_ENABLE_MIDI_API != 0u) && \
 279:.\Generated_Source\PSoC5/USBFS_episr.c ****             (USBFS_EP_MM == USBFS__EP_DMAAUTO) && (CY_PSOC3)
 280:.\Generated_Source\PSoC5/USBFS_episr.c ****             int_en = EA;
 281:.\Generated_Source\PSoC5/USBFS_episr.c ****             CyGlobalIntEnable;  /* Make sure nested interrupt is enabled */
 282:.\Generated_Source\PSoC5/USBFS_episr.c ****         #endif /* CY_PSOC3 & ENABLE_MIDI_STREAMING */
 283:.\Generated_Source\PSoC5/USBFS_episr.c **** 
 284:.\Generated_Source\PSoC5/USBFS_episr.c ****         CY_GET_REG8(USBFS_SIE_EP4_CR0_PTR); /* Must read the mode reg */
 285:.\Generated_Source\PSoC5/USBFS_episr.c ****         /* Do not toggle ISOC endpoint */
 286:.\Generated_Source\PSoC5/USBFS_episr.c ****         if((USBFS_EP[USBFS_EP4].attrib & USBFS_EP_TYPE_MASK) !=
 287:.\Generated_Source\PSoC5/USBFS_episr.c ****                                                                                     USBFS_EP_TYPE_I
 288:.\Generated_Source\PSoC5/USBFS_episr.c ****         {
 289:.\Generated_Source\PSoC5/USBFS_episr.c ****             USBFS_EP[USBFS_EP4].epToggle ^= USBFS_EPX_CNT_DATA_TOGGLE;
 290:.\Generated_Source\PSoC5/USBFS_episr.c ****         }
 291:.\Generated_Source\PSoC5/USBFS_episr.c ****         USBFS_EP[USBFS_EP4].apiEpState = USBFS_EVENT_PENDING;
ARM GAS  C:\DOCUME~1\ADMINI~1\LOCALS~1\Temp\ccQLwFFq.s 			page 9


 292:.\Generated_Source\PSoC5/USBFS_episr.c ****         CY_SET_REG8(USBFS_SIE_EP_INT_SR_PTR, CY_GET_REG8(USBFS_SIE_EP_INT_SR_PTR)
 293:.\Generated_Source\PSoC5/USBFS_episr.c ****                                                                         & ~USBFS_SIE_EP_INT_EP4_MAS
 294:.\Generated_Source\PSoC5/USBFS_episr.c **** 
 295:.\Generated_Source\PSoC5/USBFS_episr.c ****         #if defined(USBFS_ENABLE_MIDI_STREAMING) && (USBFS_ENABLE_MIDI_API != 0u) && \
 296:.\Generated_Source\PSoC5/USBFS_episr.c ****             (USBFS_EP_MM == USBFS__EP_DMAAUTO) 
 297:.\Generated_Source\PSoC5/USBFS_episr.c ****             if(USBFS_midi_out_ep == USBFS_EP4)
 298:.\Generated_Source\PSoC5/USBFS_episr.c ****             {
 299:.\Generated_Source\PSoC5/USBFS_episr.c ****                 USBFS_MIDI_OUT_EP_Service();
 300:.\Generated_Source\PSoC5/USBFS_episr.c ****             }   
 301:.\Generated_Source\PSoC5/USBFS_episr.c ****         #endif /* End USBFS_ENABLE_MIDI_STREAMING*/
 302:.\Generated_Source\PSoC5/USBFS_episr.c **** 
 303:.\Generated_Source\PSoC5/USBFS_episr.c ****         /* `#START EP4_END_USER_CODE` Place your code here */
 304:.\Generated_Source\PSoC5/USBFS_episr.c **** 
 305:.\Generated_Source\PSoC5/USBFS_episr.c ****         /* `#END` */
 306:.\Generated_Source\PSoC5/USBFS_episr.c **** 
 307:.\Generated_Source\PSoC5/USBFS_episr.c ****         #if defined(USBFS_ENABLE_MIDI_STREAMING) && (USBFS_ENABLE_MIDI_API != 0u) && \
 308:.\Generated_Source\PSoC5/USBFS_episr.c ****             (USBFS_EP_MM == USBFS__EP_DMAAUTO) && (CY_PSOC3)
 309:.\Generated_Source\PSoC5/USBFS_episr.c ****             EA = int_en;
 310:.\Generated_Source\PSoC5/USBFS_episr.c ****         #endif /* CY_PSOC3 & ENABLE_MIDI_STREAMING */
 311:.\Generated_Source\PSoC5/USBFS_episr.c ****     }
 312:.\Generated_Source\PSoC5/USBFS_episr.c **** 
 313:.\Generated_Source\PSoC5/USBFS_episr.c **** #endif   /* End USBFS_EP4_ISR_REMOVE */
 314:.\Generated_Source\PSoC5/USBFS_episr.c **** 
 315:.\Generated_Source\PSoC5/USBFS_episr.c **** 
 316:.\Generated_Source\PSoC5/USBFS_episr.c **** #if(USBFS_EP5_ISR_REMOVE == 0u)
 317:.\Generated_Source\PSoC5/USBFS_episr.c **** 
 318:.\Generated_Source\PSoC5/USBFS_episr.c ****     /*******************************************************************************
 319:.\Generated_Source\PSoC5/USBFS_episr.c ****     * Function Name: USBFS_EP_5_ISR
 320:.\Generated_Source\PSoC5/USBFS_episr.c ****     ********************************************************************************
 321:.\Generated_Source\PSoC5/USBFS_episr.c ****     *
 322:.\Generated_Source\PSoC5/USBFS_episr.c ****     * Summary:
 323:.\Generated_Source\PSoC5/USBFS_episr.c ****     *  Endpoint 5 Interrupt Service Routine
 324:.\Generated_Source\PSoC5/USBFS_episr.c ****     *
 325:.\Generated_Source\PSoC5/USBFS_episr.c ****     * Parameters:
 326:.\Generated_Source\PSoC5/USBFS_episr.c ****     *  None.
 327:.\Generated_Source\PSoC5/USBFS_episr.c ****     *
 328:.\Generated_Source\PSoC5/USBFS_episr.c ****     * Return:
 329:.\Generated_Source\PSoC5/USBFS_episr.c ****     *  None.
 330:.\Generated_Source\PSoC5/USBFS_episr.c ****     *
 331:.\Generated_Source\PSoC5/USBFS_episr.c ****     *******************************************************************************/
 332:.\Generated_Source\PSoC5/USBFS_episr.c ****     CY_ISR(USBFS_EP_5_ISR)
 333:.\Generated_Source\PSoC5/USBFS_episr.c ****     {
 334:.\Generated_Source\PSoC5/USBFS_episr.c ****         #if defined(USBFS_ENABLE_MIDI_STREAMING) && (USBFS_ENABLE_MIDI_API != 0u) && \
 335:.\Generated_Source\PSoC5/USBFS_episr.c ****             (USBFS_EP_MM == USBFS__EP_DMAAUTO) && (CY_PSOC3)
 336:.\Generated_Source\PSoC5/USBFS_episr.c ****             uint8 int_en;
 337:.\Generated_Source\PSoC5/USBFS_episr.c ****         #endif /* CY_PSOC3 & ENABLE_MIDI_STREAMING */
 338:.\Generated_Source\PSoC5/USBFS_episr.c ****     
 339:.\Generated_Source\PSoC5/USBFS_episr.c ****         /* `#START EP5_USER_CODE` Place your code here */
 340:.\Generated_Source\PSoC5/USBFS_episr.c **** 
 341:.\Generated_Source\PSoC5/USBFS_episr.c ****         /* `#END` */
 342:.\Generated_Source\PSoC5/USBFS_episr.c **** 
 343:.\Generated_Source\PSoC5/USBFS_episr.c ****         #if defined(USBFS_ENABLE_MIDI_STREAMING) && (USBFS_ENABLE_MIDI_API != 0u) && \
 344:.\Generated_Source\PSoC5/USBFS_episr.c ****             (USBFS_EP_MM == USBFS__EP_DMAAUTO) && (CY_PSOC3)
 345:.\Generated_Source\PSoC5/USBFS_episr.c ****             int_en = EA;
 346:.\Generated_Source\PSoC5/USBFS_episr.c ****             CyGlobalIntEnable;  /* Make sure nested interrupt is enabled */
 347:.\Generated_Source\PSoC5/USBFS_episr.c ****         #endif /* CY_PSOC3 & ENABLE_MIDI_STREAMING */
 348:.\Generated_Source\PSoC5/USBFS_episr.c **** 
ARM GAS  C:\DOCUME~1\ADMINI~1\LOCALS~1\Temp\ccQLwFFq.s 			page 10


 349:.\Generated_Source\PSoC5/USBFS_episr.c ****         CY_GET_REG8(USBFS_SIE_EP5_CR0_PTR); /* Must read the mode reg */
 350:.\Generated_Source\PSoC5/USBFS_episr.c ****         /* Do not toggle ISOC endpoint */
 351:.\Generated_Source\PSoC5/USBFS_episr.c ****         if((USBFS_EP[USBFS_EP5].attrib & USBFS_EP_TYPE_MASK) !=
 352:.\Generated_Source\PSoC5/USBFS_episr.c ****                                                                                     USBFS_EP_TYPE_I
 353:.\Generated_Source\PSoC5/USBFS_episr.c ****         {
 354:.\Generated_Source\PSoC5/USBFS_episr.c ****             USBFS_EP[USBFS_EP5].epToggle ^= USBFS_EPX_CNT_DATA_TOGGLE;
 355:.\Generated_Source\PSoC5/USBFS_episr.c ****         }
 356:.\Generated_Source\PSoC5/USBFS_episr.c ****         USBFS_EP[USBFS_EP5].apiEpState = USBFS_EVENT_PENDING;
 357:.\Generated_Source\PSoC5/USBFS_episr.c ****         CY_SET_REG8(USBFS_SIE_EP_INT_SR_PTR, CY_GET_REG8(USBFS_SIE_EP_INT_SR_PTR)
 358:.\Generated_Source\PSoC5/USBFS_episr.c ****                                                                         & ~USBFS_SIE_EP_INT_EP5_MAS
 359:.\Generated_Source\PSoC5/USBFS_episr.c **** 
 360:.\Generated_Source\PSoC5/USBFS_episr.c ****         #if defined(USBFS_ENABLE_MIDI_STREAMING) && (USBFS_ENABLE_MIDI_API != 0u) && \
 361:.\Generated_Source\PSoC5/USBFS_episr.c ****             (USBFS_EP_MM == USBFS__EP_DMAAUTO) 
 362:.\Generated_Source\PSoC5/USBFS_episr.c ****             if(USBFS_midi_out_ep == USBFS_EP5)
 363:.\Generated_Source\PSoC5/USBFS_episr.c ****             {
 364:.\Generated_Source\PSoC5/USBFS_episr.c ****                 USBFS_MIDI_OUT_EP_Service();
 365:.\Generated_Source\PSoC5/USBFS_episr.c ****             }   
 366:.\Generated_Source\PSoC5/USBFS_episr.c ****         #endif /* End USBFS_ENABLE_MIDI_STREAMING*/
 367:.\Generated_Source\PSoC5/USBFS_episr.c **** 
 368:.\Generated_Source\PSoC5/USBFS_episr.c ****         /* `#START EP5_END_USER_CODE` Place your code here */
 369:.\Generated_Source\PSoC5/USBFS_episr.c **** 
 370:.\Generated_Source\PSoC5/USBFS_episr.c ****         /* `#END` */
 371:.\Generated_Source\PSoC5/USBFS_episr.c **** 
 372:.\Generated_Source\PSoC5/USBFS_episr.c ****         #if defined(USBFS_ENABLE_MIDI_STREAMING) && (USBFS_ENABLE_MIDI_API != 0u) && \
 373:.\Generated_Source\PSoC5/USBFS_episr.c ****             (USBFS_EP_MM == USBFS__EP_DMAAUTO) && (CY_PSOC3)
 374:.\Generated_Source\PSoC5/USBFS_episr.c ****             EA = int_en;
 375:.\Generated_Source\PSoC5/USBFS_episr.c ****         #endif /* CY_PSOC3 & ENABLE_MIDI_STREAMING */
 376:.\Generated_Source\PSoC5/USBFS_episr.c ****     }
 377:.\Generated_Source\PSoC5/USBFS_episr.c **** #endif   /* End USBFS_EP5_ISR_REMOVE */
 378:.\Generated_Source\PSoC5/USBFS_episr.c **** 
 379:.\Generated_Source\PSoC5/USBFS_episr.c **** 
 380:.\Generated_Source\PSoC5/USBFS_episr.c **** #if(USBFS_EP6_ISR_REMOVE == 0u)
 381:.\Generated_Source\PSoC5/USBFS_episr.c **** 
 382:.\Generated_Source\PSoC5/USBFS_episr.c ****     /*******************************************************************************
 383:.\Generated_Source\PSoC5/USBFS_episr.c ****     * Function Name: USBFS_EP_6_ISR
 384:.\Generated_Source\PSoC5/USBFS_episr.c ****     ********************************************************************************
 385:.\Generated_Source\PSoC5/USBFS_episr.c ****     *
 386:.\Generated_Source\PSoC5/USBFS_episr.c ****     * Summary:
 387:.\Generated_Source\PSoC5/USBFS_episr.c ****     *  Endpoint 6 Interrupt Service Routine
 388:.\Generated_Source\PSoC5/USBFS_episr.c ****     *
 389:.\Generated_Source\PSoC5/USBFS_episr.c ****     * Parameters:
 390:.\Generated_Source\PSoC5/USBFS_episr.c ****     *  None.
 391:.\Generated_Source\PSoC5/USBFS_episr.c ****     *
 392:.\Generated_Source\PSoC5/USBFS_episr.c ****     * Return:
 393:.\Generated_Source\PSoC5/USBFS_episr.c ****     *  None.
 394:.\Generated_Source\PSoC5/USBFS_episr.c ****     *
 395:.\Generated_Source\PSoC5/USBFS_episr.c ****     *******************************************************************************/
 396:.\Generated_Source\PSoC5/USBFS_episr.c ****     CY_ISR(USBFS_EP_6_ISR)
 397:.\Generated_Source\PSoC5/USBFS_episr.c ****     {
 398:.\Generated_Source\PSoC5/USBFS_episr.c ****         #if defined(USBFS_ENABLE_MIDI_STREAMING) && (USBFS_ENABLE_MIDI_API != 0u) && \
 399:.\Generated_Source\PSoC5/USBFS_episr.c ****             (USBFS_EP_MM == USBFS__EP_DMAAUTO) && (CY_PSOC3)
 400:.\Generated_Source\PSoC5/USBFS_episr.c ****             uint8 int_en;
 401:.\Generated_Source\PSoC5/USBFS_episr.c ****         #endif /* CY_PSOC3 & ENABLE_MIDI_STREAMING */
 402:.\Generated_Source\PSoC5/USBFS_episr.c ****     
 403:.\Generated_Source\PSoC5/USBFS_episr.c ****         /* `#START EP6_USER_CODE` Place your code here */
 404:.\Generated_Source\PSoC5/USBFS_episr.c **** 
 405:.\Generated_Source\PSoC5/USBFS_episr.c ****         /* `#END` */
ARM GAS  C:\DOCUME~1\ADMINI~1\LOCALS~1\Temp\ccQLwFFq.s 			page 11


 406:.\Generated_Source\PSoC5/USBFS_episr.c **** 
 407:.\Generated_Source\PSoC5/USBFS_episr.c ****         #if defined(USBFS_ENABLE_MIDI_STREAMING) && (USBFS_ENABLE_MIDI_API != 0u) && \
 408:.\Generated_Source\PSoC5/USBFS_episr.c ****             (USBFS_EP_MM == USBFS__EP_DMAAUTO) && (CY_PSOC3)
 409:.\Generated_Source\PSoC5/USBFS_episr.c ****             int_en = EA;
 410:.\Generated_Source\PSoC5/USBFS_episr.c ****             CyGlobalIntEnable;  /* Make sure nested interrupt is enabled */
 411:.\Generated_Source\PSoC5/USBFS_episr.c ****         #endif /* CY_PSOC3 & ENABLE_MIDI_STREAMING */
 412:.\Generated_Source\PSoC5/USBFS_episr.c **** 
 413:.\Generated_Source\PSoC5/USBFS_episr.c ****         CY_GET_REG8(USBFS_SIE_EP6_CR0_PTR); /* Must read the mode reg */
 414:.\Generated_Source\PSoC5/USBFS_episr.c ****         /* Do not toggle ISOC endpoint */
 415:.\Generated_Source\PSoC5/USBFS_episr.c ****         if((USBFS_EP[USBFS_EP6].attrib & USBFS_EP_TYPE_MASK) !=
 416:.\Generated_Source\PSoC5/USBFS_episr.c ****                                                                                     USBFS_EP_TYPE_I
 417:.\Generated_Source\PSoC5/USBFS_episr.c ****         {
 418:.\Generated_Source\PSoC5/USBFS_episr.c ****             USBFS_EP[USBFS_EP6].epToggle ^= USBFS_EPX_CNT_DATA_TOGGLE;
 419:.\Generated_Source\PSoC5/USBFS_episr.c ****         }
 420:.\Generated_Source\PSoC5/USBFS_episr.c ****         USBFS_EP[USBFS_EP6].apiEpState = USBFS_EVENT_PENDING;
 421:.\Generated_Source\PSoC5/USBFS_episr.c ****         CY_SET_REG8(USBFS_SIE_EP_INT_SR_PTR, CY_GET_REG8(USBFS_SIE_EP_INT_SR_PTR)
 422:.\Generated_Source\PSoC5/USBFS_episr.c ****                                                                         & ~USBFS_SIE_EP_INT_EP6_MAS
 423:.\Generated_Source\PSoC5/USBFS_episr.c **** 
 424:.\Generated_Source\PSoC5/USBFS_episr.c ****         #if defined(USBFS_ENABLE_MIDI_STREAMING) && (USBFS_ENABLE_MIDI_API != 0u) && \
 425:.\Generated_Source\PSoC5/USBFS_episr.c ****             (USBFS_EP_MM == USBFS__EP_DMAAUTO) 
 426:.\Generated_Source\PSoC5/USBFS_episr.c ****             if(USBFS_midi_out_ep == USBFS_EP6)
 427:.\Generated_Source\PSoC5/USBFS_episr.c ****             {
 428:.\Generated_Source\PSoC5/USBFS_episr.c ****                 USBFS_MIDI_OUT_EP_Service();
 429:.\Generated_Source\PSoC5/USBFS_episr.c ****             }   
 430:.\Generated_Source\PSoC5/USBFS_episr.c ****         #endif /* End USBFS_ENABLE_MIDI_STREAMING*/
 431:.\Generated_Source\PSoC5/USBFS_episr.c **** 
 432:.\Generated_Source\PSoC5/USBFS_episr.c ****         /* `#START EP6_END_USER_CODE` Place your code here */
 433:.\Generated_Source\PSoC5/USBFS_episr.c **** 
 434:.\Generated_Source\PSoC5/USBFS_episr.c ****         /* `#END` */
 435:.\Generated_Source\PSoC5/USBFS_episr.c **** 
 436:.\Generated_Source\PSoC5/USBFS_episr.c ****         #if defined(USBFS_ENABLE_MIDI_STREAMING) && (USBFS_ENABLE_MIDI_API != 0u) && \
 437:.\Generated_Source\PSoC5/USBFS_episr.c ****             (USBFS_EP_MM == USBFS__EP_DMAAUTO) && (CY_PSOC3)
 438:.\Generated_Source\PSoC5/USBFS_episr.c ****             EA = int_en;
 439:.\Generated_Source\PSoC5/USBFS_episr.c ****         #endif /* CY_PSOC3 & ENABLE_MIDI_STREAMING */
 440:.\Generated_Source\PSoC5/USBFS_episr.c ****     }
 441:.\Generated_Source\PSoC5/USBFS_episr.c **** 
 442:.\Generated_Source\PSoC5/USBFS_episr.c **** #endif   /* End USBFS_EP6_ISR_REMOVE */
 443:.\Generated_Source\PSoC5/USBFS_episr.c **** 
 444:.\Generated_Source\PSoC5/USBFS_episr.c **** 
 445:.\Generated_Source\PSoC5/USBFS_episr.c **** #if(USBFS_EP7_ISR_REMOVE == 0u)
 446:.\Generated_Source\PSoC5/USBFS_episr.c **** 
 447:.\Generated_Source\PSoC5/USBFS_episr.c ****     /*******************************************************************************
 448:.\Generated_Source\PSoC5/USBFS_episr.c ****     * Function Name: USBFS_EP_7_ISR
 449:.\Generated_Source\PSoC5/USBFS_episr.c ****     ********************************************************************************
 450:.\Generated_Source\PSoC5/USBFS_episr.c ****     *
 451:.\Generated_Source\PSoC5/USBFS_episr.c ****     * Summary:
 452:.\Generated_Source\PSoC5/USBFS_episr.c ****     *  Endpoint 7 Interrupt Service Routine
 453:.\Generated_Source\PSoC5/USBFS_episr.c ****     *
 454:.\Generated_Source\PSoC5/USBFS_episr.c ****     * Parameters:
 455:.\Generated_Source\PSoC5/USBFS_episr.c ****     *  None.
 456:.\Generated_Source\PSoC5/USBFS_episr.c ****     *
 457:.\Generated_Source\PSoC5/USBFS_episr.c ****     * Return:
 458:.\Generated_Source\PSoC5/USBFS_episr.c ****     *  None.
 459:.\Generated_Source\PSoC5/USBFS_episr.c ****     *
 460:.\Generated_Source\PSoC5/USBFS_episr.c ****     *******************************************************************************/
 461:.\Generated_Source\PSoC5/USBFS_episr.c ****     CY_ISR(USBFS_EP_7_ISR)
 462:.\Generated_Source\PSoC5/USBFS_episr.c ****     {
ARM GAS  C:\DOCUME~1\ADMINI~1\LOCALS~1\Temp\ccQLwFFq.s 			page 12


 463:.\Generated_Source\PSoC5/USBFS_episr.c ****         #if defined(USBFS_ENABLE_MIDI_STREAMING) && (USBFS_ENABLE_MIDI_API != 0u) && \
 464:.\Generated_Source\PSoC5/USBFS_episr.c ****             (USBFS_EP_MM == USBFS__EP_DMAAUTO) && (CY_PSOC3)
 465:.\Generated_Source\PSoC5/USBFS_episr.c ****             uint8 int_en;
 466:.\Generated_Source\PSoC5/USBFS_episr.c ****         #endif /* CY_PSOC3 & ENABLE_MIDI_STREAMING */
 467:.\Generated_Source\PSoC5/USBFS_episr.c ****     
 468:.\Generated_Source\PSoC5/USBFS_episr.c ****         /* `#START EP7_USER_CODE` Place your code here */
 469:.\Generated_Source\PSoC5/USBFS_episr.c **** 
 470:.\Generated_Source\PSoC5/USBFS_episr.c ****         /* `#END` */
 471:.\Generated_Source\PSoC5/USBFS_episr.c **** 
 472:.\Generated_Source\PSoC5/USBFS_episr.c ****         #if defined(USBFS_ENABLE_MIDI_STREAMING) && (USBFS_ENABLE_MIDI_API != 0u) && \
 473:.\Generated_Source\PSoC5/USBFS_episr.c ****             (USBFS_EP_MM == USBFS__EP_DMAAUTO) && (CY_PSOC3)
 474:.\Generated_Source\PSoC5/USBFS_episr.c ****             int_en = EA;
 475:.\Generated_Source\PSoC5/USBFS_episr.c ****             CyGlobalIntEnable;  /* Make sure nested interrupt is enabled */
 476:.\Generated_Source\PSoC5/USBFS_episr.c ****         #endif /* CY_PSOC3 & ENABLE_MIDI_STREAMING */
 477:.\Generated_Source\PSoC5/USBFS_episr.c **** 
 478:.\Generated_Source\PSoC5/USBFS_episr.c ****         CY_GET_REG8(USBFS_SIE_EP7_CR0_PTR); /* Must read the mode reg */
 479:.\Generated_Source\PSoC5/USBFS_episr.c ****         /* Do not toggle ISOC endpoint */
 480:.\Generated_Source\PSoC5/USBFS_episr.c ****         if((USBFS_EP[USBFS_EP7].attrib & USBFS_EP_TYPE_MASK) !=
 481:.\Generated_Source\PSoC5/USBFS_episr.c ****                                                                                     USBFS_EP_TYPE_I
 482:.\Generated_Source\PSoC5/USBFS_episr.c ****         {
 483:.\Generated_Source\PSoC5/USBFS_episr.c ****             USBFS_EP[USBFS_EP7].epToggle ^= USBFS_EPX_CNT_DATA_TOGGLE;
 484:.\Generated_Source\PSoC5/USBFS_episr.c ****         }
 485:.\Generated_Source\PSoC5/USBFS_episr.c ****         USBFS_EP[USBFS_EP7].apiEpState = USBFS_EVENT_PENDING;
 486:.\Generated_Source\PSoC5/USBFS_episr.c ****         CY_SET_REG8(USBFS_SIE_EP_INT_SR_PTR, CY_GET_REG8(USBFS_SIE_EP_INT_SR_PTR)
 487:.\Generated_Source\PSoC5/USBFS_episr.c ****                                                                         & ~USBFS_SIE_EP_INT_EP7_MAS
 488:.\Generated_Source\PSoC5/USBFS_episr.c **** 
 489:.\Generated_Source\PSoC5/USBFS_episr.c ****         #if defined(USBFS_ENABLE_MIDI_STREAMING) && (USBFS_ENABLE_MIDI_API != 0u) && \
 490:.\Generated_Source\PSoC5/USBFS_episr.c ****             (USBFS_EP_MM == USBFS__EP_DMAAUTO) 
 491:.\Generated_Source\PSoC5/USBFS_episr.c ****             if(USBFS_midi_out_ep == USBFS_EP7)
 492:.\Generated_Source\PSoC5/USBFS_episr.c ****             {
 493:.\Generated_Source\PSoC5/USBFS_episr.c ****                 USBFS_MIDI_OUT_EP_Service();
 494:.\Generated_Source\PSoC5/USBFS_episr.c ****             }   
 495:.\Generated_Source\PSoC5/USBFS_episr.c ****         #endif /* End USBFS_ENABLE_MIDI_STREAMING*/
 496:.\Generated_Source\PSoC5/USBFS_episr.c **** 
 497:.\Generated_Source\PSoC5/USBFS_episr.c ****         /* `#START EP7_END_USER_CODE` Place your code here */
 498:.\Generated_Source\PSoC5/USBFS_episr.c **** 
 499:.\Generated_Source\PSoC5/USBFS_episr.c ****         /* `#END` */
 500:.\Generated_Source\PSoC5/USBFS_episr.c **** 
 501:.\Generated_Source\PSoC5/USBFS_episr.c ****         #if defined(USBFS_ENABLE_MIDI_STREAMING) && (USBFS_ENABLE_MIDI_API != 0u) && \
 502:.\Generated_Source\PSoC5/USBFS_episr.c ****             (USBFS_EP_MM == USBFS__EP_DMAAUTO) && (CY_PSOC3)
 503:.\Generated_Source\PSoC5/USBFS_episr.c ****             EA = int_en;
 504:.\Generated_Source\PSoC5/USBFS_episr.c ****         #endif /* CY_PSOC3 & ENABLE_MIDI_STREAMING */
 505:.\Generated_Source\PSoC5/USBFS_episr.c ****     }
 506:.\Generated_Source\PSoC5/USBFS_episr.c **** 
 507:.\Generated_Source\PSoC5/USBFS_episr.c **** #endif   /* End USBFS_EP7_ISR_REMOVE */
 508:.\Generated_Source\PSoC5/USBFS_episr.c **** 
 509:.\Generated_Source\PSoC5/USBFS_episr.c **** 
 510:.\Generated_Source\PSoC5/USBFS_episr.c **** #if(USBFS_EP8_ISR_REMOVE == 0u)
 511:.\Generated_Source\PSoC5/USBFS_episr.c **** 
 512:.\Generated_Source\PSoC5/USBFS_episr.c ****     /*******************************************************************************
 513:.\Generated_Source\PSoC5/USBFS_episr.c ****     * Function Name: USBFS_EP_8_ISR
 514:.\Generated_Source\PSoC5/USBFS_episr.c ****     ********************************************************************************
 515:.\Generated_Source\PSoC5/USBFS_episr.c ****     *
 516:.\Generated_Source\PSoC5/USBFS_episr.c ****     * Summary:
 517:.\Generated_Source\PSoC5/USBFS_episr.c ****     *  Endpoint 8 Interrupt Service Routine
 518:.\Generated_Source\PSoC5/USBFS_episr.c ****     *
 519:.\Generated_Source\PSoC5/USBFS_episr.c ****     * Parameters:
ARM GAS  C:\DOCUME~1\ADMINI~1\LOCALS~1\Temp\ccQLwFFq.s 			page 13


 520:.\Generated_Source\PSoC5/USBFS_episr.c ****     *  None.
 521:.\Generated_Source\PSoC5/USBFS_episr.c ****     *
 522:.\Generated_Source\PSoC5/USBFS_episr.c ****     * Return:
 523:.\Generated_Source\PSoC5/USBFS_episr.c ****     *  None.
 524:.\Generated_Source\PSoC5/USBFS_episr.c ****     *
 525:.\Generated_Source\PSoC5/USBFS_episr.c ****     *******************************************************************************/
 526:.\Generated_Source\PSoC5/USBFS_episr.c ****     CY_ISR(USBFS_EP_8_ISR)
 527:.\Generated_Source\PSoC5/USBFS_episr.c ****     {
 528:.\Generated_Source\PSoC5/USBFS_episr.c ****         #if defined(USBFS_ENABLE_MIDI_STREAMING) && (USBFS_ENABLE_MIDI_API != 0u) && \
 529:.\Generated_Source\PSoC5/USBFS_episr.c ****             (USBFS_EP_MM == USBFS__EP_DMAAUTO) && (CY_PSOC3)
 530:.\Generated_Source\PSoC5/USBFS_episr.c ****             uint8 int_en;
 531:.\Generated_Source\PSoC5/USBFS_episr.c ****         #endif /* CY_PSOC3 & ENABLE_MIDI_STREAMING */
 532:.\Generated_Source\PSoC5/USBFS_episr.c ****     
 533:.\Generated_Source\PSoC5/USBFS_episr.c ****         /* `#START EP8_USER_CODE` Place your code here */
 534:.\Generated_Source\PSoC5/USBFS_episr.c **** 
 535:.\Generated_Source\PSoC5/USBFS_episr.c ****         /* `#END` */
 536:.\Generated_Source\PSoC5/USBFS_episr.c **** 
 537:.\Generated_Source\PSoC5/USBFS_episr.c ****         #if defined(USBFS_ENABLE_MIDI_STREAMING) && (USBFS_ENABLE_MIDI_API != 0u) && \
 538:.\Generated_Source\PSoC5/USBFS_episr.c ****             (USBFS_EP_MM == USBFS__EP_DMAAUTO) && (CY_PSOC3)
 539:.\Generated_Source\PSoC5/USBFS_episr.c ****             int_en = EA;
 540:.\Generated_Source\PSoC5/USBFS_episr.c ****             CyGlobalIntEnable;  /* Make sure nested interrupt is enabled */
 541:.\Generated_Source\PSoC5/USBFS_episr.c ****         #endif /* CY_PSOC3 & ENABLE_MIDI_STREAMING */
 542:.\Generated_Source\PSoC5/USBFS_episr.c **** 
 543:.\Generated_Source\PSoC5/USBFS_episr.c ****         CY_GET_REG8(USBFS_SIE_EP8_CR0_PTR); /* Must read the mode reg */
 544:.\Generated_Source\PSoC5/USBFS_episr.c ****         /* Do not toggle ISOC endpoint */
 545:.\Generated_Source\PSoC5/USBFS_episr.c ****         if((USBFS_EP[USBFS_EP8].attrib & USBFS_EP_TYPE_MASK) !=
 546:.\Generated_Source\PSoC5/USBFS_episr.c ****                                                                                     USBFS_EP_TYPE_I
 547:.\Generated_Source\PSoC5/USBFS_episr.c ****         {
 548:.\Generated_Source\PSoC5/USBFS_episr.c ****             USBFS_EP[USBFS_EP8].epToggle ^= USBFS_EPX_CNT_DATA_TOGGLE;
 549:.\Generated_Source\PSoC5/USBFS_episr.c ****         }
 550:.\Generated_Source\PSoC5/USBFS_episr.c ****         USBFS_EP[USBFS_EP8].apiEpState = USBFS_EVENT_PENDING;
 551:.\Generated_Source\PSoC5/USBFS_episr.c ****         CY_SET_REG8(USBFS_SIE_EP_INT_SR_PTR, CY_GET_REG8(USBFS_SIE_EP_INT_SR_PTR)
 552:.\Generated_Source\PSoC5/USBFS_episr.c ****                                                                         & ~USBFS_SIE_EP_INT_EP8_MAS
 553:.\Generated_Source\PSoC5/USBFS_episr.c **** 
 554:.\Generated_Source\PSoC5/USBFS_episr.c ****         #if defined(USBFS_ENABLE_MIDI_STREAMING) && (USBFS_ENABLE_MIDI_API != 0u) && \
 555:.\Generated_Source\PSoC5/USBFS_episr.c ****             (USBFS_EP_MM == USBFS__EP_DMAAUTO) 
 556:.\Generated_Source\PSoC5/USBFS_episr.c ****             if(USBFS_midi_out_ep == USBFS_EP8)
 557:.\Generated_Source\PSoC5/USBFS_episr.c ****             {
 558:.\Generated_Source\PSoC5/USBFS_episr.c ****                 USBFS_MIDI_OUT_EP_Service();
 559:.\Generated_Source\PSoC5/USBFS_episr.c ****             }   
 560:.\Generated_Source\PSoC5/USBFS_episr.c ****         #endif /* End USBFS_ENABLE_MIDI_STREAMING*/
 561:.\Generated_Source\PSoC5/USBFS_episr.c **** 
 562:.\Generated_Source\PSoC5/USBFS_episr.c ****         /* `#START EP8_END_USER_CODE` Place your code here */
 563:.\Generated_Source\PSoC5/USBFS_episr.c **** 
 564:.\Generated_Source\PSoC5/USBFS_episr.c ****         /* `#END` */
 565:.\Generated_Source\PSoC5/USBFS_episr.c **** 
 566:.\Generated_Source\PSoC5/USBFS_episr.c ****         #if defined(USBFS_ENABLE_MIDI_STREAMING) && (USBFS_ENABLE_MIDI_API != 0u) && \
 567:.\Generated_Source\PSoC5/USBFS_episr.c ****             (USBFS_EP_MM == USBFS__EP_DMAAUTO) && (CY_PSOC3)
 568:.\Generated_Source\PSoC5/USBFS_episr.c ****             EA = int_en;
 569:.\Generated_Source\PSoC5/USBFS_episr.c ****         #endif /* CY_PSOC3 & ENABLE_MIDI_STREAMING */
 570:.\Generated_Source\PSoC5/USBFS_episr.c ****     }
 571:.\Generated_Source\PSoC5/USBFS_episr.c **** 
 572:.\Generated_Source\PSoC5/USBFS_episr.c **** #endif   /* End USBFS_EP8_ISR_REMOVE */
 573:.\Generated_Source\PSoC5/USBFS_episr.c **** 
 574:.\Generated_Source\PSoC5/USBFS_episr.c **** 
 575:.\Generated_Source\PSoC5/USBFS_episr.c **** /*******************************************************************************
 576:.\Generated_Source\PSoC5/USBFS_episr.c **** * Function Name: USBFS_SOF_ISR
ARM GAS  C:\DOCUME~1\ADMINI~1\LOCALS~1\Temp\ccQLwFFq.s 			page 14


 577:.\Generated_Source\PSoC5/USBFS_episr.c **** ********************************************************************************
 578:.\Generated_Source\PSoC5/USBFS_episr.c **** *
 579:.\Generated_Source\PSoC5/USBFS_episr.c **** * Summary:
 580:.\Generated_Source\PSoC5/USBFS_episr.c **** *  Start of Frame Interrupt Service Routine
 581:.\Generated_Source\PSoC5/USBFS_episr.c **** *
 582:.\Generated_Source\PSoC5/USBFS_episr.c **** * Parameters:
 583:.\Generated_Source\PSoC5/USBFS_episr.c **** *  None.
 584:.\Generated_Source\PSoC5/USBFS_episr.c **** *
 585:.\Generated_Source\PSoC5/USBFS_episr.c **** * Return:
 586:.\Generated_Source\PSoC5/USBFS_episr.c **** *  None.
 587:.\Generated_Source\PSoC5/USBFS_episr.c **** *
 588:.\Generated_Source\PSoC5/USBFS_episr.c **** *******************************************************************************/
 589:.\Generated_Source\PSoC5/USBFS_episr.c **** CY_ISR(USBFS_SOF_ISR)
 590:.\Generated_Source\PSoC5/USBFS_episr.c **** {
 162              		.loc 1 590 0
 163              		.cfi_startproc
 164              		@ args = 0, pretend = 0, frame = 0
 165              		@ frame_needed = 1, uses_anonymous_args = 0
 166              		@ link register save eliminated.
 167 0000 80B4     		push	{r7}
 168              	.LCFI4:
 169              		.cfi_def_cfa_offset 4
 170 0002 00AF     		add	r7, sp, #0
 171              		.cfi_offset 7, -4
 172              	.LCFI5:
 173              		.cfi_def_cfa_register 7
 591:.\Generated_Source\PSoC5/USBFS_episr.c ****     /* `#START SOF_USER_CODE` Place your code here */
 592:.\Generated_Source\PSoC5/USBFS_episr.c **** 
 593:.\Generated_Source\PSoC5/USBFS_episr.c ****     /* `#END` */
 594:.\Generated_Source\PSoC5/USBFS_episr.c **** }
 174              		.loc 1 594 0
 175 0004 BD46     		mov	sp, r7
 176 0006 80BC     		pop	{r7}
 177 0008 7047     		bx	lr
 178              		.cfi_endproc
 179              	.LFE2:
 180              		.size	USBFS_SOF_ISR, .-USBFS_SOF_ISR
 181 000a 00BF     		.section	.text.USBFS_BUS_RESET_ISR,"ax",%progbits
 182              		.align	2
 183              		.global	USBFS_BUS_RESET_ISR
 184              		.thumb
 185              		.thumb_func
 186              		.type	USBFS_BUS_RESET_ISR, %function
 187              	USBFS_BUS_RESET_ISR:
 188              	.LFB3:
 595:.\Generated_Source\PSoC5/USBFS_episr.c **** 
 596:.\Generated_Source\PSoC5/USBFS_episr.c **** 
 597:.\Generated_Source\PSoC5/USBFS_episr.c **** /*******************************************************************************
 598:.\Generated_Source\PSoC5/USBFS_episr.c **** * Function Name: USBFS_BUS_RESET_ISR
 599:.\Generated_Source\PSoC5/USBFS_episr.c **** ********************************************************************************
 600:.\Generated_Source\PSoC5/USBFS_episr.c **** *
 601:.\Generated_Source\PSoC5/USBFS_episr.c **** * Summary:
 602:.\Generated_Source\PSoC5/USBFS_episr.c **** *  USB Bus Reset Interrupt Service Routine.  Calls _Start with the same
 603:.\Generated_Source\PSoC5/USBFS_episr.c **** *  parameters as the last USER call to _Start
 604:.\Generated_Source\PSoC5/USBFS_episr.c **** *
 605:.\Generated_Source\PSoC5/USBFS_episr.c **** * Parameters:
 606:.\Generated_Source\PSoC5/USBFS_episr.c **** *  None.
ARM GAS  C:\DOCUME~1\ADMINI~1\LOCALS~1\Temp\ccQLwFFq.s 			page 15


 607:.\Generated_Source\PSoC5/USBFS_episr.c **** *
 608:.\Generated_Source\PSoC5/USBFS_episr.c **** * Return:
 609:.\Generated_Source\PSoC5/USBFS_episr.c **** *  None.
 610:.\Generated_Source\PSoC5/USBFS_episr.c **** *
 611:.\Generated_Source\PSoC5/USBFS_episr.c **** *******************************************************************************/
 612:.\Generated_Source\PSoC5/USBFS_episr.c **** CY_ISR(USBFS_BUS_RESET_ISR)
 613:.\Generated_Source\PSoC5/USBFS_episr.c **** {
 189              		.loc 1 613 0
 190              		.cfi_startproc
 191              		@ args = 0, pretend = 0, frame = 0
 192              		@ frame_needed = 1, uses_anonymous_args = 0
 193 0000 80B5     		push	{r7, lr}
 194              	.LCFI6:
 195              		.cfi_def_cfa_offset 8
 196 0002 00AF     		add	r7, sp, #0
 197              		.cfi_offset 14, -4
 198              		.cfi_offset 7, -8
 199              	.LCFI7:
 200              		.cfi_def_cfa_register 7
 614:.\Generated_Source\PSoC5/USBFS_episr.c ****     /* `#START BUS_RESET_USER_CODE` Place your code here */
 615:.\Generated_Source\PSoC5/USBFS_episr.c **** 
 616:.\Generated_Source\PSoC5/USBFS_episr.c ****     /* `#END` */
 617:.\Generated_Source\PSoC5/USBFS_episr.c **** 
 618:.\Generated_Source\PSoC5/USBFS_episr.c ****     USBFS_ReInitComponent();
 201              		.loc 1 618 0
 202 0004 FFF7FEFF 		bl	USBFS_ReInitComponent
 619:.\Generated_Source\PSoC5/USBFS_episr.c **** }
 203              		.loc 1 619 0
 204 0008 80BD     		pop	{r7, pc}
 205              		.cfi_endproc
 206              	.LFE3:
 207              		.size	USBFS_BUS_RESET_ISR, .-USBFS_BUS_RESET_ISR
 208 000a 00BF     		.text
 209              	.Letext0: