ARM GAS  C:\DOCUME~1\ADMINI~1\LOCALS~1\Temp\cc9gz4qV.s 			page 1


   1              		.syntax unified
   2              		.cpu cortex-m3
   3              		.fpu softvfp
   4              		.eabi_attribute 20, 1
   5              		.eabi_attribute 21, 1
   6              		.eabi_attribute 23, 3
   7              		.eabi_attribute 24, 1
   8              		.eabi_attribute 25, 1
   9              		.eabi_attribute 26, 1
  10              		.eabi_attribute 30, 4
  11              		.eabi_attribute 18, 4
  12              		.thumb
  13              		.file	"ADC_Voltage_Target_INT.c"
  20 0000 99000000 		.text
  20      02004800 
  20      00000201 
  20      FB0E0D00 
  20      01010101 
  21              	.Ltext0:
  22              		.cfi_sections	.debug_frame
  23              		.section	.text.ADC_Voltage_Target_ISR1,"ax",%progbits
  24              		.align	1
  25              		.global	ADC_Voltage_Target_ISR1
  26              		.thumb
  27              		.thumb_func
  28              		.type	ADC_Voltage_Target_ISR1, %function
  29              	ADC_Voltage_Target_ISR1:
  30              	.LFB0:
  31              		.file 1 ".\\Generated_Source\\PSoC5\\ADC_Voltage_Target_INT.c"
   1:.\Generated_Source\PSoC5/ADC_Voltage_Target_INT.c **** /*******************************************************************************
   2:.\Generated_Source\PSoC5/ADC_Voltage_Target_INT.c **** * File Name: ADC_Voltage_Target_INT.c  
   3:.\Generated_Source\PSoC5/ADC_Voltage_Target_INT.c **** * Version 2.30
   4:.\Generated_Source\PSoC5/ADC_Voltage_Target_INT.c **** *
   5:.\Generated_Source\PSoC5/ADC_Voltage_Target_INT.c **** * Description:
   6:.\Generated_Source\PSoC5/ADC_Voltage_Target_INT.c **** *  This file contains the code that operates during the ADC_DelSig interrupt 
   7:.\Generated_Source\PSoC5/ADC_Voltage_Target_INT.c **** *  service routine.  
   8:.\Generated_Source\PSoC5/ADC_Voltage_Target_INT.c **** *
   9:.\Generated_Source\PSoC5/ADC_Voltage_Target_INT.c **** * Note:
  10:.\Generated_Source\PSoC5/ADC_Voltage_Target_INT.c **** *
  11:.\Generated_Source\PSoC5/ADC_Voltage_Target_INT.c **** *******************************************************************************
  12:.\Generated_Source\PSoC5/ADC_Voltage_Target_INT.c **** * Copyright 2008-2012, Cypress Semiconductor Corporation.  All rights reserved.
  13:.\Generated_Source\PSoC5/ADC_Voltage_Target_INT.c **** * You may use this file only in accordance with the license, terms, conditions, 
  14:.\Generated_Source\PSoC5/ADC_Voltage_Target_INT.c **** * disclaimers, and limitations in the end user license agreement accompanying 
  15:.\Generated_Source\PSoC5/ADC_Voltage_Target_INT.c **** * the software package with which this file was provided.
  16:.\Generated_Source\PSoC5/ADC_Voltage_Target_INT.c **** ********************************************************************************/
  17:.\Generated_Source\PSoC5/ADC_Voltage_Target_INT.c **** 
  18:.\Generated_Source\PSoC5/ADC_Voltage_Target_INT.c **** #include "ADC_Voltage_Target.h"  
  19:.\Generated_Source\PSoC5/ADC_Voltage_Target_INT.c **** 
  20:.\Generated_Source\PSoC5/ADC_Voltage_Target_INT.c **** 
  21:.\Generated_Source\PSoC5/ADC_Voltage_Target_INT.c **** /*******************************************************************************
  22:.\Generated_Source\PSoC5/ADC_Voltage_Target_INT.c **** * Custom Declarations and Variables
ARM GAS  C:\DOCUME~1\ADMINI~1\LOCALS~1\Temp\cc9gz4qV.s 			page 2


  23:.\Generated_Source\PSoC5/ADC_Voltage_Target_INT.c **** * - add user inlcude files, prototypes and variables between the following 
  24:.\Generated_Source\PSoC5/ADC_Voltage_Target_INT.c **** *   #START and #END tags
  25:.\Generated_Source\PSoC5/ADC_Voltage_Target_INT.c **** *******************************************************************************/
  26:.\Generated_Source\PSoC5/ADC_Voltage_Target_INT.c **** /* `#START ADC_SYS_VAR`  */
  27:.\Generated_Source\PSoC5/ADC_Voltage_Target_INT.c **** 
  28:.\Generated_Source\PSoC5/ADC_Voltage_Target_INT.c **** /* `#END`  */
  29:.\Generated_Source\PSoC5/ADC_Voltage_Target_INT.c **** 
  30:.\Generated_Source\PSoC5/ADC_Voltage_Target_INT.c **** 
  31:.\Generated_Source\PSoC5/ADC_Voltage_Target_INT.c **** /*****************************************************************************
  32:.\Generated_Source\PSoC5/ADC_Voltage_Target_INT.c **** * Function Name: ADC_Voltage_Target_ISR1
  33:.\Generated_Source\PSoC5/ADC_Voltage_Target_INT.c **** ******************************************************************************
  34:.\Generated_Source\PSoC5/ADC_Voltage_Target_INT.c **** *
  35:.\Generated_Source\PSoC5/ADC_Voltage_Target_INT.c **** * Summary:
  36:.\Generated_Source\PSoC5/ADC_Voltage_Target_INT.c **** *  Handle Interrupt Service Routine.  
  37:.\Generated_Source\PSoC5/ADC_Voltage_Target_INT.c **** *
  38:.\Generated_Source\PSoC5/ADC_Voltage_Target_INT.c **** * Parameters:  
  39:.\Generated_Source\PSoC5/ADC_Voltage_Target_INT.c **** *  void
  40:.\Generated_Source\PSoC5/ADC_Voltage_Target_INT.c **** *
  41:.\Generated_Source\PSoC5/ADC_Voltage_Target_INT.c **** * Return: 
  42:.\Generated_Source\PSoC5/ADC_Voltage_Target_INT.c **** *  void 
  43:.\Generated_Source\PSoC5/ADC_Voltage_Target_INT.c **** *
  44:.\Generated_Source\PSoC5/ADC_Voltage_Target_INT.c **** * Reentrant: 
  45:.\Generated_Source\PSoC5/ADC_Voltage_Target_INT.c **** *  No
  46:.\Generated_Source\PSoC5/ADC_Voltage_Target_INT.c **** *
  47:.\Generated_Source\PSoC5/ADC_Voltage_Target_INT.c **** *****************************************************************************/
  48:.\Generated_Source\PSoC5/ADC_Voltage_Target_INT.c **** CY_ISR( ADC_Voltage_Target_ISR1)
  49:.\Generated_Source\PSoC5/ADC_Voltage_Target_INT.c **** {
  32              		.loc 1 49 0
  33              		.cfi_startproc
  34              		@ args = 0, pretend = 0, frame = 0
  35              		@ frame_needed = 0, uses_anonymous_args = 0
  36              		@ link register save eliminated.
  50:.\Generated_Source\PSoC5/ADC_Voltage_Target_INT.c ****     /***************************************************************************
  51:.\Generated_Source\PSoC5/ADC_Voltage_Target_INT.c ****     *  Custom Code
  52:.\Generated_Source\PSoC5/ADC_Voltage_Target_INT.c ****     *  - add user ISR code between the following #START and #END tags
  53:.\Generated_Source\PSoC5/ADC_Voltage_Target_INT.c ****     **************************************************************************/
  54:.\Generated_Source\PSoC5/ADC_Voltage_Target_INT.c ****     /* `#START MAIN_ADC_ISR1`  */
  55:.\Generated_Source\PSoC5/ADC_Voltage_Target_INT.c **** 
  56:.\Generated_Source\PSoC5/ADC_Voltage_Target_INT.c ****     /* `#END`  */
  57:.\Generated_Source\PSoC5/ADC_Voltage_Target_INT.c ****     
  58:.\Generated_Source\PSoC5/ADC_Voltage_Target_INT.c ****     /* Stop the conversion if conversion mode is single sample and resolution
  59:.\Generated_Source\PSoC5/ADC_Voltage_Target_INT.c ****        is above 16 bits. 
  60:.\Generated_Source\PSoC5/ADC_Voltage_Target_INT.c ****     */
  61:.\Generated_Source\PSoC5/ADC_Voltage_Target_INT.c ****     #if(ADC_Voltage_Target_CFG1_RESOLUTION > 16 && \
  62:.\Generated_Source\PSoC5/ADC_Voltage_Target_INT.c ****         ADC_Voltage_Target_CFG1_CONV_MODE == ADC_Voltage_Target_MODE_SINGLE_SAMPLE) 
  63:.\Generated_Source\PSoC5/ADC_Voltage_Target_INT.c ****         ADC_Voltage_Target_StopConvert(); 
  64:.\Generated_Source\PSoC5/ADC_Voltage_Target_INT.c ****     #endif /* Single sample conversion mode with resolution above 16 bits */         
  65:.\Generated_Source\PSoC5/ADC_Voltage_Target_INT.c ****         
  66:.\Generated_Source\PSoC5/ADC_Voltage_Target_INT.c **** }
  37              		.loc 1 66 0
  38 0000 7047     		bx	lr
  39              		.cfi_endproc
  40              	.LFE0:
  41              		.size	ADC_Voltage_Target_ISR1, .-ADC_Voltage_Target_ISR1
  42              		.section	.text.ADC_Voltage_Target_ISR2,"ax",%progbits
  43              		.align	1
  44              		.global	ADC_Voltage_Target_ISR2
ARM GAS  C:\DOCUME~1\ADMINI~1\LOCALS~1\Temp\cc9gz4qV.s 			page 3


  45              		.thumb
  46              		.thumb_func
  47              		.type	ADC_Voltage_Target_ISR2, %function
  48              	ADC_Voltage_Target_ISR2:
  49              	.LFB1:
  67:.\Generated_Source\PSoC5/ADC_Voltage_Target_INT.c **** 
  68:.\Generated_Source\PSoC5/ADC_Voltage_Target_INT.c **** 
  69:.\Generated_Source\PSoC5/ADC_Voltage_Target_INT.c **** /*****************************************************************************
  70:.\Generated_Source\PSoC5/ADC_Voltage_Target_INT.c **** * Function Name: ADC_Voltage_Target_ISR2
  71:.\Generated_Source\PSoC5/ADC_Voltage_Target_INT.c **** ******************************************************************************
  72:.\Generated_Source\PSoC5/ADC_Voltage_Target_INT.c **** *
  73:.\Generated_Source\PSoC5/ADC_Voltage_Target_INT.c **** * Summary:
  74:.\Generated_Source\PSoC5/ADC_Voltage_Target_INT.c **** *  Handle Interrupt Service Routine.  
  75:.\Generated_Source\PSoC5/ADC_Voltage_Target_INT.c **** *
  76:.\Generated_Source\PSoC5/ADC_Voltage_Target_INT.c **** * Parameters:  
  77:.\Generated_Source\PSoC5/ADC_Voltage_Target_INT.c **** *  void
  78:.\Generated_Source\PSoC5/ADC_Voltage_Target_INT.c **** *
  79:.\Generated_Source\PSoC5/ADC_Voltage_Target_INT.c **** * Return: 
  80:.\Generated_Source\PSoC5/ADC_Voltage_Target_INT.c **** *  void 
  81:.\Generated_Source\PSoC5/ADC_Voltage_Target_INT.c **** *
  82:.\Generated_Source\PSoC5/ADC_Voltage_Target_INT.c **** * Reentrant: 
  83:.\Generated_Source\PSoC5/ADC_Voltage_Target_INT.c **** *  No
  84:.\Generated_Source\PSoC5/ADC_Voltage_Target_INT.c **** *
  85:.\Generated_Source\PSoC5/ADC_Voltage_Target_INT.c **** *****************************************************************************/
  86:.\Generated_Source\PSoC5/ADC_Voltage_Target_INT.c **** CY_ISR( ADC_Voltage_Target_ISR2)
  87:.\Generated_Source\PSoC5/ADC_Voltage_Target_INT.c **** {
  50              		.loc 1 87 0
  51              		.cfi_startproc
  52              		@ args = 0, pretend = 0, frame = 0
  53              		@ frame_needed = 0, uses_anonymous_args = 0
  54              		@ link register save eliminated.
  88:.\Generated_Source\PSoC5/ADC_Voltage_Target_INT.c ****     /***************************************************************************
  89:.\Generated_Source\PSoC5/ADC_Voltage_Target_INT.c ****     *  Custom Code
  90:.\Generated_Source\PSoC5/ADC_Voltage_Target_INT.c ****     *  - add user ISR code between the following #START and #END tags
  91:.\Generated_Source\PSoC5/ADC_Voltage_Target_INT.c ****     **************************************************************************/
  92:.\Generated_Source\PSoC5/ADC_Voltage_Target_INT.c ****     /* `#START MAIN_ADC_ISR2`  */
  93:.\Generated_Source\PSoC5/ADC_Voltage_Target_INT.c **** 
  94:.\Generated_Source\PSoC5/ADC_Voltage_Target_INT.c ****     /* `#END`  */
  95:.\Generated_Source\PSoC5/ADC_Voltage_Target_INT.c ****     
  96:.\Generated_Source\PSoC5/ADC_Voltage_Target_INT.c ****     /* Stop the conversion conversion mode is single sample and resolution
  97:.\Generated_Source\PSoC5/ADC_Voltage_Target_INT.c ****        is above 16 bits.
  98:.\Generated_Source\PSoC5/ADC_Voltage_Target_INT.c ****     */
  99:.\Generated_Source\PSoC5/ADC_Voltage_Target_INT.c ****     #if(ADC_Voltage_Target_CFG2_RESOLUTION > 16 && \
 100:.\Generated_Source\PSoC5/ADC_Voltage_Target_INT.c ****         ADC_Voltage_Target_CFG2_CONVMODE == ADC_Voltage_Target_MODE_SINGLE_SAMPLE) 
 101:.\Generated_Source\PSoC5/ADC_Voltage_Target_INT.c ****         ADC_Voltage_Target_StopConvert(); 
 102:.\Generated_Source\PSoC5/ADC_Voltage_Target_INT.c ****     #endif /* Single sample conversion mode with resolution above 16 bits */
 103:.\Generated_Source\PSoC5/ADC_Voltage_Target_INT.c ****     
 104:.\Generated_Source\PSoC5/ADC_Voltage_Target_INT.c **** }
  55              		.loc 1 104 0
  56 0000 7047     		bx	lr
  57              		.cfi_endproc
  58              	.LFE1:
  59              		.size	ADC_Voltage_Target_ISR2, .-ADC_Voltage_Target_ISR2
  60              		.section	.text.ADC_Voltage_Target_ISR3,"ax",%progbits
  61              		.align	1
  62              		.global	ADC_Voltage_Target_ISR3
  63              		.thumb
ARM GAS  C:\DOCUME~1\ADMINI~1\LOCALS~1\Temp\cc9gz4qV.s 			page 4


  64              		.thumb_func
  65              		.type	ADC_Voltage_Target_ISR3, %function
  66              	ADC_Voltage_Target_ISR3:
  67              	.LFB2:
 105:.\Generated_Source\PSoC5/ADC_Voltage_Target_INT.c **** 
 106:.\Generated_Source\PSoC5/ADC_Voltage_Target_INT.c **** 
 107:.\Generated_Source\PSoC5/ADC_Voltage_Target_INT.c **** /*****************************************************************************
 108:.\Generated_Source\PSoC5/ADC_Voltage_Target_INT.c **** * Function Name: ADC_Voltage_Target_ISR3
 109:.\Generated_Source\PSoC5/ADC_Voltage_Target_INT.c **** ******************************************************************************
 110:.\Generated_Source\PSoC5/ADC_Voltage_Target_INT.c **** *
 111:.\Generated_Source\PSoC5/ADC_Voltage_Target_INT.c **** * Summary:
 112:.\Generated_Source\PSoC5/ADC_Voltage_Target_INT.c **** *  Handle Interrupt Service Routine.  
 113:.\Generated_Source\PSoC5/ADC_Voltage_Target_INT.c **** *
 114:.\Generated_Source\PSoC5/ADC_Voltage_Target_INT.c **** * Parameters:  
 115:.\Generated_Source\PSoC5/ADC_Voltage_Target_INT.c **** *  void
 116:.\Generated_Source\PSoC5/ADC_Voltage_Target_INT.c **** *
 117:.\Generated_Source\PSoC5/ADC_Voltage_Target_INT.c **** * Return: 
 118:.\Generated_Source\PSoC5/ADC_Voltage_Target_INT.c **** *  void 
 119:.\Generated_Source\PSoC5/ADC_Voltage_Target_INT.c **** *
 120:.\Generated_Source\PSoC5/ADC_Voltage_Target_INT.c **** * Reentrant: 
 121:.\Generated_Source\PSoC5/ADC_Voltage_Target_INT.c **** *  No
 122:.\Generated_Source\PSoC5/ADC_Voltage_Target_INT.c **** *
 123:.\Generated_Source\PSoC5/ADC_Voltage_Target_INT.c **** *****************************************************************************/
 124:.\Generated_Source\PSoC5/ADC_Voltage_Target_INT.c **** CY_ISR( ADC_Voltage_Target_ISR3)
 125:.\Generated_Source\PSoC5/ADC_Voltage_Target_INT.c **** {
  68              		.loc 1 125 0
  69              		.cfi_startproc
  70              		@ args = 0, pretend = 0, frame = 0
  71              		@ frame_needed = 0, uses_anonymous_args = 0
  72              		@ link register save eliminated.
 126:.\Generated_Source\PSoC5/ADC_Voltage_Target_INT.c ****     /***************************************************************************
 127:.\Generated_Source\PSoC5/ADC_Voltage_Target_INT.c ****     *  Custom Code
 128:.\Generated_Source\PSoC5/ADC_Voltage_Target_INT.c ****     *  - add user ISR code between the following #START and #END tags
 129:.\Generated_Source\PSoC5/ADC_Voltage_Target_INT.c ****     **************************************************************************/
 130:.\Generated_Source\PSoC5/ADC_Voltage_Target_INT.c ****     /* `#START MAIN_ADC_ISR3`  */
 131:.\Generated_Source\PSoC5/ADC_Voltage_Target_INT.c **** 
 132:.\Generated_Source\PSoC5/ADC_Voltage_Target_INT.c ****     /* `#END`  */
 133:.\Generated_Source\PSoC5/ADC_Voltage_Target_INT.c **** 
 134:.\Generated_Source\PSoC5/ADC_Voltage_Target_INT.c ****     /* Stop the conversion if conversion mode is set to single sample and 
 135:.\Generated_Source\PSoC5/ADC_Voltage_Target_INT.c ****        resolution is above 16 bits. 
 136:.\Generated_Source\PSoC5/ADC_Voltage_Target_INT.c ****     */
 137:.\Generated_Source\PSoC5/ADC_Voltage_Target_INT.c ****     #if(ADC_Voltage_Target_CFG3_RESOLUTION > 16 && \
 138:.\Generated_Source\PSoC5/ADC_Voltage_Target_INT.c ****         ADC_Voltage_Target_CFG3_CONVMODE == ADC_Voltage_Target_MODE_SINGLE_SAMPLE) 
 139:.\Generated_Source\PSoC5/ADC_Voltage_Target_INT.c ****         ADC_Voltage_Target_StopConvert(); 
 140:.\Generated_Source\PSoC5/ADC_Voltage_Target_INT.c ****     #endif /* Single sample conversion mode with resolution above 16 bits */  
 141:.\Generated_Source\PSoC5/ADC_Voltage_Target_INT.c **** }
  73              		.loc 1 141 0
  74 0000 7047     		bx	lr
  75              		.cfi_endproc
  76              	.LFE2:
  77              		.size	ADC_Voltage_Target_ISR3, .-ADC_Voltage_Target_ISR3
  78              		.section	.text.ADC_Voltage_Target_ISR4,"ax",%progbits
  79              		.align	1
  80              		.global	ADC_Voltage_Target_ISR4
  81              		.thumb
  82              		.thumb_func
  83              		.type	ADC_Voltage_Target_ISR4, %function
ARM GAS  C:\DOCUME~1\ADMINI~1\LOCALS~1\Temp\cc9gz4qV.s 			page 5


  84              	ADC_Voltage_Target_ISR4:
  85              	.LFB3:
 142:.\Generated_Source\PSoC5/ADC_Voltage_Target_INT.c **** 
 143:.\Generated_Source\PSoC5/ADC_Voltage_Target_INT.c **** 
 144:.\Generated_Source\PSoC5/ADC_Voltage_Target_INT.c **** /*****************************************************************************
 145:.\Generated_Source\PSoC5/ADC_Voltage_Target_INT.c **** * Function Name: ADC_Voltage_Target_ISR4
 146:.\Generated_Source\PSoC5/ADC_Voltage_Target_INT.c **** ******************************************************************************
 147:.\Generated_Source\PSoC5/ADC_Voltage_Target_INT.c **** *
 148:.\Generated_Source\PSoC5/ADC_Voltage_Target_INT.c **** * Summary:
 149:.\Generated_Source\PSoC5/ADC_Voltage_Target_INT.c **** *  Handle Interrupt Service Routine.  
 150:.\Generated_Source\PSoC5/ADC_Voltage_Target_INT.c **** *
 151:.\Generated_Source\PSoC5/ADC_Voltage_Target_INT.c **** * Parameters:  
 152:.\Generated_Source\PSoC5/ADC_Voltage_Target_INT.c **** *  void
 153:.\Generated_Source\PSoC5/ADC_Voltage_Target_INT.c **** *
 154:.\Generated_Source\PSoC5/ADC_Voltage_Target_INT.c **** * Return: 
 155:.\Generated_Source\PSoC5/ADC_Voltage_Target_INT.c **** *  void 
 156:.\Generated_Source\PSoC5/ADC_Voltage_Target_INT.c **** *
 157:.\Generated_Source\PSoC5/ADC_Voltage_Target_INT.c **** * Reentrant: 
 158:.\Generated_Source\PSoC5/ADC_Voltage_Target_INT.c **** *  No
 159:.\Generated_Source\PSoC5/ADC_Voltage_Target_INT.c **** *
 160:.\Generated_Source\PSoC5/ADC_Voltage_Target_INT.c **** *****************************************************************************/
 161:.\Generated_Source\PSoC5/ADC_Voltage_Target_INT.c **** CY_ISR( ADC_Voltage_Target_ISR4)
 162:.\Generated_Source\PSoC5/ADC_Voltage_Target_INT.c **** {
  86              		.loc 1 162 0
  87              		.cfi_startproc
  88              		@ args = 0, pretend = 0, frame = 0
  89              		@ frame_needed = 0, uses_anonymous_args = 0
  90              		@ link register save eliminated.
 163:.\Generated_Source\PSoC5/ADC_Voltage_Target_INT.c ****     /***************************************************************************
 164:.\Generated_Source\PSoC5/ADC_Voltage_Target_INT.c ****     *  Custom Code
 165:.\Generated_Source\PSoC5/ADC_Voltage_Target_INT.c ****     *  - add user ISR code between the following #START and #END tags
 166:.\Generated_Source\PSoC5/ADC_Voltage_Target_INT.c ****     **************************************************************************/
 167:.\Generated_Source\PSoC5/ADC_Voltage_Target_INT.c ****     /* `#START MAIN_ADC_ISR4`  */
 168:.\Generated_Source\PSoC5/ADC_Voltage_Target_INT.c **** 
 169:.\Generated_Source\PSoC5/ADC_Voltage_Target_INT.c ****     /* `#END`  */
 170:.\Generated_Source\PSoC5/ADC_Voltage_Target_INT.c ****     
 171:.\Generated_Source\PSoC5/ADC_Voltage_Target_INT.c ****     /* Stop the conversion if conversion mode is set to single sample and 
 172:.\Generated_Source\PSoC5/ADC_Voltage_Target_INT.c ****        resolution is above 16 bits. 
 173:.\Generated_Source\PSoC5/ADC_Voltage_Target_INT.c ****     */
 174:.\Generated_Source\PSoC5/ADC_Voltage_Target_INT.c ****     #if(ADC_Voltage_Target_CFG4_RESOLUTION > 16 && \
 175:.\Generated_Source\PSoC5/ADC_Voltage_Target_INT.c ****         ADC_Voltage_Target_CFG4_CONVMODE == ADC_Voltage_Target_MODE_SINGLE_SAMPLE) 
 176:.\Generated_Source\PSoC5/ADC_Voltage_Target_INT.c ****         ADC_Voltage_Target_StopConvert(); 
 177:.\Generated_Source\PSoC5/ADC_Voltage_Target_INT.c ****     #endif /* Single sample conversion mode with resolution above 16 bits */
 178:.\Generated_Source\PSoC5/ADC_Voltage_Target_INT.c **** }
  91              		.loc 1 178 0
  92 0000 7047     		bx	lr
  93              		.cfi_endproc
  94              	.LFE3:
  95              		.size	ADC_Voltage_Target_ISR4, .-ADC_Voltage_Target_ISR4
  96              		.text
  97              	.Letext0: