ARM GAS  C:\DOCUME~1\ADMINI~1\LOCALS~1\Temp\ccBTUq2a.s 			page 1


   1              		.syntax unified
   2              		.cpu cortex-m3
   3              		.fpu softvfp
   4              		.eabi_attribute 20, 1
   5              		.eabi_attribute 21, 1
   6              		.eabi_attribute 23, 3
   7              		.eabi_attribute 24, 1
   8              		.eabi_attribute 25, 1
   9              		.eabi_attribute 26, 1
  10              		.eabi_attribute 30, 4
  11              		.eabi_attribute 18, 4
  12              		.thumb
  13              		.file	"ADC_Voltage_Target_PM.c"
  20 0000 DD000000 		.text
  20      02008600 
  20      00000201 
  20      FB0E0D00 
  20      01010101 
  21              	.Ltext0:
  22              		.cfi_sections	.debug_frame
  23              		.section	.text.ADC_Voltage_Target_SaveConfig,"ax",%progbits
  24              		.align	1
  25              		.global	ADC_Voltage_Target_SaveConfig
  26              		.thumb
  27              		.thumb_func
  28              		.type	ADC_Voltage_Target_SaveConfig, %function
  29              	ADC_Voltage_Target_SaveConfig:
  30              	.LFB0:
  31              		.file 1 ".\\Generated_Source\\PSoC5\\ADC_Voltage_Target_PM.c"
   1:.\Generated_Source\PSoC5/ADC_Voltage_Target_PM.c **** /*******************************************************************************
   2:.\Generated_Source\PSoC5/ADC_Voltage_Target_PM.c **** * File Name: ADC_Voltage_Target_PM.c  
   3:.\Generated_Source\PSoC5/ADC_Voltage_Target_PM.c **** * Version 2.30
   4:.\Generated_Source\PSoC5/ADC_Voltage_Target_PM.c **** *
   5:.\Generated_Source\PSoC5/ADC_Voltage_Target_PM.c **** * Description:
   6:.\Generated_Source\PSoC5/ADC_Voltage_Target_PM.c **** *  This file provides the power manager source code to the API for the 
   7:.\Generated_Source\PSoC5/ADC_Voltage_Target_PM.c **** *  Delta-Sigma ADC Component.
   8:.\Generated_Source\PSoC5/ADC_Voltage_Target_PM.c **** *
   9:.\Generated_Source\PSoC5/ADC_Voltage_Target_PM.c **** * Note:
  10:.\Generated_Source\PSoC5/ADC_Voltage_Target_PM.c **** *
  11:.\Generated_Source\PSoC5/ADC_Voltage_Target_PM.c **** *******************************************************************************
  12:.\Generated_Source\PSoC5/ADC_Voltage_Target_PM.c **** * Copyright 2008-2012, Cypress Semiconductor Corporation.  All rights reserved.
  13:.\Generated_Source\PSoC5/ADC_Voltage_Target_PM.c **** * You may use this file only in accordance with the license, terms, conditions, 
  14:.\Generated_Source\PSoC5/ADC_Voltage_Target_PM.c **** * disclaimers, and limitations in the end user license agreement accompanying 
  15:.\Generated_Source\PSoC5/ADC_Voltage_Target_PM.c **** * the software package with which this file was provided.
  16:.\Generated_Source\PSoC5/ADC_Voltage_Target_PM.c **** ********************************************************************************/
  17:.\Generated_Source\PSoC5/ADC_Voltage_Target_PM.c **** 
  18:.\Generated_Source\PSoC5/ADC_Voltage_Target_PM.c **** #include "ADC_Voltage_Target.h"
  19:.\Generated_Source\PSoC5/ADC_Voltage_Target_PM.c **** 
  20:.\Generated_Source\PSoC5/ADC_Voltage_Target_PM.c **** static ADC_Voltage_Target_BACKUP_STRUCT ADC_Voltage_Target_backup = 
  21:.\Generated_Source\PSoC5/ADC_Voltage_Target_PM.c **** {
  22:.\Generated_Source\PSoC5/ADC_Voltage_Target_PM.c ****     ADC_Voltage_Target_DISABLED,
ARM GAS  C:\DOCUME~1\ADMINI~1\LOCALS~1\Temp\ccBTUq2a.s 			page 2


  23:.\Generated_Source\PSoC5/ADC_Voltage_Target_PM.c ****     ADC_Voltage_Target_CFG1_DEC_CR
  24:.\Generated_Source\PSoC5/ADC_Voltage_Target_PM.c **** };
  25:.\Generated_Source\PSoC5/ADC_Voltage_Target_PM.c **** 
  26:.\Generated_Source\PSoC5/ADC_Voltage_Target_PM.c **** 
  27:.\Generated_Source\PSoC5/ADC_Voltage_Target_PM.c **** /*******************************************************************************  
  28:.\Generated_Source\PSoC5/ADC_Voltage_Target_PM.c **** * Function Name: ADC_Voltage_Target_SaveConfig
  29:.\Generated_Source\PSoC5/ADC_Voltage_Target_PM.c **** ********************************************************************************
  30:.\Generated_Source\PSoC5/ADC_Voltage_Target_PM.c **** *
  31:.\Generated_Source\PSoC5/ADC_Voltage_Target_PM.c **** * Summary:
  32:.\Generated_Source\PSoC5/ADC_Voltage_Target_PM.c **** *  Save the register configuration which are not retention.
  33:.\Generated_Source\PSoC5/ADC_Voltage_Target_PM.c **** * 
  34:.\Generated_Source\PSoC5/ADC_Voltage_Target_PM.c **** * Parameters:
  35:.\Generated_Source\PSoC5/ADC_Voltage_Target_PM.c **** *  void
  36:.\Generated_Source\PSoC5/ADC_Voltage_Target_PM.c **** * 
  37:.\Generated_Source\PSoC5/ADC_Voltage_Target_PM.c **** * Return:
  38:.\Generated_Source\PSoC5/ADC_Voltage_Target_PM.c **** *  void
  39:.\Generated_Source\PSoC5/ADC_Voltage_Target_PM.c **** *
  40:.\Generated_Source\PSoC5/ADC_Voltage_Target_PM.c **** * Global variables:
  41:.\Generated_Source\PSoC5/ADC_Voltage_Target_PM.c **** *  ADC_Voltage_Target_backup:  This global structure variable is used to store 
  42:.\Generated_Source\PSoC5/ADC_Voltage_Target_PM.c **** *  configuration registers which are non retention whenever user wants to go 
  43:.\Generated_Source\PSoC5/ADC_Voltage_Target_PM.c **** *  sleep mode by calling Sleep() API.
  44:.\Generated_Source\PSoC5/ADC_Voltage_Target_PM.c **** *
  45:.\Generated_Source\PSoC5/ADC_Voltage_Target_PM.c **** *******************************************************************************/
  46:.\Generated_Source\PSoC5/ADC_Voltage_Target_PM.c **** void ADC_Voltage_Target_SaveConfig(void) 
  47:.\Generated_Source\PSoC5/ADC_Voltage_Target_PM.c **** {
  32              		.loc 1 47 0
  33              		.cfi_startproc
  34              		@ args = 0, pretend = 0, frame = 0
  35              		@ frame_needed = 0, uses_anonymous_args = 0
  36              		@ link register save eliminated.
  48:.\Generated_Source\PSoC5/ADC_Voltage_Target_PM.c ****     ADC_Voltage_Target_backup.deccr = ADC_Voltage_Target_DEC_CR_REG;
  37              		.loc 1 48 0
  38 0000 024B     		ldr	r3, .L3
  39 0002 1A78     		ldrb	r2, [r3, #0]	@ zero_extendqisi2
  40 0004 024B     		ldr	r3, .L3+4
  41 0006 5A70     		strb	r2, [r3, #1]
  49:.\Generated_Source\PSoC5/ADC_Voltage_Target_PM.c **** }
  42              		.loc 1 49 0
  43 0008 7047     		bx	lr
  44              	.L4:
  45 000a 00BF     		.align	2
  46              	.L3:
  47 000c 004E0040 		.word	1073761792
  48 0010 00000000 		.word	.LANCHOR0
  49              		.cfi_endproc
  50              	.LFE0:
  51              		.size	ADC_Voltage_Target_SaveConfig, .-ADC_Voltage_Target_SaveConfig
  52              		.section	.text.ADC_Voltage_Target_RestoreConfig,"ax",%progbits
  53              		.align	1
  54              		.global	ADC_Voltage_Target_RestoreConfig
  55              		.thumb
  56              		.thumb_func
  57              		.type	ADC_Voltage_Target_RestoreConfig, %function
  58              	ADC_Voltage_Target_RestoreConfig:
  59              	.LFB1:
  50:.\Generated_Source\PSoC5/ADC_Voltage_Target_PM.c **** 
  51:.\Generated_Source\PSoC5/ADC_Voltage_Target_PM.c **** 
ARM GAS  C:\DOCUME~1\ADMINI~1\LOCALS~1\Temp\ccBTUq2a.s 			page 3


  52:.\Generated_Source\PSoC5/ADC_Voltage_Target_PM.c **** /*******************************************************************************  
  53:.\Generated_Source\PSoC5/ADC_Voltage_Target_PM.c **** * Function Name: ADC_Voltage_Target_RestoreConfig
  54:.\Generated_Source\PSoC5/ADC_Voltage_Target_PM.c **** ********************************************************************************
  55:.\Generated_Source\PSoC5/ADC_Voltage_Target_PM.c **** *
  56:.\Generated_Source\PSoC5/ADC_Voltage_Target_PM.c **** * Summary:
  57:.\Generated_Source\PSoC5/ADC_Voltage_Target_PM.c **** *  Restore the register configurations which are not retention.
  58:.\Generated_Source\PSoC5/ADC_Voltage_Target_PM.c **** * 
  59:.\Generated_Source\PSoC5/ADC_Voltage_Target_PM.c **** * Parameters:
  60:.\Generated_Source\PSoC5/ADC_Voltage_Target_PM.c **** *  void
  61:.\Generated_Source\PSoC5/ADC_Voltage_Target_PM.c **** * 
  62:.\Generated_Source\PSoC5/ADC_Voltage_Target_PM.c **** * Return:
  63:.\Generated_Source\PSoC5/ADC_Voltage_Target_PM.c **** *  void
  64:.\Generated_Source\PSoC5/ADC_Voltage_Target_PM.c **** *
  65:.\Generated_Source\PSoC5/ADC_Voltage_Target_PM.c **** * Global variables:
  66:.\Generated_Source\PSoC5/ADC_Voltage_Target_PM.c **** *  ADC_Voltage_Target_backup:  This global structure variable is used to restore 
  67:.\Generated_Source\PSoC5/ADC_Voltage_Target_PM.c **** *  configuration registers which are non retention whenever user wants to switch 
  68:.\Generated_Source\PSoC5/ADC_Voltage_Target_PM.c **** *  to active power mode by calling Wakeup() API.
  69:.\Generated_Source\PSoC5/ADC_Voltage_Target_PM.c **** *
  70:.\Generated_Source\PSoC5/ADC_Voltage_Target_PM.c **** *******************************************************************************/
  71:.\Generated_Source\PSoC5/ADC_Voltage_Target_PM.c **** void ADC_Voltage_Target_RestoreConfig(void) 
  72:.\Generated_Source\PSoC5/ADC_Voltage_Target_PM.c **** {
  60              		.loc 1 72 0
  61              		.cfi_startproc
  62              		@ args = 0, pretend = 0, frame = 0
  63              		@ frame_needed = 0, uses_anonymous_args = 0
  64              		@ link register save eliminated.
  73:.\Generated_Source\PSoC5/ADC_Voltage_Target_PM.c ****     ADC_Voltage_Target_DEC_CR_REG = ADC_Voltage_Target_backup.deccr;
  65              		.loc 1 73 0
  66 0000 024B     		ldr	r3, .L7
  67 0002 5A78     		ldrb	r2, [r3, #1]	@ zero_extendqisi2
  68 0004 024B     		ldr	r3, .L7+4
  69 0006 1A70     		strb	r2, [r3, #0]
  74:.\Generated_Source\PSoC5/ADC_Voltage_Target_PM.c **** }
  70              		.loc 1 74 0
  71 0008 7047     		bx	lr
  72              	.L8:
  73 000a 00BF     		.align	2
  74              	.L7:
  75 000c 00000000 		.word	.LANCHOR0
  76 0010 004E0040 		.word	1073761792
  77              		.cfi_endproc
  78              	.LFE1:
  79              		.size	ADC_Voltage_Target_RestoreConfig, .-ADC_Voltage_Target_RestoreConfig
  80              		.section	.text.ADC_Voltage_Target_Wakeup,"ax",%progbits
  81              		.align	1
  82              		.global	ADC_Voltage_Target_Wakeup
  83              		.thumb
  84              		.thumb_func
  85              		.type	ADC_Voltage_Target_Wakeup, %function
  86              	ADC_Voltage_Target_Wakeup:
  87              	.LFB3:
  75:.\Generated_Source\PSoC5/ADC_Voltage_Target_PM.c **** 
  76:.\Generated_Source\PSoC5/ADC_Voltage_Target_PM.c **** 
  77:.\Generated_Source\PSoC5/ADC_Voltage_Target_PM.c **** /******************************************************************************* 
  78:.\Generated_Source\PSoC5/ADC_Voltage_Target_PM.c **** * Function Name: ADC_Voltage_Target_Sleep
  79:.\Generated_Source\PSoC5/ADC_Voltage_Target_PM.c **** ********************************************************************************
  80:.\Generated_Source\PSoC5/ADC_Voltage_Target_PM.c **** *
ARM GAS  C:\DOCUME~1\ADMINI~1\LOCALS~1\Temp\ccBTUq2a.s 			page 4


  81:.\Generated_Source\PSoC5/ADC_Voltage_Target_PM.c **** * Summary:
  82:.\Generated_Source\PSoC5/ADC_Voltage_Target_PM.c **** *  Stops the operation of the block and saves the user configuration. 
  83:.\Generated_Source\PSoC5/ADC_Voltage_Target_PM.c **** *  
  84:.\Generated_Source\PSoC5/ADC_Voltage_Target_PM.c **** * Parameters:  
  85:.\Generated_Source\PSoC5/ADC_Voltage_Target_PM.c **** *  void
  86:.\Generated_Source\PSoC5/ADC_Voltage_Target_PM.c **** *
  87:.\Generated_Source\PSoC5/ADC_Voltage_Target_PM.c **** * Return: 
  88:.\Generated_Source\PSoC5/ADC_Voltage_Target_PM.c **** *  void
  89:.\Generated_Source\PSoC5/ADC_Voltage_Target_PM.c **** *
  90:.\Generated_Source\PSoC5/ADC_Voltage_Target_PM.c **** * Global variables:
  91:.\Generated_Source\PSoC5/ADC_Voltage_Target_PM.c **** *  ADC_Voltage_Target_backup:  The structure field 'enableState' is modified 
  92:.\Generated_Source\PSoC5/ADC_Voltage_Target_PM.c **** *  depending on the enable state of the block before entering to sleep mode.
  93:.\Generated_Source\PSoC5/ADC_Voltage_Target_PM.c **** *
  94:.\Generated_Source\PSoC5/ADC_Voltage_Target_PM.c **** *******************************************************************************/
  95:.\Generated_Source\PSoC5/ADC_Voltage_Target_PM.c **** void ADC_Voltage_Target_Sleep(void) 
  96:.\Generated_Source\PSoC5/ADC_Voltage_Target_PM.c **** {
  97:.\Generated_Source\PSoC5/ADC_Voltage_Target_PM.c ****     /* Save ADC enable state */
  98:.\Generated_Source\PSoC5/ADC_Voltage_Target_PM.c ****     if((ADC_Voltage_Target_ACT_PWR_DEC_EN == (ADC_Voltage_Target_PWRMGR_DEC_REG & ADC_Voltage_Targe
  99:.\Generated_Source\PSoC5/ADC_Voltage_Target_PM.c ****        (ADC_Voltage_Target_ACT_PWR_DSM_EN == (ADC_Voltage_Target_PWRMGR_DSM_REG & ADC_Voltage_Targe
 100:.\Generated_Source\PSoC5/ADC_Voltage_Target_PM.c ****     {
 101:.\Generated_Source\PSoC5/ADC_Voltage_Target_PM.c ****         /* Component is enabled */
 102:.\Generated_Source\PSoC5/ADC_Voltage_Target_PM.c ****         ADC_Voltage_Target_backup.enableState = ADC_Voltage_Target_ENABLED;
 103:.\Generated_Source\PSoC5/ADC_Voltage_Target_PM.c ****     }
 104:.\Generated_Source\PSoC5/ADC_Voltage_Target_PM.c ****     else
 105:.\Generated_Source\PSoC5/ADC_Voltage_Target_PM.c ****     {
 106:.\Generated_Source\PSoC5/ADC_Voltage_Target_PM.c ****         /* Component is disabled */
 107:.\Generated_Source\PSoC5/ADC_Voltage_Target_PM.c ****         ADC_Voltage_Target_backup.enableState = ADC_Voltage_Target_DISABLED;
 108:.\Generated_Source\PSoC5/ADC_Voltage_Target_PM.c ****     }
 109:.\Generated_Source\PSoC5/ADC_Voltage_Target_PM.c **** 
 110:.\Generated_Source\PSoC5/ADC_Voltage_Target_PM.c ****     /* Stop the configuration */
 111:.\Generated_Source\PSoC5/ADC_Voltage_Target_PM.c ****     ADC_Voltage_Target_Stop();
 112:.\Generated_Source\PSoC5/ADC_Voltage_Target_PM.c **** 
 113:.\Generated_Source\PSoC5/ADC_Voltage_Target_PM.c ****     /* Save the user configuration */
 114:.\Generated_Source\PSoC5/ADC_Voltage_Target_PM.c ****     ADC_Voltage_Target_SaveConfig();
 115:.\Generated_Source\PSoC5/ADC_Voltage_Target_PM.c **** }
 116:.\Generated_Source\PSoC5/ADC_Voltage_Target_PM.c **** 
 117:.\Generated_Source\PSoC5/ADC_Voltage_Target_PM.c **** 
 118:.\Generated_Source\PSoC5/ADC_Voltage_Target_PM.c **** /******************************************************************************* 
 119:.\Generated_Source\PSoC5/ADC_Voltage_Target_PM.c **** * Function Name: ADC_Voltage_Target_Wakeup
 120:.\Generated_Source\PSoC5/ADC_Voltage_Target_PM.c **** ********************************************************************************
 121:.\Generated_Source\PSoC5/ADC_Voltage_Target_PM.c **** *
 122:.\Generated_Source\PSoC5/ADC_Voltage_Target_PM.c **** * Summary:
 123:.\Generated_Source\PSoC5/ADC_Voltage_Target_PM.c **** *  Restores the user configuration and enables the power to the block.
 124:.\Generated_Source\PSoC5/ADC_Voltage_Target_PM.c **** *  
 125:.\Generated_Source\PSoC5/ADC_Voltage_Target_PM.c **** * Parameters:  
 126:.\Generated_Source\PSoC5/ADC_Voltage_Target_PM.c **** *  void
 127:.\Generated_Source\PSoC5/ADC_Voltage_Target_PM.c **** *
 128:.\Generated_Source\PSoC5/ADC_Voltage_Target_PM.c **** * Return: 
 129:.\Generated_Source\PSoC5/ADC_Voltage_Target_PM.c **** *  void
 130:.\Generated_Source\PSoC5/ADC_Voltage_Target_PM.c **** *
 131:.\Generated_Source\PSoC5/ADC_Voltage_Target_PM.c **** * Global variables:
 132:.\Generated_Source\PSoC5/ADC_Voltage_Target_PM.c **** *  ADC_Voltage_Target_backup:  The structure field 'enableState' is used to 
 133:.\Generated_Source\PSoC5/ADC_Voltage_Target_PM.c **** *  restore the enable state of block after wakeup from sleep mode.
 134:.\Generated_Source\PSoC5/ADC_Voltage_Target_PM.c **** *
 135:.\Generated_Source\PSoC5/ADC_Voltage_Target_PM.c **** *******************************************************************************/
 136:.\Generated_Source\PSoC5/ADC_Voltage_Target_PM.c **** void ADC_Voltage_Target_Wakeup(void) 
 137:.\Generated_Source\PSoC5/ADC_Voltage_Target_PM.c **** {
ARM GAS  C:\DOCUME~1\ADMINI~1\LOCALS~1\Temp\ccBTUq2a.s 			page 5


  88              		.loc 1 137 0
  89              		.cfi_startproc
  90              		@ args = 0, pretend = 0, frame = 0
  91              		@ frame_needed = 0, uses_anonymous_args = 0
  92 0000 10B5     		push	{r4, lr}
  93              	.LCFI0:
  94              		.cfi_def_cfa_offset 8
 138:.\Generated_Source\PSoC5/ADC_Voltage_Target_PM.c ****     /* Restore the configuration */
 139:.\Generated_Source\PSoC5/ADC_Voltage_Target_PM.c ****     ADC_Voltage_Target_RestoreConfig();
  95              		.loc 1 139 0
  96              		.cfi_offset 14, -4
  97              		.cfi_offset 4, -8
  98 0002 FFF7FEFF 		bl	ADC_Voltage_Target_RestoreConfig
 140:.\Generated_Source\PSoC5/ADC_Voltage_Target_PM.c **** 
 141:.\Generated_Source\PSoC5/ADC_Voltage_Target_PM.c ****     /* Enable's the component operation */
 142:.\Generated_Source\PSoC5/ADC_Voltage_Target_PM.c ****     if(ADC_Voltage_Target_backup.enableState == ADC_Voltage_Target_ENABLED)
  99              		.loc 1 142 0
 100 0006 084B     		ldr	r3, .L13
 101 0008 1B78     		ldrb	r3, [r3, #0]	@ zero_extendqisi2
 102 000a 012B     		cmp	r3, #1
 103 000c 0AD1     		bne	.L11
 143:.\Generated_Source\PSoC5/ADC_Voltage_Target_PM.c ****     {
 144:.\Generated_Source\PSoC5/ADC_Voltage_Target_PM.c ****         ADC_Voltage_Target_Enable();
 104              		.loc 1 144 0
 105 000e FFF7FEFF 		bl	ADC_Voltage_Target_Enable
 145:.\Generated_Source\PSoC5/ADC_Voltage_Target_PM.c **** 
 146:.\Generated_Source\PSoC5/ADC_Voltage_Target_PM.c ****         /* Start the conversion only if conversion is not triggered by the hardware */
 147:.\Generated_Source\PSoC5/ADC_Voltage_Target_PM.c ****         if(!(ADC_Voltage_Target_DEC_CR_REG & ADC_Voltage_Target_DEC_XSTART_EN))
 106              		.loc 1 147 0
 107 0012 064B     		ldr	r3, .L13+4
 108 0014 1B78     		ldrb	r3, [r3, #0]	@ zero_extendqisi2
 109 0016 13F0020F 		tst	r3, #2
 110 001a 03D1     		bne	.L11
 148:.\Generated_Source\PSoC5/ADC_Voltage_Target_PM.c ****         {
 149:.\Generated_Source\PSoC5/ADC_Voltage_Target_PM.c ****             ADC_Voltage_Target_StartConvert();
 150:.\Generated_Source\PSoC5/ADC_Voltage_Target_PM.c ****         }
 151:.\Generated_Source\PSoC5/ADC_Voltage_Target_PM.c **** 
 152:.\Generated_Source\PSoC5/ADC_Voltage_Target_PM.c ****     } /* Do nothing if component was disable before */
 153:.\Generated_Source\PSoC5/ADC_Voltage_Target_PM.c **** }
 111              		.loc 1 153 0
 112 001c BDE81040 		pop	{r4, lr}
 113              		.loc 1 149 0
 114 0020 FFF7FEBF 		b	ADC_Voltage_Target_StartConvert
 115              	.L11:
 116 0024 10BD     		pop	{r4, pc}
 117              	.L14:
 118 0026 00BF     		.align	2
 119              	.L13:
 120 0028 00000000 		.word	.LANCHOR0
 121 002c 004E0040 		.word	1073761792
 122              		.cfi_endproc
 123              	.LFE3:
 124              		.size	ADC_Voltage_Target_Wakeup, .-ADC_Voltage_Target_Wakeup
 125              		.section	.text.ADC_Voltage_Target_Sleep,"ax",%progbits
 126              		.align	1
 127              		.global	ADC_Voltage_Target_Sleep
 128              		.thumb
ARM GAS  C:\DOCUME~1\ADMINI~1\LOCALS~1\Temp\ccBTUq2a.s 			page 6


 129              		.thumb_func
 130              		.type	ADC_Voltage_Target_Sleep, %function
 131              	ADC_Voltage_Target_Sleep:
 132              	.LFB2:
 133              		.loc 1 96 0
 134              		.cfi_startproc
 135              		@ args = 0, pretend = 0, frame = 0
 136              		@ frame_needed = 0, uses_anonymous_args = 0
 137 0000 10B5     		push	{r4, lr}
 138              	.LCFI1:
 139              		.cfi_def_cfa_offset 8
 140              		.loc 1 98 0
 141 0002 0A4B     		ldr	r3, .L20
 142 0004 1A78     		ldrb	r2, [r3, #0]	@ zero_extendqisi2
 143 0006 12F0010F 		tst	r2, #1
 144 000a 05D0     		beq	.L16
 145              		.cfi_offset 14, -4
 146              		.cfi_offset 4, -8
 147              		.loc 1 99 0
 148 000c 1B78     		ldrb	r3, [r3, #0]	@ zero_extendqisi2
 149              		.loc 1 98 0
 150 000e 13F0100F 		tst	r3, #16
 151 0012 01D0     		beq	.L16
 152              		.loc 1 102 0
 153 0014 0122     		movs	r2, #1
 154 0016 00E0     		b	.L19
 155              	.L16:
 156              		.loc 1 107 0
 157 0018 0022     		movs	r2, #0
 158              	.L19:
 159 001a 054B     		ldr	r3, .L20+4
 160 001c 1A70     		strb	r2, [r3, #0]
 161              		.loc 1 111 0
 162 001e FFF7FEFF 		bl	ADC_Voltage_Target_Stop
 163              		.loc 1 115 0
 164 0022 BDE81040 		pop	{r4, lr}
 165              		.loc 1 114 0
 166 0026 FFF7FEBF 		b	ADC_Voltage_Target_SaveConfig
 167              	.L21:
 168 002a 00BF     		.align	2
 169              	.L20:
 170 002c AA430040 		.word	1073759146
 171 0030 00000000 		.word	.LANCHOR0
 172              		.cfi_endproc
 173              	.LFE2:
 174              		.size	ADC_Voltage_Target_Sleep, .-ADC_Voltage_Target_Sleep
 175              		.data
 176              		.align	2
 177              		.set	.LANCHOR0,. + 0
 178              		.type	ADC_Voltage_Target_backup, %object
 179              		.size	ADC_Voltage_Target_backup, 2
 180              	ADC_Voltage_Target_backup:
 181 0000 00       		.byte	0
 182 0001 38       		.byte	56
 183 0002 0000     		.text
 184              	.Letext0: