ARM GAS  C:\DOCUME~1\ADMINI~1\LOCALS~1\Temp\cc291p9N.s 			page 1


   1              		.syntax unified
   2              		.cpu cortex-m3
   3              		.fpu softvfp
   4              		.eabi_attribute 20, 1
   5              		.eabi_attribute 21, 1
   6              		.eabi_attribute 23, 3
   7              		.eabi_attribute 24, 1
   8              		.eabi_attribute 25, 1
   9              		.eabi_attribute 26, 1
  10              		.eabi_attribute 30, 4
  11              		.eabi_attribute 18, 4
  12              		.thumb
  13              		.file	"Clock_I2C.c"
  20 0000 84010000 		.text
  20      02006100 
  20      00000201 
  20      FB0E0D00 
  20      01010101 
  21              	.Ltext0:
  22              		.cfi_sections	.debug_frame
  23              		.section	.text.Clock_I2C_Start,"ax",%progbits
  24              		.align	1
  25              		.global	Clock_I2C_Start
  26              		.thumb
  27              		.thumb_func
  28              		.type	Clock_I2C_Start, %function
  29              	Clock_I2C_Start:
  30              	.LFB0:
  31              		.file 1 ".\\Generated_Source\\PSoC5\\Clock_I2C.c"
   1:.\Generated_Source\PSoC5/Clock_I2C.c **** /*******************************************************************************
   2:.\Generated_Source\PSoC5/Clock_I2C.c **** * File Name: Clock_I2C.c
   3:.\Generated_Source\PSoC5/Clock_I2C.c **** * Version 2.0
   4:.\Generated_Source\PSoC5/Clock_I2C.c **** *
   5:.\Generated_Source\PSoC5/Clock_I2C.c **** *  Description:
   6:.\Generated_Source\PSoC5/Clock_I2C.c **** *   This file provides the source code to the API for the clock component.
   7:.\Generated_Source\PSoC5/Clock_I2C.c **** *
   8:.\Generated_Source\PSoC5/Clock_I2C.c **** *  Note:
   9:.\Generated_Source\PSoC5/Clock_I2C.c **** *
  10:.\Generated_Source\PSoC5/Clock_I2C.c **** ********************************************************************************
  11:.\Generated_Source\PSoC5/Clock_I2C.c **** * Copyright 2008-2012, Cypress Semiconductor Corporation.  All rights reserved.
  12:.\Generated_Source\PSoC5/Clock_I2C.c **** * You may use this file only in accordance with the license, terms, conditions, 
  13:.\Generated_Source\PSoC5/Clock_I2C.c **** * disclaimers, and limitations in the end user license agreement accompanying 
  14:.\Generated_Source\PSoC5/Clock_I2C.c **** * the software package with which this file was provided.
  15:.\Generated_Source\PSoC5/Clock_I2C.c **** *******************************************************************************/
  16:.\Generated_Source\PSoC5/Clock_I2C.c **** 
  17:.\Generated_Source\PSoC5/Clock_I2C.c **** #include <cydevice_trm.h>
  18:.\Generated_Source\PSoC5/Clock_I2C.c **** #include "Clock_I2C.h"
  19:.\Generated_Source\PSoC5/Clock_I2C.c **** 
  20:.\Generated_Source\PSoC5/Clock_I2C.c **** /* Clock Distribution registers. */
  21:.\Generated_Source\PSoC5/Clock_I2C.c **** #define CLK_DIST_LD              (* (reg8 *) CYREG_CLKDIST_LD)
  22:.\Generated_Source\PSoC5/Clock_I2C.c **** #define CLK_DIST_BCFG2           (* (reg8 *) CYREG_CLKDIST_BCFG2)
ARM GAS  C:\DOCUME~1\ADMINI~1\LOCALS~1\Temp\cc291p9N.s 			page 2


  23:.\Generated_Source\PSoC5/Clock_I2C.c **** #define BCFG2_MASK               (0x80u)
  24:.\Generated_Source\PSoC5/Clock_I2C.c **** #define CLK_DIST_DMASK           (* (reg8 *) CYREG_CLKDIST_DMASK)
  25:.\Generated_Source\PSoC5/Clock_I2C.c **** #define CLK_DIST_AMASK           (* (reg8 *) CYREG_CLKDIST_AMASK)
  26:.\Generated_Source\PSoC5/Clock_I2C.c **** 
  27:.\Generated_Source\PSoC5/Clock_I2C.c **** #define HAS_CLKDIST_LD_DISABLE   (CY_PSOC3 || CY_PSOC5LP)
  28:.\Generated_Source\PSoC5/Clock_I2C.c **** 
  29:.\Generated_Source\PSoC5/Clock_I2C.c **** 
  30:.\Generated_Source\PSoC5/Clock_I2C.c **** /*******************************************************************************
  31:.\Generated_Source\PSoC5/Clock_I2C.c **** * Function Name: Clock_I2C_Start
  32:.\Generated_Source\PSoC5/Clock_I2C.c **** ********************************************************************************
  33:.\Generated_Source\PSoC5/Clock_I2C.c **** *
  34:.\Generated_Source\PSoC5/Clock_I2C.c **** * Summary:
  35:.\Generated_Source\PSoC5/Clock_I2C.c **** *  Starts the clock. Note that on startup, clocks may be already running if the
  36:.\Generated_Source\PSoC5/Clock_I2C.c **** *  "Start on Reset" option is enabled in the DWR.
  37:.\Generated_Source\PSoC5/Clock_I2C.c **** *
  38:.\Generated_Source\PSoC5/Clock_I2C.c **** * Parameters:
  39:.\Generated_Source\PSoC5/Clock_I2C.c **** *  None
  40:.\Generated_Source\PSoC5/Clock_I2C.c **** *
  41:.\Generated_Source\PSoC5/Clock_I2C.c **** * Returns:
  42:.\Generated_Source\PSoC5/Clock_I2C.c **** *  None
  43:.\Generated_Source\PSoC5/Clock_I2C.c **** *
  44:.\Generated_Source\PSoC5/Clock_I2C.c **** *******************************************************************************/
  45:.\Generated_Source\PSoC5/Clock_I2C.c **** void Clock_I2C_Start(void) 
  46:.\Generated_Source\PSoC5/Clock_I2C.c **** {
  32              		.loc 1 46 0
  33              		.cfi_startproc
  34              		@ args = 0, pretend = 0, frame = 0
  35              		@ frame_needed = 0, uses_anonymous_args = 0
  36              		@ link register save eliminated.
  47:.\Generated_Source\PSoC5/Clock_I2C.c ****     /* Set the bit to enable the clock. */
  48:.\Generated_Source\PSoC5/Clock_I2C.c ****     Clock_I2C_CLKEN |= Clock_I2C_CLKEN_MASK;
  37              		.loc 1 48 0
  38 0000 054B     		ldr	r3, .L3
  39 0002 1A78     		ldrb	r2, [r3, #0]	@ zero_extendqisi2
  40 0004 42F00102 		orr	r2, r2, #1
  41 0008 1A70     		strb	r2, [r3, #0]
  49:.\Generated_Source\PSoC5/Clock_I2C.c **** 	Clock_I2C_CLKSTBY |= Clock_I2C_CLKSTBY_MASK;
  42              		.loc 1 49 0
  43 000a 1033     		adds	r3, r3, #16
  44 000c 1A78     		ldrb	r2, [r3, #0]	@ zero_extendqisi2
  45 000e 42F00102 		orr	r2, r2, #1
  46 0012 1A70     		strb	r2, [r3, #0]
  50:.\Generated_Source\PSoC5/Clock_I2C.c **** }
  47              		.loc 1 50 0
  48 0014 7047     		bx	lr
  49              	.L4:
  50 0016 00BF     		.align	2
  51              	.L3:
  52 0018 A2430040 		.word	1073759138
  53              		.cfi_endproc
  54              	.LFE0:
  55              		.size	Clock_I2C_Start, .-Clock_I2C_Start
  56              		.section	.text.Clock_I2C_Stop,"ax",%progbits
  57              		.align	1
  58              		.global	Clock_I2C_Stop
  59              		.thumb
  60              		.thumb_func
ARM GAS  C:\DOCUME~1\ADMINI~1\LOCALS~1\Temp\cc291p9N.s 			page 3


  61              		.type	Clock_I2C_Stop, %function
  62              	Clock_I2C_Stop:
  63              	.LFB1:
  51:.\Generated_Source\PSoC5/Clock_I2C.c **** 
  52:.\Generated_Source\PSoC5/Clock_I2C.c **** 
  53:.\Generated_Source\PSoC5/Clock_I2C.c **** /*******************************************************************************
  54:.\Generated_Source\PSoC5/Clock_I2C.c **** * Function Name: Clock_I2C_Stop
  55:.\Generated_Source\PSoC5/Clock_I2C.c **** ********************************************************************************
  56:.\Generated_Source\PSoC5/Clock_I2C.c **** *
  57:.\Generated_Source\PSoC5/Clock_I2C.c **** * Summary:
  58:.\Generated_Source\PSoC5/Clock_I2C.c **** *  Stops the clock and returns immediately. This API does not require the
  59:.\Generated_Source\PSoC5/Clock_I2C.c **** *  source clock to be running but may return before the hardware is actually
  60:.\Generated_Source\PSoC5/Clock_I2C.c **** *  disabled. If the settings of the clock are changed after calling this
  61:.\Generated_Source\PSoC5/Clock_I2C.c **** *  function, the clock may glitch when it is started. To avoid the clock
  62:.\Generated_Source\PSoC5/Clock_I2C.c **** *  glitch, use the StopBlock function.
  63:.\Generated_Source\PSoC5/Clock_I2C.c **** *
  64:.\Generated_Source\PSoC5/Clock_I2C.c **** * Parameters:
  65:.\Generated_Source\PSoC5/Clock_I2C.c **** *  None
  66:.\Generated_Source\PSoC5/Clock_I2C.c **** *
  67:.\Generated_Source\PSoC5/Clock_I2C.c **** * Returns:
  68:.\Generated_Source\PSoC5/Clock_I2C.c **** *  None
  69:.\Generated_Source\PSoC5/Clock_I2C.c **** *
  70:.\Generated_Source\PSoC5/Clock_I2C.c **** *******************************************************************************/
  71:.\Generated_Source\PSoC5/Clock_I2C.c **** void Clock_I2C_Stop(void) 
  72:.\Generated_Source\PSoC5/Clock_I2C.c **** {
  64              		.loc 1 72 0
  65              		.cfi_startproc
  66              		@ args = 0, pretend = 0, frame = 0
  67              		@ frame_needed = 0, uses_anonymous_args = 0
  68              		@ link register save eliminated.
  73:.\Generated_Source\PSoC5/Clock_I2C.c ****     /* Clear the bit to disable the clock. */
  74:.\Generated_Source\PSoC5/Clock_I2C.c ****     Clock_I2C_CLKEN &= (uint8)(~Clock_I2C_CLKEN_MASK);
  69              		.loc 1 74 0
  70 0000 054B     		ldr	r3, .L7
  71 0002 1A78     		ldrb	r2, [r3, #0]	@ zero_extendqisi2
  72 0004 02F0FE02 		and	r2, r2, #254
  73 0008 1A70     		strb	r2, [r3, #0]
  75:.\Generated_Source\PSoC5/Clock_I2C.c **** 	Clock_I2C_CLKSTBY &= (uint8)(~Clock_I2C_CLKSTBY_MASK);
  74              		.loc 1 75 0
  75 000a 1033     		adds	r3, r3, #16
  76 000c 1A78     		ldrb	r2, [r3, #0]	@ zero_extendqisi2
  77 000e 02F0FE02 		and	r2, r2, #254
  78 0012 1A70     		strb	r2, [r3, #0]
  76:.\Generated_Source\PSoC5/Clock_I2C.c **** }
  79              		.loc 1 76 0
  80 0014 7047     		bx	lr
  81              	.L8:
  82 0016 00BF     		.align	2
  83              	.L7:
  84 0018 A2430040 		.word	1073759138
  85              		.cfi_endproc
  86              	.LFE1:
  87              		.size	Clock_I2C_Stop, .-Clock_I2C_Stop
  88              		.section	.text.Clock_I2C_StopBlock,"ax",%progbits
  89              		.align	1
  90              		.global	Clock_I2C_StopBlock
  91              		.thumb
ARM GAS  C:\DOCUME~1\ADMINI~1\LOCALS~1\Temp\cc291p9N.s 			page 4


  92              		.thumb_func
  93              		.type	Clock_I2C_StopBlock, %function
  94              	Clock_I2C_StopBlock:
  95              	.LFB2:
  77:.\Generated_Source\PSoC5/Clock_I2C.c **** 
  78:.\Generated_Source\PSoC5/Clock_I2C.c **** 
  79:.\Generated_Source\PSoC5/Clock_I2C.c **** #if(CY_PSOC3 || CY_PSOC5LP)
  80:.\Generated_Source\PSoC5/Clock_I2C.c **** 
  81:.\Generated_Source\PSoC5/Clock_I2C.c **** 
  82:.\Generated_Source\PSoC5/Clock_I2C.c **** /*******************************************************************************
  83:.\Generated_Source\PSoC5/Clock_I2C.c **** * Function Name: Clock_I2C_StopBlock
  84:.\Generated_Source\PSoC5/Clock_I2C.c **** ********************************************************************************
  85:.\Generated_Source\PSoC5/Clock_I2C.c **** *
  86:.\Generated_Source\PSoC5/Clock_I2C.c **** * Summary:
  87:.\Generated_Source\PSoC5/Clock_I2C.c **** *  Stops the clock and waits for the hardware to actually be disabled before
  88:.\Generated_Source\PSoC5/Clock_I2C.c **** *  returning. This ensures that the clock is never truncated (high part of the
  89:.\Generated_Source\PSoC5/Clock_I2C.c **** *  cycle will terminate before the clock is disabled and the API returns).
  90:.\Generated_Source\PSoC5/Clock_I2C.c **** *  Note that the source clock must be running or this API will never return as
  91:.\Generated_Source\PSoC5/Clock_I2C.c **** *  a stopped clock cannot be disabled.
  92:.\Generated_Source\PSoC5/Clock_I2C.c **** *
  93:.\Generated_Source\PSoC5/Clock_I2C.c **** * Parameters:
  94:.\Generated_Source\PSoC5/Clock_I2C.c **** *  None
  95:.\Generated_Source\PSoC5/Clock_I2C.c **** *
  96:.\Generated_Source\PSoC5/Clock_I2C.c **** * Returns:
  97:.\Generated_Source\PSoC5/Clock_I2C.c **** *  None
  98:.\Generated_Source\PSoC5/Clock_I2C.c **** *
  99:.\Generated_Source\PSoC5/Clock_I2C.c **** *******************************************************************************/
 100:.\Generated_Source\PSoC5/Clock_I2C.c **** void Clock_I2C_StopBlock(void) 
 101:.\Generated_Source\PSoC5/Clock_I2C.c **** {
  96              		.loc 1 101 0
  97              		.cfi_startproc
  98              		@ args = 0, pretend = 0, frame = 0
  99              		@ frame_needed = 0, uses_anonymous_args = 0
 100              		@ link register save eliminated.
 102:.\Generated_Source\PSoC5/Clock_I2C.c ****     if ((Clock_I2C_CLKEN & Clock_I2C_CLKEN_MASK) != 0u)
 101              		.loc 1 102 0
 102 0000 174B     		ldr	r3, .L14
 103 0002 1B78     		ldrb	r3, [r3, #0]	@ zero_extendqisi2
 104 0004 13F0010F 		tst	r3, #1
 105 0008 29D0     		beq	.L12
 106              	.LBB6:
 103:.\Generated_Source\PSoC5/Clock_I2C.c ****     {
 104:.\Generated_Source\PSoC5/Clock_I2C.c **** #if HAS_CLKDIST_LD_DISABLE
 105:.\Generated_Source\PSoC5/Clock_I2C.c ****         uint16 oldDivider;
 106:.\Generated_Source\PSoC5/Clock_I2C.c **** 
 107:.\Generated_Source\PSoC5/Clock_I2C.c ****         CLK_DIST_LD = 0u;
 107              		.loc 1 107 0
 108 000a 164A     		ldr	r2, .L14+4
 108:.\Generated_Source\PSoC5/Clock_I2C.c **** 
 109:.\Generated_Source\PSoC5/Clock_I2C.c ****         /* Clear all the mask bits except ours. */
 110:.\Generated_Source\PSoC5/Clock_I2C.c **** #if defined(Clock_I2C__CFG3)
 111:.\Generated_Source\PSoC5/Clock_I2C.c ****         CLK_DIST_AMASK = Clock_I2C_CLKEN_MASK;
 112:.\Generated_Source\PSoC5/Clock_I2C.c ****         CLK_DIST_DMASK = 0x00u;
 113:.\Generated_Source\PSoC5/Clock_I2C.c **** #else
 114:.\Generated_Source\PSoC5/Clock_I2C.c ****         CLK_DIST_DMASK = Clock_I2C_CLKEN_MASK;
 109              		.loc 1 114 0
 110 000c 1649     		ldr	r1, .L14+8
ARM GAS  C:\DOCUME~1\ADMINI~1\LOCALS~1\Temp\cc291p9N.s 			page 5


 111              		.loc 1 107 0
 112 000e 0023     		movs	r3, #0
 113              		.loc 1 114 0
 114 0010 0120     		movs	r0, #1
 115              		.loc 1 107 0
 116 0012 1370     		strb	r3, [r2, #0]
 117              		.loc 1 114 0
 118 0014 0870     		strb	r0, [r1, #0]
 115:.\Generated_Source\PSoC5/Clock_I2C.c ****         CLK_DIST_AMASK = 0x00u;
 119              		.loc 1 115 0
 120 0016 0431     		adds	r1, r1, #4
 121 0018 0B70     		strb	r3, [r1, #0]
 116:.\Generated_Source\PSoC5/Clock_I2C.c **** #endif /* Clock_I2C__CFG3 */
 117:.\Generated_Source\PSoC5/Clock_I2C.c **** 
 118:.\Generated_Source\PSoC5/Clock_I2C.c ****         /* Clear mask of bus clock. */
 119:.\Generated_Source\PSoC5/Clock_I2C.c ****         CLK_DIST_BCFG2 &= (uint8)(~BCFG2_MASK);
 122              		.loc 1 119 0
 123 001a 144B     		ldr	r3, .L14+12
 124 001c 1978     		ldrb	r1, [r3, #0]	@ zero_extendqisi2
 125 001e 01F07F01 		and	r1, r1, #127
 126 0022 1970     		strb	r1, [r3, #0]
 120:.\Generated_Source\PSoC5/Clock_I2C.c **** 
 121:.\Generated_Source\PSoC5/Clock_I2C.c ****         oldDivider = CY_GET_REG16(Clock_I2C_DIV_PTR);
 127              		.loc 1 121 0
 128 0024 7833     		adds	r3, r3, #120
 129 0026 1B88     		ldrh	r3, [r3, #0]
 122:.\Generated_Source\PSoC5/Clock_I2C.c ****         CY_SET_REG16(CYREG_CLKDIST_WRK0, oldDivider);
 130              		.loc 1 122 0
 131 0028 1149     		ldr	r1, .L14+16
 132              		.loc 1 121 0
 133 002a 9BB2     		uxth	r3, r3
 134              	.LVL0:
 135              		.loc 1 122 0
 136 002c 0B80     		strh	r3, [r1, #0]	@ movhi
 123:.\Generated_Source\PSoC5/Clock_I2C.c ****         CLK_DIST_LD = CYCLK_LD_DISABLE | CYCLK_LD_SYNC_EN | CYCLK_LD_LOAD;
 137              		.loc 1 123 0
 138 002e 0721     		movs	r1, #7
 139 0030 1170     		strb	r1, [r2, #0]
 140              	.L11:
 124:.\Generated_Source\PSoC5/Clock_I2C.c **** 
 125:.\Generated_Source\PSoC5/Clock_I2C.c ****         /* Wait for clock to be disabled */
 126:.\Generated_Source\PSoC5/Clock_I2C.c ****         while ((CLK_DIST_LD & CYCLK_LD_LOAD) != 0u) { }
 141              		.loc 1 126 0
 142 0032 0C4A     		ldr	r2, .L14+4
 143 0034 1178     		ldrb	r1, [r2, #0]	@ zero_extendqisi2
 144 0036 11F00100 		ands	r0, r1, #1
 145 003a FAD1     		bne	.L11
 127:.\Generated_Source\PSoC5/Clock_I2C.c **** #endif /* HAS_CLKDIST_LD_DISABLE */
 128:.\Generated_Source\PSoC5/Clock_I2C.c **** 
 129:.\Generated_Source\PSoC5/Clock_I2C.c ****         /* Clear the bit to disable the clock. */
 130:.\Generated_Source\PSoC5/Clock_I2C.c ****         Clock_I2C_CLKEN &= (uint8)(~Clock_I2C_CLKEN_MASK);
 146              		.loc 1 130 0
 147 003c 0849     		ldr	r1, .L14
 148 003e 91F800C0 		ldrb	ip, [r1, #0]	@ zero_extendqisi2
 149 0042 0CF0FE0C 		and	ip, ip, #254
 150 0046 81F800C0 		strb	ip, [r1, #0]
 131:.\Generated_Source\PSoC5/Clock_I2C.c ****         Clock_I2C_CLKSTBY &= (uint8)(~Clock_I2C_CLKSTBY_MASK);
ARM GAS  C:\DOCUME~1\ADMINI~1\LOCALS~1\Temp\cc291p9N.s 			page 6


 151              		.loc 1 131 0
 152 004a 1031     		adds	r1, r1, #16
 153 004c 91F800C0 		ldrb	ip, [r1, #0]	@ zero_extendqisi2
 154 0050 0CF0FE0C 		and	ip, ip, #254
 155 0054 81F800C0 		strb	ip, [r1, #0]
 132:.\Generated_Source\PSoC5/Clock_I2C.c **** 
 133:.\Generated_Source\PSoC5/Clock_I2C.c **** #if HAS_CLKDIST_LD_DISABLE
 134:.\Generated_Source\PSoC5/Clock_I2C.c ****         /* Clear the disable bit */
 135:.\Generated_Source\PSoC5/Clock_I2C.c ****         CLK_DIST_LD = 0x00u;
 156              		.loc 1 135 0
 157 0058 1070     		strb	r0, [r2, #0]
 136:.\Generated_Source\PSoC5/Clock_I2C.c ****         CY_SET_REG16(Clock_I2C_DIV_PTR, oldDivider);
 158              		.loc 1 136 0
 159 005a 7F32     		adds	r2, r2, #127
 160 005c 1380     		strh	r3, [r2, #0]	@ movhi
 161              	.L12:
 162 005e 7047     		bx	lr
 163              	.L15:
 164              		.align	2
 165              	.L14:
 166 0060 A2430040 		.word	1073759138
 167 0064 01400040 		.word	1073758209
 168 0068 10400040 		.word	1073758224
 169 006c 08400040 		.word	1073758216
 170 0070 02400040 		.word	1073758210
 171              	.LBE6:
 172              		.cfi_endproc
 173              	.LFE2:
 174              		.size	Clock_I2C_StopBlock, .-Clock_I2C_StopBlock
 175              		.section	.text.Clock_I2C_StandbyPower,"ax",%progbits
 176              		.align	1
 177              		.global	Clock_I2C_StandbyPower
 178              		.thumb
 179              		.thumb_func
 180              		.type	Clock_I2C_StandbyPower, %function
 181              	Clock_I2C_StandbyPower:
 182              	.LFB3:
 137:.\Generated_Source\PSoC5/Clock_I2C.c **** #endif /* HAS_CLKDIST_LD_DISABLE */
 138:.\Generated_Source\PSoC5/Clock_I2C.c ****     }
 139:.\Generated_Source\PSoC5/Clock_I2C.c **** }
 140:.\Generated_Source\PSoC5/Clock_I2C.c **** #endif /* (CY_PSOC3 || CY_PSOC5LP) */
 141:.\Generated_Source\PSoC5/Clock_I2C.c **** 
 142:.\Generated_Source\PSoC5/Clock_I2C.c **** 
 143:.\Generated_Source\PSoC5/Clock_I2C.c **** /*******************************************************************************
 144:.\Generated_Source\PSoC5/Clock_I2C.c **** * Function Name: Clock_I2C_StandbyPower
 145:.\Generated_Source\PSoC5/Clock_I2C.c **** ********************************************************************************
 146:.\Generated_Source\PSoC5/Clock_I2C.c **** *
 147:.\Generated_Source\PSoC5/Clock_I2C.c **** * Summary:
 148:.\Generated_Source\PSoC5/Clock_I2C.c **** *  Sets whether the clock is active in standby mode.
 149:.\Generated_Source\PSoC5/Clock_I2C.c **** *
 150:.\Generated_Source\PSoC5/Clock_I2C.c **** * Parameters:
 151:.\Generated_Source\PSoC5/Clock_I2C.c **** *  state:  0 to disable clock during standby, nonzero to enable.
 152:.\Generated_Source\PSoC5/Clock_I2C.c **** *
 153:.\Generated_Source\PSoC5/Clock_I2C.c **** * Returns:
 154:.\Generated_Source\PSoC5/Clock_I2C.c **** *  None
 155:.\Generated_Source\PSoC5/Clock_I2C.c **** *
 156:.\Generated_Source\PSoC5/Clock_I2C.c **** *******************************************************************************/
ARM GAS  C:\DOCUME~1\ADMINI~1\LOCALS~1\Temp\cc291p9N.s 			page 7


 157:.\Generated_Source\PSoC5/Clock_I2C.c **** void Clock_I2C_StandbyPower(uint8 state) 
 158:.\Generated_Source\PSoC5/Clock_I2C.c **** {
 183              		.loc 1 158 0
 184              		.cfi_startproc
 185              		@ args = 0, pretend = 0, frame = 0
 186              		@ frame_needed = 0, uses_anonymous_args = 0
 187              		@ link register save eliminated.
 188              	.LVL1:
 159:.\Generated_Source\PSoC5/Clock_I2C.c ****     if(state == 0u)
 189              		.loc 1 159 0
 190 0000 20B9     		cbnz	r0, .L17
 160:.\Generated_Source\PSoC5/Clock_I2C.c ****     {
 161:.\Generated_Source\PSoC5/Clock_I2C.c ****         Clock_I2C_CLKSTBY &= (uint8)(~Clock_I2C_CLKSTBY_MASK);
 191              		.loc 1 161 0
 192 0002 054B     		ldr	r3, .L21
 193 0004 1A78     		ldrb	r2, [r3, #0]	@ zero_extendqisi2
 194 0006 02F0FE02 		and	r2, r2, #254
 195 000a 03E0     		b	.L20
 196              	.L17:
 162:.\Generated_Source\PSoC5/Clock_I2C.c ****     }
 163:.\Generated_Source\PSoC5/Clock_I2C.c ****     else
 164:.\Generated_Source\PSoC5/Clock_I2C.c ****     {
 165:.\Generated_Source\PSoC5/Clock_I2C.c ****         Clock_I2C_CLKSTBY |= Clock_I2C_CLKSTBY_MASK;
 197              		.loc 1 165 0
 198 000c 024B     		ldr	r3, .L21
 199 000e 1A78     		ldrb	r2, [r3, #0]	@ zero_extendqisi2
 200 0010 42F00102 		orr	r2, r2, #1
 201              	.L20:
 202 0014 1A70     		strb	r2, [r3, #0]
 203 0016 7047     		bx	lr
 204              	.L22:
 205              		.align	2
 206              	.L21:
 207 0018 B2430040 		.word	1073759154
 208              		.cfi_endproc
 209              	.LFE3:
 210              		.size	Clock_I2C_StandbyPower, .-Clock_I2C_StandbyPower
 211              		.section	.text.Clock_I2C_GetDividerRegister,"ax",%progbits
 212              		.align	1
 213              		.global	Clock_I2C_GetDividerRegister
 214              		.thumb
 215              		.thumb_func
 216              		.type	Clock_I2C_GetDividerRegister, %function
 217              	Clock_I2C_GetDividerRegister:
 218              	.LFB5:
 166:.\Generated_Source\PSoC5/Clock_I2C.c ****     }
 167:.\Generated_Source\PSoC5/Clock_I2C.c **** }
 168:.\Generated_Source\PSoC5/Clock_I2C.c **** 
 169:.\Generated_Source\PSoC5/Clock_I2C.c **** 
 170:.\Generated_Source\PSoC5/Clock_I2C.c **** /*******************************************************************************
 171:.\Generated_Source\PSoC5/Clock_I2C.c **** * Function Name: Clock_I2C_SetDividerRegister
 172:.\Generated_Source\PSoC5/Clock_I2C.c **** ********************************************************************************
 173:.\Generated_Source\PSoC5/Clock_I2C.c **** *
 174:.\Generated_Source\PSoC5/Clock_I2C.c **** * Summary:
 175:.\Generated_Source\PSoC5/Clock_I2C.c **** *  Modifies the clock divider and, thus, the frequency. When the clock divider
 176:.\Generated_Source\PSoC5/Clock_I2C.c **** *  register is set to zero or changed from zero, the clock will be temporarily
 177:.\Generated_Source\PSoC5/Clock_I2C.c **** *  disabled in order to change the SSS mode bit. If the clock is enabled when
ARM GAS  C:\DOCUME~1\ADMINI~1\LOCALS~1\Temp\cc291p9N.s 			page 8


 178:.\Generated_Source\PSoC5/Clock_I2C.c **** *  SetDividerRegister is called, then the source clock must be running.
 179:.\Generated_Source\PSoC5/Clock_I2C.c **** *
 180:.\Generated_Source\PSoC5/Clock_I2C.c **** * Parameters:
 181:.\Generated_Source\PSoC5/Clock_I2C.c **** *  clkDivider:  Divider register value (0-65,535). This value is NOT the
 182:.\Generated_Source\PSoC5/Clock_I2C.c **** *    divider; the clock hardware divides by clkDivider plus one. For example,
 183:.\Generated_Source\PSoC5/Clock_I2C.c **** *    to divide the clock by 2, this parameter should be set to 1.
 184:.\Generated_Source\PSoC5/Clock_I2C.c **** *  restart:  If nonzero, restarts the clock divider: the current clock cycle
 185:.\Generated_Source\PSoC5/Clock_I2C.c **** *   will be truncated and the new divide value will take effect immediately. If
 186:.\Generated_Source\PSoC5/Clock_I2C.c **** *   zero, the new divide value will take effect at the end of the current clock
 187:.\Generated_Source\PSoC5/Clock_I2C.c **** *   cycle.
 188:.\Generated_Source\PSoC5/Clock_I2C.c **** *
 189:.\Generated_Source\PSoC5/Clock_I2C.c **** * Returns:
 190:.\Generated_Source\PSoC5/Clock_I2C.c **** *  None
 191:.\Generated_Source\PSoC5/Clock_I2C.c **** *
 192:.\Generated_Source\PSoC5/Clock_I2C.c **** *******************************************************************************/
 193:.\Generated_Source\PSoC5/Clock_I2C.c **** void Clock_I2C_SetDividerRegister(uint16 clkDivider, uint8 restart)
 194:.\Generated_Source\PSoC5/Clock_I2C.c ****                                 
 195:.\Generated_Source\PSoC5/Clock_I2C.c **** {
 196:.\Generated_Source\PSoC5/Clock_I2C.c ****     uint8 enabled;
 197:.\Generated_Source\PSoC5/Clock_I2C.c **** 
 198:.\Generated_Source\PSoC5/Clock_I2C.c ****     uint8 currSrc = Clock_I2C_GetSourceRegister();
 199:.\Generated_Source\PSoC5/Clock_I2C.c ****     uint16 oldDivider = Clock_I2C_GetDividerRegister();
 200:.\Generated_Source\PSoC5/Clock_I2C.c **** 
 201:.\Generated_Source\PSoC5/Clock_I2C.c ****     if (clkDivider != oldDivider)
 202:.\Generated_Source\PSoC5/Clock_I2C.c ****     {
 203:.\Generated_Source\PSoC5/Clock_I2C.c ****         enabled = Clock_I2C_CLKEN & Clock_I2C_CLKEN_MASK;
 204:.\Generated_Source\PSoC5/Clock_I2C.c **** 
 205:.\Generated_Source\PSoC5/Clock_I2C.c ****         if ((currSrc == (uint8)CYCLK_SRC_SEL_CLK_SYNC_D) && ((oldDivider == 0u) || (clkDivider == 0
 206:.\Generated_Source\PSoC5/Clock_I2C.c ****         {
 207:.\Generated_Source\PSoC5/Clock_I2C.c ****             /* Moving to/from SSS requires correct ordering to prevent halting the clock    */
 208:.\Generated_Source\PSoC5/Clock_I2C.c ****             if (oldDivider == 0u)
 209:.\Generated_Source\PSoC5/Clock_I2C.c ****             {
 210:.\Generated_Source\PSoC5/Clock_I2C.c ****                 /* Moving away from SSS, set the divider first so when SSS is cleared we    */
 211:.\Generated_Source\PSoC5/Clock_I2C.c ****                 /* don't halt the clock.  Using the shadow load isn't required as the       */
 212:.\Generated_Source\PSoC5/Clock_I2C.c ****                 /* divider is ignored while SSS is set.                                     */
 213:.\Generated_Source\PSoC5/Clock_I2C.c ****                 CY_SET_REG16(Clock_I2C_DIV_PTR, clkDivider);
 214:.\Generated_Source\PSoC5/Clock_I2C.c ****                 Clock_I2C_MOD_SRC &= (uint8)(~CYCLK_SSS);
 215:.\Generated_Source\PSoC5/Clock_I2C.c ****             }
 216:.\Generated_Source\PSoC5/Clock_I2C.c ****             else
 217:.\Generated_Source\PSoC5/Clock_I2C.c ****             {
 218:.\Generated_Source\PSoC5/Clock_I2C.c ****                 /* Moving to SSS, set SSS which then ignores the divider and we can set     */
 219:.\Generated_Source\PSoC5/Clock_I2C.c ****                 /* it without bothering with the shadow load.                               */
 220:.\Generated_Source\PSoC5/Clock_I2C.c ****                 Clock_I2C_MOD_SRC |= CYCLK_SSS;
 221:.\Generated_Source\PSoC5/Clock_I2C.c ****                 CY_SET_REG16(Clock_I2C_DIV_PTR, clkDivider);
 222:.\Generated_Source\PSoC5/Clock_I2C.c ****             }
 223:.\Generated_Source\PSoC5/Clock_I2C.c ****         }
 224:.\Generated_Source\PSoC5/Clock_I2C.c ****         else
 225:.\Generated_Source\PSoC5/Clock_I2C.c ****         {
 226:.\Generated_Source\PSoC5/Clock_I2C.c **** 			
 227:.\Generated_Source\PSoC5/Clock_I2C.c ****             if (enabled != 0u)
 228:.\Generated_Source\PSoC5/Clock_I2C.c ****             {
 229:.\Generated_Source\PSoC5/Clock_I2C.c ****                 CLK_DIST_LD = 0x00u;
 230:.\Generated_Source\PSoC5/Clock_I2C.c **** 
 231:.\Generated_Source\PSoC5/Clock_I2C.c ****                 /* Clear all the mask bits except ours. */
 232:.\Generated_Source\PSoC5/Clock_I2C.c **** #if defined(Clock_I2C__CFG3)
 233:.\Generated_Source\PSoC5/Clock_I2C.c ****                 CLK_DIST_AMASK = Clock_I2C_CLKEN_MASK;
 234:.\Generated_Source\PSoC5/Clock_I2C.c ****                 CLK_DIST_DMASK = 0x00u;
ARM GAS  C:\DOCUME~1\ADMINI~1\LOCALS~1\Temp\cc291p9N.s 			page 9


 235:.\Generated_Source\PSoC5/Clock_I2C.c **** #else
 236:.\Generated_Source\PSoC5/Clock_I2C.c ****                 CLK_DIST_DMASK = Clock_I2C_CLKEN_MASK;
 237:.\Generated_Source\PSoC5/Clock_I2C.c ****                 CLK_DIST_AMASK = 0x00u;
 238:.\Generated_Source\PSoC5/Clock_I2C.c **** #endif /* Clock_I2C__CFG3 */
 239:.\Generated_Source\PSoC5/Clock_I2C.c ****                 /* Clear mask of bus clock. */
 240:.\Generated_Source\PSoC5/Clock_I2C.c ****                 CLK_DIST_BCFG2 &= (uint8)(~BCFG2_MASK);
 241:.\Generated_Source\PSoC5/Clock_I2C.c **** 
 242:.\Generated_Source\PSoC5/Clock_I2C.c ****                 /* If clock is currently enabled, disable it if async or going from N-to-1*/
 243:.\Generated_Source\PSoC5/Clock_I2C.c ****                 if (((Clock_I2C_MOD_SRC & CYCLK_SYNC) == 0u) || (clkDivider == 0u))
 244:.\Generated_Source\PSoC5/Clock_I2C.c ****                 {
 245:.\Generated_Source\PSoC5/Clock_I2C.c **** #if HAS_CLKDIST_LD_DISABLE
 246:.\Generated_Source\PSoC5/Clock_I2C.c ****                     CY_SET_REG16(CYREG_CLKDIST_WRK0, oldDivider);
 247:.\Generated_Source\PSoC5/Clock_I2C.c ****                     CLK_DIST_LD = CYCLK_LD_DISABLE|CYCLK_LD_SYNC_EN|CYCLK_LD_LOAD;
 248:.\Generated_Source\PSoC5/Clock_I2C.c **** 
 249:.\Generated_Source\PSoC5/Clock_I2C.c ****                     /* Wait for clock to be disabled */
 250:.\Generated_Source\PSoC5/Clock_I2C.c ****                     while ((CLK_DIST_LD & CYCLK_LD_LOAD) != 0u) { }
 251:.\Generated_Source\PSoC5/Clock_I2C.c **** #endif /* HAS_CLKDIST_LD_DISABLE */
 252:.\Generated_Source\PSoC5/Clock_I2C.c **** 
 253:.\Generated_Source\PSoC5/Clock_I2C.c ****                     Clock_I2C_CLKEN &= (uint8)(~Clock_I2C_CLKEN_MASK);
 254:.\Generated_Source\PSoC5/Clock_I2C.c **** 
 255:.\Generated_Source\PSoC5/Clock_I2C.c **** #if HAS_CLKDIST_LD_DISABLE
 256:.\Generated_Source\PSoC5/Clock_I2C.c ****                     /* Clear the disable bit */
 257:.\Generated_Source\PSoC5/Clock_I2C.c ****                     CLK_DIST_LD = 0x00u;
 258:.\Generated_Source\PSoC5/Clock_I2C.c **** #endif /* HAS_CLKDIST_LD_DISABLE */
 259:.\Generated_Source\PSoC5/Clock_I2C.c ****                 }
 260:.\Generated_Source\PSoC5/Clock_I2C.c ****             }
 261:.\Generated_Source\PSoC5/Clock_I2C.c **** 
 262:.\Generated_Source\PSoC5/Clock_I2C.c ****             /* Load divide value. */
 263:.\Generated_Source\PSoC5/Clock_I2C.c ****             if ((Clock_I2C_CLKEN & Clock_I2C_CLKEN_MASK) != 0u)
 264:.\Generated_Source\PSoC5/Clock_I2C.c ****             {
 265:.\Generated_Source\PSoC5/Clock_I2C.c ****                 /* If the clock is still enabled, use the shadow registers */
 266:.\Generated_Source\PSoC5/Clock_I2C.c ****                 CY_SET_REG16(CYREG_CLKDIST_WRK0, clkDivider);
 267:.\Generated_Source\PSoC5/Clock_I2C.c **** 
 268:.\Generated_Source\PSoC5/Clock_I2C.c ****                 CLK_DIST_LD = (CYCLK_LD_LOAD | ((restart != 0u) ? CYCLK_LD_SYNC_EN : 0x00u));
 269:.\Generated_Source\PSoC5/Clock_I2C.c ****                 while ((CLK_DIST_LD & CYCLK_LD_LOAD) != 0u) { }
 270:.\Generated_Source\PSoC5/Clock_I2C.c ****             }
 271:.\Generated_Source\PSoC5/Clock_I2C.c ****             else
 272:.\Generated_Source\PSoC5/Clock_I2C.c ****             {
 273:.\Generated_Source\PSoC5/Clock_I2C.c ****                 /* If the clock is disabled, set the divider directly */
 274:.\Generated_Source\PSoC5/Clock_I2C.c ****                 CY_SET_REG16(Clock_I2C_DIV_PTR, clkDivider);
 275:.\Generated_Source\PSoC5/Clock_I2C.c **** 				Clock_I2C_CLKEN |= enabled;
 276:.\Generated_Source\PSoC5/Clock_I2C.c ****             }
 277:.\Generated_Source\PSoC5/Clock_I2C.c ****         }
 278:.\Generated_Source\PSoC5/Clock_I2C.c ****     }
 279:.\Generated_Source\PSoC5/Clock_I2C.c **** }
 280:.\Generated_Source\PSoC5/Clock_I2C.c **** 
 281:.\Generated_Source\PSoC5/Clock_I2C.c **** 
 282:.\Generated_Source\PSoC5/Clock_I2C.c **** /*******************************************************************************
 283:.\Generated_Source\PSoC5/Clock_I2C.c **** * Function Name: Clock_I2C_GetDividerRegister
 284:.\Generated_Source\PSoC5/Clock_I2C.c **** ********************************************************************************
 285:.\Generated_Source\PSoC5/Clock_I2C.c **** *
 286:.\Generated_Source\PSoC5/Clock_I2C.c **** * Summary:
 287:.\Generated_Source\PSoC5/Clock_I2C.c **** *  Gets the clock divider register value.
 288:.\Generated_Source\PSoC5/Clock_I2C.c **** *
 289:.\Generated_Source\PSoC5/Clock_I2C.c **** * Parameters:
 290:.\Generated_Source\PSoC5/Clock_I2C.c **** *  None
 291:.\Generated_Source\PSoC5/Clock_I2C.c **** *
ARM GAS  C:\DOCUME~1\ADMINI~1\LOCALS~1\Temp\cc291p9N.s 			page 10


 292:.\Generated_Source\PSoC5/Clock_I2C.c **** * Returns:
 293:.\Generated_Source\PSoC5/Clock_I2C.c **** *  Divide value of the clock minus 1. For example, if the clock is set to
 294:.\Generated_Source\PSoC5/Clock_I2C.c **** *  divide by 2, the return value will be 1.
 295:.\Generated_Source\PSoC5/Clock_I2C.c **** *
 296:.\Generated_Source\PSoC5/Clock_I2C.c **** *******************************************************************************/
 297:.\Generated_Source\PSoC5/Clock_I2C.c **** uint16 Clock_I2C_GetDividerRegister(void) 
 298:.\Generated_Source\PSoC5/Clock_I2C.c **** {
 219              		.loc 1 298 0
 220              		.cfi_startproc
 221              		@ args = 0, pretend = 0, frame = 0
 222              		@ frame_needed = 0, uses_anonymous_args = 0
 223              		@ link register save eliminated.
 299:.\Generated_Source\PSoC5/Clock_I2C.c ****     return CY_GET_REG16(Clock_I2C_DIV_PTR);
 224              		.loc 1 299 0
 225 0000 014B     		ldr	r3, .L25
 226 0002 1888     		ldrh	r0, [r3, #0]
 300:.\Generated_Source\PSoC5/Clock_I2C.c **** }
 227              		.loc 1 300 0
 228 0004 80B2     		uxth	r0, r0
 229 0006 7047     		bx	lr
 230              	.L26:
 231              		.align	2
 232              	.L25:
 233 0008 80400040 		.word	1073758336
 234              		.cfi_endproc
 235              	.LFE5:
 236              		.size	Clock_I2C_GetDividerRegister, .-Clock_I2C_GetDividerRegister
 237              		.section	.text.Clock_I2C_SetModeRegister,"ax",%progbits
 238              		.align	1
 239              		.global	Clock_I2C_SetModeRegister
 240              		.thumb
 241              		.thumb_func
 242              		.type	Clock_I2C_SetModeRegister, %function
 243              	Clock_I2C_SetModeRegister:
 244              	.LFB6:
 301:.\Generated_Source\PSoC5/Clock_I2C.c **** 
 302:.\Generated_Source\PSoC5/Clock_I2C.c **** 
 303:.\Generated_Source\PSoC5/Clock_I2C.c **** /*******************************************************************************
 304:.\Generated_Source\PSoC5/Clock_I2C.c **** * Function Name: Clock_I2C_SetModeRegister
 305:.\Generated_Source\PSoC5/Clock_I2C.c **** ********************************************************************************
 306:.\Generated_Source\PSoC5/Clock_I2C.c **** *
 307:.\Generated_Source\PSoC5/Clock_I2C.c **** * Summary:
 308:.\Generated_Source\PSoC5/Clock_I2C.c **** *  Sets flags that control the operating mode of the clock. This function only
 309:.\Generated_Source\PSoC5/Clock_I2C.c **** *  changes flags from 0 to 1; flags that are already 1 will remain unchanged.
 310:.\Generated_Source\PSoC5/Clock_I2C.c **** *  To clear flags, use the ClearModeRegister function. The clock must be
 311:.\Generated_Source\PSoC5/Clock_I2C.c **** *  disabled before changing the mode.
 312:.\Generated_Source\PSoC5/Clock_I2C.c **** *
 313:.\Generated_Source\PSoC5/Clock_I2C.c **** * Parameters:
 314:.\Generated_Source\PSoC5/Clock_I2C.c **** *  clkMode: Bit mask containing the bits to set. For PSoC 3 and PSoC 5,
 315:.\Generated_Source\PSoC5/Clock_I2C.c **** *   clkMode should be a set of the following optional bits or'ed together.
 316:.\Generated_Source\PSoC5/Clock_I2C.c **** *   - CYCLK_EARLY Enable early phase mode. Rising edge of output clock will
 317:.\Generated_Source\PSoC5/Clock_I2C.c **** *                 occur when the divider count reaches half of the divide
 318:.\Generated_Source\PSoC5/Clock_I2C.c **** *                 value.
 319:.\Generated_Source\PSoC5/Clock_I2C.c **** *   - CYCLK_DUTY  Enable 50% duty cycle output. When enabled, the output clock
 320:.\Generated_Source\PSoC5/Clock_I2C.c **** *                 is asserted for approximately half of its period. When
 321:.\Generated_Source\PSoC5/Clock_I2C.c **** *                 disabled, the output clock is asserted for one period of the
 322:.\Generated_Source\PSoC5/Clock_I2C.c **** *                 source clock.
ARM GAS  C:\DOCUME~1\ADMINI~1\LOCALS~1\Temp\cc291p9N.s 			page 11


 323:.\Generated_Source\PSoC5/Clock_I2C.c **** *   - CYCLK_SYNC  Enable output synchronization to master clock. This should
 324:.\Generated_Source\PSoC5/Clock_I2C.c **** *                 be enabled for all synchronous clocks.
 325:.\Generated_Source\PSoC5/Clock_I2C.c **** *   See the Technical Reference Manual for details about setting the mode of
 326:.\Generated_Source\PSoC5/Clock_I2C.c **** *   the clock. Specifically, see the CLKDIST.DCFG.CFG2 register.
 327:.\Generated_Source\PSoC5/Clock_I2C.c **** *
 328:.\Generated_Source\PSoC5/Clock_I2C.c **** * Returns:
 329:.\Generated_Source\PSoC5/Clock_I2C.c **** *  None
 330:.\Generated_Source\PSoC5/Clock_I2C.c **** *
 331:.\Generated_Source\PSoC5/Clock_I2C.c **** *******************************************************************************/
 332:.\Generated_Source\PSoC5/Clock_I2C.c **** void Clock_I2C_SetModeRegister(uint8 modeBitMask) 
 333:.\Generated_Source\PSoC5/Clock_I2C.c **** {
 245              		.loc 1 333 0
 246              		.cfi_startproc
 247              		@ args = 0, pretend = 0, frame = 0
 248              		@ frame_needed = 0, uses_anonymous_args = 0
 249              		@ link register save eliminated.
 250              	.LVL2:
 334:.\Generated_Source\PSoC5/Clock_I2C.c ****     Clock_I2C_MOD_SRC |= modeBitMask & (uint8)Clock_I2C_MODE_MASK;
 251              		.loc 1 334 0
 252 0000 034B     		ldr	r3, .L29
 253 0002 00F0F800 		and	r0, r0, #248
 254              	.LVL3:
 255 0006 1A78     		ldrb	r2, [r3, #0]	@ zero_extendqisi2
 256 0008 40EA0202 		orr	r2, r0, r2
 257 000c 1A70     		strb	r2, [r3, #0]
 335:.\Generated_Source\PSoC5/Clock_I2C.c **** }
 258              		.loc 1 335 0
 259 000e 7047     		bx	lr
 260              	.L30:
 261              		.align	2
 262              	.L29:
 263 0010 82400040 		.word	1073758338
 264              		.cfi_endproc
 265              	.LFE6:
 266              		.size	Clock_I2C_SetModeRegister, .-Clock_I2C_SetModeRegister
 267              		.section	.text.Clock_I2C_ClearModeRegister,"ax",%progbits
 268              		.align	1
 269              		.global	Clock_I2C_ClearModeRegister
 270              		.thumb
 271              		.thumb_func
 272              		.type	Clock_I2C_ClearModeRegister, %function
 273              	Clock_I2C_ClearModeRegister:
 274              	.LFB7:
 336:.\Generated_Source\PSoC5/Clock_I2C.c **** 
 337:.\Generated_Source\PSoC5/Clock_I2C.c **** 
 338:.\Generated_Source\PSoC5/Clock_I2C.c **** /*******************************************************************************
 339:.\Generated_Source\PSoC5/Clock_I2C.c **** * Function Name: Clock_I2C_ClearModeRegister
 340:.\Generated_Source\PSoC5/Clock_I2C.c **** ********************************************************************************
 341:.\Generated_Source\PSoC5/Clock_I2C.c **** *
 342:.\Generated_Source\PSoC5/Clock_I2C.c **** * Summary:
 343:.\Generated_Source\PSoC5/Clock_I2C.c **** *  Clears flags that control the operating mode of the clock. This function
 344:.\Generated_Source\PSoC5/Clock_I2C.c **** *  only changes flags from 1 to 0; flags that are already 0 will remain
 345:.\Generated_Source\PSoC5/Clock_I2C.c **** *  unchanged. To set flags, use the SetModeRegister function. The clock must be
 346:.\Generated_Source\PSoC5/Clock_I2C.c **** *  disabled before changing the mode.
 347:.\Generated_Source\PSoC5/Clock_I2C.c **** *
 348:.\Generated_Source\PSoC5/Clock_I2C.c **** * Parameters:
 349:.\Generated_Source\PSoC5/Clock_I2C.c **** *  clkMode: Bit mask containing the bits to clear. For PSoC 3 and PSoC 5,
ARM GAS  C:\DOCUME~1\ADMINI~1\LOCALS~1\Temp\cc291p9N.s 			page 12


 350:.\Generated_Source\PSoC5/Clock_I2C.c **** *   clkMode should be a set of the following optional bits or'ed together.
 351:.\Generated_Source\PSoC5/Clock_I2C.c **** *   - CYCLK_EARLY Enable early phase mode. Rising edge of output clock will
 352:.\Generated_Source\PSoC5/Clock_I2C.c **** *                 occur when the divider count reaches half of the divide
 353:.\Generated_Source\PSoC5/Clock_I2C.c **** *                 value.
 354:.\Generated_Source\PSoC5/Clock_I2C.c **** *   - CYCLK_DUTY  Enable 50% duty cycle output. When enabled, the output clock
 355:.\Generated_Source\PSoC5/Clock_I2C.c **** *                 is asserted for approximately half of its period. When
 356:.\Generated_Source\PSoC5/Clock_I2C.c **** *                 disabled, the output clock is asserted for one period of the
 357:.\Generated_Source\PSoC5/Clock_I2C.c **** *                 source clock.
 358:.\Generated_Source\PSoC5/Clock_I2C.c **** *   - CYCLK_SYNC  Enable output synchronization to master clock. This should
 359:.\Generated_Source\PSoC5/Clock_I2C.c **** *                 be enabled for all synchronous clocks.
 360:.\Generated_Source\PSoC5/Clock_I2C.c **** *   See the Technical Reference Manual for details about setting the mode of
 361:.\Generated_Source\PSoC5/Clock_I2C.c **** *   the clock. Specifically, see the CLKDIST.DCFG.CFG2 register.
 362:.\Generated_Source\PSoC5/Clock_I2C.c **** *
 363:.\Generated_Source\PSoC5/Clock_I2C.c **** * Returns:
 364:.\Generated_Source\PSoC5/Clock_I2C.c **** *  None
 365:.\Generated_Source\PSoC5/Clock_I2C.c **** *
 366:.\Generated_Source\PSoC5/Clock_I2C.c **** *******************************************************************************/
 367:.\Generated_Source\PSoC5/Clock_I2C.c **** void Clock_I2C_ClearModeRegister(uint8 modeBitMask) 
 368:.\Generated_Source\PSoC5/Clock_I2C.c **** {
 275              		.loc 1 368 0
 276              		.cfi_startproc
 277              		@ args = 0, pretend = 0, frame = 0
 278              		@ frame_needed = 0, uses_anonymous_args = 0
 279              		@ link register save eliminated.
 280              	.LVL4:
 369:.\Generated_Source\PSoC5/Clock_I2C.c ****     Clock_I2C_MOD_SRC &= (uint8)(~modeBitMask) | (uint8)(~(uint8)(Clock_I2C_MODE_MASK));
 281              		.loc 1 369 0
 282 0000 034B     		ldr	r3, .L33
 283 0002 C043     		mvns	r0, r0
 284              	.LVL5:
 285 0004 1A78     		ldrb	r2, [r3, #0]	@ zero_extendqisi2
 286 0006 40F00700 		orr	r0, r0, #7
 287 000a 0240     		ands	r2, r2, r0
 288 000c 1A70     		strb	r2, [r3, #0]
 370:.\Generated_Source\PSoC5/Clock_I2C.c **** }
 289              		.loc 1 370 0
 290 000e 7047     		bx	lr
 291              	.L34:
 292              		.align	2
 293              	.L33:
 294 0010 82400040 		.word	1073758338
 295              		.cfi_endproc
 296              	.LFE7:
 297              		.size	Clock_I2C_ClearModeRegister, .-Clock_I2C_ClearModeRegister
 298              		.section	.text.Clock_I2C_GetModeRegister,"ax",%progbits
 299              		.align	1
 300              		.global	Clock_I2C_GetModeRegister
 301              		.thumb
 302              		.thumb_func
 303              		.type	Clock_I2C_GetModeRegister, %function
 304              	Clock_I2C_GetModeRegister:
 305              	.LFB8:
 371:.\Generated_Source\PSoC5/Clock_I2C.c **** 
 372:.\Generated_Source\PSoC5/Clock_I2C.c **** 
 373:.\Generated_Source\PSoC5/Clock_I2C.c **** /*******************************************************************************
 374:.\Generated_Source\PSoC5/Clock_I2C.c **** * Function Name: Clock_I2C_GetModeRegister
 375:.\Generated_Source\PSoC5/Clock_I2C.c **** ********************************************************************************
ARM GAS  C:\DOCUME~1\ADMINI~1\LOCALS~1\Temp\cc291p9N.s 			page 13


 376:.\Generated_Source\PSoC5/Clock_I2C.c **** *
 377:.\Generated_Source\PSoC5/Clock_I2C.c **** * Summary:
 378:.\Generated_Source\PSoC5/Clock_I2C.c **** *  Gets the clock mode register value.
 379:.\Generated_Source\PSoC5/Clock_I2C.c **** *
 380:.\Generated_Source\PSoC5/Clock_I2C.c **** * Parameters:
 381:.\Generated_Source\PSoC5/Clock_I2C.c **** *  None
 382:.\Generated_Source\PSoC5/Clock_I2C.c **** *
 383:.\Generated_Source\PSoC5/Clock_I2C.c **** * Returns:
 384:.\Generated_Source\PSoC5/Clock_I2C.c **** *  Bit mask representing the enabled mode bits. See the SetModeRegister and
 385:.\Generated_Source\PSoC5/Clock_I2C.c **** *  ClearModeRegister descriptions for details about the mode bits.
 386:.\Generated_Source\PSoC5/Clock_I2C.c **** *
 387:.\Generated_Source\PSoC5/Clock_I2C.c **** *******************************************************************************/
 388:.\Generated_Source\PSoC5/Clock_I2C.c **** uint8 Clock_I2C_GetModeRegister(void) 
 389:.\Generated_Source\PSoC5/Clock_I2C.c **** {
 306              		.loc 1 389 0
 307              		.cfi_startproc
 308              		@ args = 0, pretend = 0, frame = 0
 309              		@ frame_needed = 0, uses_anonymous_args = 0
 310              		@ link register save eliminated.
 390:.\Generated_Source\PSoC5/Clock_I2C.c ****     return Clock_I2C_MOD_SRC & (uint8)(Clock_I2C_MODE_MASK);
 311              		.loc 1 390 0
 312 0000 024B     		ldr	r3, .L37
 313 0002 1878     		ldrb	r0, [r3, #0]	@ zero_extendqisi2
 391:.\Generated_Source\PSoC5/Clock_I2C.c **** }
 314              		.loc 1 391 0
 315 0004 00F0F800 		and	r0, r0, #248
 316 0008 7047     		bx	lr
 317              	.L38:
 318 000a 00BF     		.align	2
 319              	.L37:
 320 000c 82400040 		.word	1073758338
 321              		.cfi_endproc
 322              	.LFE8:
 323              		.size	Clock_I2C_GetModeRegister, .-Clock_I2C_GetModeRegister
 324              		.section	.text.Clock_I2C_GetSourceRegister,"ax",%progbits
 325              		.align	1
 326              		.global	Clock_I2C_GetSourceRegister
 327              		.thumb
 328              		.thumb_func
 329              		.type	Clock_I2C_GetSourceRegister, %function
 330              	Clock_I2C_GetSourceRegister:
 331              	.LFB10:
 392:.\Generated_Source\PSoC5/Clock_I2C.c **** 
 393:.\Generated_Source\PSoC5/Clock_I2C.c **** 
 394:.\Generated_Source\PSoC5/Clock_I2C.c **** /*******************************************************************************
 395:.\Generated_Source\PSoC5/Clock_I2C.c **** * Function Name: Clock_I2C_SetSourceRegister
 396:.\Generated_Source\PSoC5/Clock_I2C.c **** ********************************************************************************
 397:.\Generated_Source\PSoC5/Clock_I2C.c **** *
 398:.\Generated_Source\PSoC5/Clock_I2C.c **** * Summary:
 399:.\Generated_Source\PSoC5/Clock_I2C.c **** *  Sets the input source of the clock. The clock must be disabled before
 400:.\Generated_Source\PSoC5/Clock_I2C.c **** *  changing the source. The old and new clock sources must be running.
 401:.\Generated_Source\PSoC5/Clock_I2C.c **** *
 402:.\Generated_Source\PSoC5/Clock_I2C.c **** * Parameters:
 403:.\Generated_Source\PSoC5/Clock_I2C.c **** *  clkSource:  For PSoC 3 and PSoC 5 devices, clkSource should be one of the
 404:.\Generated_Source\PSoC5/Clock_I2C.c **** *   following input sources:
 405:.\Generated_Source\PSoC5/Clock_I2C.c **** *   - CYCLK_SRC_SEL_SYNC_DIG
 406:.\Generated_Source\PSoC5/Clock_I2C.c **** *   - CYCLK_SRC_SEL_IMO
ARM GAS  C:\DOCUME~1\ADMINI~1\LOCALS~1\Temp\cc291p9N.s 			page 14


 407:.\Generated_Source\PSoC5/Clock_I2C.c **** *   - CYCLK_SRC_SEL_XTALM
 408:.\Generated_Source\PSoC5/Clock_I2C.c **** *   - CYCLK_SRC_SEL_ILO
 409:.\Generated_Source\PSoC5/Clock_I2C.c **** *   - CYCLK_SRC_SEL_PLL
 410:.\Generated_Source\PSoC5/Clock_I2C.c **** *   - CYCLK_SRC_SEL_XTALK
 411:.\Generated_Source\PSoC5/Clock_I2C.c **** *   - CYCLK_SRC_SEL_DSI_G
 412:.\Generated_Source\PSoC5/Clock_I2C.c **** *   - CYCLK_SRC_SEL_DSI_D/CYCLK_SRC_SEL_DSI_A
 413:.\Generated_Source\PSoC5/Clock_I2C.c **** *   See the Technical Reference Manual for details on clock sources.
 414:.\Generated_Source\PSoC5/Clock_I2C.c **** *
 415:.\Generated_Source\PSoC5/Clock_I2C.c **** * Returns:
 416:.\Generated_Source\PSoC5/Clock_I2C.c **** *  None
 417:.\Generated_Source\PSoC5/Clock_I2C.c **** *
 418:.\Generated_Source\PSoC5/Clock_I2C.c **** *******************************************************************************/
 419:.\Generated_Source\PSoC5/Clock_I2C.c **** void Clock_I2C_SetSourceRegister(uint8 clkSource) 
 420:.\Generated_Source\PSoC5/Clock_I2C.c **** {
 421:.\Generated_Source\PSoC5/Clock_I2C.c ****     uint16 currDiv = Clock_I2C_GetDividerRegister();
 422:.\Generated_Source\PSoC5/Clock_I2C.c ****     uint8 oldSrc = Clock_I2C_GetSourceRegister();
 423:.\Generated_Source\PSoC5/Clock_I2C.c **** 
 424:.\Generated_Source\PSoC5/Clock_I2C.c ****     if (((oldSrc != ((uint8)CYCLK_SRC_SEL_CLK_SYNC_D)) && 
 425:.\Generated_Source\PSoC5/Clock_I2C.c ****         (clkSource == ((uint8)CYCLK_SRC_SEL_CLK_SYNC_D))) && (currDiv == 0u))
 426:.\Generated_Source\PSoC5/Clock_I2C.c ****     {
 427:.\Generated_Source\PSoC5/Clock_I2C.c ****         /* Switching to Master and divider is 1, set SSS, which will output master, */
 428:.\Generated_Source\PSoC5/Clock_I2C.c ****         /* then set the source so we are consistent.                                */
 429:.\Generated_Source\PSoC5/Clock_I2C.c ****         Clock_I2C_MOD_SRC |= CYCLK_SSS;
 430:.\Generated_Source\PSoC5/Clock_I2C.c ****         Clock_I2C_MOD_SRC =
 431:.\Generated_Source\PSoC5/Clock_I2C.c ****             (Clock_I2C_MOD_SRC & (uint8)(~Clock_I2C_SRC_SEL_MSK)) | clkSource;
 432:.\Generated_Source\PSoC5/Clock_I2C.c ****     }
 433:.\Generated_Source\PSoC5/Clock_I2C.c ****     else if (((oldSrc == ((uint8)CYCLK_SRC_SEL_CLK_SYNC_D)) && 
 434:.\Generated_Source\PSoC5/Clock_I2C.c ****             (clkSource != ((uint8)CYCLK_SRC_SEL_CLK_SYNC_D))) && (currDiv == 0u))
 435:.\Generated_Source\PSoC5/Clock_I2C.c ****     {
 436:.\Generated_Source\PSoC5/Clock_I2C.c ****         /* Switching from Master to not and divider is 1, set source, so we don't   */
 437:.\Generated_Source\PSoC5/Clock_I2C.c ****         /* lock when we clear SSS.                                                  */
 438:.\Generated_Source\PSoC5/Clock_I2C.c ****         Clock_I2C_MOD_SRC =
 439:.\Generated_Source\PSoC5/Clock_I2C.c ****             (Clock_I2C_MOD_SRC & (uint8)(~Clock_I2C_SRC_SEL_MSK)) | clkSource;
 440:.\Generated_Source\PSoC5/Clock_I2C.c ****         Clock_I2C_MOD_SRC &= (uint8)(~CYCLK_SSS);
 441:.\Generated_Source\PSoC5/Clock_I2C.c ****     }
 442:.\Generated_Source\PSoC5/Clock_I2C.c ****     else
 443:.\Generated_Source\PSoC5/Clock_I2C.c ****     {
 444:.\Generated_Source\PSoC5/Clock_I2C.c ****         Clock_I2C_MOD_SRC =
 445:.\Generated_Source\PSoC5/Clock_I2C.c ****             (Clock_I2C_MOD_SRC & (uint8)(~Clock_I2C_SRC_SEL_MSK)) | clkSource;
 446:.\Generated_Source\PSoC5/Clock_I2C.c ****     }
 447:.\Generated_Source\PSoC5/Clock_I2C.c **** }
 448:.\Generated_Source\PSoC5/Clock_I2C.c **** 
 449:.\Generated_Source\PSoC5/Clock_I2C.c **** 
 450:.\Generated_Source\PSoC5/Clock_I2C.c **** /*******************************************************************************
 451:.\Generated_Source\PSoC5/Clock_I2C.c **** * Function Name: Clock_I2C_GetSourceRegister
 452:.\Generated_Source\PSoC5/Clock_I2C.c **** ********************************************************************************
 453:.\Generated_Source\PSoC5/Clock_I2C.c **** *
 454:.\Generated_Source\PSoC5/Clock_I2C.c **** * Summary:
 455:.\Generated_Source\PSoC5/Clock_I2C.c **** *  Gets the input source of the clock.
 456:.\Generated_Source\PSoC5/Clock_I2C.c **** *
 457:.\Generated_Source\PSoC5/Clock_I2C.c **** * Parameters:
 458:.\Generated_Source\PSoC5/Clock_I2C.c **** *  None
 459:.\Generated_Source\PSoC5/Clock_I2C.c **** *
 460:.\Generated_Source\PSoC5/Clock_I2C.c **** * Returns:
 461:.\Generated_Source\PSoC5/Clock_I2C.c **** *  The input source of the clock. See SetSourceRegister for details.
 462:.\Generated_Source\PSoC5/Clock_I2C.c **** *
 463:.\Generated_Source\PSoC5/Clock_I2C.c **** *******************************************************************************/
ARM GAS  C:\DOCUME~1\ADMINI~1\LOCALS~1\Temp\cc291p9N.s 			page 15


 464:.\Generated_Source\PSoC5/Clock_I2C.c **** uint8 Clock_I2C_GetSourceRegister(void) 
 465:.\Generated_Source\PSoC5/Clock_I2C.c **** {
 332              		.loc 1 465 0
 333              		.cfi_startproc
 334              		@ args = 0, pretend = 0, frame = 0
 335              		@ frame_needed = 0, uses_anonymous_args = 0
 336              		@ link register save eliminated.
 466:.\Generated_Source\PSoC5/Clock_I2C.c ****     return Clock_I2C_MOD_SRC & Clock_I2C_SRC_SEL_MSK;
 337              		.loc 1 466 0
 338 0000 024B     		ldr	r3, .L41
 339 0002 1878     		ldrb	r0, [r3, #0]	@ zero_extendqisi2
 467:.\Generated_Source\PSoC5/Clock_I2C.c **** }
 340              		.loc 1 467 0
 341 0004 00F00700 		and	r0, r0, #7
 342 0008 7047     		bx	lr
 343              	.L42:
 344 000a 00BF     		.align	2
 345              	.L41:
 346 000c 82400040 		.word	1073758338
 347              		.cfi_endproc
 348              	.LFE10:
 349              		.size	Clock_I2C_GetSourceRegister, .-Clock_I2C_GetSourceRegister
 350              		.section	.text.Clock_I2C_SetSourceRegister,"ax",%progbits
 351              		.align	1
 352              		.global	Clock_I2C_SetSourceRegister
 353              		.thumb
 354              		.thumb_func
 355              		.type	Clock_I2C_SetSourceRegister, %function
 356              	Clock_I2C_SetSourceRegister:
 357              	.LFB9:
 358              		.loc 1 420 0
 359              		.cfi_startproc
 360              		@ args = 0, pretend = 0, frame = 0
 361              		@ frame_needed = 0, uses_anonymous_args = 0
 362              	.LVL6:
 363 0000 38B5     		push	{r3, r4, r5, lr}
 364              	.LCFI0:
 365              		.cfi_def_cfa_offset 16
 366              	.LBB7:
 367              	.LBB8:
 368              		.loc 1 299 0
 369 0002 134B     		ldr	r3, .L49
 370              		.cfi_offset 14, -4
 371              		.cfi_offset 5, -8
 372              		.cfi_offset 4, -12
 373              		.cfi_offset 3, -16
 374              	.LBE8:
 375              	.LBE7:
 376              		.loc 1 420 0
 377 0004 0446     		mov	r4, r0
 378              	.LBB10:
 379              	.LBB9:
 380              		.loc 1 299 0
 381 0006 1D88     		ldrh	r5, [r3, #0]
 382 0008 ADB2     		uxth	r5, r5
 383              	.LVL7:
 384              	.LBE9:
ARM GAS  C:\DOCUME~1\ADMINI~1\LOCALS~1\Temp\cc291p9N.s 			page 16


 385              	.LBE10:
 386              		.loc 1 422 0
 387 000a FFF7FEFF 		bl	Clock_I2C_GetSourceRegister
 388              	.LVL8:
 389              		.loc 1 424 0
 390 000e 50B1     		cbz	r0, .L44
 391 0010 B4B9     		cbnz	r4, .L45
 392 0012 ADB9     		cbnz	r5, .L45
 393              		.loc 1 429 0
 394 0014 0F4B     		ldr	r3, .L49+4
 395 0016 1A78     		ldrb	r2, [r3, #0]	@ zero_extendqisi2
 396 0018 42F04002 		orr	r2, r2, #64
 397 001c 1A70     		strb	r2, [r3, #0]
 398              		.loc 1 431 0
 399 001e 1A78     		ldrb	r2, [r3, #0]	@ zero_extendqisi2
 400              		.loc 1 430 0
 401 0020 02F0F802 		and	r2, r2, #248
 402 0024 0AE0     		b	.L48
 403              	.L44:
 404              		.loc 1 433 0
 405 0026 5CB1     		cbz	r4, .L45
 406 0028 55B9     		cbnz	r5, .L45
 407              		.loc 1 439 0
 408 002a 0A4B     		ldr	r3, .L49+4
 409 002c 1A78     		ldrb	r2, [r3, #0]	@ zero_extendqisi2
 410              		.loc 1 438 0
 411 002e 02F0F802 		and	r2, r2, #248
 412 0032 1443     		orrs	r4, r4, r2
 413              	.LVL9:
 414 0034 1C70     		strb	r4, [r3, #0]
 415              		.loc 1 440 0
 416 0036 1A78     		ldrb	r2, [r3, #0]	@ zero_extendqisi2
 417 0038 02F0BF02 		and	r2, r2, #191
 418              	.LVL10:
 419              	.L48:
 420 003c 1A70     		strb	r2, [r3, #0]
 421              		.loc 1 433 0
 422 003e 38BD     		pop	{r3, r4, r5, pc}
 423              	.L45:
 424              		.loc 1 445 0
 425 0040 044B     		ldr	r3, .L49+4
 426 0042 1A78     		ldrb	r2, [r3, #0]	@ zero_extendqisi2
 427              		.loc 1 444 0
 428 0044 02F0F802 		and	r2, r2, #248
 429 0048 1443     		orrs	r4, r4, r2
 430              	.LVL11:
 431 004a 1C70     		strb	r4, [r3, #0]
 432 004c 38BD     		pop	{r3, r4, r5, pc}
 433              	.L50:
 434 004e 00BF     		.align	2
 435              	.L49:
 436 0050 80400040 		.word	1073758336
 437 0054 82400040 		.word	1073758338
 438              		.cfi_endproc
 439              	.LFE9:
 440              		.size	Clock_I2C_SetSourceRegister, .-Clock_I2C_SetSourceRegister
 441              		.section	.text.Clock_I2C_SetDividerRegister,"ax",%progbits
ARM GAS  C:\DOCUME~1\ADMINI~1\LOCALS~1\Temp\cc291p9N.s 			page 17


 442              		.align	1
 443              		.global	Clock_I2C_SetDividerRegister
 444              		.thumb
 445              		.thumb_func
 446              		.type	Clock_I2C_SetDividerRegister, %function
 447              	Clock_I2C_SetDividerRegister:
 448              	.LFB4:
 449              		.loc 1 195 0
 450              		.cfi_startproc
 451              		@ args = 0, pretend = 0, frame = 0
 452              		@ frame_needed = 0, uses_anonymous_args = 0
 453              	.LVL12:
 454 0000 38B5     		push	{r3, r4, r5, lr}
 455              	.LCFI1:
 456              		.cfi_def_cfa_offset 16
 457              		.loc 1 195 0
 458 0002 0446     		mov	r4, r0
 459              		.cfi_offset 14, -4
 460              		.cfi_offset 5, -8
 461              		.cfi_offset 4, -12
 462              		.cfi_offset 3, -16
 463 0004 0D46     		mov	r5, r1
 464              		.loc 1 198 0
 465 0006 FFF7FEFF 		bl	Clock_I2C_GetSourceRegister
 466              	.LVL13:
 467              	.LBB11:
 468              	.LBB12:
 469              		.loc 1 299 0
 470 000a 2E4A     		ldr	r2, .L64
 471 000c 1388     		ldrh	r3, [r2, #0]
 472 000e 9BB2     		uxth	r3, r3
 473              	.LVL14:
 474              	.LBE12:
 475              	.LBE11:
 476              		.loc 1 201 0
 477 0010 9C42     		cmp	r4, r3
 478 0012 55D0     		beq	.L63
 479              		.loc 1 203 0
 480 0014 2C49     		ldr	r1, .L64+4
 481 0016 0978     		ldrb	r1, [r1, #0]	@ zero_extendqisi2
 482              		.loc 1 205 0
 483 0018 80B9     		cbnz	r0, .L53
 484 001a 0BB1     		cbz	r3, .L54
 485 001c 3CB1     		cbz	r4, .L55
 486 001e 0DE0     		b	.L53
 487              	.L54:
 488              		.loc 1 214 0
 489 0020 2A4B     		ldr	r3, .L64+8
 490              	.LVL15:
 491              		.loc 1 213 0
 492 0022 1480     		strh	r4, [r2, #0]	@ movhi
 493              		.loc 1 214 0
 494 0024 1A78     		ldrb	r2, [r3, #0]	@ zero_extendqisi2
 495 0026 02F0BF02 		and	r2, r2, #191
 496 002a 1A70     		strb	r2, [r3, #0]
 497 002c 38BD     		pop	{r3, r4, r5, pc}
 498              	.LVL16:
ARM GAS  C:\DOCUME~1\ADMINI~1\LOCALS~1\Temp\cc291p9N.s 			page 18


 499              	.L55:
 500              		.loc 1 220 0
 501 002e 274B     		ldr	r3, .L64+8
 502              	.LVL17:
 503 0030 1978     		ldrb	r1, [r3, #0]	@ zero_extendqisi2
 504 0032 41F04001 		orr	r1, r1, #64
 505 0036 1970     		strb	r1, [r3, #0]
 506              		.loc 1 221 0
 507 0038 1480     		strh	r4, [r2, #0]	@ movhi
 508 003a 38BD     		pop	{r3, r4, r5, pc}
 509              	.LVL18:
 510              	.L53:
 511              		.loc 1 227 0
 512 003c 11F00101 		ands	r1, r1, #1
 513              	.LVL19:
 514 0040 26D0     		beq	.L56
 515              		.loc 1 229 0
 516 0042 2348     		ldr	r0, .L64+12
 517 0044 0022     		movs	r2, #0
 518 0046 0270     		strb	r2, [r0, #0]
 519              		.loc 1 236 0
 520 0048 4FF0010C 		mov	ip, #1
 521 004c 0F30     		adds	r0, r0, #15
 522 004e 80F800C0 		strb	ip, [r0, #0]
 523              		.loc 1 237 0
 524 0052 0430     		adds	r0, r0, #4
 525 0054 0270     		strb	r2, [r0, #0]
 526              		.loc 1 240 0
 527 0056 1F4A     		ldr	r2, .L64+16
 528 0058 1078     		ldrb	r0, [r2, #0]	@ zero_extendqisi2
 529 005a 00F07F00 		and	r0, r0, #127
 530 005e 1070     		strb	r0, [r2, #0]
 531              		.loc 1 243 0
 532 0060 7A32     		adds	r2, r2, #122
 533 0062 1278     		ldrb	r2, [r2, #0]	@ zero_extendqisi2
 534 0064 12F0080F 		tst	r2, #8
 535 0068 00D0     		beq	.L57
 536 006a 8CB9     		cbnz	r4, .L56
 537              	.L57:
 538              		.loc 1 246 0
 539 006c 1A4A     		ldr	r2, .L64+20
 540 006e 1380     		strh	r3, [r2, #0]	@ movhi
 541              		.loc 1 247 0
 542 0070 174B     		ldr	r3, .L64+12
 543              	.LVL20:
 544 0072 0722     		movs	r2, #7
 545 0074 1A70     		strb	r2, [r3, #0]
 546              	.L58:
 547              		.loc 1 250 0
 548 0076 164B     		ldr	r3, .L64+12
 549 0078 1A78     		ldrb	r2, [r3, #0]	@ zero_extendqisi2
 550 007a 12F00100 		ands	r0, r2, #1
 551 007e FAD1     		bne	.L58
 552              		.loc 1 253 0
 553 0080 114A     		ldr	r2, .L64+4
 554 0082 92F800C0 		ldrb	ip, [r2, #0]	@ zero_extendqisi2
 555 0086 0CF0FE0C 		and	ip, ip, #254
ARM GAS  C:\DOCUME~1\ADMINI~1\LOCALS~1\Temp\cc291p9N.s 			page 19


 556 008a 82F800C0 		strb	ip, [r2, #0]
 557              		.loc 1 257 0
 558 008e 1870     		strb	r0, [r3, #0]
 559              	.LVL21:
 560              	.L56:
 561              		.loc 1 263 0
 562 0090 0D4B     		ldr	r3, .L64+4
 563              	.LVL22:
 564 0092 1A78     		ldrb	r2, [r3, #0]	@ zero_extendqisi2
 565 0094 12F0010F 		tst	r2, #1
 566 0098 0DD0     		beq	.L59
 567              		.loc 1 266 0
 568 009a 0F4B     		ldr	r3, .L64+20
 569              		.loc 1 268 0
 570 009c 002D     		cmp	r5, #0
 571 009e 14BF     		ite	ne
 572 00a0 0325     		movne	r5, #3
 573 00a2 0125     		moveq	r5, #1
 574              	.LVL23:
 575              		.loc 1 266 0
 576 00a4 1C80     		strh	r4, [r3, #0]	@ movhi
 577              		.loc 1 268 0
 578 00a6 013B     		subs	r3, r3, #1
 579 00a8 1D70     		strb	r5, [r3, #0]
 580              	.L62:
 581              		.loc 1 269 0
 582 00aa 094B     		ldr	r3, .L64+12
 583 00ac 1B78     		ldrb	r3, [r3, #0]	@ zero_extendqisi2
 584 00ae 13F0010F 		tst	r3, #1
 585 00b2 FAD1     		bne	.L62
 586 00b4 38BD     		pop	{r3, r4, r5, pc}
 587              	.LVL24:
 588              	.L59:
 589              		.loc 1 274 0
 590 00b6 034A     		ldr	r2, .L64
 591 00b8 1480     		strh	r4, [r2, #0]	@ movhi
 592              		.loc 1 275 0
 593 00ba 1A78     		ldrb	r2, [r3, #0]	@ zero_extendqisi2
 594 00bc 1143     		orrs	r1, r1, r2
 595              	.LVL25:
 596 00be 1970     		strb	r1, [r3, #0]
 597              	.LVL26:
 598              	.L63:
 599 00c0 38BD     		pop	{r3, r4, r5, pc}
 600              	.L65:
 601 00c2 00BF     		.align	2
 602              	.L64:
 603 00c4 80400040 		.word	1073758336
 604 00c8 A2430040 		.word	1073759138
 605 00cc 82400040 		.word	1073758338
 606 00d0 01400040 		.word	1073758209
 607 00d4 08400040 		.word	1073758216
 608 00d8 02400040 		.word	1073758210
 609              		.cfi_endproc
 610              	.LFE4:
 611              		.size	Clock_I2C_SetDividerRegister, .-Clock_I2C_SetDividerRegister
 612              		.text
ARM GAS  C:\DOCUME~1\ADMINI~1\LOCALS~1\Temp\cc291p9N.s 			page 20


 613              	.Letext0: