ARM GAS  C:\DOCUME~1\ADMINI~1\LOCALS~1\Temp\ccrdSJxJ.s 			page 1


   1              		.syntax unified
   2              		.cpu cortex-m3
   3              		.fpu softvfp
   4              		.eabi_attribute 20, 1
   5              		.eabi_attribute 21, 1
   6              		.eabi_attribute 23, 3
   7              		.eabi_attribute 24, 1
   8              		.eabi_attribute 25, 1
   9              		.eabi_attribute 26, 1
  10              		.eabi_attribute 30, 4
  11              		.eabi_attribute 18, 4
  12              		.thumb
  13              		.file	"CyDmac.c"
  20 0000 84020000 		.text
  20      02006B00 
  20      00000201 
  20      FB0E0D00 
  20      01010101 
  21              	.Ltext0:
  22              		.cfi_sections	.debug_frame
  23              		.section	.text.CyDmacConfigure,"ax",%progbits
  24              		.align	1
  25              		.global	CyDmacConfigure
  26              		.thumb
  27              		.thumb_func
  28              		.type	CyDmacConfigure, %function
  29              	CyDmacConfigure:
  30              	.LFB0:
  31              		.file 1 ".\\Generated_Source\\PSoC5\\CyDmac.c"
   1:.\Generated_Source\PSoC5/CyDmac.c **** /*******************************************************************************
   2:.\Generated_Source\PSoC5/CyDmac.c **** * File Name: CyDmac.c
   3:.\Generated_Source\PSoC5/CyDmac.c **** * Version 3.40
   4:.\Generated_Source\PSoC5/CyDmac.c **** *
   5:.\Generated_Source\PSoC5/CyDmac.c **** * Description:
   6:.\Generated_Source\PSoC5/CyDmac.c **** *  Provides an API for the DMAC component. The API includes functions for the
   7:.\Generated_Source\PSoC5/CyDmac.c **** *  DMA controller, DMA channels and Transfer Descriptors.
   8:.\Generated_Source\PSoC5/CyDmac.c **** *
   9:.\Generated_Source\PSoC5/CyDmac.c **** *  This API is the library version not the auto generated code that gets
  10:.\Generated_Source\PSoC5/CyDmac.c **** *  generated when the user places a DMA component on the schematic.
  11:.\Generated_Source\PSoC5/CyDmac.c **** *
  12:.\Generated_Source\PSoC5/CyDmac.c **** *  The auto generated code would use the APi's in this module.
  13:.\Generated_Source\PSoC5/CyDmac.c **** *
  14:.\Generated_Source\PSoC5/CyDmac.c **** * Note:
  15:.\Generated_Source\PSoC5/CyDmac.c **** *  This code is endian agnostic.
  16:.\Generated_Source\PSoC5/CyDmac.c **** *
  17:.\Generated_Source\PSoC5/CyDmac.c **** *  The Transfer Descriptor memory can be used as regular memory if the TD's are
  18:.\Generated_Source\PSoC5/CyDmac.c **** *  not being used.
  19:.\Generated_Source\PSoC5/CyDmac.c **** *
  20:.\Generated_Source\PSoC5/CyDmac.c **** *  This code uses the first byte of each TD to manage the free list of TD's.
  21:.\Generated_Source\PSoC5/CyDmac.c **** *  The user can over write this once the TD is allocated.
  22:.\Generated_Source\PSoC5/CyDmac.c **** *
ARM GAS  C:\DOCUME~1\ADMINI~1\LOCALS~1\Temp\ccrdSJxJ.s 			page 2


  23:.\Generated_Source\PSoC5/CyDmac.c **** ********************************************************************************
  24:.\Generated_Source\PSoC5/CyDmac.c **** * Copyright 2008-2013, Cypress Semiconductor Corporation.  All rights reserved.
  25:.\Generated_Source\PSoC5/CyDmac.c **** * You may use this file only in accordance with the license, terms, conditions,
  26:.\Generated_Source\PSoC5/CyDmac.c **** * disclaimers, and limitations in the end user license agreement accompanying
  27:.\Generated_Source\PSoC5/CyDmac.c **** * the software package with which this file was provided.
  28:.\Generated_Source\PSoC5/CyDmac.c **** *******************************************************************************/
  29:.\Generated_Source\PSoC5/CyDmac.c **** 
  30:.\Generated_Source\PSoC5/CyDmac.c **** #include "CyDmac.h"
  31:.\Generated_Source\PSoC5/CyDmac.c **** 
  32:.\Generated_Source\PSoC5/CyDmac.c **** static uint8  CyDmaTdCurrentNumber;                      /* Current Number of free elements in the 
  33:.\Generated_Source\PSoC5/CyDmac.c **** static uint8  CyDmaTdFreeIndex;                          /* Index of the first available TD */
  34:.\Generated_Source\PSoC5/CyDmac.c **** static uint32 CyDmaChannels = DMA_CHANNELS_USED__MASK0;  /* Bit map of DMA channel ownership */
  35:.\Generated_Source\PSoC5/CyDmac.c **** 
  36:.\Generated_Source\PSoC5/CyDmac.c **** 
  37:.\Generated_Source\PSoC5/CyDmac.c **** /*******************************************************************************
  38:.\Generated_Source\PSoC5/CyDmac.c **** * Function Name: CyDmacConfigure
  39:.\Generated_Source\PSoC5/CyDmac.c **** ********************************************************************************
  40:.\Generated_Source\PSoC5/CyDmac.c **** *
  41:.\Generated_Source\PSoC5/CyDmac.c **** * Summary:
  42:.\Generated_Source\PSoC5/CyDmac.c **** *  Creates a linked list of all the TDs to be allocated. This function is called
  43:.\Generated_Source\PSoC5/CyDmac.c **** *  by the startup code; you do not normally need to call it. You could call this
  44:.\Generated_Source\PSoC5/CyDmac.c **** *  function if all of the DMA channels are inactive.
  45:.\Generated_Source\PSoC5/CyDmac.c **** *
  46:.\Generated_Source\PSoC5/CyDmac.c **** * Parameters:
  47:.\Generated_Source\PSoC5/CyDmac.c **** *  None
  48:.\Generated_Source\PSoC5/CyDmac.c **** *
  49:.\Generated_Source\PSoC5/CyDmac.c **** * Return:
  50:.\Generated_Source\PSoC5/CyDmac.c **** *  None
  51:.\Generated_Source\PSoC5/CyDmac.c **** *
  52:.\Generated_Source\PSoC5/CyDmac.c **** *******************************************************************************/
  53:.\Generated_Source\PSoC5/CyDmac.c **** void CyDmacConfigure(void) 
  54:.\Generated_Source\PSoC5/CyDmac.c **** {
  32              		.loc 1 54 0
  33              		.cfi_startproc
  34              		@ args = 0, pretend = 0, frame = 0
  35              		@ frame_needed = 0, uses_anonymous_args = 0
  36              		@ link register save eliminated.
  55:.\Generated_Source\PSoC5/CyDmac.c ****     uint8 dmaIndex;
  56:.\Generated_Source\PSoC5/CyDmac.c **** 
  57:.\Generated_Source\PSoC5/CyDmac.c ****     /* Set TD list variables. */
  58:.\Generated_Source\PSoC5/CyDmac.c ****     CyDmaTdFreeIndex     = ((uint8) (CY_DMA_NUMBEROF_TDS - 1u));
  37              		.loc 1 58 0
  38 0000 074A     		ldr	r2, .L5
  39 0002 7F23     		movs	r3, #127
  59:.\Generated_Source\PSoC5/CyDmac.c ****     CyDmaTdCurrentNumber = CY_DMA_NUMBEROF_TDS;
  40              		.loc 1 59 0
  41 0004 6FF07F01 		mvn	r1, #127
  42              		.loc 1 58 0
  43 0008 1370     		strb	r3, [r2, #0]
  44              		.loc 1 59 0
  45 000a 5170     		strb	r1, [r2, #1]
  46 000c 054A     		ldr	r2, .L5+4
  47              	.L2:
  60:.\Generated_Source\PSoC5/CyDmac.c **** 
  61:.\Generated_Source\PSoC5/CyDmac.c ****     /* Make TD free list. */
  62:.\Generated_Source\PSoC5/CyDmac.c ****     for(dmaIndex = ((uint8)(CY_DMA_NUMBEROF_TDS - 1u)); dmaIndex != 0u; dmaIndex--)
  63:.\Generated_Source\PSoC5/CyDmac.c ****     {
ARM GAS  C:\DOCUME~1\ADMINI~1\LOCALS~1\Temp\ccrdSJxJ.s 			page 3


  64:.\Generated_Source\PSoC5/CyDmac.c ****         CY_DMA_TDMEM_STRUCT_PTR[dmaIndex].TD0[0u] = ((uint8)(dmaIndex - 1u));
  48              		.loc 1 64 0
  49 000e 013B     		subs	r3, r3, #1
  50              	.LVL0:
  51 0010 DBB2     		uxtb	r3, r3
  52              	.LVL1:
  53 0012 02F80839 		strb	r3, [r2], #-8
  54              		.loc 1 62 0
  55 0016 002B     		cmp	r3, #0
  56 0018 F9D1     		bne	.L2
  65:.\Generated_Source\PSoC5/CyDmac.c ****     }
  66:.\Generated_Source\PSoC5/CyDmac.c **** 
  67:.\Generated_Source\PSoC5/CyDmac.c ****     /* Make the last one point to zero. */
  68:.\Generated_Source\PSoC5/CyDmac.c ****     CY_DMA_TDMEM_STRUCT_PTR[dmaIndex].TD0[0u] = 0u;
  57              		.loc 1 68 0
  58 001a 034A     		ldr	r2, .L5+8
  59 001c 1370     		strb	r3, [r2, #0]
  69:.\Generated_Source\PSoC5/CyDmac.c **** }
  60              		.loc 1 69 0
  61 001e 7047     		bx	lr
  62              	.L6:
  63              		.align	2
  64              	.L5:
  65 0020 00000000 		.word	.LANCHOR0
  66 0024 F87B0040 		.word	1073773560
  67 0028 00780040 		.word	1073772544
  68              		.cfi_endproc
  69              	.LFE0:
  70              		.size	CyDmacConfigure, .-CyDmacConfigure
  71              		.section	.text.CyDmacError,"ax",%progbits
  72              		.align	1
  73              		.global	CyDmacError
  74              		.thumb
  75              		.thumb_func
  76              		.type	CyDmacError, %function
  77              	CyDmacError:
  78              	.LFB1:
  70:.\Generated_Source\PSoC5/CyDmac.c **** 
  71:.\Generated_Source\PSoC5/CyDmac.c **** 
  72:.\Generated_Source\PSoC5/CyDmac.c **** /*******************************************************************************
  73:.\Generated_Source\PSoC5/CyDmac.c **** * Function Name: CyDmacError
  74:.\Generated_Source\PSoC5/CyDmac.c **** ********************************************************************************
  75:.\Generated_Source\PSoC5/CyDmac.c **** *
  76:.\Generated_Source\PSoC5/CyDmac.c **** * Summary:
  77:.\Generated_Source\PSoC5/CyDmac.c **** *  Returns errors of the last failed DMA transaction.
  78:.\Generated_Source\PSoC5/CyDmac.c **** *
  79:.\Generated_Source\PSoC5/CyDmac.c **** * Parameters:
  80:.\Generated_Source\PSoC5/CyDmac.c **** *  None
  81:.\Generated_Source\PSoC5/CyDmac.c **** *
  82:.\Generated_Source\PSoC5/CyDmac.c **** * Return:
  83:.\Generated_Source\PSoC5/CyDmac.c **** *  Errors of the last failed DMA transaction.
  84:.\Generated_Source\PSoC5/CyDmac.c **** *
  85:.\Generated_Source\PSoC5/CyDmac.c **** *  DMAC_PERIPH_ERR:
  86:.\Generated_Source\PSoC5/CyDmac.c **** *   Set to 1 when a peripheral responds to a bus transaction with an error
  87:.\Generated_Source\PSoC5/CyDmac.c **** *   response.
  88:.\Generated_Source\PSoC5/CyDmac.c **** *
  89:.\Generated_Source\PSoC5/CyDmac.c **** *  DMAC_UNPOP_ACC:
ARM GAS  C:\DOCUME~1\ADMINI~1\LOCALS~1\Temp\ccrdSJxJ.s 			page 4


  90:.\Generated_Source\PSoC5/CyDmac.c **** *   Set to 1 when an access is attempted to an invalid address.
  91:.\Generated_Source\PSoC5/CyDmac.c **** *
  92:.\Generated_Source\PSoC5/CyDmac.c **** *  DMAC_BUS_TIMEOUT:
  93:.\Generated_Source\PSoC5/CyDmac.c **** *   Set to 1 when a bus timeout occurs. Cleared by writing a 1. Timeout values
  94:.\Generated_Source\PSoC5/CyDmac.c **** *   are determined by the BUS_TIMEOUT field in the PHUBCFG register.
  95:.\Generated_Source\PSoC5/CyDmac.c **** *
  96:.\Generated_Source\PSoC5/CyDmac.c **** * Theory:
  97:.\Generated_Source\PSoC5/CyDmac.c **** *  Once an error occurs the error bits are sticky and are only cleared by a
  98:.\Generated_Source\PSoC5/CyDmac.c **** *  write 1 to the error register.
  99:.\Generated_Source\PSoC5/CyDmac.c **** *
 100:.\Generated_Source\PSoC5/CyDmac.c **** *******************************************************************************/
 101:.\Generated_Source\PSoC5/CyDmac.c **** uint8 CyDmacError(void) 
 102:.\Generated_Source\PSoC5/CyDmac.c **** {
  79              		.loc 1 102 0
  80              		.cfi_startproc
  81              		@ args = 0, pretend = 0, frame = 0
  82              		@ frame_needed = 0, uses_anonymous_args = 0
  83              		@ link register save eliminated.
 103:.\Generated_Source\PSoC5/CyDmac.c ****     return((uint8)(((uint32) 0x0Fu) & *CY_DMA_ERR_PTR));
  84              		.loc 1 103 0
  85 0000 024B     		ldr	r3, .L9
  86 0002 1868     		ldr	r0, [r3, #0]
 104:.\Generated_Source\PSoC5/CyDmac.c **** }
  87              		.loc 1 104 0
  88 0004 00F00F00 		and	r0, r0, #15
  89 0008 7047     		bx	lr
  90              	.L10:
  91 000a 00BF     		.align	2
  92              	.L9:
  93 000c 04700040 		.word	1073770500
  94              		.cfi_endproc
  95              	.LFE1:
  96              		.size	CyDmacError, .-CyDmacError
  97              		.section	.text.CyDmacClearError,"ax",%progbits
  98              		.align	1
  99              		.global	CyDmacClearError
 100              		.thumb
 101              		.thumb_func
 102              		.type	CyDmacClearError, %function
 103              	CyDmacClearError:
 104              	.LFB2:
 105:.\Generated_Source\PSoC5/CyDmac.c **** 
 106:.\Generated_Source\PSoC5/CyDmac.c **** 
 107:.\Generated_Source\PSoC5/CyDmac.c **** /*******************************************************************************
 108:.\Generated_Source\PSoC5/CyDmac.c **** * Function Name: CyDmacClearError
 109:.\Generated_Source\PSoC5/CyDmac.c **** ********************************************************************************
 110:.\Generated_Source\PSoC5/CyDmac.c **** *
 111:.\Generated_Source\PSoC5/CyDmac.c **** * Summary:
 112:.\Generated_Source\PSoC5/CyDmac.c **** *  Clears the error bits in the error register of the DMAC.
 113:.\Generated_Source\PSoC5/CyDmac.c **** *
 114:.\Generated_Source\PSoC5/CyDmac.c **** * Parameters:
 115:.\Generated_Source\PSoC5/CyDmac.c **** * error:
 116:.\Generated_Source\PSoC5/CyDmac.c **** *   Clears the error bits in the DMAC error register.
 117:.\Generated_Source\PSoC5/CyDmac.c **** *
 118:.\Generated_Source\PSoC5/CyDmac.c **** *  DMAC_PERIPH_ERR:
 119:.\Generated_Source\PSoC5/CyDmac.c **** *   Set to 1 when a peripheral responds to a bus transaction with an error
 120:.\Generated_Source\PSoC5/CyDmac.c **** *   response.
ARM GAS  C:\DOCUME~1\ADMINI~1\LOCALS~1\Temp\ccrdSJxJ.s 			page 5


 121:.\Generated_Source\PSoC5/CyDmac.c **** *
 122:.\Generated_Source\PSoC5/CyDmac.c **** *  DMAC_UNPOP_ACC:
 123:.\Generated_Source\PSoC5/CyDmac.c **** *   Set to 1 when an access is attempted to an invalid address.
 124:.\Generated_Source\PSoC5/CyDmac.c **** *
 125:.\Generated_Source\PSoC5/CyDmac.c **** *  DMAC_BUS_TIMEOUT:
 126:.\Generated_Source\PSoC5/CyDmac.c **** *   Set to 1 when a bus timeout occurs. Cleared by writing a 1. Timeout values
 127:.\Generated_Source\PSoC5/CyDmac.c **** *   are determined by the BUS_TIMEOUT field in the PHUBCFG register.
 128:.\Generated_Source\PSoC5/CyDmac.c **** *
 129:.\Generated_Source\PSoC5/CyDmac.c **** * Return:
 130:.\Generated_Source\PSoC5/CyDmac.c **** *  None
 131:.\Generated_Source\PSoC5/CyDmac.c **** *
 132:.\Generated_Source\PSoC5/CyDmac.c **** * Theory:
 133:.\Generated_Source\PSoC5/CyDmac.c **** *  Once an error occurs the error bits are sticky and are only cleared by a
 134:.\Generated_Source\PSoC5/CyDmac.c **** *  write 1 to the error register.
 135:.\Generated_Source\PSoC5/CyDmac.c **** *
 136:.\Generated_Source\PSoC5/CyDmac.c **** *******************************************************************************/
 137:.\Generated_Source\PSoC5/CyDmac.c **** void CyDmacClearError(uint8 error) 
 138:.\Generated_Source\PSoC5/CyDmac.c **** {
 105              		.loc 1 138 0
 106              		.cfi_startproc
 107              		@ args = 0, pretend = 0, frame = 0
 108              		@ frame_needed = 0, uses_anonymous_args = 0
 109              		@ link register save eliminated.
 110              	.LVL2:
 139:.\Generated_Source\PSoC5/CyDmac.c ****     *CY_DMA_ERR_PTR = (((uint32)0x0Fu) & ((uint32)error));
 111              		.loc 1 139 0
 112 0000 024B     		ldr	r3, .L13
 113 0002 00F00F00 		and	r0, r0, #15
 114              	.LVL3:
 115 0006 1860     		str	r0, [r3, #0]
 140:.\Generated_Source\PSoC5/CyDmac.c **** }
 116              		.loc 1 140 0
 117 0008 7047     		bx	lr
 118              	.L14:
 119 000a 00BF     		.align	2
 120              	.L13:
 121 000c 04700040 		.word	1073770500
 122              		.cfi_endproc
 123              	.LFE2:
 124              		.size	CyDmacClearError, .-CyDmacClearError
 125              		.section	.text.CyDmacErrorAddress,"ax",%progbits
 126              		.align	1
 127              		.global	CyDmacErrorAddress
 128              		.thumb
 129              		.thumb_func
 130              		.type	CyDmacErrorAddress, %function
 131              	CyDmacErrorAddress:
 132              	.LFB3:
 141:.\Generated_Source\PSoC5/CyDmac.c **** 
 142:.\Generated_Source\PSoC5/CyDmac.c **** 
 143:.\Generated_Source\PSoC5/CyDmac.c **** /*******************************************************************************
 144:.\Generated_Source\PSoC5/CyDmac.c **** * Function Name: CyDmacErrorAddress
 145:.\Generated_Source\PSoC5/CyDmac.c **** ********************************************************************************
 146:.\Generated_Source\PSoC5/CyDmac.c **** *
 147:.\Generated_Source\PSoC5/CyDmac.c **** * Summary:
 148:.\Generated_Source\PSoC5/CyDmac.c **** *  When an DMAC_BUS_TIMEOUT, DMAC_UNPOP_ACC and DMAC_PERIPH_ERR occurs the
 149:.\Generated_Source\PSoC5/CyDmac.c **** *  address of the error is written to the error address register and can be read
ARM GAS  C:\DOCUME~1\ADMINI~1\LOCALS~1\Temp\ccrdSJxJ.s 			page 6


 150:.\Generated_Source\PSoC5/CyDmac.c **** *  with this function.
 151:.\Generated_Source\PSoC5/CyDmac.c **** *
 152:.\Generated_Source\PSoC5/CyDmac.c **** *  If there are multiple errors, only the address of the first is saved.
 153:.\Generated_Source\PSoC5/CyDmac.c **** *
 154:.\Generated_Source\PSoC5/CyDmac.c **** * Parameters:
 155:.\Generated_Source\PSoC5/CyDmac.c **** *  None
 156:.\Generated_Source\PSoC5/CyDmac.c **** *
 157:.\Generated_Source\PSoC5/CyDmac.c **** * Return:
 158:.\Generated_Source\PSoC5/CyDmac.c **** *  The address that caused the error.
 159:.\Generated_Source\PSoC5/CyDmac.c **** *
 160:.\Generated_Source\PSoC5/CyDmac.c **** *******************************************************************************/
 161:.\Generated_Source\PSoC5/CyDmac.c **** uint32 CyDmacErrorAddress(void) 
 162:.\Generated_Source\PSoC5/CyDmac.c **** {
 133              		.loc 1 162 0
 134              		.cfi_startproc
 135              		@ args = 0, pretend = 0, frame = 0
 136              		@ frame_needed = 0, uses_anonymous_args = 0
 137              		@ link register save eliminated.
 163:.\Generated_Source\PSoC5/CyDmac.c ****     return(CY_GET_REG32(CY_DMA_ERR_ADR_PTR));
 138              		.loc 1 163 0
 139 0000 014B     		ldr	r3, .L17
 140 0002 1868     		ldr	r0, [r3, #0]
 164:.\Generated_Source\PSoC5/CyDmac.c **** }
 141              		.loc 1 164 0
 142 0004 7047     		bx	lr
 143              	.L18:
 144 0006 00BF     		.align	2
 145              	.L17:
 146 0008 08700040 		.word	1073770504
 147              		.cfi_endproc
 148              	.LFE3:
 149              		.size	CyDmacErrorAddress, .-CyDmacErrorAddress
 150              		.section	.text.CyDmaChEnable,"ax",%progbits
 151              		.align	1
 152              		.global	CyDmaChEnable
 153              		.thumb
 154              		.thumb_func
 155              		.type	CyDmaChEnable, %function
 156              	CyDmaChEnable:
 157              	.LFB6:
 165:.\Generated_Source\PSoC5/CyDmac.c **** 
 166:.\Generated_Source\PSoC5/CyDmac.c **** 
 167:.\Generated_Source\PSoC5/CyDmac.c **** /*******************************************************************************
 168:.\Generated_Source\PSoC5/CyDmac.c **** * Function Name: CyDmaChAlloc
 169:.\Generated_Source\PSoC5/CyDmac.c **** ********************************************************************************
 170:.\Generated_Source\PSoC5/CyDmac.c **** *
 171:.\Generated_Source\PSoC5/CyDmac.c **** * Summary:
 172:.\Generated_Source\PSoC5/CyDmac.c **** *  Allocates a channel from the DMAC to be used in all functions that require a
 173:.\Generated_Source\PSoC5/CyDmac.c **** *  channel handle.
 174:.\Generated_Source\PSoC5/CyDmac.c **** *
 175:.\Generated_Source\PSoC5/CyDmac.c **** * Parameters:
 176:.\Generated_Source\PSoC5/CyDmac.c **** *  None
 177:.\Generated_Source\PSoC5/CyDmac.c **** *
 178:.\Generated_Source\PSoC5/CyDmac.c **** * Return:
 179:.\Generated_Source\PSoC5/CyDmac.c **** *  The allocated channel number. Zero is a valid channel number.
 180:.\Generated_Source\PSoC5/CyDmac.c **** *  DMA_INVALID_CHANNEL is returned if there are no channels available.
 181:.\Generated_Source\PSoC5/CyDmac.c **** *
ARM GAS  C:\DOCUME~1\ADMINI~1\LOCALS~1\Temp\ccrdSJxJ.s 			page 7


 182:.\Generated_Source\PSoC5/CyDmac.c **** *******************************************************************************/
 183:.\Generated_Source\PSoC5/CyDmac.c **** uint8 CyDmaChAlloc(void) 
 184:.\Generated_Source\PSoC5/CyDmac.c **** {
 185:.\Generated_Source\PSoC5/CyDmac.c ****     uint8 interruptState;
 186:.\Generated_Source\PSoC5/CyDmac.c ****     uint8 dmaIndex;
 187:.\Generated_Source\PSoC5/CyDmac.c ****     uint32 channel = 1u;
 188:.\Generated_Source\PSoC5/CyDmac.c **** 
 189:.\Generated_Source\PSoC5/CyDmac.c **** 
 190:.\Generated_Source\PSoC5/CyDmac.c ****     /* Enter critical section! */
 191:.\Generated_Source\PSoC5/CyDmac.c ****     interruptState = CyEnterCriticalSection();
 192:.\Generated_Source\PSoC5/CyDmac.c **** 
 193:.\Generated_Source\PSoC5/CyDmac.c ****     /* Look for a free channel. */
 194:.\Generated_Source\PSoC5/CyDmac.c ****     for(dmaIndex = 0u; dmaIndex < CY_DMA_NUMBEROF_CHANNELS; dmaIndex++)
 195:.\Generated_Source\PSoC5/CyDmac.c ****     {
 196:.\Generated_Source\PSoC5/CyDmac.c ****         if(0uL == (CyDmaChannels & channel))
 197:.\Generated_Source\PSoC5/CyDmac.c ****         {
 198:.\Generated_Source\PSoC5/CyDmac.c ****             /* Mark the channel as used. */
 199:.\Generated_Source\PSoC5/CyDmac.c ****             CyDmaChannels |= channel;
 200:.\Generated_Source\PSoC5/CyDmac.c ****             break;
 201:.\Generated_Source\PSoC5/CyDmac.c ****         }
 202:.\Generated_Source\PSoC5/CyDmac.c **** 
 203:.\Generated_Source\PSoC5/CyDmac.c ****         channel <<= 1u;
 204:.\Generated_Source\PSoC5/CyDmac.c ****     }
 205:.\Generated_Source\PSoC5/CyDmac.c **** 
 206:.\Generated_Source\PSoC5/CyDmac.c ****     if(dmaIndex >= CY_DMA_NUMBEROF_CHANNELS)
 207:.\Generated_Source\PSoC5/CyDmac.c ****     {
 208:.\Generated_Source\PSoC5/CyDmac.c ****         dmaIndex = CY_DMA_INVALID_CHANNEL;
 209:.\Generated_Source\PSoC5/CyDmac.c ****     }
 210:.\Generated_Source\PSoC5/CyDmac.c **** 
 211:.\Generated_Source\PSoC5/CyDmac.c ****     /* Exit critical section! */
 212:.\Generated_Source\PSoC5/CyDmac.c ****     CyExitCriticalSection(interruptState);
 213:.\Generated_Source\PSoC5/CyDmac.c **** 
 214:.\Generated_Source\PSoC5/CyDmac.c ****     return(dmaIndex);
 215:.\Generated_Source\PSoC5/CyDmac.c **** }
 216:.\Generated_Source\PSoC5/CyDmac.c **** 
 217:.\Generated_Source\PSoC5/CyDmac.c **** 
 218:.\Generated_Source\PSoC5/CyDmac.c **** /*******************************************************************************
 219:.\Generated_Source\PSoC5/CyDmac.c **** * Function Name: CyDmaChFree
 220:.\Generated_Source\PSoC5/CyDmac.c **** ********************************************************************************
 221:.\Generated_Source\PSoC5/CyDmac.c **** *
 222:.\Generated_Source\PSoC5/CyDmac.c **** * Summary:
 223:.\Generated_Source\PSoC5/CyDmac.c **** *  Frees a channel allocated by DmaChAlloc().
 224:.\Generated_Source\PSoC5/CyDmac.c **** *
 225:.\Generated_Source\PSoC5/CyDmac.c **** * Parameters:
 226:.\Generated_Source\PSoC5/CyDmac.c **** *  uint8 chHandle:
 227:.\Generated_Source\PSoC5/CyDmac.c **** *   The handle previously returned by CyDmaChAlloc() or DMA_DmaInitalize().
 228:.\Generated_Source\PSoC5/CyDmac.c **** *
 229:.\Generated_Source\PSoC5/CyDmac.c **** * Return:
 230:.\Generated_Source\PSoC5/CyDmac.c **** *  CYRET_SUCCESS if successful.
 231:.\Generated_Source\PSoC5/CyDmac.c **** *  CYRET_BAD_PARAM if chHandle is invalid.
 232:.\Generated_Source\PSoC5/CyDmac.c **** *
 233:.\Generated_Source\PSoC5/CyDmac.c **** *******************************************************************************/
 234:.\Generated_Source\PSoC5/CyDmac.c **** cystatus CyDmaChFree(uint8 chHandle) 
 235:.\Generated_Source\PSoC5/CyDmac.c **** {
 236:.\Generated_Source\PSoC5/CyDmac.c ****     cystatus status = CYRET_BAD_PARAM;
 237:.\Generated_Source\PSoC5/CyDmac.c ****     uint8 interruptState;
 238:.\Generated_Source\PSoC5/CyDmac.c **** 
ARM GAS  C:\DOCUME~1\ADMINI~1\LOCALS~1\Temp\ccrdSJxJ.s 			page 8


 239:.\Generated_Source\PSoC5/CyDmac.c ****     if(chHandle < CY_DMA_NUMBEROF_CHANNELS)
 240:.\Generated_Source\PSoC5/CyDmac.c ****     {
 241:.\Generated_Source\PSoC5/CyDmac.c ****         /* Enter critical section */
 242:.\Generated_Source\PSoC5/CyDmac.c ****         interruptState = CyEnterCriticalSection();
 243:.\Generated_Source\PSoC5/CyDmac.c **** 
 244:.\Generated_Source\PSoC5/CyDmac.c ****         /* Clear the bit mask that keeps track of ownership. */
 245:.\Generated_Source\PSoC5/CyDmac.c ****         CyDmaChannels &= ~(((uint32) 1u) << chHandle);
 246:.\Generated_Source\PSoC5/CyDmac.c **** 
 247:.\Generated_Source\PSoC5/CyDmac.c ****         /* Exit critical section */
 248:.\Generated_Source\PSoC5/CyDmac.c ****         CyExitCriticalSection(interruptState);
 249:.\Generated_Source\PSoC5/CyDmac.c ****         status = CYRET_SUCCESS;
 250:.\Generated_Source\PSoC5/CyDmac.c ****     }
 251:.\Generated_Source\PSoC5/CyDmac.c **** 
 252:.\Generated_Source\PSoC5/CyDmac.c ****     return(status);
 253:.\Generated_Source\PSoC5/CyDmac.c **** }
 254:.\Generated_Source\PSoC5/CyDmac.c **** 
 255:.\Generated_Source\PSoC5/CyDmac.c **** 
 256:.\Generated_Source\PSoC5/CyDmac.c **** /*******************************************************************************
 257:.\Generated_Source\PSoC5/CyDmac.c **** * Function Name: CyDmaChEnable
 258:.\Generated_Source\PSoC5/CyDmac.c **** ********************************************************************************
 259:.\Generated_Source\PSoC5/CyDmac.c **** *
 260:.\Generated_Source\PSoC5/CyDmac.c **** * Summary:
 261:.\Generated_Source\PSoC5/CyDmac.c **** *  Enables the DMA channel. A software or hardware request still must happen
 262:.\Generated_Source\PSoC5/CyDmac.c **** *  before the channel is executed.
 263:.\Generated_Source\PSoC5/CyDmac.c **** *
 264:.\Generated_Source\PSoC5/CyDmac.c **** * Parameters:
 265:.\Generated_Source\PSoC5/CyDmac.c **** *  uint8 chHandle:
 266:.\Generated_Source\PSoC5/CyDmac.c **** *   A handle previously returned by CyDmaChAlloc() or DMA_DmaInitalize().
 267:.\Generated_Source\PSoC5/CyDmac.c **** *
 268:.\Generated_Source\PSoC5/CyDmac.c **** *  uint8 preserveTds:
 269:.\Generated_Source\PSoC5/CyDmac.c **** *   Preserves the original TD state when the TD has completed. This parameter
 270:.\Generated_Source\PSoC5/CyDmac.c **** *   applies to all TDs in the channel.
 271:.\Generated_Source\PSoC5/CyDmac.c **** *
 272:.\Generated_Source\PSoC5/CyDmac.c **** *   0 - When a TD is completed, the DMAC leaves the TD configuration values in
 273:.\Generated_Source\PSoC5/CyDmac.c **** *   their current state, and does not restore them to their original state.
 274:.\Generated_Source\PSoC5/CyDmac.c **** *
 275:.\Generated_Source\PSoC5/CyDmac.c **** *   1 - When a TD is completed, the DMAC restores the original configuration
 276:.\Generated_Source\PSoC5/CyDmac.c **** *   values of the TD.
 277:.\Generated_Source\PSoC5/CyDmac.c **** *
 278:.\Generated_Source\PSoC5/CyDmac.c **** *  When preserveTds is set, the TD slot that equals the channel number becomes
 279:.\Generated_Source\PSoC5/CyDmac.c **** *  RESERVED and that becomes where the working registers exist. So, for example,
 280:.\Generated_Source\PSoC5/CyDmac.c **** *  if you are using CH06 and preserveTds is set, you are not allowed to use TD
 281:.\Generated_Source\PSoC5/CyDmac.c **** *  slot 6. That is reclaimed by the DMA engine for its private use.
 282:.\Generated_Source\PSoC5/CyDmac.c **** *
 283:.\Generated_Source\PSoC5/CyDmac.c **** *  Note Do not chain back to a completed TD if the preserveTds for the channel
 284:.\Generated_Source\PSoC5/CyDmac.c **** *  is set to 0. When a TD has completed preserveTds for the channel set to 0,
 285:.\Generated_Source\PSoC5/CyDmac.c **** *  the transfer count will be at 0. If a TD with a transfer count of 0 is
 286:.\Generated_Source\PSoC5/CyDmac.c **** *  started, the TD will transfer an indefinite amount of data.
 287:.\Generated_Source\PSoC5/CyDmac.c **** *
 288:.\Generated_Source\PSoC5/CyDmac.c **** *  Take extra precautions when using the hardware request (DRQ) option when the
 289:.\Generated_Source\PSoC5/CyDmac.c **** *  preserveTds is set to 0, as you might be requesting the wrong data.
 290:.\Generated_Source\PSoC5/CyDmac.c **** *
 291:.\Generated_Source\PSoC5/CyDmac.c **** * Return:
 292:.\Generated_Source\PSoC5/CyDmac.c **** *  CYRET_SUCCESS if successful.
 293:.\Generated_Source\PSoC5/CyDmac.c **** *  CYRET_BAD_PARAM if chHandle is invalid.
 294:.\Generated_Source\PSoC5/CyDmac.c **** *
 295:.\Generated_Source\PSoC5/CyDmac.c **** *******************************************************************************/
ARM GAS  C:\DOCUME~1\ADMINI~1\LOCALS~1\Temp\ccrdSJxJ.s 			page 9


 296:.\Generated_Source\PSoC5/CyDmac.c **** cystatus CyDmaChEnable(uint8 chHandle, uint8 preserveTds) 
 297:.\Generated_Source\PSoC5/CyDmac.c **** {
 158              		.loc 1 297 0
 159              		.cfi_startproc
 160              		@ args = 0, pretend = 0, frame = 0
 161              		@ frame_needed = 0, uses_anonymous_args = 0
 162              		@ link register save eliminated.
 163              	.LVL4:
 298:.\Generated_Source\PSoC5/CyDmac.c ****     cystatus status = CYRET_BAD_PARAM;
 299:.\Generated_Source\PSoC5/CyDmac.c **** 
 300:.\Generated_Source\PSoC5/CyDmac.c ****     if(chHandle < CY_DMA_NUMBEROF_CHANNELS)
 164              		.loc 1 300 0
 165 0000 1728     		cmp	r0, #23
 166 0002 01D9     		bls	.L20
 167 0004 0120     		movs	r0, #1
 168              	.LVL5:
 169 0006 7047     		bx	lr
 170              	.LVL6:
 171              	.L20:
 301:.\Generated_Source\PSoC5/CyDmac.c ****     {
 302:.\Generated_Source\PSoC5/CyDmac.c ****         CY_DMA_CH_STRUCT_PTR[chHandle].basic_cfg[0u] =
 303:.\Generated_Source\PSoC5/CyDmac.c ****                 (CY_DMA_CH_STRUCT_PTR[chHandle].basic_cfg[0u] & ((uint8)(~0x20u))) | ((0u != preser
 172              		.loc 1 303 0
 173 0008 064B     		ldr	r3, .L25
 174 000a 0001     		lsls	r0, r0, #4
 175              	.LVL7:
 176 000c C25C     		ldrb	r2, [r0, r3]	@ zero_extendqisi2
 177              		.loc 1 302 0
 178 000e 0029     		cmp	r1, #0
 179 0010 14BF     		ite	ne
 180 0012 2121     		movne	r1, #33
 181 0014 0121     		moveq	r1, #1
 182              	.LVL8:
 183 0016 02F0DF02 		and	r2, r2, #223
 184 001a 1143     		orrs	r1, r1, r2
 185 001c C154     		strb	r1, [r0, r3]
 186 001e 0020     		movs	r0, #0
 187              	.LVL9:
 188              	.LVL10:
 304:.\Generated_Source\PSoC5/CyDmac.c ****         status = CYRET_SUCCESS;
 305:.\Generated_Source\PSoC5/CyDmac.c ****     }
 306:.\Generated_Source\PSoC5/CyDmac.c **** 
 307:.\Generated_Source\PSoC5/CyDmac.c ****     return(status);
 308:.\Generated_Source\PSoC5/CyDmac.c **** }
 189              		.loc 1 308 0
 190 0020 7047     		bx	lr
 191              	.L26:
 192 0022 00BF     		.align	2
 193              	.L25:
 194 0024 10700040 		.word	1073770512
 195              		.cfi_endproc
 196              	.LFE6:
 197              		.size	CyDmaChEnable, .-CyDmaChEnable
 198              		.section	.text.CyDmaChDisable,"ax",%progbits
 199              		.align	1
 200              		.global	CyDmaChDisable
 201              		.thumb
ARM GAS  C:\DOCUME~1\ADMINI~1\LOCALS~1\Temp\ccrdSJxJ.s 			page 10


 202              		.thumb_func
 203              		.type	CyDmaChDisable, %function
 204              	CyDmaChDisable:
 205              	.LFB7:
 309:.\Generated_Source\PSoC5/CyDmac.c **** 
 310:.\Generated_Source\PSoC5/CyDmac.c **** 
 311:.\Generated_Source\PSoC5/CyDmac.c **** /*******************************************************************************
 312:.\Generated_Source\PSoC5/CyDmac.c **** * Function Name: CyDmaChDisable
 313:.\Generated_Source\PSoC5/CyDmac.c **** ********************************************************************************
 314:.\Generated_Source\PSoC5/CyDmac.c **** *
 315:.\Generated_Source\PSoC5/CyDmac.c **** * Summary:
 316:.\Generated_Source\PSoC5/CyDmac.c **** *  Disables the DMA channel. Once this function is called, CyDmaChStatus() may
 317:.\Generated_Source\PSoC5/CyDmac.c **** *  be called to determine when the channel is disabled and which TDs were being
 318:.\Generated_Source\PSoC5/CyDmac.c **** *  executed.
 319:.\Generated_Source\PSoC5/CyDmac.c **** *
 320:.\Generated_Source\PSoC5/CyDmac.c **** *  If it is currently executing it will allow the current burst to finish
 321:.\Generated_Source\PSoC5/CyDmac.c **** *  naturally.
 322:.\Generated_Source\PSoC5/CyDmac.c **** *
 323:.\Generated_Source\PSoC5/CyDmac.c **** * Parameters:
 324:.\Generated_Source\PSoC5/CyDmac.c **** *  uint8 chHandle:
 325:.\Generated_Source\PSoC5/CyDmac.c **** *   A handle previously returned by CyDmaChAlloc() or DMA_DmaInitalize().
 326:.\Generated_Source\PSoC5/CyDmac.c **** *
 327:.\Generated_Source\PSoC5/CyDmac.c **** * Return:
 328:.\Generated_Source\PSoC5/CyDmac.c **** *  CYRET_SUCCESS if successful.
 329:.\Generated_Source\PSoC5/CyDmac.c **** *  CYRET_BAD_PARAM if chHandle is invalid.
 330:.\Generated_Source\PSoC5/CyDmac.c **** *
 331:.\Generated_Source\PSoC5/CyDmac.c **** *******************************************************************************/
 332:.\Generated_Source\PSoC5/CyDmac.c **** cystatus CyDmaChDisable(uint8 chHandle) 
 333:.\Generated_Source\PSoC5/CyDmac.c **** {
 206              		.loc 1 333 0
 207              		.cfi_startproc
 208              		@ args = 0, pretend = 0, frame = 0
 209              		@ frame_needed = 0, uses_anonymous_args = 0
 210              		@ link register save eliminated.
 211              	.LVL11:
 334:.\Generated_Source\PSoC5/CyDmac.c ****     cystatus status = CYRET_BAD_PARAM;
 335:.\Generated_Source\PSoC5/CyDmac.c **** 
 336:.\Generated_Source\PSoC5/CyDmac.c ****     if(chHandle < CY_DMA_NUMBEROF_CHANNELS)
 212              		.loc 1 336 0
 213 0000 1728     		cmp	r0, #23
 214 0002 01D9     		bls	.L28
 215 0004 0120     		movs	r0, #1
 216              	.LVL12:
 217 0006 7047     		bx	lr
 218              	.LVL13:
 219              	.L28:
 337:.\Generated_Source\PSoC5/CyDmac.c ****     {
 338:.\Generated_Source\PSoC5/CyDmac.c ****         CY_DMA_CH_STRUCT_PTR[chHandle].basic_cfg[0] &= ((uint8) (~0x21u));
 220              		.loc 1 338 0
 221 0008 034B     		ldr	r3, .L31
 222 000a 0001     		lsls	r0, r0, #4
 223              	.LVL14:
 224 000c C25C     		ldrb	r2, [r0, r3]	@ zero_extendqisi2
 225 000e 02F0DE02 		and	r2, r2, #222
 226 0012 C254     		strb	r2, [r0, r3]
 227 0014 0020     		movs	r0, #0
 228              	.LVL15:
ARM GAS  C:\DOCUME~1\ADMINI~1\LOCALS~1\Temp\ccrdSJxJ.s 			page 11


 229              	.LVL16:
 339:.\Generated_Source\PSoC5/CyDmac.c ****         status = CYRET_SUCCESS;
 340:.\Generated_Source\PSoC5/CyDmac.c ****     }
 341:.\Generated_Source\PSoC5/CyDmac.c **** 
 342:.\Generated_Source\PSoC5/CyDmac.c ****     return(status);
 343:.\Generated_Source\PSoC5/CyDmac.c **** }
 230              		.loc 1 343 0
 231 0016 7047     		bx	lr
 232              	.L32:
 233              		.align	2
 234              	.L31:
 235 0018 10700040 		.word	1073770512
 236              		.cfi_endproc
 237              	.LFE7:
 238              		.size	CyDmaChDisable, .-CyDmaChDisable
 239              		.section	.text.CyDmaClearPendingDrq,"ax",%progbits
 240              		.align	1
 241              		.global	CyDmaClearPendingDrq
 242              		.thumb
 243              		.thumb_func
 244              		.type	CyDmaClearPendingDrq, %function
 245              	CyDmaClearPendingDrq:
 246              	.LFB8:
 344:.\Generated_Source\PSoC5/CyDmac.c **** 
 345:.\Generated_Source\PSoC5/CyDmac.c **** 
 346:.\Generated_Source\PSoC5/CyDmac.c **** /*******************************************************************************
 347:.\Generated_Source\PSoC5/CyDmac.c **** * Function Name: CyDmaClearPendingDrq
 348:.\Generated_Source\PSoC5/CyDmac.c **** ********************************************************************************
 349:.\Generated_Source\PSoC5/CyDmac.c **** *
 350:.\Generated_Source\PSoC5/CyDmac.c **** * Summary:
 351:.\Generated_Source\PSoC5/CyDmac.c **** *  Clears pending DMA data request.
 352:.\Generated_Source\PSoC5/CyDmac.c **** *
 353:.\Generated_Source\PSoC5/CyDmac.c **** * Parameters:
 354:.\Generated_Source\PSoC5/CyDmac.c **** *  uint8 chHandle:
 355:.\Generated_Source\PSoC5/CyDmac.c **** *   Handle to the dma channel.
 356:.\Generated_Source\PSoC5/CyDmac.c **** *
 357:.\Generated_Source\PSoC5/CyDmac.c **** * Return:
 358:.\Generated_Source\PSoC5/CyDmac.c **** *  CYRET_SUCCESS if successful.
 359:.\Generated_Source\PSoC5/CyDmac.c **** *  CYRET_BAD_PARAM if chHandle is invalid.
 360:.\Generated_Source\PSoC5/CyDmac.c **** *
 361:.\Generated_Source\PSoC5/CyDmac.c **** *******************************************************************************/
 362:.\Generated_Source\PSoC5/CyDmac.c **** cystatus CyDmaClearPendingDrq(uint8 chHandle) 
 363:.\Generated_Source\PSoC5/CyDmac.c **** {
 247              		.loc 1 363 0
 248              		.cfi_startproc
 249              		@ args = 0, pretend = 0, frame = 0
 250              		@ frame_needed = 0, uses_anonymous_args = 0
 251              		@ link register save eliminated.
 252              	.LVL17:
 364:.\Generated_Source\PSoC5/CyDmac.c ****     cystatus status = CYRET_BAD_PARAM;
 365:.\Generated_Source\PSoC5/CyDmac.c **** 
 366:.\Generated_Source\PSoC5/CyDmac.c ****     if(chHandle < CY_DMA_NUMBEROF_CHANNELS)
 253              		.loc 1 366 0
 254 0000 1728     		cmp	r0, #23
 255 0002 01D9     		bls	.L34
 256 0004 0120     		movs	r0, #1
 257              	.LVL18:
ARM GAS  C:\DOCUME~1\ADMINI~1\LOCALS~1\Temp\ccrdSJxJ.s 			page 12


 258 0006 7047     		bx	lr
 259              	.LVL19:
 260              	.L34:
 367:.\Generated_Source\PSoC5/CyDmac.c ****     {
 368:.\Generated_Source\PSoC5/CyDmac.c ****         CY_DMA_CH_STRUCT_PTR[chHandle].action[0] |= CY_DMA_CPU_TERM_CHAIN;
 261              		.loc 1 368 0
 262 0008 064A     		ldr	r2, .L37
 263 000a 0001     		lsls	r0, r0, #4
 264              	.LVL20:
 265 000c 8318     		adds	r3, r0, r2
 266 000e 1979     		ldrb	r1, [r3, #4]	@ zero_extendqisi2
 267 0010 41F00401 		orr	r1, r1, #4
 268 0014 1971     		strb	r1, [r3, #4]
 369:.\Generated_Source\PSoC5/CyDmac.c ****         CY_DMA_CH_STRUCT_PTR[chHandle].basic_cfg[0] |= 0x01u;
 269              		.loc 1 369 0
 270 0016 835C     		ldrb	r3, [r0, r2]	@ zero_extendqisi2
 271 0018 43F00103 		orr	r3, r3, #1
 272 001c 8354     		strb	r3, [r0, r2]
 273 001e 0020     		movs	r0, #0
 274              	.LVL21:
 275              	.LVL22:
 370:.\Generated_Source\PSoC5/CyDmac.c ****         status = CYRET_SUCCESS;
 371:.\Generated_Source\PSoC5/CyDmac.c ****     }
 372:.\Generated_Source\PSoC5/CyDmac.c **** 
 373:.\Generated_Source\PSoC5/CyDmac.c ****     return(status);
 374:.\Generated_Source\PSoC5/CyDmac.c **** }
 276              		.loc 1 374 0
 277 0020 7047     		bx	lr
 278              	.L38:
 279 0022 00BF     		.align	2
 280              	.L37:
 281 0024 10700040 		.word	1073770512
 282              		.cfi_endproc
 283              	.LFE8:
 284              		.size	CyDmaClearPendingDrq, .-CyDmaClearPendingDrq
 285              		.section	.text.CyDmaChPriority,"ax",%progbits
 286              		.align	1
 287              		.global	CyDmaChPriority
 288              		.thumb
 289              		.thumb_func
 290              		.type	CyDmaChPriority, %function
 291              	CyDmaChPriority:
 292              	.LFB9:
 375:.\Generated_Source\PSoC5/CyDmac.c **** 
 376:.\Generated_Source\PSoC5/CyDmac.c **** 
 377:.\Generated_Source\PSoC5/CyDmac.c **** /*******************************************************************************
 378:.\Generated_Source\PSoC5/CyDmac.c **** * Function Name: CyDmaChPriority
 379:.\Generated_Source\PSoC5/CyDmac.c **** ********************************************************************************
 380:.\Generated_Source\PSoC5/CyDmac.c **** *
 381:.\Generated_Source\PSoC5/CyDmac.c **** * Summary:
 382:.\Generated_Source\PSoC5/CyDmac.c **** *  Sets the priority of a DMA channel. You can use this function when you want
 383:.\Generated_Source\PSoC5/CyDmac.c **** *  to change the priority at run time. If the priority remains the same for a
 384:.\Generated_Source\PSoC5/CyDmac.c **** *  DMA channel, then you can configure the priority in the .cydwr file.
 385:.\Generated_Source\PSoC5/CyDmac.c **** *
 386:.\Generated_Source\PSoC5/CyDmac.c **** * Parameters:
 387:.\Generated_Source\PSoC5/CyDmac.c **** *  uint8 chHandle:
 388:.\Generated_Source\PSoC5/CyDmac.c **** *   A handle previously returned by CyDmaChAlloc() or DMA_DmaInitalize().
ARM GAS  C:\DOCUME~1\ADMINI~1\LOCALS~1\Temp\ccrdSJxJ.s 			page 13


 389:.\Generated_Source\PSoC5/CyDmac.c **** *
 390:.\Generated_Source\PSoC5/CyDmac.c **** *  uint8 priority:
 391:.\Generated_Source\PSoC5/CyDmac.c **** *   Priority to set the channel to, 0 - 7.
 392:.\Generated_Source\PSoC5/CyDmac.c **** *
 393:.\Generated_Source\PSoC5/CyDmac.c **** * Return:
 394:.\Generated_Source\PSoC5/CyDmac.c **** *  CYRET_SUCCESS if successful.
 395:.\Generated_Source\PSoC5/CyDmac.c **** *  CYRET_BAD_PARAM if chHandle is invalid.
 396:.\Generated_Source\PSoC5/CyDmac.c **** *
 397:.\Generated_Source\PSoC5/CyDmac.c **** *******************************************************************************/
 398:.\Generated_Source\PSoC5/CyDmac.c **** cystatus CyDmaChPriority(uint8 chHandle, uint8 priority) 
 399:.\Generated_Source\PSoC5/CyDmac.c **** {
 293              		.loc 1 399 0
 294              		.cfi_startproc
 295              		@ args = 0, pretend = 0, frame = 0
 296              		@ frame_needed = 0, uses_anonymous_args = 0
 297              		@ link register save eliminated.
 298              	.LVL23:
 400:.\Generated_Source\PSoC5/CyDmac.c ****     uint8 value;
 401:.\Generated_Source\PSoC5/CyDmac.c ****     cystatus status = CYRET_BAD_PARAM;
 402:.\Generated_Source\PSoC5/CyDmac.c **** 
 403:.\Generated_Source\PSoC5/CyDmac.c ****     if(chHandle < CY_DMA_NUMBEROF_CHANNELS)
 299              		.loc 1 403 0
 300 0000 1728     		cmp	r0, #23
 301 0002 01D9     		bls	.L40
 302 0004 0120     		movs	r0, #1
 303              	.LVL24:
 304 0006 7047     		bx	lr
 305              	.LVL25:
 306              	.L40:
 404:.\Generated_Source\PSoC5/CyDmac.c ****     {
 405:.\Generated_Source\PSoC5/CyDmac.c ****         value = CY_DMA_CH_STRUCT_PTR[chHandle].basic_cfg[0u] & ((uint8)(~(0x0Eu)));
 307              		.loc 1 405 0
 308 0008 054B     		ldr	r3, .L43
 309 000a 0001     		lsls	r0, r0, #4
 310              	.LVL26:
 311 000c C25C     		ldrb	r2, [r0, r3]	@ zero_extendqisi2
 406:.\Generated_Source\PSoC5/CyDmac.c **** 
 407:.\Generated_Source\PSoC5/CyDmac.c ****         CY_DMA_CH_STRUCT_PTR[chHandle].basic_cfg[0u] = value | ((uint8) ((priority & 0x7u) << 0x01u
 312              		.loc 1 407 0
 313 000e 01F00701 		and	r1, r1, #7
 314              	.LVL27:
 315 0012 02F0F102 		and	r2, r2, #241
 316 0016 42EA4101 		orr	r1, r2, r1, lsl #1
 317 001a C154     		strb	r1, [r0, r3]
 318 001c 0020     		movs	r0, #0
 319              	.LVL28:
 320              	.LVL29:
 408:.\Generated_Source\PSoC5/CyDmac.c **** 
 409:.\Generated_Source\PSoC5/CyDmac.c ****         status = CYRET_SUCCESS;
 410:.\Generated_Source\PSoC5/CyDmac.c ****     }
 411:.\Generated_Source\PSoC5/CyDmac.c **** 
 412:.\Generated_Source\PSoC5/CyDmac.c ****     return(status);
 413:.\Generated_Source\PSoC5/CyDmac.c **** }
 321              		.loc 1 413 0
 322 001e 7047     		bx	lr
 323              	.L44:
 324              		.align	2
ARM GAS  C:\DOCUME~1\ADMINI~1\LOCALS~1\Temp\ccrdSJxJ.s 			page 14


 325              	.L43:
 326 0020 10700040 		.word	1073770512
 327              		.cfi_endproc
 328              	.LFE9:
 329              		.size	CyDmaChPriority, .-CyDmaChPriority
 330              		.section	.text.CyDmaChSetExtendedAddress,"ax",%progbits
 331              		.align	1
 332              		.global	CyDmaChSetExtendedAddress
 333              		.thumb
 334              		.thumb_func
 335              		.type	CyDmaChSetExtendedAddress, %function
 336              	CyDmaChSetExtendedAddress:
 337              	.LFB10:
 414:.\Generated_Source\PSoC5/CyDmac.c **** 
 415:.\Generated_Source\PSoC5/CyDmac.c **** 
 416:.\Generated_Source\PSoC5/CyDmac.c **** /*******************************************************************************
 417:.\Generated_Source\PSoC5/CyDmac.c **** * Function Name: CyDmaChSetExtendedAddress
 418:.\Generated_Source\PSoC5/CyDmac.c **** ********************************************************************************
 419:.\Generated_Source\PSoC5/CyDmac.c **** *
 420:.\Generated_Source\PSoC5/CyDmac.c **** * Summary:
 421:.\Generated_Source\PSoC5/CyDmac.c **** *  Sets the high 16 bits of the source and destination addresses for the DMA
 422:.\Generated_Source\PSoC5/CyDmac.c **** *  channel (valid for all TDs in the chain).
 423:.\Generated_Source\PSoC5/CyDmac.c **** *
 424:.\Generated_Source\PSoC5/CyDmac.c **** * Parameters:
 425:.\Generated_Source\PSoC5/CyDmac.c **** *  uint8 chHandle:
 426:.\Generated_Source\PSoC5/CyDmac.c **** *   A handle previously returned by CyDmaChAlloc() or DMA_DmaInitalize().
 427:.\Generated_Source\PSoC5/CyDmac.c **** *
 428:.\Generated_Source\PSoC5/CyDmac.c **** *  uint16 source:
 429:.\Generated_Source\PSoC5/CyDmac.c **** *   Upper 16 bit address of the DMA transfer source.
 430:.\Generated_Source\PSoC5/CyDmac.c **** *
 431:.\Generated_Source\PSoC5/CyDmac.c **** *  uint16 destination:
 432:.\Generated_Source\PSoC5/CyDmac.c **** *   Upper 16 bit address of the DMA transfer destination.
 433:.\Generated_Source\PSoC5/CyDmac.c **** *
 434:.\Generated_Source\PSoC5/CyDmac.c **** * Return:
 435:.\Generated_Source\PSoC5/CyDmac.c **** *  CYRET_SUCCESS if successful.
 436:.\Generated_Source\PSoC5/CyDmac.c **** *  CYRET_BAD_PARAM if chHandle is invalid.
 437:.\Generated_Source\PSoC5/CyDmac.c **** *
 438:.\Generated_Source\PSoC5/CyDmac.c **** *******************************************************************************/
 439:.\Generated_Source\PSoC5/CyDmac.c **** cystatus CyDmaChSetExtendedAddress(uint8 chHandle, uint16 source, uint16 destination) \
 440:.\Generated_Source\PSoC5/CyDmac.c ****     
 441:.\Generated_Source\PSoC5/CyDmac.c **** {
 338              		.loc 1 441 0
 339              		.cfi_startproc
 340              		@ args = 0, pretend = 0, frame = 0
 341              		@ frame_needed = 0, uses_anonymous_args = 0
 342              		@ link register save eliminated.
 343              	.LVL30:
 442:.\Generated_Source\PSoC5/CyDmac.c ****     cystatus status = CYRET_BAD_PARAM;
 443:.\Generated_Source\PSoC5/CyDmac.c **** 
 444:.\Generated_Source\PSoC5/CyDmac.c ****     #if(CY_PSOC5)
 445:.\Generated_Source\PSoC5/CyDmac.c **** 
 446:.\Generated_Source\PSoC5/CyDmac.c ****         /* 0x1FFF8000-0x1FFFFFFF needs to use alias at 0x20008000-0x2000FFFF */
 447:.\Generated_Source\PSoC5/CyDmac.c ****         if(source == 0x1FFFu)
 344              		.loc 1 447 0
 345 0000 41F6FF73 		movw	r3, #8191
 346 0004 9942     		cmp	r1, r3
 347 0006 08BF     		it	eq
ARM GAS  C:\DOCUME~1\ADMINI~1\LOCALS~1\Temp\ccrdSJxJ.s 			page 15


 348 0008 4FF40051 		moveq	r1, #8192
 349              	.LVL31:
 448:.\Generated_Source\PSoC5/CyDmac.c ****         {
 449:.\Generated_Source\PSoC5/CyDmac.c ****             source = 0x2000u;
 450:.\Generated_Source\PSoC5/CyDmac.c ****         }
 451:.\Generated_Source\PSoC5/CyDmac.c **** 
 452:.\Generated_Source\PSoC5/CyDmac.c ****         if(destination == 0x1FFFu)
 350              		.loc 1 452 0
 351 000c 9A42     		cmp	r2, r3
 352 000e 08BF     		it	eq
 353 0010 4FF40052 		moveq	r2, #8192
 354              	.LVL32:
 453:.\Generated_Source\PSoC5/CyDmac.c ****         {
 454:.\Generated_Source\PSoC5/CyDmac.c ****             destination = 0x2000u;
 455:.\Generated_Source\PSoC5/CyDmac.c ****         }
 456:.\Generated_Source\PSoC5/CyDmac.c **** 
 457:.\Generated_Source\PSoC5/CyDmac.c ****     #endif  /* (CY_PSOC5) */
 458:.\Generated_Source\PSoC5/CyDmac.c **** 
 459:.\Generated_Source\PSoC5/CyDmac.c **** 
 460:.\Generated_Source\PSoC5/CyDmac.c ****     if(chHandle < CY_DMA_NUMBEROF_CHANNELS)
 355              		.loc 1 460 0
 356 0014 1728     		cmp	r0, #23
 357 0016 01D9     		bls	.L48
 358 0018 0120     		movs	r0, #1
 359              	.LVL33:
 360 001a 7047     		bx	lr
 361              	.LVL34:
 362              	.L48:
 363              	.LBB2:
 461:.\Generated_Source\PSoC5/CyDmac.c ****     {
 462:.\Generated_Source\PSoC5/CyDmac.c ****         /* Set source address */
 463:.\Generated_Source\PSoC5/CyDmac.c ****         reg16 *convert = (reg16 *) &CY_DMA_CFGMEM_STRUCT_PTR[chHandle].CFG1[0];
 364              		.loc 1 463 0
 365 001c C000     		lsls	r0, r0, #3
 366              	.LVL35:
 367 001e 00F18040 		add	r0, r0, #1073741824
 368 0022 00F5EC40 		add	r0, r0, #30208
 464:.\Generated_Source\PSoC5/CyDmac.c ****         CY_SET_REG16(convert, source);
 369              		.loc 1 464 0
 370 0026 8180     		strh	r1, [r0, #4]	@ movhi
 465:.\Generated_Source\PSoC5/CyDmac.c **** 
 466:.\Generated_Source\PSoC5/CyDmac.c ****         /* Set destination address */
 467:.\Generated_Source\PSoC5/CyDmac.c ****         CY_SET_REG16((reg16 *) &CY_DMA_CFGMEM_STRUCT_PTR[chHandle].CFG1[2], destination);
 371              		.loc 1 467 0
 372 0028 C280     		strh	r2, [r0, #6]	@ movhi
 373 002a 0020     		movs	r0, #0
 374              	.LVL36:
 375              	.LVL37:
 376              	.LBE2:
 468:.\Generated_Source\PSoC5/CyDmac.c ****         status = CYRET_SUCCESS;
 469:.\Generated_Source\PSoC5/CyDmac.c ****     }
 470:.\Generated_Source\PSoC5/CyDmac.c **** 
 471:.\Generated_Source\PSoC5/CyDmac.c ****     return(status);
 472:.\Generated_Source\PSoC5/CyDmac.c **** }
 377              		.loc 1 472 0
 378 002c 7047     		bx	lr
 379              		.cfi_endproc
ARM GAS  C:\DOCUME~1\ADMINI~1\LOCALS~1\Temp\ccrdSJxJ.s 			page 16


 380              	.LFE10:
 381              		.size	CyDmaChSetExtendedAddress, .-CyDmaChSetExtendedAddress
 382              		.section	.text.CyDmaChSetInitialTd,"ax",%progbits
 383              		.align	1
 384              		.global	CyDmaChSetInitialTd
 385              		.thumb
 386              		.thumb_func
 387              		.type	CyDmaChSetInitialTd, %function
 388              	CyDmaChSetInitialTd:
 389              	.LFB11:
 473:.\Generated_Source\PSoC5/CyDmac.c **** 
 474:.\Generated_Source\PSoC5/CyDmac.c **** 
 475:.\Generated_Source\PSoC5/CyDmac.c **** /*******************************************************************************
 476:.\Generated_Source\PSoC5/CyDmac.c **** * Function Name: CyDmaChSetInitialTd
 477:.\Generated_Source\PSoC5/CyDmac.c **** ********************************************************************************
 478:.\Generated_Source\PSoC5/CyDmac.c **** *
 479:.\Generated_Source\PSoC5/CyDmac.c **** * Summary:
 480:.\Generated_Source\PSoC5/CyDmac.c **** *  Sets the initial TD to be executed for the channel when the CyDmaChEnable()
 481:.\Generated_Source\PSoC5/CyDmac.c **** *  function is called.
 482:.\Generated_Source\PSoC5/CyDmac.c **** *
 483:.\Generated_Source\PSoC5/CyDmac.c **** * Parameters:
 484:.\Generated_Source\PSoC5/CyDmac.c **** *  uint8 chHandle:
 485:.\Generated_Source\PSoC5/CyDmac.c **** *   A handle previously returned by CyDmaChAlloc() or DMA_DmaInitialize().
 486:.\Generated_Source\PSoC5/CyDmac.c **** *
 487:.\Generated_Source\PSoC5/CyDmac.c **** *  uint8 startTd:
 488:.\Generated_Source\PSoC5/CyDmac.c **** *   The index of TD to set as the first TD associated with the channel. Zero is
 489:.\Generated_Source\PSoC5/CyDmac.c **** *   a valid TD index.
 490:.\Generated_Source\PSoC5/CyDmac.c **** *
 491:.\Generated_Source\PSoC5/CyDmac.c **** * Return:
 492:.\Generated_Source\PSoC5/CyDmac.c **** *  CYRET_SUCCESS if successful.
 493:.\Generated_Source\PSoC5/CyDmac.c **** *  CYRET_BAD_PARAM if chHandle is invalid.
 494:.\Generated_Source\PSoC5/CyDmac.c **** *
 495:.\Generated_Source\PSoC5/CyDmac.c **** *******************************************************************************/
 496:.\Generated_Source\PSoC5/CyDmac.c **** cystatus CyDmaChSetInitialTd(uint8 chHandle, uint8 startTd) 
 497:.\Generated_Source\PSoC5/CyDmac.c **** {
 390              		.loc 1 497 0
 391              		.cfi_startproc
 392              		@ args = 0, pretend = 0, frame = 0
 393              		@ frame_needed = 0, uses_anonymous_args = 0
 394              		@ link register save eliminated.
 395              	.LVL38:
 498:.\Generated_Source\PSoC5/CyDmac.c ****     cystatus status = CYRET_BAD_PARAM;
 499:.\Generated_Source\PSoC5/CyDmac.c **** 
 500:.\Generated_Source\PSoC5/CyDmac.c ****     if(chHandle < CY_DMA_NUMBEROF_CHANNELS)
 396              		.loc 1 500 0
 397 0000 1728     		cmp	r0, #23
 398 0002 01D9     		bls	.L52
 399 0004 0120     		movs	r0, #1
 400              	.LVL39:
 401 0006 7047     		bx	lr
 402              	.LVL40:
 403              	.L52:
 501:.\Generated_Source\PSoC5/CyDmac.c ****     {
 502:.\Generated_Source\PSoC5/CyDmac.c ****         CY_DMA_CH_STRUCT_PTR[chHandle].basic_status[1u] = startTd;
 404              		.loc 1 502 0
 405 0008 024B     		ldr	r3, .L55
 406 000a 0001     		lsls	r0, r0, #4
ARM GAS  C:\DOCUME~1\ADMINI~1\LOCALS~1\Temp\ccrdSJxJ.s 			page 17


 407              	.LVL41:
 408 000c C318     		adds	r3, r0, r3
 409 000e 5972     		strb	r1, [r3, #9]
 410 0010 0020     		movs	r0, #0
 411              	.LVL42:
 412              	.LVL43:
 503:.\Generated_Source\PSoC5/CyDmac.c ****         status = CYRET_SUCCESS;
 504:.\Generated_Source\PSoC5/CyDmac.c ****     }
 505:.\Generated_Source\PSoC5/CyDmac.c **** 
 506:.\Generated_Source\PSoC5/CyDmac.c ****     return(status);
 507:.\Generated_Source\PSoC5/CyDmac.c **** }
 413              		.loc 1 507 0
 414 0012 7047     		bx	lr
 415              	.L56:
 416              		.align	2
 417              	.L55:
 418 0014 10700040 		.word	1073770512
 419              		.cfi_endproc
 420              	.LFE11:
 421              		.size	CyDmaChSetInitialTd, .-CyDmaChSetInitialTd
 422              		.section	.text.CyDmaChSetRequest,"ax",%progbits
 423              		.align	1
 424              		.global	CyDmaChSetRequest
 425              		.thumb
 426              		.thumb_func
 427              		.type	CyDmaChSetRequest, %function
 428              	CyDmaChSetRequest:
 429              	.LFB12:
 508:.\Generated_Source\PSoC5/CyDmac.c **** 
 509:.\Generated_Source\PSoC5/CyDmac.c **** 
 510:.\Generated_Source\PSoC5/CyDmac.c **** /*******************************************************************************
 511:.\Generated_Source\PSoC5/CyDmac.c **** * Function Name: CyDmaChSetRequest
 512:.\Generated_Source\PSoC5/CyDmac.c **** ********************************************************************************
 513:.\Generated_Source\PSoC5/CyDmac.c **** *
 514:.\Generated_Source\PSoC5/CyDmac.c **** * Summary:
 515:.\Generated_Source\PSoC5/CyDmac.c **** *  Allows the caller to terminate a chain of TDs, terminate one TD, or create a
 516:.\Generated_Source\PSoC5/CyDmac.c **** *  direct request to start the DMA channel.
 517:.\Generated_Source\PSoC5/CyDmac.c **** *
 518:.\Generated_Source\PSoC5/CyDmac.c **** * Parameters:
 519:.\Generated_Source\PSoC5/CyDmac.c **** *  uint8 chHandle:
 520:.\Generated_Source\PSoC5/CyDmac.c **** *   A handle previously returned by CyDmaChAlloc() or DMA_DmaInitalize().
 521:.\Generated_Source\PSoC5/CyDmac.c **** *
 522:.\Generated_Source\PSoC5/CyDmac.c **** *  uint8 request:
 523:.\Generated_Source\PSoC5/CyDmac.c **** *   One of the following constants. Each of the constants is a three-bit value.
 524:.\Generated_Source\PSoC5/CyDmac.c **** *
 525:.\Generated_Source\PSoC5/CyDmac.c **** *   CPU_REQ         - Create a direct request to start the DMA channel
 526:.\Generated_Source\PSoC5/CyDmac.c **** *   CPU_TERM_TD     - Terminate one TD
 527:.\Generated_Source\PSoC5/CyDmac.c **** *   CPU_TERM_CHAIN  - Terminate a chain of TDs
 528:.\Generated_Source\PSoC5/CyDmac.c **** *
 529:.\Generated_Source\PSoC5/CyDmac.c **** * Return:
 530:.\Generated_Source\PSoC5/CyDmac.c **** *  CYRET_SUCCESS if successful.
 531:.\Generated_Source\PSoC5/CyDmac.c **** *  CYRET_BAD_PARAM if chHandle is invalid.
 532:.\Generated_Source\PSoC5/CyDmac.c **** *
 533:.\Generated_Source\PSoC5/CyDmac.c **** *******************************************************************************/
 534:.\Generated_Source\PSoC5/CyDmac.c **** cystatus CyDmaChSetRequest(uint8 chHandle, uint8 request) 
 535:.\Generated_Source\PSoC5/CyDmac.c **** {
 430              		.loc 1 535 0
ARM GAS  C:\DOCUME~1\ADMINI~1\LOCALS~1\Temp\ccrdSJxJ.s 			page 18


 431              		.cfi_startproc
 432              		@ args = 0, pretend = 0, frame = 0
 433              		@ frame_needed = 0, uses_anonymous_args = 0
 434              		@ link register save eliminated.
 435              	.LVL44:
 536:.\Generated_Source\PSoC5/CyDmac.c ****     cystatus status = CYRET_BAD_PARAM;
 537:.\Generated_Source\PSoC5/CyDmac.c **** 
 538:.\Generated_Source\PSoC5/CyDmac.c ****     if(chHandle < CY_DMA_NUMBEROF_CHANNELS)
 436              		.loc 1 538 0
 437 0000 1728     		cmp	r0, #23
 438 0002 01D9     		bls	.L58
 439 0004 0120     		movs	r0, #1
 440              	.LVL45:
 441 0006 7047     		bx	lr
 442              	.LVL46:
 443              	.L58:
 539:.\Generated_Source\PSoC5/CyDmac.c ****     {
 540:.\Generated_Source\PSoC5/CyDmac.c ****         CY_DMA_CH_STRUCT_PTR[chHandle].action[0u] |= (request & (CPU_REQ | CPU_TERM_TD | CPU_TERM_C
 444              		.loc 1 540 0
 445 0008 044B     		ldr	r3, .L61
 446 000a 0001     		lsls	r0, r0, #4
 447              	.LVL47:
 448 000c C318     		adds	r3, r0, r3
 449 000e 1A79     		ldrb	r2, [r3, #4]	@ zero_extendqisi2
 450 0010 01F00701 		and	r1, r1, #7
 451              	.LVL48:
 452 0014 1143     		orrs	r1, r1, r2
 453 0016 1971     		strb	r1, [r3, #4]
 454 0018 0020     		movs	r0, #0
 455              	.LVL49:
 456              	.LVL50:
 541:.\Generated_Source\PSoC5/CyDmac.c ****         status = CYRET_SUCCESS;
 542:.\Generated_Source\PSoC5/CyDmac.c ****     }
 543:.\Generated_Source\PSoC5/CyDmac.c **** 
 544:.\Generated_Source\PSoC5/CyDmac.c ****     return(status);
 545:.\Generated_Source\PSoC5/CyDmac.c **** }
 457              		.loc 1 545 0
 458 001a 7047     		bx	lr
 459              	.L62:
 460              		.align	2
 461              	.L61:
 462 001c 10700040 		.word	1073770512
 463              		.cfi_endproc
 464              	.LFE12:
 465              		.size	CyDmaChSetRequest, .-CyDmaChSetRequest
 466              		.section	.text.CyDmaChGetRequest,"ax",%progbits
 467              		.align	1
 468              		.global	CyDmaChGetRequest
 469              		.thumb
 470              		.thumb_func
 471              		.type	CyDmaChGetRequest, %function
 472              	CyDmaChGetRequest:
 473              	.LFB13:
 546:.\Generated_Source\PSoC5/CyDmac.c **** 
 547:.\Generated_Source\PSoC5/CyDmac.c **** 
 548:.\Generated_Source\PSoC5/CyDmac.c **** /*******************************************************************************
 549:.\Generated_Source\PSoC5/CyDmac.c **** * Function Name: CyDmaChGetRequest
ARM GAS  C:\DOCUME~1\ADMINI~1\LOCALS~1\Temp\ccrdSJxJ.s 			page 19


 550:.\Generated_Source\PSoC5/CyDmac.c **** ********************************************************************************
 551:.\Generated_Source\PSoC5/CyDmac.c **** *
 552:.\Generated_Source\PSoC5/CyDmac.c **** * Summary:
 553:.\Generated_Source\PSoC5/CyDmac.c **** *  This function allows the caller of CyDmaChSetRequest() to determine if the
 554:.\Generated_Source\PSoC5/CyDmac.c **** *  request was completed.
 555:.\Generated_Source\PSoC5/CyDmac.c **** *
 556:.\Generated_Source\PSoC5/CyDmac.c **** * Parameters:
 557:.\Generated_Source\PSoC5/CyDmac.c **** *  uint8 chHandle:
 558:.\Generated_Source\PSoC5/CyDmac.c **** *   A handle previously returned by CyDmaChAlloc() or DMA_DmaInitalize().
 559:.\Generated_Source\PSoC5/CyDmac.c **** *
 560:.\Generated_Source\PSoC5/CyDmac.c **** * Return:
 561:.\Generated_Source\PSoC5/CyDmac.c **** *  Returns a three-bit field, corresponding to the three bits of the request,
 562:.\Generated_Source\PSoC5/CyDmac.c **** *  which describes the state of the previously posted request. If the value is
 563:.\Generated_Source\PSoC5/CyDmac.c **** *  zero, the request was completed. CY_DMA_INVALID_CHANNEL if the handle is
 564:.\Generated_Source\PSoC5/CyDmac.c **** *  invalid.
 565:.\Generated_Source\PSoC5/CyDmac.c **** *
 566:.\Generated_Source\PSoC5/CyDmac.c **** *******************************************************************************/
 567:.\Generated_Source\PSoC5/CyDmac.c **** cystatus CyDmaChGetRequest(uint8 chHandle) 
 568:.\Generated_Source\PSoC5/CyDmac.c **** {
 474              		.loc 1 568 0
 475              		.cfi_startproc
 476              		@ args = 0, pretend = 0, frame = 0
 477              		@ frame_needed = 0, uses_anonymous_args = 0
 478              		@ link register save eliminated.
 479              	.LVL51:
 569:.\Generated_Source\PSoC5/CyDmac.c ****     cystatus status = CY_DMA_INVALID_CHANNEL;
 570:.\Generated_Source\PSoC5/CyDmac.c **** 
 571:.\Generated_Source\PSoC5/CyDmac.c ****     if(chHandle < CY_DMA_NUMBEROF_CHANNELS)
 480              		.loc 1 571 0
 481 0000 1728     		cmp	r0, #23
 482 0002 01D9     		bls	.L64
 483 0004 FF20     		movs	r0, #255
 484              	.LVL52:
 485 0006 7047     		bx	lr
 486              	.LVL53:
 487              	.L64:
 572:.\Generated_Source\PSoC5/CyDmac.c ****     {
 573:.\Generated_Source\PSoC5/CyDmac.c ****         status = (cystatus) ((uint32)CY_DMA_CH_STRUCT_PTR[chHandle].action[0u] & 
 488              		.loc 1 573 0
 489 0008 034B     		ldr	r3, .L67
 490 000a 0001     		lsls	r0, r0, #4
 491              	.LVL54:
 492 000c C318     		adds	r3, r0, r3
 493 000e 1879     		ldrb	r0, [r3, #4]	@ zero_extendqisi2
 494 0010 00F00700 		and	r0, r0, #7
 495              	.LVL55:
 496              	.LVL56:
 574:.\Generated_Source\PSoC5/CyDmac.c ****                             (uint32)(CY_DMA_CPU_REQ | CY_DMA_CPU_TERM_TD | CY_DMA_CPU_TERM_CHAIN));
 575:.\Generated_Source\PSoC5/CyDmac.c ****     }
 576:.\Generated_Source\PSoC5/CyDmac.c **** 
 577:.\Generated_Source\PSoC5/CyDmac.c ****     return(status);
 578:.\Generated_Source\PSoC5/CyDmac.c **** }
 497              		.loc 1 578 0
 498 0014 7047     		bx	lr
 499              	.L68:
 500 0016 00BF     		.align	2
 501              	.L67:
ARM GAS  C:\DOCUME~1\ADMINI~1\LOCALS~1\Temp\ccrdSJxJ.s 			page 20


 502 0018 10700040 		.word	1073770512
 503              		.cfi_endproc
 504              	.LFE13:
 505              		.size	CyDmaChGetRequest, .-CyDmaChGetRequest
 506              		.section	.text.CyDmaChStatus,"ax",%progbits
 507              		.align	1
 508              		.global	CyDmaChStatus
 509              		.thumb
 510              		.thumb_func
 511              		.type	CyDmaChStatus, %function
 512              	CyDmaChStatus:
 513              	.LFB14:
 579:.\Generated_Source\PSoC5/CyDmac.c **** 
 580:.\Generated_Source\PSoC5/CyDmac.c **** 
 581:.\Generated_Source\PSoC5/CyDmac.c **** /*******************************************************************************
 582:.\Generated_Source\PSoC5/CyDmac.c **** * Function Name: CyDmaChStatus
 583:.\Generated_Source\PSoC5/CyDmac.c **** ********************************************************************************
 584:.\Generated_Source\PSoC5/CyDmac.c **** *
 585:.\Generated_Source\PSoC5/CyDmac.c **** * Summary:
 586:.\Generated_Source\PSoC5/CyDmac.c **** *  Determines the status of the DMA channel.
 587:.\Generated_Source\PSoC5/CyDmac.c **** *
 588:.\Generated_Source\PSoC5/CyDmac.c **** * Parameters:
 589:.\Generated_Source\PSoC5/CyDmac.c **** *  uint8 chHandle:
 590:.\Generated_Source\PSoC5/CyDmac.c **** *   A handle previously returned by CyDmaChAlloc() or DMA_DmaInitalize().
 591:.\Generated_Source\PSoC5/CyDmac.c **** *
 592:.\Generated_Source\PSoC5/CyDmac.c **** *  uint8 * currentTd:
 593:.\Generated_Source\PSoC5/CyDmac.c **** *   The address to store the index of the current TD. Can be NULL if the value
 594:.\Generated_Source\PSoC5/CyDmac.c **** *   is not needed.
 595:.\Generated_Source\PSoC5/CyDmac.c **** *
 596:.\Generated_Source\PSoC5/CyDmac.c **** *  uint8 * state:
 597:.\Generated_Source\PSoC5/CyDmac.c **** *   The address to store the state of the channel. Can be NULL if the value is
 598:.\Generated_Source\PSoC5/CyDmac.c **** *   not needed.
 599:.\Generated_Source\PSoC5/CyDmac.c **** *
 600:.\Generated_Source\PSoC5/CyDmac.c **** *   STATUS_TD_ACTIVE
 601:.\Generated_Source\PSoC5/CyDmac.c **** *    0: Channel is not currently being serviced by DMAC
 602:.\Generated_Source\PSoC5/CyDmac.c **** *    1: Channel is currently being serviced by DMAC
 603:.\Generated_Source\PSoC5/CyDmac.c **** *
 604:.\Generated_Source\PSoC5/CyDmac.c **** *   STATUS_CHAIN_ACTIVE
 605:.\Generated_Source\PSoC5/CyDmac.c **** *    0: TD chain is inactive; either no DMA requests have triggered a new chain
 606:.\Generated_Source\PSoC5/CyDmac.c **** *       or the previous chain has completed.
 607:.\Generated_Source\PSoC5/CyDmac.c **** *    1: TD chain has been triggered by a DMA request
 608:.\Generated_Source\PSoC5/CyDmac.c **** *
 609:.\Generated_Source\PSoC5/CyDmac.c **** * Return:
 610:.\Generated_Source\PSoC5/CyDmac.c **** *  CYRET_SUCCESS if successful.
 611:.\Generated_Source\PSoC5/CyDmac.c **** *  CYRET_BAD_PARAM if chHandle is invalid.
 612:.\Generated_Source\PSoC5/CyDmac.c **** *
 613:.\Generated_Source\PSoC5/CyDmac.c **** * Theory:
 614:.\Generated_Source\PSoC5/CyDmac.c **** *   The caller can check on the activity of the Current TD and the Chain.
 615:.\Generated_Source\PSoC5/CyDmac.c **** *
 616:.\Generated_Source\PSoC5/CyDmac.c **** *******************************************************************************/
 617:.\Generated_Source\PSoC5/CyDmac.c **** cystatus CyDmaChStatus(uint8 chHandle, uint8 * currentTd, uint8 * state) 
 618:.\Generated_Source\PSoC5/CyDmac.c **** {
 514              		.loc 1 618 0
 515              		.cfi_startproc
 516              		@ args = 0, pretend = 0, frame = 0
 517              		@ frame_needed = 0, uses_anonymous_args = 0
 518              		@ link register save eliminated.
ARM GAS  C:\DOCUME~1\ADMINI~1\LOCALS~1\Temp\ccrdSJxJ.s 			page 21


 519              	.LVL57:
 619:.\Generated_Source\PSoC5/CyDmac.c ****     cystatus status = CYRET_BAD_PARAM;
 620:.\Generated_Source\PSoC5/CyDmac.c **** 
 621:.\Generated_Source\PSoC5/CyDmac.c ****     if(chHandle < CY_DMA_NUMBEROF_CHANNELS)
 520              		.loc 1 621 0
 521 0000 1728     		cmp	r0, #23
 522 0002 01D9     		bls	.L70
 523 0004 0120     		movs	r0, #1
 524              	.LVL58:
 525 0006 7047     		bx	lr
 526              	.LVL59:
 527              	.L70:
 622:.\Generated_Source\PSoC5/CyDmac.c ****     {
 623:.\Generated_Source\PSoC5/CyDmac.c ****         if(NULL != currentTd)
 528              		.loc 1 623 0
 529 0008 39B1     		cbz	r1, .L72
 624:.\Generated_Source\PSoC5/CyDmac.c ****         {
 625:.\Generated_Source\PSoC5/CyDmac.c ****             *currentTd = CY_DMA_CH_STRUCT_PTR[chHandle].basic_status[1] & 0x7Fu;
 530              		.loc 1 625 0
 531 000a 094B     		ldr	r3, .L75
 532 000c 4FEA001C 		lsl	ip, r0, #4
 533 0010 6344     		add	r3, ip, r3
 534 0012 5B7A     		ldrb	r3, [r3, #9]	@ zero_extendqisi2
 535 0014 03F07F03 		and	r3, r3, #127
 536 0018 0B70     		strb	r3, [r1, #0]
 537              	.L72:
 626:.\Generated_Source\PSoC5/CyDmac.c ****         }
 627:.\Generated_Source\PSoC5/CyDmac.c **** 
 628:.\Generated_Source\PSoC5/CyDmac.c ****         if(NULL != state)
 538              		.loc 1 628 0
 539 001a 0AB9     		cbnz	r2, .L73
 540 001c 1046     		mov	r0, r2
 541              	.LVL60:
 542 001e 7047     		bx	lr
 543              	.LVL61:
 544              	.L73:
 629:.\Generated_Source\PSoC5/CyDmac.c ****         {
 630:.\Generated_Source\PSoC5/CyDmac.c ****             *state= CY_DMA_CH_STRUCT_PTR[chHandle].basic_status[0];
 545              		.loc 1 630 0
 546 0020 034B     		ldr	r3, .L75
 547 0022 0001     		lsls	r0, r0, #4
 548              	.LVL62:
 549 0024 C318     		adds	r3, r0, r3
 550 0026 1B7A     		ldrb	r3, [r3, #8]	@ zero_extendqisi2
 551 0028 0020     		movs	r0, #0
 552              	.LVL63:
 553 002a 1370     		strb	r3, [r2, #0]
 554              	.LVL64:
 631:.\Generated_Source\PSoC5/CyDmac.c ****         }
 632:.\Generated_Source\PSoC5/CyDmac.c **** 
 633:.\Generated_Source\PSoC5/CyDmac.c ****         status = CYRET_SUCCESS;
 634:.\Generated_Source\PSoC5/CyDmac.c ****     }
 635:.\Generated_Source\PSoC5/CyDmac.c **** 
 636:.\Generated_Source\PSoC5/CyDmac.c ****     return (status);
 637:.\Generated_Source\PSoC5/CyDmac.c **** }
 555              		.loc 1 637 0
 556 002c 7047     		bx	lr
ARM GAS  C:\DOCUME~1\ADMINI~1\LOCALS~1\Temp\ccrdSJxJ.s 			page 22


 557              	.L76:
 558 002e 00BF     		.align	2
 559              	.L75:
 560 0030 10700040 		.word	1073770512
 561              		.cfi_endproc
 562              	.LFE14:
 563              		.size	CyDmaChStatus, .-CyDmaChStatus
 564              		.section	.text.CyDmaChSetConfiguration,"ax",%progbits
 565              		.align	1
 566              		.global	CyDmaChSetConfiguration
 567              		.thumb
 568              		.thumb_func
 569              		.type	CyDmaChSetConfiguration, %function
 570              	CyDmaChSetConfiguration:
 571              	.LFB15:
 638:.\Generated_Source\PSoC5/CyDmac.c **** 
 639:.\Generated_Source\PSoC5/CyDmac.c **** 
 640:.\Generated_Source\PSoC5/CyDmac.c **** /*******************************************************************************
 641:.\Generated_Source\PSoC5/CyDmac.c **** * Function Name: CyDmaChSetConfiguration
 642:.\Generated_Source\PSoC5/CyDmac.c **** ********************************************************************************
 643:.\Generated_Source\PSoC5/CyDmac.c **** *
 644:.\Generated_Source\PSoC5/CyDmac.c **** * Summary:
 645:.\Generated_Source\PSoC5/CyDmac.c **** * Sets configuration information of the channel.
 646:.\Generated_Source\PSoC5/CyDmac.c **** *
 647:.\Generated_Source\PSoC5/CyDmac.c **** * Parameters:
 648:.\Generated_Source\PSoC5/CyDmac.c **** *  uint8 chHandle:
 649:.\Generated_Source\PSoC5/CyDmac.c **** *   A handle previously returned by CyDmaChAlloc() or DMA_DmaInitialize().
 650:.\Generated_Source\PSoC5/CyDmac.c **** *
 651:.\Generated_Source\PSoC5/CyDmac.c **** *  uint8 burstCount:
 652:.\Generated_Source\PSoC5/CyDmac.c **** *   Specifies the size of bursts (1 to 127) the data transfer should be divided
 653:.\Generated_Source\PSoC5/CyDmac.c **** *   into. If this value is zero then the whole transfer is done in one burst.
 654:.\Generated_Source\PSoC5/CyDmac.c **** *
 655:.\Generated_Source\PSoC5/CyDmac.c **** *  uint8 requestPerBurst:
 656:.\Generated_Source\PSoC5/CyDmac.c **** *   The whole of the data can be split into multiple bursts, if this is
 657:.\Generated_Source\PSoC5/CyDmac.c **** *   required to complete the transaction:
 658:.\Generated_Source\PSoC5/CyDmac.c **** *    0: All subsequent bursts after the first burst will be automatically
 659:.\Generated_Source\PSoC5/CyDmac.c **** *       requested and carried out
 660:.\Generated_Source\PSoC5/CyDmac.c **** *    1: All subsequent bursts after the first burst must also be individually
 661:.\Generated_Source\PSoC5/CyDmac.c **** *       requested.
 662:.\Generated_Source\PSoC5/CyDmac.c **** *
 663:.\Generated_Source\PSoC5/CyDmac.c **** *  uint8 tdDone0:
 664:.\Generated_Source\PSoC5/CyDmac.c **** *   Selects one of the TERMOUT0 interrupt lines to signal completion. The line
 665:.\Generated_Source\PSoC5/CyDmac.c **** *   connected to the nrq terminal will determine the TERMOUT0_SEL definition and
 666:.\Generated_Source\PSoC5/CyDmac.c **** *   should be used as supplied by cyfitter.h
 667:.\Generated_Source\PSoC5/CyDmac.c **** *
 668:.\Generated_Source\PSoC5/CyDmac.c **** *  uint8 tdDone1:
 669:.\Generated_Source\PSoC5/CyDmac.c **** *   Selects one of the TERMOUT1 interrupt lines to signal completion. The line
 670:.\Generated_Source\PSoC5/CyDmac.c **** *   connected to the nrq terminal will determine the TERMOUT1_SEL definition and
 671:.\Generated_Source\PSoC5/CyDmac.c **** *   should be used as supplied by cyfitter.h
 672:.\Generated_Source\PSoC5/CyDmac.c **** *
 673:.\Generated_Source\PSoC5/CyDmac.c **** *  uint8 tdStop:
 674:.\Generated_Source\PSoC5/CyDmac.c **** *   Selects one of the TERMIN interrupt lines to signal to the DMAC that the TD
 675:.\Generated_Source\PSoC5/CyDmac.c **** *   should terminate. The signal connected to the trq terminal will determine
 676:.\Generated_Source\PSoC5/CyDmac.c **** *   which TERMIN (termination request) is used.
 677:.\Generated_Source\PSoC5/CyDmac.c **** *
 678:.\Generated_Source\PSoC5/CyDmac.c **** * Return:
 679:.\Generated_Source\PSoC5/CyDmac.c **** *  CYRET_SUCCESS if successful.
ARM GAS  C:\DOCUME~1\ADMINI~1\LOCALS~1\Temp\ccrdSJxJ.s 			page 23


 680:.\Generated_Source\PSoC5/CyDmac.c **** *  CYRET_BAD_PARAM if chHandle is invalid.
 681:.\Generated_Source\PSoC5/CyDmac.c **** *
 682:.\Generated_Source\PSoC5/CyDmac.c **** *******************************************************************************/
 683:.\Generated_Source\PSoC5/CyDmac.c **** cystatus CyDmaChSetConfiguration(uint8 chHandle, uint8 burstCount, uint8 requestPerBurst,
 684:.\Generated_Source\PSoC5/CyDmac.c ****                                  uint8 tdDone0, uint8 tdDone1, uint8 tdStop) 
 685:.\Generated_Source\PSoC5/CyDmac.c **** {
 572              		.loc 1 685 0
 573              		.cfi_startproc
 574              		@ args = 8, pretend = 0, frame = 0
 575              		@ frame_needed = 0, uses_anonymous_args = 0
 576              	.LVL65:
 577 0000 30B5     		push	{r4, r5, lr}
 578              	.LCFI0:
 579              		.cfi_def_cfa_offset 12
 686:.\Generated_Source\PSoC5/CyDmac.c ****     cystatus status = CYRET_BAD_PARAM;
 687:.\Generated_Source\PSoC5/CyDmac.c **** 
 688:.\Generated_Source\PSoC5/CyDmac.c ****     if(chHandle < CY_DMA_NUMBEROF_CHANNELS)
 580              		.loc 1 688 0
 581 0002 1728     		cmp	r0, #23
 582              		.loc 1 685 0
 583 0004 9DF80C50 		ldrb	r5, [sp, #12]	@ zero_extendqisi2
 584              		.cfi_offset 14, -4
 585              		.cfi_offset 5, -8
 586              		.cfi_offset 4, -12
 587              	.LVL66:
 588 0008 9DF810C0 		ldrb	ip, [sp, #16]	@ zero_extendqisi2
 589              	.LVL67:
 590              		.loc 1 688 0
 591 000c 01D9     		bls	.L78
 592 000e 0120     		movs	r0, #1
 593              	.LVL68:
 594 0010 30BD     		pop	{r4, r5, pc}
 595              	.LVL69:
 596              	.L78:
 689:.\Generated_Source\PSoC5/CyDmac.c ****     {
 690:.\Generated_Source\PSoC5/CyDmac.c ****         CY_DMA_CFGMEM_STRUCT_PTR[chHandle].CFG0[0] = (burstCount & 0x7Fu) | ((uint8)((requestPerBur
 597              		.loc 1 690 0
 598 0012 C000     		lsls	r0, r0, #3
 599              	.LVL70:
 600 0014 01F07F01 		and	r1, r1, #127
 601              	.LVL71:
 691:.\Generated_Source\PSoC5/CyDmac.c ****         CY_DMA_CFGMEM_STRUCT_PTR[chHandle].CFG0[1] = ((uint8)((tdDone1 & 0xFu) << 4u)) | (tdDone0 &
 602              		.loc 1 691 0
 603 0018 03F00F03 		and	r3, r3, #15
 604              	.LVL72:
 605              		.loc 1 690 0
 606 001c 00F18044 		add	r4, r0, #1073741824
 607 0020 41EAC212 		orr	r2, r1, r2, lsl #7
 608              	.LVL73:
 609              		.loc 1 691 0
 610 0024 43EA0513 		orr	r3, r3, r5, lsl #4
 611              		.loc 1 690 0
 612 0028 04F5EC44 		add	r4, r4, #30208
 613 002c D2B2     		uxtb	r2, r2
 614              		.loc 1 691 0
 615 002e DBB2     		uxtb	r3, r3
 616              		.loc 1 690 0
ARM GAS  C:\DOCUME~1\ADMINI~1\LOCALS~1\Temp\ccrdSJxJ.s 			page 24


 617 0030 2270     		strb	r2, [r4, #0]
 692:.\Generated_Source\PSoC5/CyDmac.c ****         CY_DMA_CFGMEM_STRUCT_PTR[chHandle].CFG0[2] = 0x0Fu & tdStop;
 693:.\Generated_Source\PSoC5/CyDmac.c ****         CY_DMA_CFGMEM_STRUCT_PTR[chHandle].CFG0[3] = 0u; /* burstcount_remain. */
 618              		.loc 1 693 0
 619 0032 0020     		movs	r0, #0
 620              		.loc 1 691 0
 621 0034 6370     		strb	r3, [r4, #1]
 622              		.loc 1 692 0
 623 0036 0CF00F03 		and	r3, ip, #15
 624 003a A370     		strb	r3, [r4, #2]
 625              		.loc 1 693 0
 626 003c E070     		strb	r0, [r4, #3]
 694:.\Generated_Source\PSoC5/CyDmac.c **** 
 695:.\Generated_Source\PSoC5/CyDmac.c ****         status = CYRET_SUCCESS;
 696:.\Generated_Source\PSoC5/CyDmac.c ****     }
 697:.\Generated_Source\PSoC5/CyDmac.c **** 
 698:.\Generated_Source\PSoC5/CyDmac.c ****     return (status);
 699:.\Generated_Source\PSoC5/CyDmac.c **** }
 627              		.loc 1 699 0
 628 003e 30BD     		pop	{r4, r5, pc}
 629              		.cfi_endproc
 630              	.LFE15:
 631              		.size	CyDmaChSetConfiguration, .-CyDmaChSetConfiguration
 632              		.section	.text.CyDmaTdFreeCount,"ax",%progbits
 633              		.align	1
 634              		.global	CyDmaTdFreeCount
 635              		.thumb
 636              		.thumb_func
 637              		.type	CyDmaTdFreeCount, %function
 638              	CyDmaTdFreeCount:
 639              	.LFB18:
 700:.\Generated_Source\PSoC5/CyDmac.c **** 
 701:.\Generated_Source\PSoC5/CyDmac.c **** 
 702:.\Generated_Source\PSoC5/CyDmac.c **** /*******************************************************************************
 703:.\Generated_Source\PSoC5/CyDmac.c **** * Function Name: CyDmaTdAllocate
 704:.\Generated_Source\PSoC5/CyDmac.c **** ********************************************************************************
 705:.\Generated_Source\PSoC5/CyDmac.c **** *
 706:.\Generated_Source\PSoC5/CyDmac.c **** * Summary:
 707:.\Generated_Source\PSoC5/CyDmac.c **** *  Allocates a TD for use with an allocated DMA channel.
 708:.\Generated_Source\PSoC5/CyDmac.c **** *
 709:.\Generated_Source\PSoC5/CyDmac.c **** * Parameters:
 710:.\Generated_Source\PSoC5/CyDmac.c **** *  None
 711:.\Generated_Source\PSoC5/CyDmac.c **** *
 712:.\Generated_Source\PSoC5/CyDmac.c **** * Return:
 713:.\Generated_Source\PSoC5/CyDmac.c **** *  Zero-based index of the TD to be used by the caller. Since there are 128 TDs
 714:.\Generated_Source\PSoC5/CyDmac.c **** *  minus the reserved TDs (0 to 23), the value returned would range from 24 to
 715:.\Generated_Source\PSoC5/CyDmac.c **** *  127 not 24 to 128. DMA_INVALID_TD is returned if there are no free TDs
 716:.\Generated_Source\PSoC5/CyDmac.c **** *  available.
 717:.\Generated_Source\PSoC5/CyDmac.c **** *
 718:.\Generated_Source\PSoC5/CyDmac.c **** *******************************************************************************/
 719:.\Generated_Source\PSoC5/CyDmac.c **** uint8 CyDmaTdAllocate(void) 
 720:.\Generated_Source\PSoC5/CyDmac.c **** {
 721:.\Generated_Source\PSoC5/CyDmac.c ****     uint8 interruptState;
 722:.\Generated_Source\PSoC5/CyDmac.c ****     uint8 element = CY_DMA_INVALID_TD;
 723:.\Generated_Source\PSoC5/CyDmac.c **** 
 724:.\Generated_Source\PSoC5/CyDmac.c ****     /* Enter critical section! */
 725:.\Generated_Source\PSoC5/CyDmac.c ****     interruptState = CyEnterCriticalSection();
ARM GAS  C:\DOCUME~1\ADMINI~1\LOCALS~1\Temp\ccrdSJxJ.s 			page 25


 726:.\Generated_Source\PSoC5/CyDmac.c **** 
 727:.\Generated_Source\PSoC5/CyDmac.c ****     if(CyDmaTdCurrentNumber > NUMBEROF_CHANNELS)
 728:.\Generated_Source\PSoC5/CyDmac.c ****     {
 729:.\Generated_Source\PSoC5/CyDmac.c ****         /* Get pointer to the Next available. */
 730:.\Generated_Source\PSoC5/CyDmac.c ****         element = CyDmaTdFreeIndex;
 731:.\Generated_Source\PSoC5/CyDmac.c **** 
 732:.\Generated_Source\PSoC5/CyDmac.c ****         /* Decrement the count. */
 733:.\Generated_Source\PSoC5/CyDmac.c ****         CyDmaTdCurrentNumber--;
 734:.\Generated_Source\PSoC5/CyDmac.c **** 
 735:.\Generated_Source\PSoC5/CyDmac.c ****         /* Update the next available pointer. */
 736:.\Generated_Source\PSoC5/CyDmac.c ****         CyDmaTdFreeIndex = CY_DMA_TDMEM_STRUCT_PTR[element].TD0[0];
 737:.\Generated_Source\PSoC5/CyDmac.c ****     }
 738:.\Generated_Source\PSoC5/CyDmac.c **** 
 739:.\Generated_Source\PSoC5/CyDmac.c ****     /* Exit critical section! */
 740:.\Generated_Source\PSoC5/CyDmac.c ****     CyExitCriticalSection(interruptState);
 741:.\Generated_Source\PSoC5/CyDmac.c **** 
 742:.\Generated_Source\PSoC5/CyDmac.c ****     return(element);
 743:.\Generated_Source\PSoC5/CyDmac.c **** }
 744:.\Generated_Source\PSoC5/CyDmac.c **** 
 745:.\Generated_Source\PSoC5/CyDmac.c **** 
 746:.\Generated_Source\PSoC5/CyDmac.c **** /*******************************************************************************
 747:.\Generated_Source\PSoC5/CyDmac.c **** * Function Name: CyDmaTdFree
 748:.\Generated_Source\PSoC5/CyDmac.c **** ********************************************************************************
 749:.\Generated_Source\PSoC5/CyDmac.c **** *
 750:.\Generated_Source\PSoC5/CyDmac.c **** * Summary:
 751:.\Generated_Source\PSoC5/CyDmac.c **** *  Returns a TD to the free list.
 752:.\Generated_Source\PSoC5/CyDmac.c **** *
 753:.\Generated_Source\PSoC5/CyDmac.c **** * Parameters:
 754:.\Generated_Source\PSoC5/CyDmac.c **** *  uint8 tdHandle:
 755:.\Generated_Source\PSoC5/CyDmac.c **** *   The TD handle returned by the CyDmaTdAllocate().
 756:.\Generated_Source\PSoC5/CyDmac.c **** *
 757:.\Generated_Source\PSoC5/CyDmac.c **** * Return:
 758:.\Generated_Source\PSoC5/CyDmac.c **** *  None
 759:.\Generated_Source\PSoC5/CyDmac.c **** *
 760:.\Generated_Source\PSoC5/CyDmac.c **** *******************************************************************************/
 761:.\Generated_Source\PSoC5/CyDmac.c **** void CyDmaTdFree(uint8 tdHandle) 
 762:.\Generated_Source\PSoC5/CyDmac.c **** {
 763:.\Generated_Source\PSoC5/CyDmac.c ****     if(tdHandle < CY_DMA_NUMBEROF_TDS)
 764:.\Generated_Source\PSoC5/CyDmac.c ****     {
 765:.\Generated_Source\PSoC5/CyDmac.c ****         /* Enter critical section! */
 766:.\Generated_Source\PSoC5/CyDmac.c ****         uint8 interruptState = CyEnterCriticalSection();
 767:.\Generated_Source\PSoC5/CyDmac.c **** 
 768:.\Generated_Source\PSoC5/CyDmac.c ****         /* Get pointer to the Next available. */
 769:.\Generated_Source\PSoC5/CyDmac.c ****         CY_DMA_TDMEM_STRUCT_PTR[tdHandle].TD0[0u] = CyDmaTdFreeIndex;
 770:.\Generated_Source\PSoC5/CyDmac.c **** 
 771:.\Generated_Source\PSoC5/CyDmac.c ****         /* Set new Next Available. */
 772:.\Generated_Source\PSoC5/CyDmac.c ****         CyDmaTdFreeIndex = tdHandle;
 773:.\Generated_Source\PSoC5/CyDmac.c **** 
 774:.\Generated_Source\PSoC5/CyDmac.c ****         /* Keep track of how many left. */
 775:.\Generated_Source\PSoC5/CyDmac.c ****         CyDmaTdCurrentNumber++;
 776:.\Generated_Source\PSoC5/CyDmac.c **** 
 777:.\Generated_Source\PSoC5/CyDmac.c ****         /* Exit critical section! */
 778:.\Generated_Source\PSoC5/CyDmac.c ****         CyExitCriticalSection(interruptState);
 779:.\Generated_Source\PSoC5/CyDmac.c ****     }
 780:.\Generated_Source\PSoC5/CyDmac.c **** }
 781:.\Generated_Source\PSoC5/CyDmac.c **** 
 782:.\Generated_Source\PSoC5/CyDmac.c **** 
ARM GAS  C:\DOCUME~1\ADMINI~1\LOCALS~1\Temp\ccrdSJxJ.s 			page 26


 783:.\Generated_Source\PSoC5/CyDmac.c **** /*******************************************************************************
 784:.\Generated_Source\PSoC5/CyDmac.c **** * Function Name: CyDmaTdFreeCount
 785:.\Generated_Source\PSoC5/CyDmac.c **** ********************************************************************************
 786:.\Generated_Source\PSoC5/CyDmac.c **** *
 787:.\Generated_Source\PSoC5/CyDmac.c **** * Summary:
 788:.\Generated_Source\PSoC5/CyDmac.c **** *  Returns the number of free TDs available to be allocated.
 789:.\Generated_Source\PSoC5/CyDmac.c **** *
 790:.\Generated_Source\PSoC5/CyDmac.c **** * Parameters:
 791:.\Generated_Source\PSoC5/CyDmac.c **** *  None
 792:.\Generated_Source\PSoC5/CyDmac.c **** *
 793:.\Generated_Source\PSoC5/CyDmac.c **** * Return:
 794:.\Generated_Source\PSoC5/CyDmac.c **** *  The number of free TDs.
 795:.\Generated_Source\PSoC5/CyDmac.c **** *
 796:.\Generated_Source\PSoC5/CyDmac.c **** *******************************************************************************/
 797:.\Generated_Source\PSoC5/CyDmac.c **** uint8 CyDmaTdFreeCount(void) 
 798:.\Generated_Source\PSoC5/CyDmac.c **** {
 640              		.loc 1 798 0
 641              		.cfi_startproc
 642              		@ args = 0, pretend = 0, frame = 0
 643              		@ frame_needed = 0, uses_anonymous_args = 0
 644              		@ link register save eliminated.
 645              		.loc 1 798 0
 646 0000 024B     		ldr	r3, .L83
 647 0002 5878     		ldrb	r0, [r3, #1]	@ zero_extendqisi2
 648 0004 1838     		subs	r0, r0, #24
 799:.\Generated_Source\PSoC5/CyDmac.c ****     return(CyDmaTdCurrentNumber - CY_DMA_NUMBEROF_CHANNELS);
 800:.\Generated_Source\PSoC5/CyDmac.c **** }
 649              		.loc 1 800 0
 650 0006 C0B2     		uxtb	r0, r0
 651 0008 7047     		bx	lr
 652              	.L84:
 653 000a 00BF     		.align	2
 654              	.L83:
 655 000c 00000000 		.word	.LANCHOR0
 656              		.cfi_endproc
 657              	.LFE18:
 658              		.size	CyDmaTdFreeCount, .-CyDmaTdFreeCount
 659              		.section	.text.CyDmaTdSetConfiguration,"ax",%progbits
 660              		.align	1
 661              		.global	CyDmaTdSetConfiguration
 662              		.thumb
 663              		.thumb_func
 664              		.type	CyDmaTdSetConfiguration, %function
 665              	CyDmaTdSetConfiguration:
 666              	.LFB19:
 801:.\Generated_Source\PSoC5/CyDmac.c **** 
 802:.\Generated_Source\PSoC5/CyDmac.c **** 
 803:.\Generated_Source\PSoC5/CyDmac.c **** /*******************************************************************************
 804:.\Generated_Source\PSoC5/CyDmac.c **** * Function Name: CyDmaTdSetConfiguration
 805:.\Generated_Source\PSoC5/CyDmac.c **** ********************************************************************************
 806:.\Generated_Source\PSoC5/CyDmac.c **** *
 807:.\Generated_Source\PSoC5/CyDmac.c **** * Summary:
 808:.\Generated_Source\PSoC5/CyDmac.c **** *  Configures the TD.
 809:.\Generated_Source\PSoC5/CyDmac.c **** *
 810:.\Generated_Source\PSoC5/CyDmac.c **** * Parameters:
 811:.\Generated_Source\PSoC5/CyDmac.c **** *  uint8 tdHandle:
 812:.\Generated_Source\PSoC5/CyDmac.c **** *   A handle previously returned by CyDmaTdAlloc().
ARM GAS  C:\DOCUME~1\ADMINI~1\LOCALS~1\Temp\ccrdSJxJ.s 			page 27


 813:.\Generated_Source\PSoC5/CyDmac.c **** *
 814:.\Generated_Source\PSoC5/CyDmac.c **** *  uint16 transferCount:
 815:.\Generated_Source\PSoC5/CyDmac.c **** *   The size of the data transfer (in bytes) for this TD. A size of zero will
 816:.\Generated_Source\PSoC5/CyDmac.c **** *   cause the transfer to continue indefinitely. This parameter is limited to
 817:.\Generated_Source\PSoC5/CyDmac.c **** *   4095 bytes; the TD is not initialized at all when a higher value is passed.
 818:.\Generated_Source\PSoC5/CyDmac.c **** *
 819:.\Generated_Source\PSoC5/CyDmac.c **** *  uint8 nextTd:
 820:.\Generated_Source\PSoC5/CyDmac.c **** *   Zero based index of the next Transfer Descriptor in the TD chain. Zero is a
 821:.\Generated_Source\PSoC5/CyDmac.c **** *   valid pointer to the next TD; DMA_END_CHAIN_TD is the end of the chain.
 822:.\Generated_Source\PSoC5/CyDmac.c **** *   DMA_DISABLE_TD indicates an end to the chain and the DMA is disabled. No
 823:.\Generated_Source\PSoC5/CyDmac.c **** *   further TDs are fetched. DMA_DISABLE_TD is only supported on PSoC3 and
 824:.\Generated_Source\PSoC5/CyDmac.c **** *   PSoC 5LP silicons.
 825:.\Generated_Source\PSoC5/CyDmac.c **** *
 826:.\Generated_Source\PSoC5/CyDmac.c **** *  uint8 configuration:
 827:.\Generated_Source\PSoC5/CyDmac.c **** *   Stores the Bit field of configuration bits.
 828:.\Generated_Source\PSoC5/CyDmac.c **** *
 829:.\Generated_Source\PSoC5/CyDmac.c **** *   CY_DMA_TD_SWAP_EN        - Perform endian swap
 830:.\Generated_Source\PSoC5/CyDmac.c **** *
 831:.\Generated_Source\PSoC5/CyDmac.c **** *   CY_DMA_TD_SWAP_SIZE4     - Swap size = 4 bytes
 832:.\Generated_Source\PSoC5/CyDmac.c **** *
 833:.\Generated_Source\PSoC5/CyDmac.c **** *   CY_DMA_TD_AUTO_EXEC_NEXT - The next TD in the chain will trigger
 834:.\Generated_Source\PSoC5/CyDmac.c **** *                              automatically when the current TD completes.
 835:.\Generated_Source\PSoC5/CyDmac.c **** *
 836:.\Generated_Source\PSoC5/CyDmac.c **** *   CY_DMA_TD_TERMIN_EN      - Terminate this TD if a positive edge on the trq
 837:.\Generated_Source\PSoC5/CyDmac.c **** *                              input line occurs. The positive edge must occur
 838:.\Generated_Source\PSoC5/CyDmac.c **** *                              during a burst. That is the only time the DMAC
 839:.\Generated_Source\PSoC5/CyDmac.c **** *                              will listen for it.
 840:.\Generated_Source\PSoC5/CyDmac.c **** *
 841:.\Generated_Source\PSoC5/CyDmac.c **** *   DMA__TD_TERMOUT_EN       - When this TD completes, the TERMOUT signal will
 842:.\Generated_Source\PSoC5/CyDmac.c **** *                              generate a pulse. Note that this option is
 843:.\Generated_Source\PSoC5/CyDmac.c **** *                              instance specific with the instance name followed
 844:.\Generated_Source\PSoC5/CyDmac.c **** *                              by two underscores. In this example, the instance
 845:.\Generated_Source\PSoC5/CyDmac.c **** *                              name is DMA.
 846:.\Generated_Source\PSoC5/CyDmac.c **** *
 847:.\Generated_Source\PSoC5/CyDmac.c **** *   CY_DMA_TD_INC_DST_ADR    - Increment DST_ADR according to the size of each
 848:.\Generated_Source\PSoC5/CyDmac.c **** *                              data transaction in the burst.
 849:.\Generated_Source\PSoC5/CyDmac.c **** *
 850:.\Generated_Source\PSoC5/CyDmac.c **** *   CY_DMA_TD_INC_SRC_ADR    - Increment SRC_ADR according to the size of each
 851:.\Generated_Source\PSoC5/CyDmac.c **** *                              data transaction in the burst.
 852:.\Generated_Source\PSoC5/CyDmac.c **** *
 853:.\Generated_Source\PSoC5/CyDmac.c **** * Return:
 854:.\Generated_Source\PSoC5/CyDmac.c **** *  CYRET_SUCCESS if successful.
 855:.\Generated_Source\PSoC5/CyDmac.c **** *  CYRET_BAD_PARAM if tdHandle or transferCount is invalid.
 856:.\Generated_Source\PSoC5/CyDmac.c **** *
 857:.\Generated_Source\PSoC5/CyDmac.c **** *******************************************************************************/
 858:.\Generated_Source\PSoC5/CyDmac.c **** cystatus CyDmaTdSetConfiguration(uint8 tdHandle, uint16 transferCount, uint8 nextTd, uint8 configur
 859:.\Generated_Source\PSoC5/CyDmac.c ****     
 860:.\Generated_Source\PSoC5/CyDmac.c **** {
 667              		.loc 1 860 0
 668              		.cfi_startproc
 669              		@ args = 0, pretend = 0, frame = 0
 670              		@ frame_needed = 0, uses_anonymous_args = 0
 671              	.LVL74:
 861:.\Generated_Source\PSoC5/CyDmac.c ****     cystatus status = CYRET_BAD_PARAM;
 862:.\Generated_Source\PSoC5/CyDmac.c **** 
 863:.\Generated_Source\PSoC5/CyDmac.c ****     if((tdHandle < CY_DMA_NUMBEROF_TDS) && (0u == (0xF000u & transferCount)))
 672              		.loc 1 863 0
ARM GAS  C:\DOCUME~1\ADMINI~1\LOCALS~1\Temp\ccrdSJxJ.s 			page 28


 673 0000 10F0800F 		tst	r0, #128
 674              		.loc 1 860 0
 675 0004 10B5     		push	{r4, lr}
 676              	.LCFI1:
 677              		.cfi_def_cfa_offset 8
 678              		.loc 1 863 0
 679 0006 0CD1     		bne	.L86
 680              		.cfi_offset 14, -4
 681              		.cfi_offset 4, -8
 682 0008 11F4704C 		ands	ip, r1, #61440
 683 000c 09D1     		bne	.L86
 684              	.LBB3:
 864:.\Generated_Source\PSoC5/CyDmac.c ****     {
 865:.\Generated_Source\PSoC5/CyDmac.c ****         /* Set 12 bits transfer count. */
 866:.\Generated_Source\PSoC5/CyDmac.c ****         reg16 *convert = (reg16 *) &CY_DMA_TDMEM_STRUCT_PTR[tdHandle].TD0[0u];
 685              		.loc 1 866 0
 686 000e C000     		lsls	r0, r0, #3
 687              	.LVL75:
 688 0010 00F18044 		add	r4, r0, #1073741824
 689 0014 04F5F044 		add	r4, r4, #30720
 867:.\Generated_Source\PSoC5/CyDmac.c ****         CY_SET_REG16(convert, transferCount);
 690              		.loc 1 867 0
 691 0018 2180     		strh	r1, [r4, #0]	@ movhi
 868:.\Generated_Source\PSoC5/CyDmac.c **** 
 869:.\Generated_Source\PSoC5/CyDmac.c ****         /* Set Next TD pointer. */
 870:.\Generated_Source\PSoC5/CyDmac.c ****         CY_DMA_TDMEM_STRUCT_PTR[tdHandle].TD0[2u] = nextTd;
 871:.\Generated_Source\PSoC5/CyDmac.c **** 
 872:.\Generated_Source\PSoC5/CyDmac.c ****         /* Configure the TD */
 873:.\Generated_Source\PSoC5/CyDmac.c ****         CY_DMA_TDMEM_STRUCT_PTR[tdHandle].TD0[3u] = configuration;
 692              		.loc 1 873 0
 693 001a 6046     		mov	r0, ip
 694              	.LVL76:
 695              		.loc 1 870 0
 696 001c A270     		strb	r2, [r4, #2]
 697              		.loc 1 873 0
 698 001e E370     		strb	r3, [r4, #3]
 699 0020 10BD     		pop	{r4, pc}
 700              	.LVL77:
 701              	.L86:
 702 0022 0120     		movs	r0, #1
 703              	.LVL78:
 704              	.LVL79:
 705              	.LBE3:
 874:.\Generated_Source\PSoC5/CyDmac.c **** 
 875:.\Generated_Source\PSoC5/CyDmac.c ****         status = CYRET_SUCCESS;
 876:.\Generated_Source\PSoC5/CyDmac.c ****     }
 877:.\Generated_Source\PSoC5/CyDmac.c **** 
 878:.\Generated_Source\PSoC5/CyDmac.c ****     return(status);
 879:.\Generated_Source\PSoC5/CyDmac.c **** }
 706              		.loc 1 879 0
 707 0024 10BD     		pop	{r4, pc}
 708              		.cfi_endproc
 709              	.LFE19:
 710              		.size	CyDmaTdSetConfiguration, .-CyDmaTdSetConfiguration
 711              		.section	.text.CyDmaTdGetConfiguration,"ax",%progbits
 712              		.align	1
 713              		.global	CyDmaTdGetConfiguration
ARM GAS  C:\DOCUME~1\ADMINI~1\LOCALS~1\Temp\ccrdSJxJ.s 			page 29


 714              		.thumb
 715              		.thumb_func
 716              		.type	CyDmaTdGetConfiguration, %function
 717              	CyDmaTdGetConfiguration:
 718              	.LFB20:
 880:.\Generated_Source\PSoC5/CyDmac.c **** 
 881:.\Generated_Source\PSoC5/CyDmac.c **** 
 882:.\Generated_Source\PSoC5/CyDmac.c **** /*******************************************************************************
 883:.\Generated_Source\PSoC5/CyDmac.c **** * Function Name: CyDmaTdGetConfiguration
 884:.\Generated_Source\PSoC5/CyDmac.c **** ********************************************************************************
 885:.\Generated_Source\PSoC5/CyDmac.c **** *
 886:.\Generated_Source\PSoC5/CyDmac.c **** * Summary:
 887:.\Generated_Source\PSoC5/CyDmac.c **** *  Retrieves the configuration of the TD. If a NULL pointer is passed as a
 888:.\Generated_Source\PSoC5/CyDmac.c **** *  parameter, that parameter is skipped. You may request only the values you are
 889:.\Generated_Source\PSoC5/CyDmac.c **** *  interested in.
 890:.\Generated_Source\PSoC5/CyDmac.c **** *
 891:.\Generated_Source\PSoC5/CyDmac.c **** * Parameters:
 892:.\Generated_Source\PSoC5/CyDmac.c **** *  uint8 tdHandle:
 893:.\Generated_Source\PSoC5/CyDmac.c **** *   A handle previously returned by CyDmaTdAlloc().
 894:.\Generated_Source\PSoC5/CyDmac.c **** *
 895:.\Generated_Source\PSoC5/CyDmac.c **** *  uint16 * transferCount:
 896:.\Generated_Source\PSoC5/CyDmac.c **** *   The address to store the size of the data transfer (in bytes) for this TD.
 897:.\Generated_Source\PSoC5/CyDmac.c **** *   A size of zero could indicate that the TD has completed its transfer, or
 898:.\Generated_Source\PSoC5/CyDmac.c **** *   that the TD is doing an indefinite transfer.
 899:.\Generated_Source\PSoC5/CyDmac.c **** *
 900:.\Generated_Source\PSoC5/CyDmac.c **** *  uint8 * nextTd:
 901:.\Generated_Source\PSoC5/CyDmac.c **** *   The address to store the index of the next TD in the TD chain.
 902:.\Generated_Source\PSoC5/CyDmac.c **** *
 903:.\Generated_Source\PSoC5/CyDmac.c **** *  uint8 * configuration:
 904:.\Generated_Source\PSoC5/CyDmac.c **** *   The address to store the Bit field of configuration bits.
 905:.\Generated_Source\PSoC5/CyDmac.c **** *   See CyDmaTdSetConfiguration() function description.
 906:.\Generated_Source\PSoC5/CyDmac.c **** *
 907:.\Generated_Source\PSoC5/CyDmac.c **** * Return:
 908:.\Generated_Source\PSoC5/CyDmac.c **** *  CYRET_SUCCESS if successful.
 909:.\Generated_Source\PSoC5/CyDmac.c **** *  CYRET_BAD_PARAM if tdHandle is invalid.
 910:.\Generated_Source\PSoC5/CyDmac.c **** *
 911:.\Generated_Source\PSoC5/CyDmac.c **** * Side Effects:
 912:.\Generated_Source\PSoC5/CyDmac.c **** *  If a TD has a transfer count of N and is executed, the transfer count becomes
 913:.\Generated_Source\PSoC5/CyDmac.c **** *  0. If it is reexecuted, the Transfer count of zero will be interpreted as a
 914:.\Generated_Source\PSoC5/CyDmac.c **** *  request for indefinite transfer. Be careful when requesting a TD with a
 915:.\Generated_Source\PSoC5/CyDmac.c **** *  transfer count of zero.
 916:.\Generated_Source\PSoC5/CyDmac.c **** *
 917:.\Generated_Source\PSoC5/CyDmac.c **** *******************************************************************************/
 918:.\Generated_Source\PSoC5/CyDmac.c **** cystatus CyDmaTdGetConfiguration(uint8 tdHandle, uint16 * transferCount, uint8 * nextTd, uint8 * co
 919:.\Generated_Source\PSoC5/CyDmac.c ****     
 920:.\Generated_Source\PSoC5/CyDmac.c **** {
 719              		.loc 1 920 0
 720              		.cfi_startproc
 721              		@ args = 0, pretend = 0, frame = 0
 722              		@ frame_needed = 0, uses_anonymous_args = 0
 723              	.LVL80:
 921:.\Generated_Source\PSoC5/CyDmac.c ****     cystatus status = CYRET_BAD_PARAM;
 922:.\Generated_Source\PSoC5/CyDmac.c **** 
 923:.\Generated_Source\PSoC5/CyDmac.c ****     if(tdHandle < CY_DMA_NUMBEROF_TDS)
 724              		.loc 1 923 0
 725 0000 10F0800F 		tst	r0, #128
 726              		.loc 1 920 0
ARM GAS  C:\DOCUME~1\ADMINI~1\LOCALS~1\Temp\ccrdSJxJ.s 			page 30


 727 0004 10B5     		push	{r4, lr}
 728              	.LCFI2:
 729              		.cfi_def_cfa_offset 8
 730              		.loc 1 923 0
 731 0006 01D0     		beq	.L90
 732              		.cfi_offset 14, -4
 733              		.cfi_offset 4, -8
 734 0008 0120     		movs	r0, #1
 735              	.LVL81:
 736 000a 10BD     		pop	{r4, pc}
 737              	.LVL82:
 738              	.L90:
 924:.\Generated_Source\PSoC5/CyDmac.c ****     {
 925:.\Generated_Source\PSoC5/CyDmac.c ****         /* If we have a pointer */
 926:.\Generated_Source\PSoC5/CyDmac.c ****         if(NULL != transferCount)
 739              		.loc 1 926 0
 740 000c 61B1     		cbz	r1, .L92
 741              	.LBB4:
 927:.\Generated_Source\PSoC5/CyDmac.c ****         {
 928:.\Generated_Source\PSoC5/CyDmac.c ****             /* Get the 12 bits of the transfer count */
 929:.\Generated_Source\PSoC5/CyDmac.c ****             reg16 *convert = (reg16 *) &CY_DMA_TDMEM_STRUCT_PTR[tdHandle].TD0[0];
 742              		.loc 1 929 0
 743 000e C400     		lsls	r4, r0, #3
 744 0010 04F18044 		add	r4, r4, #1073741824
 745 0014 04F5F044 		add	r4, r4, #30720
 930:.\Generated_Source\PSoC5/CyDmac.c ****             *transferCount = 0x0FFFu & CY_GET_REG16(convert);
 746              		.loc 1 930 0
 747 0018 B4F800C0 		ldrh	ip, [r4, #0]
 748 001c 4FEA0C5C 		lsl	ip, ip, #20
 749 0020 4FEA1C5C 		lsr	ip, ip, #20
 750 0024 A1F800C0 		strh	ip, [r1, #0]	@ movhi
 751              	.L92:
 752              	.LBE4:
 931:.\Generated_Source\PSoC5/CyDmac.c ****         }
 932:.\Generated_Source\PSoC5/CyDmac.c **** 
 933:.\Generated_Source\PSoC5/CyDmac.c ****         /* If we have a pointer */
 934:.\Generated_Source\PSoC5/CyDmac.c ****         if(NULL != nextTd)
 753              		.loc 1 934 0
 754 0028 32B1     		cbz	r2, .L93
 935:.\Generated_Source\PSoC5/CyDmac.c ****         {
 936:.\Generated_Source\PSoC5/CyDmac.c ****             /* Get the Next TD pointer */
 937:.\Generated_Source\PSoC5/CyDmac.c ****             *nextTd = CY_DMA_TDMEM_STRUCT_PTR[tdHandle].TD0[2u];
 755              		.loc 1 937 0
 756 002a C100     		lsls	r1, r0, #3
 757              	.LVL83:
 758 002c 01F18041 		add	r1, r1, #1073741824
 759 0030 01F5F041 		add	r1, r1, #30720
 760 0034 8978     		ldrb	r1, [r1, #2]	@ zero_extendqisi2
 761 0036 1170     		strb	r1, [r2, #0]
 762              	.LVL84:
 763              	.L93:
 938:.\Generated_Source\PSoC5/CyDmac.c ****         }
 939:.\Generated_Source\PSoC5/CyDmac.c **** 
 940:.\Generated_Source\PSoC5/CyDmac.c ****         /* If we have a pointer */
 941:.\Generated_Source\PSoC5/CyDmac.c ****         if(NULL != configuration)
 764              		.loc 1 941 0
 765 0038 0BB9     		cbnz	r3, .L94
ARM GAS  C:\DOCUME~1\ADMINI~1\LOCALS~1\Temp\ccrdSJxJ.s 			page 31


 766 003a 1846     		mov	r0, r3
 767              	.LVL85:
 768 003c 10BD     		pop	{r4, pc}
 769              	.LVL86:
 770              	.L94:
 942:.\Generated_Source\PSoC5/CyDmac.c ****         {
 943:.\Generated_Source\PSoC5/CyDmac.c ****             /* Get the configuration the TD */
 944:.\Generated_Source\PSoC5/CyDmac.c ****             *configuration = CY_DMA_TDMEM_STRUCT_PTR[tdHandle].TD0[3u];
 771              		.loc 1 944 0
 772 003e C000     		lsls	r0, r0, #3
 773              	.LVL87:
 774 0040 00F18040 		add	r0, r0, #1073741824
 775 0044 00F5F040 		add	r0, r0, #30720
 776 0048 C278     		ldrb	r2, [r0, #3]	@ zero_extendqisi2
 777              	.LVL88:
 778 004a 0020     		movs	r0, #0
 779              	.LVL89:
 780 004c 1A70     		strb	r2, [r3, #0]
 781              	.LVL90:
 945:.\Generated_Source\PSoC5/CyDmac.c ****         }
 946:.\Generated_Source\PSoC5/CyDmac.c **** 
 947:.\Generated_Source\PSoC5/CyDmac.c ****         status = CYRET_SUCCESS;
 948:.\Generated_Source\PSoC5/CyDmac.c ****     }
 949:.\Generated_Source\PSoC5/CyDmac.c **** 
 950:.\Generated_Source\PSoC5/CyDmac.c ****     return(status);
 951:.\Generated_Source\PSoC5/CyDmac.c **** }
 782              		.loc 1 951 0
 783 004e 10BD     		pop	{r4, pc}
 784              		.cfi_endproc
 785              	.LFE20:
 786              		.size	CyDmaTdGetConfiguration, .-CyDmaTdGetConfiguration
 787              		.section	.text.CyDmaTdSetAddress,"ax",%progbits
 788              		.align	1
 789              		.global	CyDmaTdSetAddress
 790              		.thumb
 791              		.thumb_func
 792              		.type	CyDmaTdSetAddress, %function
 793              	CyDmaTdSetAddress:
 794              	.LFB21:
 952:.\Generated_Source\PSoC5/CyDmac.c **** 
 953:.\Generated_Source\PSoC5/CyDmac.c **** 
 954:.\Generated_Source\PSoC5/CyDmac.c **** /*******************************************************************************
 955:.\Generated_Source\PSoC5/CyDmac.c **** * Function Name: CyDmaTdSetAddress
 956:.\Generated_Source\PSoC5/CyDmac.c **** ********************************************************************************
 957:.\Generated_Source\PSoC5/CyDmac.c **** *
 958:.\Generated_Source\PSoC5/CyDmac.c **** * Summary:
 959:.\Generated_Source\PSoC5/CyDmac.c **** *  Sets the lower 16 bits of the source and destination addresses for this TD
 960:.\Generated_Source\PSoC5/CyDmac.c **** *  only.
 961:.\Generated_Source\PSoC5/CyDmac.c **** *
 962:.\Generated_Source\PSoC5/CyDmac.c **** * Parameters:
 963:.\Generated_Source\PSoC5/CyDmac.c **** *  uint8 tdHandle:
 964:.\Generated_Source\PSoC5/CyDmac.c **** *   A handle previously returned by CyDmaTdAlloc().
 965:.\Generated_Source\PSoC5/CyDmac.c **** *
 966:.\Generated_Source\PSoC5/CyDmac.c **** *  uint16 source:
 967:.\Generated_Source\PSoC5/CyDmac.c **** *   The lower 16 address bits of the source of the data transfer.
 968:.\Generated_Source\PSoC5/CyDmac.c **** *
 969:.\Generated_Source\PSoC5/CyDmac.c **** *  uint16 destination:
ARM GAS  C:\DOCUME~1\ADMINI~1\LOCALS~1\Temp\ccrdSJxJ.s 			page 32


 970:.\Generated_Source\PSoC5/CyDmac.c **** *   The lower 16 address bits of the destination of the data transfer.
 971:.\Generated_Source\PSoC5/CyDmac.c **** *
 972:.\Generated_Source\PSoC5/CyDmac.c **** * Return:
 973:.\Generated_Source\PSoC5/CyDmac.c **** *  CYRET_SUCCESS if successful.
 974:.\Generated_Source\PSoC5/CyDmac.c **** *  CYRET_BAD_PARAM if tdHandle is invalid.
 975:.\Generated_Source\PSoC5/CyDmac.c **** *
 976:.\Generated_Source\PSoC5/CyDmac.c **** *******************************************************************************/
 977:.\Generated_Source\PSoC5/CyDmac.c **** cystatus CyDmaTdSetAddress(uint8 tdHandle, uint16 source, uint16 destination) 
 978:.\Generated_Source\PSoC5/CyDmac.c **** {
 795              		.loc 1 978 0
 796              		.cfi_startproc
 797              		@ args = 0, pretend = 0, frame = 0
 798              		@ frame_needed = 0, uses_anonymous_args = 0
 799              		@ link register save eliminated.
 800              	.LVL91:
 979:.\Generated_Source\PSoC5/CyDmac.c ****     cystatus status = CYRET_BAD_PARAM;
 980:.\Generated_Source\PSoC5/CyDmac.c **** 
 981:.\Generated_Source\PSoC5/CyDmac.c ****     if(tdHandle < CY_DMA_NUMBEROF_TDS)
 801              		.loc 1 981 0
 802 0000 10F0800F 		tst	r0, #128
 803 0004 01D0     		beq	.L97
 804 0006 0120     		movs	r0, #1
 805              	.LVL92:
 806 0008 7047     		bx	lr
 807              	.LVL93:
 808              	.L97:
 809              	.LBB5:
 982:.\Generated_Source\PSoC5/CyDmac.c ****     {
 983:.\Generated_Source\PSoC5/CyDmac.c ****         /* Set source address */
 984:.\Generated_Source\PSoC5/CyDmac.c ****         reg16 *convert = (reg16 *) &CY_DMA_TDMEM_STRUCT_PTR[tdHandle].TD1[0];
 810              		.loc 1 984 0
 811 000a C000     		lsls	r0, r0, #3
 812              	.LVL94:
 813 000c 00F18040 		add	r0, r0, #1073741824
 814 0010 00F5F040 		add	r0, r0, #30720
 985:.\Generated_Source\PSoC5/CyDmac.c ****         CY_SET_REG16(convert, source);
 815              		.loc 1 985 0
 816 0014 8180     		strh	r1, [r0, #4]	@ movhi
 986:.\Generated_Source\PSoC5/CyDmac.c **** 
 987:.\Generated_Source\PSoC5/CyDmac.c ****         /* Set destination address */
 988:.\Generated_Source\PSoC5/CyDmac.c ****         CY_SET_REG16((reg16 *) &CY_DMA_TDMEM_STRUCT_PTR[tdHandle].TD1[2], destination);
 817              		.loc 1 988 0
 818 0016 C280     		strh	r2, [r0, #6]	@ movhi
 819 0018 0020     		movs	r0, #0
 820              	.LVL95:
 821              	.LVL96:
 822              	.LBE5:
 989:.\Generated_Source\PSoC5/CyDmac.c **** 
 990:.\Generated_Source\PSoC5/CyDmac.c ****         status = CYRET_SUCCESS;
 991:.\Generated_Source\PSoC5/CyDmac.c ****     }
 992:.\Generated_Source\PSoC5/CyDmac.c **** 
 993:.\Generated_Source\PSoC5/CyDmac.c ****     return(status);
 994:.\Generated_Source\PSoC5/CyDmac.c **** }
 823              		.loc 1 994 0
 824 001a 7047     		bx	lr
 825              		.cfi_endproc
 826              	.LFE21:
ARM GAS  C:\DOCUME~1\ADMINI~1\LOCALS~1\Temp\ccrdSJxJ.s 			page 33


 827              		.size	CyDmaTdSetAddress, .-CyDmaTdSetAddress
 828              		.section	.text.CyDmaTdGetAddress,"ax",%progbits
 829              		.align	1
 830              		.global	CyDmaTdGetAddress
 831              		.thumb
 832              		.thumb_func
 833              		.type	CyDmaTdGetAddress, %function
 834              	CyDmaTdGetAddress:
 835              	.LFB22:
 995:.\Generated_Source\PSoC5/CyDmac.c **** 
 996:.\Generated_Source\PSoC5/CyDmac.c **** 
 997:.\Generated_Source\PSoC5/CyDmac.c **** /*******************************************************************************
 998:.\Generated_Source\PSoC5/CyDmac.c **** * Function Name: CyDmaTdGetAddress
 999:.\Generated_Source\PSoC5/CyDmac.c **** ********************************************************************************
1000:.\Generated_Source\PSoC5/CyDmac.c **** *
1001:.\Generated_Source\PSoC5/CyDmac.c **** * Summary:
1002:.\Generated_Source\PSoC5/CyDmac.c **** *  Retrieves the lower 16 bits of the source and/or destination addresses for
1003:.\Generated_Source\PSoC5/CyDmac.c **** *  this TD only. If NULL is passed for a pointer parameter, that value is
1004:.\Generated_Source\PSoC5/CyDmac.c **** *  skipped. You may request only the values of interest.
1005:.\Generated_Source\PSoC5/CyDmac.c **** *
1006:.\Generated_Source\PSoC5/CyDmac.c **** * Parameters:
1007:.\Generated_Source\PSoC5/CyDmac.c **** *  uint8 tdHandle:
1008:.\Generated_Source\PSoC5/CyDmac.c **** *   A handle previously returned by CyDmaTdAlloc().
1009:.\Generated_Source\PSoC5/CyDmac.c **** *
1010:.\Generated_Source\PSoC5/CyDmac.c **** *  uint16 * source:
1011:.\Generated_Source\PSoC5/CyDmac.c **** *   The address to store the lower 16 address bits of the source of the data
1012:.\Generated_Source\PSoC5/CyDmac.c **** *   transfer.
1013:.\Generated_Source\PSoC5/CyDmac.c **** *
1014:.\Generated_Source\PSoC5/CyDmac.c **** *  uint16 * destination:
1015:.\Generated_Source\PSoC5/CyDmac.c **** *   The address to store the lower 16 address bits of the destination of the
1016:.\Generated_Source\PSoC5/CyDmac.c **** *   data transfer.
1017:.\Generated_Source\PSoC5/CyDmac.c **** *
1018:.\Generated_Source\PSoC5/CyDmac.c **** * Return:
1019:.\Generated_Source\PSoC5/CyDmac.c **** *  CYRET_SUCCESS if successful.
1020:.\Generated_Source\PSoC5/CyDmac.c **** *  CYRET_BAD_PARAM if tdHandle is invalid.
1021:.\Generated_Source\PSoC5/CyDmac.c **** *
1022:.\Generated_Source\PSoC5/CyDmac.c **** *******************************************************************************/
1023:.\Generated_Source\PSoC5/CyDmac.c **** cystatus CyDmaTdGetAddress(uint8 tdHandle, uint16 * source, uint16 * destination) 
1024:.\Generated_Source\PSoC5/CyDmac.c **** {
 836              		.loc 1 1024 0
 837              		.cfi_startproc
 838              		@ args = 0, pretend = 0, frame = 0
 839              		@ frame_needed = 0, uses_anonymous_args = 0
 840              		@ link register save eliminated.
 841              	.LVL97:
1025:.\Generated_Source\PSoC5/CyDmac.c ****     cystatus status = CYRET_BAD_PARAM;
1026:.\Generated_Source\PSoC5/CyDmac.c **** 
1027:.\Generated_Source\PSoC5/CyDmac.c ****     if(tdHandle < CY_DMA_NUMBEROF_TDS)
 842              		.loc 1 1027 0
 843 0000 10F0800F 		tst	r0, #128
 844 0004 01D0     		beq	.L101
 845 0006 0120     		movs	r0, #1
 846              	.LVL98:
 847 0008 7047     		bx	lr
 848              	.LVL99:
 849              	.L101:
1028:.\Generated_Source\PSoC5/CyDmac.c ****     {
ARM GAS  C:\DOCUME~1\ADMINI~1\LOCALS~1\Temp\ccrdSJxJ.s 			page 34


1029:.\Generated_Source\PSoC5/CyDmac.c ****         /* If we have a pointer. */
1030:.\Generated_Source\PSoC5/CyDmac.c ****         if(NULL != source)
 850              		.loc 1 1030 0
 851 000a 31B1     		cbz	r1, .L103
 852              	.LBB6:
1031:.\Generated_Source\PSoC5/CyDmac.c ****         {
1032:.\Generated_Source\PSoC5/CyDmac.c ****             /* Get source address */
1033:.\Generated_Source\PSoC5/CyDmac.c ****             reg16 *convert = (reg16 *) &CY_DMA_TDMEM_STRUCT_PTR[tdHandle].TD1[0];
 853              		.loc 1 1033 0
 854 000c C300     		lsls	r3, r0, #3
 855 000e 03F18043 		add	r3, r3, #1073741824
 856 0012 03F5F043 		add	r3, r3, #30720
1034:.\Generated_Source\PSoC5/CyDmac.c ****             *source = CY_GET_REG16(convert);
 857              		.loc 1 1034 0
 858 0016 9B88     		ldrh	r3, [r3, #4]
 859 0018 0B80     		strh	r3, [r1, #0]	@ movhi
 860              	.L103:
 861              	.LBE6:
1035:.\Generated_Source\PSoC5/CyDmac.c ****         }
1036:.\Generated_Source\PSoC5/CyDmac.c **** 
1037:.\Generated_Source\PSoC5/CyDmac.c ****         /* If we have a pointer. */
1038:.\Generated_Source\PSoC5/CyDmac.c ****         if(NULL != destination)
 862              		.loc 1 1038 0
 863 001a 0AB9     		cbnz	r2, .L104
 864 001c 1046     		mov	r0, r2
 865              	.LVL100:
 866 001e 7047     		bx	lr
 867              	.LVL101:
 868              	.L104:
1039:.\Generated_Source\PSoC5/CyDmac.c ****         {
1040:.\Generated_Source\PSoC5/CyDmac.c ****             /* Get Destination address. */
1041:.\Generated_Source\PSoC5/CyDmac.c ****             *destination = CY_GET_REG16((reg16 *) &CY_DMA_TDMEM_STRUCT_PTR[tdHandle].TD1[2]);
 869              		.loc 1 1041 0
 870 0020 C000     		lsls	r0, r0, #3
 871              	.LVL102:
 872 0022 00F18040 		add	r0, r0, #1073741824
 873 0026 00F5F040 		add	r0, r0, #30720
 874 002a C388     		ldrh	r3, [r0, #6]
 875 002c 0020     		movs	r0, #0
 876              	.LVL103:
 877 002e 1380     		strh	r3, [r2, #0]	@ movhi
 878              	.LVL104:
1042:.\Generated_Source\PSoC5/CyDmac.c ****         }
1043:.\Generated_Source\PSoC5/CyDmac.c **** 
1044:.\Generated_Source\PSoC5/CyDmac.c ****         status = CYRET_SUCCESS;
1045:.\Generated_Source\PSoC5/CyDmac.c ****     }
1046:.\Generated_Source\PSoC5/CyDmac.c **** 
1047:.\Generated_Source\PSoC5/CyDmac.c ****     return(status);
1048:.\Generated_Source\PSoC5/CyDmac.c **** }
 879              		.loc 1 1048 0
 880 0030 7047     		bx	lr
 881              		.cfi_endproc
 882              	.LFE22:
 883              		.size	CyDmaTdGetAddress, .-CyDmaTdGetAddress
 884              		.section	.text.CyDmaChRoundRobin,"ax",%progbits
 885              		.align	1
 886              		.global	CyDmaChRoundRobin
ARM GAS  C:\DOCUME~1\ADMINI~1\LOCALS~1\Temp\ccrdSJxJ.s 			page 35


 887              		.thumb
 888              		.thumb_func
 889              		.type	CyDmaChRoundRobin, %function
 890              	CyDmaChRoundRobin:
 891              	.LFB23:
1049:.\Generated_Source\PSoC5/CyDmac.c **** 
1050:.\Generated_Source\PSoC5/CyDmac.c **** 
1051:.\Generated_Source\PSoC5/CyDmac.c **** /*******************************************************************************
1052:.\Generated_Source\PSoC5/CyDmac.c **** * Function Name: CyDmaChRoundRobin
1053:.\Generated_Source\PSoC5/CyDmac.c **** ********************************************************************************
1054:.\Generated_Source\PSoC5/CyDmac.c **** *
1055:.\Generated_Source\PSoC5/CyDmac.c **** * Summary:
1056:.\Generated_Source\PSoC5/CyDmac.c **** *  Either enables or disables the Round-Robin scheduling enforcement algorithm.
1057:.\Generated_Source\PSoC5/CyDmac.c **** *  Within a priority level a Round-Robin fairness algorithm is enforced.
1058:.\Generated_Source\PSoC5/CyDmac.c **** *
1059:.\Generated_Source\PSoC5/CyDmac.c **** * Parameters:
1060:.\Generated_Source\PSoC5/CyDmac.c **** *  uint8 chHandle:
1061:.\Generated_Source\PSoC5/CyDmac.c **** *   A handle previously returned by CyDmaChAlloc() or Dma_DmaInitialize().
1062:.\Generated_Source\PSoC5/CyDmac.c **** *
1063:.\Generated_Source\PSoC5/CyDmac.c **** *  uint8 enableRR:
1064:.\Generated_Source\PSoC5/CyDmac.c **** *   0: Disable Round-Robin fairness algorithm
1065:.\Generated_Source\PSoC5/CyDmac.c **** *   1: Enable Round-Robin fairness algorithm
1066:.\Generated_Source\PSoC5/CyDmac.c **** *
1067:.\Generated_Source\PSoC5/CyDmac.c **** * Return:
1068:.\Generated_Source\PSoC5/CyDmac.c **** *  CYRET_SUCCESS if successful.
1069:.\Generated_Source\PSoC5/CyDmac.c **** *  CYRET_BAD_PARAM if chHandle is invalid.
1070:.\Generated_Source\PSoC5/CyDmac.c **** *
1071:.\Generated_Source\PSoC5/CyDmac.c **** *******************************************************************************/
1072:.\Generated_Source\PSoC5/CyDmac.c **** cystatus CyDmaChRoundRobin(uint8 chHandle, uint8 enableRR) 
1073:.\Generated_Source\PSoC5/CyDmac.c **** {
 892              		.loc 1 1073 0
 893              		.cfi_startproc
 894              		@ args = 0, pretend = 0, frame = 0
 895              		@ frame_needed = 0, uses_anonymous_args = 0
 896              		@ link register save eliminated.
 897              	.LVL105:
1074:.\Generated_Source\PSoC5/CyDmac.c ****     cystatus status = CYRET_BAD_PARAM;
1075:.\Generated_Source\PSoC5/CyDmac.c **** 
1076:.\Generated_Source\PSoC5/CyDmac.c ****     if(chHandle < CY_DMA_NUMBEROF_CHANNELS)
 898              		.loc 1 1076 0
 899 0000 1728     		cmp	r0, #23
 900 0002 01D9     		bls	.L107
 901 0004 0120     		movs	r0, #1
 902              	.LVL106:
 903 0006 7047     		bx	lr
 904              	.LVL107:
 905              	.L107:
1077:.\Generated_Source\PSoC5/CyDmac.c ****     {
1078:.\Generated_Source\PSoC5/CyDmac.c ****         CY_DMA_CH_STRUCT_PTR[chHandle].basic_cfg[0u] =
1079:.\Generated_Source\PSoC5/CyDmac.c ****                 (CY_DMA_CH_STRUCT_PTR[chHandle].basic_cfg[0u] &  ((uint8)(~CY_DMA_ROUND_ROBIN_ENABL
 906              		.loc 1 1079 0
 907 0008 064B     		ldr	r3, .L112
 908 000a 0001     		lsls	r0, r0, #4
 909              	.LVL108:
 910 000c C25C     		ldrb	r2, [r0, r3]	@ zero_extendqisi2
 911              		.loc 1 1078 0
 912 000e 0029     		cmp	r1, #0
ARM GAS  C:\DOCUME~1\ADMINI~1\LOCALS~1\Temp\ccrdSJxJ.s 			page 36


 913 0010 14BF     		ite	ne
 914 0012 1021     		movne	r1, #16
 915 0014 EF21     		moveq	r1, #239
 916              	.LVL109:
 917 0016 02F0EF02 		and	r2, r2, #239
 918 001a 1143     		orrs	r1, r1, r2
 919 001c C154     		strb	r1, [r0, r3]
 920 001e 0020     		movs	r0, #0
 921              	.LVL110:
 922              	.LVL111:
1080:.\Generated_Source\PSoC5/CyDmac.c ****                 ((0u != enableRR) ? CY_DMA_ROUND_ROBIN_ENABLE : ((uint8)(~CY_DMA_ROUND_ROBIN_ENABLE
1081:.\Generated_Source\PSoC5/CyDmac.c **** 
1082:.\Generated_Source\PSoC5/CyDmac.c ****         status = CYRET_SUCCESS;
1083:.\Generated_Source\PSoC5/CyDmac.c ****     }
1084:.\Generated_Source\PSoC5/CyDmac.c **** 
1085:.\Generated_Source\PSoC5/CyDmac.c ****     return(status);
1086:.\Generated_Source\PSoC5/CyDmac.c **** }
 923              		.loc 1 1086 0
 924 0020 7047     		bx	lr
 925              	.L113:
 926 0022 00BF     		.align	2
 927              	.L112:
 928 0024 10700040 		.word	1073770512
 929              		.cfi_endproc
 930              	.LFE23:
 931              		.size	CyDmaChRoundRobin, .-CyDmaChRoundRobin
 932              		.section	.text.CyDmaTdFree,"ax",%progbits
 933              		.align	1
 934              		.global	CyDmaTdFree
 935              		.thumb
 936              		.thumb_func
 937              		.type	CyDmaTdFree, %function
 938              	CyDmaTdFree:
 939              	.LFB17:
 940              		.loc 1 762 0
 941              		.cfi_startproc
 942              		@ args = 0, pretend = 0, frame = 0
 943              		@ frame_needed = 0, uses_anonymous_args = 0
 944              	.LVL112:
 945              		.loc 1 763 0
 946 0000 10F0800F 		tst	r0, #128
 947              		.loc 1 762 0
 948 0004 10B5     		push	{r4, lr}
 949              	.LCFI3:
 950              		.cfi_def_cfa_offset 8
 951              		.loc 1 762 0
 952 0006 0446     		mov	r4, r0
 953              		.cfi_offset 14, -4
 954              		.cfi_offset 4, -8
 955              		.loc 1 763 0
 956 0008 11D1     		bne	.L116
 957              	.LVL113:
 958              	.LBB7:
 959              		.loc 1 766 0
 960 000a FFF7FEFF 		bl	CyEnterCriticalSection
 961              		.loc 1 769 0
 962 000e 084B     		ldr	r3, .L117
ARM GAS  C:\DOCUME~1\ADMINI~1\LOCALS~1\Temp\ccrdSJxJ.s 			page 37


 963 0010 E200     		lsls	r2, r4, #3
 964 0012 1978     		ldrb	r1, [r3, #0]	@ zero_extendqisi2
 965 0014 02F18042 		add	r2, r2, #1073741824
 966 0018 02F5F042 		add	r2, r2, #30720
 967 001c 1170     		strb	r1, [r2, #0]
 968              		.loc 1 775 0
 969 001e 5A78     		ldrb	r2, [r3, #1]	@ zero_extendqisi2
 970              		.loc 1 772 0
 971 0020 1C70     		strb	r4, [r3, #0]
 972              		.loc 1 775 0
 973 0022 0132     		adds	r2, r2, #1
 974 0024 5A70     		strb	r2, [r3, #1]
 975              	.LBE7:
 976              		.loc 1 780 0
 977 0026 BDE81040 		pop	{r4, lr}
 978              	.LBB8:
 979              		.loc 1 778 0
 980 002a FFF7FEBF 		b	CyExitCriticalSection
 981              	.LVL114:
 982              	.L116:
 983 002e 10BD     		pop	{r4, pc}
 984              	.L118:
 985              		.align	2
 986              	.L117:
 987 0030 00000000 		.word	.LANCHOR0
 988              	.LBE8:
 989              		.cfi_endproc
 990              	.LFE17:
 991              		.size	CyDmaTdFree, .-CyDmaTdFree
 992              		.section	.text.CyDmaTdAllocate,"ax",%progbits
 993              		.align	1
 994              		.global	CyDmaTdAllocate
 995              		.thumb
 996              		.thumb_func
 997              		.type	CyDmaTdAllocate, %function
 998              	CyDmaTdAllocate:
 999              	.LFB16:
 1000              		.loc 1 720 0
 1001              		.cfi_startproc
 1002              		@ args = 0, pretend = 0, frame = 0
 1003              		@ frame_needed = 0, uses_anonymous_args = 0
 1004 0000 10B5     		push	{r4, lr}
 1005              	.LCFI4:
 1006              		.cfi_def_cfa_offset 8
 1007              		.loc 1 725 0
 1008              		.cfi_offset 14, -4
 1009              		.cfi_offset 4, -8
 1010 0002 FFF7FEFF 		bl	CyEnterCriticalSection
 1011              		.loc 1 727 0
 1012 0006 0A4B     		ldr	r3, .L123
 1013 0008 5A78     		ldrb	r2, [r3, #1]	@ zero_extendqisi2
 1014 000a 182A     		cmp	r2, #24
 1015 000c 01D8     		bhi	.L120
 1016 000e FF24     		movs	r4, #255
 1017              	.LVL115:
 1018 0010 09E0     		b	.L121
 1019              	.LVL116:
ARM GAS  C:\DOCUME~1\ADMINI~1\LOCALS~1\Temp\ccrdSJxJ.s 			page 38


 1020              	.L120:
 1021              		.loc 1 730 0
 1022 0012 1C78     		ldrb	r4, [r3, #0]	@ zero_extendqisi2
 1023              	.LVL117:
 1024              		.loc 1 733 0
 1025 0014 013A     		subs	r2, r2, #1
 1026 0016 5A70     		strb	r2, [r3, #1]
 1027              		.loc 1 736 0
 1028 0018 E200     		lsls	r2, r4, #3
 1029 001a 02F18042 		add	r2, r2, #1073741824
 1030 001e 02F5F042 		add	r2, r2, #30720
 1031 0022 1278     		ldrb	r2, [r2, #0]	@ zero_extendqisi2
 1032 0024 1A70     		strb	r2, [r3, #0]
 1033              	.L121:
 1034              		.loc 1 740 0
 1035 0026 FFF7FEFF 		bl	CyExitCriticalSection
 1036              		.loc 1 743 0
 1037 002a 2046     		mov	r0, r4
 1038 002c 10BD     		pop	{r4, pc}
 1039              	.L124:
 1040 002e 00BF     		.align	2
 1041              	.L123:
 1042 0030 00000000 		.word	.LANCHOR0
 1043              		.cfi_endproc
 1044              	.LFE16:
 1045              		.size	CyDmaTdAllocate, .-CyDmaTdAllocate
 1046              		.section	.text.CyDmaChFree,"ax",%progbits
 1047              		.align	1
 1048              		.global	CyDmaChFree
 1049              		.thumb
 1050              		.thumb_func
 1051              		.type	CyDmaChFree, %function
 1052              	CyDmaChFree:
 1053              	.LFB5:
 1054              		.loc 1 235 0
 1055              		.cfi_startproc
 1056              		@ args = 0, pretend = 0, frame = 0
 1057              		@ frame_needed = 0, uses_anonymous_args = 0
 1058              	.LVL118:
 1059              		.loc 1 239 0
 1060 0000 1728     		cmp	r0, #23
 1061              		.loc 1 235 0
 1062 0002 10B5     		push	{r4, lr}
 1063              	.LCFI5:
 1064              		.cfi_def_cfa_offset 8
 1065              		.loc 1 235 0
 1066 0004 0446     		mov	r4, r0
 1067              		.cfi_offset 14, -4
 1068              		.cfi_offset 4, -8
 1069              		.loc 1 239 0
 1070 0006 01D9     		bls	.L126
 1071              	.LVL119:
 1072 0008 0120     		movs	r0, #1
 1073              	.LVL120:
 1074 000a 10BD     		pop	{r4, pc}
 1075              	.LVL121:
 1076              	.L126:
ARM GAS  C:\DOCUME~1\ADMINI~1\LOCALS~1\Temp\ccrdSJxJ.s 			page 39


 1077              		.loc 1 242 0
 1078 000c FFF7FEFF 		bl	CyEnterCriticalSection
 1079              		.loc 1 245 0
 1080 0010 0122     		movs	r2, #1
 1081 0012 12FA04F4 		lsls	r4, r2, r4
 1082              	.LVL122:
 1083 0016 044B     		ldr	r3, .L129
 1084 0018 5A68     		ldr	r2, [r3, #4]
 1085 001a 22EA0404 		bic	r4, r2, r4
 1086 001e 5C60     		str	r4, [r3, #4]
 1087              		.loc 1 248 0
 1088 0020 FFF7FEFF 		bl	CyExitCriticalSection
 1089 0024 0020     		movs	r0, #0
 1090              	.LVL123:
 1091              	.LVL124:
 1092              		.loc 1 253 0
 1093 0026 10BD     		pop	{r4, pc}
 1094              	.L130:
 1095              		.align	2
 1096              	.L129:
 1097 0028 00000000 		.word	.LANCHOR0
 1098              		.cfi_endproc
 1099              	.LFE5:
 1100              		.size	CyDmaChFree, .-CyDmaChFree
 1101              		.section	.text.CyDmaChAlloc,"ax",%progbits
 1102              		.align	1
 1103              		.global	CyDmaChAlloc
 1104              		.thumb
 1105              		.thumb_func
 1106              		.type	CyDmaChAlloc, %function
 1107              	CyDmaChAlloc:
 1108              	.LFB4:
 1109              		.loc 1 184 0
 1110              		.cfi_startproc
 1111              		@ args = 0, pretend = 0, frame = 0
 1112              		@ frame_needed = 0, uses_anonymous_args = 0
 1113 0000 10B5     		push	{r4, lr}
 1114              	.LCFI6:
 1115              		.cfi_def_cfa_offset 8
 1116              		.loc 1 191 0
 1117              		.cfi_offset 14, -4
 1118              		.cfi_offset 4, -8
 1119 0002 FFF7FEFF 		bl	CyEnterCriticalSection
 1120              		.loc 1 196 0
 1121 0006 0C4B     		ldr	r3, .L137
 1122 0008 0024     		movs	r4, #0
 1123              	.LVL125:
 1124 000a 5A68     		ldr	r2, [r3, #4]
 1125 000c 0123     		movs	r3, #1
 1126              	.LVL126:
 1127              	.L135:
 1128 000e 1342     		tst	r3, r2
 1129 0010 06D1     		bne	.L132
 1130              		.loc 1 199 0
 1131 0012 0949     		ldr	r1, .L137
 1132 0014 42EA0303 		orr	r3, r2, r3
 1133              	.LVL127:
ARM GAS  C:\DOCUME~1\ADMINI~1\LOCALS~1\Temp\ccrdSJxJ.s 			page 40


 1134              		.loc 1 206 0
 1135 0018 172C     		cmp	r4, #23
 1136              		.loc 1 199 0
 1137 001a 4B60     		str	r3, [r1, #4]
 1138              		.loc 1 206 0
 1139 001c 07D9     		bls	.L134
 1140 001e 05E0     		b	.L133
 1141              	.LVL128:
 1142              	.L132:
 1143              		.loc 1 194 0
 1144 0020 0134     		adds	r4, r4, #1
 1145              	.LVL129:
 1146 0022 E4B2     		uxtb	r4, r4
 1147              	.LVL130:
 1148 0024 182C     		cmp	r4, #24
 1149 0026 01D0     		beq	.L133
 1150              		.loc 1 203 0
 1151 0028 5B00     		lsls	r3, r3, #1
 1152 002a F0E7     		b	.L135
 1153              	.L133:
 1154 002c FF24     		movs	r4, #255
 1155              	.LVL131:
 1156              	.L134:
 1157              		.loc 1 212 0
 1158 002e FFF7FEFF 		bl	CyExitCriticalSection
 1159              	.LVL132:
 1160              		.loc 1 215 0
 1161 0032 2046     		mov	r0, r4
 1162 0034 10BD     		pop	{r4, pc}
 1163              	.L138:
 1164 0036 00BF     		.align	2
 1165              	.L137:
 1166 0038 00000000 		.word	.LANCHOR0
 1167              		.cfi_endproc
 1168              	.LFE4:
 1169              		.size	CyDmaChAlloc, .-CyDmaChAlloc
 1170              		.bss
 1171              		.align	2
 1172              		.set	.LANCHOR0,. + 0
 1173              		.type	CyDmaTdFreeIndex, %object
 1174              		.size	CyDmaTdFreeIndex, 1
 1175              	CyDmaTdFreeIndex:
 1176 0000 00       		.space	1
 1177              		.type	CyDmaTdCurrentNumber, %object
 1178              		.size	CyDmaTdCurrentNumber, 1
 1179              	CyDmaTdCurrentNumber:
 1180 0001 00       		.space	1
 1181 0002 0000     		.space	2
 1182              		.type	CyDmaChannels, %object
 1183              		.size	CyDmaChannels, 4
 1184              	CyDmaChannels:
 1185 0004 00000000 		.space	4
 1186              		.text
 1187              	.Letext0: