ARM GAS  C:\DOCUME~1\ADMINI~1\LOCALS~1\Temp\ccEzm20X.s 			page 1


   1              		.syntax unified
   2              		.cpu cortex-m3
   3              		.fpu softvfp
   4              		.eabi_attribute 20, 1
   5              		.eabi_attribute 21, 1
   6              		.eabi_attribute 23, 3
   7              		.eabi_attribute 24, 1
   8              		.eabi_attribute 25, 1
   9              		.eabi_attribute 26, 1
  10              		.eabi_attribute 30, 4
  11              		.eabi_attribute 18, 4
  12              		.thumb
  13              		.file	"cyfitter_cfg.c"
  20 0000 0C020000 		.text
  20      0200EA00 
  20      00000201 
  20      FB0E0D00 
  20      01010101 
  21              	.Ltext0:
  22              		.cfi_sections	.debug_frame
  23              		.section	.text.SetAnalogRoutingPumps,"ax",%progbits
  24              		.align	1
  25              		.global	SetAnalogRoutingPumps
  26              		.thumb
  27              		.thumb_func
  28              		.type	SetAnalogRoutingPumps, %function
  29              	SetAnalogRoutingPumps:
  30              	.LFB6:
  31              		.file 1 ".\\Generated_Source\\PSoC5\\cyfitter_cfg.c"
   1:.\Generated_Source\PSoC5/cyfitter_cfg.c **** /*******************************************************************************
   2:.\Generated_Source\PSoC5/cyfitter_cfg.c **** * FILENAME: cyfitter_cfg.c
   3:.\Generated_Source\PSoC5/cyfitter_cfg.c **** * PSoC Creator 2.2 Component Pack 6
   4:.\Generated_Source\PSoC5/cyfitter_cfg.c **** *
   5:.\Generated_Source\PSoC5/cyfitter_cfg.c **** * Description:
   6:.\Generated_Source\PSoC5/cyfitter_cfg.c **** * This file is automatically generated by PSoC Creator with device 
   7:.\Generated_Source\PSoC5/cyfitter_cfg.c **** * initialization code.  Except for the user defined sections in
   8:.\Generated_Source\PSoC5/cyfitter_cfg.c **** * CyClockStartupError(), this file should not be modified.
   9:.\Generated_Source\PSoC5/cyfitter_cfg.c **** *
  10:.\Generated_Source\PSoC5/cyfitter_cfg.c **** ********************************************************************************
  11:.\Generated_Source\PSoC5/cyfitter_cfg.c **** * Copyright 2013, Cypress Semiconductor Corporation.  All rights reserved.
  12:.\Generated_Source\PSoC5/cyfitter_cfg.c **** * You may use this file only in accordance with the license, terms, conditions, 
  13:.\Generated_Source\PSoC5/cyfitter_cfg.c **** * disclaimers, and limitations in the end user license agreement accompanying 
  14:.\Generated_Source\PSoC5/cyfitter_cfg.c **** * the software package with which this file was provided.
  15:.\Generated_Source\PSoC5/cyfitter_cfg.c **** ********************************************************************************/
  16:.\Generated_Source\PSoC5/cyfitter_cfg.c **** 
  17:.\Generated_Source\PSoC5/cyfitter_cfg.c **** #include <string.h>
  18:.\Generated_Source\PSoC5/cyfitter_cfg.c **** #include <cytypes.h>
  19:.\Generated_Source\PSoC5/cyfitter_cfg.c **** #include <cydevice_trm.h>
  20:.\Generated_Source\PSoC5/cyfitter_cfg.c **** #include <cyfitter.h>
  21:.\Generated_Source\PSoC5/cyfitter_cfg.c **** #include <CyLib.h>
  22:.\Generated_Source\PSoC5/cyfitter_cfg.c **** #include <cyfitter_cfg.h>
ARM GAS  C:\DOCUME~1\ADMINI~1\LOCALS~1\Temp\ccEzm20X.s 			page 2


  23:.\Generated_Source\PSoC5/cyfitter_cfg.c **** 
  24:.\Generated_Source\PSoC5/cyfitter_cfg.c **** /* Clock startup error codes                                                   */
  25:.\Generated_Source\PSoC5/cyfitter_cfg.c **** #define CYCLOCKSTART_NO_ERROR    0u
  26:.\Generated_Source\PSoC5/cyfitter_cfg.c **** #define CYCLOCKSTART_XTAL_ERROR  1u
  27:.\Generated_Source\PSoC5/cyfitter_cfg.c **** #define CYCLOCKSTART_32KHZ_ERROR 2u
  28:.\Generated_Source\PSoC5/cyfitter_cfg.c **** #define CYCLOCKSTART_PLL_ERROR   3u
  29:.\Generated_Source\PSoC5/cyfitter_cfg.c **** 
  30:.\Generated_Source\PSoC5/cyfitter_cfg.c **** #ifdef CY_NEED_CYCLOCKSTARTUPERROR
  31:.\Generated_Source\PSoC5/cyfitter_cfg.c **** /*******************************************************************************
  32:.\Generated_Source\PSoC5/cyfitter_cfg.c **** * Function Name: CyClockStartupError
  33:.\Generated_Source\PSoC5/cyfitter_cfg.c **** ********************************************************************************
  34:.\Generated_Source\PSoC5/cyfitter_cfg.c **** * Summary:
  35:.\Generated_Source\PSoC5/cyfitter_cfg.c **** *  If an error is encountered during clock configuration (crystal startup error,
  36:.\Generated_Source\PSoC5/cyfitter_cfg.c **** *  PLL lock error, etc.), the system will end up here.  Unless reimplemented by
  37:.\Generated_Source\PSoC5/cyfitter_cfg.c **** *  the customer, this function will stop in an infinite loop.
  38:.\Generated_Source\PSoC5/cyfitter_cfg.c **** *
  39:.\Generated_Source\PSoC5/cyfitter_cfg.c **** * Parameters:
  40:.\Generated_Source\PSoC5/cyfitter_cfg.c **** *   void
  41:.\Generated_Source\PSoC5/cyfitter_cfg.c **** *
  42:.\Generated_Source\PSoC5/cyfitter_cfg.c **** * Return:
  43:.\Generated_Source\PSoC5/cyfitter_cfg.c **** *   void
  44:.\Generated_Source\PSoC5/cyfitter_cfg.c **** *
  45:.\Generated_Source\PSoC5/cyfitter_cfg.c **** *******************************************************************************/
  46:.\Generated_Source\PSoC5/cyfitter_cfg.c **** #if defined(__GNUC__) || defined(__ARMCC_VERSION)
  47:.\Generated_Source\PSoC5/cyfitter_cfg.c **** __attribute__ ((unused))
  48:.\Generated_Source\PSoC5/cyfitter_cfg.c **** #endif
  49:.\Generated_Source\PSoC5/cyfitter_cfg.c **** static void CyClockStartupError(uint8 errorCode);
  50:.\Generated_Source\PSoC5/cyfitter_cfg.c **** #if defined(__GNUC__) || defined(__ARMCC_VERSION)
  51:.\Generated_Source\PSoC5/cyfitter_cfg.c **** __attribute__ ((unused))
  52:.\Generated_Source\PSoC5/cyfitter_cfg.c **** #endif
  53:.\Generated_Source\PSoC5/cyfitter_cfg.c **** static void CyClockStartupError(uint8 errorCode)
  54:.\Generated_Source\PSoC5/cyfitter_cfg.c **** {
  55:.\Generated_Source\PSoC5/cyfitter_cfg.c ****     /* To remove the compiler warning if errorCode not used.                */
  56:.\Generated_Source\PSoC5/cyfitter_cfg.c ****     errorCode = errorCode;
  57:.\Generated_Source\PSoC5/cyfitter_cfg.c **** 
  58:.\Generated_Source\PSoC5/cyfitter_cfg.c ****     /* `#START CyClockStartupError` */
  59:.\Generated_Source\PSoC5/cyfitter_cfg.c **** 
  60:.\Generated_Source\PSoC5/cyfitter_cfg.c ****     /* If we have a clock startup error (bad MHz crystal, PLL lock, etc.),  */
  61:.\Generated_Source\PSoC5/cyfitter_cfg.c ****     /* we will end up here to allow the customer to implement something to  */
  62:.\Generated_Source\PSoC5/cyfitter_cfg.c ****     /* deal with the clock condition.                                       */
  63:.\Generated_Source\PSoC5/cyfitter_cfg.c **** 
  64:.\Generated_Source\PSoC5/cyfitter_cfg.c ****     /* `#END` */
  65:.\Generated_Source\PSoC5/cyfitter_cfg.c **** 
  66:.\Generated_Source\PSoC5/cyfitter_cfg.c ****     /* If nothing else, stop here since the clocks have not started         */
  67:.\Generated_Source\PSoC5/cyfitter_cfg.c ****     /* correctly.                                                           */
  68:.\Generated_Source\PSoC5/cyfitter_cfg.c ****     while(1) {}
  69:.\Generated_Source\PSoC5/cyfitter_cfg.c **** }
  70:.\Generated_Source\PSoC5/cyfitter_cfg.c **** #endif
  71:.\Generated_Source\PSoC5/cyfitter_cfg.c **** 
  72:.\Generated_Source\PSoC5/cyfitter_cfg.c **** 
  73:.\Generated_Source\PSoC5/cyfitter_cfg.c **** #if defined(__GNUC__) || defined(__ARMCC_VERSION)
  74:.\Generated_Source\PSoC5/cyfitter_cfg.c **** 	#define CYPACKED __attribute__ ((packed))
  75:.\Generated_Source\PSoC5/cyfitter_cfg.c **** 	#define CYALIGNED __attribute__ ((aligned))
  76:.\Generated_Source\PSoC5/cyfitter_cfg.c **** 	
  77:.\Generated_Source\PSoC5/cyfitter_cfg.c **** 	#if defined(__ARMCC_VERSION)
  78:.\Generated_Source\PSoC5/cyfitter_cfg.c **** 		#define CY_CFG_MEMORY_BARRIER() __memory_changed()
  79:.\Generated_Source\PSoC5/cyfitter_cfg.c **** 	#else
ARM GAS  C:\DOCUME~1\ADMINI~1\LOCALS~1\Temp\ccEzm20X.s 			page 3


  80:.\Generated_Source\PSoC5/cyfitter_cfg.c **** 		#define CY_CFG_MEMORY_BARRIER() __sync_synchronize()
  81:.\Generated_Source\PSoC5/cyfitter_cfg.c **** 	#endif
  82:.\Generated_Source\PSoC5/cyfitter_cfg.c **** 	
  83:.\Generated_Source\PSoC5/cyfitter_cfg.c **** 
  84:.\Generated_Source\PSoC5/cyfitter_cfg.c **** 	__attribute__ ((unused))
  85:.\Generated_Source\PSoC5/cyfitter_cfg.c **** 	static void CYMEMZERO(void *s, size_t n);
  86:.\Generated_Source\PSoC5/cyfitter_cfg.c **** 	__attribute__ ((unused))
  87:.\Generated_Source\PSoC5/cyfitter_cfg.c **** 	static void CYMEMZERO(void *s, size_t n)
  88:.\Generated_Source\PSoC5/cyfitter_cfg.c **** 	{
  89:.\Generated_Source\PSoC5/cyfitter_cfg.c **** 		(void)memset(s, 0, n);
  90:.\Generated_Source\PSoC5/cyfitter_cfg.c **** 	}
  91:.\Generated_Source\PSoC5/cyfitter_cfg.c **** 	__attribute__ ((unused))
  92:.\Generated_Source\PSoC5/cyfitter_cfg.c **** 	static void CYCONFIGCPY(void *dest, const void *src, size_t n);
  93:.\Generated_Source\PSoC5/cyfitter_cfg.c **** 	__attribute__ ((unused))
  94:.\Generated_Source\PSoC5/cyfitter_cfg.c **** 	static void CYCONFIGCPY(void *dest, const void *src, size_t n)
  95:.\Generated_Source\PSoC5/cyfitter_cfg.c **** 	{
  96:.\Generated_Source\PSoC5/cyfitter_cfg.c **** 		(void)memcpy(dest, src, n);
  97:.\Generated_Source\PSoC5/cyfitter_cfg.c **** 	}
  98:.\Generated_Source\PSoC5/cyfitter_cfg.c **** 	__attribute__ ((unused))
  99:.\Generated_Source\PSoC5/cyfitter_cfg.c **** 	static void CYCONFIGCPYCODE(void *dest, const void *src, size_t n);
 100:.\Generated_Source\PSoC5/cyfitter_cfg.c **** 	__attribute__ ((unused))
 101:.\Generated_Source\PSoC5/cyfitter_cfg.c **** 	static void CYCONFIGCPYCODE(void *dest, const void *src, size_t n)
 102:.\Generated_Source\PSoC5/cyfitter_cfg.c **** 	{
 103:.\Generated_Source\PSoC5/cyfitter_cfg.c **** 		(void)memcpy(dest, src, n);
 104:.\Generated_Source\PSoC5/cyfitter_cfg.c **** 	}
 105:.\Generated_Source\PSoC5/cyfitter_cfg.c **** #else
 106:.\Generated_Source\PSoC5/cyfitter_cfg.c **** 	#error Unsupported toolchain
 107:.\Generated_Source\PSoC5/cyfitter_cfg.c **** #endif
 108:.\Generated_Source\PSoC5/cyfitter_cfg.c **** 
 109:.\Generated_Source\PSoC5/cyfitter_cfg.c **** #define CY_CFG_BASE_ADDR_COUNT 36u
 110:.\Generated_Source\PSoC5/cyfitter_cfg.c **** typedef struct
 111:.\Generated_Source\PSoC5/cyfitter_cfg.c **** {
 112:.\Generated_Source\PSoC5/cyfitter_cfg.c **** 	uint8 offset;
 113:.\Generated_Source\PSoC5/cyfitter_cfg.c **** 	uint8 value;
 114:.\Generated_Source\PSoC5/cyfitter_cfg.c **** } CYPACKED cy_cfg_addrvalue_t;
 115:.\Generated_Source\PSoC5/cyfitter_cfg.c **** 
 116:.\Generated_Source\PSoC5/cyfitter_cfg.c **** 
 117:.\Generated_Source\PSoC5/cyfitter_cfg.c **** 
 118:.\Generated_Source\PSoC5/cyfitter_cfg.c **** /*******************************************************************************
 119:.\Generated_Source\PSoC5/cyfitter_cfg.c **** * Function Name: cfg_write_bytes32
 120:.\Generated_Source\PSoC5/cyfitter_cfg.c **** ********************************************************************************
 121:.\Generated_Source\PSoC5/cyfitter_cfg.c **** * Summary:
 122:.\Generated_Source\PSoC5/cyfitter_cfg.c **** *  This function is used for setting up the chip configuration areas that
 123:.\Generated_Source\PSoC5/cyfitter_cfg.c **** *  contain relatively sparse data.
 124:.\Generated_Source\PSoC5/cyfitter_cfg.c **** *
 125:.\Generated_Source\PSoC5/cyfitter_cfg.c **** * Parameters:
 126:.\Generated_Source\PSoC5/cyfitter_cfg.c **** *   void
 127:.\Generated_Source\PSoC5/cyfitter_cfg.c **** *
 128:.\Generated_Source\PSoC5/cyfitter_cfg.c **** * Return:
 129:.\Generated_Source\PSoC5/cyfitter_cfg.c **** *   void
 130:.\Generated_Source\PSoC5/cyfitter_cfg.c **** *
 131:.\Generated_Source\PSoC5/cyfitter_cfg.c **** *******************************************************************************/
 132:.\Generated_Source\PSoC5/cyfitter_cfg.c **** static void cfg_write_bytes32(const uint32 addr_table[], const cy_cfg_addrvalue_t data_table[]);
 133:.\Generated_Source\PSoC5/cyfitter_cfg.c **** static void cfg_write_bytes32(const uint32 addr_table[], const cy_cfg_addrvalue_t data_table[])
 134:.\Generated_Source\PSoC5/cyfitter_cfg.c **** {
 135:.\Generated_Source\PSoC5/cyfitter_cfg.c **** 	/* For 32-bit little-endian architectures */
 136:.\Generated_Source\PSoC5/cyfitter_cfg.c **** 	uint32 i, j = 0u;
ARM GAS  C:\DOCUME~1\ADMINI~1\LOCALS~1\Temp\ccEzm20X.s 			page 4


 137:.\Generated_Source\PSoC5/cyfitter_cfg.c **** 	for (i = 0u; i < CY_CFG_BASE_ADDR_COUNT; i++)
 138:.\Generated_Source\PSoC5/cyfitter_cfg.c **** 	{
 139:.\Generated_Source\PSoC5/cyfitter_cfg.c **** 		uint32 baseAddr = addr_table[i];
 140:.\Generated_Source\PSoC5/cyfitter_cfg.c **** 		uint8 count = (uint8)baseAddr;
 141:.\Generated_Source\PSoC5/cyfitter_cfg.c **** 		baseAddr &= 0xFFFFFF00u;
 142:.\Generated_Source\PSoC5/cyfitter_cfg.c **** 		while (count != 0u)
 143:.\Generated_Source\PSoC5/cyfitter_cfg.c **** 		{
 144:.\Generated_Source\PSoC5/cyfitter_cfg.c **** 			CY_SET_XTND_REG8((void CYFAR *)(baseAddr + data_table[j].offset), data_table[j].value);
 145:.\Generated_Source\PSoC5/cyfitter_cfg.c **** 			j++;
 146:.\Generated_Source\PSoC5/cyfitter_cfg.c **** 			count--;
 147:.\Generated_Source\PSoC5/cyfitter_cfg.c **** 		}
 148:.\Generated_Source\PSoC5/cyfitter_cfg.c **** 	}
 149:.\Generated_Source\PSoC5/cyfitter_cfg.c **** }
 150:.\Generated_Source\PSoC5/cyfitter_cfg.c **** 
 151:.\Generated_Source\PSoC5/cyfitter_cfg.c **** /*******************************************************************************
 152:.\Generated_Source\PSoC5/cyfitter_cfg.c **** * Function Name: ClockSetup
 153:.\Generated_Source\PSoC5/cyfitter_cfg.c **** ********************************************************************************
 154:.\Generated_Source\PSoC5/cyfitter_cfg.c **** *
 155:.\Generated_Source\PSoC5/cyfitter_cfg.c **** * Summary:
 156:.\Generated_Source\PSoC5/cyfitter_cfg.c **** *  Performs the initialization of all of the clocks in the device based on the
 157:.\Generated_Source\PSoC5/cyfitter_cfg.c **** *  settings in the Clock tab of the DWR.  This includes enabling the requested
 158:.\Generated_Source\PSoC5/cyfitter_cfg.c **** *  clocks and setting the necessary dividers to produce the desired frequency. 
 159:.\Generated_Source\PSoC5/cyfitter_cfg.c **** *
 160:.\Generated_Source\PSoC5/cyfitter_cfg.c **** * Parameters:
 161:.\Generated_Source\PSoC5/cyfitter_cfg.c **** *  void
 162:.\Generated_Source\PSoC5/cyfitter_cfg.c **** *
 163:.\Generated_Source\PSoC5/cyfitter_cfg.c **** * Return:
 164:.\Generated_Source\PSoC5/cyfitter_cfg.c **** *  void
 165:.\Generated_Source\PSoC5/cyfitter_cfg.c **** *
 166:.\Generated_Source\PSoC5/cyfitter_cfg.c **** *******************************************************************************/
 167:.\Generated_Source\PSoC5/cyfitter_cfg.c **** static void ClockSetup(void);
 168:.\Generated_Source\PSoC5/cyfitter_cfg.c **** static void ClockSetup(void)
 169:.\Generated_Source\PSoC5/cyfitter_cfg.c **** {
 170:.\Generated_Source\PSoC5/cyfitter_cfg.c **** 	/* CYDEV_CLKDIST_ACFG0_CFG0 Address: CYREG_CLKDIST_ACFG0_CFG0 Size (bytes): 4 */
 171:.\Generated_Source\PSoC5/cyfitter_cfg.c **** 	static const uint8 CYCODE BS_CYDEV_CLKDIST_ACFG0_CFG0_VAL[] = {
 172:.\Generated_Source\PSoC5/cyfitter_cfg.c **** 		0xC7u, 0x00u, 0x18u, 0x01u};
 173:.\Generated_Source\PSoC5/cyfitter_cfg.c **** 
 174:.\Generated_Source\PSoC5/cyfitter_cfg.c **** 	uint32 timeout;
 175:.\Generated_Source\PSoC5/cyfitter_cfg.c **** 	uint8 pllLock;
 176:.\Generated_Source\PSoC5/cyfitter_cfg.c **** 
 177:.\Generated_Source\PSoC5/cyfitter_cfg.c **** 
 178:.\Generated_Source\PSoC5/cyfitter_cfg.c **** 	/* Configure Digital Clocks based on settings from Clock DWR */
 179:.\Generated_Source\PSoC5/cyfitter_cfg.c **** 	CY_SET_XTND_REG16((void CYFAR *)(CYREG_CLKDIST_DCFG0_CFG0), 0x0003u);
 180:.\Generated_Source\PSoC5/cyfitter_cfg.c **** 	CY_SET_XTND_REG8((void CYFAR *)(CYREG_CLKDIST_DCFG0_CFG0 + 0x2u), 0x18u);
 181:.\Generated_Source\PSoC5/cyfitter_cfg.c **** 	CY_SET_XTND_REG16((void CYFAR *)(CYREG_CLKDIST_DCFG1_CFG0), 0x0137u);
 182:.\Generated_Source\PSoC5/cyfitter_cfg.c **** 	CY_SET_XTND_REG8((void CYFAR *)(CYREG_CLKDIST_DCFG1_CFG0 + 0x2u), 0x19u);
 183:.\Generated_Source\PSoC5/cyfitter_cfg.c **** 	CY_SET_XTND_REG16((void CYFAR *)(CYREG_CLKDIST_DCFG2_CFG0), 0x0031u);
 184:.\Generated_Source\PSoC5/cyfitter_cfg.c **** 	CY_SET_XTND_REG8((void CYFAR *)(CYREG_CLKDIST_DCFG2_CFG0 + 0x2u), 0x18u);
 185:.\Generated_Source\PSoC5/cyfitter_cfg.c **** 	CY_SET_XTND_REG16((void CYFAR *)(CYREG_CLKDIST_DCFG3_CFG0), 0x01DFu);
 186:.\Generated_Source\PSoC5/cyfitter_cfg.c **** 	CY_SET_XTND_REG8((void CYFAR *)(CYREG_CLKDIST_DCFG3_CFG0 + 0x2u), 0x19u);
 187:.\Generated_Source\PSoC5/cyfitter_cfg.c **** 
 188:.\Generated_Source\PSoC5/cyfitter_cfg.c **** 	/* Configure Analog Clocks based on settings from Clock DWR */
 189:.\Generated_Source\PSoC5/cyfitter_cfg.c **** 	CYCONFIGCPYCODE((void CYFAR *)(CYREG_CLKDIST_ACFG0_CFG0), (const void CYCODE *)(BS_CYDEV_CLKDIST_A
 190:.\Generated_Source\PSoC5/cyfitter_cfg.c **** 
 191:.\Generated_Source\PSoC5/cyfitter_cfg.c **** 	/* Configure ILO based on settings from Clock DWR */
 192:.\Generated_Source\PSoC5/cyfitter_cfg.c **** 	CY_SET_XTND_REG8((void CYFAR *)(CYREG_SLOWCLK_ILO_CR0), 0x06u);
 193:.\Generated_Source\PSoC5/cyfitter_cfg.c **** 
ARM GAS  C:\DOCUME~1\ADMINI~1\LOCALS~1\Temp\ccEzm20X.s 			page 5


 194:.\Generated_Source\PSoC5/cyfitter_cfg.c **** 	/* Configure IMO based on settings from Clock DWR */
 195:.\Generated_Source\PSoC5/cyfitter_cfg.c **** 	CY_SET_XTND_REG8((void CYFAR *)(CYREG_FASTCLK_IMO_CR), 0x52u);
 196:.\Generated_Source\PSoC5/cyfitter_cfg.c **** 	CY_SET_XTND_REG8((void CYFAR *)(CYREG_IMO_TR1), (CY_GET_XTND_REG8((void CYFAR *)CYREG_FLSHID_CUST_
 197:.\Generated_Source\PSoC5/cyfitter_cfg.c **** 
 198:.\Generated_Source\PSoC5/cyfitter_cfg.c **** 	/* Configure PLL based on settings from Clock DWR */
 199:.\Generated_Source\PSoC5/cyfitter_cfg.c **** 	CY_SET_XTND_REG16((void CYFAR *)(CYREG_FASTCLK_PLL_P), 0x0818u);
 200:.\Generated_Source\PSoC5/cyfitter_cfg.c **** 	CY_SET_XTND_REG16((void CYFAR *)(CYREG_FASTCLK_PLL_CFG0), 0x1051u);
 201:.\Generated_Source\PSoC5/cyfitter_cfg.c **** 	/* Wait up to 250us for the PLL to lock */
 202:.\Generated_Source\PSoC5/cyfitter_cfg.c **** 	pllLock = 0u;
 203:.\Generated_Source\PSoC5/cyfitter_cfg.c **** 	for (timeout = 250u / 10u; (timeout > 0u) && (pllLock != 0x03u); timeout--) { 
 204:.\Generated_Source\PSoC5/cyfitter_cfg.c **** 		pllLock = 0x03u & ((uint8)((uint8)pllLock << 1) | ((CY_GET_XTND_REG8((void CYFAR *)CYREG_FASTCLK_
 205:.\Generated_Source\PSoC5/cyfitter_cfg.c **** 		CyDelayCycles(10u * 48u); /* Delay 10us based on 48MHz clock */
 206:.\Generated_Source\PSoC5/cyfitter_cfg.c **** 	}
 207:.\Generated_Source\PSoC5/cyfitter_cfg.c **** 
 208:.\Generated_Source\PSoC5/cyfitter_cfg.c **** 	/* Configure Bus/Master Clock based on settings from Clock DWR */
 209:.\Generated_Source\PSoC5/cyfitter_cfg.c **** 	CY_SET_XTND_REG16((void CYFAR *)(CYREG_CLKDIST_MSTR0), 0x0100u);
 210:.\Generated_Source\PSoC5/cyfitter_cfg.c **** 	CY_SET_XTND_REG8((void CYFAR *)(CYREG_CLKDIST_MSTR0), 0x07u);
 211:.\Generated_Source\PSoC5/cyfitter_cfg.c **** 	CY_SET_XTND_REG8((void CYFAR *)(CYREG_CLKDIST_BCFG0), 0x00u);
 212:.\Generated_Source\PSoC5/cyfitter_cfg.c **** 	CY_SET_XTND_REG8((void CYFAR *)(CYREG_CLKDIST_BCFG2), 0x48u);
 213:.\Generated_Source\PSoC5/cyfitter_cfg.c **** 	CY_SET_XTND_REG8((void CYFAR *)(CYREG_CLKDIST_MSTR0), 0x00u);
 214:.\Generated_Source\PSoC5/cyfitter_cfg.c **** 
 215:.\Generated_Source\PSoC5/cyfitter_cfg.c **** 	/* Configure USB Clock based on settings from Clock DWR */
 216:.\Generated_Source\PSoC5/cyfitter_cfg.c **** 	CY_SET_XTND_REG8((void CYFAR *)(CYREG_CLKDIST_UCFG), 0x00u);
 217:.\Generated_Source\PSoC5/cyfitter_cfg.c **** 	CY_SET_XTND_REG8((void CYFAR *)(CYREG_CLKDIST_LD), 0x02u);
 218:.\Generated_Source\PSoC5/cyfitter_cfg.c **** 	CY_SET_XTND_REG8((void CYFAR *)(CYREG_CLKDIST_DLY1), 0x04u);
 219:.\Generated_Source\PSoC5/cyfitter_cfg.c **** 
 220:.\Generated_Source\PSoC5/cyfitter_cfg.c **** 	CY_SET_XTND_REG8((void CYFAR *)(CYREG_PM_ACT_CFG2), ((CY_GET_XTND_REG8((void CYFAR *)CYREG_PM_ACT_
 221:.\Generated_Source\PSoC5/cyfitter_cfg.c **** 	CY_SET_XTND_REG8((void CYFAR *)(CYREG_PM_ACT_CFG1), ((CY_GET_XTND_REG8((void CYFAR *)CYREG_PM_ACT_
 222:.\Generated_Source\PSoC5/cyfitter_cfg.c **** 	CY_SET_XTND_REG8((void CYFAR *)(CYREG_PM_ACT_CFG0), ((CY_GET_XTND_REG8((void CYFAR *)CYREG_PM_ACT_
 223:.\Generated_Source\PSoC5/cyfitter_cfg.c **** }
 224:.\Generated_Source\PSoC5/cyfitter_cfg.c **** 
 225:.\Generated_Source\PSoC5/cyfitter_cfg.c **** 
 226:.\Generated_Source\PSoC5/cyfitter_cfg.c **** /* Analog API Functions */
 227:.\Generated_Source\PSoC5/cyfitter_cfg.c **** 
 228:.\Generated_Source\PSoC5/cyfitter_cfg.c **** 
 229:.\Generated_Source\PSoC5/cyfitter_cfg.c **** /*******************************************************************************
 230:.\Generated_Source\PSoC5/cyfitter_cfg.c **** * Function Name: AnalogSetDefault
 231:.\Generated_Source\PSoC5/cyfitter_cfg.c **** ********************************************************************************
 232:.\Generated_Source\PSoC5/cyfitter_cfg.c **** *
 233:.\Generated_Source\PSoC5/cyfitter_cfg.c **** * Summary:
 234:.\Generated_Source\PSoC5/cyfitter_cfg.c **** *  Sets up the analog portions of the chip to default values based on chip
 235:.\Generated_Source\PSoC5/cyfitter_cfg.c **** *  configuration options from the project.
 236:.\Generated_Source\PSoC5/cyfitter_cfg.c **** *
 237:.\Generated_Source\PSoC5/cyfitter_cfg.c **** * Parameters:
 238:.\Generated_Source\PSoC5/cyfitter_cfg.c **** *  void
 239:.\Generated_Source\PSoC5/cyfitter_cfg.c **** *
 240:.\Generated_Source\PSoC5/cyfitter_cfg.c **** * Return:
 241:.\Generated_Source\PSoC5/cyfitter_cfg.c **** *  void
 242:.\Generated_Source\PSoC5/cyfitter_cfg.c **** *
 243:.\Generated_Source\PSoC5/cyfitter_cfg.c **** *******************************************************************************/
 244:.\Generated_Source\PSoC5/cyfitter_cfg.c **** static void AnalogSetDefault(void);
 245:.\Generated_Source\PSoC5/cyfitter_cfg.c **** static void AnalogSetDefault(void)
 246:.\Generated_Source\PSoC5/cyfitter_cfg.c **** {
 247:.\Generated_Source\PSoC5/cyfitter_cfg.c **** 	uint8 bg_xover_inl_trim = CY_GET_XTND_REG8((void CYFAR *)(CYREG_FLSHID_MFG_CFG_BG_XOVER_INL_TRIM +
 248:.\Generated_Source\PSoC5/cyfitter_cfg.c **** 	CY_SET_XTND_REG8((void CYFAR *)CYREG_BG_DFT0, bg_xover_inl_trim & 0x07u);
 249:.\Generated_Source\PSoC5/cyfitter_cfg.c **** 	CY_SET_XTND_REG8((void CYFAR *)CYREG_BG_DFT1, ((uint8)((uint8)bg_xover_inl_trim >> 4)) & 0x0Fu);
 250:.\Generated_Source\PSoC5/cyfitter_cfg.c **** 	CY_SET_XTND_REG8((void CYFAR *)CYREG_CMP2_SW3, 0x20u);
ARM GAS  C:\DOCUME~1\ADMINI~1\LOCALS~1\Temp\ccEzm20X.s 			page 6


 251:.\Generated_Source\PSoC5/cyfitter_cfg.c **** 	CY_SET_XTND_REG8((void CYFAR *)CYREG_DSM0_SW0, 0x08u);
 252:.\Generated_Source\PSoC5/cyfitter_cfg.c **** 	CY_SET_XTND_REG8((void CYFAR *)CYREG_CMP2_CR, 0x02u);
 253:.\Generated_Source\PSoC5/cyfitter_cfg.c **** 	CY_SET_XTND_REG8((void CYFAR *)CYREG_PM_ACT_CFG7, 0x04u);
 254:.\Generated_Source\PSoC5/cyfitter_cfg.c **** 	CY_SET_XTND_REG8((void CYFAR *)CYREG_PUMP_CR0, 0x44u);
 255:.\Generated_Source\PSoC5/cyfitter_cfg.c **** }
 256:.\Generated_Source\PSoC5/cyfitter_cfg.c **** 
 257:.\Generated_Source\PSoC5/cyfitter_cfg.c **** 
 258:.\Generated_Source\PSoC5/cyfitter_cfg.c **** /*******************************************************************************
 259:.\Generated_Source\PSoC5/cyfitter_cfg.c **** * Function Name: SetAnalogRoutingPumps
 260:.\Generated_Source\PSoC5/cyfitter_cfg.c **** ********************************************************************************
 261:.\Generated_Source\PSoC5/cyfitter_cfg.c **** *
 262:.\Generated_Source\PSoC5/cyfitter_cfg.c **** * Summary:
 263:.\Generated_Source\PSoC5/cyfitter_cfg.c **** * Enables or disables the analog pumps feeding analog routing switches.
 264:.\Generated_Source\PSoC5/cyfitter_cfg.c **** * Intended to be called at startup, based on the Vdda system configuration;
 265:.\Generated_Source\PSoC5/cyfitter_cfg.c **** * may be called during operation when the user informs us that the Vdda voltage
 266:.\Generated_Source\PSoC5/cyfitter_cfg.c **** * crossed the pump threshold.
 267:.\Generated_Source\PSoC5/cyfitter_cfg.c **** *
 268:.\Generated_Source\PSoC5/cyfitter_cfg.c **** * Parameters:
 269:.\Generated_Source\PSoC5/cyfitter_cfg.c **** *  enabled - 1 to enable the pumps, 0 to disable the pumps
 270:.\Generated_Source\PSoC5/cyfitter_cfg.c **** *
 271:.\Generated_Source\PSoC5/cyfitter_cfg.c **** * Return:
 272:.\Generated_Source\PSoC5/cyfitter_cfg.c **** *  void
 273:.\Generated_Source\PSoC5/cyfitter_cfg.c **** *
 274:.\Generated_Source\PSoC5/cyfitter_cfg.c **** *******************************************************************************/
 275:.\Generated_Source\PSoC5/cyfitter_cfg.c **** void SetAnalogRoutingPumps(uint8 enabled)
 276:.\Generated_Source\PSoC5/cyfitter_cfg.c **** {
  32              		.loc 1 276 0
  33              		.cfi_startproc
  34              		@ args = 0, pretend = 0, frame = 0
  35              		@ frame_needed = 0, uses_anonymous_args = 0
  36              		@ link register save eliminated.
  37              	.LVL0:
 277:.\Generated_Source\PSoC5/cyfitter_cfg.c **** 	uint8 regValue = CY_GET_XTND_REG8((void CYFAR *)CYREG_PUMP_CR0);
  38              		.loc 1 277 0
  39 0000 054B     		ldr	r3, .L6
  40 0002 1B78     		ldrb	r3, [r3, #0]	@ zero_extendqisi2
 278:.\Generated_Source\PSoC5/cyfitter_cfg.c **** 	if (enabled != 0u)
  41              		.loc 1 278 0
  42 0004 10B1     		cbz	r0, .L2
 279:.\Generated_Source\PSoC5/cyfitter_cfg.c **** 	{
 280:.\Generated_Source\PSoC5/cyfitter_cfg.c **** 		regValue |= 0x22u;
  43              		.loc 1 280 0
  44 0006 43F02203 		orr	r3, r3, #34
  45              	.LVL1:
  46 000a 01E0     		b	.L3
  47              	.LVL2:
  48              	.L2:
 281:.\Generated_Source\PSoC5/cyfitter_cfg.c **** 	}
 282:.\Generated_Source\PSoC5/cyfitter_cfg.c **** 	else
 283:.\Generated_Source\PSoC5/cyfitter_cfg.c **** 	{
 284:.\Generated_Source\PSoC5/cyfitter_cfg.c **** 		regValue &= (uint8)~0x22u;
  49              		.loc 1 284 0
  50 000c 03F0DD03 		and	r3, r3, #221
  51              	.LVL3:
  52              	.L3:
 285:.\Generated_Source\PSoC5/cyfitter_cfg.c **** 	}
 286:.\Generated_Source\PSoC5/cyfitter_cfg.c **** 	CY_SET_XTND_REG8((void CYFAR *)CYREG_PUMP_CR0, regValue);
ARM GAS  C:\DOCUME~1\ADMINI~1\LOCALS~1\Temp\ccEzm20X.s 			page 7


  53              		.loc 1 286 0
  54 0010 014A     		ldr	r2, .L6
  55 0012 1370     		strb	r3, [r2, #0]
 287:.\Generated_Source\PSoC5/cyfitter_cfg.c **** }
  56              		.loc 1 287 0
  57 0014 7047     		bx	lr
  58              	.L7:
  59 0016 00BF     		.align	2
  60              	.L6:
  61 0018 76580040 		.word	1073764470
  62              		.cfi_endproc
  63              	.LFE6:
  64              		.size	SetAnalogRoutingPumps, .-SetAnalogRoutingPumps
  65              		.section	.text.AMux_Set,"ax",%progbits
  66              		.align	1
  67              		.global	AMux_Set
  68              		.thumb
  69              		.thumb_func
  70              		.type	AMux_Set, %function
  71              	AMux_Set:
  72              	.LFB7:
 288:.\Generated_Source\PSoC5/cyfitter_cfg.c **** 
 289:.\Generated_Source\PSoC5/cyfitter_cfg.c **** #define CY_AMUX_UNUSED CYREG_BOOST_SR
 290:.\Generated_Source\PSoC5/cyfitter_cfg.c **** /* This is an implementation detail of the AMux. Code that depends on it may be
 291:.\Generated_Source\PSoC5/cyfitter_cfg.c ****    incompatible with other versions of PSoC Creator. */
 292:.\Generated_Source\PSoC5/cyfitter_cfg.c **** uint8 CYXDATA * const CYCODE AMux__addrTable[4] = {
 293:.\Generated_Source\PSoC5/cyfitter_cfg.c **** 	(uint8 CYXDATA *)CYREG_CMP2_SW4, (uint8 CYXDATA *)CY_AMUX_UNUSED, 
 294:.\Generated_Source\PSoC5/cyfitter_cfg.c **** 	(uint8 CYXDATA *)CYREG_PRT1_AG, (uint8 CYXDATA *)CYREG_BUS_SW0, 
 295:.\Generated_Source\PSoC5/cyfitter_cfg.c **** };
 296:.\Generated_Source\PSoC5/cyfitter_cfg.c **** 
 297:.\Generated_Source\PSoC5/cyfitter_cfg.c **** /* This is an implementation detail of the AMux. Code that depends on it may be
 298:.\Generated_Source\PSoC5/cyfitter_cfg.c ****    incompatible with other versions of PSoC Creator. */
 299:.\Generated_Source\PSoC5/cyfitter_cfg.c **** const uint8 CYCODE AMux__maskTable[4] = {
 300:.\Generated_Source\PSoC5/cyfitter_cfg.c **** 	0x08u, 0x00u, 
 301:.\Generated_Source\PSoC5/cyfitter_cfg.c **** 	0x80u, 0x08u, 
 302:.\Generated_Source\PSoC5/cyfitter_cfg.c **** };
 303:.\Generated_Source\PSoC5/cyfitter_cfg.c **** 
 304:.\Generated_Source\PSoC5/cyfitter_cfg.c **** /*******************************************************************************
 305:.\Generated_Source\PSoC5/cyfitter_cfg.c **** * Function Name: AMux_Set
 306:.\Generated_Source\PSoC5/cyfitter_cfg.c **** ********************************************************************************
 307:.\Generated_Source\PSoC5/cyfitter_cfg.c **** * Summary:
 308:.\Generated_Source\PSoC5/cyfitter_cfg.c **** *  This function is used to set a particular channel as active on the AMux.
 309:.\Generated_Source\PSoC5/cyfitter_cfg.c **** *
 310:.\Generated_Source\PSoC5/cyfitter_cfg.c **** * Parameters:  
 311:.\Generated_Source\PSoC5/cyfitter_cfg.c **** *   channel - The mux channel input to set as active
 312:.\Generated_Source\PSoC5/cyfitter_cfg.c **** *
 313:.\Generated_Source\PSoC5/cyfitter_cfg.c **** * Return:
 314:.\Generated_Source\PSoC5/cyfitter_cfg.c **** *   void
 315:.\Generated_Source\PSoC5/cyfitter_cfg.c **** *
 316:.\Generated_Source\PSoC5/cyfitter_cfg.c **** *******************************************************************************/
 317:.\Generated_Source\PSoC5/cyfitter_cfg.c **** void AMux_Set(uint8 channel)
 318:.\Generated_Source\PSoC5/cyfitter_cfg.c **** {
  73              		.loc 1 318 0
  74              		.cfi_startproc
  75              		@ args = 0, pretend = 0, frame = 0
  76              		@ frame_needed = 0, uses_anonymous_args = 0
  77              		@ link register save eliminated.
ARM GAS  C:\DOCUME~1\ADMINI~1\LOCALS~1\Temp\ccEzm20X.s 			page 8


  78              	.LVL4:
 319:.\Generated_Source\PSoC5/cyfitter_cfg.c **** 	if (channel < 2)
  79              		.loc 1 319 0
  80 0000 0128     		cmp	r0, #1
  81 0002 15D8     		bhi	.L10
 320:.\Generated_Source\PSoC5/cyfitter_cfg.c **** 	{
 321:.\Generated_Source\PSoC5/cyfitter_cfg.c **** 		channel += channel;
 322:.\Generated_Source\PSoC5/cyfitter_cfg.c **** 		*AMux__addrTable[channel] |= AMux__maskTable[channel];
  82              		.loc 1 322 0
  83 0004 0B4B     		ldr	r3, .L11
  84              		.loc 1 321 0
  85 0006 4000     		lsls	r0, r0, #1
  86              	.LVL5:
  87 0008 C0B2     		uxtb	r0, r0
  88              	.LVL6:
  89              		.loc 1 322 0
  90 000a 53F82020 		ldr	r2, [r3, r0, lsl #2]
  91 000e C118     		adds	r1, r0, r3
  92 0010 92F800C0 		ldrb	ip, [r2, #0]	@ zero_extendqisi2
  93 0014 097C     		ldrb	r1, [r1, #16]	@ zero_extendqisi2
 323:.\Generated_Source\PSoC5/cyfitter_cfg.c **** 		channel++;
 324:.\Generated_Source\PSoC5/cyfitter_cfg.c **** 		*AMux__addrTable[channel] |= AMux__maskTable[channel];
  94              		.loc 1 324 0
  95 0016 0130     		adds	r0, r0, #1
  96              	.LVL7:
  97              		.loc 1 322 0
  98 0018 4CEA0101 		orr	r1, ip, r1
  99              		.loc 1 324 0
 100 001c C0B2     		uxtb	r0, r0
 101              		.loc 1 322 0
 102 001e 1170     		strb	r1, [r2, #0]
 103              		.loc 1 324 0
 104 0020 53F82020 		ldr	r2, [r3, r0, lsl #2]
 105 0024 C318     		adds	r3, r0, r3
 106 0026 1178     		ldrb	r1, [r2, #0]	@ zero_extendqisi2
 107 0028 1B7C     		ldrb	r3, [r3, #16]	@ zero_extendqisi2
 108 002a 41EA0303 		orr	r3, r1, r3
 109 002e 1370     		strb	r3, [r2, #0]
 110              	.LVL8:
 111              	.L10:
 112 0030 7047     		bx	lr
 113              	.L12:
 114 0032 00BF     		.align	2
 115              	.L11:
 116 0034 00000000 		.word	.LANCHOR0
 117              		.cfi_endproc
 118              	.LFE7:
 119              		.size	AMux_Set, .-AMux_Set
 120              		.section	.text.AMux_Unset,"ax",%progbits
 121              		.align	1
 122              		.global	AMux_Unset
 123              		.thumb
 124              		.thumb_func
 125              		.type	AMux_Unset, %function
 126              	AMux_Unset:
 127              	.LFB8:
 325:.\Generated_Source\PSoC5/cyfitter_cfg.c **** 	}
ARM GAS  C:\DOCUME~1\ADMINI~1\LOCALS~1\Temp\ccEzm20X.s 			page 9


 326:.\Generated_Source\PSoC5/cyfitter_cfg.c **** }
 327:.\Generated_Source\PSoC5/cyfitter_cfg.c **** 
 328:.\Generated_Source\PSoC5/cyfitter_cfg.c **** /*******************************************************************************
 329:.\Generated_Source\PSoC5/cyfitter_cfg.c **** * Function Name: AMux_Unset
 330:.\Generated_Source\PSoC5/cyfitter_cfg.c **** ********************************************************************************
 331:.\Generated_Source\PSoC5/cyfitter_cfg.c **** * Summary:
 332:.\Generated_Source\PSoC5/cyfitter_cfg.c **** *  This function is used to clear a particular channel from being active on the
 333:.\Generated_Source\PSoC5/cyfitter_cfg.c **** *  AMux.
 334:.\Generated_Source\PSoC5/cyfitter_cfg.c **** *
 335:.\Generated_Source\PSoC5/cyfitter_cfg.c **** * Parameters:  
 336:.\Generated_Source\PSoC5/cyfitter_cfg.c **** *   channel - The mux channel input to mark inactive
 337:.\Generated_Source\PSoC5/cyfitter_cfg.c **** *
 338:.\Generated_Source\PSoC5/cyfitter_cfg.c **** * Return:
 339:.\Generated_Source\PSoC5/cyfitter_cfg.c **** *   void
 340:.\Generated_Source\PSoC5/cyfitter_cfg.c **** *
 341:.\Generated_Source\PSoC5/cyfitter_cfg.c **** *******************************************************************************/
 342:.\Generated_Source\PSoC5/cyfitter_cfg.c **** void AMux_Unset(uint8 channel)
 343:.\Generated_Source\PSoC5/cyfitter_cfg.c **** {
 128              		.loc 1 343 0
 129              		.cfi_startproc
 130              		@ args = 0, pretend = 0, frame = 0
 131              		@ frame_needed = 0, uses_anonymous_args = 0
 132              		@ link register save eliminated.
 133              	.LVL9:
 344:.\Generated_Source\PSoC5/cyfitter_cfg.c **** 	if (channel < 2)
 134              		.loc 1 344 0
 135 0000 0128     		cmp	r0, #1
 136 0002 15D8     		bhi	.L15
 345:.\Generated_Source\PSoC5/cyfitter_cfg.c **** 	{
 346:.\Generated_Source\PSoC5/cyfitter_cfg.c **** 		channel += channel;
 347:.\Generated_Source\PSoC5/cyfitter_cfg.c **** 		*AMux__addrTable[channel] &= (uint8)~AMux__maskTable[channel];
 137              		.loc 1 347 0
 138 0004 0B4B     		ldr	r3, .L16
 139              		.loc 1 346 0
 140 0006 4000     		lsls	r0, r0, #1
 141              	.LVL10:
 142 0008 C0B2     		uxtb	r0, r0
 143              	.LVL11:
 144              		.loc 1 347 0
 145 000a 53F82020 		ldr	r2, [r3, r0, lsl #2]
 146 000e C118     		adds	r1, r0, r3
 147 0010 91F810C0 		ldrb	ip, [r1, #16]	@ zero_extendqisi2
 148 0014 1178     		ldrb	r1, [r2, #0]	@ zero_extendqisi2
 348:.\Generated_Source\PSoC5/cyfitter_cfg.c **** 		channel++;
 349:.\Generated_Source\PSoC5/cyfitter_cfg.c **** 		*AMux__addrTable[channel] &= (uint8)~AMux__maskTable[channel];
 149              		.loc 1 349 0
 150 0016 0130     		adds	r0, r0, #1
 151              	.LVL12:
 152              		.loc 1 347 0
 153 0018 21EA0C01 		bic	r1, r1, ip
 154              		.loc 1 349 0
 155 001c C0B2     		uxtb	r0, r0
 156              		.loc 1 347 0
 157 001e 1170     		strb	r1, [r2, #0]
 158              		.loc 1 349 0
 159 0020 53F82020 		ldr	r2, [r3, r0, lsl #2]
 160 0024 C318     		adds	r3, r0, r3
ARM GAS  C:\DOCUME~1\ADMINI~1\LOCALS~1\Temp\ccEzm20X.s 			page 10


 161 0026 197C     		ldrb	r1, [r3, #16]	@ zero_extendqisi2
 162 0028 1378     		ldrb	r3, [r2, #0]	@ zero_extendqisi2
 163 002a 23EA0103 		bic	r3, r3, r1
 164 002e 1370     		strb	r3, [r2, #0]
 165              	.LVL13:
 166              	.L15:
 167 0030 7047     		bx	lr
 168              	.L17:
 169 0032 00BF     		.align	2
 170              	.L16:
 171 0034 00000000 		.word	.LANCHOR0
 172              		.cfi_endproc
 173              	.LFE8:
 174              		.size	AMux_Unset, .-AMux_Unset
 175              		.section	.text.ADC_Voltage_Target_AMux_Set,"ax",%progbits
 176              		.align	1
 177              		.global	ADC_Voltage_Target_AMux_Set
 178              		.thumb
 179              		.thumb_func
 180              		.type	ADC_Voltage_Target_AMux_Set, %function
 181              	ADC_Voltage_Target_AMux_Set:
 182              	.LFB9:
 350:.\Generated_Source\PSoC5/cyfitter_cfg.c **** 	}
 351:.\Generated_Source\PSoC5/cyfitter_cfg.c **** }
 352:.\Generated_Source\PSoC5/cyfitter_cfg.c **** 
 353:.\Generated_Source\PSoC5/cyfitter_cfg.c **** /* This is an implementation detail of the AMux. Code that depends on it may be
 354:.\Generated_Source\PSoC5/cyfitter_cfg.c ****    incompatible with other versions of PSoC Creator. */
 355:.\Generated_Source\PSoC5/cyfitter_cfg.c **** uint8 CYXDATA * const CYCODE ADC_Voltage_Target_AMux__addrTable[2] = {
 356:.\Generated_Source\PSoC5/cyfitter_cfg.c **** 	(uint8 CYXDATA *)CYREG_DSM0_SW3, 
 357:.\Generated_Source\PSoC5/cyfitter_cfg.c **** 	(uint8 CYXDATA *)CYREG_DSM0_SW3, 
 358:.\Generated_Source\PSoC5/cyfitter_cfg.c **** };
 359:.\Generated_Source\PSoC5/cyfitter_cfg.c **** 
 360:.\Generated_Source\PSoC5/cyfitter_cfg.c **** /* This is an implementation detail of the AMux. Code that depends on it may be
 361:.\Generated_Source\PSoC5/cyfitter_cfg.c ****    incompatible with other versions of PSoC Creator. */
 362:.\Generated_Source\PSoC5/cyfitter_cfg.c **** const uint8 CYCODE ADC_Voltage_Target_AMux__maskTable[2] = {
 363:.\Generated_Source\PSoC5/cyfitter_cfg.c **** 	0x40u, 
 364:.\Generated_Source\PSoC5/cyfitter_cfg.c **** 	0x40u, 
 365:.\Generated_Source\PSoC5/cyfitter_cfg.c **** };
 366:.\Generated_Source\PSoC5/cyfitter_cfg.c **** 
 367:.\Generated_Source\PSoC5/cyfitter_cfg.c **** /*******************************************************************************
 368:.\Generated_Source\PSoC5/cyfitter_cfg.c **** * Function Name: ADC_Voltage_Target_AMux_Set
 369:.\Generated_Source\PSoC5/cyfitter_cfg.c **** ********************************************************************************
 370:.\Generated_Source\PSoC5/cyfitter_cfg.c **** * Summary:
 371:.\Generated_Source\PSoC5/cyfitter_cfg.c **** *  This function is used to set a particular channel as active on the AMux.
 372:.\Generated_Source\PSoC5/cyfitter_cfg.c **** *
 373:.\Generated_Source\PSoC5/cyfitter_cfg.c **** * Parameters:  
 374:.\Generated_Source\PSoC5/cyfitter_cfg.c **** *   channel - The mux channel input to set as active
 375:.\Generated_Source\PSoC5/cyfitter_cfg.c **** *
 376:.\Generated_Source\PSoC5/cyfitter_cfg.c **** * Return:
 377:.\Generated_Source\PSoC5/cyfitter_cfg.c **** *   void
 378:.\Generated_Source\PSoC5/cyfitter_cfg.c **** *
 379:.\Generated_Source\PSoC5/cyfitter_cfg.c **** *******************************************************************************/
 380:.\Generated_Source\PSoC5/cyfitter_cfg.c **** void ADC_Voltage_Target_AMux_Set(uint8 channel)
 381:.\Generated_Source\PSoC5/cyfitter_cfg.c **** {
 183              		.loc 1 381 0
 184              		.cfi_startproc
 185              		@ args = 0, pretend = 0, frame = 0
ARM GAS  C:\DOCUME~1\ADMINI~1\LOCALS~1\Temp\ccEzm20X.s 			page 11


 186              		@ frame_needed = 0, uses_anonymous_args = 0
 187              		@ link register save eliminated.
 188              	.LVL14:
 382:.\Generated_Source\PSoC5/cyfitter_cfg.c **** 	if (channel < 2)
 189              		.loc 1 382 0
 190 0000 0128     		cmp	r0, #1
 191 0002 09D8     		bhi	.L20
 383:.\Generated_Source\PSoC5/cyfitter_cfg.c **** 	{
 384:.\Generated_Source\PSoC5/cyfitter_cfg.c **** 		*ADC_Voltage_Target_AMux__addrTable[channel] |= ADC_Voltage_Target_AMux__maskTable[channel];
 192              		.loc 1 384 0
 193 0004 054A     		ldr	r2, .L21
 194 0006 02EB8003 		add	r3, r2, r0, lsl #2
 195 000a 5B69     		ldr	r3, [r3, #20]
 196 000c 8018     		adds	r0, r0, r2
 197              	.LVL15:
 198 000e 1978     		ldrb	r1, [r3, #0]	@ zero_extendqisi2
 199 0010 027F     		ldrb	r2, [r0, #28]	@ zero_extendqisi2
 200 0012 41EA0202 		orr	r2, r1, r2
 201 0016 1A70     		strb	r2, [r3, #0]
 202              	.LVL16:
 203              	.L20:
 204 0018 7047     		bx	lr
 205              	.L22:
 206 001a 00BF     		.align	2
 207              	.L21:
 208 001c 00000000 		.word	.LANCHOR0
 209              		.cfi_endproc
 210              	.LFE9:
 211              		.size	ADC_Voltage_Target_AMux_Set, .-ADC_Voltage_Target_AMux_Set
 212              		.section	.text.ADC_Voltage_Target_AMux_Unset,"ax",%progbits
 213              		.align	1
 214              		.global	ADC_Voltage_Target_AMux_Unset
 215              		.thumb
 216              		.thumb_func
 217              		.type	ADC_Voltage_Target_AMux_Unset, %function
 218              	ADC_Voltage_Target_AMux_Unset:
 219              	.LFB10:
 385:.\Generated_Source\PSoC5/cyfitter_cfg.c **** 	}
 386:.\Generated_Source\PSoC5/cyfitter_cfg.c **** }
 387:.\Generated_Source\PSoC5/cyfitter_cfg.c **** 
 388:.\Generated_Source\PSoC5/cyfitter_cfg.c **** /*******************************************************************************
 389:.\Generated_Source\PSoC5/cyfitter_cfg.c **** * Function Name: ADC_Voltage_Target_AMux_Unset
 390:.\Generated_Source\PSoC5/cyfitter_cfg.c **** ********************************************************************************
 391:.\Generated_Source\PSoC5/cyfitter_cfg.c **** * Summary:
 392:.\Generated_Source\PSoC5/cyfitter_cfg.c **** *  This function is used to clear a particular channel from being active on the
 393:.\Generated_Source\PSoC5/cyfitter_cfg.c **** *  AMux.
 394:.\Generated_Source\PSoC5/cyfitter_cfg.c **** *
 395:.\Generated_Source\PSoC5/cyfitter_cfg.c **** * Parameters:  
 396:.\Generated_Source\PSoC5/cyfitter_cfg.c **** *   channel - The mux channel input to mark inactive
 397:.\Generated_Source\PSoC5/cyfitter_cfg.c **** *
 398:.\Generated_Source\PSoC5/cyfitter_cfg.c **** * Return:
 399:.\Generated_Source\PSoC5/cyfitter_cfg.c **** *   void
 400:.\Generated_Source\PSoC5/cyfitter_cfg.c **** *
 401:.\Generated_Source\PSoC5/cyfitter_cfg.c **** *******************************************************************************/
 402:.\Generated_Source\PSoC5/cyfitter_cfg.c **** void ADC_Voltage_Target_AMux_Unset(uint8 channel)
 403:.\Generated_Source\PSoC5/cyfitter_cfg.c **** {
 220              		.loc 1 403 0
ARM GAS  C:\DOCUME~1\ADMINI~1\LOCALS~1\Temp\ccEzm20X.s 			page 12


 221              		.cfi_startproc
 222              		@ args = 0, pretend = 0, frame = 0
 223              		@ frame_needed = 0, uses_anonymous_args = 0
 224              		@ link register save eliminated.
 225              	.LVL17:
 404:.\Generated_Source\PSoC5/cyfitter_cfg.c **** 	if (channel < 2)
 226              		.loc 1 404 0
 227 0000 0128     		cmp	r0, #1
 228 0002 09D8     		bhi	.L25
 405:.\Generated_Source\PSoC5/cyfitter_cfg.c **** 	{
 406:.\Generated_Source\PSoC5/cyfitter_cfg.c **** 		*ADC_Voltage_Target_AMux__addrTable[channel] &= (uint8)~ADC_Voltage_Target_AMux__maskTable[channe
 229              		.loc 1 406 0
 230 0004 054A     		ldr	r2, .L26
 231 0006 02EB8003 		add	r3, r2, r0, lsl #2
 232 000a 5B69     		ldr	r3, [r3, #20]
 233 000c 8018     		adds	r0, r0, r2
 234              	.LVL18:
 235 000e 017F     		ldrb	r1, [r0, #28]	@ zero_extendqisi2
 236 0010 1A78     		ldrb	r2, [r3, #0]	@ zero_extendqisi2
 237 0012 22EA0102 		bic	r2, r2, r1
 238 0016 1A70     		strb	r2, [r3, #0]
 239              	.LVL19:
 240              	.L25:
 241 0018 7047     		bx	lr
 242              	.L27:
 243 001a 00BF     		.align	2
 244              	.L26:
 245 001c 00000000 		.word	.LANCHOR0
 246              		.cfi_endproc
 247              	.LFE10:
 248              		.size	ADC_Voltage_Target_AMux_Unset, .-ADC_Voltage_Target_AMux_Unset
 249              		.section	.text.CYCONFIGCPYCODE,"ax",%progbits
 250              		.align	1
 251              		.thumb
 252              		.thumb_func
 253              		.type	CYCONFIGCPYCODE, %function
 254              	CYCONFIGCPYCODE:
 255              	.LFB2:
 256              		.loc 1 102 0
 257              		.cfi_startproc
 258              		@ args = 0, pretend = 0, frame = 0
 259              		@ frame_needed = 0, uses_anonymous_args = 0
 260              		@ link register save eliminated.
 261              	.LVL20:
 262              		.loc 1 104 0
 263              		.loc 1 103 0
 264 0000 FFF7FEBF 		b	memcpy
 265              	.LVL21:
 266              		.cfi_endproc
 267              	.LFE2:
 268              		.size	CYCONFIGCPYCODE, .-CYCONFIGCPYCODE
 269              		.section	.text.cyfitter_cfg,"ax",%progbits
 270              		.align	1
 271              		.global	cyfitter_cfg
 272              		.thumb
 273              		.thumb_func
 274              		.type	cyfitter_cfg, %function
ARM GAS  C:\DOCUME~1\ADMINI~1\LOCALS~1\Temp\ccEzm20X.s 			page 13


 275              	cyfitter_cfg:
 276              	.LFB11:
 407:.\Generated_Source\PSoC5/cyfitter_cfg.c **** 	}
 408:.\Generated_Source\PSoC5/cyfitter_cfg.c **** }
 409:.\Generated_Source\PSoC5/cyfitter_cfg.c **** 
 410:.\Generated_Source\PSoC5/cyfitter_cfg.c **** 
 411:.\Generated_Source\PSoC5/cyfitter_cfg.c **** 
 412:.\Generated_Source\PSoC5/cyfitter_cfg.c **** /*******************************************************************************
 413:.\Generated_Source\PSoC5/cyfitter_cfg.c **** * Function Name: cyfitter_cfg
 414:.\Generated_Source\PSoC5/cyfitter_cfg.c **** ********************************************************************************
 415:.\Generated_Source\PSoC5/cyfitter_cfg.c **** * Summary:
 416:.\Generated_Source\PSoC5/cyfitter_cfg.c **** *  This function is called by the start-up code for the selected device. It
 417:.\Generated_Source\PSoC5/cyfitter_cfg.c **** *  performs all of the necessary device configuration based on the design
 418:.\Generated_Source\PSoC5/cyfitter_cfg.c **** *  settings.  This includes settings from the Design Wide Resources (DWR) such
 419:.\Generated_Source\PSoC5/cyfitter_cfg.c **** *  as Clocks and Pins as well as any component configuration that is necessary.
 420:.\Generated_Source\PSoC5/cyfitter_cfg.c **** *
 421:.\Generated_Source\PSoC5/cyfitter_cfg.c **** * Parameters:  
 422:.\Generated_Source\PSoC5/cyfitter_cfg.c **** *   void
 423:.\Generated_Source\PSoC5/cyfitter_cfg.c **** *
 424:.\Generated_Source\PSoC5/cyfitter_cfg.c **** * Return:
 425:.\Generated_Source\PSoC5/cyfitter_cfg.c **** *   void
 426:.\Generated_Source\PSoC5/cyfitter_cfg.c **** *
 427:.\Generated_Source\PSoC5/cyfitter_cfg.c **** *******************************************************************************/
 428:.\Generated_Source\PSoC5/cyfitter_cfg.c **** 
 429:.\Generated_Source\PSoC5/cyfitter_cfg.c **** void cyfitter_cfg(void)
 430:.\Generated_Source\PSoC5/cyfitter_cfg.c **** {
 277              		.loc 1 430 0
 278              		.cfi_startproc
 279              		@ args = 0, pretend = 0, frame = 0
 280              		@ frame_needed = 0, uses_anonymous_args = 0
 281 0000 70B5     		push	{r4, r5, r6, lr}
 282              	.LCFI0:
 283              		.cfi_def_cfa_offset 16
 431:.\Generated_Source\PSoC5/cyfitter_cfg.c **** 	/* IOPINS0_0 Address: CYREG_PRT0_DM0 Size (bytes): 8 */
 432:.\Generated_Source\PSoC5/cyfitter_cfg.c **** 	static const uint8 CYCODE BS_IOPINS0_0_VAL[] = {
 433:.\Generated_Source\PSoC5/cyfitter_cfg.c **** 		0xF0u, 0x00u, 0x00u, 0x00u, 0x00u, 0x00u, 0x00u, 0x00u};
 434:.\Generated_Source\PSoC5/cyfitter_cfg.c **** 
 435:.\Generated_Source\PSoC5/cyfitter_cfg.c **** 	/* IOPINS0_7 Address: CYREG_PRT12_DR Size (bytes): 10 */
 436:.\Generated_Source\PSoC5/cyfitter_cfg.c **** 	static const uint8 CYCODE BS_IOPINS0_7_VAL[] = {
 437:.\Generated_Source\PSoC5/cyfitter_cfg.c **** 		0x0Cu, 0x00u, 0x4Cu, 0x80u, 0x83u, 0x00u, 0x83u, 0x00u, 0x00u, 0x00u};
 438:.\Generated_Source\PSoC5/cyfitter_cfg.c **** 
 439:.\Generated_Source\PSoC5/cyfitter_cfg.c **** 	/* IOPINS0_8 Address: CYREG_PRT15_DR Size (bytes): 10 */
 440:.\Generated_Source\PSoC5/cyfitter_cfg.c **** 	static const uint8 CYCODE BS_IOPINS0_8_VAL[] = {
 441:.\Generated_Source\PSoC5/cyfitter_cfg.c **** 		0x00u, 0x00u, 0x00u, 0x00u, 0x00u, 0x00u, 0x00u, 0x00u, 0xC0u, 0x00u};
 442:.\Generated_Source\PSoC5/cyfitter_cfg.c **** 
 443:.\Generated_Source\PSoC5/cyfitter_cfg.c **** 	/* IOPINS0_1 Address: CYREG_PRT1_DM0 Size (bytes): 8 */
 444:.\Generated_Source\PSoC5/cyfitter_cfg.c **** 	static const uint8 CYCODE BS_IOPINS0_1_VAL[] = {
 445:.\Generated_Source\PSoC5/cyfitter_cfg.c **** 		0x40u, 0x00u, 0x00u, 0x00u, 0x00u, 0x00u, 0x80u, 0x00u};
 446:.\Generated_Source\PSoC5/cyfitter_cfg.c **** 
 447:.\Generated_Source\PSoC5/cyfitter_cfg.c **** 	/* IOPINS0_2 Address: CYREG_PRT2_DR Size (bytes): 10 */
 448:.\Generated_Source\PSoC5/cyfitter_cfg.c **** 	static const uint8 CYCODE BS_IOPINS0_2_VAL[] = {
 449:.\Generated_Source\PSoC5/cyfitter_cfg.c **** 		0x10u, 0x00u, 0x13u, 0x00u, 0x00u, 0x00u, 0x00u, 0x00u, 0x00u, 0x00u};
 450:.\Generated_Source\PSoC5/cyfitter_cfg.c **** 
 451:.\Generated_Source\PSoC5/cyfitter_cfg.c **** 	/* IOPINS0_3 Address: CYREG_PRT3_DM0 Size (bytes): 8 */
 452:.\Generated_Source\PSoC5/cyfitter_cfg.c **** 	static const uint8 CYCODE BS_IOPINS0_3_VAL[] = {
 453:.\Generated_Source\PSoC5/cyfitter_cfg.c **** 		0x0Cu, 0x02u, 0x02u, 0x00u, 0x00u, 0x00u, 0x00u, 0x00u};
 454:.\Generated_Source\PSoC5/cyfitter_cfg.c **** 
ARM GAS  C:\DOCUME~1\ADMINI~1\LOCALS~1\Temp\ccEzm20X.s 			page 14


 455:.\Generated_Source\PSoC5/cyfitter_cfg.c **** #ifdef CYGlobalIntDisable
 456:.\Generated_Source\PSoC5/cyfitter_cfg.c **** 	/* Disable interrupts by default. Let user enable if/when they want. */
 457:.\Generated_Source\PSoC5/cyfitter_cfg.c **** 	CYGlobalIntDisable
 284              		.loc 1 457 0
 285              	@ 457 ".\Generated_Source\PSoC5\cyfitter_cfg.c" 1
 286 0002 72B6     		CPSID   i
 287              	@ 0 "" 2
 458:.\Generated_Source\PSoC5/cyfitter_cfg.c **** #endif
 459:.\Generated_Source\PSoC5/cyfitter_cfg.c **** 
 460:.\Generated_Source\PSoC5/cyfitter_cfg.c **** 
 461:.\Generated_Source\PSoC5/cyfitter_cfg.c **** 	/* Set Flash Cycles based on max possible frequency in case a glitch occurs during ClockSetup(). *
 462:.\Generated_Source\PSoC5/cyfitter_cfg.c **** 	CY_SET_XTND_REG8((void CYFAR *)(CYREG_CACHE_CC_CTL), (((CYDEV_INSTRUCT_CACHE_ENABLED) != 0) ? 0x01
 288              		.loc 1 462 0
 289              		.thumb
 290 0004 7A4B     		ldr	r3, .L38
 291 0006 0122     		movs	r2, #1
 292 0008 1A70     		strb	r2, [r3, #0]
 293              	.LBB17:
 294              	.LBB18:
 295              		.loc 1 179 0
 296 000a 7A4B     		ldr	r3, .L38+4
 297 000c 4FF00301 		mov	r1, #3	@ movhi
 298              		.loc 1 180 0
 299 0010 794A     		ldr	r2, .L38+8
 300              		.loc 1 179 0
 301 0012 1980     		strh	r1, [r3, #0]	@ movhi
 302              		.loc 1 180 0
 303 0014 1823     		movs	r3, #24
 304 0016 1370     		strb	r3, [r2, #0]
 305              		.loc 1 181 0
 306 0018 40F23711 		movw	r1, 311	@ movhi
 307 001c 0232     		adds	r2, r2, #2
 308 001e 1180     		strh	r1, [r2, #0]	@ movhi
 309              		.loc 1 182 0
 310 0020 1924     		movs	r4, #25
 311              		.cfi_offset 14, -4
 312              		.cfi_offset 6, -8
 313              		.cfi_offset 5, -12
 314              		.cfi_offset 4, -16
 315 0022 0232     		adds	r2, r2, #2
 316 0024 1470     		strb	r4, [r2, #0]
 317              		.loc 1 183 0
 318 0026 4FF03101 		mov	r1, #49	@ movhi
 319 002a 0232     		adds	r2, r2, #2
 320 002c 1180     		strh	r1, [r2, #0]	@ movhi
 321              		.loc 1 184 0
 322 002e 0232     		adds	r2, r2, #2
 323 0030 1370     		strb	r3, [r2, #0]
 324              		.loc 1 185 0
 325 0032 724B     		ldr	r3, .L38+12
 326 0034 40F2DF12 		movw	r2, 479	@ movhi
 327 0038 1A80     		strh	r2, [r3, #0]	@ movhi
 328              		.loc 1 186 0
 329 003a 0233     		adds	r3, r3, #2
 330 003c 1C70     		strb	r4, [r3, #0]
 331              		.loc 1 189 0
 332 003e 7049     		ldr	r1, .L38+16
ARM GAS  C:\DOCUME~1\ADMINI~1\LOCALS~1\Temp\ccEzm20X.s 			page 15


 333 0040 0422     		movs	r2, #4
 334 0042 7048     		ldr	r0, .L38+20
 335 0044 FFF7FEFF 		bl	CYCONFIGCPYCODE
 336              		.loc 1 192 0
 337 0048 6F4B     		ldr	r3, .L38+24
 338 004a 0622     		movs	r2, #6
 339 004c 1A70     		strb	r2, [r3, #0]
 340              		.loc 1 195 0
 341 004e 6F4B     		ldr	r3, .L38+28
 342 0050 4C32     		adds	r2, r2, #76
 343 0052 1A70     		strb	r2, [r3, #0]
 344              		.loc 1 196 0
 345 0054 6E4B     		ldr	r3, .L38+32
 346              		.loc 1 199 0
 347 0056 40F61801 		movw	r1, 2072	@ movhi
 348              		.loc 1 196 0
 349 005a 1A78     		ldrb	r2, [r3, #0]	@ zero_extendqisi2
 350 005c 6D4B     		ldr	r3, .L38+36
 351              		.loc 1 200 0
 352 005e 0025     		movs	r5, #0
 353              	.LVL22:
 354              		.loc 1 196 0
 355 0060 1A70     		strb	r2, [r3, #0]
 356              		.loc 1 199 0
 357 0062 6D4B     		ldr	r3, .L38+40
 358              		.loc 1 200 0
 359 0064 41F25102 		movw	r2, 4177	@ movhi
 360              		.loc 1 199 0
 361 0068 1980     		strh	r1, [r3, #0]	@ movhi
 362              		.loc 1 200 0
 363 006a 023B     		subs	r3, r3, #2
 364 006c 1A80     		strh	r2, [r3, #0]	@ movhi
 365              	.LVL23:
 366              	.L32:
 367              		.loc 1 204 0
 368 006e 6B4B     		ldr	r3, .L38+44
 369              		.loc 1 205 0
 370 0070 4FF4F070 		mov	r0, #480
 371              		.loc 1 204 0
 372 0074 1E78     		ldrb	r6, [r3, #0]	@ zero_extendqisi2
 373              		.loc 1 205 0
 374 0076 FFF7FEFF 		bl	CyDelayCycles
 375              		.loc 1 203 0
 376 007a 013C     		subs	r4, r4, #1
 377 007c 07D0     		beq	.L31
 378              		.loc 1 204 0
 379 007e 06F00106 		and	r6, r6, #1
 380 0082 46EA4505 		orr	r5, r6, r5, lsl #1
 381              	.LVL24:
 382 0086 05F00305 		and	r5, r5, #3
 383              	.LVL25:
 384              		.loc 1 203 0
 385 008a 032D     		cmp	r5, #3
 386 008c EFD1     		bne	.L32
 387              	.L31:
 388              		.loc 1 209 0
 389 008e 644A     		ldr	r2, .L38+48
ARM GAS  C:\DOCUME~1\ADMINI~1\LOCALS~1\Temp\ccEzm20X.s 			page 16


 390 0090 4FF48073 		mov	r3, #256	@ movhi
 391 0094 1380     		strh	r3, [r2, #0]	@ movhi
 392              		.loc 1 211 0
 393 0096 6349     		ldr	r1, .L38+52
 394              		.loc 1 210 0
 395 0098 0723     		movs	r3, #7
 396 009a 1370     		strb	r3, [r2, #0]
 397              		.loc 1 211 0
 398 009c 073B     		subs	r3, r3, #7
 399 009e 0B70     		strb	r3, [r1, #0]
 400              		.loc 1 212 0
 401 00a0 4820     		movs	r0, #72
 402 00a2 0231     		adds	r1, r1, #2
 403 00a4 0870     		strb	r0, [r1, #0]
 404              		.loc 1 213 0
 405 00a6 1370     		strb	r3, [r2, #0]
 406              		.loc 1 216 0
 407 00a8 0532     		adds	r2, r2, #5
 408 00aa 1370     		strb	r3, [r2, #0]
 409              		.loc 1 217 0
 410 00ac 5E4B     		ldr	r3, .L38+56
 411 00ae 0222     		movs	r2, #2
 412 00b0 1A70     		strb	r2, [r3, #0]
 413              		.loc 1 218 0
 414 00b2 9218     		adds	r2, r2, r2
 415 00b4 0A33     		adds	r3, r3, #10
 416 00b6 1A70     		strb	r2, [r3, #0]
 417              		.loc 1 220 0
 418 00b8 5C4B     		ldr	r3, .L38+60
 419              		.loc 1 222 0
 420 00ba 5D4C     		ldr	r4, .L38+64
 421              	.LVL26:
 422              		.loc 1 220 0
 423 00bc 1A78     		ldrb	r2, [r3, #0]	@ zero_extendqisi2
 424              		.loc 1 429 0
 425 00be 04F12A05 		add	r5, r4, #42
 426              	.LVL27:
 427              		.loc 1 220 0
 428 00c2 42F00F02 		orr	r2, r2, #15
 429 00c6 1A70     		strb	r2, [r3, #0]
 430              		.loc 1 221 0
 431 00c8 013B     		subs	r3, r3, #1
 432 00ca 1A78     		ldrb	r2, [r3, #0]	@ zero_extendqisi2
 433 00cc 42F00102 		orr	r2, r2, #1
 434 00d0 1A70     		strb	r2, [r3, #0]
 435              		.loc 1 222 0
 436 00d2 013B     		subs	r3, r3, #1
 437 00d4 1A78     		ldrb	r2, [r3, #0]	@ zero_extendqisi2
 438 00d6 42F08002 		orr	r2, r2, #128
 439 00da 1A70     		strb	r2, [r3, #0]
 440              	.L33:
 441              	.LBE18:
 442              	.LBE17:
 443              	.LBB19:
 444              	.LBB20:
 445              	.LBB21:
 446              	.LBB22:
ARM GAS  C:\DOCUME~1\ADMINI~1\LOCALS~1\Temp\ccEzm20X.s 			page 17


 447              		.loc 1 89 0
 448 00dc 6078     		ldrb	r0, [r4, #1]	@ zero_extendqisi2
 449 00de 2178     		ldrb	r1, [r4, #0]	@ zero_extendqisi2
 450 00e0 2379     		ldrb	r3, [r4, #4]	@ zero_extendqisi2
 451 00e2 41EA0021 		orr	r1, r1, r0, lsl #8
 452 00e6 A078     		ldrb	r0, [r4, #2]	@ zero_extendqisi2
 453 00e8 6279     		ldrb	r2, [r4, #5]	@ zero_extendqisi2
 454 00ea 41EA0041 		orr	r1, r1, r0, lsl #16
 455 00ee E078     		ldrb	r0, [r4, #3]	@ zero_extendqisi2
 456 00f0 43EA0222 		orr	r2, r3, r2, lsl #8
 457 00f4 41EA0060 		orr	r0, r1, r0, lsl #24
 458 00f8 0634     		adds	r4, r4, #6
 459 00fa 0021     		movs	r1, #0
 460 00fc FFF7FEFF 		bl	memset
 461              	.LBE22:
 462              	.LBE21:
 463              	.LBE20:
 463:.\Generated_Source\PSoC5/cyfitter_cfg.c **** 	/* Setup clocks based on selections from Clock DWR */
 464:.\Generated_Source\PSoC5/cyfitter_cfg.c **** 	ClockSetup();
 465:.\Generated_Source\PSoC5/cyfitter_cfg.c **** 	{
 466:.\Generated_Source\PSoC5/cyfitter_cfg.c **** 		static const uint32 CYCODE cy_cfg_addr_table[] = {
 467:.\Generated_Source\PSoC5/cyfitter_cfg.c **** 			0x40004501u, /* Base address: 0x40004500 Count: 1 */
 468:.\Generated_Source\PSoC5/cyfitter_cfg.c **** 			0x40004F02u, /* Base address: 0x40004F00 Count: 2 */
 469:.\Generated_Source\PSoC5/cyfitter_cfg.c **** 			0x40005207u, /* Base address: 0x40005200 Count: 7 */
 470:.\Generated_Source\PSoC5/cyfitter_cfg.c **** 			0x40006404u, /* Base address: 0x40006400 Count: 4 */
 471:.\Generated_Source\PSoC5/cyfitter_cfg.c **** 			0x40006502u, /* Base address: 0x40006500 Count: 2 */
 472:.\Generated_Source\PSoC5/cyfitter_cfg.c **** 			0x4001005Cu, /* Base address: 0x40010000 Count: 92 */
 473:.\Generated_Source\PSoC5/cyfitter_cfg.c **** 			0x40010135u, /* Base address: 0x40010100 Count: 53 */
 474:.\Generated_Source\PSoC5/cyfitter_cfg.c **** 			0x4001025Fu, /* Base address: 0x40010200 Count: 95 */
 475:.\Generated_Source\PSoC5/cyfitter_cfg.c **** 			0x40010359u, /* Base address: 0x40010300 Count: 89 */
 476:.\Generated_Source\PSoC5/cyfitter_cfg.c **** 			0x40010455u, /* Base address: 0x40010400 Count: 85 */
 477:.\Generated_Source\PSoC5/cyfitter_cfg.c **** 			0x40010551u, /* Base address: 0x40010500 Count: 81 */
 478:.\Generated_Source\PSoC5/cyfitter_cfg.c **** 			0x40010661u, /* Base address: 0x40010600 Count: 97 */
 479:.\Generated_Source\PSoC5/cyfitter_cfg.c **** 			0x40010759u, /* Base address: 0x40010700 Count: 89 */
 480:.\Generated_Source\PSoC5/cyfitter_cfg.c **** 			0x40010854u, /* Base address: 0x40010800 Count: 84 */
 481:.\Generated_Source\PSoC5/cyfitter_cfg.c **** 			0x40010941u, /* Base address: 0x40010900 Count: 65 */
 482:.\Generated_Source\PSoC5/cyfitter_cfg.c **** 			0x40010B0Au, /* Base address: 0x40010B00 Count: 10 */
 483:.\Generated_Source\PSoC5/cyfitter_cfg.c **** 			0x40010D07u, /* Base address: 0x40010D00 Count: 7 */
 484:.\Generated_Source\PSoC5/cyfitter_cfg.c **** 			0x40011506u, /* Base address: 0x40011500 Count: 6 */
 485:.\Generated_Source\PSoC5/cyfitter_cfg.c **** 			0x40011655u, /* Base address: 0x40011600 Count: 85 */
 486:.\Generated_Source\PSoC5/cyfitter_cfg.c **** 			0x40011752u, /* Base address: 0x40011700 Count: 82 */
 487:.\Generated_Source\PSoC5/cyfitter_cfg.c **** 			0x4001190Eu, /* Base address: 0x40011900 Count: 14 */
 488:.\Generated_Source\PSoC5/cyfitter_cfg.c **** 			0x40011B03u, /* Base address: 0x40011B00 Count: 3 */
 489:.\Generated_Source\PSoC5/cyfitter_cfg.c **** 			0x40014006u, /* Base address: 0x40014000 Count: 6 */
 490:.\Generated_Source\PSoC5/cyfitter_cfg.c **** 			0x40014110u, /* Base address: 0x40014100 Count: 16 */
 491:.\Generated_Source\PSoC5/cyfitter_cfg.c **** 			0x4001420Du, /* Base address: 0x40014200 Count: 13 */
 492:.\Generated_Source\PSoC5/cyfitter_cfg.c **** 			0x4001430Bu, /* Base address: 0x40014300 Count: 11 */
 493:.\Generated_Source\PSoC5/cyfitter_cfg.c **** 			0x40014402u, /* Base address: 0x40014400 Count: 2 */
 494:.\Generated_Source\PSoC5/cyfitter_cfg.c **** 			0x40014504u, /* Base address: 0x40014500 Count: 4 */
 495:.\Generated_Source\PSoC5/cyfitter_cfg.c **** 			0x40014608u, /* Base address: 0x40014600 Count: 8 */
 496:.\Generated_Source\PSoC5/cyfitter_cfg.c **** 			0x40014710u, /* Base address: 0x40014700 Count: 16 */
 497:.\Generated_Source\PSoC5/cyfitter_cfg.c **** 			0x4001480Cu, /* Base address: 0x40014800 Count: 12 */
 498:.\Generated_Source\PSoC5/cyfitter_cfg.c **** 			0x4001490Au, /* Base address: 0x40014900 Count: 10 */
 499:.\Generated_Source\PSoC5/cyfitter_cfg.c **** 			0x40014C07u, /* Base address: 0x40014C00 Count: 7 */
 500:.\Generated_Source\PSoC5/cyfitter_cfg.c **** 			0x40014D07u, /* Base address: 0x40014D00 Count: 7 */
 501:.\Generated_Source\PSoC5/cyfitter_cfg.c **** 			0x40015009u, /* Base address: 0x40015000 Count: 9 */
 502:.\Generated_Source\PSoC5/cyfitter_cfg.c **** 			0x40015103u, /* Base address: 0x40015100 Count: 3 */
ARM GAS  C:\DOCUME~1\ADMINI~1\LOCALS~1\Temp\ccEzm20X.s 			page 18


 503:.\Generated_Source\PSoC5/cyfitter_cfg.c **** 		};
 504:.\Generated_Source\PSoC5/cyfitter_cfg.c **** 
 505:.\Generated_Source\PSoC5/cyfitter_cfg.c **** 		static const cy_cfg_addrvalue_t CYCODE cy_cfg_data_table[] = {
 506:.\Generated_Source\PSoC5/cyfitter_cfg.c **** 			{0x7Eu, 0x02u},
 507:.\Generated_Source\PSoC5/cyfitter_cfg.c **** 			{0x01u, 0x30u},
 508:.\Generated_Source\PSoC5/cyfitter_cfg.c **** 			{0x0Au, 0x36u},
 509:.\Generated_Source\PSoC5/cyfitter_cfg.c **** 			{0x04u, 0xF0u},
 510:.\Generated_Source\PSoC5/cyfitter_cfg.c **** 			{0x0Cu, 0x40u},
 511:.\Generated_Source\PSoC5/cyfitter_cfg.c **** 			{0x14u, 0x13u},
 512:.\Generated_Source\PSoC5/cyfitter_cfg.c **** 			{0x1Cu, 0x0Cu},
 513:.\Generated_Source\PSoC5/cyfitter_cfg.c **** 			{0x60u, 0x82u},
 514:.\Generated_Source\PSoC5/cyfitter_cfg.c **** 			{0x61u, 0x81u},
 515:.\Generated_Source\PSoC5/cyfitter_cfg.c **** 			{0x7Cu, 0x40u},
 516:.\Generated_Source\PSoC5/cyfitter_cfg.c **** 			{0x29u, 0x0Fu},
 517:.\Generated_Source\PSoC5/cyfitter_cfg.c **** 			{0x39u, 0x08u},
 518:.\Generated_Source\PSoC5/cyfitter_cfg.c **** 			{0x82u, 0x0Fu},
 519:.\Generated_Source\PSoC5/cyfitter_cfg.c **** 			{0x84u, 0x38u},
 520:.\Generated_Source\PSoC5/cyfitter_cfg.c **** 			{0x26u, 0x04u},
 521:.\Generated_Source\PSoC5/cyfitter_cfg.c **** 			{0x87u, 0x72u},
 522:.\Generated_Source\PSoC5/cyfitter_cfg.c **** 			{0x00u, 0x14u},
 523:.\Generated_Source\PSoC5/cyfitter_cfg.c **** 			{0x02u, 0x49u},
 524:.\Generated_Source\PSoC5/cyfitter_cfg.c **** 			{0x03u, 0x08u},
 525:.\Generated_Source\PSoC5/cyfitter_cfg.c **** 			{0x05u, 0x3Du},
 526:.\Generated_Source\PSoC5/cyfitter_cfg.c **** 			{0x07u, 0xC2u},
 527:.\Generated_Source\PSoC5/cyfitter_cfg.c **** 			{0x08u, 0x1Fu},
 528:.\Generated_Source\PSoC5/cyfitter_cfg.c **** 			{0x09u, 0x40u},
 529:.\Generated_Source\PSoC5/cyfitter_cfg.c **** 			{0x0Bu, 0x1Du},
 530:.\Generated_Source\PSoC5/cyfitter_cfg.c **** 			{0x0Cu, 0x01u},
 531:.\Generated_Source\PSoC5/cyfitter_cfg.c **** 			{0x0Du, 0x92u},
 532:.\Generated_Source\PSoC5/cyfitter_cfg.c **** 			{0x0Eu, 0x26u},
 533:.\Generated_Source\PSoC5/cyfitter_cfg.c **** 			{0x0Fu, 0x60u},
 534:.\Generated_Source\PSoC5/cyfitter_cfg.c **** 			{0x11u, 0xE2u},
 535:.\Generated_Source\PSoC5/cyfitter_cfg.c **** 			{0x14u, 0x1Fu},
 536:.\Generated_Source\PSoC5/cyfitter_cfg.c **** 			{0x15u, 0x01u},
 537:.\Generated_Source\PSoC5/cyfitter_cfg.c **** 			{0x19u, 0x01u},
 538:.\Generated_Source\PSoC5/cyfitter_cfg.c **** 			{0x1Cu, 0x0Au},
 539:.\Generated_Source\PSoC5/cyfitter_cfg.c **** 			{0x1Eu, 0x51u},
 540:.\Generated_Source\PSoC5/cyfitter_cfg.c **** 			{0x1Fu, 0x02u},
 541:.\Generated_Source\PSoC5/cyfitter_cfg.c **** 			{0x21u, 0x0Du},
 542:.\Generated_Source\PSoC5/cyfitter_cfg.c **** 			{0x27u, 0xFFu},
 543:.\Generated_Source\PSoC5/cyfitter_cfg.c **** 			{0x29u, 0x5Du},
 544:.\Generated_Source\PSoC5/cyfitter_cfg.c **** 			{0x2Bu, 0xA2u},
 545:.\Generated_Source\PSoC5/cyfitter_cfg.c **** 			{0x2Du, 0x04u},
 546:.\Generated_Source\PSoC5/cyfitter_cfg.c **** 			{0x2Fu, 0xE0u},
 547:.\Generated_Source\PSoC5/cyfitter_cfg.c **** 			{0x30u, 0x07u},
 548:.\Generated_Source\PSoC5/cyfitter_cfg.c **** 			{0x34u, 0x60u},
 549:.\Generated_Source\PSoC5/cyfitter_cfg.c **** 			{0x36u, 0x18u},
 550:.\Generated_Source\PSoC5/cyfitter_cfg.c **** 			{0x37u, 0xFFu},
 551:.\Generated_Source\PSoC5/cyfitter_cfg.c **** 			{0x3Eu, 0x10u},
 552:.\Generated_Source\PSoC5/cyfitter_cfg.c **** 			{0x3Fu, 0x40u},
 553:.\Generated_Source\PSoC5/cyfitter_cfg.c **** 			{0x40u, 0x35u},
 554:.\Generated_Source\PSoC5/cyfitter_cfg.c **** 			{0x41u, 0x06u},
 555:.\Generated_Source\PSoC5/cyfitter_cfg.c **** 			{0x42u, 0x04u},
 556:.\Generated_Source\PSoC5/cyfitter_cfg.c **** 			{0x44u, 0x02u},
 557:.\Generated_Source\PSoC5/cyfitter_cfg.c **** 			{0x46u, 0x0Cu},
 558:.\Generated_Source\PSoC5/cyfitter_cfg.c **** 			{0x47u, 0xE0u},
 559:.\Generated_Source\PSoC5/cyfitter_cfg.c **** 			{0x48u, 0x24u},
ARM GAS  C:\DOCUME~1\ADMINI~1\LOCALS~1\Temp\ccEzm20X.s 			page 19


 560:.\Generated_Source\PSoC5/cyfitter_cfg.c **** 			{0x49u, 0xFFu},
 561:.\Generated_Source\PSoC5/cyfitter_cfg.c **** 			{0x4Au, 0xFFu},
 562:.\Generated_Source\PSoC5/cyfitter_cfg.c **** 			{0x4Bu, 0xFFu},
 563:.\Generated_Source\PSoC5/cyfitter_cfg.c **** 			{0x4Cu, 0x62u},
 564:.\Generated_Source\PSoC5/cyfitter_cfg.c **** 			{0x4Du, 0xA0u},
 565:.\Generated_Source\PSoC5/cyfitter_cfg.c **** 			{0x4Eu, 0xF0u},
 566:.\Generated_Source\PSoC5/cyfitter_cfg.c **** 			{0x4Fu, 0x41u},
 567:.\Generated_Source\PSoC5/cyfitter_cfg.c **** 			{0x50u, 0x0Cu},
 568:.\Generated_Source\PSoC5/cyfitter_cfg.c **** 			{0x52u, 0xF6u},
 569:.\Generated_Source\PSoC5/cyfitter_cfg.c **** 			{0x58u, 0x04u},
 570:.\Generated_Source\PSoC5/cyfitter_cfg.c **** 			{0x59u, 0x04u},
 571:.\Generated_Source\PSoC5/cyfitter_cfg.c **** 			{0x5Au, 0x04u},
 572:.\Generated_Source\PSoC5/cyfitter_cfg.c **** 			{0x5Bu, 0x04u},
 573:.\Generated_Source\PSoC5/cyfitter_cfg.c **** 			{0x5Cu, 0x01u},
 574:.\Generated_Source\PSoC5/cyfitter_cfg.c **** 			{0x5Du, 0x01u},
 575:.\Generated_Source\PSoC5/cyfitter_cfg.c **** 			{0x5Fu, 0x01u},
 576:.\Generated_Source\PSoC5/cyfitter_cfg.c **** 			{0x66u, 0x40u},
 577:.\Generated_Source\PSoC5/cyfitter_cfg.c **** 			{0x67u, 0x02u},
 578:.\Generated_Source\PSoC5/cyfitter_cfg.c **** 			{0x69u, 0x10u},
 579:.\Generated_Source\PSoC5/cyfitter_cfg.c **** 			{0x6Au, 0x30u},
 580:.\Generated_Source\PSoC5/cyfitter_cfg.c **** 			{0x6Bu, 0x10u},
 581:.\Generated_Source\PSoC5/cyfitter_cfg.c **** 			{0x6Du, 0x10u},
 582:.\Generated_Source\PSoC5/cyfitter_cfg.c **** 			{0x6Eu, 0x10u},
 583:.\Generated_Source\PSoC5/cyfitter_cfg.c **** 			{0x6Fu, 0x12u},
 584:.\Generated_Source\PSoC5/cyfitter_cfg.c **** 			{0x80u, 0x01u},
 585:.\Generated_Source\PSoC5/cyfitter_cfg.c **** 			{0x82u, 0x06u},
 586:.\Generated_Source\PSoC5/cyfitter_cfg.c **** 			{0x83u, 0x04u},
 587:.\Generated_Source\PSoC5/cyfitter_cfg.c **** 			{0x87u, 0x01u},
 588:.\Generated_Source\PSoC5/cyfitter_cfg.c **** 			{0x8Au, 0x13u},
 589:.\Generated_Source\PSoC5/cyfitter_cfg.c **** 			{0x90u, 0x08u},
 590:.\Generated_Source\PSoC5/cyfitter_cfg.c **** 			{0x93u, 0x02u},
 591:.\Generated_Source\PSoC5/cyfitter_cfg.c **** 			{0x94u, 0x12u},
 592:.\Generated_Source\PSoC5/cyfitter_cfg.c **** 			{0x96u, 0x01u},
 593:.\Generated_Source\PSoC5/cyfitter_cfg.c **** 			{0x97u, 0x03u},
 594:.\Generated_Source\PSoC5/cyfitter_cfg.c **** 			{0x9Au, 0x13u},
 595:.\Generated_Source\PSoC5/cyfitter_cfg.c **** 			{0x9Cu, 0x01u},
 596:.\Generated_Source\PSoC5/cyfitter_cfg.c **** 			{0x9Eu, 0x32u},
 597:.\Generated_Source\PSoC5/cyfitter_cfg.c **** 			{0xA2u, 0x08u},
 598:.\Generated_Source\PSoC5/cyfitter_cfg.c **** 			{0xA6u, 0x13u},
 599:.\Generated_Source\PSoC5/cyfitter_cfg.c **** 			{0xA7u, 0x01u},
 600:.\Generated_Source\PSoC5/cyfitter_cfg.c **** 			{0xABu, 0x01u},
 601:.\Generated_Source\PSoC5/cyfitter_cfg.c **** 			{0xACu, 0x09u},
 602:.\Generated_Source\PSoC5/cyfitter_cfg.c **** 			{0xAEu, 0x04u},
 603:.\Generated_Source\PSoC5/cyfitter_cfg.c **** 			{0xB0u, 0x07u},
 604:.\Generated_Source\PSoC5/cyfitter_cfg.c **** 			{0xB2u, 0x20u},
 605:.\Generated_Source\PSoC5/cyfitter_cfg.c **** 			{0xB3u, 0x07u},
 606:.\Generated_Source\PSoC5/cyfitter_cfg.c **** 			{0xB4u, 0x10u},
 607:.\Generated_Source\PSoC5/cyfitter_cfg.c **** 			{0xB6u, 0x08u},
 608:.\Generated_Source\PSoC5/cyfitter_cfg.c **** 			{0xBAu, 0x02u},
 609:.\Generated_Source\PSoC5/cyfitter_cfg.c **** 			{0xBBu, 0x08u},
 610:.\Generated_Source\PSoC5/cyfitter_cfg.c **** 			{0xBEu, 0x10u},
 611:.\Generated_Source\PSoC5/cyfitter_cfg.c **** 			{0xD8u, 0x04u},
 612:.\Generated_Source\PSoC5/cyfitter_cfg.c **** 			{0xD9u, 0x04u},
 613:.\Generated_Source\PSoC5/cyfitter_cfg.c **** 			{0xDFu, 0x01u},
 614:.\Generated_Source\PSoC5/cyfitter_cfg.c **** 			{0x00u, 0x21u},
 615:.\Generated_Source\PSoC5/cyfitter_cfg.c **** 			{0x03u, 0x02u},
 616:.\Generated_Source\PSoC5/cyfitter_cfg.c **** 			{0x04u, 0x10u},
ARM GAS  C:\DOCUME~1\ADMINI~1\LOCALS~1\Temp\ccEzm20X.s 			page 20


 617:.\Generated_Source\PSoC5/cyfitter_cfg.c **** 			{0x05u, 0x01u},
 618:.\Generated_Source\PSoC5/cyfitter_cfg.c **** 			{0x0Au, 0x22u},
 619:.\Generated_Source\PSoC5/cyfitter_cfg.c **** 			{0x0Eu, 0x2Au},
 620:.\Generated_Source\PSoC5/cyfitter_cfg.c **** 			{0x0Fu, 0x80u},
 621:.\Generated_Source\PSoC5/cyfitter_cfg.c **** 			{0x14u, 0x21u},
 622:.\Generated_Source\PSoC5/cyfitter_cfg.c **** 			{0x15u, 0x01u},
 623:.\Generated_Source\PSoC5/cyfitter_cfg.c **** 			{0x18u, 0x04u},
 624:.\Generated_Source\PSoC5/cyfitter_cfg.c **** 			{0x1Au, 0x02u},
 625:.\Generated_Source\PSoC5/cyfitter_cfg.c **** 			{0x1Bu, 0x02u},
 626:.\Generated_Source\PSoC5/cyfitter_cfg.c **** 			{0x1Du, 0x21u},
 627:.\Generated_Source\PSoC5/cyfitter_cfg.c **** 			{0x1Eu, 0x21u},
 628:.\Generated_Source\PSoC5/cyfitter_cfg.c **** 			{0x20u, 0x02u},
 629:.\Generated_Source\PSoC5/cyfitter_cfg.c **** 			{0x24u, 0x20u},
 630:.\Generated_Source\PSoC5/cyfitter_cfg.c **** 			{0x25u, 0x04u},
 631:.\Generated_Source\PSoC5/cyfitter_cfg.c **** 			{0x26u, 0x08u},
 632:.\Generated_Source\PSoC5/cyfitter_cfg.c **** 			{0x28u, 0x02u},
 633:.\Generated_Source\PSoC5/cyfitter_cfg.c **** 			{0x29u, 0x20u},
 634:.\Generated_Source\PSoC5/cyfitter_cfg.c **** 			{0x2Au, 0x09u},
 635:.\Generated_Source\PSoC5/cyfitter_cfg.c **** 			{0x2Du, 0x25u},
 636:.\Generated_Source\PSoC5/cyfitter_cfg.c **** 			{0x2Eu, 0x01u},
 637:.\Generated_Source\PSoC5/cyfitter_cfg.c **** 			{0x30u, 0x89u},
 638:.\Generated_Source\PSoC5/cyfitter_cfg.c **** 			{0x31u, 0x12u},
 639:.\Generated_Source\PSoC5/cyfitter_cfg.c **** 			{0x34u, 0x01u},
 640:.\Generated_Source\PSoC5/cyfitter_cfg.c **** 			{0x36u, 0x08u},
 641:.\Generated_Source\PSoC5/cyfitter_cfg.c **** 			{0x38u, 0xA0u},
 642:.\Generated_Source\PSoC5/cyfitter_cfg.c **** 			{0x39u, 0x05u},
 643:.\Generated_Source\PSoC5/cyfitter_cfg.c **** 			{0x3Au, 0x04u},
 644:.\Generated_Source\PSoC5/cyfitter_cfg.c **** 			{0x3Cu, 0x02u},
 645:.\Generated_Source\PSoC5/cyfitter_cfg.c **** 			{0x3Eu, 0x08u},
 646:.\Generated_Source\PSoC5/cyfitter_cfg.c **** 			{0x40u, 0x04u},
 647:.\Generated_Source\PSoC5/cyfitter_cfg.c **** 			{0x41u, 0x04u},
 648:.\Generated_Source\PSoC5/cyfitter_cfg.c **** 			{0x42u, 0x40u},
 649:.\Generated_Source\PSoC5/cyfitter_cfg.c **** 			{0x44u, 0x10u},
 650:.\Generated_Source\PSoC5/cyfitter_cfg.c **** 			{0x47u, 0x04u},
 651:.\Generated_Source\PSoC5/cyfitter_cfg.c **** 			{0x48u, 0x04u},
 652:.\Generated_Source\PSoC5/cyfitter_cfg.c **** 			{0x4Au, 0x02u},
 653:.\Generated_Source\PSoC5/cyfitter_cfg.c **** 			{0x51u, 0x41u},
 654:.\Generated_Source\PSoC5/cyfitter_cfg.c **** 			{0x69u, 0x10u},
 655:.\Generated_Source\PSoC5/cyfitter_cfg.c **** 			{0x6Bu, 0x10u},
 656:.\Generated_Source\PSoC5/cyfitter_cfg.c **** 			{0x70u, 0x88u},
 657:.\Generated_Source\PSoC5/cyfitter_cfg.c **** 			{0x71u, 0x10u},
 658:.\Generated_Source\PSoC5/cyfitter_cfg.c **** 			{0x72u, 0x84u},
 659:.\Generated_Source\PSoC5/cyfitter_cfg.c **** 			{0xC0u, 0x5Bu},
 660:.\Generated_Source\PSoC5/cyfitter_cfg.c **** 			{0xC2u, 0xF5u},
 661:.\Generated_Source\PSoC5/cyfitter_cfg.c **** 			{0xC4u, 0xB0u},
 662:.\Generated_Source\PSoC5/cyfitter_cfg.c **** 			{0xCAu, 0x6Fu},
 663:.\Generated_Source\PSoC5/cyfitter_cfg.c **** 			{0xCCu, 0xCFu},
 664:.\Generated_Source\PSoC5/cyfitter_cfg.c **** 			{0xCEu, 0xCFu},
 665:.\Generated_Source\PSoC5/cyfitter_cfg.c **** 			{0xD0u, 0x07u},
 666:.\Generated_Source\PSoC5/cyfitter_cfg.c **** 			{0xD2u, 0x0Cu},
 667:.\Generated_Source\PSoC5/cyfitter_cfg.c **** 			{0x02u, 0x10u},
 668:.\Generated_Source\PSoC5/cyfitter_cfg.c **** 			{0x04u, 0x09u},
 669:.\Generated_Source\PSoC5/cyfitter_cfg.c **** 			{0x06u, 0x10u},
 670:.\Generated_Source\PSoC5/cyfitter_cfg.c **** 			{0x09u, 0x03u},
 671:.\Generated_Source\PSoC5/cyfitter_cfg.c **** 			{0x0Bu, 0x14u},
 672:.\Generated_Source\PSoC5/cyfitter_cfg.c **** 			{0x14u, 0x10u},
 673:.\Generated_Source\PSoC5/cyfitter_cfg.c **** 			{0x15u, 0x13u},
ARM GAS  C:\DOCUME~1\ADMINI~1\LOCALS~1\Temp\ccEzm20X.s 			page 21


 674:.\Generated_Source\PSoC5/cyfitter_cfg.c **** 			{0x16u, 0x0Cu},
 675:.\Generated_Source\PSoC5/cyfitter_cfg.c **** 			{0x17u, 0x0Cu},
 676:.\Generated_Source\PSoC5/cyfitter_cfg.c **** 			{0x1Au, 0x03u},
 677:.\Generated_Source\PSoC5/cyfitter_cfg.c **** 			{0x1Bu, 0x1Eu},
 678:.\Generated_Source\PSoC5/cyfitter_cfg.c **** 			{0x1Cu, 0x14u},
 679:.\Generated_Source\PSoC5/cyfitter_cfg.c **** 			{0x25u, 0x20u},
 680:.\Generated_Source\PSoC5/cyfitter_cfg.c **** 			{0x28u, 0x0Cu},
 681:.\Generated_Source\PSoC5/cyfitter_cfg.c **** 			{0x29u, 0x13u},
 682:.\Generated_Source\PSoC5/cyfitter_cfg.c **** 			{0x2Au, 0x11u},
 683:.\Generated_Source\PSoC5/cyfitter_cfg.c **** 			{0x2Bu, 0x04u},
 684:.\Generated_Source\PSoC5/cyfitter_cfg.c **** 			{0x2Cu, 0x1Cu},
 685:.\Generated_Source\PSoC5/cyfitter_cfg.c **** 			{0x2Du, 0x09u},
 686:.\Generated_Source\PSoC5/cyfitter_cfg.c **** 			{0x2Eu, 0x02u},
 687:.\Generated_Source\PSoC5/cyfitter_cfg.c **** 			{0x2Fu, 0x10u},
 688:.\Generated_Source\PSoC5/cyfitter_cfg.c **** 			{0x31u, 0x10u},
 689:.\Generated_Source\PSoC5/cyfitter_cfg.c **** 			{0x33u, 0x0Fu},
 690:.\Generated_Source\PSoC5/cyfitter_cfg.c **** 			{0x34u, 0x1Fu},
 691:.\Generated_Source\PSoC5/cyfitter_cfg.c **** 			{0x35u, 0x20u},
 692:.\Generated_Source\PSoC5/cyfitter_cfg.c **** 			{0x37u, 0x20u},
 693:.\Generated_Source\PSoC5/cyfitter_cfg.c **** 			{0x3Bu, 0x08u},
 694:.\Generated_Source\PSoC5/cyfitter_cfg.c **** 			{0x3Fu, 0x41u},
 695:.\Generated_Source\PSoC5/cyfitter_cfg.c **** 			{0x40u, 0x64u},
 696:.\Generated_Source\PSoC5/cyfitter_cfg.c **** 			{0x41u, 0x02u},
 697:.\Generated_Source\PSoC5/cyfitter_cfg.c **** 			{0x45u, 0xE0u},
 698:.\Generated_Source\PSoC5/cyfitter_cfg.c **** 			{0x46u, 0xC0u},
 699:.\Generated_Source\PSoC5/cyfitter_cfg.c **** 			{0x47u, 0xB0u},
 700:.\Generated_Source\PSoC5/cyfitter_cfg.c **** 			{0x48u, 0x2Au},
 701:.\Generated_Source\PSoC5/cyfitter_cfg.c **** 			{0x49u, 0xFFu},
 702:.\Generated_Source\PSoC5/cyfitter_cfg.c **** 			{0x4Au, 0xFFu},
 703:.\Generated_Source\PSoC5/cyfitter_cfg.c **** 			{0x4Bu, 0xFFu},
 704:.\Generated_Source\PSoC5/cyfitter_cfg.c **** 			{0x4Eu, 0xF0u},
 705:.\Generated_Source\PSoC5/cyfitter_cfg.c **** 			{0x4Fu, 0x44u},
 706:.\Generated_Source\PSoC5/cyfitter_cfg.c **** 			{0x50u, 0x0Cu},
 707:.\Generated_Source\PSoC5/cyfitter_cfg.c **** 			{0x54u, 0x01u},
 708:.\Generated_Source\PSoC5/cyfitter_cfg.c **** 			{0x56u, 0x04u},
 709:.\Generated_Source\PSoC5/cyfitter_cfg.c **** 			{0x58u, 0x04u},
 710:.\Generated_Source\PSoC5/cyfitter_cfg.c **** 			{0x59u, 0x04u},
 711:.\Generated_Source\PSoC5/cyfitter_cfg.c **** 			{0x5Au, 0x04u},
 712:.\Generated_Source\PSoC5/cyfitter_cfg.c **** 			{0x5Bu, 0x04u},
 713:.\Generated_Source\PSoC5/cyfitter_cfg.c **** 			{0x5Cu, 0x11u},
 714:.\Generated_Source\PSoC5/cyfitter_cfg.c **** 			{0x5Du, 0x11u},
 715:.\Generated_Source\PSoC5/cyfitter_cfg.c **** 			{0x5Fu, 0x01u},
 716:.\Generated_Source\PSoC5/cyfitter_cfg.c **** 			{0x66u, 0xC0u},
 717:.\Generated_Source\PSoC5/cyfitter_cfg.c **** 			{0x6Au, 0x40u},
 718:.\Generated_Source\PSoC5/cyfitter_cfg.c **** 			{0x6Bu, 0x02u},
 719:.\Generated_Source\PSoC5/cyfitter_cfg.c **** 			{0x81u, 0x02u},
 720:.\Generated_Source\PSoC5/cyfitter_cfg.c **** 			{0x85u, 0x1Au},
 721:.\Generated_Source\PSoC5/cyfitter_cfg.c **** 			{0x87u, 0x60u},
 722:.\Generated_Source\PSoC5/cyfitter_cfg.c **** 			{0x88u, 0x33u},
 723:.\Generated_Source\PSoC5/cyfitter_cfg.c **** 			{0x89u, 0x4Du},
 724:.\Generated_Source\PSoC5/cyfitter_cfg.c **** 			{0x8Au, 0x0Cu},
 725:.\Generated_Source\PSoC5/cyfitter_cfg.c **** 			{0x8Bu, 0x92u},
 726:.\Generated_Source\PSoC5/cyfitter_cfg.c **** 			{0x8Cu, 0x2Au},
 727:.\Generated_Source\PSoC5/cyfitter_cfg.c **** 			{0x8Eu, 0x54u},
 728:.\Generated_Source\PSoC5/cyfitter_cfg.c **** 			{0x8Fu, 0x01u},
 729:.\Generated_Source\PSoC5/cyfitter_cfg.c **** 			{0x90u, 0xFFu},
 730:.\Generated_Source\PSoC5/cyfitter_cfg.c **** 			{0x91u, 0xFFu},
ARM GAS  C:\DOCUME~1\ADMINI~1\LOCALS~1\Temp\ccEzm20X.s 			page 22


 731:.\Generated_Source\PSoC5/cyfitter_cfg.c **** 			{0x94u, 0x40u},
 732:.\Generated_Source\PSoC5/cyfitter_cfg.c **** 			{0x96u, 0x13u},
 733:.\Generated_Source\PSoC5/cyfitter_cfg.c **** 			{0x97u, 0x02u},
 734:.\Generated_Source\PSoC5/cyfitter_cfg.c **** 			{0x99u, 0x04u},
 735:.\Generated_Source\PSoC5/cyfitter_cfg.c **** 			{0x9Cu, 0x46u},
 736:.\Generated_Source\PSoC5/cyfitter_cfg.c **** 			{0x9Eu, 0xA9u},
 737:.\Generated_Source\PSoC5/cyfitter_cfg.c **** 			{0x9Fu, 0x04u},
 738:.\Generated_Source\PSoC5/cyfitter_cfg.c **** 			{0xA1u, 0xCCu},
 739:.\Generated_Source\PSoC5/cyfitter_cfg.c **** 			{0xA3u, 0x13u},
 740:.\Generated_Source\PSoC5/cyfitter_cfg.c **** 			{0xA4u, 0x80u},
 741:.\Generated_Source\PSoC5/cyfitter_cfg.c **** 			{0xA6u, 0x56u},
 742:.\Generated_Source\PSoC5/cyfitter_cfg.c **** 			{0xA7u, 0xB5u},
 743:.\Generated_Source\PSoC5/cyfitter_cfg.c **** 			{0xA8u, 0x0Eu},
 744:.\Generated_Source\PSoC5/cyfitter_cfg.c **** 			{0xA9u, 0xA9u},
 745:.\Generated_Source\PSoC5/cyfitter_cfg.c **** 			{0xAAu, 0x30u},
 746:.\Generated_Source\PSoC5/cyfitter_cfg.c **** 			{0xABu, 0x54u},
 747:.\Generated_Source\PSoC5/cyfitter_cfg.c **** 			{0xADu, 0xA5u},
 748:.\Generated_Source\PSoC5/cyfitter_cfg.c **** 			{0xAEu, 0x01u},
 749:.\Generated_Source\PSoC5/cyfitter_cfg.c **** 			{0xAFu, 0x4Au},
 750:.\Generated_Source\PSoC5/cyfitter_cfg.c **** 			{0xB0u, 0xFFu},
 751:.\Generated_Source\PSoC5/cyfitter_cfg.c **** 			{0xB6u, 0xFFu},
 752:.\Generated_Source\PSoC5/cyfitter_cfg.c **** 			{0xB7u, 0xFFu},
 753:.\Generated_Source\PSoC5/cyfitter_cfg.c **** 			{0xBBu, 0x20u},
 754:.\Generated_Source\PSoC5/cyfitter_cfg.c **** 			{0xBFu, 0x40u},
 755:.\Generated_Source\PSoC5/cyfitter_cfg.c **** 			{0xD6u, 0x08u},
 756:.\Generated_Source\PSoC5/cyfitter_cfg.c **** 			{0xD8u, 0x04u},
 757:.\Generated_Source\PSoC5/cyfitter_cfg.c **** 			{0xD9u, 0x04u},
 758:.\Generated_Source\PSoC5/cyfitter_cfg.c **** 			{0xDBu, 0x04u},
 759:.\Generated_Source\PSoC5/cyfitter_cfg.c **** 			{0xDCu, 0x10u},
 760:.\Generated_Source\PSoC5/cyfitter_cfg.c **** 			{0xDDu, 0x90u},
 761:.\Generated_Source\PSoC5/cyfitter_cfg.c **** 			{0xDFu, 0x01u},
 762:.\Generated_Source\PSoC5/cyfitter_cfg.c **** 			{0x01u, 0x20u},
 763:.\Generated_Source\PSoC5/cyfitter_cfg.c **** 			{0x03u, 0x01u},
 764:.\Generated_Source\PSoC5/cyfitter_cfg.c **** 			{0x04u, 0x08u},
 765:.\Generated_Source\PSoC5/cyfitter_cfg.c **** 			{0x06u, 0x40u},
 766:.\Generated_Source\PSoC5/cyfitter_cfg.c **** 			{0x09u, 0x06u},
 767:.\Generated_Source\PSoC5/cyfitter_cfg.c **** 			{0x0Au, 0x02u},
 768:.\Generated_Source\PSoC5/cyfitter_cfg.c **** 			{0x0Du, 0x28u},
 769:.\Generated_Source\PSoC5/cyfitter_cfg.c **** 			{0x0Fu, 0x0Au},
 770:.\Generated_Source\PSoC5/cyfitter_cfg.c **** 			{0x10u, 0x10u},
 771:.\Generated_Source\PSoC5/cyfitter_cfg.c **** 			{0x12u, 0x05u},
 772:.\Generated_Source\PSoC5/cyfitter_cfg.c **** 			{0x14u, 0x04u},
 773:.\Generated_Source\PSoC5/cyfitter_cfg.c **** 			{0x15u, 0x40u},
 774:.\Generated_Source\PSoC5/cyfitter_cfg.c **** 			{0x18u, 0x80u},
 775:.\Generated_Source\PSoC5/cyfitter_cfg.c **** 			{0x19u, 0x01u},
 776:.\Generated_Source\PSoC5/cyfitter_cfg.c **** 			{0x1Au, 0x02u},
 777:.\Generated_Source\PSoC5/cyfitter_cfg.c **** 			{0x1Du, 0x20u},
 778:.\Generated_Source\PSoC5/cyfitter_cfg.c **** 			{0x20u, 0x0Au},
 779:.\Generated_Source\PSoC5/cyfitter_cfg.c **** 			{0x23u, 0x04u},
 780:.\Generated_Source\PSoC5/cyfitter_cfg.c **** 			{0x24u, 0x48u},
 781:.\Generated_Source\PSoC5/cyfitter_cfg.c **** 			{0x25u, 0x08u},
 782:.\Generated_Source\PSoC5/cyfitter_cfg.c **** 			{0x26u, 0x28u},
 783:.\Generated_Source\PSoC5/cyfitter_cfg.c **** 			{0x27u, 0x22u},
 784:.\Generated_Source\PSoC5/cyfitter_cfg.c **** 			{0x28u, 0x11u},
 785:.\Generated_Source\PSoC5/cyfitter_cfg.c **** 			{0x29u, 0x21u},
 786:.\Generated_Source\PSoC5/cyfitter_cfg.c **** 			{0x2Au, 0x08u},
 787:.\Generated_Source\PSoC5/cyfitter_cfg.c **** 			{0x2Cu, 0x04u},
ARM GAS  C:\DOCUME~1\ADMINI~1\LOCALS~1\Temp\ccEzm20X.s 			page 23


 788:.\Generated_Source\PSoC5/cyfitter_cfg.c **** 			{0x2Du, 0x44u},
 789:.\Generated_Source\PSoC5/cyfitter_cfg.c **** 			{0x2Fu, 0x05u},
 790:.\Generated_Source\PSoC5/cyfitter_cfg.c **** 			{0x30u, 0x88u},
 791:.\Generated_Source\PSoC5/cyfitter_cfg.c **** 			{0x31u, 0x12u},
 792:.\Generated_Source\PSoC5/cyfitter_cfg.c **** 			{0x34u, 0x03u},
 793:.\Generated_Source\PSoC5/cyfitter_cfg.c **** 			{0x36u, 0x28u},
 794:.\Generated_Source\PSoC5/cyfitter_cfg.c **** 			{0x37u, 0x01u},
 795:.\Generated_Source\PSoC5/cyfitter_cfg.c **** 			{0x38u, 0x20u},
 796:.\Generated_Source\PSoC5/cyfitter_cfg.c **** 			{0x39u, 0x01u},
 797:.\Generated_Source\PSoC5/cyfitter_cfg.c **** 			{0x3Au, 0x84u},
 798:.\Generated_Source\PSoC5/cyfitter_cfg.c **** 			{0x3Eu, 0x20u},
 799:.\Generated_Source\PSoC5/cyfitter_cfg.c **** 			{0x3Fu, 0x10u},
 800:.\Generated_Source\PSoC5/cyfitter_cfg.c **** 			{0x44u, 0x04u},
 801:.\Generated_Source\PSoC5/cyfitter_cfg.c **** 			{0x47u, 0x02u},
 802:.\Generated_Source\PSoC5/cyfitter_cfg.c **** 			{0x4Du, 0x02u},
 803:.\Generated_Source\PSoC5/cyfitter_cfg.c **** 			{0x4Eu, 0x08u},
 804:.\Generated_Source\PSoC5/cyfitter_cfg.c **** 			{0x56u, 0x20u},
 805:.\Generated_Source\PSoC5/cyfitter_cfg.c **** 			{0x57u, 0x01u},
 806:.\Generated_Source\PSoC5/cyfitter_cfg.c **** 			{0x58u, 0x40u},
 807:.\Generated_Source\PSoC5/cyfitter_cfg.c **** 			{0x5Cu, 0x40u},
 808:.\Generated_Source\PSoC5/cyfitter_cfg.c **** 			{0x5Du, 0x02u},
 809:.\Generated_Source\PSoC5/cyfitter_cfg.c **** 			{0x5Fu, 0x18u},
 810:.\Generated_Source\PSoC5/cyfitter_cfg.c **** 			{0x60u, 0x01u},
 811:.\Generated_Source\PSoC5/cyfitter_cfg.c **** 			{0x62u, 0x80u},
 812:.\Generated_Source\PSoC5/cyfitter_cfg.c **** 			{0x67u, 0x80u},
 813:.\Generated_Source\PSoC5/cyfitter_cfg.c **** 			{0x79u, 0x08u},
 814:.\Generated_Source\PSoC5/cyfitter_cfg.c **** 			{0x7Bu, 0x20u},
 815:.\Generated_Source\PSoC5/cyfitter_cfg.c **** 			{0x87u, 0x40u},
 816:.\Generated_Source\PSoC5/cyfitter_cfg.c **** 			{0x90u, 0x20u},
 817:.\Generated_Source\PSoC5/cyfitter_cfg.c **** 			{0x91u, 0x93u},
 818:.\Generated_Source\PSoC5/cyfitter_cfg.c **** 			{0x92u, 0x04u},
 819:.\Generated_Source\PSoC5/cyfitter_cfg.c **** 			{0x94u, 0x91u},
 820:.\Generated_Source\PSoC5/cyfitter_cfg.c **** 			{0x95u, 0x08u},
 821:.\Generated_Source\PSoC5/cyfitter_cfg.c **** 			{0x96u, 0x60u},
 822:.\Generated_Source\PSoC5/cyfitter_cfg.c **** 			{0x99u, 0x10u},
 823:.\Generated_Source\PSoC5/cyfitter_cfg.c **** 			{0x9Au, 0x80u},
 824:.\Generated_Source\PSoC5/cyfitter_cfg.c **** 			{0x9Bu, 0x14u},
 825:.\Generated_Source\PSoC5/cyfitter_cfg.c **** 			{0x9Cu, 0x22u},
 826:.\Generated_Source\PSoC5/cyfitter_cfg.c **** 			{0x9Du, 0x20u},
 827:.\Generated_Source\PSoC5/cyfitter_cfg.c **** 			{0x9Eu, 0x0Du},
 828:.\Generated_Source\PSoC5/cyfitter_cfg.c **** 			{0xA0u, 0x88u},
 829:.\Generated_Source\PSoC5/cyfitter_cfg.c **** 			{0xA1u, 0x04u},
 830:.\Generated_Source\PSoC5/cyfitter_cfg.c **** 			{0xA3u, 0x02u},
 831:.\Generated_Source\PSoC5/cyfitter_cfg.c **** 			{0xA4u, 0x14u},
 832:.\Generated_Source\PSoC5/cyfitter_cfg.c **** 			{0xA5u, 0x02u},
 833:.\Generated_Source\PSoC5/cyfitter_cfg.c **** 			{0xA6u, 0x07u},
 834:.\Generated_Source\PSoC5/cyfitter_cfg.c **** 			{0xA7u, 0x40u},
 835:.\Generated_Source\PSoC5/cyfitter_cfg.c **** 			{0xB0u, 0x10u},
 836:.\Generated_Source\PSoC5/cyfitter_cfg.c **** 			{0xB1u, 0x20u},
 837:.\Generated_Source\PSoC5/cyfitter_cfg.c **** 			{0xB2u, 0x01u},
 838:.\Generated_Source\PSoC5/cyfitter_cfg.c **** 			{0xB6u, 0x08u},
 839:.\Generated_Source\PSoC5/cyfitter_cfg.c **** 			{0xC0u, 0x33u},
 840:.\Generated_Source\PSoC5/cyfitter_cfg.c **** 			{0xC2u, 0xEDu},
 841:.\Generated_Source\PSoC5/cyfitter_cfg.c **** 			{0xC4u, 0xC7u},
 842:.\Generated_Source\PSoC5/cyfitter_cfg.c **** 			{0xCAu, 0x7Fu},
 843:.\Generated_Source\PSoC5/cyfitter_cfg.c **** 			{0xCCu, 0x6Fu},
 844:.\Generated_Source\PSoC5/cyfitter_cfg.c **** 			{0xCEu, 0x2Fu},
ARM GAS  C:\DOCUME~1\ADMINI~1\LOCALS~1\Temp\ccEzm20X.s 			page 24


 845:.\Generated_Source\PSoC5/cyfitter_cfg.c **** 			{0xD0u, 0xA0u},
 846:.\Generated_Source\PSoC5/cyfitter_cfg.c **** 			{0xD2u, 0x20u},
 847:.\Generated_Source\PSoC5/cyfitter_cfg.c **** 			{0xD6u, 0xF8u},
 848:.\Generated_Source\PSoC5/cyfitter_cfg.c **** 			{0xD8u, 0x88u},
 849:.\Generated_Source\PSoC5/cyfitter_cfg.c **** 			{0xE6u, 0x01u},
 850:.\Generated_Source\PSoC5/cyfitter_cfg.c **** 			{0xEAu, 0x08u},
 851:.\Generated_Source\PSoC5/cyfitter_cfg.c **** 			{0x03u, 0x80u},
 852:.\Generated_Source\PSoC5/cyfitter_cfg.c **** 			{0x04u, 0x1Fu},
 853:.\Generated_Source\PSoC5/cyfitter_cfg.c **** 			{0x06u, 0x60u},
 854:.\Generated_Source\PSoC5/cyfitter_cfg.c **** 			{0x07u, 0x10u},
 855:.\Generated_Source\PSoC5/cyfitter_cfg.c **** 			{0x08u, 0x09u},
 856:.\Generated_Source\PSoC5/cyfitter_cfg.c **** 			{0x09u, 0x40u},
 857:.\Generated_Source\PSoC5/cyfitter_cfg.c **** 			{0x0Cu, 0x1Bu},
 858:.\Generated_Source\PSoC5/cyfitter_cfg.c **** 			{0x0Du, 0x04u},
 859:.\Generated_Source\PSoC5/cyfitter_cfg.c **** 			{0x0Fu, 0x01u},
 860:.\Generated_Source\PSoC5/cyfitter_cfg.c **** 			{0x10u, 0x78u},
 861:.\Generated_Source\PSoC5/cyfitter_cfg.c **** 			{0x11u, 0x04u},
 862:.\Generated_Source\PSoC5/cyfitter_cfg.c **** 			{0x12u, 0x07u},
 863:.\Generated_Source\PSoC5/cyfitter_cfg.c **** 			{0x13u, 0x21u},
 864:.\Generated_Source\PSoC5/cyfitter_cfg.c **** 			{0x14u, 0x60u},
 865:.\Generated_Source\PSoC5/cyfitter_cfg.c **** 			{0x17u, 0x80u},
 866:.\Generated_Source\PSoC5/cyfitter_cfg.c **** 			{0x18u, 0x7Fu},
 867:.\Generated_Source\PSoC5/cyfitter_cfg.c **** 			{0x19u, 0x05u},
 868:.\Generated_Source\PSoC5/cyfitter_cfg.c **** 			{0x1Bu, 0x20u},
 869:.\Generated_Source\PSoC5/cyfitter_cfg.c **** 			{0x1Cu, 0x40u},
 870:.\Generated_Source\PSoC5/cyfitter_cfg.c **** 			{0x1Du, 0x01u},
 871:.\Generated_Source\PSoC5/cyfitter_cfg.c **** 			{0x1Fu, 0x0Eu},
 872:.\Generated_Source\PSoC5/cyfitter_cfg.c **** 			{0x20u, 0x12u},
 873:.\Generated_Source\PSoC5/cyfitter_cfg.c **** 			{0x21u, 0x31u},
 874:.\Generated_Source\PSoC5/cyfitter_cfg.c **** 			{0x22u, 0x80u},
 875:.\Generated_Source\PSoC5/cyfitter_cfg.c **** 			{0x23u, 0x02u},
 876:.\Generated_Source\PSoC5/cyfitter_cfg.c **** 			{0x24u, 0x20u},
 877:.\Generated_Source\PSoC5/cyfitter_cfg.c **** 			{0x25u, 0x25u},
 878:.\Generated_Source\PSoC5/cyfitter_cfg.c **** 			{0x28u, 0x60u},
 879:.\Generated_Source\PSoC5/cyfitter_cfg.c **** 			{0x29u, 0x25u},
 880:.\Generated_Source\PSoC5/cyfitter_cfg.c **** 			{0x2Au, 0x1Fu},
 881:.\Generated_Source\PSoC5/cyfitter_cfg.c **** 			{0x2Du, 0x31u},
 882:.\Generated_Source\PSoC5/cyfitter_cfg.c **** 			{0x2Eu, 0x1Bu},
 883:.\Generated_Source\PSoC5/cyfitter_cfg.c **** 			{0x2Fu, 0x08u},
 884:.\Generated_Source\PSoC5/cyfitter_cfg.c **** 			{0x30u, 0x03u},
 885:.\Generated_Source\PSoC5/cyfitter_cfg.c **** 			{0x31u, 0x40u},
 886:.\Generated_Source\PSoC5/cyfitter_cfg.c **** 			{0x32u, 0x04u},
 887:.\Generated_Source\PSoC5/cyfitter_cfg.c **** 			{0x33u, 0x30u},
 888:.\Generated_Source\PSoC5/cyfitter_cfg.c **** 			{0x34u, 0x78u},
 889:.\Generated_Source\PSoC5/cyfitter_cfg.c **** 			{0x35u, 0x80u},
 890:.\Generated_Source\PSoC5/cyfitter_cfg.c **** 			{0x36u, 0x80u},
 891:.\Generated_Source\PSoC5/cyfitter_cfg.c **** 			{0x37u, 0x0Fu},
 892:.\Generated_Source\PSoC5/cyfitter_cfg.c **** 			{0x38u, 0x08u},
 893:.\Generated_Source\PSoC5/cyfitter_cfg.c **** 			{0x3Au, 0x20u},
 894:.\Generated_Source\PSoC5/cyfitter_cfg.c **** 			{0x3Bu, 0x80u},
 895:.\Generated_Source\PSoC5/cyfitter_cfg.c **** 			{0x3Fu, 0x10u},
 896:.\Generated_Source\PSoC5/cyfitter_cfg.c **** 			{0x54u, 0x18u},
 897:.\Generated_Source\PSoC5/cyfitter_cfg.c **** 			{0x56u, 0x04u},
 898:.\Generated_Source\PSoC5/cyfitter_cfg.c **** 			{0x58u, 0x04u},
 899:.\Generated_Source\PSoC5/cyfitter_cfg.c **** 			{0x59u, 0x04u},
 900:.\Generated_Source\PSoC5/cyfitter_cfg.c **** 			{0x5Bu, 0x04u},
 901:.\Generated_Source\PSoC5/cyfitter_cfg.c **** 			{0x5Cu, 0x01u},
ARM GAS  C:\DOCUME~1\ADMINI~1\LOCALS~1\Temp\ccEzm20X.s 			page 25


 902:.\Generated_Source\PSoC5/cyfitter_cfg.c **** 			{0x5Du, 0x10u},
 903:.\Generated_Source\PSoC5/cyfitter_cfg.c **** 			{0x5Fu, 0x01u},
 904:.\Generated_Source\PSoC5/cyfitter_cfg.c **** 			{0x80u, 0x04u},
 905:.\Generated_Source\PSoC5/cyfitter_cfg.c **** 			{0x81u, 0x01u},
 906:.\Generated_Source\PSoC5/cyfitter_cfg.c **** 			{0x83u, 0x02u},
 907:.\Generated_Source\PSoC5/cyfitter_cfg.c **** 			{0x86u, 0x2Fu},
 908:.\Generated_Source\PSoC5/cyfitter_cfg.c **** 			{0x8Bu, 0x10u},
 909:.\Generated_Source\PSoC5/cyfitter_cfg.c **** 			{0x8Cu, 0x1Cu},
 910:.\Generated_Source\PSoC5/cyfitter_cfg.c **** 			{0x8Eu, 0x01u},
 911:.\Generated_Source\PSoC5/cyfitter_cfg.c **** 			{0x91u, 0x04u},
 912:.\Generated_Source\PSoC5/cyfitter_cfg.c **** 			{0x9Du, 0x01u},
 913:.\Generated_Source\PSoC5/cyfitter_cfg.c **** 			{0x9Fu, 0x0Au},
 914:.\Generated_Source\PSoC5/cyfitter_cfg.c **** 			{0xA4u, 0x31u},
 915:.\Generated_Source\PSoC5/cyfitter_cfg.c **** 			{0xA6u, 0x06u},
 916:.\Generated_Source\PSoC5/cyfitter_cfg.c **** 			{0xA8u, 0x31u},
 917:.\Generated_Source\PSoC5/cyfitter_cfg.c **** 			{0xAAu, 0x0Au},
 918:.\Generated_Source\PSoC5/cyfitter_cfg.c **** 			{0xB0u, 0x07u},
 919:.\Generated_Source\PSoC5/cyfitter_cfg.c **** 			{0xB1u, 0x03u},
 920:.\Generated_Source\PSoC5/cyfitter_cfg.c **** 			{0xB2u, 0x0Eu},
 921:.\Generated_Source\PSoC5/cyfitter_cfg.c **** 			{0xB3u, 0x10u},
 922:.\Generated_Source\PSoC5/cyfitter_cfg.c **** 			{0xB4u, 0x30u},
 923:.\Generated_Source\PSoC5/cyfitter_cfg.c **** 			{0xB5u, 0x04u},
 924:.\Generated_Source\PSoC5/cyfitter_cfg.c **** 			{0xB7u, 0x08u},
 925:.\Generated_Source\PSoC5/cyfitter_cfg.c **** 			{0xB8u, 0x20u},
 926:.\Generated_Source\PSoC5/cyfitter_cfg.c **** 			{0xBAu, 0x0Au},
 927:.\Generated_Source\PSoC5/cyfitter_cfg.c **** 			{0xBEu, 0x10u},
 928:.\Generated_Source\PSoC5/cyfitter_cfg.c **** 			{0xBFu, 0x10u},
 929:.\Generated_Source\PSoC5/cyfitter_cfg.c **** 			{0xD6u, 0x08u},
 930:.\Generated_Source\PSoC5/cyfitter_cfg.c **** 			{0xD8u, 0x04u},
 931:.\Generated_Source\PSoC5/cyfitter_cfg.c **** 			{0xD9u, 0x04u},
 932:.\Generated_Source\PSoC5/cyfitter_cfg.c **** 			{0xDBu, 0x04u},
 933:.\Generated_Source\PSoC5/cyfitter_cfg.c **** 			{0xDCu, 0x01u},
 934:.\Generated_Source\PSoC5/cyfitter_cfg.c **** 			{0xDDu, 0x90u},
 935:.\Generated_Source\PSoC5/cyfitter_cfg.c **** 			{0xDFu, 0x01u},
 936:.\Generated_Source\PSoC5/cyfitter_cfg.c **** 			{0x03u, 0x26u},
 937:.\Generated_Source\PSoC5/cyfitter_cfg.c **** 			{0x04u, 0x68u},
 938:.\Generated_Source\PSoC5/cyfitter_cfg.c **** 			{0x05u, 0x10u},
 939:.\Generated_Source\PSoC5/cyfitter_cfg.c **** 			{0x06u, 0x40u},
 940:.\Generated_Source\PSoC5/cyfitter_cfg.c **** 			{0x09u, 0x08u},
 941:.\Generated_Source\PSoC5/cyfitter_cfg.c **** 			{0x0Au, 0x01u},
 942:.\Generated_Source\PSoC5/cyfitter_cfg.c **** 			{0x0Bu, 0x44u},
 943:.\Generated_Source\PSoC5/cyfitter_cfg.c **** 			{0x0Cu, 0x10u},
 944:.\Generated_Source\PSoC5/cyfitter_cfg.c **** 			{0x0Eu, 0x04u},
 945:.\Generated_Source\PSoC5/cyfitter_cfg.c **** 			{0x10u, 0x20u},
 946:.\Generated_Source\PSoC5/cyfitter_cfg.c **** 			{0x12u, 0x82u},
 947:.\Generated_Source\PSoC5/cyfitter_cfg.c **** 			{0x13u, 0x10u},
 948:.\Generated_Source\PSoC5/cyfitter_cfg.c **** 			{0x16u, 0x20u},
 949:.\Generated_Source\PSoC5/cyfitter_cfg.c **** 			{0x17u, 0x20u},
 950:.\Generated_Source\PSoC5/cyfitter_cfg.c **** 			{0x19u, 0x01u},
 951:.\Generated_Source\PSoC5/cyfitter_cfg.c **** 			{0x1Bu, 0xA8u},
 952:.\Generated_Source\PSoC5/cyfitter_cfg.c **** 			{0x1Cu, 0x40u},
 953:.\Generated_Source\PSoC5/cyfitter_cfg.c **** 			{0x1Du, 0x20u},
 954:.\Generated_Source\PSoC5/cyfitter_cfg.c **** 			{0x1Fu, 0x05u},
 955:.\Generated_Source\PSoC5/cyfitter_cfg.c **** 			{0x21u, 0x06u},
 956:.\Generated_Source\PSoC5/cyfitter_cfg.c **** 			{0x22u, 0x68u},
 957:.\Generated_Source\PSoC5/cyfitter_cfg.c **** 			{0x24u, 0x02u},
 958:.\Generated_Source\PSoC5/cyfitter_cfg.c **** 			{0x26u, 0x04u},
ARM GAS  C:\DOCUME~1\ADMINI~1\LOCALS~1\Temp\ccEzm20X.s 			page 26


 959:.\Generated_Source\PSoC5/cyfitter_cfg.c **** 			{0x27u, 0x48u},
 960:.\Generated_Source\PSoC5/cyfitter_cfg.c **** 			{0x29u, 0x20u},
 961:.\Generated_Source\PSoC5/cyfitter_cfg.c **** 			{0x2Au, 0x84u},
 962:.\Generated_Source\PSoC5/cyfitter_cfg.c **** 			{0x2Bu, 0x40u},
 963:.\Generated_Source\PSoC5/cyfitter_cfg.c **** 			{0x2Eu, 0x20u},
 964:.\Generated_Source\PSoC5/cyfitter_cfg.c **** 			{0x2Fu, 0x04u},
 965:.\Generated_Source\PSoC5/cyfitter_cfg.c **** 			{0x31u, 0x10u},
 966:.\Generated_Source\PSoC5/cyfitter_cfg.c **** 			{0x32u, 0x41u},
 967:.\Generated_Source\PSoC5/cyfitter_cfg.c **** 			{0x33u, 0x08u},
 968:.\Generated_Source\PSoC5/cyfitter_cfg.c **** 			{0x35u, 0x82u},
 969:.\Generated_Source\PSoC5/cyfitter_cfg.c **** 			{0x39u, 0x5Au},
 970:.\Generated_Source\PSoC5/cyfitter_cfg.c **** 			{0x3Cu, 0x10u},
 971:.\Generated_Source\PSoC5/cyfitter_cfg.c **** 			{0x3Du, 0x02u},
 972:.\Generated_Source\PSoC5/cyfitter_cfg.c **** 			{0x41u, 0x02u},
 973:.\Generated_Source\PSoC5/cyfitter_cfg.c **** 			{0x42u, 0x80u},
 974:.\Generated_Source\PSoC5/cyfitter_cfg.c **** 			{0x59u, 0x01u},
 975:.\Generated_Source\PSoC5/cyfitter_cfg.c **** 			{0x5Eu, 0x80u},
 976:.\Generated_Source\PSoC5/cyfitter_cfg.c **** 			{0x60u, 0x82u},
 977:.\Generated_Source\PSoC5/cyfitter_cfg.c **** 			{0x62u, 0x20u},
 978:.\Generated_Source\PSoC5/cyfitter_cfg.c **** 			{0x65u, 0x80u},
 979:.\Generated_Source\PSoC5/cyfitter_cfg.c **** 			{0x8Au, 0x40u},
 980:.\Generated_Source\PSoC5/cyfitter_cfg.c **** 			{0x8Cu, 0x21u},
 981:.\Generated_Source\PSoC5/cyfitter_cfg.c **** 			{0x8Eu, 0x40u},
 982:.\Generated_Source\PSoC5/cyfitter_cfg.c **** 			{0x90u, 0x28u},
 983:.\Generated_Source\PSoC5/cyfitter_cfg.c **** 			{0x91u, 0x93u},
 984:.\Generated_Source\PSoC5/cyfitter_cfg.c **** 			{0x92u, 0x06u},
 985:.\Generated_Source\PSoC5/cyfitter_cfg.c **** 			{0x93u, 0x04u},
 986:.\Generated_Source\PSoC5/cyfitter_cfg.c **** 			{0x94u, 0x10u},
 987:.\Generated_Source\PSoC5/cyfitter_cfg.c **** 			{0x95u, 0x04u},
 988:.\Generated_Source\PSoC5/cyfitter_cfg.c **** 			{0x96u, 0x60u},
 989:.\Generated_Source\PSoC5/cyfitter_cfg.c **** 			{0x97u, 0x0Au},
 990:.\Generated_Source\PSoC5/cyfitter_cfg.c **** 			{0x99u, 0x02u},
 991:.\Generated_Source\PSoC5/cyfitter_cfg.c **** 			{0x9Bu, 0x34u},
 992:.\Generated_Source\PSoC5/cyfitter_cfg.c **** 			{0x9Cu, 0xE0u},
 993:.\Generated_Source\PSoC5/cyfitter_cfg.c **** 			{0x9Du, 0x20u},
 994:.\Generated_Source\PSoC5/cyfitter_cfg.c **** 			{0x9Eu, 0x4Du},
 995:.\Generated_Source\PSoC5/cyfitter_cfg.c **** 			{0x9Fu, 0x09u},
 996:.\Generated_Source\PSoC5/cyfitter_cfg.c **** 			{0xA0u, 0x89u},
 997:.\Generated_Source\PSoC5/cyfitter_cfg.c **** 			{0xA1u, 0x04u},
 998:.\Generated_Source\PSoC5/cyfitter_cfg.c **** 			{0xA2u, 0x80u},
 999:.\Generated_Source\PSoC5/cyfitter_cfg.c **** 			{0xA3u, 0x06u},
1000:.\Generated_Source\PSoC5/cyfitter_cfg.c **** 			{0xA4u, 0x10u},
1001:.\Generated_Source\PSoC5/cyfitter_cfg.c **** 			{0xA5u, 0x02u},
1002:.\Generated_Source\PSoC5/cyfitter_cfg.c **** 			{0xA6u, 0x07u},
1003:.\Generated_Source\PSoC5/cyfitter_cfg.c **** 			{0xA7u, 0x60u},
1004:.\Generated_Source\PSoC5/cyfitter_cfg.c **** 			{0xB4u, 0xC0u},
1005:.\Generated_Source\PSoC5/cyfitter_cfg.c **** 			{0xC0u, 0xB7u},
1006:.\Generated_Source\PSoC5/cyfitter_cfg.c **** 			{0xC2u, 0x0Fu},
1007:.\Generated_Source\PSoC5/cyfitter_cfg.c **** 			{0xC4u, 0x6Fu},
1008:.\Generated_Source\PSoC5/cyfitter_cfg.c **** 			{0xCAu, 0x0Fu},
1009:.\Generated_Source\PSoC5/cyfitter_cfg.c **** 			{0xCCu, 0x9Fu},
1010:.\Generated_Source\PSoC5/cyfitter_cfg.c **** 			{0xCEu, 0xAFu},
1011:.\Generated_Source\PSoC5/cyfitter_cfg.c **** 			{0xD6u, 0x11u},
1012:.\Generated_Source\PSoC5/cyfitter_cfg.c **** 			{0xD8u, 0x1Du},
1013:.\Generated_Source\PSoC5/cyfitter_cfg.c **** 			{0xE0u, 0x20u},
1014:.\Generated_Source\PSoC5/cyfitter_cfg.c **** 			{0xE2u, 0x08u},
1015:.\Generated_Source\PSoC5/cyfitter_cfg.c **** 			{0xEAu, 0x10u},
ARM GAS  C:\DOCUME~1\ADMINI~1\LOCALS~1\Temp\ccEzm20X.s 			page 27


1016:.\Generated_Source\PSoC5/cyfitter_cfg.c **** 			{0xEEu, 0x01u},
1017:.\Generated_Source\PSoC5/cyfitter_cfg.c **** 			{0x03u, 0x10u},
1018:.\Generated_Source\PSoC5/cyfitter_cfg.c **** 			{0x05u, 0x08u},
1019:.\Generated_Source\PSoC5/cyfitter_cfg.c **** 			{0x07u, 0x65u},
1020:.\Generated_Source\PSoC5/cyfitter_cfg.c **** 			{0x09u, 0x06u},
1021:.\Generated_Source\PSoC5/cyfitter_cfg.c **** 			{0x0Bu, 0x60u},
1022:.\Generated_Source\PSoC5/cyfitter_cfg.c **** 			{0x0Du, 0x40u},
1023:.\Generated_Source\PSoC5/cyfitter_cfg.c **** 			{0x0Fu, 0x20u},
1024:.\Generated_Source\PSoC5/cyfitter_cfg.c **** 			{0x11u, 0x05u},
1025:.\Generated_Source\PSoC5/cyfitter_cfg.c **** 			{0x13u, 0x6Au},
1026:.\Generated_Source\PSoC5/cyfitter_cfg.c **** 			{0x15u, 0x60u},
1027:.\Generated_Source\PSoC5/cyfitter_cfg.c **** 			{0x17u, 0x02u},
1028:.\Generated_Source\PSoC5/cyfitter_cfg.c **** 			{0x19u, 0x20u},
1029:.\Generated_Source\PSoC5/cyfitter_cfg.c **** 			{0x1Bu, 0xC0u},
1030:.\Generated_Source\PSoC5/cyfitter_cfg.c **** 			{0x21u, 0x01u},
1031:.\Generated_Source\PSoC5/cyfitter_cfg.c **** 			{0x23u, 0x02u},
1032:.\Generated_Source\PSoC5/cyfitter_cfg.c **** 			{0x25u, 0x2Fu},
1033:.\Generated_Source\PSoC5/cyfitter_cfg.c **** 			{0x26u, 0x01u},
1034:.\Generated_Source\PSoC5/cyfitter_cfg.c **** 			{0x27u, 0x80u},
1035:.\Generated_Source\PSoC5/cyfitter_cfg.c **** 			{0x29u, 0x01u},
1036:.\Generated_Source\PSoC5/cyfitter_cfg.c **** 			{0x2Bu, 0x64u},
1037:.\Generated_Source\PSoC5/cyfitter_cfg.c **** 			{0x2Du, 0x61u},
1038:.\Generated_Source\PSoC5/cyfitter_cfg.c **** 			{0x2Eu, 0x02u},
1039:.\Generated_Source\PSoC5/cyfitter_cfg.c **** 			{0x2Fu, 0x02u},
1040:.\Generated_Source\PSoC5/cyfitter_cfg.c **** 			{0x32u, 0x01u},
1041:.\Generated_Source\PSoC5/cyfitter_cfg.c **** 			{0x33u, 0xE0u},
1042:.\Generated_Source\PSoC5/cyfitter_cfg.c **** 			{0x34u, 0x02u},
1043:.\Generated_Source\PSoC5/cyfitter_cfg.c **** 			{0x37u, 0x1Fu},
1044:.\Generated_Source\PSoC5/cyfitter_cfg.c **** 			{0x3Bu, 0x08u},
1045:.\Generated_Source\PSoC5/cyfitter_cfg.c **** 			{0x40u, 0x02u},
1046:.\Generated_Source\PSoC5/cyfitter_cfg.c **** 			{0x45u, 0x01u},
1047:.\Generated_Source\PSoC5/cyfitter_cfg.c **** 			{0x46u, 0x05u},
1048:.\Generated_Source\PSoC5/cyfitter_cfg.c **** 			{0x48u, 0x05u},
1049:.\Generated_Source\PSoC5/cyfitter_cfg.c **** 			{0x49u, 0xFFu},
1050:.\Generated_Source\PSoC5/cyfitter_cfg.c **** 			{0x4Au, 0x07u},
1051:.\Generated_Source\PSoC5/cyfitter_cfg.c **** 			{0x4Bu, 0xFFu},
1052:.\Generated_Source\PSoC5/cyfitter_cfg.c **** 			{0x4Cu, 0x40u},
1053:.\Generated_Source\PSoC5/cyfitter_cfg.c **** 			{0x4Du, 0x20u},
1054:.\Generated_Source\PSoC5/cyfitter_cfg.c **** 			{0x4Eu, 0xF0u},
1055:.\Generated_Source\PSoC5/cyfitter_cfg.c **** 			{0x4Fu, 0x05u},
1056:.\Generated_Source\PSoC5/cyfitter_cfg.c **** 			{0x50u, 0x08u},
1057:.\Generated_Source\PSoC5/cyfitter_cfg.c **** 			{0x56u, 0x08u},
1058:.\Generated_Source\PSoC5/cyfitter_cfg.c **** 			{0x58u, 0x04u},
1059:.\Generated_Source\PSoC5/cyfitter_cfg.c **** 			{0x59u, 0x04u},
1060:.\Generated_Source\PSoC5/cyfitter_cfg.c **** 			{0x5Au, 0x04u},
1061:.\Generated_Source\PSoC5/cyfitter_cfg.c **** 			{0x5Bu, 0x04u},
1062:.\Generated_Source\PSoC5/cyfitter_cfg.c **** 			{0x5Du, 0x91u},
1063:.\Generated_Source\PSoC5/cyfitter_cfg.c **** 			{0x5Fu, 0x01u},
1064:.\Generated_Source\PSoC5/cyfitter_cfg.c **** 			{0x60u, 0x40u},
1065:.\Generated_Source\PSoC5/cyfitter_cfg.c **** 			{0x61u, 0xA8u},
1066:.\Generated_Source\PSoC5/cyfitter_cfg.c **** 			{0x62u, 0x40u},
1067:.\Generated_Source\PSoC5/cyfitter_cfg.c **** 			{0x63u, 0x20u},
1068:.\Generated_Source\PSoC5/cyfitter_cfg.c **** 			{0x80u, 0x03u},
1069:.\Generated_Source\PSoC5/cyfitter_cfg.c **** 			{0x85u, 0xFFu},
1070:.\Generated_Source\PSoC5/cyfitter_cfg.c **** 			{0x86u, 0x01u},
1071:.\Generated_Source\PSoC5/cyfitter_cfg.c **** 			{0x88u, 0x40u},
1072:.\Generated_Source\PSoC5/cyfitter_cfg.c **** 			{0x89u, 0xA7u},
ARM GAS  C:\DOCUME~1\ADMINI~1\LOCALS~1\Temp\ccEzm20X.s 			page 28


1073:.\Generated_Source\PSoC5/cyfitter_cfg.c **** 			{0x8Au, 0x14u},
1074:.\Generated_Source\PSoC5/cyfitter_cfg.c **** 			{0x8Bu, 0x50u},
1075:.\Generated_Source\PSoC5/cyfitter_cfg.c **** 			{0x8Cu, 0x42u},
1076:.\Generated_Source\PSoC5/cyfitter_cfg.c **** 			{0x8Du, 0xA6u},
1077:.\Generated_Source\PSoC5/cyfitter_cfg.c **** 			{0x8Eu, 0x09u},
1078:.\Generated_Source\PSoC5/cyfitter_cfg.c **** 			{0x8Fu, 0x49u},
1079:.\Generated_Source\PSoC5/cyfitter_cfg.c **** 			{0x90u, 0x1Fu},
1080:.\Generated_Source\PSoC5/cyfitter_cfg.c **** 			{0x93u, 0x59u},
1081:.\Generated_Source\PSoC5/cyfitter_cfg.c **** 			{0x94u, 0x4Fu},
1082:.\Generated_Source\PSoC5/cyfitter_cfg.c **** 			{0x95u, 0x06u},
1083:.\Generated_Source\PSoC5/cyfitter_cfg.c **** 			{0x98u, 0x01u},
1084:.\Generated_Source\PSoC5/cyfitter_cfg.c **** 			{0x99u, 0x02u},
1085:.\Generated_Source\PSoC5/cyfitter_cfg.c **** 			{0x9Cu, 0x40u},
1086:.\Generated_Source\PSoC5/cyfitter_cfg.c **** 			{0x9Du, 0x20u},
1087:.\Generated_Source\PSoC5/cyfitter_cfg.c **** 			{0x9Eu, 0x0Bu},
1088:.\Generated_Source\PSoC5/cyfitter_cfg.c **** 			{0xA0u, 0x90u},
1089:.\Generated_Source\PSoC5/cyfitter_cfg.c **** 			{0xA2u, 0x0Bu},
1090:.\Generated_Source\PSoC5/cyfitter_cfg.c **** 			{0xA3u, 0x20u},
1091:.\Generated_Source\PSoC5/cyfitter_cfg.c **** 			{0xA4u, 0x48u},
1092:.\Generated_Source\PSoC5/cyfitter_cfg.c **** 			{0xA5u, 0xF9u},
1093:.\Generated_Source\PSoC5/cyfitter_cfg.c **** 			{0xA6u, 0x02u},
1094:.\Generated_Source\PSoC5/cyfitter_cfg.c **** 			{0xA7u, 0x06u},
1095:.\Generated_Source\PSoC5/cyfitter_cfg.c **** 			{0xA8u, 0x01u},
1096:.\Generated_Source\PSoC5/cyfitter_cfg.c **** 			{0xACu, 0x03u},
1097:.\Generated_Source\PSoC5/cyfitter_cfg.c **** 			{0xADu, 0x04u},
1098:.\Generated_Source\PSoC5/cyfitter_cfg.c **** 			{0xAEu, 0x20u},
1099:.\Generated_Source\PSoC5/cyfitter_cfg.c **** 			{0xB0u, 0x40u},
1100:.\Generated_Source\PSoC5/cyfitter_cfg.c **** 			{0xB1u, 0x46u},
1101:.\Generated_Source\PSoC5/cyfitter_cfg.c **** 			{0xB3u, 0x80u},
1102:.\Generated_Source\PSoC5/cyfitter_cfg.c **** 			{0xB4u, 0x1Fu},
1103:.\Generated_Source\PSoC5/cyfitter_cfg.c **** 			{0xB5u, 0x3Eu},
1104:.\Generated_Source\PSoC5/cyfitter_cfg.c **** 			{0xB6u, 0xE0u},
1105:.\Generated_Source\PSoC5/cyfitter_cfg.c **** 			{0xB7u, 0x07u},
1106:.\Generated_Source\PSoC5/cyfitter_cfg.c **** 			{0xB8u, 0x82u},
1107:.\Generated_Source\PSoC5/cyfitter_cfg.c **** 			{0xBBu, 0x22u},
1108:.\Generated_Source\PSoC5/cyfitter_cfg.c **** 			{0xBEu, 0x41u},
1109:.\Generated_Source\PSoC5/cyfitter_cfg.c **** 			{0xBFu, 0x04u},
1110:.\Generated_Source\PSoC5/cyfitter_cfg.c **** 			{0xD8u, 0x04u},
1111:.\Generated_Source\PSoC5/cyfitter_cfg.c **** 			{0xD9u, 0x04u},
1112:.\Generated_Source\PSoC5/cyfitter_cfg.c **** 			{0xDCu, 0x10u},
1113:.\Generated_Source\PSoC5/cyfitter_cfg.c **** 			{0xDFu, 0x01u},
1114:.\Generated_Source\PSoC5/cyfitter_cfg.c **** 			{0x01u, 0x61u},
1115:.\Generated_Source\PSoC5/cyfitter_cfg.c **** 			{0x03u, 0x11u},
1116:.\Generated_Source\PSoC5/cyfitter_cfg.c **** 			{0x08u, 0x10u},
1117:.\Generated_Source\PSoC5/cyfitter_cfg.c **** 			{0x09u, 0x02u},
1118:.\Generated_Source\PSoC5/cyfitter_cfg.c **** 			{0x0Au, 0x02u},
1119:.\Generated_Source\PSoC5/cyfitter_cfg.c **** 			{0x0Bu, 0x22u},
1120:.\Generated_Source\PSoC5/cyfitter_cfg.c **** 			{0x10u, 0x08u},
1121:.\Generated_Source\PSoC5/cyfitter_cfg.c **** 			{0x11u, 0x0Au},
1122:.\Generated_Source\PSoC5/cyfitter_cfg.c **** 			{0x12u, 0x01u},
1123:.\Generated_Source\PSoC5/cyfitter_cfg.c **** 			{0x13u, 0x08u},
1124:.\Generated_Source\PSoC5/cyfitter_cfg.c **** 			{0x14u, 0x21u},
1125:.\Generated_Source\PSoC5/cyfitter_cfg.c **** 			{0x18u, 0x08u},
1126:.\Generated_Source\PSoC5/cyfitter_cfg.c **** 			{0x19u, 0x22u},
1127:.\Generated_Source\PSoC5/cyfitter_cfg.c **** 			{0x1Bu, 0x40u},
1128:.\Generated_Source\PSoC5/cyfitter_cfg.c **** 			{0x1Cu, 0x10u},
1129:.\Generated_Source\PSoC5/cyfitter_cfg.c **** 			{0x1Du, 0x10u},
ARM GAS  C:\DOCUME~1\ADMINI~1\LOCALS~1\Temp\ccEzm20X.s 			page 29


1130:.\Generated_Source\PSoC5/cyfitter_cfg.c **** 			{0x1Eu, 0x20u},
1131:.\Generated_Source\PSoC5/cyfitter_cfg.c **** 			{0x21u, 0x10u},
1132:.\Generated_Source\PSoC5/cyfitter_cfg.c **** 			{0x22u, 0x44u},
1133:.\Generated_Source\PSoC5/cyfitter_cfg.c **** 			{0x23u, 0x40u},
1134:.\Generated_Source\PSoC5/cyfitter_cfg.c **** 			{0x27u, 0x21u},
1135:.\Generated_Source\PSoC5/cyfitter_cfg.c **** 			{0x29u, 0x90u},
1136:.\Generated_Source\PSoC5/cyfitter_cfg.c **** 			{0x2Au, 0x20u},
1137:.\Generated_Source\PSoC5/cyfitter_cfg.c **** 			{0x2Bu, 0xA0u},
1138:.\Generated_Source\PSoC5/cyfitter_cfg.c **** 			{0x2Du, 0x20u},
1139:.\Generated_Source\PSoC5/cyfitter_cfg.c **** 			{0x2Eu, 0x06u},
1140:.\Generated_Source\PSoC5/cyfitter_cfg.c **** 			{0x2Fu, 0x01u},
1141:.\Generated_Source\PSoC5/cyfitter_cfg.c **** 			{0x30u, 0x20u},
1142:.\Generated_Source\PSoC5/cyfitter_cfg.c **** 			{0x31u, 0x08u},
1143:.\Generated_Source\PSoC5/cyfitter_cfg.c **** 			{0x32u, 0x82u},
1144:.\Generated_Source\PSoC5/cyfitter_cfg.c **** 			{0x37u, 0x29u},
1145:.\Generated_Source\PSoC5/cyfitter_cfg.c **** 			{0x39u, 0x20u},
1146:.\Generated_Source\PSoC5/cyfitter_cfg.c **** 			{0x3Bu, 0x54u},
1147:.\Generated_Source\PSoC5/cyfitter_cfg.c **** 			{0x3Cu, 0x02u},
1148:.\Generated_Source\PSoC5/cyfitter_cfg.c **** 			{0x3Du, 0x20u},
1149:.\Generated_Source\PSoC5/cyfitter_cfg.c **** 			{0x3Eu, 0x88u},
1150:.\Generated_Source\PSoC5/cyfitter_cfg.c **** 			{0x45u, 0x20u},
1151:.\Generated_Source\PSoC5/cyfitter_cfg.c **** 			{0x4Du, 0x04u},
1152:.\Generated_Source\PSoC5/cyfitter_cfg.c **** 			{0x56u, 0x40u},
1153:.\Generated_Source\PSoC5/cyfitter_cfg.c **** 			{0x59u, 0x20u},
1154:.\Generated_Source\PSoC5/cyfitter_cfg.c **** 			{0x5Au, 0xD0u},
1155:.\Generated_Source\PSoC5/cyfitter_cfg.c **** 			{0x5Cu, 0x40u},
1156:.\Generated_Source\PSoC5/cyfitter_cfg.c **** 			{0x64u, 0x01u},
1157:.\Generated_Source\PSoC5/cyfitter_cfg.c **** 			{0x66u, 0x80u},
1158:.\Generated_Source\PSoC5/cyfitter_cfg.c **** 			{0x81u, 0x01u},
1159:.\Generated_Source\PSoC5/cyfitter_cfg.c **** 			{0x82u, 0x08u},
1160:.\Generated_Source\PSoC5/cyfitter_cfg.c **** 			{0x83u, 0x20u},
1161:.\Generated_Source\PSoC5/cyfitter_cfg.c **** 			{0x85u, 0x80u},
1162:.\Generated_Source\PSoC5/cyfitter_cfg.c **** 			{0x86u, 0x01u},
1163:.\Generated_Source\PSoC5/cyfitter_cfg.c **** 			{0x87u, 0x01u},
1164:.\Generated_Source\PSoC5/cyfitter_cfg.c **** 			{0x88u, 0x04u},
1165:.\Generated_Source\PSoC5/cyfitter_cfg.c **** 			{0x8Cu, 0x40u},
1166:.\Generated_Source\PSoC5/cyfitter_cfg.c **** 			{0x91u, 0x81u},
1167:.\Generated_Source\PSoC5/cyfitter_cfg.c **** 			{0x92u, 0x02u},
1168:.\Generated_Source\PSoC5/cyfitter_cfg.c **** 			{0x93u, 0x04u},
1169:.\Generated_Source\PSoC5/cyfitter_cfg.c **** 			{0x94u, 0x10u},
1170:.\Generated_Source\PSoC5/cyfitter_cfg.c **** 			{0x95u, 0x44u},
1171:.\Generated_Source\PSoC5/cyfitter_cfg.c **** 			{0x96u, 0x61u},
1172:.\Generated_Source\PSoC5/cyfitter_cfg.c **** 			{0x97u, 0x50u},
1173:.\Generated_Source\PSoC5/cyfitter_cfg.c **** 			{0x98u, 0x30u},
1174:.\Generated_Source\PSoC5/cyfitter_cfg.c **** 			{0x9Bu, 0x10u},
1175:.\Generated_Source\PSoC5/cyfitter_cfg.c **** 			{0x9Cu, 0x42u},
1176:.\Generated_Source\PSoC5/cyfitter_cfg.c **** 			{0x9Du, 0x20u},
1177:.\Generated_Source\PSoC5/cyfitter_cfg.c **** 			{0x9Eu, 0x4Du},
1178:.\Generated_Source\PSoC5/cyfitter_cfg.c **** 			{0x9Fu, 0x01u},
1179:.\Generated_Source\PSoC5/cyfitter_cfg.c **** 			{0xA0u, 0x89u},
1180:.\Generated_Source\PSoC5/cyfitter_cfg.c **** 			{0xA1u, 0x26u},
1181:.\Generated_Source\PSoC5/cyfitter_cfg.c **** 			{0xA2u, 0x80u},
1182:.\Generated_Source\PSoC5/cyfitter_cfg.c **** 			{0xA3u, 0xA4u},
1183:.\Generated_Source\PSoC5/cyfitter_cfg.c **** 			{0xA4u, 0x30u},
1184:.\Generated_Source\PSoC5/cyfitter_cfg.c **** 			{0xA5u, 0x08u},
1185:.\Generated_Source\PSoC5/cyfitter_cfg.c **** 			{0xA6u, 0x03u},
1186:.\Generated_Source\PSoC5/cyfitter_cfg.c **** 			{0xA7u, 0x40u},
ARM GAS  C:\DOCUME~1\ADMINI~1\LOCALS~1\Temp\ccEzm20X.s 			page 30


1187:.\Generated_Source\PSoC5/cyfitter_cfg.c **** 			{0xA9u, 0x01u},
1188:.\Generated_Source\PSoC5/cyfitter_cfg.c **** 			{0xB6u, 0x08u},
1189:.\Generated_Source\PSoC5/cyfitter_cfg.c **** 			{0xB7u, 0x40u},
1190:.\Generated_Source\PSoC5/cyfitter_cfg.c **** 			{0xC0u, 0x0Fu},
1191:.\Generated_Source\PSoC5/cyfitter_cfg.c **** 			{0xC2u, 0x0Fu},
1192:.\Generated_Source\PSoC5/cyfitter_cfg.c **** 			{0xC4u, 0xAFu},
1193:.\Generated_Source\PSoC5/cyfitter_cfg.c **** 			{0xCAu, 0xFBu},
1194:.\Generated_Source\PSoC5/cyfitter_cfg.c **** 			{0xCCu, 0xEFu},
1195:.\Generated_Source\PSoC5/cyfitter_cfg.c **** 			{0xCEu, 0xFEu},
1196:.\Generated_Source\PSoC5/cyfitter_cfg.c **** 			{0xD0u, 0x20u},
1197:.\Generated_Source\PSoC5/cyfitter_cfg.c **** 			{0xD6u, 0x10u},
1198:.\Generated_Source\PSoC5/cyfitter_cfg.c **** 			{0xD8u, 0x10u},
1199:.\Generated_Source\PSoC5/cyfitter_cfg.c **** 			{0xE0u, 0x43u},
1200:.\Generated_Source\PSoC5/cyfitter_cfg.c **** 			{0xE6u, 0x09u},
1201:.\Generated_Source\PSoC5/cyfitter_cfg.c **** 			{0xEAu, 0x01u},
1202:.\Generated_Source\PSoC5/cyfitter_cfg.c **** 			{0xEEu, 0x05u},
1203:.\Generated_Source\PSoC5/cyfitter_cfg.c **** 			{0x04u, 0x09u},
1204:.\Generated_Source\PSoC5/cyfitter_cfg.c **** 			{0x05u, 0x02u},
1205:.\Generated_Source\PSoC5/cyfitter_cfg.c **** 			{0x06u, 0x10u},
1206:.\Generated_Source\PSoC5/cyfitter_cfg.c **** 			{0x07u, 0x85u},
1207:.\Generated_Source\PSoC5/cyfitter_cfg.c **** 			{0x08u, 0x02u},
1208:.\Generated_Source\PSoC5/cyfitter_cfg.c **** 			{0x0Bu, 0xF0u},
1209:.\Generated_Source\PSoC5/cyfitter_cfg.c **** 			{0x0Cu, 0x24u},
1210:.\Generated_Source\PSoC5/cyfitter_cfg.c **** 			{0x0Du, 0x03u},
1211:.\Generated_Source\PSoC5/cyfitter_cfg.c **** 			{0x0Fu, 0x44u},
1212:.\Generated_Source\PSoC5/cyfitter_cfg.c **** 			{0x10u, 0x01u},
1213:.\Generated_Source\PSoC5/cyfitter_cfg.c **** 			{0x11u, 0x07u},
1214:.\Generated_Source\PSoC5/cyfitter_cfg.c **** 			{0x13u, 0x10u},
1215:.\Generated_Source\PSoC5/cyfitter_cfg.c **** 			{0x14u, 0x09u},
1216:.\Generated_Source\PSoC5/cyfitter_cfg.c **** 			{0x15u, 0x06u},
1217:.\Generated_Source\PSoC5/cyfitter_cfg.c **** 			{0x16u, 0x10u},
1218:.\Generated_Source\PSoC5/cyfitter_cfg.c **** 			{0x17u, 0x81u},
1219:.\Generated_Source\PSoC5/cyfitter_cfg.c **** 			{0x18u, 0x01u},
1220:.\Generated_Source\PSoC5/cyfitter_cfg.c **** 			{0x19u, 0x01u},
1221:.\Generated_Source\PSoC5/cyfitter_cfg.c **** 			{0x1Bu, 0x0Eu},
1222:.\Generated_Source\PSoC5/cyfitter_cfg.c **** 			{0x1Cu, 0x24u},
1223:.\Generated_Source\PSoC5/cyfitter_cfg.c **** 			{0x1Du, 0xF0u},
1224:.\Generated_Source\PSoC5/cyfitter_cfg.c **** 			{0x21u, 0xF0u},
1225:.\Generated_Source\PSoC5/cyfitter_cfg.c **** 			{0x22u, 0x01u},
1226:.\Generated_Source\PSoC5/cyfitter_cfg.c **** 			{0x24u, 0x01u},
1227:.\Generated_Source\PSoC5/cyfitter_cfg.c **** 			{0x27u, 0xF0u},
1228:.\Generated_Source\PSoC5/cyfitter_cfg.c **** 			{0x29u, 0x07u},
1229:.\Generated_Source\PSoC5/cyfitter_cfg.c **** 			{0x2Bu, 0x20u},
1230:.\Generated_Source\PSoC5/cyfitter_cfg.c **** 			{0x2Cu, 0x20u},
1231:.\Generated_Source\PSoC5/cyfitter_cfg.c **** 			{0x2Du, 0x01u},
1232:.\Generated_Source\PSoC5/cyfitter_cfg.c **** 			{0x2Fu, 0x08u},
1233:.\Generated_Source\PSoC5/cyfitter_cfg.c **** 			{0x32u, 0x1Cu},
1234:.\Generated_Source\PSoC5/cyfitter_cfg.c **** 			{0x33u, 0x0Fu},
1235:.\Generated_Source\PSoC5/cyfitter_cfg.c **** 			{0x34u, 0x03u},
1236:.\Generated_Source\PSoC5/cyfitter_cfg.c **** 			{0x36u, 0x20u},
1237:.\Generated_Source\PSoC5/cyfitter_cfg.c **** 			{0x37u, 0xF0u},
1238:.\Generated_Source\PSoC5/cyfitter_cfg.c **** 			{0x38u, 0xA8u},
1239:.\Generated_Source\PSoC5/cyfitter_cfg.c **** 			{0x3Bu, 0x08u},
1240:.\Generated_Source\PSoC5/cyfitter_cfg.c **** 			{0x3Eu, 0x14u},
1241:.\Generated_Source\PSoC5/cyfitter_cfg.c **** 			{0x3Fu, 0x40u},
1242:.\Generated_Source\PSoC5/cyfitter_cfg.c **** 			{0x54u, 0x20u},
1243:.\Generated_Source\PSoC5/cyfitter_cfg.c **** 			{0x56u, 0x04u},
ARM GAS  C:\DOCUME~1\ADMINI~1\LOCALS~1\Temp\ccEzm20X.s 			page 31


1244:.\Generated_Source\PSoC5/cyfitter_cfg.c **** 			{0x58u, 0x04u},
1245:.\Generated_Source\PSoC5/cyfitter_cfg.c **** 			{0x59u, 0x04u},
1246:.\Generated_Source\PSoC5/cyfitter_cfg.c **** 			{0x5Bu, 0x04u},
1247:.\Generated_Source\PSoC5/cyfitter_cfg.c **** 			{0x5Fu, 0x01u},
1248:.\Generated_Source\PSoC5/cyfitter_cfg.c **** 			{0x80u, 0x20u},
1249:.\Generated_Source\PSoC5/cyfitter_cfg.c **** 			{0x82u, 0x04u},
1250:.\Generated_Source\PSoC5/cyfitter_cfg.c **** 			{0x84u, 0x1Eu},
1251:.\Generated_Source\PSoC5/cyfitter_cfg.c **** 			{0x8Au, 0x30u},
1252:.\Generated_Source\PSoC5/cyfitter_cfg.c **** 			{0x8Cu, 0x20u},
1253:.\Generated_Source\PSoC5/cyfitter_cfg.c **** 			{0x8Eu, 0x02u},
1254:.\Generated_Source\PSoC5/cyfitter_cfg.c **** 			{0x92u, 0x28u},
1255:.\Generated_Source\PSoC5/cyfitter_cfg.c **** 			{0x9Au, 0x10u},
1256:.\Generated_Source\PSoC5/cyfitter_cfg.c **** 			{0x9Cu, 0x01u},
1257:.\Generated_Source\PSoC5/cyfitter_cfg.c **** 			{0x9Eu, 0x40u},
1258:.\Generated_Source\PSoC5/cyfitter_cfg.c **** 			{0xA0u, 0x01u},
1259:.\Generated_Source\PSoC5/cyfitter_cfg.c **** 			{0xA4u, 0x08u},
1260:.\Generated_Source\PSoC5/cyfitter_cfg.c **** 			{0xA6u, 0x10u},
1261:.\Generated_Source\PSoC5/cyfitter_cfg.c **** 			{0xACu, 0x7Eu},
1262:.\Generated_Source\PSoC5/cyfitter_cfg.c **** 			{0xB2u, 0x7Eu},
1263:.\Generated_Source\PSoC5/cyfitter_cfg.c **** 			{0xB4u, 0x01u},
1264:.\Generated_Source\PSoC5/cyfitter_cfg.c **** 			{0xB8u, 0x28u},
1265:.\Generated_Source\PSoC5/cyfitter_cfg.c **** 			{0xBEu, 0x10u},
1266:.\Generated_Source\PSoC5/cyfitter_cfg.c **** 			{0xC0u, 0x26u},
1267:.\Generated_Source\PSoC5/cyfitter_cfg.c **** 			{0xC5u, 0x25u},
1268:.\Generated_Source\PSoC5/cyfitter_cfg.c **** 			{0xC8u, 0x03u},
1269:.\Generated_Source\PSoC5/cyfitter_cfg.c **** 			{0xC9u, 0xFFu},
1270:.\Generated_Source\PSoC5/cyfitter_cfg.c **** 			{0xCAu, 0xFFu},
1271:.\Generated_Source\PSoC5/cyfitter_cfg.c **** 			{0xCBu, 0xFFu},
1272:.\Generated_Source\PSoC5/cyfitter_cfg.c **** 			{0xCCu, 0x42u},
1273:.\Generated_Source\PSoC5/cyfitter_cfg.c **** 			{0xCDu, 0xA0u},
1274:.\Generated_Source\PSoC5/cyfitter_cfg.c **** 			{0xCEu, 0x70u},
1275:.\Generated_Source\PSoC5/cyfitter_cfg.c **** 			{0xD0u, 0x08u},
1276:.\Generated_Source\PSoC5/cyfitter_cfg.c **** 			{0xD1u, 0x10u},
1277:.\Generated_Source\PSoC5/cyfitter_cfg.c **** 			{0xD8u, 0x04u},
1278:.\Generated_Source\PSoC5/cyfitter_cfg.c **** 			{0xDAu, 0x04u},
1279:.\Generated_Source\PSoC5/cyfitter_cfg.c **** 			{0xDFu, 0x01u},
1280:.\Generated_Source\PSoC5/cyfitter_cfg.c **** 			{0xE1u, 0x48u},
1281:.\Generated_Source\PSoC5/cyfitter_cfg.c **** 			{0xE2u, 0x40u},
1282:.\Generated_Source\PSoC5/cyfitter_cfg.c **** 			{0xE3u, 0x48u},
1283:.\Generated_Source\PSoC5/cyfitter_cfg.c **** 			{0xE4u, 0x80u},
1284:.\Generated_Source\PSoC5/cyfitter_cfg.c **** 			{0xE5u, 0x48u},
1285:.\Generated_Source\PSoC5/cyfitter_cfg.c **** 			{0xE6u, 0x80u},
1286:.\Generated_Source\PSoC5/cyfitter_cfg.c **** 			{0xE7u, 0x48u},
1287:.\Generated_Source\PSoC5/cyfitter_cfg.c **** 			{0x01u, 0x08u},
1288:.\Generated_Source\PSoC5/cyfitter_cfg.c **** 			{0x02u, 0x02u},
1289:.\Generated_Source\PSoC5/cyfitter_cfg.c **** 			{0x03u, 0x44u},
1290:.\Generated_Source\PSoC5/cyfitter_cfg.c **** 			{0x05u, 0x04u},
1291:.\Generated_Source\PSoC5/cyfitter_cfg.c **** 			{0x06u, 0x08u},
1292:.\Generated_Source\PSoC5/cyfitter_cfg.c **** 			{0x07u, 0x02u},
1293:.\Generated_Source\PSoC5/cyfitter_cfg.c **** 			{0x09u, 0x42u},
1294:.\Generated_Source\PSoC5/cyfitter_cfg.c **** 			{0x0Bu, 0x04u},
1295:.\Generated_Source\PSoC5/cyfitter_cfg.c **** 			{0x0Cu, 0x80u},
1296:.\Generated_Source\PSoC5/cyfitter_cfg.c **** 			{0x0Du, 0x0Au},
1297:.\Generated_Source\PSoC5/cyfitter_cfg.c **** 			{0x0Fu, 0x84u},
1298:.\Generated_Source\PSoC5/cyfitter_cfg.c **** 			{0x10u, 0x81u},
1299:.\Generated_Source\PSoC5/cyfitter_cfg.c **** 			{0x12u, 0x20u},
1300:.\Generated_Source\PSoC5/cyfitter_cfg.c **** 			{0x14u, 0x41u},
ARM GAS  C:\DOCUME~1\ADMINI~1\LOCALS~1\Temp\ccEzm20X.s 			page 32


1301:.\Generated_Source\PSoC5/cyfitter_cfg.c **** 			{0x17u, 0x04u},
1302:.\Generated_Source\PSoC5/cyfitter_cfg.c **** 			{0x18u, 0x14u},
1303:.\Generated_Source\PSoC5/cyfitter_cfg.c **** 			{0x1Cu, 0x28u},
1304:.\Generated_Source\PSoC5/cyfitter_cfg.c **** 			{0x1Eu, 0x02u},
1305:.\Generated_Source\PSoC5/cyfitter_cfg.c **** 			{0x1Fu, 0x40u},
1306:.\Generated_Source\PSoC5/cyfitter_cfg.c **** 			{0x25u, 0x40u},
1307:.\Generated_Source\PSoC5/cyfitter_cfg.c **** 			{0x26u, 0x04u},
1308:.\Generated_Source\PSoC5/cyfitter_cfg.c **** 			{0x27u, 0x12u},
1309:.\Generated_Source\PSoC5/cyfitter_cfg.c **** 			{0x2Cu, 0x01u},
1310:.\Generated_Source\PSoC5/cyfitter_cfg.c **** 			{0x2Fu, 0x68u},
1311:.\Generated_Source\PSoC5/cyfitter_cfg.c **** 			{0x36u, 0x82u},
1312:.\Generated_Source\PSoC5/cyfitter_cfg.c **** 			{0x37u, 0x14u},
1313:.\Generated_Source\PSoC5/cyfitter_cfg.c **** 			{0x3Cu, 0x10u},
1314:.\Generated_Source\PSoC5/cyfitter_cfg.c **** 			{0x3Fu, 0x84u},
1315:.\Generated_Source\PSoC5/cyfitter_cfg.c **** 			{0x40u, 0x04u},
1316:.\Generated_Source\PSoC5/cyfitter_cfg.c **** 			{0x48u, 0x84u},
1317:.\Generated_Source\PSoC5/cyfitter_cfg.c **** 			{0x49u, 0x08u},
1318:.\Generated_Source\PSoC5/cyfitter_cfg.c **** 			{0x5Cu, 0x02u},
1319:.\Generated_Source\PSoC5/cyfitter_cfg.c **** 			{0x5Du, 0x80u},
1320:.\Generated_Source\PSoC5/cyfitter_cfg.c **** 			{0x5Eu, 0x18u},
1321:.\Generated_Source\PSoC5/cyfitter_cfg.c **** 			{0x65u, 0x42u},
1322:.\Generated_Source\PSoC5/cyfitter_cfg.c **** 			{0x66u, 0x20u},
1323:.\Generated_Source\PSoC5/cyfitter_cfg.c **** 			{0x82u, 0x31u},
1324:.\Generated_Source\PSoC5/cyfitter_cfg.c **** 			{0x85u, 0x02u},
1325:.\Generated_Source\PSoC5/cyfitter_cfg.c **** 			{0x87u, 0x04u},
1326:.\Generated_Source\PSoC5/cyfitter_cfg.c **** 			{0x88u, 0x10u},
1327:.\Generated_Source\PSoC5/cyfitter_cfg.c **** 			{0x94u, 0x10u},
1328:.\Generated_Source\PSoC5/cyfitter_cfg.c **** 			{0x98u, 0x02u},
1329:.\Generated_Source\PSoC5/cyfitter_cfg.c **** 			{0x99u, 0x80u},
1330:.\Generated_Source\PSoC5/cyfitter_cfg.c **** 			{0x9Au, 0x28u},
1331:.\Generated_Source\PSoC5/cyfitter_cfg.c **** 			{0x9Bu, 0x04u},
1332:.\Generated_Source\PSoC5/cyfitter_cfg.c **** 			{0xA2u, 0x80u},
1333:.\Generated_Source\PSoC5/cyfitter_cfg.c **** 			{0xA3u, 0x40u},
1334:.\Generated_Source\PSoC5/cyfitter_cfg.c **** 			{0xA8u, 0x10u},
1335:.\Generated_Source\PSoC5/cyfitter_cfg.c **** 			{0xB5u, 0x80u},
1336:.\Generated_Source\PSoC5/cyfitter_cfg.c **** 			{0xB6u, 0x08u},
1337:.\Generated_Source\PSoC5/cyfitter_cfg.c **** 			{0xC0u, 0xEFu},
1338:.\Generated_Source\PSoC5/cyfitter_cfg.c **** 			{0xC2u, 0xFBu},
1339:.\Generated_Source\PSoC5/cyfitter_cfg.c **** 			{0xC4u, 0xBDu},
1340:.\Generated_Source\PSoC5/cyfitter_cfg.c **** 			{0xCAu, 0xF0u},
1341:.\Generated_Source\PSoC5/cyfitter_cfg.c **** 			{0xCCu, 0xF0u},
1342:.\Generated_Source\PSoC5/cyfitter_cfg.c **** 			{0xCEu, 0x70u},
1343:.\Generated_Source\PSoC5/cyfitter_cfg.c **** 			{0xD0u, 0x04u},
1344:.\Generated_Source\PSoC5/cyfitter_cfg.c **** 			{0xD2u, 0x04u},
1345:.\Generated_Source\PSoC5/cyfitter_cfg.c **** 			{0xD6u, 0xF0u},
1346:.\Generated_Source\PSoC5/cyfitter_cfg.c **** 			{0xD8u, 0xB0u},
1347:.\Generated_Source\PSoC5/cyfitter_cfg.c **** 			{0xE6u, 0x80u},
1348:.\Generated_Source\PSoC5/cyfitter_cfg.c **** 			{0xE8u, 0x10u},
1349:.\Generated_Source\PSoC5/cyfitter_cfg.c **** 			{0xEAu, 0x01u},
1350:.\Generated_Source\PSoC5/cyfitter_cfg.c **** 			{0xECu, 0x40u},
1351:.\Generated_Source\PSoC5/cyfitter_cfg.c **** 			{0xEEu, 0x04u},
1352:.\Generated_Source\PSoC5/cyfitter_cfg.c **** 			{0x8Cu, 0x02u},
1353:.\Generated_Source\PSoC5/cyfitter_cfg.c **** 			{0x8Eu, 0x80u},
1354:.\Generated_Source\PSoC5/cyfitter_cfg.c **** 			{0x9Au, 0x20u},
1355:.\Generated_Source\PSoC5/cyfitter_cfg.c **** 			{0x9Bu, 0x04u},
1356:.\Generated_Source\PSoC5/cyfitter_cfg.c **** 			{0xA3u, 0x40u},
1357:.\Generated_Source\PSoC5/cyfitter_cfg.c **** 			{0xB7u, 0x04u},
ARM GAS  C:\DOCUME~1\ADMINI~1\LOCALS~1\Temp\ccEzm20X.s 			page 33


1358:.\Generated_Source\PSoC5/cyfitter_cfg.c **** 			{0xE0u, 0x50u},
1359:.\Generated_Source\PSoC5/cyfitter_cfg.c **** 			{0xE2u, 0x08u},
1360:.\Generated_Source\PSoC5/cyfitter_cfg.c **** 			{0xECu, 0x10u},
1361:.\Generated_Source\PSoC5/cyfitter_cfg.c **** 			{0xEEu, 0x01u},
1362:.\Generated_Source\PSoC5/cyfitter_cfg.c **** 			{0x9Au, 0x20u},
1363:.\Generated_Source\PSoC5/cyfitter_cfg.c **** 			{0xA3u, 0x40u},
1364:.\Generated_Source\PSoC5/cyfitter_cfg.c **** 			{0xB2u, 0x20u},
1365:.\Generated_Source\PSoC5/cyfitter_cfg.c **** 			{0xB7u, 0x40u},
1366:.\Generated_Source\PSoC5/cyfitter_cfg.c **** 			{0xE6u, 0x01u},
1367:.\Generated_Source\PSoC5/cyfitter_cfg.c **** 			{0xEAu, 0x08u},
1368:.\Generated_Source\PSoC5/cyfitter_cfg.c **** 			{0xECu, 0xC0u},
1369:.\Generated_Source\PSoC5/cyfitter_cfg.c **** 			{0x88u, 0x40u},
1370:.\Generated_Source\PSoC5/cyfitter_cfg.c **** 			{0x9Cu, 0x40u},
1371:.\Generated_Source\PSoC5/cyfitter_cfg.c **** 			{0xA9u, 0x10u},
1372:.\Generated_Source\PSoC5/cyfitter_cfg.c **** 			{0xAAu, 0x04u},
1373:.\Generated_Source\PSoC5/cyfitter_cfg.c **** 			{0xAFu, 0x20u},
1374:.\Generated_Source\PSoC5/cyfitter_cfg.c **** 			{0xE8u, 0x01u},
1375:.\Generated_Source\PSoC5/cyfitter_cfg.c **** 			{0x01u, 0x03u},
1376:.\Generated_Source\PSoC5/cyfitter_cfg.c **** 			{0x05u, 0x3Fu},
1377:.\Generated_Source\PSoC5/cyfitter_cfg.c **** 			{0x09u, 0x0Eu},
1378:.\Generated_Source\PSoC5/cyfitter_cfg.c **** 			{0x0Bu, 0x21u},
1379:.\Generated_Source\PSoC5/cyfitter_cfg.c **** 			{0x0Du, 0x29u},
1380:.\Generated_Source\PSoC5/cyfitter_cfg.c **** 			{0x0Fu, 0x04u},
1381:.\Generated_Source\PSoC5/cyfitter_cfg.c **** 			{0x11u, 0x21u},
1382:.\Generated_Source\PSoC5/cyfitter_cfg.c **** 			{0x13u, 0x0Cu},
1383:.\Generated_Source\PSoC5/cyfitter_cfg.c **** 			{0x15u, 0x25u},
1384:.\Generated_Source\PSoC5/cyfitter_cfg.c **** 			{0x17u, 0x08u},
1385:.\Generated_Source\PSoC5/cyfitter_cfg.c **** 			{0x18u, 0x01u},
1386:.\Generated_Source\PSoC5/cyfitter_cfg.c **** 			{0x1Bu, 0x40u},
1387:.\Generated_Source\PSoC5/cyfitter_cfg.c **** 			{0x1Du, 0x10u},
1388:.\Generated_Source\PSoC5/cyfitter_cfg.c **** 			{0x21u, 0x21u},
1389:.\Generated_Source\PSoC5/cyfitter_cfg.c **** 			{0x25u, 0x02u},
1390:.\Generated_Source\PSoC5/cyfitter_cfg.c **** 			{0x26u, 0x02u},
1391:.\Generated_Source\PSoC5/cyfitter_cfg.c **** 			{0x29u, 0x0Cu},
1392:.\Generated_Source\PSoC5/cyfitter_cfg.c **** 			{0x2Bu, 0x03u},
1393:.\Generated_Source\PSoC5/cyfitter_cfg.c **** 			{0x2Du, 0x10u},
1394:.\Generated_Source\PSoC5/cyfitter_cfg.c **** 			{0x2Fu, 0x0Fu},
1395:.\Generated_Source\PSoC5/cyfitter_cfg.c **** 			{0x31u, 0x1Fu},
1396:.\Generated_Source\PSoC5/cyfitter_cfg.c **** 			{0x34u, 0x01u},
1397:.\Generated_Source\PSoC5/cyfitter_cfg.c **** 			{0x35u, 0x60u},
1398:.\Generated_Source\PSoC5/cyfitter_cfg.c **** 			{0x36u, 0x02u},
1399:.\Generated_Source\PSoC5/cyfitter_cfg.c **** 			{0x39u, 0x02u},
1400:.\Generated_Source\PSoC5/cyfitter_cfg.c **** 			{0x3Eu, 0x10u},
1401:.\Generated_Source\PSoC5/cyfitter_cfg.c **** 			{0x40u, 0x52u},
1402:.\Generated_Source\PSoC5/cyfitter_cfg.c **** 			{0x44u, 0x03u},
1403:.\Generated_Source\PSoC5/cyfitter_cfg.c **** 			{0x47u, 0xDBu},
1404:.\Generated_Source\PSoC5/cyfitter_cfg.c **** 			{0x48u, 0x30u},
1405:.\Generated_Source\PSoC5/cyfitter_cfg.c **** 			{0x49u, 0xFFu},
1406:.\Generated_Source\PSoC5/cyfitter_cfg.c **** 			{0x4Au, 0x7Fu},
1407:.\Generated_Source\PSoC5/cyfitter_cfg.c **** 			{0x4Bu, 0xFFu},
1408:.\Generated_Source\PSoC5/cyfitter_cfg.c **** 			{0x4Cu, 0x42u},
1409:.\Generated_Source\PSoC5/cyfitter_cfg.c **** 			{0x4Du, 0xA0u},
1410:.\Generated_Source\PSoC5/cyfitter_cfg.c **** 			{0x4Eu, 0x70u},
1411:.\Generated_Source\PSoC5/cyfitter_cfg.c **** 			{0x50u, 0x0Cu},
1412:.\Generated_Source\PSoC5/cyfitter_cfg.c **** 			{0x58u, 0x04u},
1413:.\Generated_Source\PSoC5/cyfitter_cfg.c **** 			{0x59u, 0x04u},
1414:.\Generated_Source\PSoC5/cyfitter_cfg.c **** 			{0x5Au, 0x04u},
ARM GAS  C:\DOCUME~1\ADMINI~1\LOCALS~1\Temp\ccEzm20X.s 			page 34


1415:.\Generated_Source\PSoC5/cyfitter_cfg.c **** 			{0x5Fu, 0x01u},
1416:.\Generated_Source\PSoC5/cyfitter_cfg.c **** 			{0x61u, 0x09u},
1417:.\Generated_Source\PSoC5/cyfitter_cfg.c **** 			{0x62u, 0x40u},
1418:.\Generated_Source\PSoC5/cyfitter_cfg.c **** 			{0x63u, 0x09u},
1419:.\Generated_Source\PSoC5/cyfitter_cfg.c **** 			{0x64u, 0x30u},
1420:.\Generated_Source\PSoC5/cyfitter_cfg.c **** 			{0x65u, 0x09u},
1421:.\Generated_Source\PSoC5/cyfitter_cfg.c **** 			{0x80u, 0x03u},
1422:.\Generated_Source\PSoC5/cyfitter_cfg.c **** 			{0x84u, 0x01u},
1423:.\Generated_Source\PSoC5/cyfitter_cfg.c **** 			{0x85u, 0x01u},
1424:.\Generated_Source\PSoC5/cyfitter_cfg.c **** 			{0x88u, 0x05u},
1425:.\Generated_Source\PSoC5/cyfitter_cfg.c **** 			{0x8Au, 0x78u},
1426:.\Generated_Source\PSoC5/cyfitter_cfg.c **** 			{0x8Cu, 0x22u},
1427:.\Generated_Source\PSoC5/cyfitter_cfg.c **** 			{0x8Eu, 0x05u},
1428:.\Generated_Source\PSoC5/cyfitter_cfg.c **** 			{0x8Fu, 0x02u},
1429:.\Generated_Source\PSoC5/cyfitter_cfg.c **** 			{0x90u, 0xFFu},
1430:.\Generated_Source\PSoC5/cyfitter_cfg.c **** 			{0x91u, 0x01u},
1431:.\Generated_Source\PSoC5/cyfitter_cfg.c **** 			{0x94u, 0x3Au},
1432:.\Generated_Source\PSoC5/cyfitter_cfg.c **** 			{0x96u, 0x04u},
1433:.\Generated_Source\PSoC5/cyfitter_cfg.c **** 			{0x98u, 0x01u},
1434:.\Generated_Source\PSoC5/cyfitter_cfg.c **** 			{0x99u, 0x01u},
1435:.\Generated_Source\PSoC5/cyfitter_cfg.c **** 			{0x9Cu, 0x10u},
1436:.\Generated_Source\PSoC5/cyfitter_cfg.c **** 			{0x9Eu, 0x07u},
1437:.\Generated_Source\PSoC5/cyfitter_cfg.c **** 			{0x9Fu, 0x02u},
1438:.\Generated_Source\PSoC5/cyfitter_cfg.c **** 			{0xA0u, 0xC0u},
1439:.\Generated_Source\PSoC5/cyfitter_cfg.c **** 			{0xA2u, 0x07u},
1440:.\Generated_Source\PSoC5/cyfitter_cfg.c **** 			{0xA4u, 0x08u},
1441:.\Generated_Source\PSoC5/cyfitter_cfg.c **** 			{0xA6u, 0x07u},
1442:.\Generated_Source\PSoC5/cyfitter_cfg.c **** 			{0xA8u, 0x01u},
1443:.\Generated_Source\PSoC5/cyfitter_cfg.c **** 			{0xACu, 0x03u},
1444:.\Generated_Source\PSoC5/cyfitter_cfg.c **** 			{0xB1u, 0x01u},
1445:.\Generated_Source\PSoC5/cyfitter_cfg.c **** 			{0xB4u, 0x7Fu},
1446:.\Generated_Source\PSoC5/cyfitter_cfg.c **** 			{0xB5u, 0x02u},
1447:.\Generated_Source\PSoC5/cyfitter_cfg.c **** 			{0xB6u, 0x80u},
1448:.\Generated_Source\PSoC5/cyfitter_cfg.c **** 			{0xB8u, 0x80u},
1449:.\Generated_Source\PSoC5/cyfitter_cfg.c **** 			{0xB9u, 0x08u},
1450:.\Generated_Source\PSoC5/cyfitter_cfg.c **** 			{0xBEu, 0x10u},
1451:.\Generated_Source\PSoC5/cyfitter_cfg.c **** 			{0xBFu, 0x14u},
1452:.\Generated_Source\PSoC5/cyfitter_cfg.c **** 			{0xD6u, 0x02u},
1453:.\Generated_Source\PSoC5/cyfitter_cfg.c **** 			{0xD7u, 0x12u},
1454:.\Generated_Source\PSoC5/cyfitter_cfg.c **** 			{0xD8u, 0x04u},
1455:.\Generated_Source\PSoC5/cyfitter_cfg.c **** 			{0xD9u, 0x04u},
1456:.\Generated_Source\PSoC5/cyfitter_cfg.c **** 			{0xDBu, 0x04u},
1457:.\Generated_Source\PSoC5/cyfitter_cfg.c **** 			{0xDCu, 0x10u},
1458:.\Generated_Source\PSoC5/cyfitter_cfg.c **** 			{0xDDu, 0x10u},
1459:.\Generated_Source\PSoC5/cyfitter_cfg.c **** 			{0xDFu, 0x01u},
1460:.\Generated_Source\PSoC5/cyfitter_cfg.c **** 			{0x01u, 0x01u},
1461:.\Generated_Source\PSoC5/cyfitter_cfg.c **** 			{0x02u, 0x04u},
1462:.\Generated_Source\PSoC5/cyfitter_cfg.c **** 			{0x03u, 0x11u},
1463:.\Generated_Source\PSoC5/cyfitter_cfg.c **** 			{0x08u, 0x10u},
1464:.\Generated_Source\PSoC5/cyfitter_cfg.c **** 			{0x09u, 0x42u},
1465:.\Generated_Source\PSoC5/cyfitter_cfg.c **** 			{0x0Au, 0x12u},
1466:.\Generated_Source\PSoC5/cyfitter_cfg.c **** 			{0x0Fu, 0x08u},
1467:.\Generated_Source\PSoC5/cyfitter_cfg.c **** 			{0x10u, 0x08u},
1468:.\Generated_Source\PSoC5/cyfitter_cfg.c **** 			{0x11u, 0x0Au},
1469:.\Generated_Source\PSoC5/cyfitter_cfg.c **** 			{0x12u, 0x01u},
1470:.\Generated_Source\PSoC5/cyfitter_cfg.c **** 			{0x13u, 0x08u},
1471:.\Generated_Source\PSoC5/cyfitter_cfg.c **** 			{0x16u, 0x20u},
ARM GAS  C:\DOCUME~1\ADMINI~1\LOCALS~1\Temp\ccEzm20X.s 			page 35


1472:.\Generated_Source\PSoC5/cyfitter_cfg.c **** 			{0x19u, 0xA0u},
1473:.\Generated_Source\PSoC5/cyfitter_cfg.c **** 			{0x1Du, 0x10u},
1474:.\Generated_Source\PSoC5/cyfitter_cfg.c **** 			{0x1Eu, 0x02u},
1475:.\Generated_Source\PSoC5/cyfitter_cfg.c **** 			{0x22u, 0x22u},
1476:.\Generated_Source\PSoC5/cyfitter_cfg.c **** 			{0x23u, 0x20u},
1477:.\Generated_Source\PSoC5/cyfitter_cfg.c **** 			{0x24u, 0x04u},
1478:.\Generated_Source\PSoC5/cyfitter_cfg.c **** 			{0x25u, 0x10u},
1479:.\Generated_Source\PSoC5/cyfitter_cfg.c **** 			{0x27u, 0x40u},
1480:.\Generated_Source\PSoC5/cyfitter_cfg.c **** 			{0x2Cu, 0x80u},
1481:.\Generated_Source\PSoC5/cyfitter_cfg.c **** 			{0x2Du, 0x80u},
1482:.\Generated_Source\PSoC5/cyfitter_cfg.c **** 			{0x2Eu, 0x18u},
1483:.\Generated_Source\PSoC5/cyfitter_cfg.c **** 			{0x30u, 0x02u},
1484:.\Generated_Source\PSoC5/cyfitter_cfg.c **** 			{0x32u, 0x50u},
1485:.\Generated_Source\PSoC5/cyfitter_cfg.c **** 			{0x35u, 0x20u},
1486:.\Generated_Source\PSoC5/cyfitter_cfg.c **** 			{0x37u, 0x49u},
1487:.\Generated_Source\PSoC5/cyfitter_cfg.c **** 			{0x39u, 0x84u},
1488:.\Generated_Source\PSoC5/cyfitter_cfg.c **** 			{0x3Du, 0xA1u},
1489:.\Generated_Source\PSoC5/cyfitter_cfg.c **** 			{0x3Eu, 0x04u},
1490:.\Generated_Source\PSoC5/cyfitter_cfg.c **** 			{0x44u, 0x04u},
1491:.\Generated_Source\PSoC5/cyfitter_cfg.c **** 			{0x46u, 0x20u},
1492:.\Generated_Source\PSoC5/cyfitter_cfg.c **** 			{0x4Fu, 0x80u},
1493:.\Generated_Source\PSoC5/cyfitter_cfg.c **** 			{0x54u, 0x01u},
1494:.\Generated_Source\PSoC5/cyfitter_cfg.c **** 			{0x56u, 0x0Bu},
1495:.\Generated_Source\PSoC5/cyfitter_cfg.c **** 			{0x5Au, 0x08u},
1496:.\Generated_Source\PSoC5/cyfitter_cfg.c **** 			{0x68u, 0x12u},
1497:.\Generated_Source\PSoC5/cyfitter_cfg.c **** 			{0x69u, 0x04u},
1498:.\Generated_Source\PSoC5/cyfitter_cfg.c **** 			{0x6Au, 0x20u},
1499:.\Generated_Source\PSoC5/cyfitter_cfg.c **** 			{0x70u, 0x20u},
1500:.\Generated_Source\PSoC5/cyfitter_cfg.c **** 			{0x71u, 0x08u},
1501:.\Generated_Source\PSoC5/cyfitter_cfg.c **** 			{0x72u, 0x01u},
1502:.\Generated_Source\PSoC5/cyfitter_cfg.c **** 			{0x7Cu, 0x04u},
1503:.\Generated_Source\PSoC5/cyfitter_cfg.c **** 			{0x7Fu, 0x10u},
1504:.\Generated_Source\PSoC5/cyfitter_cfg.c **** 			{0x81u, 0x10u},
1505:.\Generated_Source\PSoC5/cyfitter_cfg.c **** 			{0x83u, 0x40u},
1506:.\Generated_Source\PSoC5/cyfitter_cfg.c **** 			{0x84u, 0x02u},
1507:.\Generated_Source\PSoC5/cyfitter_cfg.c **** 			{0x86u, 0x20u},
1508:.\Generated_Source\PSoC5/cyfitter_cfg.c **** 			{0x88u, 0x01u},
1509:.\Generated_Source\PSoC5/cyfitter_cfg.c **** 			{0x8Fu, 0x20u},
1510:.\Generated_Source\PSoC5/cyfitter_cfg.c **** 			{0x91u, 0x81u},
1511:.\Generated_Source\PSoC5/cyfitter_cfg.c **** 			{0x92u, 0x9Eu},
1512:.\Generated_Source\PSoC5/cyfitter_cfg.c **** 			{0x96u, 0x21u},
1513:.\Generated_Source\PSoC5/cyfitter_cfg.c **** 			{0x97u, 0x20u},
1514:.\Generated_Source\PSoC5/cyfitter_cfg.c **** 			{0x98u, 0x14u},
1515:.\Generated_Source\PSoC5/cyfitter_cfg.c **** 			{0x9Au, 0x20u},
1516:.\Generated_Source\PSoC5/cyfitter_cfg.c **** 			{0x9Bu, 0x11u},
1517:.\Generated_Source\PSoC5/cyfitter_cfg.c **** 			{0x9Cu, 0x42u},
1518:.\Generated_Source\PSoC5/cyfitter_cfg.c **** 			{0x9Eu, 0x07u},
1519:.\Generated_Source\PSoC5/cyfitter_cfg.c **** 			{0xA0u, 0x88u},
1520:.\Generated_Source\PSoC5/cyfitter_cfg.c **** 			{0xA1u, 0x07u},
1521:.\Generated_Source\PSoC5/cyfitter_cfg.c **** 			{0xA3u, 0x44u},
1522:.\Generated_Source\PSoC5/cyfitter_cfg.c **** 			{0xA4u, 0x30u},
1523:.\Generated_Source\PSoC5/cyfitter_cfg.c **** 			{0xA5u, 0x18u},
1524:.\Generated_Source\PSoC5/cyfitter_cfg.c **** 			{0xA6u, 0x03u},
1525:.\Generated_Source\PSoC5/cyfitter_cfg.c **** 			{0xADu, 0x02u},
1526:.\Generated_Source\PSoC5/cyfitter_cfg.c **** 			{0xB1u, 0x02u},
1527:.\Generated_Source\PSoC5/cyfitter_cfg.c **** 			{0xB2u, 0x14u},
1528:.\Generated_Source\PSoC5/cyfitter_cfg.c **** 			{0xB4u, 0x04u},
ARM GAS  C:\DOCUME~1\ADMINI~1\LOCALS~1\Temp\ccEzm20X.s 			page 36


1529:.\Generated_Source\PSoC5/cyfitter_cfg.c **** 			{0xC0u, 0x0Fu},
1530:.\Generated_Source\PSoC5/cyfitter_cfg.c **** 			{0xC2u, 0x4Fu},
1531:.\Generated_Source\PSoC5/cyfitter_cfg.c **** 			{0xC4u, 0x2Fu},
1532:.\Generated_Source\PSoC5/cyfitter_cfg.c **** 			{0xCAu, 0xF0u},
1533:.\Generated_Source\PSoC5/cyfitter_cfg.c **** 			{0xCCu, 0xFDu},
1534:.\Generated_Source\PSoC5/cyfitter_cfg.c **** 			{0xCEu, 0xFAu},
1535:.\Generated_Source\PSoC5/cyfitter_cfg.c **** 			{0xD0u, 0x60u},
1536:.\Generated_Source\PSoC5/cyfitter_cfg.c **** 			{0xD2u, 0x10u},
1537:.\Generated_Source\PSoC5/cyfitter_cfg.c **** 			{0xD6u, 0x02u},
1538:.\Generated_Source\PSoC5/cyfitter_cfg.c **** 			{0xE0u, 0x02u},
1539:.\Generated_Source\PSoC5/cyfitter_cfg.c **** 			{0xE4u, 0x04u},
1540:.\Generated_Source\PSoC5/cyfitter_cfg.c **** 			{0xEAu, 0x08u},
1541:.\Generated_Source\PSoC5/cyfitter_cfg.c **** 			{0xECu, 0x08u},
1542:.\Generated_Source\PSoC5/cyfitter_cfg.c **** 			{0x88u, 0x40u},
1543:.\Generated_Source\PSoC5/cyfitter_cfg.c **** 			{0x9Cu, 0x40u},
1544:.\Generated_Source\PSoC5/cyfitter_cfg.c **** 			{0xA5u, 0x08u},
1545:.\Generated_Source\PSoC5/cyfitter_cfg.c **** 			{0xA6u, 0x02u},
1546:.\Generated_Source\PSoC5/cyfitter_cfg.c **** 			{0xADu, 0x40u},
1547:.\Generated_Source\PSoC5/cyfitter_cfg.c **** 			{0xB0u, 0x01u},
1548:.\Generated_Source\PSoC5/cyfitter_cfg.c **** 			{0xB3u, 0x20u},
1549:.\Generated_Source\PSoC5/cyfitter_cfg.c **** 			{0xB5u, 0x04u},
1550:.\Generated_Source\PSoC5/cyfitter_cfg.c **** 			{0xB7u, 0x48u},
1551:.\Generated_Source\PSoC5/cyfitter_cfg.c **** 			{0xE0u, 0x82u},
1552:.\Generated_Source\PSoC5/cyfitter_cfg.c **** 			{0xE4u, 0x14u},
1553:.\Generated_Source\PSoC5/cyfitter_cfg.c **** 			{0xE8u, 0x90u},
1554:.\Generated_Source\PSoC5/cyfitter_cfg.c **** 			{0xEAu, 0x08u},
1555:.\Generated_Source\PSoC5/cyfitter_cfg.c **** 			{0xECu, 0x20u},
1556:.\Generated_Source\PSoC5/cyfitter_cfg.c **** 			{0xA9u, 0x08u},
1557:.\Generated_Source\PSoC5/cyfitter_cfg.c **** 			{0xAAu, 0x02u},
1558:.\Generated_Source\PSoC5/cyfitter_cfg.c **** 			{0xE2u, 0x80u},
1559:.\Generated_Source\PSoC5/cyfitter_cfg.c **** 			{0x30u, 0x40u},
1560:.\Generated_Source\PSoC5/cyfitter_cfg.c **** 			{0x33u, 0x02u},
1561:.\Generated_Source\PSoC5/cyfitter_cfg.c **** 			{0x37u, 0x42u},
1562:.\Generated_Source\PSoC5/cyfitter_cfg.c **** 			{0x3Au, 0x40u},
1563:.\Generated_Source\PSoC5/cyfitter_cfg.c **** 			{0xCCu, 0xF0u},
1564:.\Generated_Source\PSoC5/cyfitter_cfg.c **** 			{0xCEu, 0x10u},
1565:.\Generated_Source\PSoC5/cyfitter_cfg.c **** 			{0x30u, 0x20u},
1566:.\Generated_Source\PSoC5/cyfitter_cfg.c **** 			{0x31u, 0x04u},
1567:.\Generated_Source\PSoC5/cyfitter_cfg.c **** 			{0x36u, 0x80u},
1568:.\Generated_Source\PSoC5/cyfitter_cfg.c **** 			{0x37u, 0x08u},
1569:.\Generated_Source\PSoC5/cyfitter_cfg.c **** 			{0x3Bu, 0x80u},
1570:.\Generated_Source\PSoC5/cyfitter_cfg.c **** 			{0x81u, 0x04u},
1571:.\Generated_Source\PSoC5/cyfitter_cfg.c **** 			{0x87u, 0x02u},
1572:.\Generated_Source\PSoC5/cyfitter_cfg.c **** 			{0x9Cu, 0x40u},
1573:.\Generated_Source\PSoC5/cyfitter_cfg.c **** 			{0x9Fu, 0x42u},
1574:.\Generated_Source\PSoC5/cyfitter_cfg.c **** 			{0xA7u, 0x02u},
1575:.\Generated_Source\PSoC5/cyfitter_cfg.c **** 			{0xAEu, 0x40u},
1576:.\Generated_Source\PSoC5/cyfitter_cfg.c **** 			{0xCCu, 0xF0u},
1577:.\Generated_Source\PSoC5/cyfitter_cfg.c **** 			{0xCEu, 0x10u},
1578:.\Generated_Source\PSoC5/cyfitter_cfg.c **** 			{0xE2u, 0x10u},
1579:.\Generated_Source\PSoC5/cyfitter_cfg.c **** 			{0xE6u, 0x80u},
1580:.\Generated_Source\PSoC5/cyfitter_cfg.c **** 			{0xEAu, 0x10u},
1581:.\Generated_Source\PSoC5/cyfitter_cfg.c **** 			{0x53u, 0x08u},
1582:.\Generated_Source\PSoC5/cyfitter_cfg.c **** 			{0x87u, 0x40u},
1583:.\Generated_Source\PSoC5/cyfitter_cfg.c **** 			{0x89u, 0x04u},
1584:.\Generated_Source\PSoC5/cyfitter_cfg.c **** 			{0x97u, 0x80u},
1585:.\Generated_Source\PSoC5/cyfitter_cfg.c **** 			{0x9Cu, 0x40u},
ARM GAS  C:\DOCUME~1\ADMINI~1\LOCALS~1\Temp\ccEzm20X.s 			page 37


1586:.\Generated_Source\PSoC5/cyfitter_cfg.c **** 			{0x9Fu, 0x08u},
1587:.\Generated_Source\PSoC5/cyfitter_cfg.c **** 			{0xA4u, 0x20u},
1588:.\Generated_Source\PSoC5/cyfitter_cfg.c **** 			{0xA6u, 0x80u},
1589:.\Generated_Source\PSoC5/cyfitter_cfg.c **** 			{0xABu, 0x02u},
1590:.\Generated_Source\PSoC5/cyfitter_cfg.c **** 			{0xB7u, 0x40u},
1591:.\Generated_Source\PSoC5/cyfitter_cfg.c **** 			{0xD4u, 0x20u},
1592:.\Generated_Source\PSoC5/cyfitter_cfg.c **** 			{0xE2u, 0x10u},
1593:.\Generated_Source\PSoC5/cyfitter_cfg.c **** 			{0xEEu, 0x80u},
1594:.\Generated_Source\PSoC5/cyfitter_cfg.c **** 			{0x84u, 0x40u},
1595:.\Generated_Source\PSoC5/cyfitter_cfg.c **** 			{0x8Cu, 0x20u},
1596:.\Generated_Source\PSoC5/cyfitter_cfg.c **** 			{0x95u, 0x04u},
1597:.\Generated_Source\PSoC5/cyfitter_cfg.c **** 			{0x9Cu, 0x40u},
1598:.\Generated_Source\PSoC5/cyfitter_cfg.c **** 			{0x9Fu, 0x08u},
1599:.\Generated_Source\PSoC5/cyfitter_cfg.c **** 			{0xA8u, 0x20u},
1600:.\Generated_Source\PSoC5/cyfitter_cfg.c **** 			{0xAAu, 0x80u},
1601:.\Generated_Source\PSoC5/cyfitter_cfg.c **** 			{0xABu, 0x08u},
1602:.\Generated_Source\PSoC5/cyfitter_cfg.c **** 			{0xE6u, 0x10u},
1603:.\Generated_Source\PSoC5/cyfitter_cfg.c **** 			{0xEAu, 0x80u},
1604:.\Generated_Source\PSoC5/cyfitter_cfg.c **** 			{0xEEu, 0xA0u},
1605:.\Generated_Source\PSoC5/cyfitter_cfg.c **** 			{0x7Du, 0x20u},
1606:.\Generated_Source\PSoC5/cyfitter_cfg.c **** 			{0xDEu, 0x01u},
1607:.\Generated_Source\PSoC5/cyfitter_cfg.c **** 			{0x83u, 0x02u},
1608:.\Generated_Source\PSoC5/cyfitter_cfg.c **** 			{0xA4u, 0x02u},
1609:.\Generated_Source\PSoC5/cyfitter_cfg.c **** 			{0xA5u, 0x10u},
1610:.\Generated_Source\PSoC5/cyfitter_cfg.c **** 			{0xACu, 0x02u},
1611:.\Generated_Source\PSoC5/cyfitter_cfg.c **** 			{0x46u, 0x10u},
1612:.\Generated_Source\PSoC5/cyfitter_cfg.c **** 			{0x87u, 0x10u},
1613:.\Generated_Source\PSoC5/cyfitter_cfg.c **** 			{0x9Cu, 0x02u},
1614:.\Generated_Source\PSoC5/cyfitter_cfg.c **** 			{0x9Fu, 0x02u},
1615:.\Generated_Source\PSoC5/cyfitter_cfg.c **** 			{0xA4u, 0x02u},
1616:.\Generated_Source\PSoC5/cyfitter_cfg.c **** 			{0xA5u, 0x10u},
1617:.\Generated_Source\PSoC5/cyfitter_cfg.c **** 			{0xA8u, 0x02u},
1618:.\Generated_Source\PSoC5/cyfitter_cfg.c **** 			{0xD0u, 0x01u},
1619:.\Generated_Source\PSoC5/cyfitter_cfg.c **** 			{0x08u, 0x02u},
1620:.\Generated_Source\PSoC5/cyfitter_cfg.c **** 			{0x0Bu, 0x01u},
1621:.\Generated_Source\PSoC5/cyfitter_cfg.c **** 			{0x0Cu, 0x02u},
1622:.\Generated_Source\PSoC5/cyfitter_cfg.c **** 			{0x0Fu, 0x08u},
1623:.\Generated_Source\PSoC5/cyfitter_cfg.c **** 			{0x13u, 0x12u},
1624:.\Generated_Source\PSoC5/cyfitter_cfg.c **** 			{0x16u, 0x40u},
1625:.\Generated_Source\PSoC5/cyfitter_cfg.c **** 			{0x97u, 0x11u},
1626:.\Generated_Source\PSoC5/cyfitter_cfg.c **** 			{0x9Cu, 0x02u},
1627:.\Generated_Source\PSoC5/cyfitter_cfg.c **** 			{0x9Eu, 0x10u},
1628:.\Generated_Source\PSoC5/cyfitter_cfg.c **** 			{0x9Fu, 0x02u},
1629:.\Generated_Source\PSoC5/cyfitter_cfg.c **** 			{0xA4u, 0x02u},
1630:.\Generated_Source\PSoC5/cyfitter_cfg.c **** 			{0xA5u, 0x10u},
1631:.\Generated_Source\PSoC5/cyfitter_cfg.c **** 			{0xA7u, 0x04u},
1632:.\Generated_Source\PSoC5/cyfitter_cfg.c **** 			{0xABu, 0x05u},
1633:.\Generated_Source\PSoC5/cyfitter_cfg.c **** 			{0xC2u, 0x0Fu},
1634:.\Generated_Source\PSoC5/cyfitter_cfg.c **** 			{0xC4u, 0x0Eu},
1635:.\Generated_Source\PSoC5/cyfitter_cfg.c **** 			{0x27u, 0x20u},
1636:.\Generated_Source\PSoC5/cyfitter_cfg.c **** 			{0x66u, 0x10u},
1637:.\Generated_Source\PSoC5/cyfitter_cfg.c **** 			{0x80u, 0x80u},
1638:.\Generated_Source\PSoC5/cyfitter_cfg.c **** 			{0x87u, 0x20u},
1639:.\Generated_Source\PSoC5/cyfitter_cfg.c **** 			{0x95u, 0x04u},
1640:.\Generated_Source\PSoC5/cyfitter_cfg.c **** 			{0x9Cu, 0x20u},
1641:.\Generated_Source\PSoC5/cyfitter_cfg.c **** 			{0xAFu, 0x08u},
1642:.\Generated_Source\PSoC5/cyfitter_cfg.c **** 			{0xC8u, 0x80u},
ARM GAS  C:\DOCUME~1\ADMINI~1\LOCALS~1\Temp\ccEzm20X.s 			page 38


1643:.\Generated_Source\PSoC5/cyfitter_cfg.c **** 			{0xD8u, 0x80u},
1644:.\Generated_Source\PSoC5/cyfitter_cfg.c **** 			{0xE0u, 0x40u},
1645:.\Generated_Source\PSoC5/cyfitter_cfg.c **** 			{0xE6u, 0x80u},
1646:.\Generated_Source\PSoC5/cyfitter_cfg.c **** 			{0xEAu, 0x10u},
1647:.\Generated_Source\PSoC5/cyfitter_cfg.c **** 			{0x11u, 0x04u},
1648:.\Generated_Source\PSoC5/cyfitter_cfg.c **** 			{0x14u, 0x20u},
1649:.\Generated_Source\PSoC5/cyfitter_cfg.c **** 			{0x7Cu, 0x80u},
1650:.\Generated_Source\PSoC5/cyfitter_cfg.c **** 			{0x95u, 0x04u},
1651:.\Generated_Source\PSoC5/cyfitter_cfg.c **** 			{0x98u, 0x80u},
1652:.\Generated_Source\PSoC5/cyfitter_cfg.c **** 			{0x9Cu, 0x20u},
1653:.\Generated_Source\PSoC5/cyfitter_cfg.c **** 			{0xAEu, 0x10u},
1654:.\Generated_Source\PSoC5/cyfitter_cfg.c **** 			{0xC4u, 0x30u},
1655:.\Generated_Source\PSoC5/cyfitter_cfg.c **** 			{0xDEu, 0x20u},
1656:.\Generated_Source\PSoC5/cyfitter_cfg.c **** 			{0xEAu, 0x40u},
1657:.\Generated_Source\PSoC5/cyfitter_cfg.c **** 			{0x81u, 0x02u},
1658:.\Generated_Source\PSoC5/cyfitter_cfg.c **** 			{0x86u, 0x10u},
1659:.\Generated_Source\PSoC5/cyfitter_cfg.c **** 			{0x8Du, 0x10u},
1660:.\Generated_Source\PSoC5/cyfitter_cfg.c **** 			{0x9Eu, 0x10u},
1661:.\Generated_Source\PSoC5/cyfitter_cfg.c **** 			{0xA5u, 0x10u},
1662:.\Generated_Source\PSoC5/cyfitter_cfg.c **** 			{0xAEu, 0x40u},
1663:.\Generated_Source\PSoC5/cyfitter_cfg.c **** 			{0xE4u, 0x08u},
1664:.\Generated_Source\PSoC5/cyfitter_cfg.c **** 			{0x10u, 0x40u},
1665:.\Generated_Source\PSoC5/cyfitter_cfg.c **** 			{0x75u, 0x02u},
1666:.\Generated_Source\PSoC5/cyfitter_cfg.c **** 			{0x88u, 0x40u},
1667:.\Generated_Source\PSoC5/cyfitter_cfg.c **** 			{0x99u, 0x02u},
1668:.\Generated_Source\PSoC5/cyfitter_cfg.c **** 			{0xC4u, 0x08u},
1669:.\Generated_Source\PSoC5/cyfitter_cfg.c **** 			{0xDEu, 0x04u},
1670:.\Generated_Source\PSoC5/cyfitter_cfg.c **** 			{0xE2u, 0x01u},
1671:.\Generated_Source\PSoC5/cyfitter_cfg.c **** 			{0x00u, 0x03u},
1672:.\Generated_Source\PSoC5/cyfitter_cfg.c **** 			{0x01u, 0x01u},
1673:.\Generated_Source\PSoC5/cyfitter_cfg.c **** 			{0x08u, 0x03u},
1674:.\Generated_Source\PSoC5/cyfitter_cfg.c **** 			{0x09u, 0x01u},
1675:.\Generated_Source\PSoC5/cyfitter_cfg.c **** 			{0x0Au, 0x03u},
1676:.\Generated_Source\PSoC5/cyfitter_cfg.c **** 			{0x0Bu, 0x01u},
1677:.\Generated_Source\PSoC5/cyfitter_cfg.c **** 			{0x0Cu, 0x01u},
1678:.\Generated_Source\PSoC5/cyfitter_cfg.c **** 			{0x10u, 0x03u},
1679:.\Generated_Source\PSoC5/cyfitter_cfg.c **** 			{0x1Au, 0x03u},
1680:.\Generated_Source\PSoC5/cyfitter_cfg.c **** 			{0x00u, 0xBFu},
1681:.\Generated_Source\PSoC5/cyfitter_cfg.c **** 			{0x01u, 0xAAu},
1682:.\Generated_Source\PSoC5/cyfitter_cfg.c **** 			{0x02u, 0x0Au},
1683:.\Generated_Source\PSoC5/cyfitter_cfg.c **** 		};
1684:.\Generated_Source\PSoC5/cyfitter_cfg.c **** 
1685:.\Generated_Source\PSoC5/cyfitter_cfg.c **** 
1686:.\Generated_Source\PSoC5/cyfitter_cfg.c **** 
1687:.\Generated_Source\PSoC5/cyfitter_cfg.c **** 		typedef struct {
1688:.\Generated_Source\PSoC5/cyfitter_cfg.c **** 			void CYFAR *address;
1689:.\Generated_Source\PSoC5/cyfitter_cfg.c **** 			uint16 size;
1690:.\Generated_Source\PSoC5/cyfitter_cfg.c **** 		} CYPACKED cfg_memset_t;
1691:.\Generated_Source\PSoC5/cyfitter_cfg.c **** 
1692:.\Generated_Source\PSoC5/cyfitter_cfg.c **** 		static const cfg_memset_t CYCODE cfg_memset_list [] = {
1693:.\Generated_Source\PSoC5/cyfitter_cfg.c **** 			/* address, size */
1694:.\Generated_Source\PSoC5/cyfitter_cfg.c **** 			{(void CYFAR *)(CYREG_TMR0_CFG0), 12u},
1695:.\Generated_Source\PSoC5/cyfitter_cfg.c **** 			{(void CYFAR *)(CYREG_PRT4_DR), 48u},
1696:.\Generated_Source\PSoC5/cyfitter_cfg.c **** 			{(void CYFAR *)(CYDEV_UCFG_B0_P0_U0_BASE), 4096u},
1697:.\Generated_Source\PSoC5/cyfitter_cfg.c **** 			{(void CYFAR *)(CYDEV_UCFG_B1_P2_U0_BASE), 2048u},
1698:.\Generated_Source\PSoC5/cyfitter_cfg.c **** 			{(void CYFAR *)(CYDEV_UCFG_DSI0_BASE), 2560u},
1699:.\Generated_Source\PSoC5/cyfitter_cfg.c **** 			{(void CYFAR *)(CYDEV_UCFG_DSI12_BASE), 512u},
ARM GAS  C:\DOCUME~1\ADMINI~1\LOCALS~1\Temp\ccEzm20X.s 			page 39


1700:.\Generated_Source\PSoC5/cyfitter_cfg.c **** 			{(void CYFAR *)(CYREG_BCTL0_MDCLK_EN), 32u},
1701:.\Generated_Source\PSoC5/cyfitter_cfg.c **** 		};
1702:.\Generated_Source\PSoC5/cyfitter_cfg.c **** 
1703:.\Generated_Source\PSoC5/cyfitter_cfg.c **** 		uint8 CYDATA i;
1704:.\Generated_Source\PSoC5/cyfitter_cfg.c **** 
1705:.\Generated_Source\PSoC5/cyfitter_cfg.c **** 		/* Zero out critical memory blocks before beginning configuration */
1706:.\Generated_Source\PSoC5/cyfitter_cfg.c **** 		for (i = 0u; i < (sizeof(cfg_memset_list)/sizeof(cfg_memset_list[0])); i++)
 464              		.loc 1 1706 0
 465 0100 AC42     		cmp	r4, r5
 466 0102 EBD1     		bne	.L33
 467 0104 0023     		movs	r3, #0
 468 0106 1946     		mov	r1, r3
 469              	.LVL28:
 470              	.L36:
 471              	.LBB23:
 472              	.LBB24:
 473              	.LBB25:
 474              		.loc 1 139 0
 475 0108 4A4A     		ldr	r2, .L38+68
 476 010a D058     		ldr	r0, [r2, r3]
 477              	.LVL29:
 478              		.loc 1 141 0
 479 010c 9032     		adds	r2, r2, #144
 480              		.loc 1 140 0
 481 010e 5FFA80FC 		uxtb	ip, r0
 482              	.LVL30:
 483              		.loc 1 141 0
 484 0112 20F0FF0E 		bic	lr, r0, #255
 485              	.LVL31:
 486 0116 02EB4102 		add	r2, r2, r1, lsl #1
 487 011a 6046     		mov	r0, ip
 488 011c 07E0     		b	.L34
 489              	.LVL32:
 490              	.L35:
 491              		.loc 1 144 0
 492 011e 12F8024C 		ldrb	r4, [r2, #-2]	@ zero_extendqisi2
 493 0122 12F8015C 		ldrb	r5, [r2, #-1]	@ zero_extendqisi2
 494              		.loc 1 146 0
 495 0126 0138     		subs	r0, r0, #1
 496              	.LVL33:
 497              		.loc 1 144 0
 498 0128 04F80E50 		strb	r5, [r4, lr]
 499              		.loc 1 146 0
 500 012c C0B2     		uxtb	r0, r0
 501              	.LVL34:
 502              	.L34:
 503 012e 0232     		adds	r2, r2, #2
 504              		.loc 1 142 0
 505 0130 0028     		cmp	r0, #0
 506 0132 F4D1     		bne	.L35
 507 0134 0433     		adds	r3, r3, #4
 508              	.LBE25:
 509              		.loc 1 137 0
 510 0136 902B     		cmp	r3, #144
 511              	.LBB26:
 512              		.loc 1 142 0
 513 0138 6144     		add	r1, r1, ip
ARM GAS  C:\DOCUME~1\ADMINI~1\LOCALS~1\Temp\ccEzm20X.s 			page 40


 514              	.LBE26:
 515              		.loc 1 137 0
 516 013a E5D1     		bne	.L36
 517              	.LVL35:
 518              	.LBE24:
 519              	.LBE23:
1707:.\Generated_Source\PSoC5/cyfitter_cfg.c **** 		{
1708:.\Generated_Source\PSoC5/cyfitter_cfg.c **** 			const cfg_memset_t CYCODE * CYDATA ms = &cfg_memset_list[i];
1709:.\Generated_Source\PSoC5/cyfitter_cfg.c **** 			CYMEMZERO(ms->address, (uint32)(ms->size));
1710:.\Generated_Source\PSoC5/cyfitter_cfg.c **** 		}
1711:.\Generated_Source\PSoC5/cyfitter_cfg.c **** 
1712:.\Generated_Source\PSoC5/cyfitter_cfg.c **** 		cfg_write_bytes32(cy_cfg_addr_table, cy_cfg_data_table);
1713:.\Generated_Source\PSoC5/cyfitter_cfg.c **** 
1714:.\Generated_Source\PSoC5/cyfitter_cfg.c **** 		/* Perform normal device configuration. Order is not critical for these items. */
1715:.\Generated_Source\PSoC5/cyfitter_cfg.c **** 		CY_SET_XTND_REG16((void CYFAR *)(CYREG_LUT2_CR), 0x0203u);
 520              		.loc 1 1715 0
 521 013c 3E4B     		ldr	r3, .L38+72
 522 013e 40F20321 		movw	r1, 515	@ movhi
 523              	.LVL36:
 524 0142 1980     		strh	r1, [r3, #0]	@ movhi
1716:.\Generated_Source\PSoC5/cyfitter_cfg.c **** 
1717:.\Generated_Source\PSoC5/cyfitter_cfg.c **** 		/* Enable digital routing */
1718:.\Generated_Source\PSoC5/cyfitter_cfg.c **** 		CY_SET_XTND_REG8((void CYFAR *)CYREG_BCTL0_BANK_CTL, CY_GET_XTND_REG8((void CYFAR *)CYREG_BCTL0_B
 525              		.loc 1 1718 0
 526 0144 3D4B     		ldr	r3, .L38+76
1719:.\Generated_Source\PSoC5/cyfitter_cfg.c **** 		CY_SET_XTND_REG8((void CYFAR *)CYREG_BCTL1_BANK_CTL, CY_GET_XTND_REG8((void CYFAR *)CYREG_BCTL1_B
1720:.\Generated_Source\PSoC5/cyfitter_cfg.c **** 
1721:.\Generated_Source\PSoC5/cyfitter_cfg.c **** 		/* Enable UDB array */
1722:.\Generated_Source\PSoC5/cyfitter_cfg.c **** 		CY_SET_XTND_REG8((void CYFAR *)CYREG_PM_ACT_CFG0, CY_GET_XTND_REG8((void CYFAR *)CYREG_PM_ACT_CFG
 527              		.loc 1 1722 0
 528 0146 3E4C     		ldr	r4, .L38+80
 529              		.loc 1 1718 0
 530 0148 1A78     		ldrb	r2, [r3, #0]	@ zero_extendqisi2
 531              	.LBE19:
1723:.\Generated_Source\PSoC5/cyfitter_cfg.c **** 		CY_SET_XTND_REG8((void CYFAR *)CYREG_PM_AVAIL_CR2, CY_GET_XTND_REG8((void CYFAR *)CYREG_PM_AVAIL_
1724:.\Generated_Source\PSoC5/cyfitter_cfg.c **** 	}
1725:.\Generated_Source\PSoC5/cyfitter_cfg.c **** 
1726:.\Generated_Source\PSoC5/cyfitter_cfg.c **** 	/* Perform second pass device configuration. These items must be configured in specific order afte
1727:.\Generated_Source\PSoC5/cyfitter_cfg.c **** 	CYCONFIGCPYCODE((void CYFAR *)(CYREG_PRT0_DM0), (const void CYCODE *)(BS_IOPINS0_0_VAL), 8u);
 532              		.loc 1 1727 0
 533 014a 3E48     		ldr	r0, .L38+84
 534              	.LBB27:
 535              		.loc 1 1718 0
 536 014c 42F00202 		orr	r2, r2, #2
 537 0150 1A70     		strb	r2, [r3, #0]
 538              		.loc 1 1719 0
 539 0152 1033     		adds	r3, r3, #16
 540 0154 1A78     		ldrb	r2, [r3, #0]	@ zero_extendqisi2
 541              	.LBE27:
 542              		.loc 1 1727 0
 543 0156 3C49     		ldr	r1, .L38+88
 544              	.LBB28:
 545              		.loc 1 1719 0
 546 0158 42F00202 		orr	r2, r2, #2
 547 015c 1A70     		strb	r2, [r3, #0]
 548              		.loc 1 1722 0
 549 015e 2378     		ldrb	r3, [r4, #0]	@ zero_extendqisi2
ARM GAS  C:\DOCUME~1\ADMINI~1\LOCALS~1\Temp\ccEzm20X.s 			page 41


 550 0160 43F04003 		orr	r3, r3, #64
 551 0164 2370     		strb	r3, [r4, #0]
 552              		.loc 1 1723 0
 553 0166 394B     		ldr	r3, .L38+92
 554 0168 1A78     		ldrb	r2, [r3, #0]	@ zero_extendqisi2
 555 016a 42F01002 		orr	r2, r2, #16
 556 016e 1A70     		strb	r2, [r3, #0]
 557              	.LBE28:
 558              		.loc 1 1727 0
 559 0170 0822     		movs	r2, #8
 560 0172 FFF7FEFF 		bl	CYCONFIGCPYCODE
 561              	.LVL37:
1728:.\Generated_Source\PSoC5/cyfitter_cfg.c **** 	CYCONFIGCPYCODE((void CYFAR *)(CYREG_PRT12_DR), (const void CYCODE *)(BS_IOPINS0_7_VAL), 10u);
 562              		.loc 1 1728 0
 563 0176 0A22     		movs	r2, #10
 564 0178 3548     		ldr	r0, .L38+96
 565 017a 3649     		ldr	r1, .L38+100
 566 017c FFF7FEFF 		bl	CYCONFIGCPYCODE
1729:.\Generated_Source\PSoC5/cyfitter_cfg.c **** 	CYCONFIGCPYCODE((void CYFAR *)(CYREG_PRT15_DR), (const void CYCODE *)(BS_IOPINS0_8_VAL), 10u);
 567              		.loc 1 1729 0
 568 0180 0A22     		movs	r2, #10
 569 0182 3548     		ldr	r0, .L38+104
 570 0184 3549     		ldr	r1, .L38+108
 571 0186 FFF7FEFF 		bl	CYCONFIGCPYCODE
1730:.\Generated_Source\PSoC5/cyfitter_cfg.c **** 	CYCONFIGCPYCODE((void CYFAR *)(CYREG_PRT1_DM0), (const void CYCODE *)(BS_IOPINS0_1_VAL), 8u);
 572              		.loc 1 1730 0
 573 018a 0822     		movs	r2, #8
 574 018c 3448     		ldr	r0, .L38+112
 575 018e 3549     		ldr	r1, .L38+116
 576 0190 FFF7FEFF 		bl	CYCONFIGCPYCODE
1731:.\Generated_Source\PSoC5/cyfitter_cfg.c **** 	CYCONFIGCPYCODE((void CYFAR *)(CYREG_PRT2_DR), (const void CYCODE *)(BS_IOPINS0_2_VAL), 10u);
 577              		.loc 1 1731 0
 578 0194 0A22     		movs	r2, #10
 579 0196 3448     		ldr	r0, .L38+120
 580 0198 3449     		ldr	r1, .L38+124
 581 019a FFF7FEFF 		bl	CYCONFIGCPYCODE
1732:.\Generated_Source\PSoC5/cyfitter_cfg.c **** 	CYCONFIGCPYCODE((void CYFAR *)(CYREG_PRT3_DM0), (const void CYCODE *)(BS_IOPINS0_3_VAL), 8u);
 582              		.loc 1 1732 0
 583 019e 0822     		movs	r2, #8
 584 01a0 3348     		ldr	r0, .L38+128
 585 01a2 3449     		ldr	r1, .L38+132
 586 01a4 FFF7FEFF 		bl	CYCONFIGCPYCODE
1733:.\Generated_Source\PSoC5/cyfitter_cfg.c **** 
1734:.\Generated_Source\PSoC5/cyfitter_cfg.c **** 	/* Switch Boost to the precision bandgap reference from its internal reference */
1735:.\Generated_Source\PSoC5/cyfitter_cfg.c **** 	CY_SET_REG8((void CYXDATA *)CYDEV_BOOST_CR2, (CY_GET_REG8((void CYXDATA *)CYDEV_BOOST_CR2) | 0x08u
 587              		.loc 1 1735 0
 588 01a8 334B     		ldr	r3, .L38+136
 589              	.LBB29:
 590              	.LBB31:
 591              		.loc 1 96 0
 592 01aa 3448     		ldr	r0, .L38+140
 593              	.LBE31:
 594              	.LBE29:
 595              		.loc 1 1735 0
 596 01ac 1A78     		ldrb	r2, [r3, #0]	@ zero_extendqisi2
 597 01ae 42F00802 		orr	r2, r2, #8
 598 01b2 1A70     		strb	r2, [r3, #0]
ARM GAS  C:\DOCUME~1\ADMINI~1\LOCALS~1\Temp\ccEzm20X.s 			page 42


 599              	.LBB33:
 600              	.LBB34:
 601              		.loc 1 247 0
 602 01b4 324B     		ldr	r3, .L38+144
 603              		.loc 1 248 0
 604 01b6 334A     		ldr	r2, .L38+148
 605              		.loc 1 247 0
 606 01b8 1B78     		ldrb	r3, [r3, #0]	@ zero_extendqisi2
 607              		.loc 1 248 0
 608 01ba 03F00701 		and	r1, r3, #7
 609              	.LVL38:
 610 01be 1170     		strb	r1, [r2, #0]
 611              		.loc 1 249 0
 612 01c0 1B09     		lsrs	r3, r3, #4
 613              	.LVL39:
 614 01c2 0132     		adds	r2, r2, #1
 615 01c4 1370     		strb	r3, [r2, #0]
 616              		.loc 1 250 0
 617 01c6 304B     		ldr	r3, .L38+152
 618 01c8 2022     		movs	r2, #32
 619 01ca 1A70     		strb	r2, [r3, #0]
 620              		.loc 1 251 0
 621 01cc 183A     		subs	r2, r2, #24
 622 01ce 2D33     		adds	r3, r3, #45
 623 01d0 1A70     		strb	r2, [r3, #0]
 624              		.loc 1 252 0
 625 01d2 2E4B     		ldr	r3, .L38+156
 626 01d4 063A     		subs	r2, r2, #6
 627 01d6 1A70     		strb	r2, [r3, #0]
 628              		.loc 1 253 0
 629 01d8 2D4B     		ldr	r3, .L38+160
 630 01da 0232     		adds	r2, r2, #2
 631 01dc 1A70     		strb	r2, [r3, #0]
 632              		.loc 1 254 0
 633 01de 2D4B     		ldr	r3, .L38+164
 634 01e0 4032     		adds	r2, r2, #64
 635 01e2 1A70     		strb	r2, [r3, #0]
 636              	.LBE34:
 637              	.LBE33:
 638              	.LBB35:
 639              	.LBB30:
 640              		.loc 1 96 0
 641 01e4 2146     		mov	r1, r4
 642 01e6 363A     		subs	r2, r2, #54
 643              	.LBE30:
 644              	.LBE35:
1736:.\Generated_Source\PSoC5/cyfitter_cfg.c **** 
1737:.\Generated_Source\PSoC5/cyfitter_cfg.c **** 	/* Perform basic analog initialization to defaults */
1738:.\Generated_Source\PSoC5/cyfitter_cfg.c **** 	AnalogSetDefault();
1739:.\Generated_Source\PSoC5/cyfitter_cfg.c **** 
1740:.\Generated_Source\PSoC5/cyfitter_cfg.c **** 	/* Configure alternate active mode */
1741:.\Generated_Source\PSoC5/cyfitter_cfg.c **** 	CYCONFIGCPY((void CYFAR *)CYDEV_PM_STBY_BASE, (const void CYFAR *)CYDEV_PM_ACT_BASE, 14u);
1742:.\Generated_Source\PSoC5/cyfitter_cfg.c **** }
 645              		.loc 1 1742 0
 646 01e8 BDE87040 		pop	{r4, r5, r6, lr}
 647              	.LBB36:
 648              	.LBB32:
ARM GAS  C:\DOCUME~1\ADMINI~1\LOCALS~1\Temp\ccEzm20X.s 			page 43


 649              		.loc 1 96 0
 650 01ec FFF7FEBF 		b	memcpy
 651              	.L39:
 652              		.align	2
 653              	.L38:
 654 01f0 00480040 		.word	1073760256
 655 01f4 80400040 		.word	1073758336
 656 01f8 82400040 		.word	1073758338
 657 01fc 8C400040 		.word	1073758348
 658 0200 20000000 		.word	.LANCHOR0+32
 659 0204 00410040 		.word	1073758464
 660 0208 00430040 		.word	1073758976
 661 020c 00420040 		.word	1073758720
 662 0210 0F010049 		.word	1224737039
 663 0214 A1460040 		.word	1073759905
 664 0218 22420040 		.word	1073758754
 665 021c 25420040 		.word	1073758757
 666 0220 04400040 		.word	1073758212
 667 0224 06400040 		.word	1073758214
 668 0228 01400040 		.word	1073758209
 669 022c A2430040 		.word	1073759138
 670 0230 24000000 		.word	.LANCHOR0+36
 671 0234 50000000 		.word	.LANCHOR0+80
 672 0238 4C580040 		.word	1073764428
 673 023c 03500140 		.word	1073827843
 674 0240 A0430040 		.word	1073759136
 675 0244 02510040 		.word	1073762562
 676 0248 140A0000 		.word	.LANCHOR0+2580
 677 024c C2430040 		.word	1073759170
 678 0250 C0510040 		.word	1073762752
 679 0254 1C0A0000 		.word	.LANCHOR0+2588
 680 0258 F0510040 		.word	1073762800
 681 025c 280A0000 		.word	.LANCHOR0+2600
 682 0260 12510040 		.word	1073762578
 683 0264 340A0000 		.word	.LANCHOR0+2612
 684 0268 20510040 		.word	1073762592
 685 026c 3C0A0000 		.word	.LANCHOR0+2620
 686 0270 32510040 		.word	1073762610
 687 0274 480A0000 		.word	.LANCHOR0+2632
 688 0278 22430040 		.word	1073759010
 689 027c B0430040 		.word	1073759152
 690 0280 CF010049 		.word	1224737231
 691 0284 6E580040 		.word	1073764462
 692 0288 D35A0040 		.word	1073765075
 693 028c 42580040 		.word	1073764418
 694 0290 A7430040 		.word	1073759143
 695 0294 76580040 		.word	1073764470
 696              	.LBE32:
 697              	.LBE36:
 698              		.cfi_endproc
 699              	.LFE11:
 700              		.size	cyfitter_cfg, .-cyfitter_cfg
 701              		.global	AMux__addrTable
 702              		.global	AMux__maskTable
 703              		.global	ADC_Voltage_Target_AMux__addrTable
 704              		.global	ADC_Voltage_Target_AMux__maskTable
 705              		.section	.rodata
ARM GAS  C:\DOCUME~1\ADMINI~1\LOCALS~1\Temp\ccEzm20X.s 			page 44


 706              		.align	2
 707              		.set	.LANCHOR0,. + 0
 708              		.type	AMux__addrTable, %object
 709              		.size	AMux__addrTable, 16
 710              	AMux__addrTable:
 711 0000 D45A0040 		.word	1073765076
 712 0004 24430040 		.word	1073759012
 713 0008 1D510040 		.word	1073762589
 714 000c 585B0040 		.word	1073765208
 715              		.type	AMux__maskTable, %object
 716              		.size	AMux__maskTable, 4
 717              	AMux__maskTable:
 718 0010 08       		.byte	8
 719 0011 00       		.byte	0
 720 0012 80       		.byte	-128
 721 0013 08       		.byte	8
 722              		.type	ADC_Voltage_Target_AMux__addrTable, %object
 723              		.size	ADC_Voltage_Target_AMux__addrTable, 8
 724              	ADC_Voltage_Target_AMux__addrTable:
 725 0014 035B0040 		.word	1073765123
 726 0018 035B0040 		.word	1073765123
 727              		.type	ADC_Voltage_Target_AMux__maskTable, %object
 728              		.size	ADC_Voltage_Target_AMux__maskTable, 2
 729              	ADC_Voltage_Target_AMux__maskTable:
 730 001c 40       		.byte	64
 731 001d 40       		.byte	64
 732 001e 0000     		.space	2
 733              		.type	BS_CYDEV_CLKDIST_ACFG0_CFG0_VAL.2021, %object
 734              		.size	BS_CYDEV_CLKDIST_ACFG0_CFG0_VAL.2021, 4
 735              	BS_CYDEV_CLKDIST_ACFG0_CFG0_VAL.2021:
 736 0020 C7       		.byte	-57
 737 0021 00       		.byte	0
 738 0022 18       		.byte	24
 739 0023 01       		.byte	1
 740              		.type	cfg_memset_list.2149, %object
 741              		.size	cfg_memset_list.2149, 42
 742              	cfg_memset_list.2149:
 743 0024 004F0040 		.word	1073762048
 744 0028 0C00     		.short	12
 745 002a 40510040 		.4byte	1073762624
 746 002e 3000     		.short	48
 747 0030 00000140 		.word	1073807360
 748 0034 0010     		.short	4096
 749 0036 00140140 		.4byte	1073812480
 750 003a 0008     		.short	2048
 751 003c 00400140 		.word	1073823744
 752 0040 000A     		.short	2560
 753 0042 004C0140 		.4byte	1073826816
 754 0046 0002     		.short	512
 755 0048 00500140 		.word	1073827840
 756 004c 2000     		.short	32
 757 004e 0000     		.space	2
 758              		.type	cy_cfg_addr_table.2143, %object
 759              		.size	cy_cfg_addr_table.2143, 144
 760              	cy_cfg_addr_table.2143:
 761 0050 01450040 		.word	1073759489
 762 0054 024F0040 		.word	1073762050
ARM GAS  C:\DOCUME~1\ADMINI~1\LOCALS~1\Temp\ccEzm20X.s 			page 45


 763 0058 07520040 		.word	1073762823
 764 005c 04640040 		.word	1073767428
 765 0060 02650040 		.word	1073767682
 766 0064 5C000140 		.word	1073807452
 767 0068 35010140 		.word	1073807669
 768 006c 5F020140 		.word	1073807967
 769 0070 59030140 		.word	1073808217
 770 0074 55040140 		.word	1073808469
 771 0078 51050140 		.word	1073808721
 772 007c 61060140 		.word	1073808993
 773 0080 59070140 		.word	1073809241
 774 0084 54080140 		.word	1073809492
 775 0088 41090140 		.word	1073809729
 776 008c 0A0B0140 		.word	1073810186
 777 0090 070D0140 		.word	1073810695
 778 0094 06150140 		.word	1073812742
 779 0098 55160140 		.word	1073813077
 780 009c 52170140 		.word	1073813330
 781 00a0 0E190140 		.word	1073813774
 782 00a4 031B0140 		.word	1073814275
 783 00a8 06400140 		.word	1073823750
 784 00ac 10410140 		.word	1073824016
 785 00b0 0D420140 		.word	1073824269
 786 00b4 0B430140 		.word	1073824523
 787 00b8 02440140 		.word	1073824770
 788 00bc 04450140 		.word	1073825028
 789 00c0 08460140 		.word	1073825288
 790 00c4 10470140 		.word	1073825552
 791 00c8 0C480140 		.word	1073825804
 792 00cc 0A490140 		.word	1073826058
 793 00d0 074C0140 		.word	1073826823
 794 00d4 074D0140 		.word	1073827079
 795 00d8 09500140 		.word	1073827849
 796 00dc 03510140 		.word	1073828099
 797              		.type	cy_cfg_data_table.2144, %object
 798              		.size	cy_cfg_data_table.2144, 2354
 799              	cy_cfg_data_table.2144:
 800 00e0 7E       		.byte	126
 801 00e1 02       		.byte	2
 802 00e2 01       		.byte	1
 803 00e3 30       		.byte	48
 804 00e4 0A       		.byte	10
 805 00e5 36       		.byte	54
 806 00e6 04       		.byte	4
 807 00e7 F0       		.byte	-16
 808 00e8 0C       		.byte	12
 809 00e9 40       		.byte	64
 810 00ea 14       		.byte	20
 811 00eb 13       		.byte	19
 812 00ec 1C       		.byte	28
 813 00ed 0C       		.byte	12
 814 00ee 60       		.byte	96
 815 00ef 82       		.byte	-126
 816 00f0 61       		.byte	97
 817 00f1 81       		.byte	-127
 818 00f2 7C       		.byte	124
 819 00f3 40       		.byte	64
ARM GAS  C:\DOCUME~1\ADMINI~1\LOCALS~1\Temp\ccEzm20X.s 			page 46


 820 00f4 29       		.byte	41
 821 00f5 0F       		.byte	15
 822 00f6 39       		.byte	57
 823 00f7 08       		.byte	8
 824 00f8 82       		.byte	-126
 825 00f9 0F       		.byte	15
 826 00fa 84       		.byte	-124
 827 00fb 38       		.byte	56
 828 00fc 26       		.byte	38
 829 00fd 04       		.byte	4
 830 00fe 87       		.byte	-121
 831 00ff 72       		.byte	114
 832 0100 00       		.byte	0
 833 0101 14       		.byte	20
 834 0102 02       		.byte	2
 835 0103 49       		.byte	73
 836 0104 03       		.byte	3
 837 0105 08       		.byte	8
 838 0106 05       		.byte	5
 839 0107 3D       		.byte	61
 840 0108 07       		.byte	7
 841 0109 C2       		.byte	-62
 842 010a 08       		.byte	8
 843 010b 1F       		.byte	31
 844 010c 09       		.byte	9
 845 010d 40       		.byte	64
 846 010e 0B       		.byte	11
 847 010f 1D       		.byte	29
 848 0110 0C       		.byte	12
 849 0111 01       		.byte	1
 850 0112 0D       		.byte	13
 851 0113 92       		.byte	-110
 852 0114 0E       		.byte	14
 853 0115 26       		.byte	38
 854 0116 0F       		.byte	15
 855 0117 60       		.byte	96
 856 0118 11       		.byte	17
 857 0119 E2       		.byte	-30
 858 011a 14       		.byte	20
 859 011b 1F       		.byte	31
 860 011c 15       		.byte	21
 861 011d 01       		.byte	1
 862 011e 19       		.byte	25
 863 011f 01       		.byte	1
 864 0120 1C       		.byte	28
 865 0121 0A       		.byte	10
 866 0122 1E       		.byte	30
 867 0123 51       		.byte	81
 868 0124 1F       		.byte	31
 869 0125 02       		.byte	2
 870 0126 21       		.byte	33
 871 0127 0D       		.byte	13
 872 0128 27       		.byte	39
 873 0129 FF       		.byte	-1
 874 012a 29       		.byte	41
 875 012b 5D       		.byte	93
 876 012c 2B       		.byte	43
ARM GAS  C:\DOCUME~1\ADMINI~1\LOCALS~1\Temp\ccEzm20X.s 			page 47


 877 012d A2       		.byte	-94
 878 012e 2D       		.byte	45
 879 012f 04       		.byte	4
 880 0130 2F       		.byte	47
 881 0131 E0       		.byte	-32
 882 0132 30       		.byte	48
 883 0133 07       		.byte	7
 884 0134 34       		.byte	52
 885 0135 60       		.byte	96
 886 0136 36       		.byte	54
 887 0137 18       		.byte	24
 888 0138 37       		.byte	55
 889 0139 FF       		.byte	-1
 890 013a 3E       		.byte	62
 891 013b 10       		.byte	16
 892 013c 3F       		.byte	63
 893 013d 40       		.byte	64
 894 013e 40       		.byte	64
 895 013f 35       		.byte	53
 896 0140 41       		.byte	65
 897 0141 06       		.byte	6
 898 0142 42       		.byte	66
 899 0143 04       		.byte	4
 900 0144 44       		.byte	68
 901 0145 02       		.byte	2
 902 0146 46       		.byte	70
 903 0147 0C       		.byte	12
 904 0148 47       		.byte	71
 905 0149 E0       		.byte	-32
 906 014a 48       		.byte	72
 907 014b 24       		.byte	36
 908 014c 49       		.byte	73
 909 014d FF       		.byte	-1
 910 014e 4A       		.byte	74
 911 014f FF       		.byte	-1
 912 0150 4B       		.byte	75
 913 0151 FF       		.byte	-1
 914 0152 4C       		.byte	76
 915 0153 62       		.byte	98
 916 0154 4D       		.byte	77
 917 0155 A0       		.byte	-96
 918 0156 4E       		.byte	78
 919 0157 F0       		.byte	-16
 920 0158 4F       		.byte	79
 921 0159 41       		.byte	65
 922 015a 50       		.byte	80
 923 015b 0C       		.byte	12
 924 015c 52       		.byte	82
 925 015d F6       		.byte	-10
 926 015e 58       		.byte	88
 927 015f 04       		.byte	4
 928 0160 59       		.byte	89
 929 0161 04       		.byte	4
 930 0162 5A       		.byte	90
 931 0163 04       		.byte	4
 932 0164 5B       		.byte	91
 933 0165 04       		.byte	4
ARM GAS  C:\DOCUME~1\ADMINI~1\LOCALS~1\Temp\ccEzm20X.s 			page 48


 934 0166 5C       		.byte	92
 935 0167 01       		.byte	1
 936 0168 5D       		.byte	93
 937 0169 01       		.byte	1
 938 016a 5F       		.byte	95
 939 016b 01       		.byte	1
 940 016c 66       		.byte	102
 941 016d 40       		.byte	64
 942 016e 67       		.byte	103
 943 016f 02       		.byte	2
 944 0170 69       		.byte	105
 945 0171 10       		.byte	16
 946 0172 6A       		.byte	106
 947 0173 30       		.byte	48
 948 0174 6B       		.byte	107
 949 0175 10       		.byte	16
 950 0176 6D       		.byte	109
 951 0177 10       		.byte	16
 952 0178 6E       		.byte	110
 953 0179 10       		.byte	16
 954 017a 6F       		.byte	111
 955 017b 12       		.byte	18
 956 017c 80       		.byte	-128
 957 017d 01       		.byte	1
 958 017e 82       		.byte	-126
 959 017f 06       		.byte	6
 960 0180 83       		.byte	-125
 961 0181 04       		.byte	4
 962 0182 87       		.byte	-121
 963 0183 01       		.byte	1
 964 0184 8A       		.byte	-118
 965 0185 13       		.byte	19
 966 0186 90       		.byte	-112
 967 0187 08       		.byte	8
 968 0188 93       		.byte	-109
 969 0189 02       		.byte	2
 970 018a 94       		.byte	-108
 971 018b 12       		.byte	18
 972 018c 96       		.byte	-106
 973 018d 01       		.byte	1
 974 018e 97       		.byte	-105
 975 018f 03       		.byte	3
 976 0190 9A       		.byte	-102
 977 0191 13       		.byte	19
 978 0192 9C       		.byte	-100
 979 0193 01       		.byte	1
 980 0194 9E       		.byte	-98
 981 0195 32       		.byte	50
 982 0196 A2       		.byte	-94
 983 0197 08       		.byte	8
 984 0198 A6       		.byte	-90
 985 0199 13       		.byte	19
 986 019a A7       		.byte	-89
 987 019b 01       		.byte	1
 988 019c AB       		.byte	-85
 989 019d 01       		.byte	1
 990 019e AC       		.byte	-84
ARM GAS  C:\DOCUME~1\ADMINI~1\LOCALS~1\Temp\ccEzm20X.s 			page 49


 991 019f 09       		.byte	9
 992 01a0 AE       		.byte	-82
 993 01a1 04       		.byte	4
 994 01a2 B0       		.byte	-80
 995 01a3 07       		.byte	7
 996 01a4 B2       		.byte	-78
 997 01a5 20       		.byte	32
 998 01a6 B3       		.byte	-77
 999 01a7 07       		.byte	7
 1000 01a8 B4       		.byte	-76
 1001 01a9 10       		.byte	16
 1002 01aa B6       		.byte	-74
 1003 01ab 08       		.byte	8
 1004 01ac BA       		.byte	-70
 1005 01ad 02       		.byte	2
 1006 01ae BB       		.byte	-69
 1007 01af 08       		.byte	8
 1008 01b0 BE       		.byte	-66
 1009 01b1 10       		.byte	16
 1010 01b2 D8       		.byte	-40
 1011 01b3 04       		.byte	4
 1012 01b4 D9       		.byte	-39
 1013 01b5 04       		.byte	4
 1014 01b6 DF       		.byte	-33
 1015 01b7 01       		.byte	1
 1016 01b8 00       		.byte	0
 1017 01b9 21       		.byte	33
 1018 01ba 03       		.byte	3
 1019 01bb 02       		.byte	2
 1020 01bc 04       		.byte	4
 1021 01bd 10       		.byte	16
 1022 01be 05       		.byte	5
 1023 01bf 01       		.byte	1
 1024 01c0 0A       		.byte	10
 1025 01c1 22       		.byte	34
 1026 01c2 0E       		.byte	14
 1027 01c3 2A       		.byte	42
 1028 01c4 0F       		.byte	15
 1029 01c5 80       		.byte	-128
 1030 01c6 14       		.byte	20
 1031 01c7 21       		.byte	33
 1032 01c8 15       		.byte	21
 1033 01c9 01       		.byte	1
 1034 01ca 18       		.byte	24
 1035 01cb 04       		.byte	4
 1036 01cc 1A       		.byte	26
 1037 01cd 02       		.byte	2
 1038 01ce 1B       		.byte	27
 1039 01cf 02       		.byte	2
 1040 01d0 1D       		.byte	29
 1041 01d1 21       		.byte	33
 1042 01d2 1E       		.byte	30
 1043 01d3 21       		.byte	33
 1044 01d4 20       		.byte	32
 1045 01d5 02       		.byte	2
 1046 01d6 24       		.byte	36
 1047 01d7 20       		.byte	32
ARM GAS  C:\DOCUME~1\ADMINI~1\LOCALS~1\Temp\ccEzm20X.s 			page 50


 1048 01d8 25       		.byte	37
 1049 01d9 04       		.byte	4
 1050 01da 26       		.byte	38
 1051 01db 08       		.byte	8
 1052 01dc 28       		.byte	40
 1053 01dd 02       		.byte	2
 1054 01de 29       		.byte	41
 1055 01df 20       		.byte	32
 1056 01e0 2A       		.byte	42
 1057 01e1 09       		.byte	9
 1058 01e2 2D       		.byte	45
 1059 01e3 25       		.byte	37
 1060 01e4 2E       		.byte	46
 1061 01e5 01       		.byte	1
 1062 01e6 30       		.byte	48
 1063 01e7 89       		.byte	-119
 1064 01e8 31       		.byte	49
 1065 01e9 12       		.byte	18
 1066 01ea 34       		.byte	52
 1067 01eb 01       		.byte	1
 1068 01ec 36       		.byte	54
 1069 01ed 08       		.byte	8
 1070 01ee 38       		.byte	56
 1071 01ef A0       		.byte	-96
 1072 01f0 39       		.byte	57
 1073 01f1 05       		.byte	5
 1074 01f2 3A       		.byte	58
 1075 01f3 04       		.byte	4
 1076 01f4 3C       		.byte	60
 1077 01f5 02       		.byte	2
 1078 01f6 3E       		.byte	62
 1079 01f7 08       		.byte	8
 1080 01f8 40       		.byte	64
 1081 01f9 04       		.byte	4
 1082 01fa 41       		.byte	65
 1083 01fb 04       		.byte	4
 1084 01fc 42       		.byte	66
 1085 01fd 40       		.byte	64
 1086 01fe 44       		.byte	68
 1087 01ff 10       		.byte	16
 1088 0200 47       		.byte	71
 1089 0201 04       		.byte	4
 1090 0202 48       		.byte	72
 1091 0203 04       		.byte	4
 1092 0204 4A       		.byte	74
 1093 0205 02       		.byte	2
 1094 0206 51       		.byte	81
 1095 0207 41       		.byte	65
 1096 0208 69       		.byte	105
 1097 0209 10       		.byte	16
 1098 020a 6B       		.byte	107
 1099 020b 10       		.byte	16
 1100 020c 70       		.byte	112
 1101 020d 88       		.byte	-120
 1102 020e 71       		.byte	113
 1103 020f 10       		.byte	16
 1104 0210 72       		.byte	114
ARM GAS  C:\DOCUME~1\ADMINI~1\LOCALS~1\Temp\ccEzm20X.s 			page 51


 1105 0211 84       		.byte	-124
 1106 0212 C0       		.byte	-64
 1107 0213 5B       		.byte	91
 1108 0214 C2       		.byte	-62
 1109 0215 F5       		.byte	-11
 1110 0216 C4       		.byte	-60
 1111 0217 B0       		.byte	-80
 1112 0218 CA       		.byte	-54
 1113 0219 6F       		.byte	111
 1114 021a CC       		.byte	-52
 1115 021b CF       		.byte	-49
 1116 021c CE       		.byte	-50
 1117 021d CF       		.byte	-49
 1118 021e D0       		.byte	-48
 1119 021f 07       		.byte	7
 1120 0220 D2       		.byte	-46
 1121 0221 0C       		.byte	12
 1122 0222 02       		.byte	2
 1123 0223 10       		.byte	16
 1124 0224 04       		.byte	4
 1125 0225 09       		.byte	9
 1126 0226 06       		.byte	6
 1127 0227 10       		.byte	16
 1128 0228 09       		.byte	9
 1129 0229 03       		.byte	3
 1130 022a 0B       		.byte	11
 1131 022b 14       		.byte	20
 1132 022c 14       		.byte	20
 1133 022d 10       		.byte	16
 1134 022e 15       		.byte	21
 1135 022f 13       		.byte	19
 1136 0230 16       		.byte	22
 1137 0231 0C       		.byte	12
 1138 0232 17       		.byte	23
 1139 0233 0C       		.byte	12
 1140 0234 1A       		.byte	26
 1141 0235 03       		.byte	3
 1142 0236 1B       		.byte	27
 1143 0237 1E       		.byte	30
 1144 0238 1C       		.byte	28
 1145 0239 14       		.byte	20
 1146 023a 25       		.byte	37
 1147 023b 20       		.byte	32
 1148 023c 28       		.byte	40
 1149 023d 0C       		.byte	12
 1150 023e 29       		.byte	41
 1151 023f 13       		.byte	19
 1152 0240 2A       		.byte	42
 1153 0241 11       		.byte	17
 1154 0242 2B       		.byte	43
 1155 0243 04       		.byte	4
 1156 0244 2C       		.byte	44
 1157 0245 1C       		.byte	28
 1158 0246 2D       		.byte	45
 1159 0247 09       		.byte	9
 1160 0248 2E       		.byte	46
 1161 0249 02       		.byte	2
ARM GAS  C:\DOCUME~1\ADMINI~1\LOCALS~1\Temp\ccEzm20X.s 			page 52


 1162 024a 2F       		.byte	47
 1163 024b 10       		.byte	16
 1164 024c 31       		.byte	49
 1165 024d 10       		.byte	16
 1166 024e 33       		.byte	51
 1167 024f 0F       		.byte	15
 1168 0250 34       		.byte	52
 1169 0251 1F       		.byte	31
 1170 0252 35       		.byte	53
 1171 0253 20       		.byte	32
 1172 0254 37       		.byte	55
 1173 0255 20       		.byte	32
 1174 0256 3B       		.byte	59
 1175 0257 08       		.byte	8
 1176 0258 3F       		.byte	63
 1177 0259 41       		.byte	65
 1178 025a 40       		.byte	64
 1179 025b 64       		.byte	100
 1180 025c 41       		.byte	65
 1181 025d 02       		.byte	2
 1182 025e 45       		.byte	69
 1183 025f E0       		.byte	-32
 1184 0260 46       		.byte	70
 1185 0261 C0       		.byte	-64
 1186 0262 47       		.byte	71
 1187 0263 B0       		.byte	-80
 1188 0264 48       		.byte	72
 1189 0265 2A       		.byte	42
 1190 0266 49       		.byte	73
 1191 0267 FF       		.byte	-1
 1192 0268 4A       		.byte	74
 1193 0269 FF       		.byte	-1
 1194 026a 4B       		.byte	75
 1195 026b FF       		.byte	-1
 1196 026c 4E       		.byte	78
 1197 026d F0       		.byte	-16
 1198 026e 4F       		.byte	79
 1199 026f 44       		.byte	68
 1200 0270 50       		.byte	80
 1201 0271 0C       		.byte	12
 1202 0272 54       		.byte	84
 1203 0273 01       		.byte	1
 1204 0274 56       		.byte	86
 1205 0275 04       		.byte	4
 1206 0276 58       		.byte	88
 1207 0277 04       		.byte	4
 1208 0278 59       		.byte	89
 1209 0279 04       		.byte	4
 1210 027a 5A       		.byte	90
 1211 027b 04       		.byte	4
 1212 027c 5B       		.byte	91
 1213 027d 04       		.byte	4
 1214 027e 5C       		.byte	92
 1215 027f 11       		.byte	17
 1216 0280 5D       		.byte	93
 1217 0281 11       		.byte	17
 1218 0282 5F       		.byte	95
ARM GAS  C:\DOCUME~1\ADMINI~1\LOCALS~1\Temp\ccEzm20X.s 			page 53


 1219 0283 01       		.byte	1
 1220 0284 66       		.byte	102
 1221 0285 C0       		.byte	-64
 1222 0286 6A       		.byte	106
 1223 0287 40       		.byte	64
 1224 0288 6B       		.byte	107
 1225 0289 02       		.byte	2
 1226 028a 81       		.byte	-127
 1227 028b 02       		.byte	2
 1228 028c 85       		.byte	-123
 1229 028d 1A       		.byte	26
 1230 028e 87       		.byte	-121
 1231 028f 60       		.byte	96
 1232 0290 88       		.byte	-120
 1233 0291 33       		.byte	51
 1234 0292 89       		.byte	-119
 1235 0293 4D       		.byte	77
 1236 0294 8A       		.byte	-118
 1237 0295 0C       		.byte	12
 1238 0296 8B       		.byte	-117
 1239 0297 92       		.byte	-110
 1240 0298 8C       		.byte	-116
 1241 0299 2A       		.byte	42
 1242 029a 8E       		.byte	-114
 1243 029b 54       		.byte	84
 1244 029c 8F       		.byte	-113
 1245 029d 01       		.byte	1
 1246 029e 90       		.byte	-112
 1247 029f FF       		.byte	-1
 1248 02a0 91       		.byte	-111
 1249 02a1 FF       		.byte	-1
 1250 02a2 94       		.byte	-108
 1251 02a3 40       		.byte	64
 1252 02a4 96       		.byte	-106
 1253 02a5 13       		.byte	19
 1254 02a6 97       		.byte	-105
 1255 02a7 02       		.byte	2
 1256 02a8 99       		.byte	-103
 1257 02a9 04       		.byte	4
 1258 02aa 9C       		.byte	-100
 1259 02ab 46       		.byte	70
 1260 02ac 9E       		.byte	-98
 1261 02ad A9       		.byte	-87
 1262 02ae 9F       		.byte	-97
 1263 02af 04       		.byte	4
 1264 02b0 A1       		.byte	-95
 1265 02b1 CC       		.byte	-52
 1266 02b2 A3       		.byte	-93
 1267 02b3 13       		.byte	19
 1268 02b4 A4       		.byte	-92
 1269 02b5 80       		.byte	-128
 1270 02b6 A6       		.byte	-90
 1271 02b7 56       		.byte	86
 1272 02b8 A7       		.byte	-89
 1273 02b9 B5       		.byte	-75
 1274 02ba A8       		.byte	-88
 1275 02bb 0E       		.byte	14
ARM GAS  C:\DOCUME~1\ADMINI~1\LOCALS~1\Temp\ccEzm20X.s 			page 54


 1276 02bc A9       		.byte	-87
 1277 02bd A9       		.byte	-87
 1278 02be AA       		.byte	-86
 1279 02bf 30       		.byte	48
 1280 02c0 AB       		.byte	-85
 1281 02c1 54       		.byte	84
 1282 02c2 AD       		.byte	-83
 1283 02c3 A5       		.byte	-91
 1284 02c4 AE       		.byte	-82
 1285 02c5 01       		.byte	1
 1286 02c6 AF       		.byte	-81
 1287 02c7 4A       		.byte	74
 1288 02c8 B0       		.byte	-80
 1289 02c9 FF       		.byte	-1
 1290 02ca B6       		.byte	-74
 1291 02cb FF       		.byte	-1
 1292 02cc B7       		.byte	-73
 1293 02cd FF       		.byte	-1
 1294 02ce BB       		.byte	-69
 1295 02cf 20       		.byte	32
 1296 02d0 BF       		.byte	-65
 1297 02d1 40       		.byte	64
 1298 02d2 D6       		.byte	-42
 1299 02d3 08       		.byte	8
 1300 02d4 D8       		.byte	-40
 1301 02d5 04       		.byte	4
 1302 02d6 D9       		.byte	-39
 1303 02d7 04       		.byte	4
 1304 02d8 DB       		.byte	-37
 1305 02d9 04       		.byte	4
 1306 02da DC       		.byte	-36
 1307 02db 10       		.byte	16
 1308 02dc DD       		.byte	-35
 1309 02dd 90       		.byte	-112
 1310 02de DF       		.byte	-33
 1311 02df 01       		.byte	1
 1312 02e0 01       		.byte	1
 1313 02e1 20       		.byte	32
 1314 02e2 03       		.byte	3
 1315 02e3 01       		.byte	1
 1316 02e4 04       		.byte	4
 1317 02e5 08       		.byte	8
 1318 02e6 06       		.byte	6
 1319 02e7 40       		.byte	64
 1320 02e8 09       		.byte	9
 1321 02e9 06       		.byte	6
 1322 02ea 0A       		.byte	10
 1323 02eb 02       		.byte	2
 1324 02ec 0D       		.byte	13
 1325 02ed 28       		.byte	40
 1326 02ee 0F       		.byte	15
 1327 02ef 0A       		.byte	10
 1328 02f0 10       		.byte	16
 1329 02f1 10       		.byte	16
 1330 02f2 12       		.byte	18
 1331 02f3 05       		.byte	5
 1332 02f4 14       		.byte	20
ARM GAS  C:\DOCUME~1\ADMINI~1\LOCALS~1\Temp\ccEzm20X.s 			page 55


 1333 02f5 04       		.byte	4
 1334 02f6 15       		.byte	21
 1335 02f7 40       		.byte	64
 1336 02f8 18       		.byte	24
 1337 02f9 80       		.byte	-128
 1338 02fa 19       		.byte	25
 1339 02fb 01       		.byte	1
 1340 02fc 1A       		.byte	26
 1341 02fd 02       		.byte	2
 1342 02fe 1D       		.byte	29
 1343 02ff 20       		.byte	32
 1344 0300 20       		.byte	32
 1345 0301 0A       		.byte	10
 1346 0302 23       		.byte	35
 1347 0303 04       		.byte	4
 1348 0304 24       		.byte	36
 1349 0305 48       		.byte	72
 1350 0306 25       		.byte	37
 1351 0307 08       		.byte	8
 1352 0308 26       		.byte	38
 1353 0309 28       		.byte	40
 1354 030a 27       		.byte	39
 1355 030b 22       		.byte	34
 1356 030c 28       		.byte	40
 1357 030d 11       		.byte	17
 1358 030e 29       		.byte	41
 1359 030f 21       		.byte	33
 1360 0310 2A       		.byte	42
 1361 0311 08       		.byte	8
 1362 0312 2C       		.byte	44
 1363 0313 04       		.byte	4
 1364 0314 2D       		.byte	45
 1365 0315 44       		.byte	68
 1366 0316 2F       		.byte	47
 1367 0317 05       		.byte	5
 1368 0318 30       		.byte	48
 1369 0319 88       		.byte	-120
 1370 031a 31       		.byte	49
 1371 031b 12       		.byte	18
 1372 031c 34       		.byte	52
 1373 031d 03       		.byte	3
 1374 031e 36       		.byte	54
 1375 031f 28       		.byte	40
 1376 0320 37       		.byte	55
 1377 0321 01       		.byte	1
 1378 0322 38       		.byte	56
 1379 0323 20       		.byte	32
 1380 0324 39       		.byte	57
 1381 0325 01       		.byte	1
 1382 0326 3A       		.byte	58
 1383 0327 84       		.byte	-124
 1384 0328 3E       		.byte	62
 1385 0329 20       		.byte	32
 1386 032a 3F       		.byte	63
 1387 032b 10       		.byte	16
 1388 032c 44       		.byte	68
 1389 032d 04       		.byte	4
ARM GAS  C:\DOCUME~1\ADMINI~1\LOCALS~1\Temp\ccEzm20X.s 			page 56


 1390 032e 47       		.byte	71
 1391 032f 02       		.byte	2
 1392 0330 4D       		.byte	77
 1393 0331 02       		.byte	2
 1394 0332 4E       		.byte	78
 1395 0333 08       		.byte	8
 1396 0334 56       		.byte	86
 1397 0335 20       		.byte	32
 1398 0336 57       		.byte	87
 1399 0337 01       		.byte	1
 1400 0338 58       		.byte	88
 1401 0339 40       		.byte	64
 1402 033a 5C       		.byte	92
 1403 033b 40       		.byte	64
 1404 033c 5D       		.byte	93
 1405 033d 02       		.byte	2
 1406 033e 5F       		.byte	95
 1407 033f 18       		.byte	24
 1408 0340 60       		.byte	96
 1409 0341 01       		.byte	1
 1410 0342 62       		.byte	98
 1411 0343 80       		.byte	-128
 1412 0344 67       		.byte	103
 1413 0345 80       		.byte	-128
 1414 0346 79       		.byte	121
 1415 0347 08       		.byte	8
 1416 0348 7B       		.byte	123
 1417 0349 20       		.byte	32
 1418 034a 87       		.byte	-121
 1419 034b 40       		.byte	64
 1420 034c 90       		.byte	-112
 1421 034d 20       		.byte	32
 1422 034e 91       		.byte	-111
 1423 034f 93       		.byte	-109
 1424 0350 92       		.byte	-110
 1425 0351 04       		.byte	4
 1426 0352 94       		.byte	-108
 1427 0353 91       		.byte	-111
 1428 0354 95       		.byte	-107
 1429 0355 08       		.byte	8
 1430 0356 96       		.byte	-106
 1431 0357 60       		.byte	96
 1432 0358 99       		.byte	-103
 1433 0359 10       		.byte	16
 1434 035a 9A       		.byte	-102
 1435 035b 80       		.byte	-128
 1436 035c 9B       		.byte	-101
 1437 035d 14       		.byte	20
 1438 035e 9C       		.byte	-100
 1439 035f 22       		.byte	34
 1440 0360 9D       		.byte	-99
 1441 0361 20       		.byte	32
 1442 0362 9E       		.byte	-98
 1443 0363 0D       		.byte	13
 1444 0364 A0       		.byte	-96
 1445 0365 88       		.byte	-120
 1446 0366 A1       		.byte	-95
ARM GAS  C:\DOCUME~1\ADMINI~1\LOCALS~1\Temp\ccEzm20X.s 			page 57


 1447 0367 04       		.byte	4
 1448 0368 A3       		.byte	-93
 1449 0369 02       		.byte	2
 1450 036a A4       		.byte	-92
 1451 036b 14       		.byte	20
 1452 036c A5       		.byte	-91
 1453 036d 02       		.byte	2
 1454 036e A6       		.byte	-90
 1455 036f 07       		.byte	7
 1456 0370 A7       		.byte	-89
 1457 0371 40       		.byte	64
 1458 0372 B0       		.byte	-80
 1459 0373 10       		.byte	16
 1460 0374 B1       		.byte	-79
 1461 0375 20       		.byte	32
 1462 0376 B2       		.byte	-78
 1463 0377 01       		.byte	1
 1464 0378 B6       		.byte	-74
 1465 0379 08       		.byte	8
 1466 037a C0       		.byte	-64
 1467 037b 33       		.byte	51
 1468 037c C2       		.byte	-62
 1469 037d ED       		.byte	-19
 1470 037e C4       		.byte	-60
 1471 037f C7       		.byte	-57
 1472 0380 CA       		.byte	-54
 1473 0381 7F       		.byte	127
 1474 0382 CC       		.byte	-52
 1475 0383 6F       		.byte	111
 1476 0384 CE       		.byte	-50
 1477 0385 2F       		.byte	47
 1478 0386 D0       		.byte	-48
 1479 0387 A0       		.byte	-96
 1480 0388 D2       		.byte	-46
 1481 0389 20       		.byte	32
 1482 038a D6       		.byte	-42
 1483 038b F8       		.byte	-8
 1484 038c D8       		.byte	-40
 1485 038d 88       		.byte	-120
 1486 038e E6       		.byte	-26
 1487 038f 01       		.byte	1
 1488 0390 EA       		.byte	-22
 1489 0391 08       		.byte	8
 1490 0392 03       		.byte	3
 1491 0393 80       		.byte	-128
 1492 0394 04       		.byte	4
 1493 0395 1F       		.byte	31
 1494 0396 06       		.byte	6
 1495 0397 60       		.byte	96
 1496 0398 07       		.byte	7
 1497 0399 10       		.byte	16
 1498 039a 08       		.byte	8
 1499 039b 09       		.byte	9
 1500 039c 09       		.byte	9
 1501 039d 40       		.byte	64
 1502 039e 0C       		.byte	12
 1503 039f 1B       		.byte	27
ARM GAS  C:\DOCUME~1\ADMINI~1\LOCALS~1\Temp\ccEzm20X.s 			page 58


 1504 03a0 0D       		.byte	13
 1505 03a1 04       		.byte	4
 1506 03a2 0F       		.byte	15
 1507 03a3 01       		.byte	1
 1508 03a4 10       		.byte	16
 1509 03a5 78       		.byte	120
 1510 03a6 11       		.byte	17
 1511 03a7 04       		.byte	4
 1512 03a8 12       		.byte	18
 1513 03a9 07       		.byte	7
 1514 03aa 13       		.byte	19
 1515 03ab 21       		.byte	33
 1516 03ac 14       		.byte	20
 1517 03ad 60       		.byte	96
 1518 03ae 17       		.byte	23
 1519 03af 80       		.byte	-128
 1520 03b0 18       		.byte	24
 1521 03b1 7F       		.byte	127
 1522 03b2 19       		.byte	25
 1523 03b3 05       		.byte	5
 1524 03b4 1B       		.byte	27
 1525 03b5 20       		.byte	32
 1526 03b6 1C       		.byte	28
 1527 03b7 40       		.byte	64
 1528 03b8 1D       		.byte	29
 1529 03b9 01       		.byte	1
 1530 03ba 1F       		.byte	31
 1531 03bb 0E       		.byte	14
 1532 03bc 20       		.byte	32
 1533 03bd 12       		.byte	18
 1534 03be 21       		.byte	33
 1535 03bf 31       		.byte	49
 1536 03c0 22       		.byte	34
 1537 03c1 80       		.byte	-128
 1538 03c2 23       		.byte	35
 1539 03c3 02       		.byte	2
 1540 03c4 24       		.byte	36
 1541 03c5 20       		.byte	32
 1542 03c6 25       		.byte	37
 1543 03c7 25       		.byte	37
 1544 03c8 28       		.byte	40
 1545 03c9 60       		.byte	96
 1546 03ca 29       		.byte	41
 1547 03cb 25       		.byte	37
 1548 03cc 2A       		.byte	42
 1549 03cd 1F       		.byte	31
 1550 03ce 2D       		.byte	45
 1551 03cf 31       		.byte	49
 1552 03d0 2E       		.byte	46
 1553 03d1 1B       		.byte	27
 1554 03d2 2F       		.byte	47
 1555 03d3 08       		.byte	8
 1556 03d4 30       		.byte	48
 1557 03d5 03       		.byte	3
 1558 03d6 31       		.byte	49
 1559 03d7 40       		.byte	64
 1560 03d8 32       		.byte	50
ARM GAS  C:\DOCUME~1\ADMINI~1\LOCALS~1\Temp\ccEzm20X.s 			page 59


 1561 03d9 04       		.byte	4
 1562 03da 33       		.byte	51
 1563 03db 30       		.byte	48
 1564 03dc 34       		.byte	52
 1565 03dd 78       		.byte	120
 1566 03de 35       		.byte	53
 1567 03df 80       		.byte	-128
 1568 03e0 36       		.byte	54
 1569 03e1 80       		.byte	-128
 1570 03e2 37       		.byte	55
 1571 03e3 0F       		.byte	15
 1572 03e4 38       		.byte	56
 1573 03e5 08       		.byte	8
 1574 03e6 3A       		.byte	58
 1575 03e7 20       		.byte	32
 1576 03e8 3B       		.byte	59
 1577 03e9 80       		.byte	-128
 1578 03ea 3F       		.byte	63
 1579 03eb 10       		.byte	16
 1580 03ec 54       		.byte	84
 1581 03ed 18       		.byte	24
 1582 03ee 56       		.byte	86
 1583 03ef 04       		.byte	4
 1584 03f0 58       		.byte	88
 1585 03f1 04       		.byte	4
 1586 03f2 59       		.byte	89
 1587 03f3 04       		.byte	4
 1588 03f4 5B       		.byte	91
 1589 03f5 04       		.byte	4
 1590 03f6 5C       		.byte	92
 1591 03f7 01       		.byte	1
 1592 03f8 5D       		.byte	93
 1593 03f9 10       		.byte	16
 1594 03fa 5F       		.byte	95
 1595 03fb 01       		.byte	1
 1596 03fc 80       		.byte	-128
 1597 03fd 04       		.byte	4
 1598 03fe 81       		.byte	-127
 1599 03ff 01       		.byte	1
 1600 0400 83       		.byte	-125
 1601 0401 02       		.byte	2
 1602 0402 86       		.byte	-122
 1603 0403 2F       		.byte	47
 1604 0404 8B       		.byte	-117
 1605 0405 10       		.byte	16
 1606 0406 8C       		.byte	-116
 1607 0407 1C       		.byte	28
 1608 0408 8E       		.byte	-114
 1609 0409 01       		.byte	1
 1610 040a 91       		.byte	-111
 1611 040b 04       		.byte	4
 1612 040c 9D       		.byte	-99
 1613 040d 01       		.byte	1
 1614 040e 9F       		.byte	-97
 1615 040f 0A       		.byte	10
 1616 0410 A4       		.byte	-92
 1617 0411 31       		.byte	49
ARM GAS  C:\DOCUME~1\ADMINI~1\LOCALS~1\Temp\ccEzm20X.s 			page 60


 1618 0412 A6       		.byte	-90
 1619 0413 06       		.byte	6
 1620 0414 A8       		.byte	-88
 1621 0415 31       		.byte	49
 1622 0416 AA       		.byte	-86
 1623 0417 0A       		.byte	10
 1624 0418 B0       		.byte	-80
 1625 0419 07       		.byte	7
 1626 041a B1       		.byte	-79
 1627 041b 03       		.byte	3
 1628 041c B2       		.byte	-78
 1629 041d 0E       		.byte	14
 1630 041e B3       		.byte	-77
 1631 041f 10       		.byte	16
 1632 0420 B4       		.byte	-76
 1633 0421 30       		.byte	48
 1634 0422 B5       		.byte	-75
 1635 0423 04       		.byte	4
 1636 0424 B7       		.byte	-73
 1637 0425 08       		.byte	8
 1638 0426 B8       		.byte	-72
 1639 0427 20       		.byte	32
 1640 0428 BA       		.byte	-70
 1641 0429 0A       		.byte	10
 1642 042a BE       		.byte	-66
 1643 042b 10       		.byte	16
 1644 042c BF       		.byte	-65
 1645 042d 10       		.byte	16
 1646 042e D6       		.byte	-42
 1647 042f 08       		.byte	8
 1648 0430 D8       		.byte	-40
 1649 0431 04       		.byte	4
 1650 0432 D9       		.byte	-39
 1651 0433 04       		.byte	4
 1652 0434 DB       		.byte	-37
 1653 0435 04       		.byte	4
 1654 0436 DC       		.byte	-36
 1655 0437 01       		.byte	1
 1656 0438 DD       		.byte	-35
 1657 0439 90       		.byte	-112
 1658 043a DF       		.byte	-33
 1659 043b 01       		.byte	1
 1660 043c 03       		.byte	3
 1661 043d 26       		.byte	38
 1662 043e 04       		.byte	4
 1663 043f 68       		.byte	104
 1664 0440 05       		.byte	5
 1665 0441 10       		.byte	16
 1666 0442 06       		.byte	6
 1667 0443 40       		.byte	64
 1668 0444 09       		.byte	9
 1669 0445 08       		.byte	8
 1670 0446 0A       		.byte	10
 1671 0447 01       		.byte	1
 1672 0448 0B       		.byte	11
 1673 0449 44       		.byte	68
 1674 044a 0C       		.byte	12
ARM GAS  C:\DOCUME~1\ADMINI~1\LOCALS~1\Temp\ccEzm20X.s 			page 61


 1675 044b 10       		.byte	16
 1676 044c 0E       		.byte	14
 1677 044d 04       		.byte	4
 1678 044e 10       		.byte	16
 1679 044f 20       		.byte	32
 1680 0450 12       		.byte	18
 1681 0451 82       		.byte	-126
 1682 0452 13       		.byte	19
 1683 0453 10       		.byte	16
 1684 0454 16       		.byte	22
 1685 0455 20       		.byte	32
 1686 0456 17       		.byte	23
 1687 0457 20       		.byte	32
 1688 0458 19       		.byte	25
 1689 0459 01       		.byte	1
 1690 045a 1B       		.byte	27
 1691 045b A8       		.byte	-88
 1692 045c 1C       		.byte	28
 1693 045d 40       		.byte	64
 1694 045e 1D       		.byte	29
 1695 045f 20       		.byte	32
 1696 0460 1F       		.byte	31
 1697 0461 05       		.byte	5
 1698 0462 21       		.byte	33
 1699 0463 06       		.byte	6
 1700 0464 22       		.byte	34
 1701 0465 68       		.byte	104
 1702 0466 24       		.byte	36
 1703 0467 02       		.byte	2
 1704 0468 26       		.byte	38
 1705 0469 04       		.byte	4
 1706 046a 27       		.byte	39
 1707 046b 48       		.byte	72
 1708 046c 29       		.byte	41
 1709 046d 20       		.byte	32
 1710 046e 2A       		.byte	42
 1711 046f 84       		.byte	-124
 1712 0470 2B       		.byte	43
 1713 0471 40       		.byte	64
 1714 0472 2E       		.byte	46
 1715 0473 20       		.byte	32
 1716 0474 2F       		.byte	47
 1717 0475 04       		.byte	4
 1718 0476 31       		.byte	49
 1719 0477 10       		.byte	16
 1720 0478 32       		.byte	50
 1721 0479 41       		.byte	65
 1722 047a 33       		.byte	51
 1723 047b 08       		.byte	8
 1724 047c 35       		.byte	53
 1725 047d 82       		.byte	-126
 1726 047e 39       		.byte	57
 1727 047f 5A       		.byte	90
 1728 0480 3C       		.byte	60
 1729 0481 10       		.byte	16
 1730 0482 3D       		.byte	61
 1731 0483 02       		.byte	2
ARM GAS  C:\DOCUME~1\ADMINI~1\LOCALS~1\Temp\ccEzm20X.s 			page 62


 1732 0484 41       		.byte	65
 1733 0485 02       		.byte	2
 1734 0486 42       		.byte	66
 1735 0487 80       		.byte	-128
 1736 0488 59       		.byte	89
 1737 0489 01       		.byte	1
 1738 048a 5E       		.byte	94
 1739 048b 80       		.byte	-128
 1740 048c 60       		.byte	96
 1741 048d 82       		.byte	-126
 1742 048e 62       		.byte	98
 1743 048f 20       		.byte	32
 1744 0490 65       		.byte	101
 1745 0491 80       		.byte	-128
 1746 0492 8A       		.byte	-118
 1747 0493 40       		.byte	64
 1748 0494 8C       		.byte	-116
 1749 0495 21       		.byte	33
 1750 0496 8E       		.byte	-114
 1751 0497 40       		.byte	64
 1752 0498 90       		.byte	-112
 1753 0499 28       		.byte	40
 1754 049a 91       		.byte	-111
 1755 049b 93       		.byte	-109
 1756 049c 92       		.byte	-110
 1757 049d 06       		.byte	6
 1758 049e 93       		.byte	-109
 1759 049f 04       		.byte	4
 1760 04a0 94       		.byte	-108
 1761 04a1 10       		.byte	16
 1762 04a2 95       		.byte	-107
 1763 04a3 04       		.byte	4
 1764 04a4 96       		.byte	-106
 1765 04a5 60       		.byte	96
 1766 04a6 97       		.byte	-105
 1767 04a7 0A       		.byte	10
 1768 04a8 99       		.byte	-103
 1769 04a9 02       		.byte	2
 1770 04aa 9B       		.byte	-101
 1771 04ab 34       		.byte	52
 1772 04ac 9C       		.byte	-100
 1773 04ad E0       		.byte	-32
 1774 04ae 9D       		.byte	-99
 1775 04af 20       		.byte	32
 1776 04b0 9E       		.byte	-98
 1777 04b1 4D       		.byte	77
 1778 04b2 9F       		.byte	-97
 1779 04b3 09       		.byte	9
 1780 04b4 A0       		.byte	-96
 1781 04b5 89       		.byte	-119
 1782 04b6 A1       		.byte	-95
 1783 04b7 04       		.byte	4
 1784 04b8 A2       		.byte	-94
 1785 04b9 80       		.byte	-128
 1786 04ba A3       		.byte	-93
 1787 04bb 06       		.byte	6
 1788 04bc A4       		.byte	-92
ARM GAS  C:\DOCUME~1\ADMINI~1\LOCALS~1\Temp\ccEzm20X.s 			page 63


 1789 04bd 10       		.byte	16
 1790 04be A5       		.byte	-91
 1791 04bf 02       		.byte	2
 1792 04c0 A6       		.byte	-90
 1793 04c1 07       		.byte	7
 1794 04c2 A7       		.byte	-89
 1795 04c3 60       		.byte	96
 1796 04c4 B4       		.byte	-76
 1797 04c5 C0       		.byte	-64
 1798 04c6 C0       		.byte	-64
 1799 04c7 B7       		.byte	-73
 1800 04c8 C2       		.byte	-62
 1801 04c9 0F       		.byte	15
 1802 04ca C4       		.byte	-60
 1803 04cb 6F       		.byte	111
 1804 04cc CA       		.byte	-54
 1805 04cd 0F       		.byte	15
 1806 04ce CC       		.byte	-52
 1807 04cf 9F       		.byte	-97
 1808 04d0 CE       		.byte	-50
 1809 04d1 AF       		.byte	-81
 1810 04d2 D6       		.byte	-42
 1811 04d3 11       		.byte	17
 1812 04d4 D8       		.byte	-40
 1813 04d5 1D       		.byte	29
 1814 04d6 E0       		.byte	-32
 1815 04d7 20       		.byte	32
 1816 04d8 E2       		.byte	-30
 1817 04d9 08       		.byte	8
 1818 04da EA       		.byte	-22
 1819 04db 10       		.byte	16
 1820 04dc EE       		.byte	-18
 1821 04dd 01       		.byte	1
 1822 04de 03       		.byte	3
 1823 04df 10       		.byte	16
 1824 04e0 05       		.byte	5
 1825 04e1 08       		.byte	8
 1826 04e2 07       		.byte	7
 1827 04e3 65       		.byte	101
 1828 04e4 09       		.byte	9
 1829 04e5 06       		.byte	6
 1830 04e6 0B       		.byte	11
 1831 04e7 60       		.byte	96
 1832 04e8 0D       		.byte	13
 1833 04e9 40       		.byte	64
 1834 04ea 0F       		.byte	15
 1835 04eb 20       		.byte	32
 1836 04ec 11       		.byte	17
 1837 04ed 05       		.byte	5
 1838 04ee 13       		.byte	19
 1839 04ef 6A       		.byte	106
 1840 04f0 15       		.byte	21
 1841 04f1 60       		.byte	96
 1842 04f2 17       		.byte	23
 1843 04f3 02       		.byte	2
 1844 04f4 19       		.byte	25
 1845 04f5 20       		.byte	32
ARM GAS  C:\DOCUME~1\ADMINI~1\LOCALS~1\Temp\ccEzm20X.s 			page 64


 1846 04f6 1B       		.byte	27
 1847 04f7 C0       		.byte	-64
 1848 04f8 21       		.byte	33
 1849 04f9 01       		.byte	1
 1850 04fa 23       		.byte	35
 1851 04fb 02       		.byte	2
 1852 04fc 25       		.byte	37
 1853 04fd 2F       		.byte	47
 1854 04fe 26       		.byte	38
 1855 04ff 01       		.byte	1
 1856 0500 27       		.byte	39
 1857 0501 80       		.byte	-128
 1858 0502 29       		.byte	41
 1859 0503 01       		.byte	1
 1860 0504 2B       		.byte	43
 1861 0505 64       		.byte	100
 1862 0506 2D       		.byte	45
 1863 0507 61       		.byte	97
 1864 0508 2E       		.byte	46
 1865 0509 02       		.byte	2
 1866 050a 2F       		.byte	47
 1867 050b 02       		.byte	2
 1868 050c 32       		.byte	50
 1869 050d 01       		.byte	1
 1870 050e 33       		.byte	51
 1871 050f E0       		.byte	-32
 1872 0510 34       		.byte	52
 1873 0511 02       		.byte	2
 1874 0512 37       		.byte	55
 1875 0513 1F       		.byte	31
 1876 0514 3B       		.byte	59
 1877 0515 08       		.byte	8
 1878 0516 40       		.byte	64
 1879 0517 02       		.byte	2
 1880 0518 45       		.byte	69
 1881 0519 01       		.byte	1
 1882 051a 46       		.byte	70
 1883 051b 05       		.byte	5
 1884 051c 48       		.byte	72
 1885 051d 05       		.byte	5
 1886 051e 49       		.byte	73
 1887 051f FF       		.byte	-1
 1888 0520 4A       		.byte	74
 1889 0521 07       		.byte	7
 1890 0522 4B       		.byte	75
 1891 0523 FF       		.byte	-1
 1892 0524 4C       		.byte	76
 1893 0525 40       		.byte	64
 1894 0526 4D       		.byte	77
 1895 0527 20       		.byte	32
 1896 0528 4E       		.byte	78
 1897 0529 F0       		.byte	-16
 1898 052a 4F       		.byte	79
 1899 052b 05       		.byte	5
 1900 052c 50       		.byte	80
 1901 052d 08       		.byte	8
 1902 052e 56       		.byte	86
ARM GAS  C:\DOCUME~1\ADMINI~1\LOCALS~1\Temp\ccEzm20X.s 			page 65


 1903 052f 08       		.byte	8
 1904 0530 58       		.byte	88
 1905 0531 04       		.byte	4
 1906 0532 59       		.byte	89
 1907 0533 04       		.byte	4
 1908 0534 5A       		.byte	90
 1909 0535 04       		.byte	4
 1910 0536 5B       		.byte	91
 1911 0537 04       		.byte	4
 1912 0538 5D       		.byte	93
 1913 0539 91       		.byte	-111
 1914 053a 5F       		.byte	95
 1915 053b 01       		.byte	1
 1916 053c 60       		.byte	96
 1917 053d 40       		.byte	64
 1918 053e 61       		.byte	97
 1919 053f A8       		.byte	-88
 1920 0540 62       		.byte	98
 1921 0541 40       		.byte	64
 1922 0542 63       		.byte	99
 1923 0543 20       		.byte	32
 1924 0544 80       		.byte	-128
 1925 0545 03       		.byte	3
 1926 0546 85       		.byte	-123
 1927 0547 FF       		.byte	-1
 1928 0548 86       		.byte	-122
 1929 0549 01       		.byte	1
 1930 054a 88       		.byte	-120
 1931 054b 40       		.byte	64
 1932 054c 89       		.byte	-119
 1933 054d A7       		.byte	-89
 1934 054e 8A       		.byte	-118
 1935 054f 14       		.byte	20
 1936 0550 8B       		.byte	-117
 1937 0551 50       		.byte	80
 1938 0552 8C       		.byte	-116
 1939 0553 42       		.byte	66
 1940 0554 8D       		.byte	-115
 1941 0555 A6       		.byte	-90
 1942 0556 8E       		.byte	-114
 1943 0557 09       		.byte	9
 1944 0558 8F       		.byte	-113
 1945 0559 49       		.byte	73
 1946 055a 90       		.byte	-112
 1947 055b 1F       		.byte	31
 1948 055c 93       		.byte	-109
 1949 055d 59       		.byte	89
 1950 055e 94       		.byte	-108
 1951 055f 4F       		.byte	79
 1952 0560 95       		.byte	-107
 1953 0561 06       		.byte	6
 1954 0562 98       		.byte	-104
 1955 0563 01       		.byte	1
 1956 0564 99       		.byte	-103
 1957 0565 02       		.byte	2
 1958 0566 9C       		.byte	-100
 1959 0567 40       		.byte	64
ARM GAS  C:\DOCUME~1\ADMINI~1\LOCALS~1\Temp\ccEzm20X.s 			page 66


 1960 0568 9D       		.byte	-99
 1961 0569 20       		.byte	32
 1962 056a 9E       		.byte	-98
 1963 056b 0B       		.byte	11
 1964 056c A0       		.byte	-96
 1965 056d 90       		.byte	-112
 1966 056e A2       		.byte	-94
 1967 056f 0B       		.byte	11
 1968 0570 A3       		.byte	-93
 1969 0571 20       		.byte	32
 1970 0572 A4       		.byte	-92
 1971 0573 48       		.byte	72
 1972 0574 A5       		.byte	-91
 1973 0575 F9       		.byte	-7
 1974 0576 A6       		.byte	-90
 1975 0577 02       		.byte	2
 1976 0578 A7       		.byte	-89
 1977 0579 06       		.byte	6
 1978 057a A8       		.byte	-88
 1979 057b 01       		.byte	1
 1980 057c AC       		.byte	-84
 1981 057d 03       		.byte	3
 1982 057e AD       		.byte	-83
 1983 057f 04       		.byte	4
 1984 0580 AE       		.byte	-82
 1985 0581 20       		.byte	32
 1986 0582 B0       		.byte	-80
 1987 0583 40       		.byte	64
 1988 0584 B1       		.byte	-79
 1989 0585 46       		.byte	70
 1990 0586 B3       		.byte	-77
 1991 0587 80       		.byte	-128
 1992 0588 B4       		.byte	-76
 1993 0589 1F       		.byte	31
 1994 058a B5       		.byte	-75
 1995 058b 3E       		.byte	62
 1996 058c B6       		.byte	-74
 1997 058d E0       		.byte	-32
 1998 058e B7       		.byte	-73
 1999 058f 07       		.byte	7
 2000 0590 B8       		.byte	-72
 2001 0591 82       		.byte	-126
 2002 0592 BB       		.byte	-69
 2003 0593 22       		.byte	34
 2004 0594 BE       		.byte	-66
 2005 0595 41       		.byte	65
 2006 0596 BF       		.byte	-65
 2007 0597 04       		.byte	4
 2008 0598 D8       		.byte	-40
 2009 0599 04       		.byte	4
 2010 059a D9       		.byte	-39
 2011 059b 04       		.byte	4
 2012 059c DC       		.byte	-36
 2013 059d 10       		.byte	16
 2014 059e DF       		.byte	-33
 2015 059f 01       		.byte	1
 2016 05a0 01       		.byte	1
ARM GAS  C:\DOCUME~1\ADMINI~1\LOCALS~1\Temp\ccEzm20X.s 			page 67


 2017 05a1 61       		.byte	97
 2018 05a2 03       		.byte	3
 2019 05a3 11       		.byte	17
 2020 05a4 08       		.byte	8
 2021 05a5 10       		.byte	16
 2022 05a6 09       		.byte	9
 2023 05a7 02       		.byte	2
 2024 05a8 0A       		.byte	10
 2025 05a9 02       		.byte	2
 2026 05aa 0B       		.byte	11
 2027 05ab 22       		.byte	34
 2028 05ac 10       		.byte	16
 2029 05ad 08       		.byte	8
 2030 05ae 11       		.byte	17
 2031 05af 0A       		.byte	10
 2032 05b0 12       		.byte	18
 2033 05b1 01       		.byte	1
 2034 05b2 13       		.byte	19
 2035 05b3 08       		.byte	8
 2036 05b4 14       		.byte	20
 2037 05b5 21       		.byte	33
 2038 05b6 18       		.byte	24
 2039 05b7 08       		.byte	8
 2040 05b8 19       		.byte	25
 2041 05b9 22       		.byte	34
 2042 05ba 1B       		.byte	27
 2043 05bb 40       		.byte	64
 2044 05bc 1C       		.byte	28
 2045 05bd 10       		.byte	16
 2046 05be 1D       		.byte	29
 2047 05bf 10       		.byte	16
 2048 05c0 1E       		.byte	30
 2049 05c1 20       		.byte	32
 2050 05c2 21       		.byte	33
 2051 05c3 10       		.byte	16
 2052 05c4 22       		.byte	34
 2053 05c5 44       		.byte	68
 2054 05c6 23       		.byte	35
 2055 05c7 40       		.byte	64
 2056 05c8 27       		.byte	39
 2057 05c9 21       		.byte	33
 2058 05ca 29       		.byte	41
 2059 05cb 90       		.byte	-112
 2060 05cc 2A       		.byte	42
 2061 05cd 20       		.byte	32
 2062 05ce 2B       		.byte	43
 2063 05cf A0       		.byte	-96
 2064 05d0 2D       		.byte	45
 2065 05d1 20       		.byte	32
 2066 05d2 2E       		.byte	46
 2067 05d3 06       		.byte	6
 2068 05d4 2F       		.byte	47
 2069 05d5 01       		.byte	1
 2070 05d6 30       		.byte	48
 2071 05d7 20       		.byte	32
 2072 05d8 31       		.byte	49
 2073 05d9 08       		.byte	8
ARM GAS  C:\DOCUME~1\ADMINI~1\LOCALS~1\Temp\ccEzm20X.s 			page 68


 2074 05da 32       		.byte	50
 2075 05db 82       		.byte	-126
 2076 05dc 37       		.byte	55
 2077 05dd 29       		.byte	41
 2078 05de 39       		.byte	57
 2079 05df 20       		.byte	32
 2080 05e0 3B       		.byte	59
 2081 05e1 54       		.byte	84
 2082 05e2 3C       		.byte	60
 2083 05e3 02       		.byte	2
 2084 05e4 3D       		.byte	61
 2085 05e5 20       		.byte	32
 2086 05e6 3E       		.byte	62
 2087 05e7 88       		.byte	-120
 2088 05e8 45       		.byte	69
 2089 05e9 20       		.byte	32
 2090 05ea 4D       		.byte	77
 2091 05eb 04       		.byte	4
 2092 05ec 56       		.byte	86
 2093 05ed 40       		.byte	64
 2094 05ee 59       		.byte	89
 2095 05ef 20       		.byte	32
 2096 05f0 5A       		.byte	90
 2097 05f1 D0       		.byte	-48
 2098 05f2 5C       		.byte	92
 2099 05f3 40       		.byte	64
 2100 05f4 64       		.byte	100
 2101 05f5 01       		.byte	1
 2102 05f6 66       		.byte	102
 2103 05f7 80       		.byte	-128
 2104 05f8 81       		.byte	-127
 2105 05f9 01       		.byte	1
 2106 05fa 82       		.byte	-126
 2107 05fb 08       		.byte	8
 2108 05fc 83       		.byte	-125
 2109 05fd 20       		.byte	32
 2110 05fe 85       		.byte	-123
 2111 05ff 80       		.byte	-128
 2112 0600 86       		.byte	-122
 2113 0601 01       		.byte	1
 2114 0602 87       		.byte	-121
 2115 0603 01       		.byte	1
 2116 0604 88       		.byte	-120
 2117 0605 04       		.byte	4
 2118 0606 8C       		.byte	-116
 2119 0607 40       		.byte	64
 2120 0608 91       		.byte	-111
 2121 0609 81       		.byte	-127
 2122 060a 92       		.byte	-110
 2123 060b 02       		.byte	2
 2124 060c 93       		.byte	-109
 2125 060d 04       		.byte	4
 2126 060e 94       		.byte	-108
 2127 060f 10       		.byte	16
 2128 0610 95       		.byte	-107
 2129 0611 44       		.byte	68
 2130 0612 96       		.byte	-106
ARM GAS  C:\DOCUME~1\ADMINI~1\LOCALS~1\Temp\ccEzm20X.s 			page 69


 2131 0613 61       		.byte	97
 2132 0614 97       		.byte	-105
 2133 0615 50       		.byte	80
 2134 0616 98       		.byte	-104
 2135 0617 30       		.byte	48
 2136 0618 9B       		.byte	-101
 2137 0619 10       		.byte	16
 2138 061a 9C       		.byte	-100
 2139 061b 42       		.byte	66
 2140 061c 9D       		.byte	-99
 2141 061d 20       		.byte	32
 2142 061e 9E       		.byte	-98
 2143 061f 4D       		.byte	77
 2144 0620 9F       		.byte	-97
 2145 0621 01       		.byte	1
 2146 0622 A0       		.byte	-96
 2147 0623 89       		.byte	-119
 2148 0624 A1       		.byte	-95
 2149 0625 26       		.byte	38
 2150 0626 A2       		.byte	-94
 2151 0627 80       		.byte	-128
 2152 0628 A3       		.byte	-93
 2153 0629 A4       		.byte	-92
 2154 062a A4       		.byte	-92
 2155 062b 30       		.byte	48
 2156 062c A5       		.byte	-91
 2157 062d 08       		.byte	8
 2158 062e A6       		.byte	-90
 2159 062f 03       		.byte	3
 2160 0630 A7       		.byte	-89
 2161 0631 40       		.byte	64
 2162 0632 A9       		.byte	-87
 2163 0633 01       		.byte	1
 2164 0634 B6       		.byte	-74
 2165 0635 08       		.byte	8
 2166 0636 B7       		.byte	-73
 2167 0637 40       		.byte	64
 2168 0638 C0       		.byte	-64
 2169 0639 0F       		.byte	15
 2170 063a C2       		.byte	-62
 2171 063b 0F       		.byte	15
 2172 063c C4       		.byte	-60
 2173 063d AF       		.byte	-81
 2174 063e CA       		.byte	-54
 2175 063f FB       		.byte	-5
 2176 0640 CC       		.byte	-52
 2177 0641 EF       		.byte	-17
 2178 0642 CE       		.byte	-50
 2179 0643 FE       		.byte	-2
 2180 0644 D0       		.byte	-48
 2181 0645 20       		.byte	32
 2182 0646 D6       		.byte	-42
 2183 0647 10       		.byte	16
 2184 0648 D8       		.byte	-40
 2185 0649 10       		.byte	16
 2186 064a E0       		.byte	-32
 2187 064b 43       		.byte	67
ARM GAS  C:\DOCUME~1\ADMINI~1\LOCALS~1\Temp\ccEzm20X.s 			page 70


 2188 064c E6       		.byte	-26
 2189 064d 09       		.byte	9
 2190 064e EA       		.byte	-22
 2191 064f 01       		.byte	1
 2192 0650 EE       		.byte	-18
 2193 0651 05       		.byte	5
 2194 0652 04       		.byte	4
 2195 0653 09       		.byte	9
 2196 0654 05       		.byte	5
 2197 0655 02       		.byte	2
 2198 0656 06       		.byte	6
 2199 0657 10       		.byte	16
 2200 0658 07       		.byte	7
 2201 0659 85       		.byte	-123
 2202 065a 08       		.byte	8
 2203 065b 02       		.byte	2
 2204 065c 0B       		.byte	11
 2205 065d F0       		.byte	-16
 2206 065e 0C       		.byte	12
 2207 065f 24       		.byte	36
 2208 0660 0D       		.byte	13
 2209 0661 03       		.byte	3
 2210 0662 0F       		.byte	15
 2211 0663 44       		.byte	68
 2212 0664 10       		.byte	16
 2213 0665 01       		.byte	1
 2214 0666 11       		.byte	17
 2215 0667 07       		.byte	7
 2216 0668 13       		.byte	19
 2217 0669 10       		.byte	16
 2218 066a 14       		.byte	20
 2219 066b 09       		.byte	9
 2220 066c 15       		.byte	21
 2221 066d 06       		.byte	6
 2222 066e 16       		.byte	22
 2223 066f 10       		.byte	16
 2224 0670 17       		.byte	23
 2225 0671 81       		.byte	-127
 2226 0672 18       		.byte	24
 2227 0673 01       		.byte	1
 2228 0674 19       		.byte	25
 2229 0675 01       		.byte	1
 2230 0676 1B       		.byte	27
 2231 0677 0E       		.byte	14
 2232 0678 1C       		.byte	28
 2233 0679 24       		.byte	36
 2234 067a 1D       		.byte	29
 2235 067b F0       		.byte	-16
 2236 067c 21       		.byte	33
 2237 067d F0       		.byte	-16
 2238 067e 22       		.byte	34
 2239 067f 01       		.byte	1
 2240 0680 24       		.byte	36
 2241 0681 01       		.byte	1
 2242 0682 27       		.byte	39
 2243 0683 F0       		.byte	-16
 2244 0684 29       		.byte	41
ARM GAS  C:\DOCUME~1\ADMINI~1\LOCALS~1\Temp\ccEzm20X.s 			page 71


 2245 0685 07       		.byte	7
 2246 0686 2B       		.byte	43
 2247 0687 20       		.byte	32
 2248 0688 2C       		.byte	44
 2249 0689 20       		.byte	32
 2250 068a 2D       		.byte	45
 2251 068b 01       		.byte	1
 2252 068c 2F       		.byte	47
 2253 068d 08       		.byte	8
 2254 068e 32       		.byte	50
 2255 068f 1C       		.byte	28
 2256 0690 33       		.byte	51
 2257 0691 0F       		.byte	15
 2258 0692 34       		.byte	52
 2259 0693 03       		.byte	3
 2260 0694 36       		.byte	54
 2261 0695 20       		.byte	32
 2262 0696 37       		.byte	55
 2263 0697 F0       		.byte	-16
 2264 0698 38       		.byte	56
 2265 0699 A8       		.byte	-88
 2266 069a 3B       		.byte	59
 2267 069b 08       		.byte	8
 2268 069c 3E       		.byte	62
 2269 069d 14       		.byte	20
 2270 069e 3F       		.byte	63
 2271 069f 40       		.byte	64
 2272 06a0 54       		.byte	84
 2273 06a1 20       		.byte	32
 2274 06a2 56       		.byte	86
 2275 06a3 04       		.byte	4
 2276 06a4 58       		.byte	88
 2277 06a5 04       		.byte	4
 2278 06a6 59       		.byte	89
 2279 06a7 04       		.byte	4
 2280 06a8 5B       		.byte	91
 2281 06a9 04       		.byte	4
 2282 06aa 5F       		.byte	95
 2283 06ab 01       		.byte	1
 2284 06ac 80       		.byte	-128
 2285 06ad 20       		.byte	32
 2286 06ae 82       		.byte	-126
 2287 06af 04       		.byte	4
 2288 06b0 84       		.byte	-124
 2289 06b1 1E       		.byte	30
 2290 06b2 8A       		.byte	-118
 2291 06b3 30       		.byte	48
 2292 06b4 8C       		.byte	-116
 2293 06b5 20       		.byte	32
 2294 06b6 8E       		.byte	-114
 2295 06b7 02       		.byte	2
 2296 06b8 92       		.byte	-110
 2297 06b9 28       		.byte	40
 2298 06ba 9A       		.byte	-102
 2299 06bb 10       		.byte	16
 2300 06bc 9C       		.byte	-100
 2301 06bd 01       		.byte	1
ARM GAS  C:\DOCUME~1\ADMINI~1\LOCALS~1\Temp\ccEzm20X.s 			page 72


 2302 06be 9E       		.byte	-98
 2303 06bf 40       		.byte	64
 2304 06c0 A0       		.byte	-96
 2305 06c1 01       		.byte	1
 2306 06c2 A4       		.byte	-92
 2307 06c3 08       		.byte	8
 2308 06c4 A6       		.byte	-90
 2309 06c5 10       		.byte	16
 2310 06c6 AC       		.byte	-84
 2311 06c7 7E       		.byte	126
 2312 06c8 B2       		.byte	-78
 2313 06c9 7E       		.byte	126
 2314 06ca B4       		.byte	-76
 2315 06cb 01       		.byte	1
 2316 06cc B8       		.byte	-72
 2317 06cd 28       		.byte	40
 2318 06ce BE       		.byte	-66
 2319 06cf 10       		.byte	16
 2320 06d0 C0       		.byte	-64
 2321 06d1 26       		.byte	38
 2322 06d2 C5       		.byte	-59
 2323 06d3 25       		.byte	37
 2324 06d4 C8       		.byte	-56
 2325 06d5 03       		.byte	3
 2326 06d6 C9       		.byte	-55
 2327 06d7 FF       		.byte	-1
 2328 06d8 CA       		.byte	-54
 2329 06d9 FF       		.byte	-1
 2330 06da CB       		.byte	-53
 2331 06db FF       		.byte	-1
 2332 06dc CC       		.byte	-52
 2333 06dd 42       		.byte	66
 2334 06de CD       		.byte	-51
 2335 06df A0       		.byte	-96
 2336 06e0 CE       		.byte	-50
 2337 06e1 70       		.byte	112
 2338 06e2 D0       		.byte	-48
 2339 06e3 08       		.byte	8
 2340 06e4 D1       		.byte	-47
 2341 06e5 10       		.byte	16
 2342 06e6 D8       		.byte	-40
 2343 06e7 04       		.byte	4
 2344 06e8 DA       		.byte	-38
 2345 06e9 04       		.byte	4
 2346 06ea DF       		.byte	-33
 2347 06eb 01       		.byte	1
 2348 06ec E1       		.byte	-31
 2349 06ed 48       		.byte	72
 2350 06ee E2       		.byte	-30
 2351 06ef 40       		.byte	64
 2352 06f0 E3       		.byte	-29
 2353 06f1 48       		.byte	72
 2354 06f2 E4       		.byte	-28
 2355 06f3 80       		.byte	-128
 2356 06f4 E5       		.byte	-27
 2357 06f5 48       		.byte	72
 2358 06f6 E6       		.byte	-26
ARM GAS  C:\DOCUME~1\ADMINI~1\LOCALS~1\Temp\ccEzm20X.s 			page 73


 2359 06f7 80       		.byte	-128
 2360 06f8 E7       		.byte	-25
 2361 06f9 48       		.byte	72
 2362 06fa 01       		.byte	1
 2363 06fb 08       		.byte	8
 2364 06fc 02       		.byte	2
 2365 06fd 02       		.byte	2
 2366 06fe 03       		.byte	3
 2367 06ff 44       		.byte	68
 2368 0700 05       		.byte	5
 2369 0701 04       		.byte	4
 2370 0702 06       		.byte	6
 2371 0703 08       		.byte	8
 2372 0704 07       		.byte	7
 2373 0705 02       		.byte	2
 2374 0706 09       		.byte	9
 2375 0707 42       		.byte	66
 2376 0708 0B       		.byte	11
 2377 0709 04       		.byte	4
 2378 070a 0C       		.byte	12
 2379 070b 80       		.byte	-128
 2380 070c 0D       		.byte	13
 2381 070d 0A       		.byte	10
 2382 070e 0F       		.byte	15
 2383 070f 84       		.byte	-124
 2384 0710 10       		.byte	16
 2385 0711 81       		.byte	-127
 2386 0712 12       		.byte	18
 2387 0713 20       		.byte	32
 2388 0714 14       		.byte	20
 2389 0715 41       		.byte	65
 2390 0716 17       		.byte	23
 2391 0717 04       		.byte	4
 2392 0718 18       		.byte	24
 2393 0719 14       		.byte	20
 2394 071a 1C       		.byte	28
 2395 071b 28       		.byte	40
 2396 071c 1E       		.byte	30
 2397 071d 02       		.byte	2
 2398 071e 1F       		.byte	31
 2399 071f 40       		.byte	64
 2400 0720 25       		.byte	37
 2401 0721 40       		.byte	64
 2402 0722 26       		.byte	38
 2403 0723 04       		.byte	4
 2404 0724 27       		.byte	39
 2405 0725 12       		.byte	18
 2406 0726 2C       		.byte	44
 2407 0727 01       		.byte	1
 2408 0728 2F       		.byte	47
 2409 0729 68       		.byte	104
 2410 072a 36       		.byte	54
 2411 072b 82       		.byte	-126
 2412 072c 37       		.byte	55
 2413 072d 14       		.byte	20
 2414 072e 3C       		.byte	60
 2415 072f 10       		.byte	16
ARM GAS  C:\DOCUME~1\ADMINI~1\LOCALS~1\Temp\ccEzm20X.s 			page 74


 2416 0730 3F       		.byte	63
 2417 0731 84       		.byte	-124
 2418 0732 40       		.byte	64
 2419 0733 04       		.byte	4
 2420 0734 48       		.byte	72
 2421 0735 84       		.byte	-124
 2422 0736 49       		.byte	73
 2423 0737 08       		.byte	8
 2424 0738 5C       		.byte	92
 2425 0739 02       		.byte	2
 2426 073a 5D       		.byte	93
 2427 073b 80       		.byte	-128
 2428 073c 5E       		.byte	94
 2429 073d 18       		.byte	24
 2430 073e 65       		.byte	101
 2431 073f 42       		.byte	66
 2432 0740 66       		.byte	102
 2433 0741 20       		.byte	32
 2434 0742 82       		.byte	-126
 2435 0743 31       		.byte	49
 2436 0744 85       		.byte	-123
 2437 0745 02       		.byte	2
 2438 0746 87       		.byte	-121
 2439 0747 04       		.byte	4
 2440 0748 88       		.byte	-120
 2441 0749 10       		.byte	16
 2442 074a 94       		.byte	-108
 2443 074b 10       		.byte	16
 2444 074c 98       		.byte	-104
 2445 074d 02       		.byte	2
 2446 074e 99       		.byte	-103
 2447 074f 80       		.byte	-128
 2448 0750 9A       		.byte	-102
 2449 0751 28       		.byte	40
 2450 0752 9B       		.byte	-101
 2451 0753 04       		.byte	4
 2452 0754 A2       		.byte	-94
 2453 0755 80       		.byte	-128
 2454 0756 A3       		.byte	-93
 2455 0757 40       		.byte	64
 2456 0758 A8       		.byte	-88
 2457 0759 10       		.byte	16
 2458 075a B5       		.byte	-75
 2459 075b 80       		.byte	-128
 2460 075c B6       		.byte	-74
 2461 075d 08       		.byte	8
 2462 075e C0       		.byte	-64
 2463 075f EF       		.byte	-17
 2464 0760 C2       		.byte	-62
 2465 0761 FB       		.byte	-5
 2466 0762 C4       		.byte	-60
 2467 0763 BD       		.byte	-67
 2468 0764 CA       		.byte	-54
 2469 0765 F0       		.byte	-16
 2470 0766 CC       		.byte	-52
 2471 0767 F0       		.byte	-16
 2472 0768 CE       		.byte	-50
ARM GAS  C:\DOCUME~1\ADMINI~1\LOCALS~1\Temp\ccEzm20X.s 			page 75


 2473 0769 70       		.byte	112
 2474 076a D0       		.byte	-48
 2475 076b 04       		.byte	4
 2476 076c D2       		.byte	-46
 2477 076d 04       		.byte	4
 2478 076e D6       		.byte	-42
 2479 076f F0       		.byte	-16
 2480 0770 D8       		.byte	-40
 2481 0771 B0       		.byte	-80
 2482 0772 E6       		.byte	-26
 2483 0773 80       		.byte	-128
 2484 0774 E8       		.byte	-24
 2485 0775 10       		.byte	16
 2486 0776 EA       		.byte	-22
 2487 0777 01       		.byte	1
 2488 0778 EC       		.byte	-20
 2489 0779 40       		.byte	64
 2490 077a EE       		.byte	-18
 2491 077b 04       		.byte	4
 2492 077c 8C       		.byte	-116
 2493 077d 02       		.byte	2
 2494 077e 8E       		.byte	-114
 2495 077f 80       		.byte	-128
 2496 0780 9A       		.byte	-102
 2497 0781 20       		.byte	32
 2498 0782 9B       		.byte	-101
 2499 0783 04       		.byte	4
 2500 0784 A3       		.byte	-93
 2501 0785 40       		.byte	64
 2502 0786 B7       		.byte	-73
 2503 0787 04       		.byte	4
 2504 0788 E0       		.byte	-32
 2505 0789 50       		.byte	80
 2506 078a E2       		.byte	-30
 2507 078b 08       		.byte	8
 2508 078c EC       		.byte	-20
 2509 078d 10       		.byte	16
 2510 078e EE       		.byte	-18
 2511 078f 01       		.byte	1
 2512 0790 9A       		.byte	-102
 2513 0791 20       		.byte	32
 2514 0792 A3       		.byte	-93
 2515 0793 40       		.byte	64
 2516 0794 B2       		.byte	-78
 2517 0795 20       		.byte	32
 2518 0796 B7       		.byte	-73
 2519 0797 40       		.byte	64
 2520 0798 E6       		.byte	-26
 2521 0799 01       		.byte	1
 2522 079a EA       		.byte	-22
 2523 079b 08       		.byte	8
 2524 079c EC       		.byte	-20
 2525 079d C0       		.byte	-64
 2526 079e 88       		.byte	-120
 2527 079f 40       		.byte	64
 2528 07a0 9C       		.byte	-100
 2529 07a1 40       		.byte	64
ARM GAS  C:\DOCUME~1\ADMINI~1\LOCALS~1\Temp\ccEzm20X.s 			page 76


 2530 07a2 A9       		.byte	-87
 2531 07a3 10       		.byte	16
 2532 07a4 AA       		.byte	-86
 2533 07a5 04       		.byte	4
 2534 07a6 AF       		.byte	-81
 2535 07a7 20       		.byte	32
 2536 07a8 E8       		.byte	-24
 2537 07a9 01       		.byte	1
 2538 07aa 01       		.byte	1
 2539 07ab 03       		.byte	3
 2540 07ac 05       		.byte	5
 2541 07ad 3F       		.byte	63
 2542 07ae 09       		.byte	9
 2543 07af 0E       		.byte	14
 2544 07b0 0B       		.byte	11
 2545 07b1 21       		.byte	33
 2546 07b2 0D       		.byte	13
 2547 07b3 29       		.byte	41
 2548 07b4 0F       		.byte	15
 2549 07b5 04       		.byte	4
 2550 07b6 11       		.byte	17
 2551 07b7 21       		.byte	33
 2552 07b8 13       		.byte	19
 2553 07b9 0C       		.byte	12
 2554 07ba 15       		.byte	21
 2555 07bb 25       		.byte	37
 2556 07bc 17       		.byte	23
 2557 07bd 08       		.byte	8
 2558 07be 18       		.byte	24
 2559 07bf 01       		.byte	1
 2560 07c0 1B       		.byte	27
 2561 07c1 40       		.byte	64
 2562 07c2 1D       		.byte	29
 2563 07c3 10       		.byte	16
 2564 07c4 21       		.byte	33
 2565 07c5 21       		.byte	33
 2566 07c6 25       		.byte	37
 2567 07c7 02       		.byte	2
 2568 07c8 26       		.byte	38
 2569 07c9 02       		.byte	2
 2570 07ca 29       		.byte	41
 2571 07cb 0C       		.byte	12
 2572 07cc 2B       		.byte	43
 2573 07cd 03       		.byte	3
 2574 07ce 2D       		.byte	45
 2575 07cf 10       		.byte	16
 2576 07d0 2F       		.byte	47
 2577 07d1 0F       		.byte	15
 2578 07d2 31       		.byte	49
 2579 07d3 1F       		.byte	31
 2580 07d4 34       		.byte	52
 2581 07d5 01       		.byte	1
 2582 07d6 35       		.byte	53
 2583 07d7 60       		.byte	96
 2584 07d8 36       		.byte	54
 2585 07d9 02       		.byte	2
 2586 07da 39       		.byte	57
ARM GAS  C:\DOCUME~1\ADMINI~1\LOCALS~1\Temp\ccEzm20X.s 			page 77


 2587 07db 02       		.byte	2
 2588 07dc 3E       		.byte	62
 2589 07dd 10       		.byte	16
 2590 07de 40       		.byte	64
 2591 07df 52       		.byte	82
 2592 07e0 44       		.byte	68
 2593 07e1 03       		.byte	3
 2594 07e2 47       		.byte	71
 2595 07e3 DB       		.byte	-37
 2596 07e4 48       		.byte	72
 2597 07e5 30       		.byte	48
 2598 07e6 49       		.byte	73
 2599 07e7 FF       		.byte	-1
 2600 07e8 4A       		.byte	74
 2601 07e9 7F       		.byte	127
 2602 07ea 4B       		.byte	75
 2603 07eb FF       		.byte	-1
 2604 07ec 4C       		.byte	76
 2605 07ed 42       		.byte	66
 2606 07ee 4D       		.byte	77
 2607 07ef A0       		.byte	-96
 2608 07f0 4E       		.byte	78
 2609 07f1 70       		.byte	112
 2610 07f2 50       		.byte	80
 2611 07f3 0C       		.byte	12
 2612 07f4 58       		.byte	88
 2613 07f5 04       		.byte	4
 2614 07f6 59       		.byte	89
 2615 07f7 04       		.byte	4
 2616 07f8 5A       		.byte	90
 2617 07f9 04       		.byte	4
 2618 07fa 5F       		.byte	95
 2619 07fb 01       		.byte	1
 2620 07fc 61       		.byte	97
 2621 07fd 09       		.byte	9
 2622 07fe 62       		.byte	98
 2623 07ff 40       		.byte	64
 2624 0800 63       		.byte	99
 2625 0801 09       		.byte	9
 2626 0802 64       		.byte	100
 2627 0803 30       		.byte	48
 2628 0804 65       		.byte	101
 2629 0805 09       		.byte	9
 2630 0806 80       		.byte	-128
 2631 0807 03       		.byte	3
 2632 0808 84       		.byte	-124
 2633 0809 01       		.byte	1
 2634 080a 85       		.byte	-123
 2635 080b 01       		.byte	1
 2636 080c 88       		.byte	-120
 2637 080d 05       		.byte	5
 2638 080e 8A       		.byte	-118
 2639 080f 78       		.byte	120
 2640 0810 8C       		.byte	-116
 2641 0811 22       		.byte	34
 2642 0812 8E       		.byte	-114
 2643 0813 05       		.byte	5
ARM GAS  C:\DOCUME~1\ADMINI~1\LOCALS~1\Temp\ccEzm20X.s 			page 78


 2644 0814 8F       		.byte	-113
 2645 0815 02       		.byte	2
 2646 0816 90       		.byte	-112
 2647 0817 FF       		.byte	-1
 2648 0818 91       		.byte	-111
 2649 0819 01       		.byte	1
 2650 081a 94       		.byte	-108
 2651 081b 3A       		.byte	58
 2652 081c 96       		.byte	-106
 2653 081d 04       		.byte	4
 2654 081e 98       		.byte	-104
 2655 081f 01       		.byte	1
 2656 0820 99       		.byte	-103
 2657 0821 01       		.byte	1
 2658 0822 9C       		.byte	-100
 2659 0823 10       		.byte	16
 2660 0824 9E       		.byte	-98
 2661 0825 07       		.byte	7
 2662 0826 9F       		.byte	-97
 2663 0827 02       		.byte	2
 2664 0828 A0       		.byte	-96
 2665 0829 C0       		.byte	-64
 2666 082a A2       		.byte	-94
 2667 082b 07       		.byte	7
 2668 082c A4       		.byte	-92
 2669 082d 08       		.byte	8
 2670 082e A6       		.byte	-90
 2671 082f 07       		.byte	7
 2672 0830 A8       		.byte	-88
 2673 0831 01       		.byte	1
 2674 0832 AC       		.byte	-84
 2675 0833 03       		.byte	3
 2676 0834 B1       		.byte	-79
 2677 0835 01       		.byte	1
 2678 0836 B4       		.byte	-76
 2679 0837 7F       		.byte	127
 2680 0838 B5       		.byte	-75
 2681 0839 02       		.byte	2
 2682 083a B6       		.byte	-74
 2683 083b 80       		.byte	-128
 2684 083c B8       		.byte	-72
 2685 083d 80       		.byte	-128
 2686 083e B9       		.byte	-71
 2687 083f 08       		.byte	8
 2688 0840 BE       		.byte	-66
 2689 0841 10       		.byte	16
 2690 0842 BF       		.byte	-65
 2691 0843 14       		.byte	20
 2692 0844 D6       		.byte	-42
 2693 0845 02       		.byte	2
 2694 0846 D7       		.byte	-41
 2695 0847 12       		.byte	18
 2696 0848 D8       		.byte	-40
 2697 0849 04       		.byte	4
 2698 084a D9       		.byte	-39
 2699 084b 04       		.byte	4
 2700 084c DB       		.byte	-37
ARM GAS  C:\DOCUME~1\ADMINI~1\LOCALS~1\Temp\ccEzm20X.s 			page 79


 2701 084d 04       		.byte	4
 2702 084e DC       		.byte	-36
 2703 084f 10       		.byte	16
 2704 0850 DD       		.byte	-35
 2705 0851 10       		.byte	16
 2706 0852 DF       		.byte	-33
 2707 0853 01       		.byte	1
 2708 0854 01       		.byte	1
 2709 0855 01       		.byte	1
 2710 0856 02       		.byte	2
 2711 0857 04       		.byte	4
 2712 0858 03       		.byte	3
 2713 0859 11       		.byte	17
 2714 085a 08       		.byte	8
 2715 085b 10       		.byte	16
 2716 085c 09       		.byte	9
 2717 085d 42       		.byte	66
 2718 085e 0A       		.byte	10
 2719 085f 12       		.byte	18
 2720 0860 0F       		.byte	15
 2721 0861 08       		.byte	8
 2722 0862 10       		.byte	16
 2723 0863 08       		.byte	8
 2724 0864 11       		.byte	17
 2725 0865 0A       		.byte	10
 2726 0866 12       		.byte	18
 2727 0867 01       		.byte	1
 2728 0868 13       		.byte	19
 2729 0869 08       		.byte	8
 2730 086a 16       		.byte	22
 2731 086b 20       		.byte	32
 2732 086c 19       		.byte	25
 2733 086d A0       		.byte	-96
 2734 086e 1D       		.byte	29
 2735 086f 10       		.byte	16
 2736 0870 1E       		.byte	30
 2737 0871 02       		.byte	2
 2738 0872 22       		.byte	34
 2739 0873 22       		.byte	34
 2740 0874 23       		.byte	35
 2741 0875 20       		.byte	32
 2742 0876 24       		.byte	36
 2743 0877 04       		.byte	4
 2744 0878 25       		.byte	37
 2745 0879 10       		.byte	16
 2746 087a 27       		.byte	39
 2747 087b 40       		.byte	64
 2748 087c 2C       		.byte	44
 2749 087d 80       		.byte	-128
 2750 087e 2D       		.byte	45
 2751 087f 80       		.byte	-128
 2752 0880 2E       		.byte	46
 2753 0881 18       		.byte	24
 2754 0882 30       		.byte	48
 2755 0883 02       		.byte	2
 2756 0884 32       		.byte	50
 2757 0885 50       		.byte	80
ARM GAS  C:\DOCUME~1\ADMINI~1\LOCALS~1\Temp\ccEzm20X.s 			page 80


 2758 0886 35       		.byte	53
 2759 0887 20       		.byte	32
 2760 0888 37       		.byte	55
 2761 0889 49       		.byte	73
 2762 088a 39       		.byte	57
 2763 088b 84       		.byte	-124
 2764 088c 3D       		.byte	61
 2765 088d A1       		.byte	-95
 2766 088e 3E       		.byte	62
 2767 088f 04       		.byte	4
 2768 0890 44       		.byte	68
 2769 0891 04       		.byte	4
 2770 0892 46       		.byte	70
 2771 0893 20       		.byte	32
 2772 0894 4F       		.byte	79
 2773 0895 80       		.byte	-128
 2774 0896 54       		.byte	84
 2775 0897 01       		.byte	1
 2776 0898 56       		.byte	86
 2777 0899 0B       		.byte	11
 2778 089a 5A       		.byte	90
 2779 089b 08       		.byte	8
 2780 089c 68       		.byte	104
 2781 089d 12       		.byte	18
 2782 089e 69       		.byte	105
 2783 089f 04       		.byte	4
 2784 08a0 6A       		.byte	106
 2785 08a1 20       		.byte	32
 2786 08a2 70       		.byte	112
 2787 08a3 20       		.byte	32
 2788 08a4 71       		.byte	113
 2789 08a5 08       		.byte	8
 2790 08a6 72       		.byte	114
 2791 08a7 01       		.byte	1
 2792 08a8 7C       		.byte	124
 2793 08a9 04       		.byte	4
 2794 08aa 7F       		.byte	127
 2795 08ab 10       		.byte	16
 2796 08ac 81       		.byte	-127
 2797 08ad 10       		.byte	16
 2798 08ae 83       		.byte	-125
 2799 08af 40       		.byte	64
 2800 08b0 84       		.byte	-124
 2801 08b1 02       		.byte	2
 2802 08b2 86       		.byte	-122
 2803 08b3 20       		.byte	32
 2804 08b4 88       		.byte	-120
 2805 08b5 01       		.byte	1
 2806 08b6 8F       		.byte	-113
 2807 08b7 20       		.byte	32
 2808 08b8 91       		.byte	-111
 2809 08b9 81       		.byte	-127
 2810 08ba 92       		.byte	-110
 2811 08bb 9E       		.byte	-98
 2812 08bc 96       		.byte	-106
 2813 08bd 21       		.byte	33
 2814 08be 97       		.byte	-105
ARM GAS  C:\DOCUME~1\ADMINI~1\LOCALS~1\Temp\ccEzm20X.s 			page 81


 2815 08bf 20       		.byte	32
 2816 08c0 98       		.byte	-104
 2817 08c1 14       		.byte	20
 2818 08c2 9A       		.byte	-102
 2819 08c3 20       		.byte	32
 2820 08c4 9B       		.byte	-101
 2821 08c5 11       		.byte	17
 2822 08c6 9C       		.byte	-100
 2823 08c7 42       		.byte	66
 2824 08c8 9E       		.byte	-98
 2825 08c9 07       		.byte	7
 2826 08ca A0       		.byte	-96
 2827 08cb 88       		.byte	-120
 2828 08cc A1       		.byte	-95
 2829 08cd 07       		.byte	7
 2830 08ce A3       		.byte	-93
 2831 08cf 44       		.byte	68
 2832 08d0 A4       		.byte	-92
 2833 08d1 30       		.byte	48
 2834 08d2 A5       		.byte	-91
 2835 08d3 18       		.byte	24
 2836 08d4 A6       		.byte	-90
 2837 08d5 03       		.byte	3
 2838 08d6 AD       		.byte	-83
 2839 08d7 02       		.byte	2
 2840 08d8 B1       		.byte	-79
 2841 08d9 02       		.byte	2
 2842 08da B2       		.byte	-78
 2843 08db 14       		.byte	20
 2844 08dc B4       		.byte	-76
 2845 08dd 04       		.byte	4
 2846 08de C0       		.byte	-64
 2847 08df 0F       		.byte	15
 2848 08e0 C2       		.byte	-62
 2849 08e1 4F       		.byte	79
 2850 08e2 C4       		.byte	-60
 2851 08e3 2F       		.byte	47
 2852 08e4 CA       		.byte	-54
 2853 08e5 F0       		.byte	-16
 2854 08e6 CC       		.byte	-52
 2855 08e7 FD       		.byte	-3
 2856 08e8 CE       		.byte	-50
 2857 08e9 FA       		.byte	-6
 2858 08ea D0       		.byte	-48
 2859 08eb 60       		.byte	96
 2860 08ec D2       		.byte	-46
 2861 08ed 10       		.byte	16
 2862 08ee D6       		.byte	-42
 2863 08ef 02       		.byte	2
 2864 08f0 E0       		.byte	-32
 2865 08f1 02       		.byte	2
 2866 08f2 E4       		.byte	-28
 2867 08f3 04       		.byte	4
 2868 08f4 EA       		.byte	-22
 2869 08f5 08       		.byte	8
 2870 08f6 EC       		.byte	-20
 2871 08f7 08       		.byte	8
ARM GAS  C:\DOCUME~1\ADMINI~1\LOCALS~1\Temp\ccEzm20X.s 			page 82


 2872 08f8 88       		.byte	-120
 2873 08f9 40       		.byte	64
 2874 08fa 9C       		.byte	-100
 2875 08fb 40       		.byte	64
 2876 08fc A5       		.byte	-91
 2877 08fd 08       		.byte	8
 2878 08fe A6       		.byte	-90
 2879 08ff 02       		.byte	2
 2880 0900 AD       		.byte	-83
 2881 0901 40       		.byte	64
 2882 0902 B0       		.byte	-80
 2883 0903 01       		.byte	1
 2884 0904 B3       		.byte	-77
 2885 0905 20       		.byte	32
 2886 0906 B5       		.byte	-75
 2887 0907 04       		.byte	4
 2888 0908 B7       		.byte	-73
 2889 0909 48       		.byte	72
 2890 090a E0       		.byte	-32
 2891 090b 82       		.byte	-126
 2892 090c E4       		.byte	-28
 2893 090d 14       		.byte	20
 2894 090e E8       		.byte	-24
 2895 090f 90       		.byte	-112
 2896 0910 EA       		.byte	-22
 2897 0911 08       		.byte	8
 2898 0912 EC       		.byte	-20
 2899 0913 20       		.byte	32
 2900 0914 A9       		.byte	-87
 2901 0915 08       		.byte	8
 2902 0916 AA       		.byte	-86
 2903 0917 02       		.byte	2
 2904 0918 E2       		.byte	-30
 2905 0919 80       		.byte	-128
 2906 091a 30       		.byte	48
 2907 091b 40       		.byte	64
 2908 091c 33       		.byte	51
 2909 091d 02       		.byte	2
 2910 091e 37       		.byte	55
 2911 091f 42       		.byte	66
 2912 0920 3A       		.byte	58
 2913 0921 40       		.byte	64
 2914 0922 CC       		.byte	-52
 2915 0923 F0       		.byte	-16
 2916 0924 CE       		.byte	-50
 2917 0925 10       		.byte	16
 2918 0926 30       		.byte	48
 2919 0927 20       		.byte	32
 2920 0928 31       		.byte	49
 2921 0929 04       		.byte	4
 2922 092a 36       		.byte	54
 2923 092b 80       		.byte	-128
 2924 092c 37       		.byte	55
 2925 092d 08       		.byte	8
 2926 092e 3B       		.byte	59
 2927 092f 80       		.byte	-128
 2928 0930 81       		.byte	-127
ARM GAS  C:\DOCUME~1\ADMINI~1\LOCALS~1\Temp\ccEzm20X.s 			page 83


 2929 0931 04       		.byte	4
 2930 0932 87       		.byte	-121
 2931 0933 02       		.byte	2
 2932 0934 9C       		.byte	-100
 2933 0935 40       		.byte	64
 2934 0936 9F       		.byte	-97
 2935 0937 42       		.byte	66
 2936 0938 A7       		.byte	-89
 2937 0939 02       		.byte	2
 2938 093a AE       		.byte	-82
 2939 093b 40       		.byte	64
 2940 093c CC       		.byte	-52
 2941 093d F0       		.byte	-16
 2942 093e CE       		.byte	-50
 2943 093f 10       		.byte	16
 2944 0940 E2       		.byte	-30
 2945 0941 10       		.byte	16
 2946 0942 E6       		.byte	-26
 2947 0943 80       		.byte	-128
 2948 0944 EA       		.byte	-22
 2949 0945 10       		.byte	16
 2950 0946 53       		.byte	83
 2951 0947 08       		.byte	8
 2952 0948 87       		.byte	-121
 2953 0949 40       		.byte	64
 2954 094a 89       		.byte	-119
 2955 094b 04       		.byte	4
 2956 094c 97       		.byte	-105
 2957 094d 80       		.byte	-128
 2958 094e 9C       		.byte	-100
 2959 094f 40       		.byte	64
 2960 0950 9F       		.byte	-97
 2961 0951 08       		.byte	8
 2962 0952 A4       		.byte	-92
 2963 0953 20       		.byte	32
 2964 0954 A6       		.byte	-90
 2965 0955 80       		.byte	-128
 2966 0956 AB       		.byte	-85
 2967 0957 02       		.byte	2
 2968 0958 B7       		.byte	-73
 2969 0959 40       		.byte	64
 2970 095a D4       		.byte	-44
 2971 095b 20       		.byte	32
 2972 095c E2       		.byte	-30
 2973 095d 10       		.byte	16
 2974 095e EE       		.byte	-18
 2975 095f 80       		.byte	-128
 2976 0960 84       		.byte	-124
 2977 0961 40       		.byte	64
 2978 0962 8C       		.byte	-116
 2979 0963 20       		.byte	32
 2980 0964 95       		.byte	-107
 2981 0965 04       		.byte	4
 2982 0966 9C       		.byte	-100
 2983 0967 40       		.byte	64
 2984 0968 9F       		.byte	-97
 2985 0969 08       		.byte	8
ARM GAS  C:\DOCUME~1\ADMINI~1\LOCALS~1\Temp\ccEzm20X.s 			page 84


 2986 096a A8       		.byte	-88
 2987 096b 20       		.byte	32
 2988 096c AA       		.byte	-86
 2989 096d 80       		.byte	-128
 2990 096e AB       		.byte	-85
 2991 096f 08       		.byte	8
 2992 0970 E6       		.byte	-26
 2993 0971 10       		.byte	16
 2994 0972 EA       		.byte	-22
 2995 0973 80       		.byte	-128
 2996 0974 EE       		.byte	-18
 2997 0975 A0       		.byte	-96
 2998 0976 7D       		.byte	125
 2999 0977 20       		.byte	32
 3000 0978 DE       		.byte	-34
 3001 0979 01       		.byte	1
 3002 097a 83       		.byte	-125
 3003 097b 02       		.byte	2
 3004 097c A4       		.byte	-92
 3005 097d 02       		.byte	2
 3006 097e A5       		.byte	-91
 3007 097f 10       		.byte	16
 3008 0980 AC       		.byte	-84
 3009 0981 02       		.byte	2
 3010 0982 46       		.byte	70
 3011 0983 10       		.byte	16
 3012 0984 87       		.byte	-121
 3013 0985 10       		.byte	16
 3014 0986 9C       		.byte	-100
 3015 0987 02       		.byte	2
 3016 0988 9F       		.byte	-97
 3017 0989 02       		.byte	2
 3018 098a A4       		.byte	-92
 3019 098b 02       		.byte	2
 3020 098c A5       		.byte	-91
 3021 098d 10       		.byte	16
 3022 098e A8       		.byte	-88
 3023 098f 02       		.byte	2
 3024 0990 D0       		.byte	-48
 3025 0991 01       		.byte	1
 3026 0992 08       		.byte	8
 3027 0993 02       		.byte	2
 3028 0994 0B       		.byte	11
 3029 0995 01       		.byte	1
 3030 0996 0C       		.byte	12
 3031 0997 02       		.byte	2
 3032 0998 0F       		.byte	15
 3033 0999 08       		.byte	8
 3034 099a 13       		.byte	19
 3035 099b 12       		.byte	18
 3036 099c 16       		.byte	22
 3037 099d 40       		.byte	64
 3038 099e 97       		.byte	-105
 3039 099f 11       		.byte	17
 3040 09a0 9C       		.byte	-100
 3041 09a1 02       		.byte	2
 3042 09a2 9E       		.byte	-98
ARM GAS  C:\DOCUME~1\ADMINI~1\LOCALS~1\Temp\ccEzm20X.s 			page 85


 3043 09a3 10       		.byte	16
 3044 09a4 9F       		.byte	-97
 3045 09a5 02       		.byte	2
 3046 09a6 A4       		.byte	-92
 3047 09a7 02       		.byte	2
 3048 09a8 A5       		.byte	-91
 3049 09a9 10       		.byte	16
 3050 09aa A7       		.byte	-89
 3051 09ab 04       		.byte	4
 3052 09ac AB       		.byte	-85
 3053 09ad 05       		.byte	5
 3054 09ae C2       		.byte	-62
 3055 09af 0F       		.byte	15
 3056 09b0 C4       		.byte	-60
 3057 09b1 0E       		.byte	14
 3058 09b2 27       		.byte	39
 3059 09b3 20       		.byte	32
 3060 09b4 66       		.byte	102
 3061 09b5 10       		.byte	16
 3062 09b6 80       		.byte	-128
 3063 09b7 80       		.byte	-128
 3064 09b8 87       		.byte	-121
 3065 09b9 20       		.byte	32
 3066 09ba 95       		.byte	-107
 3067 09bb 04       		.byte	4
 3068 09bc 9C       		.byte	-100
 3069 09bd 20       		.byte	32
 3070 09be AF       		.byte	-81
 3071 09bf 08       		.byte	8
 3072 09c0 C8       		.byte	-56
 3073 09c1 80       		.byte	-128
 3074 09c2 D8       		.byte	-40
 3075 09c3 80       		.byte	-128
 3076 09c4 E0       		.byte	-32
 3077 09c5 40       		.byte	64
 3078 09c6 E6       		.byte	-26
 3079 09c7 80       		.byte	-128
 3080 09c8 EA       		.byte	-22
 3081 09c9 10       		.byte	16
 3082 09ca 11       		.byte	17
 3083 09cb 04       		.byte	4
 3084 09cc 14       		.byte	20
 3085 09cd 20       		.byte	32
 3086 09ce 7C       		.byte	124
 3087 09cf 80       		.byte	-128
 3088 09d0 95       		.byte	-107
 3089 09d1 04       		.byte	4
 3090 09d2 98       		.byte	-104
 3091 09d3 80       		.byte	-128
 3092 09d4 9C       		.byte	-100
 3093 09d5 20       		.byte	32
 3094 09d6 AE       		.byte	-82
 3095 09d7 10       		.byte	16
 3096 09d8 C4       		.byte	-60
 3097 09d9 30       		.byte	48
 3098 09da DE       		.byte	-34
 3099 09db 20       		.byte	32
ARM GAS  C:\DOCUME~1\ADMINI~1\LOCALS~1\Temp\ccEzm20X.s 			page 86


 3100 09dc EA       		.byte	-22
 3101 09dd 40       		.byte	64
 3102 09de 81       		.byte	-127
 3103 09df 02       		.byte	2
 3104 09e0 86       		.byte	-122
 3105 09e1 10       		.byte	16
 3106 09e2 8D       		.byte	-115
 3107 09e3 10       		.byte	16
 3108 09e4 9E       		.byte	-98
 3109 09e5 10       		.byte	16
 3110 09e6 A5       		.byte	-91
 3111 09e7 10       		.byte	16
 3112 09e8 AE       		.byte	-82
 3113 09e9 40       		.byte	64
 3114 09ea E4       		.byte	-28
 3115 09eb 08       		.byte	8
 3116 09ec 10       		.byte	16
 3117 09ed 40       		.byte	64
 3118 09ee 75       		.byte	117
 3119 09ef 02       		.byte	2
 3120 09f0 88       		.byte	-120
 3121 09f1 40       		.byte	64
 3122 09f2 99       		.byte	-103
 3123 09f3 02       		.byte	2
 3124 09f4 C4       		.byte	-60
 3125 09f5 08       		.byte	8
 3126 09f6 DE       		.byte	-34
 3127 09f7 04       		.byte	4
 3128 09f8 E2       		.byte	-30
 3129 09f9 01       		.byte	1
 3130 09fa 00       		.byte	0
 3131 09fb 03       		.byte	3
 3132 09fc 01       		.byte	1
 3133 09fd 01       		.byte	1
 3134 09fe 08       		.byte	8
 3135 09ff 03       		.byte	3
 3136 0a00 09       		.byte	9
 3137 0a01 01       		.byte	1
 3138 0a02 0A       		.byte	10
 3139 0a03 03       		.byte	3
 3140 0a04 0B       		.byte	11
 3141 0a05 01       		.byte	1
 3142 0a06 0C       		.byte	12
 3143 0a07 01       		.byte	1
 3144 0a08 10       		.byte	16
 3145 0a09 03       		.byte	3
 3146 0a0a 1A       		.byte	26
 3147 0a0b 03       		.byte	3
 3148 0a0c 00       		.byte	0
 3149 0a0d BF       		.byte	-65
 3150 0a0e 01       		.byte	1
 3151 0a0f AA       		.byte	-86
 3152 0a10 02       		.byte	2
 3153 0a11 0A       		.byte	10
 3154 0a12 0000     		.space	2
 3155              		.type	BS_IOPINS0_0_VAL.2137, %object
 3156              		.size	BS_IOPINS0_0_VAL.2137, 8
ARM GAS  C:\DOCUME~1\ADMINI~1\LOCALS~1\Temp\ccEzm20X.s 			page 87


 3157              	BS_IOPINS0_0_VAL.2137:
 3158 0a14 F0       		.byte	-16
 3159 0a15 00       		.byte	0
 3160 0a16 00       		.byte	0
 3161 0a17 00       		.byte	0
 3162 0a18 00       		.byte	0
 3163 0a19 00       		.byte	0
 3164 0a1a 00       		.byte	0
 3165 0a1b 00       		.byte	0
 3166              		.type	BS_IOPINS0_7_VAL.2138, %object
 3167              		.size	BS_IOPINS0_7_VAL.2138, 10
 3168              	BS_IOPINS0_7_VAL.2138:
 3169 0a1c 0C       		.byte	12
 3170 0a1d 00       		.byte	0
 3171 0a1e 4C       		.byte	76
 3172 0a1f 80       		.byte	-128
 3173 0a20 83       		.byte	-125
 3174 0a21 00       		.byte	0
 3175 0a22 83       		.byte	-125
 3176 0a23 00       		.byte	0
 3177 0a24 00       		.byte	0
 3178 0a25 00       		.byte	0
 3179 0a26 0000     		.space	2
 3180              		.type	BS_IOPINS0_8_VAL.2139, %object
 3181              		.size	BS_IOPINS0_8_VAL.2139, 10
 3182              	BS_IOPINS0_8_VAL.2139:
 3183 0a28 00       		.byte	0
 3184 0a29 00       		.byte	0
 3185 0a2a 00       		.byte	0
 3186 0a2b 00       		.byte	0
 3187 0a2c 00       		.byte	0
 3188 0a2d 00       		.byte	0
 3189 0a2e 00       		.byte	0
 3190 0a2f 00       		.byte	0
 3191 0a30 C0       		.byte	-64
 3192 0a31 00       		.byte	0
 3193 0a32 0000     		.space	2
 3194              		.type	BS_IOPINS0_1_VAL.2140, %object
 3195              		.size	BS_IOPINS0_1_VAL.2140, 8
 3196              	BS_IOPINS0_1_VAL.2140:
 3197 0a34 40       		.byte	64
 3198 0a35 00       		.byte	0
 3199 0a36 00       		.byte	0
 3200 0a37 00       		.byte	0
 3201 0a38 00       		.byte	0
 3202 0a39 00       		.byte	0
 3203 0a3a 80       		.byte	-128
 3204 0a3b 00       		.byte	0
 3205              		.type	BS_IOPINS0_2_VAL.2141, %object
 3206              		.size	BS_IOPINS0_2_VAL.2141, 10
 3207              	BS_IOPINS0_2_VAL.2141:
 3208 0a3c 10       		.byte	16
 3209 0a3d 00       		.byte	0
 3210 0a3e 13       		.byte	19
 3211 0a3f 00       		.byte	0
 3212 0a40 00       		.byte	0
 3213 0a41 00       		.byte	0
ARM GAS  C:\DOCUME~1\ADMINI~1\LOCALS~1\Temp\ccEzm20X.s 			page 88


 3214 0a42 00       		.byte	0
 3215 0a43 00       		.byte	0
 3216 0a44 00       		.byte	0
 3217 0a45 00       		.byte	0
 3218 0a46 0000     		.space	2
 3219              		.type	BS_IOPINS0_3_VAL.2142, %object
 3220              		.size	BS_IOPINS0_3_VAL.2142, 8
 3221              	BS_IOPINS0_3_VAL.2142:
 3222 0a48 0C       		.byte	12
 3223 0a49 02       		.byte	2
 3224 0a4a 02       		.byte	2
 3225 0a4b 00       		.byte	0
 3226 0a4c 00       		.byte	0
 3227 0a4d 00       		.byte	0
 3228 0a4e 00       		.byte	0
 3229 0a4f 00       		.byte	0
 3230              		.text
 3231              	.Letext0: