ARM GAS  C:\DOCUME~1\ADMINI~1\LOCALS~1\Temp\ccpWDBk9.s 			page 1


   1              		.syntax unified
   2              		.cpu cortex-m3
   3              		.fpu softvfp
   4              		.eabi_attribute 20, 1
   5              		.eabi_attribute 21, 1
   6              		.eabi_attribute 23, 3
   7              		.eabi_attribute 24, 1
   8              		.eabi_attribute 25, 1
   9              		.eabi_attribute 26, 1
  10              		.eabi_attribute 30, 4
  11              		.eabi_attribute 18, 4
  12              		.thumb
  13              		.file	"CyFlash.c"
  20 0000 B5010000 		.text
  20      02006000 
  20      00000201 
  20      FB0E0D00 
  20      01010101 
  21              	.Ltext0:
  22              		.cfi_sections	.debug_frame
  23              		.section	.text.CyFlash_Stop,"ax",%progbits
  24              		.align	1
  25              		.global	CyFlash_Stop
  26              		.thumb
  27              		.thumb_func
  28              		.type	CyFlash_Stop, %function
  29              	CyFlash_Stop:
  30              	.LFB1:
  31              		.file 1 ".\\Generated_Source\\PSoC5\\CyFlash.c"
   1:.\Generated_Source\PSoC5/CyFlash.c **** /*******************************************************************************
   2:.\Generated_Source\PSoC5/CyFlash.c **** * File Name: CyFlash.c
   3:.\Generated_Source\PSoC5/CyFlash.c **** * Version 3.40
   4:.\Generated_Source\PSoC5/CyFlash.c **** *
   5:.\Generated_Source\PSoC5/CyFlash.c **** *  Description:
   6:.\Generated_Source\PSoC5/CyFlash.c **** *   Provides an API for the FLASH/EEPROM.
   7:.\Generated_Source\PSoC5/CyFlash.c **** *
   8:.\Generated_Source\PSoC5/CyFlash.c **** *  Note:
   9:.\Generated_Source\PSoC5/CyFlash.c **** *   This code is endian agnostic.
  10:.\Generated_Source\PSoC5/CyFlash.c **** *
  11:.\Generated_Source\PSoC5/CyFlash.c **** *  Note:
  12:.\Generated_Source\PSoC5/CyFlash.c **** *   Documentation of the API's in this file is located in the
  13:.\Generated_Source\PSoC5/CyFlash.c **** *   System Reference Guide provided with PSoC Creator.
  14:.\Generated_Source\PSoC5/CyFlash.c **** *
  15:.\Generated_Source\PSoC5/CyFlash.c **** ********************************************************************************
  16:.\Generated_Source\PSoC5/CyFlash.c **** * Copyright 2008-2013, Cypress Semiconductor Corporation. All rights reserved.
  17:.\Generated_Source\PSoC5/CyFlash.c **** * You may use this file only in accordance with the license, terms, conditions,
  18:.\Generated_Source\PSoC5/CyFlash.c **** * disclaimers, and limitations in the end user license agreement accompanying
  19:.\Generated_Source\PSoC5/CyFlash.c **** * the software package with which this file was provided.
  20:.\Generated_Source\PSoC5/CyFlash.c **** *******************************************************************************/
  21:.\Generated_Source\PSoC5/CyFlash.c **** 
  22:.\Generated_Source\PSoC5/CyFlash.c **** #include "CyFlash.h"
ARM GAS  C:\DOCUME~1\ADMINI~1\LOCALS~1\Temp\ccpWDBk9.s 			page 2


  23:.\Generated_Source\PSoC5/CyFlash.c **** 
  24:.\Generated_Source\PSoC5/CyFlash.c **** 
  25:.\Generated_Source\PSoC5/CyFlash.c **** /*******************************************************************************
  26:.\Generated_Source\PSoC5/CyFlash.c **** * Holds die temperature, updated by CySetTemp(). Used for flash writting.
  27:.\Generated_Source\PSoC5/CyFlash.c **** * The first byte is the sign of the temperature (0 = negative, 1 = positive).
  28:.\Generated_Source\PSoC5/CyFlash.c **** * The second byte is the magnitude.
  29:.\Generated_Source\PSoC5/CyFlash.c **** *******************************************************************************/
  30:.\Generated_Source\PSoC5/CyFlash.c **** uint8 dieTemperature[CY_FLASH_DIE_TEMP_DATA_SIZE];
  31:.\Generated_Source\PSoC5/CyFlash.c **** 
  32:.\Generated_Source\PSoC5/CyFlash.c **** #if(CYDEV_ECC_ENABLE == 0)
  33:.\Generated_Source\PSoC5/CyFlash.c ****     static uint8 * rowBuffer = 0;
  34:.\Generated_Source\PSoC5/CyFlash.c **** #endif  /* (CYDEV_ECC_ENABLE == 0) */
  35:.\Generated_Source\PSoC5/CyFlash.c **** 
  36:.\Generated_Source\PSoC5/CyFlash.c **** 
  37:.\Generated_Source\PSoC5/CyFlash.c **** static cystatus CySetTempInt(void);
  38:.\Generated_Source\PSoC5/CyFlash.c **** 
  39:.\Generated_Source\PSoC5/CyFlash.c **** 
  40:.\Generated_Source\PSoC5/CyFlash.c **** /*******************************************************************************
  41:.\Generated_Source\PSoC5/CyFlash.c **** * Function Name: CyFlash_Start
  42:.\Generated_Source\PSoC5/CyFlash.c **** ********************************************************************************
  43:.\Generated_Source\PSoC5/CyFlash.c **** *
  44:.\Generated_Source\PSoC5/CyFlash.c **** * Summary:
  45:.\Generated_Source\PSoC5/CyFlash.c **** *  Enable the EEPROM/Flash.
  46:.\Generated_Source\PSoC5/CyFlash.c **** *
  47:.\Generated_Source\PSoC5/CyFlash.c **** *  Note: For PSoC 5, this will enable both Flash and EEPROM. For PSoC 3 and
  48:.\Generated_Source\PSoC5/CyFlash.c **** *  PSOC 5LP  this will enable only Flash.
  49:.\Generated_Source\PSoC5/CyFlash.c **** *
  50:.\Generated_Source\PSoC5/CyFlash.c **** * Parameters:
  51:.\Generated_Source\PSoC5/CyFlash.c **** *  None
  52:.\Generated_Source\PSoC5/CyFlash.c **** *
  53:.\Generated_Source\PSoC5/CyFlash.c **** * Return:
  54:.\Generated_Source\PSoC5/CyFlash.c **** *  None
  55:.\Generated_Source\PSoC5/CyFlash.c **** *
  56:.\Generated_Source\PSoC5/CyFlash.c **** *******************************************************************************/
  57:.\Generated_Source\PSoC5/CyFlash.c **** void CyFlash_Start(void) 
  58:.\Generated_Source\PSoC5/CyFlash.c **** {
  59:.\Generated_Source\PSoC5/CyFlash.c ****     #if(CY_PSOC5A)
  60:.\Generated_Source\PSoC5/CyFlash.c **** 
  61:.\Generated_Source\PSoC5/CyFlash.c ****         /* Active Power Mode */
  62:.\Generated_Source\PSoC5/CyFlash.c ****         *CY_FLASH_PM_ACT_EEFLASH_PTR |= CY_FLASH_PM_FLASH_EE_MASK;
  63:.\Generated_Source\PSoC5/CyFlash.c **** 
  64:.\Generated_Source\PSoC5/CyFlash.c ****         /* Standby Power Mode */
  65:.\Generated_Source\PSoC5/CyFlash.c ****         *CY_FLASH_PM_ALTACT_EEFLASH_PTR |= CY_FLASH_PM_FLASH_EE_MASK;
  66:.\Generated_Source\PSoC5/CyFlash.c **** 
  67:.\Generated_Source\PSoC5/CyFlash.c ****     #endif  /* (CY_PSOC5A) */
  68:.\Generated_Source\PSoC5/CyFlash.c **** 
  69:.\Generated_Source\PSoC5/CyFlash.c ****     #if(CY_PSOC3 || CY_PSOC5LP)
  70:.\Generated_Source\PSoC5/CyFlash.c **** 
  71:.\Generated_Source\PSoC5/CyFlash.c ****         /* Active Power Mode */
  72:.\Generated_Source\PSoC5/CyFlash.c ****         *CY_FLASH_PM_ACT_EEFLASH_PTR |= CY_FLASH_PM_FLASH_MASK;
  73:.\Generated_Source\PSoC5/CyFlash.c **** 
  74:.\Generated_Source\PSoC5/CyFlash.c ****         /* Standby Power Mode */
  75:.\Generated_Source\PSoC5/CyFlash.c ****         *CY_FLASH_PM_ALTACT_EEFLASH_PTR |= CY_FLASH_PM_FLASH_MASK;
  76:.\Generated_Source\PSoC5/CyFlash.c **** 
  77:.\Generated_Source\PSoC5/CyFlash.c ****     #endif  /* (CY_PSOC3 || CY_PSOC5LP) */
  78:.\Generated_Source\PSoC5/CyFlash.c **** 
  79:.\Generated_Source\PSoC5/CyFlash.c ****     CyDelayUs(CY_FLASH_EE_STARTUP_DELAY);
ARM GAS  C:\DOCUME~1\ADMINI~1\LOCALS~1\Temp\ccpWDBk9.s 			page 3


  80:.\Generated_Source\PSoC5/CyFlash.c **** }
  81:.\Generated_Source\PSoC5/CyFlash.c **** 
  82:.\Generated_Source\PSoC5/CyFlash.c **** 
  83:.\Generated_Source\PSoC5/CyFlash.c **** /*******************************************************************************
  84:.\Generated_Source\PSoC5/CyFlash.c **** * Function Name: CyFlash_Stop
  85:.\Generated_Source\PSoC5/CyFlash.c **** ********************************************************************************
  86:.\Generated_Source\PSoC5/CyFlash.c **** *
  87:.\Generated_Source\PSoC5/CyFlash.c **** * Summary:
  88:.\Generated_Source\PSoC5/CyFlash.c **** *  Disable the EEPROM/Flash.
  89:.\Generated_Source\PSoC5/CyFlash.c **** *
  90:.\Generated_Source\PSoC5/CyFlash.c **** *  Note:
  91:.\Generated_Source\PSoC5/CyFlash.c **** *  PSoC 5: disable both Flash and EEPROM.
  92:.\Generated_Source\PSoC5/CyFlash.c **** *  PSoC 3 and PSOC 5LP: disable only Flash. Use CyEEPROM_Stop() to stop EEPROM.
  93:.\Generated_Source\PSoC5/CyFlash.c **** *
  94:.\Generated_Source\PSoC5/CyFlash.c **** * Parameters:
  95:.\Generated_Source\PSoC5/CyFlash.c **** *  None
  96:.\Generated_Source\PSoC5/CyFlash.c **** *
  97:.\Generated_Source\PSoC5/CyFlash.c **** * Return:
  98:.\Generated_Source\PSoC5/CyFlash.c **** *  None
  99:.\Generated_Source\PSoC5/CyFlash.c **** *
 100:.\Generated_Source\PSoC5/CyFlash.c **** * Side Effects:
 101:.\Generated_Source\PSoC5/CyFlash.c **** *  This setting is ignored as long as the CPU is currently running.  This will
 102:.\Generated_Source\PSoC5/CyFlash.c **** *  only take effect when the CPU is later disabled.
 103:.\Generated_Source\PSoC5/CyFlash.c **** *
 104:.\Generated_Source\PSoC5/CyFlash.c **** *******************************************************************************/
 105:.\Generated_Source\PSoC5/CyFlash.c **** void CyFlash_Stop(void) 
 106:.\Generated_Source\PSoC5/CyFlash.c **** {
  32              		.loc 1 106 0
  33              		.cfi_startproc
  34              		@ args = 0, pretend = 0, frame = 0
  35              		@ frame_needed = 0, uses_anonymous_args = 0
  36              		@ link register save eliminated.
 107:.\Generated_Source\PSoC5/CyFlash.c ****     #if (CY_PSOC5A)
 108:.\Generated_Source\PSoC5/CyFlash.c **** 
 109:.\Generated_Source\PSoC5/CyFlash.c ****         /* Active Power Mode */
 110:.\Generated_Source\PSoC5/CyFlash.c ****         *CY_FLASH_PM_ACT_EEFLASH_PTR &= ((uint8)(~CY_FLASH_PM_FLASH_EE_MASK));
 111:.\Generated_Source\PSoC5/CyFlash.c **** 
 112:.\Generated_Source\PSoC5/CyFlash.c ****         /* Standby Power Mode */
 113:.\Generated_Source\PSoC5/CyFlash.c ****         *CY_FLASH_PM_ALTACT_EEFLASH_PTR &= ((uint8)(~CY_FLASH_PM_FLASH_EE_MASK));
 114:.\Generated_Source\PSoC5/CyFlash.c **** 
 115:.\Generated_Source\PSoC5/CyFlash.c ****     #endif  /* (CY_PSOC5A) */
 116:.\Generated_Source\PSoC5/CyFlash.c **** 
 117:.\Generated_Source\PSoC5/CyFlash.c ****     #if (CY_PSOC3 || CY_PSOC5LP)
 118:.\Generated_Source\PSoC5/CyFlash.c **** 
 119:.\Generated_Source\PSoC5/CyFlash.c ****         /* Active Power Mode */
 120:.\Generated_Source\PSoC5/CyFlash.c ****         *CY_FLASH_PM_ACT_EEFLASH_PTR &= ((uint8)(~CY_FLASH_PM_FLASH_MASK));
  37              		.loc 1 120 0
  38 0000 054B     		ldr	r3, .L3
  39 0002 1A78     		ldrb	r2, [r3, #0]	@ zero_extendqisi2
  40 0004 02F0FE02 		and	r2, r2, #254
  41 0008 1A70     		strb	r2, [r3, #0]
 121:.\Generated_Source\PSoC5/CyFlash.c **** 
 122:.\Generated_Source\PSoC5/CyFlash.c ****         /* Standby Power Mode */
 123:.\Generated_Source\PSoC5/CyFlash.c ****         *CY_FLASH_PM_ALTACT_EEFLASH_PTR &= ((uint8)(~CY_FLASH_PM_FLASH_MASK));
  42              		.loc 1 123 0
  43 000a 1033     		adds	r3, r3, #16
  44 000c 1A78     		ldrb	r2, [r3, #0]	@ zero_extendqisi2
ARM GAS  C:\DOCUME~1\ADMINI~1\LOCALS~1\Temp\ccpWDBk9.s 			page 4


  45 000e 02F0FE02 		and	r2, r2, #254
  46 0012 1A70     		strb	r2, [r3, #0]
 124:.\Generated_Source\PSoC5/CyFlash.c **** 
 125:.\Generated_Source\PSoC5/CyFlash.c ****     #endif  /* (CY_PSOC3 || CY_PSOC5LP) */
 126:.\Generated_Source\PSoC5/CyFlash.c **** }
  47              		.loc 1 126 0
  48 0014 7047     		bx	lr
  49              	.L4:
  50 0016 00BF     		.align	2
  51              	.L3:
  52 0018 AC430040 		.word	1073759148
  53              		.cfi_endproc
  54              	.LFE1:
  55              		.size	CyFlash_Stop, .-CyFlash_Stop
  56              		.section	.text.CyEEPROM_Start,"ax",%progbits
  57              		.align	1
  58              		.global	CyEEPROM_Start
  59              		.thumb
  60              		.thumb_func
  61              		.type	CyEEPROM_Start, %function
  62              	CyEEPROM_Start:
  63              	.LFB9:
 127:.\Generated_Source\PSoC5/CyFlash.c **** 
 128:.\Generated_Source\PSoC5/CyFlash.c **** 
 129:.\Generated_Source\PSoC5/CyFlash.c **** /*******************************************************************************
 130:.\Generated_Source\PSoC5/CyFlash.c **** * Function Name: CySetTempInt
 131:.\Generated_Source\PSoC5/CyFlash.c **** ********************************************************************************
 132:.\Generated_Source\PSoC5/CyFlash.c **** *
 133:.\Generated_Source\PSoC5/CyFlash.c **** * Summary:
 134:.\Generated_Source\PSoC5/CyFlash.c **** *  Sends a command to the SPC to read the die temperature. Sets a global value
 135:.\Generated_Source\PSoC5/CyFlash.c **** *  used by the Write functions. This function must be called once before
 136:.\Generated_Source\PSoC5/CyFlash.c **** *  executing a series of Flash writing functions.
 137:.\Generated_Source\PSoC5/CyFlash.c **** *
 138:.\Generated_Source\PSoC5/CyFlash.c **** * Parameters:
 139:.\Generated_Source\PSoC5/CyFlash.c **** *  None
 140:.\Generated_Source\PSoC5/CyFlash.c **** *
 141:.\Generated_Source\PSoC5/CyFlash.c **** * Return:
 142:.\Generated_Source\PSoC5/CyFlash.c **** *  status:
 143:.\Generated_Source\PSoC5/CyFlash.c **** *   CYRET_SUCCESS - if successful
 144:.\Generated_Source\PSoC5/CyFlash.c **** *   CYRET_LOCKED  - if Flash writing already in use
 145:.\Generated_Source\PSoC5/CyFlash.c **** *   CYRET_UNKNOWN - if there was an SPC error
 146:.\Generated_Source\PSoC5/CyFlash.c **** *
 147:.\Generated_Source\PSoC5/CyFlash.c **** *******************************************************************************/
 148:.\Generated_Source\PSoC5/CyFlash.c **** static cystatus CySetTempInt(void) 
 149:.\Generated_Source\PSoC5/CyFlash.c **** {
 150:.\Generated_Source\PSoC5/CyFlash.c ****     cystatus status;
 151:.\Generated_Source\PSoC5/CyFlash.c **** 
 152:.\Generated_Source\PSoC5/CyFlash.c ****     /* Make sure SPC is powered */
 153:.\Generated_Source\PSoC5/CyFlash.c ****     CySpcStart();
 154:.\Generated_Source\PSoC5/CyFlash.c **** 
 155:.\Generated_Source\PSoC5/CyFlash.c ****     /* Plan for failure. */
 156:.\Generated_Source\PSoC5/CyFlash.c ****     status = CYRET_UNKNOWN;
 157:.\Generated_Source\PSoC5/CyFlash.c **** 
 158:.\Generated_Source\PSoC5/CyFlash.c ****     if(CySpcLock() == CYRET_SUCCESS)
 159:.\Generated_Source\PSoC5/CyFlash.c ****     {
 160:.\Generated_Source\PSoC5/CyFlash.c ****         /* Write the command. */
 161:.\Generated_Source\PSoC5/CyFlash.c ****         #if(CY_PSOC5A)
ARM GAS  C:\DOCUME~1\ADMINI~1\LOCALS~1\Temp\ccpWDBk9.s 			page 5


 162:.\Generated_Source\PSoC5/CyFlash.c ****             if(CYRET_STARTED == CySpcGetTemp(CY_TEMP_NUMBER_OF_SAMPLES, CY_TEMP_TIMER_PERIOD, CY_TE
 163:.\Generated_Source\PSoC5/CyFlash.c ****         #else
 164:.\Generated_Source\PSoC5/CyFlash.c ****             if(CYRET_STARTED == CySpcGetTemp(CY_TEMP_NUMBER_OF_SAMPLES))
 165:.\Generated_Source\PSoC5/CyFlash.c ****         #endif  /* (CY_PSOC5A) */
 166:.\Generated_Source\PSoC5/CyFlash.c ****             {
 167:.\Generated_Source\PSoC5/CyFlash.c ****                 do
 168:.\Generated_Source\PSoC5/CyFlash.c ****                 {
 169:.\Generated_Source\PSoC5/CyFlash.c ****                     if(CySpcReadData(dieTemperature, CY_FLASH_DIE_TEMP_DATA_SIZE) == CY_FLASH_DIE_T
 170:.\Generated_Source\PSoC5/CyFlash.c ****                     {
 171:.\Generated_Source\PSoC5/CyFlash.c ****                         status = CYRET_SUCCESS;
 172:.\Generated_Source\PSoC5/CyFlash.c **** 
 173:.\Generated_Source\PSoC5/CyFlash.c ****                         while(CY_SPC_BUSY)
 174:.\Generated_Source\PSoC5/CyFlash.c ****                         {
 175:.\Generated_Source\PSoC5/CyFlash.c ****                             /* Spin until idle. */
 176:.\Generated_Source\PSoC5/CyFlash.c ****                             CyDelayUs(1u);
 177:.\Generated_Source\PSoC5/CyFlash.c ****                         }
 178:.\Generated_Source\PSoC5/CyFlash.c ****                         break;
 179:.\Generated_Source\PSoC5/CyFlash.c ****                     }
 180:.\Generated_Source\PSoC5/CyFlash.c **** 
 181:.\Generated_Source\PSoC5/CyFlash.c ****                 } while(CY_SPC_BUSY);
 182:.\Generated_Source\PSoC5/CyFlash.c ****             }
 183:.\Generated_Source\PSoC5/CyFlash.c **** 
 184:.\Generated_Source\PSoC5/CyFlash.c ****             CySpcUnlock();
 185:.\Generated_Source\PSoC5/CyFlash.c ****     }
 186:.\Generated_Source\PSoC5/CyFlash.c ****     else
 187:.\Generated_Source\PSoC5/CyFlash.c ****     {
 188:.\Generated_Source\PSoC5/CyFlash.c ****         status = CYRET_LOCKED;
 189:.\Generated_Source\PSoC5/CyFlash.c ****     }
 190:.\Generated_Source\PSoC5/CyFlash.c **** 
 191:.\Generated_Source\PSoC5/CyFlash.c ****     return (status);
 192:.\Generated_Source\PSoC5/CyFlash.c **** }
 193:.\Generated_Source\PSoC5/CyFlash.c **** 
 194:.\Generated_Source\PSoC5/CyFlash.c **** 
 195:.\Generated_Source\PSoC5/CyFlash.c **** /*******************************************************************************
 196:.\Generated_Source\PSoC5/CyFlash.c **** * Function Name: CySetTemp
 197:.\Generated_Source\PSoC5/CyFlash.c **** ********************************************************************************
 198:.\Generated_Source\PSoC5/CyFlash.c **** *
 199:.\Generated_Source\PSoC5/CyFlash.c **** * Summary:
 200:.\Generated_Source\PSoC5/CyFlash.c **** *  This is a wraparound for CySetTempInt(). It is used to return second
 201:.\Generated_Source\PSoC5/CyFlash.c **** *  successful read of temperature value.
 202:.\Generated_Source\PSoC5/CyFlash.c **** *
 203:.\Generated_Source\PSoC5/CyFlash.c **** * Parameters:
 204:.\Generated_Source\PSoC5/CyFlash.c **** *  None
 205:.\Generated_Source\PSoC5/CyFlash.c **** *
 206:.\Generated_Source\PSoC5/CyFlash.c **** * Return:
 207:.\Generated_Source\PSoC5/CyFlash.c **** *  status:
 208:.\Generated_Source\PSoC5/CyFlash.c **** *   CYRET_SUCCESS if successful.
 209:.\Generated_Source\PSoC5/CyFlash.c **** *   CYRET_LOCKED  if Flash writing already in use
 210:.\Generated_Source\PSoC5/CyFlash.c **** *   CYRET_UNKNOWN if there was an SPC error.
 211:.\Generated_Source\PSoC5/CyFlash.c **** *
 212:.\Generated_Source\PSoC5/CyFlash.c **** *  uint8 dieTemperature[2]:
 213:.\Generated_Source\PSoC5/CyFlash.c **** *   Holds die temperature for the flash writting algorithm. The first byte is
 214:.\Generated_Source\PSoC5/CyFlash.c **** *   the sign of the temperature (0 = negative, 1 = positive). The second byte is
 215:.\Generated_Source\PSoC5/CyFlash.c **** *   the magnitude.
 216:.\Generated_Source\PSoC5/CyFlash.c **** *
 217:.\Generated_Source\PSoC5/CyFlash.c **** *******************************************************************************/
 218:.\Generated_Source\PSoC5/CyFlash.c **** cystatus CySetTemp(void) 
ARM GAS  C:\DOCUME~1\ADMINI~1\LOCALS~1\Temp\ccpWDBk9.s 			page 6


 219:.\Generated_Source\PSoC5/CyFlash.c **** {
 220:.\Generated_Source\PSoC5/CyFlash.c ****     cystatus status = CySetTempInt();
 221:.\Generated_Source\PSoC5/CyFlash.c **** 
 222:.\Generated_Source\PSoC5/CyFlash.c ****     if(status == CYRET_SUCCESS)
 223:.\Generated_Source\PSoC5/CyFlash.c ****     {
 224:.\Generated_Source\PSoC5/CyFlash.c ****         status = CySetTempInt();
 225:.\Generated_Source\PSoC5/CyFlash.c ****     }
 226:.\Generated_Source\PSoC5/CyFlash.c **** 
 227:.\Generated_Source\PSoC5/CyFlash.c ****     return (status);
 228:.\Generated_Source\PSoC5/CyFlash.c **** }
 229:.\Generated_Source\PSoC5/CyFlash.c **** 
 230:.\Generated_Source\PSoC5/CyFlash.c **** 
 231:.\Generated_Source\PSoC5/CyFlash.c **** /*******************************************************************************
 232:.\Generated_Source\PSoC5/CyFlash.c **** * Function Name: CySetFlashEEBuffer
 233:.\Generated_Source\PSoC5/CyFlash.c **** ********************************************************************************
 234:.\Generated_Source\PSoC5/CyFlash.c **** *
 235:.\Generated_Source\PSoC5/CyFlash.c **** * Summary:
 236:.\Generated_Source\PSoC5/CyFlash.c **** *  Sets the user supplied temporary buffer to store SPC data while performing
 237:.\Generated_Source\PSoC5/CyFlash.c **** *  flash and EEPROM commands. This buffer is only necessary when Flash ECC is
 238:.\Generated_Source\PSoC5/CyFlash.c **** *  disabled.
 239:.\Generated_Source\PSoC5/CyFlash.c **** *
 240:.\Generated_Source\PSoC5/CyFlash.c **** * Parameters:
 241:.\Generated_Source\PSoC5/CyFlash.c **** *  buffer:
 242:.\Generated_Source\PSoC5/CyFlash.c **** *   Address of block of memory to store temporary memory. The size of the block
 243:.\Generated_Source\PSoC5/CyFlash.c **** *   of memory is CYDEV_FLS_ROW_SIZE + CYDEV_ECC_ROW_SIZE.
 244:.\Generated_Source\PSoC5/CyFlash.c **** *
 245:.\Generated_Source\PSoC5/CyFlash.c **** * Return:
 246:.\Generated_Source\PSoC5/CyFlash.c **** *  status:
 247:.\Generated_Source\PSoC5/CyFlash.c **** *   CYRET_SUCCESS if successful.
 248:.\Generated_Source\PSoC5/CyFlash.c **** *   CYRET_BAD_PARAM if the buffer is NULL
 249:.\Generated_Source\PSoC5/CyFlash.c **** *
 250:.\Generated_Source\PSoC5/CyFlash.c **** *******************************************************************************/
 251:.\Generated_Source\PSoC5/CyFlash.c **** cystatus CySetFlashEEBuffer(uint8 * buffer) 
 252:.\Generated_Source\PSoC5/CyFlash.c **** {
 253:.\Generated_Source\PSoC5/CyFlash.c ****     cystatus status = CYRET_SUCCESS;
 254:.\Generated_Source\PSoC5/CyFlash.c **** 
 255:.\Generated_Source\PSoC5/CyFlash.c ****     CySpcStart();
 256:.\Generated_Source\PSoC5/CyFlash.c **** 
 257:.\Generated_Source\PSoC5/CyFlash.c ****     #if(CYDEV_ECC_ENABLE == 0)
 258:.\Generated_Source\PSoC5/CyFlash.c **** 
 259:.\Generated_Source\PSoC5/CyFlash.c ****         if(NULL == buffer)
 260:.\Generated_Source\PSoC5/CyFlash.c ****         {
 261:.\Generated_Source\PSoC5/CyFlash.c ****             status = CYRET_BAD_PARAM;
 262:.\Generated_Source\PSoC5/CyFlash.c ****         }
 263:.\Generated_Source\PSoC5/CyFlash.c ****         else if(CySpcLock() != CYRET_SUCCESS)
 264:.\Generated_Source\PSoC5/CyFlash.c ****         {
 265:.\Generated_Source\PSoC5/CyFlash.c ****             status = CYRET_LOCKED;
 266:.\Generated_Source\PSoC5/CyFlash.c ****         }
 267:.\Generated_Source\PSoC5/CyFlash.c ****         else
 268:.\Generated_Source\PSoC5/CyFlash.c ****         {
 269:.\Generated_Source\PSoC5/CyFlash.c ****             rowBuffer = buffer;
 270:.\Generated_Source\PSoC5/CyFlash.c ****             CySpcUnlock();
 271:.\Generated_Source\PSoC5/CyFlash.c ****         }
 272:.\Generated_Source\PSoC5/CyFlash.c **** 
 273:.\Generated_Source\PSoC5/CyFlash.c ****     #else
 274:.\Generated_Source\PSoC5/CyFlash.c **** 
 275:.\Generated_Source\PSoC5/CyFlash.c ****         /* To supress the warning */
ARM GAS  C:\DOCUME~1\ADMINI~1\LOCALS~1\Temp\ccpWDBk9.s 			page 7


 276:.\Generated_Source\PSoC5/CyFlash.c ****         buffer = buffer;
 277:.\Generated_Source\PSoC5/CyFlash.c **** 
 278:.\Generated_Source\PSoC5/CyFlash.c ****     #endif  /* (CYDEV_ECC_ENABLE == 0u) */
 279:.\Generated_Source\PSoC5/CyFlash.c **** 
 280:.\Generated_Source\PSoC5/CyFlash.c ****     return(status);
 281:.\Generated_Source\PSoC5/CyFlash.c **** }
 282:.\Generated_Source\PSoC5/CyFlash.c **** 
 283:.\Generated_Source\PSoC5/CyFlash.c **** 
 284:.\Generated_Source\PSoC5/CyFlash.c **** #if(CYDEV_ECC_ENABLE == 1)
 285:.\Generated_Source\PSoC5/CyFlash.c **** 
 286:.\Generated_Source\PSoC5/CyFlash.c ****     /*******************************************************************************
 287:.\Generated_Source\PSoC5/CyFlash.c ****     * Function Name: CyWriteRowData
 288:.\Generated_Source\PSoC5/CyFlash.c ****     ********************************************************************************
 289:.\Generated_Source\PSoC5/CyFlash.c ****     *
 290:.\Generated_Source\PSoC5/CyFlash.c ****     * Summary:
 291:.\Generated_Source\PSoC5/CyFlash.c ****     *   Sends a command to the SPC to load and program a row of data in flash.
 292:.\Generated_Source\PSoC5/CyFlash.c ****     *
 293:.\Generated_Source\PSoC5/CyFlash.c ****     * Parameters:
 294:.\Generated_Source\PSoC5/CyFlash.c ****     *  arrayID:
 295:.\Generated_Source\PSoC5/CyFlash.c ****     *   ID of the array to write.
 296:.\Generated_Source\PSoC5/CyFlash.c ****     *  rowAddress:
 297:.\Generated_Source\PSoC5/CyFlash.c ****     *   rowAddress of flash row to program.
 298:.\Generated_Source\PSoC5/CyFlash.c ****     *  rowData:
 299:.\Generated_Source\PSoC5/CyFlash.c ****     *   Array of bytes to write.
 300:.\Generated_Source\PSoC5/CyFlash.c ****     *
 301:.\Generated_Source\PSoC5/CyFlash.c ****     * Return:
 302:.\Generated_Source\PSoC5/CyFlash.c ****     *  status:
 303:.\Generated_Source\PSoC5/CyFlash.c ****     *   CYRET_SUCCESS if successful.
 304:.\Generated_Source\PSoC5/CyFlash.c ****     *   CYRET_LOCKED if the SPC is already in use.
 305:.\Generated_Source\PSoC5/CyFlash.c ****     *   CYRET_CANCELED if command not accepted
 306:.\Generated_Source\PSoC5/CyFlash.c ****     *   CYRET_UNKNOWN if there was an SPC error.
 307:.\Generated_Source\PSoC5/CyFlash.c ****     *
 308:.\Generated_Source\PSoC5/CyFlash.c ****     *******************************************************************************/
 309:.\Generated_Source\PSoC5/CyFlash.c ****     cystatus CyWriteRowData(uint8 arrayId, uint16 rowAddress, const uint8 * rowData) 
 310:.\Generated_Source\PSoC5/CyFlash.c ****     {
 311:.\Generated_Source\PSoC5/CyFlash.c ****         uint16 rowSize;
 312:.\Generated_Source\PSoC5/CyFlash.c ****         cystatus status;
 313:.\Generated_Source\PSoC5/CyFlash.c **** 
 314:.\Generated_Source\PSoC5/CyFlash.c ****         rowSize = (arrayId > CY_SPC_LAST_FLASH_ARRAYID) ? CYDEV_EEPROM_ROW_SIZE : CYDEV_FLS_ROW_SIZ
 315:.\Generated_Source\PSoC5/CyFlash.c ****         status = CyWriteRowFull(arrayId, rowAddress, rowData, rowSize);
 316:.\Generated_Source\PSoC5/CyFlash.c **** 
 317:.\Generated_Source\PSoC5/CyFlash.c ****         return(status);
 318:.\Generated_Source\PSoC5/CyFlash.c ****     }
 319:.\Generated_Source\PSoC5/CyFlash.c **** 
 320:.\Generated_Source\PSoC5/CyFlash.c **** #else
 321:.\Generated_Source\PSoC5/CyFlash.c **** 
 322:.\Generated_Source\PSoC5/CyFlash.c ****     /*******************************************************************************
 323:.\Generated_Source\PSoC5/CyFlash.c ****     * Function Name: CyWriteRowData
 324:.\Generated_Source\PSoC5/CyFlash.c ****     ********************************************************************************
 325:.\Generated_Source\PSoC5/CyFlash.c ****     *
 326:.\Generated_Source\PSoC5/CyFlash.c ****     * Summary:
 327:.\Generated_Source\PSoC5/CyFlash.c ****     *   Sends a command to the SPC to load and program a row of data in flash.
 328:.\Generated_Source\PSoC5/CyFlash.c ****     *
 329:.\Generated_Source\PSoC5/CyFlash.c ****     * Parameters:
 330:.\Generated_Source\PSoC5/CyFlash.c ****     *  arrayID      : ID of the array to write.
 331:.\Generated_Source\PSoC5/CyFlash.c ****     *  rowAddress   : rowAddress of flash row to program.
 332:.\Generated_Source\PSoC5/CyFlash.c ****     *  rowData      : Array of bytes to write.
ARM GAS  C:\DOCUME~1\ADMINI~1\LOCALS~1\Temp\ccpWDBk9.s 			page 8


 333:.\Generated_Source\PSoC5/CyFlash.c ****     *
 334:.\Generated_Source\PSoC5/CyFlash.c ****     * Return:
 335:.\Generated_Source\PSoC5/CyFlash.c ****     *  status:
 336:.\Generated_Source\PSoC5/CyFlash.c ****     *   CYRET_SUCCESS if successful.
 337:.\Generated_Source\PSoC5/CyFlash.c ****     *   CYRET_LOCKED if the SPC is already in use.
 338:.\Generated_Source\PSoC5/CyFlash.c ****     *   CYRET_CANCELED if command not accepted
 339:.\Generated_Source\PSoC5/CyFlash.c ****     *   CYRET_UNKNOWN if there was an SPC error.
 340:.\Generated_Source\PSoC5/CyFlash.c ****     *
 341:.\Generated_Source\PSoC5/CyFlash.c ****     *******************************************************************************/
 342:.\Generated_Source\PSoC5/CyFlash.c ****     cystatus CyWriteRowData(uint8 arrayId, uint16 rowAddress, const uint8 * rowData) 
 343:.\Generated_Source\PSoC5/CyFlash.c ****     {
 344:.\Generated_Source\PSoC5/CyFlash.c ****         uint8 i;
 345:.\Generated_Source\PSoC5/CyFlash.c ****         uint32 offset;
 346:.\Generated_Source\PSoC5/CyFlash.c ****         uint16 rowSize;
 347:.\Generated_Source\PSoC5/CyFlash.c ****         cystatus status;
 348:.\Generated_Source\PSoC5/CyFlash.c **** 
 349:.\Generated_Source\PSoC5/CyFlash.c ****         rowSize = (arrayId > CY_SPC_LAST_FLASH_ARRAYID) ? \
 350:.\Generated_Source\PSoC5/CyFlash.c ****                     CYDEV_EEPROM_ROW_SIZE : \
 351:.\Generated_Source\PSoC5/CyFlash.c ****                     (CYDEV_FLS_ROW_SIZE + CYDEV_ECC_ROW_SIZE);
 352:.\Generated_Source\PSoC5/CyFlash.c **** 
 353:.\Generated_Source\PSoC5/CyFlash.c ****         if(rowSize != CYDEV_EEPROM_ROW_SIZE)
 354:.\Generated_Source\PSoC5/CyFlash.c ****         {
 355:.\Generated_Source\PSoC5/CyFlash.c ****             /* Save the ECC area. */
 356:.\Generated_Source\PSoC5/CyFlash.c ****             offset = CYDEV_ECC_BASE + ((uint32) arrayId * CYDEV_ECC_SECTOR_SIZE) +
 357:.\Generated_Source\PSoC5/CyFlash.c ****                     ((uint32) rowAddress * CYDEV_ECC_ROW_SIZE);
 358:.\Generated_Source\PSoC5/CyFlash.c **** 
 359:.\Generated_Source\PSoC5/CyFlash.c ****             for (i = 0u; i < CYDEV_ECC_ROW_SIZE; i++)
 360:.\Generated_Source\PSoC5/CyFlash.c ****             {
 361:.\Generated_Source\PSoC5/CyFlash.c ****                 *(rowBuffer + CYDEV_FLS_ROW_SIZE + i) = CY_GET_XTND_REG8((void CYFAR *)(offset + i)
 362:.\Generated_Source\PSoC5/CyFlash.c ****             }
 363:.\Generated_Source\PSoC5/CyFlash.c ****         }
 364:.\Generated_Source\PSoC5/CyFlash.c **** 
 365:.\Generated_Source\PSoC5/CyFlash.c ****         /* Copy the rowdata to the temporary buffer. */
 366:.\Generated_Source\PSoC5/CyFlash.c ****         #if(CY_PSOC3)
 367:.\Generated_Source\PSoC5/CyFlash.c ****             (void) memcpy((void *) rowBuffer, (void *)((uint32) rowData), (int16) CYDEV_FLS_ROW_SIZ
 368:.\Generated_Source\PSoC5/CyFlash.c ****         #else
 369:.\Generated_Source\PSoC5/CyFlash.c ****             (void) memcpy((void *) rowBuffer, (const void *) rowData, CYDEV_FLS_ROW_SIZE);
 370:.\Generated_Source\PSoC5/CyFlash.c ****         #endif  /* (CY_PSOC3) */
 371:.\Generated_Source\PSoC5/CyFlash.c **** 
 372:.\Generated_Source\PSoC5/CyFlash.c ****         status = CyWriteRowFull(arrayId, rowAddress, rowBuffer, rowSize);
 373:.\Generated_Source\PSoC5/CyFlash.c **** 
 374:.\Generated_Source\PSoC5/CyFlash.c ****         return(status);
 375:.\Generated_Source\PSoC5/CyFlash.c ****     }
 376:.\Generated_Source\PSoC5/CyFlash.c **** 
 377:.\Generated_Source\PSoC5/CyFlash.c **** #endif /* (CYDEV_ECC_ENABLE == 0u) */
 378:.\Generated_Source\PSoC5/CyFlash.c **** 
 379:.\Generated_Source\PSoC5/CyFlash.c **** 
 380:.\Generated_Source\PSoC5/CyFlash.c **** #if ((CYDEV_ECC_ENABLE == 0u) && (CYDEV_CONFIGURATION_ECC == 0u))
 381:.\Generated_Source\PSoC5/CyFlash.c **** 
 382:.\Generated_Source\PSoC5/CyFlash.c ****     /*******************************************************************************
 383:.\Generated_Source\PSoC5/CyFlash.c ****     * Function Name: CyWriteRowConfig
 384:.\Generated_Source\PSoC5/CyFlash.c ****     ********************************************************************************
 385:.\Generated_Source\PSoC5/CyFlash.c ****     *
 386:.\Generated_Source\PSoC5/CyFlash.c ****     * Summary:
 387:.\Generated_Source\PSoC5/CyFlash.c ****     *  Sends a command to the SPC to load and program a row of config data in flash.
 388:.\Generated_Source\PSoC5/CyFlash.c ****     *  This function is only valid for Flash array IDs (not for EEPROM).
 389:.\Generated_Source\PSoC5/CyFlash.c ****     *
ARM GAS  C:\DOCUME~1\ADMINI~1\LOCALS~1\Temp\ccpWDBk9.s 			page 9


 390:.\Generated_Source\PSoC5/CyFlash.c ****     * Parameters:
 391:.\Generated_Source\PSoC5/CyFlash.c ****     *  arrayId:
 392:.\Generated_Source\PSoC5/CyFlash.c ****     *   ID of the array to write
 393:.\Generated_Source\PSoC5/CyFlash.c ****     *  rowAddress:
 394:.\Generated_Source\PSoC5/CyFlash.c ****     *   Address of the sector to erase.
 395:.\Generated_Source\PSoC5/CyFlash.c ****     *  rowECC:
 396:.\Generated_Source\PSoC5/CyFlash.c ****     *   Array of bytes to write.
 397:.\Generated_Source\PSoC5/CyFlash.c ****     *
 398:.\Generated_Source\PSoC5/CyFlash.c ****     * Return:
 399:.\Generated_Source\PSoC5/CyFlash.c ****     *  status:
 400:.\Generated_Source\PSoC5/CyFlash.c ****     *   CYRET_SUCCESS if successful.
 401:.\Generated_Source\PSoC5/CyFlash.c ****     *   CYRET_LOCKED if the SPC is already in use.
 402:.\Generated_Source\PSoC5/CyFlash.c ****     *   CYRET_CANCELED if command not accepted
 403:.\Generated_Source\PSoC5/CyFlash.c ****     *   CYRET_UNKNOWN if there was an SPC error.
 404:.\Generated_Source\PSoC5/CyFlash.c ****     *
 405:.\Generated_Source\PSoC5/CyFlash.c ****     *******************************************************************************/
 406:.\Generated_Source\PSoC5/CyFlash.c ****     cystatus CyWriteRowConfig(uint8 arrayId, uint16 rowAddress, const uint8 * rowECC) 
 407:.\Generated_Source\PSoC5/CyFlash.c ****     {
 408:.\Generated_Source\PSoC5/CyFlash.c ****         uint32 offset;
 409:.\Generated_Source\PSoC5/CyFlash.c ****         uint16 i;
 410:.\Generated_Source\PSoC5/CyFlash.c ****         cystatus status;
 411:.\Generated_Source\PSoC5/CyFlash.c **** 
 412:.\Generated_Source\PSoC5/CyFlash.c ****         /* Read the existing flash data. */
 413:.\Generated_Source\PSoC5/CyFlash.c ****         offset = ((uint32) arrayId * CYDEV_FLS_SECTOR_SIZE) +
 414:.\Generated_Source\PSoC5/CyFlash.c ****             ((uint32) rowAddress * CYDEV_FLS_ROW_SIZE);
 415:.\Generated_Source\PSoC5/CyFlash.c ****             
 416:.\Generated_Source\PSoC5/CyFlash.c ****         #if (CYDEV_FLS_BASE != 0u)
 417:.\Generated_Source\PSoC5/CyFlash.c ****             offset += CYDEV_FLS_BASE;
 418:.\Generated_Source\PSoC5/CyFlash.c ****         #endif
 419:.\Generated_Source\PSoC5/CyFlash.c **** 
 420:.\Generated_Source\PSoC5/CyFlash.c ****         for (i = 0u; i < CYDEV_FLS_ROW_SIZE; i++)
 421:.\Generated_Source\PSoC5/CyFlash.c ****         {
 422:.\Generated_Source\PSoC5/CyFlash.c ****             rowBuffer[i] = CY_GET_XTND_REG8((void CYFAR *)(offset + i));
 423:.\Generated_Source\PSoC5/CyFlash.c ****         }
 424:.\Generated_Source\PSoC5/CyFlash.c **** 
 425:.\Generated_Source\PSoC5/CyFlash.c ****         #if(CY_PSOC3)
 426:.\Generated_Source\PSoC5/CyFlash.c ****             (void) memcpy((void *) &rowBuffer[CYDEV_FLS_ROW_SIZE], (void *)((uint32)rowECC), (int16
 427:.\Generated_Source\PSoC5/CyFlash.c ****         #else
 428:.\Generated_Source\PSoC5/CyFlash.c ****             (void) memcpy((void *) &rowBuffer[CYDEV_FLS_ROW_SIZE], (const void *) rowECC, CYDEV_ECC
 429:.\Generated_Source\PSoC5/CyFlash.c ****         #endif  /* (CY_PSOC3) */
 430:.\Generated_Source\PSoC5/CyFlash.c **** 
 431:.\Generated_Source\PSoC5/CyFlash.c ****         status = CyWriteRowFull(arrayId, rowAddress, rowBuffer, CYDEV_FLS_ROW_SIZE + CYDEV_ECC_ROW_
 432:.\Generated_Source\PSoC5/CyFlash.c **** 
 433:.\Generated_Source\PSoC5/CyFlash.c ****         return (status);
 434:.\Generated_Source\PSoC5/CyFlash.c ****     }
 435:.\Generated_Source\PSoC5/CyFlash.c **** 
 436:.\Generated_Source\PSoC5/CyFlash.c **** #endif  /* ((CYDEV_ECC_ENABLE == 0u) && (CYDEV_CONFIGURATION_ECC == 0u)) */
 437:.\Generated_Source\PSoC5/CyFlash.c **** 
 438:.\Generated_Source\PSoC5/CyFlash.c **** 
 439:.\Generated_Source\PSoC5/CyFlash.c **** 
 440:.\Generated_Source\PSoC5/CyFlash.c **** /*******************************************************************************
 441:.\Generated_Source\PSoC5/CyFlash.c **** * Function Name: CyWriteRowFull
 442:.\Generated_Source\PSoC5/CyFlash.c **** ********************************************************************************
 443:.\Generated_Source\PSoC5/CyFlash.c **** * Summary:
 444:.\Generated_Source\PSoC5/CyFlash.c **** *   Sends a command to the SPC to load and program a row of data in flash.
 445:.\Generated_Source\PSoC5/CyFlash.c **** *   rowData array is expected to contain Flash and ECC data if needed.
 446:.\Generated_Source\PSoC5/CyFlash.c **** *
ARM GAS  C:\DOCUME~1\ADMINI~1\LOCALS~1\Temp\ccpWDBk9.s 			page 10


 447:.\Generated_Source\PSoC5/CyFlash.c **** * Parameters:
 448:.\Generated_Source\PSoC5/CyFlash.c **** *       arrayId: FLASH or EEPROM array id.
 449:.\Generated_Source\PSoC5/CyFlash.c **** *       rowData: pointer to a row of data to write.
 450:.\Generated_Source\PSoC5/CyFlash.c **** *       rowNumber: Zero based number of the row.
 451:.\Generated_Source\PSoC5/CyFlash.c **** *       rowSize: Size of the row.
 452:.\Generated_Source\PSoC5/CyFlash.c **** *
 453:.\Generated_Source\PSoC5/CyFlash.c **** * Return:
 454:.\Generated_Source\PSoC5/CyFlash.c **** *   CYRET_SUCCESS if successful.
 455:.\Generated_Source\PSoC5/CyFlash.c **** *   CYRET_LOCKED if the SPC is already in use.
 456:.\Generated_Source\PSoC5/CyFlash.c **** *   CYRET_CANCELED if command not accepted
 457:.\Generated_Source\PSoC5/CyFlash.c **** *   CYRET_UNKNOWN if there was an SPC error.
 458:.\Generated_Source\PSoC5/CyFlash.c **** *
 459:.\Generated_Source\PSoC5/CyFlash.c **** *******************************************************************************/
 460:.\Generated_Source\PSoC5/CyFlash.c **** cystatus CyWriteRowFull(uint8 arrayId, uint16 rowNumber, const uint8* rowData, uint16 rowSize) \
 461:.\Generated_Source\PSoC5/CyFlash.c ****         
 462:.\Generated_Source\PSoC5/CyFlash.c **** {
 463:.\Generated_Source\PSoC5/CyFlash.c ****     cystatus status;
 464:.\Generated_Source\PSoC5/CyFlash.c **** 
 465:.\Generated_Source\PSoC5/CyFlash.c ****     if(CySpcLock() == CYRET_SUCCESS)
 466:.\Generated_Source\PSoC5/CyFlash.c ****     {
 467:.\Generated_Source\PSoC5/CyFlash.c ****         /* Load row data into SPC internal latch */
 468:.\Generated_Source\PSoC5/CyFlash.c ****         status = CySpcLoadRow(arrayId, rowData, rowSize);
 469:.\Generated_Source\PSoC5/CyFlash.c **** 
 470:.\Generated_Source\PSoC5/CyFlash.c ****         if(CYRET_STARTED == status)
 471:.\Generated_Source\PSoC5/CyFlash.c ****         {
 472:.\Generated_Source\PSoC5/CyFlash.c ****             while(CY_SPC_BUSY)
 473:.\Generated_Source\PSoC5/CyFlash.c ****             {
 474:.\Generated_Source\PSoC5/CyFlash.c ****                 /* Wait for SPC to finish and get SPC status */
 475:.\Generated_Source\PSoC5/CyFlash.c ****                 CyDelayUs(1u);
 476:.\Generated_Source\PSoC5/CyFlash.c ****             }
 477:.\Generated_Source\PSoC5/CyFlash.c **** 
 478:.\Generated_Source\PSoC5/CyFlash.c ****             /* Hide SPC status */
 479:.\Generated_Source\PSoC5/CyFlash.c ****             if(CY_SPC_STATUS_SUCCESS == CY_SPC_READ_STATUS)
 480:.\Generated_Source\PSoC5/CyFlash.c ****             {
 481:.\Generated_Source\PSoC5/CyFlash.c ****                 status = CYRET_SUCCESS;
 482:.\Generated_Source\PSoC5/CyFlash.c ****             }
 483:.\Generated_Source\PSoC5/CyFlash.c ****             else
 484:.\Generated_Source\PSoC5/CyFlash.c ****             {
 485:.\Generated_Source\PSoC5/CyFlash.c ****                 status = CYRET_UNKNOWN;
 486:.\Generated_Source\PSoC5/CyFlash.c ****             }
 487:.\Generated_Source\PSoC5/CyFlash.c **** 
 488:.\Generated_Source\PSoC5/CyFlash.c ****             if(CYRET_SUCCESS == status)
 489:.\Generated_Source\PSoC5/CyFlash.c ****             {
 490:.\Generated_Source\PSoC5/CyFlash.c ****                 /* Erase and program flash with the data from SPC interval latch */
 491:.\Generated_Source\PSoC5/CyFlash.c ****                 status = CySpcWriteRow(arrayId, rowNumber, dieTemperature[0u], dieTemperature[1u]);
 492:.\Generated_Source\PSoC5/CyFlash.c **** 
 493:.\Generated_Source\PSoC5/CyFlash.c ****                 if(CYRET_STARTED == status)
 494:.\Generated_Source\PSoC5/CyFlash.c ****                 {
 495:.\Generated_Source\PSoC5/CyFlash.c ****                     while(CY_SPC_BUSY)
 496:.\Generated_Source\PSoC5/CyFlash.c ****                     {
 497:.\Generated_Source\PSoC5/CyFlash.c ****                         /* Wait for SPC to finish and get SPC status */
 498:.\Generated_Source\PSoC5/CyFlash.c ****                         CyDelayUs(1u);
 499:.\Generated_Source\PSoC5/CyFlash.c ****                     }
 500:.\Generated_Source\PSoC5/CyFlash.c **** 
 501:.\Generated_Source\PSoC5/CyFlash.c ****                     /* Hide SPC status */
 502:.\Generated_Source\PSoC5/CyFlash.c ****                     if(CY_SPC_STATUS_SUCCESS == CY_SPC_READ_STATUS)
 503:.\Generated_Source\PSoC5/CyFlash.c ****                     {
ARM GAS  C:\DOCUME~1\ADMINI~1\LOCALS~1\Temp\ccpWDBk9.s 			page 11


 504:.\Generated_Source\PSoC5/CyFlash.c ****                         status = CYRET_SUCCESS;
 505:.\Generated_Source\PSoC5/CyFlash.c ****                     }
 506:.\Generated_Source\PSoC5/CyFlash.c ****                     else
 507:.\Generated_Source\PSoC5/CyFlash.c ****                     {
 508:.\Generated_Source\PSoC5/CyFlash.c ****                         status = CYRET_UNKNOWN;
 509:.\Generated_Source\PSoC5/CyFlash.c ****                     }
 510:.\Generated_Source\PSoC5/CyFlash.c ****                 }
 511:.\Generated_Source\PSoC5/CyFlash.c ****             }
 512:.\Generated_Source\PSoC5/CyFlash.c **** 
 513:.\Generated_Source\PSoC5/CyFlash.c ****         }
 514:.\Generated_Source\PSoC5/CyFlash.c **** 
 515:.\Generated_Source\PSoC5/CyFlash.c ****         CySpcUnlock();
 516:.\Generated_Source\PSoC5/CyFlash.c ****     }
 517:.\Generated_Source\PSoC5/CyFlash.c ****     else
 518:.\Generated_Source\PSoC5/CyFlash.c ****     {
 519:.\Generated_Source\PSoC5/CyFlash.c ****         status = CYRET_LOCKED;
 520:.\Generated_Source\PSoC5/CyFlash.c ****     }
 521:.\Generated_Source\PSoC5/CyFlash.c **** 
 522:.\Generated_Source\PSoC5/CyFlash.c ****     return(status);
 523:.\Generated_Source\PSoC5/CyFlash.c **** }
 524:.\Generated_Source\PSoC5/CyFlash.c **** 
 525:.\Generated_Source\PSoC5/CyFlash.c **** 
 526:.\Generated_Source\PSoC5/CyFlash.c **** /*******************************************************************************
 527:.\Generated_Source\PSoC5/CyFlash.c **** * Function Name: CyFlash_SetWaitCycles
 528:.\Generated_Source\PSoC5/CyFlash.c **** ********************************************************************************
 529:.\Generated_Source\PSoC5/CyFlash.c **** *
 530:.\Generated_Source\PSoC5/CyFlash.c **** * Summary:
 531:.\Generated_Source\PSoC5/CyFlash.c **** *  Sets the number of clock cycles the cache will wait before it samples data
 532:.\Generated_Source\PSoC5/CyFlash.c **** *  coming back from Flash. This function must be called before increasing CPU
 533:.\Generated_Source\PSoC5/CyFlash.c **** *  clock frequency. It can optionally be called after lowering CPU clock
 534:.\Generated_Source\PSoC5/CyFlash.c **** *  frequency in order to improve CPU performance.
 535:.\Generated_Source\PSoC5/CyFlash.c **** *
 536:.\Generated_Source\PSoC5/CyFlash.c **** * Parameters:
 537:.\Generated_Source\PSoC5/CyFlash.c **** *  uint8 freq:
 538:.\Generated_Source\PSoC5/CyFlash.c **** *   Frequency of operation in Megahertz.
 539:.\Generated_Source\PSoC5/CyFlash.c **** *
 540:.\Generated_Source\PSoC5/CyFlash.c **** * Return:
 541:.\Generated_Source\PSoC5/CyFlash.c **** *  None
 542:.\Generated_Source\PSoC5/CyFlash.c **** *
 543:.\Generated_Source\PSoC5/CyFlash.c **** *******************************************************************************/
 544:.\Generated_Source\PSoC5/CyFlash.c **** void CyFlash_SetWaitCycles(uint8 freq) 
 545:.\Generated_Source\PSoC5/CyFlash.c **** {
 546:.\Generated_Source\PSoC5/CyFlash.c ****     uint8 interruptState;
 547:.\Generated_Source\PSoC5/CyFlash.c **** 
 548:.\Generated_Source\PSoC5/CyFlash.c ****     /* Save current global interrupt enable and disable it */
 549:.\Generated_Source\PSoC5/CyFlash.c ****     interruptState = CyEnterCriticalSection();
 550:.\Generated_Source\PSoC5/CyFlash.c **** 
 551:.\Generated_Source\PSoC5/CyFlash.c ****     /***************************************************************************
 552:.\Generated_Source\PSoC5/CyFlash.c ****     * The number of clock cycles the cache will wait before it samples data
 553:.\Generated_Source\PSoC5/CyFlash.c ****     * coming back from Flash must be equal or greater to to the CPU frequency
 554:.\Generated_Source\PSoC5/CyFlash.c ****     * outlined in clock cycles.
 555:.\Generated_Source\PSoC5/CyFlash.c ****     ***************************************************************************/
 556:.\Generated_Source\PSoC5/CyFlash.c **** 
 557:.\Generated_Source\PSoC5/CyFlash.c ****     #if (CY_PSOC3)
 558:.\Generated_Source\PSoC5/CyFlash.c **** 
 559:.\Generated_Source\PSoC5/CyFlash.c ****         if (freq <= 22u)
 560:.\Generated_Source\PSoC5/CyFlash.c ****         {
ARM GAS  C:\DOCUME~1\ADMINI~1\LOCALS~1\Temp\ccpWDBk9.s 			page 12


 561:.\Generated_Source\PSoC5/CyFlash.c ****             *CY_FLASH_CONTROL_PTR = ((*CY_FLASH_CONTROL_PTR & ((uint8)(~CY_FLASH_CYCLES_MASK))) |
 562:.\Generated_Source\PSoC5/CyFlash.c ****                 ((uint8)(CY_FLASH_LESSER_OR_EQUAL_22MHz << CY_FLASH_CYCLES_MASK_SHIFT)));
 563:.\Generated_Source\PSoC5/CyFlash.c ****         }
 564:.\Generated_Source\PSoC5/CyFlash.c ****         else if (freq <= 44u)
 565:.\Generated_Source\PSoC5/CyFlash.c ****         {
 566:.\Generated_Source\PSoC5/CyFlash.c ****             *CY_FLASH_CONTROL_PTR = ((*CY_FLASH_CONTROL_PTR & ((uint8)(~CY_FLASH_CYCLES_MASK))) |
 567:.\Generated_Source\PSoC5/CyFlash.c ****                 ((uint8)(CY_FLASH_LESSER_OR_EQUAL_44MHz << CY_FLASH_CYCLES_MASK_SHIFT)));
 568:.\Generated_Source\PSoC5/CyFlash.c ****         }
 569:.\Generated_Source\PSoC5/CyFlash.c ****         else
 570:.\Generated_Source\PSoC5/CyFlash.c ****         {
 571:.\Generated_Source\PSoC5/CyFlash.c ****             *CY_FLASH_CONTROL_PTR = ((*CY_FLASH_CONTROL_PTR & ((uint8)(~CY_FLASH_CYCLES_MASK))) |
 572:.\Generated_Source\PSoC5/CyFlash.c ****                 ((uint8)(CY_FLASH_GREATER_44MHz << CY_FLASH_CYCLES_MASK_SHIFT)));
 573:.\Generated_Source\PSoC5/CyFlash.c ****         }
 574:.\Generated_Source\PSoC5/CyFlash.c **** 
 575:.\Generated_Source\PSoC5/CyFlash.c ****     #endif  /* (CY_PSOC3) */
 576:.\Generated_Source\PSoC5/CyFlash.c **** 
 577:.\Generated_Source\PSoC5/CyFlash.c **** 
 578:.\Generated_Source\PSoC5/CyFlash.c ****     #if (CY_PSOC5A)
 579:.\Generated_Source\PSoC5/CyFlash.c **** 
 580:.\Generated_Source\PSoC5/CyFlash.c ****         if (freq <= 16u)
 581:.\Generated_Source\PSoC5/CyFlash.c ****         {
 582:.\Generated_Source\PSoC5/CyFlash.c ****             *CY_FLASH_CONTROL_PTR = ((*CY_FLASH_CONTROL_PTR & ((uint8)(~CY_FLASH_CYCLES_MASK))) |
 583:.\Generated_Source\PSoC5/CyFlash.c ****                 ((uint8)(CY_FLASH_LESSER_OR_EQUAL_16MHz << CY_FLASH_CYCLES_MASK_SHIFT)));
 584:.\Generated_Source\PSoC5/CyFlash.c ****         }
 585:.\Generated_Source\PSoC5/CyFlash.c ****         else if (freq <= 33u)
 586:.\Generated_Source\PSoC5/CyFlash.c ****         {
 587:.\Generated_Source\PSoC5/CyFlash.c ****             *CY_FLASH_CONTROL_PTR = ((*CY_FLASH_CONTROL_PTR & ((uint8)(~CY_FLASH_CYCLES_MASK))) |
 588:.\Generated_Source\PSoC5/CyFlash.c ****                 ((uint8)(CY_FLASH_LESSER_OR_EQUAL_33MHz << CY_FLASH_CYCLES_MASK_SHIFT)));
 589:.\Generated_Source\PSoC5/CyFlash.c ****         }
 590:.\Generated_Source\PSoC5/CyFlash.c ****         else if (freq <= 50u)
 591:.\Generated_Source\PSoC5/CyFlash.c ****         {
 592:.\Generated_Source\PSoC5/CyFlash.c ****             *CY_FLASH_CONTROL_PTR = ((*CY_FLASH_CONTROL_PTR & ((uint8)(~CY_FLASH_CYCLES_MASK))) |
 593:.\Generated_Source\PSoC5/CyFlash.c ****                 ((uint8)(CY_FLASH_LESSER_OR_EQUAL_50MHz << CY_FLASH_CYCLES_MASK_SHIFT)));
 594:.\Generated_Source\PSoC5/CyFlash.c ****         }
 595:.\Generated_Source\PSoC5/CyFlash.c ****         else
 596:.\Generated_Source\PSoC5/CyFlash.c ****         {
 597:.\Generated_Source\PSoC5/CyFlash.c ****             *CY_FLASH_CONTROL_PTR = ((*CY_FLASH_CONTROL_PTR & ((uint8)(~CY_FLASH_CYCLES_MASK))) |
 598:.\Generated_Source\PSoC5/CyFlash.c ****                 ((uint8)(CY_FLASH_GREATER_51MHz << CY_FLASH_CYCLES_MASK_SHIFT)));
 599:.\Generated_Source\PSoC5/CyFlash.c ****         }
 600:.\Generated_Source\PSoC5/CyFlash.c **** 
 601:.\Generated_Source\PSoC5/CyFlash.c ****     #endif  /* (CY_PSOC5A) */
 602:.\Generated_Source\PSoC5/CyFlash.c **** 
 603:.\Generated_Source\PSoC5/CyFlash.c **** 
 604:.\Generated_Source\PSoC5/CyFlash.c ****     #if (CY_PSOC5LP)
 605:.\Generated_Source\PSoC5/CyFlash.c **** 
 606:.\Generated_Source\PSoC5/CyFlash.c ****         if (freq <= 16u)
 607:.\Generated_Source\PSoC5/CyFlash.c ****         {
 608:.\Generated_Source\PSoC5/CyFlash.c ****             *CY_FLASH_CONTROL_PTR = ((*CY_FLASH_CONTROL_PTR & ((uint8)(~CY_FLASH_CYCLES_MASK))) |
 609:.\Generated_Source\PSoC5/CyFlash.c ****                 ((uint8)(CY_FLASH_LESSER_OR_EQUAL_16MHz << CY_FLASH_CYCLES_MASK_SHIFT)));
 610:.\Generated_Source\PSoC5/CyFlash.c ****         }
 611:.\Generated_Source\PSoC5/CyFlash.c ****         else if (freq <= 33u)
 612:.\Generated_Source\PSoC5/CyFlash.c ****         {
 613:.\Generated_Source\PSoC5/CyFlash.c ****             *CY_FLASH_CONTROL_PTR = ((*CY_FLASH_CONTROL_PTR & ((uint8)(~CY_FLASH_CYCLES_MASK))) |
 614:.\Generated_Source\PSoC5/CyFlash.c ****                 ((uint8)(CY_FLASH_LESSER_OR_EQUAL_33MHz << CY_FLASH_CYCLES_MASK_SHIFT)));
 615:.\Generated_Source\PSoC5/CyFlash.c ****         }
 616:.\Generated_Source\PSoC5/CyFlash.c ****         else if (freq <= 50u)
 617:.\Generated_Source\PSoC5/CyFlash.c ****         {
ARM GAS  C:\DOCUME~1\ADMINI~1\LOCALS~1\Temp\ccpWDBk9.s 			page 13


 618:.\Generated_Source\PSoC5/CyFlash.c ****             *CY_FLASH_CONTROL_PTR = ((*CY_FLASH_CONTROL_PTR & ((uint8)(~CY_FLASH_CYCLES_MASK))) |
 619:.\Generated_Source\PSoC5/CyFlash.c ****                 ((uint8)(CY_FLASH_LESSER_OR_EQUAL_50MHz << CY_FLASH_CYCLES_MASK_SHIFT)));
 620:.\Generated_Source\PSoC5/CyFlash.c ****         }
 621:.\Generated_Source\PSoC5/CyFlash.c ****         else
 622:.\Generated_Source\PSoC5/CyFlash.c ****         {
 623:.\Generated_Source\PSoC5/CyFlash.c ****             *CY_FLASH_CONTROL_PTR = ((*CY_FLASH_CONTROL_PTR & ((uint8)(~CY_FLASH_CYCLES_MASK))) |
 624:.\Generated_Source\PSoC5/CyFlash.c ****                 ((uint8)(CY_FLASH_GREATER_51MHz << CY_FLASH_CYCLES_MASK_SHIFT)));
 625:.\Generated_Source\PSoC5/CyFlash.c ****         }
 626:.\Generated_Source\PSoC5/CyFlash.c **** 
 627:.\Generated_Source\PSoC5/CyFlash.c ****     #endif  /* (CY_PSOC5LP) */
 628:.\Generated_Source\PSoC5/CyFlash.c **** 
 629:.\Generated_Source\PSoC5/CyFlash.c ****     /* Restore global interrupt enable state */
 630:.\Generated_Source\PSoC5/CyFlash.c ****     CyExitCriticalSection(interruptState);
 631:.\Generated_Source\PSoC5/CyFlash.c **** }
 632:.\Generated_Source\PSoC5/CyFlash.c **** 
 633:.\Generated_Source\PSoC5/CyFlash.c **** 
 634:.\Generated_Source\PSoC5/CyFlash.c **** #if (CY_PSOC3 || CY_PSOC5LP)
 635:.\Generated_Source\PSoC5/CyFlash.c **** 
 636:.\Generated_Source\PSoC5/CyFlash.c ****     /*******************************************************************************
 637:.\Generated_Source\PSoC5/CyFlash.c ****     * Function Name: CyEEPROM_Start
 638:.\Generated_Source\PSoC5/CyFlash.c ****     ********************************************************************************
 639:.\Generated_Source\PSoC5/CyFlash.c ****     *
 640:.\Generated_Source\PSoC5/CyFlash.c ****     * Summary:
 641:.\Generated_Source\PSoC5/CyFlash.c ****     *  Enable the EEPROM.
 642:.\Generated_Source\PSoC5/CyFlash.c ****     *
 643:.\Generated_Source\PSoC5/CyFlash.c ****     * Parameters:
 644:.\Generated_Source\PSoC5/CyFlash.c ****     *  None
 645:.\Generated_Source\PSoC5/CyFlash.c ****     *
 646:.\Generated_Source\PSoC5/CyFlash.c ****     * Return:
 647:.\Generated_Source\PSoC5/CyFlash.c ****     *  None
 648:.\Generated_Source\PSoC5/CyFlash.c ****     *
 649:.\Generated_Source\PSoC5/CyFlash.c ****     *******************************************************************************/
 650:.\Generated_Source\PSoC5/CyFlash.c ****     void CyEEPROM_Start(void) 
 651:.\Generated_Source\PSoC5/CyFlash.c ****     {
  64              		.loc 1 651 0
  65              		.cfi_startproc
  66              		@ args = 0, pretend = 0, frame = 0
  67              		@ frame_needed = 0, uses_anonymous_args = 0
  68              		@ link register save eliminated.
 652:.\Generated_Source\PSoC5/CyFlash.c ****         /* Active Power Mode */
 653:.\Generated_Source\PSoC5/CyFlash.c ****         *CY_FLASH_PM_ACT_EEFLASH_PTR |= CY_FLASH_PM_EE_MASK;
  69              		.loc 1 653 0
  70 0000 054B     		ldr	r3, .L7
  71 0002 1A78     		ldrb	r2, [r3, #0]	@ zero_extendqisi2
  72 0004 42F01002 		orr	r2, r2, #16
  73 0008 1A70     		strb	r2, [r3, #0]
 654:.\Generated_Source\PSoC5/CyFlash.c **** 
 655:.\Generated_Source\PSoC5/CyFlash.c ****         /* Standby Power Mode */
 656:.\Generated_Source\PSoC5/CyFlash.c ****         *CY_FLASH_PM_ALTACT_EEFLASH_PTR |= CY_FLASH_PM_EE_MASK;
  74              		.loc 1 656 0
  75 000a 1033     		adds	r3, r3, #16
  76 000c 1A78     		ldrb	r2, [r3, #0]	@ zero_extendqisi2
  77 000e 42F01002 		orr	r2, r2, #16
  78 0012 1A70     		strb	r2, [r3, #0]
 657:.\Generated_Source\PSoC5/CyFlash.c ****     }
  79              		.loc 1 657 0
  80 0014 7047     		bx	lr
ARM GAS  C:\DOCUME~1\ADMINI~1\LOCALS~1\Temp\ccpWDBk9.s 			page 14


  81              	.L8:
  82 0016 00BF     		.align	2
  83              	.L7:
  84 0018 AC430040 		.word	1073759148
  85              		.cfi_endproc
  86              	.LFE9:
  87              		.size	CyEEPROM_Start, .-CyEEPROM_Start
  88              		.section	.text.CyEEPROM_Stop,"ax",%progbits
  89              		.align	1
  90              		.global	CyEEPROM_Stop
  91              		.thumb
  92              		.thumb_func
  93              		.type	CyEEPROM_Stop, %function
  94              	CyEEPROM_Stop:
  95              	.LFB10:
 658:.\Generated_Source\PSoC5/CyFlash.c **** 
 659:.\Generated_Source\PSoC5/CyFlash.c **** 
 660:.\Generated_Source\PSoC5/CyFlash.c ****     /*******************************************************************************
 661:.\Generated_Source\PSoC5/CyFlash.c ****     * Function Name: CyEEPROM_Stop
 662:.\Generated_Source\PSoC5/CyFlash.c ****     ********************************************************************************
 663:.\Generated_Source\PSoC5/CyFlash.c ****     *
 664:.\Generated_Source\PSoC5/CyFlash.c ****     * Summary:
 665:.\Generated_Source\PSoC5/CyFlash.c ****     *  Disable the EEPROM.
 666:.\Generated_Source\PSoC5/CyFlash.c ****     *
 667:.\Generated_Source\PSoC5/CyFlash.c ****     * Parameters:
 668:.\Generated_Source\PSoC5/CyFlash.c ****     *  None
 669:.\Generated_Source\PSoC5/CyFlash.c ****     *
 670:.\Generated_Source\PSoC5/CyFlash.c ****     * Return:
 671:.\Generated_Source\PSoC5/CyFlash.c ****     *  None
 672:.\Generated_Source\PSoC5/CyFlash.c ****     *
 673:.\Generated_Source\PSoC5/CyFlash.c ****     *******************************************************************************/
 674:.\Generated_Source\PSoC5/CyFlash.c ****     void CyEEPROM_Stop (void) 
 675:.\Generated_Source\PSoC5/CyFlash.c ****     {
  96              		.loc 1 675 0
  97              		.cfi_startproc
  98              		@ args = 0, pretend = 0, frame = 0
  99              		@ frame_needed = 0, uses_anonymous_args = 0
 100              		@ link register save eliminated.
 676:.\Generated_Source\PSoC5/CyFlash.c ****         /* Active Power Mode */
 677:.\Generated_Source\PSoC5/CyFlash.c ****         *CY_FLASH_PM_ACT_EEFLASH_PTR &= ((uint8)(~CY_FLASH_PM_EE_MASK));
 101              		.loc 1 677 0
 102 0000 054B     		ldr	r3, .L11
 103 0002 1A78     		ldrb	r2, [r3, #0]	@ zero_extendqisi2
 104 0004 02F0EF02 		and	r2, r2, #239
 105 0008 1A70     		strb	r2, [r3, #0]
 678:.\Generated_Source\PSoC5/CyFlash.c **** 
 679:.\Generated_Source\PSoC5/CyFlash.c ****         /* Standby Power Mode */
 680:.\Generated_Source\PSoC5/CyFlash.c ****         *CY_FLASH_PM_ALTACT_EEFLASH_PTR &= ((uint8)(~CY_FLASH_PM_EE_MASK));
 106              		.loc 1 680 0
 107 000a 1033     		adds	r3, r3, #16
 108 000c 1A78     		ldrb	r2, [r3, #0]	@ zero_extendqisi2
 109 000e 02F0EF02 		and	r2, r2, #239
 110 0012 1A70     		strb	r2, [r3, #0]
 681:.\Generated_Source\PSoC5/CyFlash.c ****     }
 111              		.loc 1 681 0
 112 0014 7047     		bx	lr
 113              	.L12:
ARM GAS  C:\DOCUME~1\ADMINI~1\LOCALS~1\Temp\ccpWDBk9.s 			page 15


 114 0016 00BF     		.align	2
 115              	.L11:
 116 0018 AC430040 		.word	1073759148
 117              		.cfi_endproc
 118              	.LFE10:
 119              		.size	CyEEPROM_Stop, .-CyEEPROM_Stop
 120              		.section	.text.CyEEPROM_ReadReserve,"ax",%progbits
 121              		.align	1
 122              		.global	CyEEPROM_ReadReserve
 123              		.thumb
 124              		.thumb_func
 125              		.type	CyEEPROM_ReadReserve, %function
 126              	CyEEPROM_ReadReserve:
 127              	.LFB11:
 682:.\Generated_Source\PSoC5/CyFlash.c **** 
 683:.\Generated_Source\PSoC5/CyFlash.c **** #endif /* (CY_PSOC3 || CY_PSOC5LP) */
 684:.\Generated_Source\PSoC5/CyFlash.c **** 
 685:.\Generated_Source\PSoC5/CyFlash.c **** 
 686:.\Generated_Source\PSoC5/CyFlash.c **** /*******************************************************************************
 687:.\Generated_Source\PSoC5/CyFlash.c **** * Function Name: CyEEPROM_ReadReserve
 688:.\Generated_Source\PSoC5/CyFlash.c **** ********************************************************************************
 689:.\Generated_Source\PSoC5/CyFlash.c **** *
 690:.\Generated_Source\PSoC5/CyFlash.c **** * Summary:
 691:.\Generated_Source\PSoC5/CyFlash.c **** *  Request access to the EEPROM for reading and wait until access is available.
 692:.\Generated_Source\PSoC5/CyFlash.c **** *
 693:.\Generated_Source\PSoC5/CyFlash.c **** * Parameters:
 694:.\Generated_Source\PSoC5/CyFlash.c **** *  None
 695:.\Generated_Source\PSoC5/CyFlash.c **** *
 696:.\Generated_Source\PSoC5/CyFlash.c **** * Return:
 697:.\Generated_Source\PSoC5/CyFlash.c **** *  None
 698:.\Generated_Source\PSoC5/CyFlash.c **** *
 699:.\Generated_Source\PSoC5/CyFlash.c **** *******************************************************************************/
 700:.\Generated_Source\PSoC5/CyFlash.c **** void CyEEPROM_ReadReserve(void) 
 701:.\Generated_Source\PSoC5/CyFlash.c **** {
 128              		.loc 1 701 0
 129              		.cfi_startproc
 130              		@ args = 0, pretend = 0, frame = 0
 131              		@ frame_needed = 0, uses_anonymous_args = 0
 132              		@ link register save eliminated.
 702:.\Generated_Source\PSoC5/CyFlash.c ****     /* Make a request for PHUB to have access */
 703:.\Generated_Source\PSoC5/CyFlash.c ****     *CY_FLASH_EE_SCR_PTR |= CY_FLASH_EE_SCR_AHB_EE_REQ;
 133              		.loc 1 703 0
 134 0000 054B     		ldr	r3, .L17
 135 0002 1A78     		ldrb	r2, [r3, #0]	@ zero_extendqisi2
 136 0004 42F00102 		orr	r2, r2, #1
 137 0008 1A70     		strb	r2, [r3, #0]
 138              	.L14:
 704:.\Generated_Source\PSoC5/CyFlash.c **** 
 705:.\Generated_Source\PSoC5/CyFlash.c ****     while (0u == (*CY_FLASH_EE_SCR_PTR & CY_FLASH_EE_SCR_AHB_EE_ACK))
 139              		.loc 1 705 0
 140 000a 034B     		ldr	r3, .L17
 141 000c 1B78     		ldrb	r3, [r3, #0]	@ zero_extendqisi2
 142 000e 13F0020F 		tst	r3, #2
 143 0012 FAD0     		beq	.L14
 706:.\Generated_Source\PSoC5/CyFlash.c ****     {
 707:.\Generated_Source\PSoC5/CyFlash.c ****         /* Wait for acknowledgement from PHUB */
 708:.\Generated_Source\PSoC5/CyFlash.c ****     }
ARM GAS  C:\DOCUME~1\ADMINI~1\LOCALS~1\Temp\ccpWDBk9.s 			page 16


 709:.\Generated_Source\PSoC5/CyFlash.c **** }
 144              		.loc 1 709 0
 145 0014 7047     		bx	lr
 146              	.L18:
 147 0016 00BF     		.align	2
 148              	.L17:
 149 0018 02470040 		.word	1073760002
 150              		.cfi_endproc
 151              	.LFE11:
 152              		.size	CyEEPROM_ReadReserve, .-CyEEPROM_ReadReserve
 153              		.section	.text.CyEEPROM_ReadRelease,"ax",%progbits
 154              		.align	1
 155              		.global	CyEEPROM_ReadRelease
 156              		.thumb
 157              		.thumb_func
 158              		.type	CyEEPROM_ReadRelease, %function
 159              	CyEEPROM_ReadRelease:
 160              	.LFB12:
 710:.\Generated_Source\PSoC5/CyFlash.c **** 
 711:.\Generated_Source\PSoC5/CyFlash.c **** 
 712:.\Generated_Source\PSoC5/CyFlash.c **** /*******************************************************************************
 713:.\Generated_Source\PSoC5/CyFlash.c **** * Function Name: CyEEPROM_ReadRelease
 714:.\Generated_Source\PSoC5/CyFlash.c **** ********************************************************************************
 715:.\Generated_Source\PSoC5/CyFlash.c **** *
 716:.\Generated_Source\PSoC5/CyFlash.c **** * Summary:
 717:.\Generated_Source\PSoC5/CyFlash.c **** *  Release the read reservation of the EEPROM.
 718:.\Generated_Source\PSoC5/CyFlash.c **** *
 719:.\Generated_Source\PSoC5/CyFlash.c **** * Parameters:
 720:.\Generated_Source\PSoC5/CyFlash.c **** *  None
 721:.\Generated_Source\PSoC5/CyFlash.c **** *
 722:.\Generated_Source\PSoC5/CyFlash.c **** * Return:
 723:.\Generated_Source\PSoC5/CyFlash.c **** *  None
 724:.\Generated_Source\PSoC5/CyFlash.c **** *
 725:.\Generated_Source\PSoC5/CyFlash.c **** *******************************************************************************/
 726:.\Generated_Source\PSoC5/CyFlash.c **** void CyEEPROM_ReadRelease(void) 
 727:.\Generated_Source\PSoC5/CyFlash.c **** {
 161              		.loc 1 727 0
 162              		.cfi_startproc
 163              		@ args = 0, pretend = 0, frame = 0
 164              		@ frame_needed = 0, uses_anonymous_args = 0
 165              		@ link register save eliminated.
 728:.\Generated_Source\PSoC5/CyFlash.c ****     *CY_FLASH_EE_SCR_PTR |= 0x00u;
 166              		.loc 1 728 0
 167 0000 014B     		ldr	r3, .L21
 168 0002 1A78     		ldrb	r2, [r3, #0]	@ zero_extendqisi2
 169 0004 1A70     		strb	r2, [r3, #0]
 729:.\Generated_Source\PSoC5/CyFlash.c **** }
 170              		.loc 1 729 0
 171 0006 7047     		bx	lr
 172              	.L22:
 173              		.align	2
 174              	.L21:
 175 0008 02470040 		.word	1073760002
 176              		.cfi_endproc
 177              	.LFE12:
 178              		.size	CyEEPROM_ReadRelease, .-CyEEPROM_ReadRelease
 179              		.section	.text.CyFlash_SetWaitCycles,"ax",%progbits
ARM GAS  C:\DOCUME~1\ADMINI~1\LOCALS~1\Temp\ccpWDBk9.s 			page 17


 180              		.align	1
 181              		.global	CyFlash_SetWaitCycles
 182              		.thumb
 183              		.thumb_func
 184              		.type	CyFlash_SetWaitCycles, %function
 185              	CyFlash_SetWaitCycles:
 186              	.LFB8:
 187              		.loc 1 545 0
 188              		.cfi_startproc
 189              		@ args = 0, pretend = 0, frame = 0
 190              		@ frame_needed = 0, uses_anonymous_args = 0
 191              	.LVL0:
 192 0000 10B5     		push	{r4, lr}
 193              	.LCFI0:
 194              		.cfi_def_cfa_offset 8
 195              		.loc 1 545 0
 196 0002 0446     		mov	r4, r0
 197              		.cfi_offset 14, -4
 198              		.cfi_offset 4, -8
 199              		.loc 1 549 0
 200 0004 FFF7FEFF 		bl	CyEnterCriticalSection
 201              	.LVL1:
 202              		.loc 1 606 0
 203 0008 102C     		cmp	r4, #16
 204 000a 06D8     		bhi	.L24
 205              		.loc 1 608 0
 206 000c 0E4B     		ldr	r3, .L30
 207 000e 1A78     		ldrb	r2, [r3, #0]	@ zero_extendqisi2
 208 0010 02F03F02 		and	r2, r2, #63
 209 0014 42F04002 		orr	r2, r2, #64
 210 0018 10E0     		b	.L29
 211              	.L24:
 212              		.loc 1 611 0
 213 001a 212C     		cmp	r4, #33
 214 001c 06D8     		bhi	.L26
 215              		.loc 1 613 0
 216 001e 0A4B     		ldr	r3, .L30
 217 0020 1A78     		ldrb	r2, [r3, #0]	@ zero_extendqisi2
 218 0022 02F03F02 		and	r2, r2, #63
 219 0026 42F08002 		orr	r2, r2, #128
 220 002a 07E0     		b	.L29
 221              	.L26:
 222              		.loc 1 618 0
 223 002c 064B     		ldr	r3, .L30
 224              		.loc 1 616 0
 225 002e 322C     		cmp	r4, #50
 226              		.loc 1 618 0
 227 0030 1A78     		ldrb	r2, [r3, #0]	@ zero_extendqisi2
 228 0032 94BF     		ite	ls
 229 0034 42F0C002 		orrls	r2, r2, #192
 230              		.loc 1 623 0
 231 0038 02F03F02 		andhi	r2, r2, #63
 232              	.L29:
 233 003c 1A70     		strb	r2, [r3, #0]
 234              		.loc 1 631 0
 235 003e BDE81040 		pop	{r4, lr}
 236              		.loc 1 630 0
ARM GAS  C:\DOCUME~1\ADMINI~1\LOCALS~1\Temp\ccpWDBk9.s 			page 18


 237 0042 FFF7FEBF 		b	CyExitCriticalSection
 238              	.L31:
 239 0046 00BF     		.align	2
 240              	.L30:
 241 0048 00480040 		.word	1073760256
 242              		.cfi_endproc
 243              	.LFE8:
 244              		.size	CyFlash_SetWaitCycles, .-CyFlash_SetWaitCycles
 245              		.section	.text.CyFlash_Start,"ax",%progbits
 246              		.align	1
 247              		.global	CyFlash_Start
 248              		.thumb
 249              		.thumb_func
 250              		.type	CyFlash_Start, %function
 251              	CyFlash_Start:
 252              	.LFB0:
 253              		.loc 1 58 0
 254              		.cfi_startproc
 255              		@ args = 0, pretend = 0, frame = 0
 256              		@ frame_needed = 0, uses_anonymous_args = 0
 257              		@ link register save eliminated.
 258              		.loc 1 72 0
 259 0000 064B     		ldr	r3, .L34
 260              		.loc 1 79 0
 261 0002 0520     		movs	r0, #5
 262              		.loc 1 72 0
 263 0004 1A78     		ldrb	r2, [r3, #0]	@ zero_extendqisi2
 264 0006 42F00102 		orr	r2, r2, #1
 265 000a 1A70     		strb	r2, [r3, #0]
 266              		.loc 1 75 0
 267 000c 1033     		adds	r3, r3, #16
 268 000e 1A78     		ldrb	r2, [r3, #0]	@ zero_extendqisi2
 269 0010 42F00102 		orr	r2, r2, #1
 270 0014 1A70     		strb	r2, [r3, #0]
 271              		.loc 1 80 0
 272              		.loc 1 79 0
 273 0016 FFF7FEBF 		b	CyDelayUs
 274              	.L35:
 275 001a 00BF     		.align	2
 276              	.L34:
 277 001c AC430040 		.word	1073759148
 278              		.cfi_endproc
 279              	.LFE0:
 280              		.size	CyFlash_Start, .-CyFlash_Start
 281              		.section	.text.CyWriteRowFull,"ax",%progbits
 282              		.align	1
 283              		.global	CyWriteRowFull
 284              		.thumb
 285              		.thumb_func
 286              		.type	CyWriteRowFull, %function
 287              	CyWriteRowFull:
 288              	.LFB7:
 289              		.loc 1 462 0
 290              		.cfi_startproc
 291              		@ args = 0, pretend = 0, frame = 0
 292              		@ frame_needed = 0, uses_anonymous_args = 0
 293              	.LVL2:
ARM GAS  C:\DOCUME~1\ADMINI~1\LOCALS~1\Temp\ccpWDBk9.s 			page 19


 294 0000 F8B5     		push	{r3, r4, r5, r6, r7, lr}
 295              	.LCFI1:
 296              		.cfi_def_cfa_offset 24
 297              	.LVL3:
 298              		.loc 1 462 0
 299 0002 0446     		mov	r4, r0
 300              		.cfi_offset 14, -4
 301              		.cfi_offset 7, -8
 302              		.cfi_offset 6, -12
 303              		.cfi_offset 5, -16
 304              		.cfi_offset 4, -20
 305              		.cfi_offset 3, -24
 306 0004 0D46     		mov	r5, r1
 307 0006 1746     		mov	r7, r2
 308 0008 1E46     		mov	r6, r3
 309              	.LVL4:
 310              		.loc 1 465 0
 311 000a FFF7FEFF 		bl	CySpcLock
 312              	.LVL5:
 313 000e 08B1     		cbz	r0, .L37
 314 0010 0426     		movs	r6, #4
 315              	.LVL6:
 316 0012 35E0     		b	.L38
 317              	.LVL7:
 318              	.L37:
 319              		.loc 1 468 0
 320 0014 3246     		mov	r2, r6
 321 0016 2046     		mov	r0, r4
 322 0018 3946     		mov	r1, r7
 323 001a FFF7FEFF 		bl	CySpcLoadRow
 324              		.loc 1 470 0
 325 001e 0728     		cmp	r0, #7
 326              	.LVL8:
 327              		.loc 1 468 0
 328 0020 0646     		mov	r6, r0
 329              	.LVL9:
 330              		.loc 1 470 0
 331 0022 2BD1     		bne	.L40
 332 0024 02E0     		b	.L39
 333              	.L41:
 334              		.loc 1 475 0
 335 0026 0120     		movs	r0, #1
 336 0028 FFF7FEFF 		bl	CyDelayUs
 337              	.L39:
 338              		.loc 1 472 0
 339 002c 154B     		ldr	r3, .L46
 340 002e 1A78     		ldrb	r2, [r3, #0]	@ zero_extendqisi2
 341 0030 12F0020F 		tst	r2, #2
 342 0034 F7D0     		beq	.L41
 343              		.loc 1 479 0
 344 0036 1A78     		ldrb	r2, [r3, #0]	@ zero_extendqisi2
 345 0038 12F0020F 		tst	r2, #2
 346 003c 1CD0     		beq	.L42
 347 003e 1B78     		ldrb	r3, [r3, #0]	@ zero_extendqisi2
 348 0040 9B08     		lsrs	r3, r3, #2
 349 0042 19D1     		bne	.L42
 350              		.loc 1 491 0
ARM GAS  C:\DOCUME~1\ADMINI~1\LOCALS~1\Temp\ccpWDBk9.s 			page 20


 351 0044 104B     		ldr	r3, .L46+4
 352 0046 2046     		mov	r0, r4
 353 0048 1A78     		ldrb	r2, [r3, #0]	@ zero_extendqisi2
 354 004a 2946     		mov	r1, r5
 355 004c 5B78     		ldrb	r3, [r3, #1]	@ zero_extendqisi2
 356 004e FFF7FEFF 		bl	CySpcWriteRow
 357              		.loc 1 493 0
 358 0052 0728     		cmp	r0, #7
 359              		.loc 1 491 0
 360 0054 0646     		mov	r6, r0
 361              		.loc 1 493 0
 362 0056 11D1     		bne	.L40
 363 0058 02E0     		b	.L43
 364              	.L44:
 365              		.loc 1 498 0
 366 005a 0120     		movs	r0, #1
 367 005c FFF7FEFF 		bl	CyDelayUs
 368              	.L43:
 369              		.loc 1 495 0
 370 0060 084B     		ldr	r3, .L46
 371 0062 1A78     		ldrb	r2, [r3, #0]	@ zero_extendqisi2
 372 0064 12F0020F 		tst	r2, #2
 373 0068 F7D0     		beq	.L44
 374              		.loc 1 502 0
 375 006a 1A78     		ldrb	r2, [r3, #0]	@ zero_extendqisi2
 376 006c 12F0020F 		tst	r2, #2
 377 0070 02D0     		beq	.L42
 378 0072 1E78     		ldrb	r6, [r3, #0]	@ zero_extendqisi2
 379              	.LVL10:
 380 0074 B608     		lsrs	r6, r6, #2
 381 0076 01D0     		beq	.L40
 382              	.LVL11:
 383              	.L42:
 384 0078 4FF0FF36 		mov	r6, #-1
 385              	.L40:
 386              		.loc 1 515 0
 387 007c FFF7FEFF 		bl	CySpcUnlock
 388              	.L38:
 389              		.loc 1 523 0
 390 0080 3046     		mov	r0, r6
 391 0082 F8BD     		pop	{r3, r4, r5, r6, r7, pc}
 392              	.L47:
 393              		.align	2
 394              	.L46:
 395 0084 22470040 		.word	1073760034
 396 0088 00000000 		.word	dieTemperature
 397              		.cfi_endproc
 398              	.LFE7:
 399              		.size	CyWriteRowFull, .-CyWriteRowFull
 400              		.section	.text.CyWriteRowConfig,"ax",%progbits
 401              		.align	1
 402              		.global	CyWriteRowConfig
 403              		.thumb
 404              		.thumb_func
 405              		.type	CyWriteRowConfig, %function
 406              	CyWriteRowConfig:
 407              	.LFB6:
ARM GAS  C:\DOCUME~1\ADMINI~1\LOCALS~1\Temp\ccpWDBk9.s 			page 21


 408              		.loc 1 407 0
 409              		.cfi_startproc
 410              		@ args = 0, pretend = 0, frame = 0
 411              		@ frame_needed = 0, uses_anonymous_args = 0
 412              	.LVL12:
 413              		.loc 1 422 0
 414 0000 104B     		ldr	r3, .L51
 415              		.loc 1 407 0
 416 0002 70B5     		push	{r4, r5, r6, lr}
 417              	.LCFI2:
 418              		.cfi_def_cfa_offset 16
 419              		.loc 1 407 0
 420 0004 0C46     		mov	r4, r1
 421              		.cfi_offset 14, -4
 422              		.cfi_offset 6, -8
 423              		.cfi_offset 5, -12
 424              		.cfi_offset 4, -16
 425              		.loc 1 413 0
 426 0006 01EB0021 		add	r1, r1, r0, lsl #8
 427              	.LVL13:
 428              		.loc 1 407 0
 429 000a 0546     		mov	r5, r0
 430              		.loc 1 413 0
 431 000c 0902     		lsls	r1, r1, #8
 432              	.LVL14:
 433              		.loc 1 422 0
 434 000e 1868     		ldr	r0, [r3, #0]
 435              	.LVL15:
 436 0010 0023     		movs	r3, #0
 437              	.L49:
 438 0012 13F801C0 		ldrb	ip, [r3, r1]	@ zero_extendqisi2
 439 0016 00F803C0 		strb	ip, [r0, r3]
 440 001a 0133     		adds	r3, r3, #1
 441              		.loc 1 420 0
 442 001c B3F5807F 		cmp	r3, #256
 443 0020 F7D1     		bne	.L49
 444              		.loc 1 428 0
 445 0022 1146     		mov	r1, r2
 446              	.LVL16:
 447 0024 00F58070 		add	r0, r0, #256
 448 0028 2022     		movs	r2, #32
 449              	.LVL17:
 450 002a FFF7FEFF 		bl	memcpy
 451              		.loc 1 431 0
 452 002e 054B     		ldr	r3, .L51
 453 0030 2846     		mov	r0, r5
 454 0032 1A68     		ldr	r2, [r3, #0]
 455 0034 2146     		mov	r1, r4
 456 0036 4FF49073 		mov	r3, #288
 457              		.loc 1 434 0
 458 003a BDE87040 		pop	{r4, r5, r6, lr}
 459              		.loc 1 431 0
 460 003e FFF7FEBF 		b	CyWriteRowFull
 461              	.L52:
 462 0042 00BF     		.align	2
 463              	.L51:
 464 0044 00000000 		.word	.LANCHOR0
ARM GAS  C:\DOCUME~1\ADMINI~1\LOCALS~1\Temp\ccpWDBk9.s 			page 22


 465              		.cfi_endproc
 466              	.LFE6:
 467              		.size	CyWriteRowConfig, .-CyWriteRowConfig
 468              		.section	.text.CyWriteRowData,"ax",%progbits
 469              		.align	1
 470              		.global	CyWriteRowData
 471              		.thumb
 472              		.thumb_func
 473              		.type	CyWriteRowData, %function
 474              	CyWriteRowData:
 475              	.LFB5:
 476              		.loc 1 343 0
 477              		.cfi_startproc
 478              		@ args = 0, pretend = 0, frame = 0
 479              		@ frame_needed = 0, uses_anonymous_args = 0
 480              	.LVL18:
 481              		.loc 1 349 0
 482 0000 3F28     		cmp	r0, #63
 483              		.loc 1 343 0
 484 0002 2DE9F041 		push	{r4, r5, r6, r7, r8, lr}
 485              	.LCFI3:
 486              		.cfi_def_cfa_offset 24
 487              		.loc 1 343 0
 488 0006 0446     		mov	r4, r0
 489              		.cfi_offset 14, -4
 490              		.cfi_offset 8, -8
 491              		.cfi_offset 7, -12
 492              		.cfi_offset 6, -16
 493              		.cfi_offset 5, -20
 494              		.cfi_offset 4, -24
 495 0008 0D46     		mov	r5, r1
 496              		.loc 1 349 0
 497 000a 1AD9     		bls	.L54
 498              	.LVL19:
 499 000c 1026     		movs	r6, #16
 500              	.LVL20:
 501 000e 09E0     		b	.L55
 502              	.LVL21:
 503              	.L56:
 504              		.loc 1 361 0
 505 0010 CE18     		adds	r6, r1, r3
 506 0012 13F800C0 		ldrb	ip, [r3, r0]	@ zero_extendqisi2
 507 0016 0133     		adds	r3, r3, #1
 508              		.loc 1 359 0
 509 0018 202B     		cmp	r3, #32
 510              		.loc 1 361 0
 511 001a 86F800C1 		strb	ip, [r6, #256]
 512              		.loc 1 359 0
 513 001e F7D1     		bne	.L56
 514 0020 4FF49076 		mov	r6, #288
 515              	.LVL22:
 516              	.L55:
 517              		.loc 1 369 0
 518 0024 0B4F     		ldr	r7, .L58
 519 0026 1146     		mov	r1, r2
 520 0028 3868     		ldr	r0, [r7, #0]
 521              	.LVL23:
ARM GAS  C:\DOCUME~1\ADMINI~1\LOCALS~1\Temp\ccpWDBk9.s 			page 23


 522 002a 4FF48072 		mov	r2, #256
 523              	.LVL24:
 524 002e FFF7FEFF 		bl	memcpy
 525              		.loc 1 372 0
 526 0032 3A68     		ldr	r2, [r7, #0]
 527 0034 2046     		mov	r0, r4
 528 0036 2946     		mov	r1, r5
 529 0038 3346     		mov	r3, r6
 530              		.loc 1 375 0
 531 003a BDE8F041 		pop	{r4, r5, r6, r7, r8, lr}
 532              		.loc 1 372 0
 533 003e FFF7FEBF 		b	CyWriteRowFull
 534              	.LVL25:
 535              	.L54:
 536              		.loc 1 361 0
 537 0042 044B     		ldr	r3, .L58
 538              		.loc 1 356 0
 539 0044 00F51030 		add	r0, r0, #147456
 540 0048 01EB0020 		add	r0, r1, r0, lsl #8
 541 004c 4001     		lsls	r0, r0, #5
 542              	.LVL26:
 543              		.loc 1 361 0
 544 004e 1968     		ldr	r1, [r3, #0]
 545 0050 0023     		movs	r3, #0
 546 0052 DDE7     		b	.L56
 547              	.L59:
 548              		.align	2
 549              	.L58:
 550 0054 00000000 		.word	.LANCHOR0
 551              		.cfi_endproc
 552              	.LFE5:
 553              		.size	CyWriteRowData, .-CyWriteRowData
 554              		.section	.text.CySetFlashEEBuffer,"ax",%progbits
 555              		.align	1
 556              		.global	CySetFlashEEBuffer
 557              		.thumb
 558              		.thumb_func
 559              		.type	CySetFlashEEBuffer, %function
 560              	CySetFlashEEBuffer:
 561              	.LFB4:
 562              		.loc 1 252 0
 563              		.cfi_startproc
 564              		@ args = 0, pretend = 0, frame = 0
 565              		@ frame_needed = 0, uses_anonymous_args = 0
 566              	.LVL27:
 567 0000 38B5     		push	{r3, r4, r5, lr}
 568              	.LCFI4:
 569              		.cfi_def_cfa_offset 16
 570              		.loc 1 252 0
 571 0002 0446     		mov	r4, r0
 572              		.cfi_offset 14, -4
 573              		.cfi_offset 5, -8
 574              		.cfi_offset 4, -12
 575              		.cfi_offset 3, -16
 576              		.loc 1 255 0
 577 0004 FFF7FEFF 		bl	CySpcStart
 578              	.LVL28:
ARM GAS  C:\DOCUME~1\ADMINI~1\LOCALS~1\Temp\ccpWDBk9.s 			page 24


 579              		.loc 1 259 0
 580 0008 0CB9     		cbnz	r4, .L61
 581 000a 0120     		movs	r0, #1
 582              	.LVL29:
 583 000c 38BD     		pop	{r3, r4, r5, pc}
 584              	.LVL30:
 585              	.L61:
 586              		.loc 1 263 0
 587 000e FFF7FEFF 		bl	CySpcLock
 588 0012 0546     		mov	r5, r0
 589 0014 08B1     		cbz	r0, .L63
 590 0016 0420     		movs	r0, #4
 591              	.LVL31:
 592 0018 38BD     		pop	{r3, r4, r5, pc}
 593              	.LVL32:
 594              	.L63:
 595              		.loc 1 269 0
 596 001a 034B     		ldr	r3, .L65
 597 001c 1C60     		str	r4, [r3, #0]
 598              		.loc 1 270 0
 599 001e FFF7FEFF 		bl	CySpcUnlock
 600 0022 2846     		mov	r0, r5
 601              	.LVL33:
 602              	.LVL34:
 603              		.loc 1 281 0
 604 0024 38BD     		pop	{r3, r4, r5, pc}
 605              	.L66:
 606 0026 00BF     		.align	2
 607              	.L65:
 608 0028 00000000 		.word	.LANCHOR0
 609              		.cfi_endproc
 610              	.LFE4:
 611              		.size	CySetFlashEEBuffer, .-CySetFlashEEBuffer
 612              		.section	.text.CySetTempInt,"ax",%progbits
 613              		.align	1
 614              		.thumb
 615              		.thumb_func
 616              		.type	CySetTempInt, %function
 617              	CySetTempInt:
 618              	.LFB2:
 619              		.loc 1 149 0
 620              		.cfi_startproc
 621              		@ args = 0, pretend = 0, frame = 0
 622              		@ frame_needed = 0, uses_anonymous_args = 0
 623 0000 10B5     		push	{r4, lr}
 624              	.LCFI5:
 625              		.cfi_def_cfa_offset 8
 626              		.loc 1 153 0
 627              		.cfi_offset 14, -4
 628              		.cfi_offset 4, -8
 629 0002 FFF7FEFF 		bl	CySpcStart
 630              		.loc 1 158 0
 631 0006 FFF7FEFF 		bl	CySpcLock
 632 000a 08B1     		cbz	r0, .L68
 633 000c 0424     		movs	r4, #4
 634              	.LVL35:
 635 000e 1EE0     		b	.L69
ARM GAS  C:\DOCUME~1\ADMINI~1\LOCALS~1\Temp\ccpWDBk9.s 			page 25


 636              	.LVL36:
 637              	.L68:
 638              		.loc 1 164 0
 639 0010 0120     		movs	r0, #1
 640 0012 FFF7FEFF 		bl	CySpcGetTemp
 641 0016 0728     		cmp	r0, #7
 642 0018 15D1     		bne	.L70
 643              	.L75:
 644              		.loc 1 169 0
 645 001a 0221     		movs	r1, #2
 646 001c 0D48     		ldr	r0, .L78
 647 001e FFF7FEFF 		bl	CySpcReadData
 648 0022 0228     		cmp	r0, #2
 649 0024 0AD1     		bne	.L77
 650 0026 02E0     		b	.L71
 651              	.L73:
 652              		.loc 1 176 0
 653 0028 0120     		movs	r0, #1
 654 002a FFF7FEFF 		bl	CyDelayUs
 655              	.L71:
 656              		.loc 1 173 0
 657 002e 0A4B     		ldr	r3, .L78+4
 658 0030 1B78     		ldrb	r3, [r3, #0]	@ zero_extendqisi2
 659 0032 13F0020F 		tst	r3, #2
 660 0036 F7D0     		beq	.L73
 661 0038 0024     		movs	r4, #0
 662              	.LVL37:
 663 003a 06E0     		b	.L74
 664              	.LVL38:
 665              	.L77:
 666              		.loc 1 181 0
 667 003c 064B     		ldr	r3, .L78+4
 668 003e 1B78     		ldrb	r3, [r3, #0]	@ zero_extendqisi2
 669 0040 13F0020F 		tst	r3, #2
 670 0044 E9D0     		beq	.L75
 671              	.L70:
 672 0046 4FF0FF34 		mov	r4, #-1
 673              	.LVL39:
 674              	.L74:
 675              		.loc 1 184 0
 676 004a FFF7FEFF 		bl	CySpcUnlock
 677              	.L69:
 678              		.loc 1 192 0
 679 004e 2046     		mov	r0, r4
 680 0050 10BD     		pop	{r4, pc}
 681              	.L79:
 682 0052 00BF     		.align	2
 683              	.L78:
 684 0054 00000000 		.word	dieTemperature
 685 0058 22470040 		.word	1073760034
 686              		.cfi_endproc
 687              	.LFE2:
 688              		.size	CySetTempInt, .-CySetTempInt
 689              		.section	.text.CySetTemp,"ax",%progbits
 690              		.align	1
 691              		.global	CySetTemp
 692              		.thumb
ARM GAS  C:\DOCUME~1\ADMINI~1\LOCALS~1\Temp\ccpWDBk9.s 			page 26


 693              		.thumb_func
 694              		.type	CySetTemp, %function
 695              	CySetTemp:
 696              	.LFB3:
 697              		.loc 1 219 0
 698              		.cfi_startproc
 699              		@ args = 0, pretend = 0, frame = 0
 700              		@ frame_needed = 0, uses_anonymous_args = 0
 701 0000 10B5     		push	{r4, lr}
 702              	.LCFI6:
 703              		.cfi_def_cfa_offset 8
 704              		.loc 1 220 0
 705              		.cfi_offset 14, -4
 706              		.cfi_offset 4, -8
 707 0002 FFF7FEFF 		bl	CySetTempInt
 708              		.loc 1 222 0
 709 0006 18B9     		cbnz	r0, .L81
 710              		.loc 1 228 0
 711 0008 BDE81040 		pop	{r4, lr}
 712              		.loc 1 224 0
 713 000c FFF7FEBF 		b	CySetTempInt
 714              	.L81:
 715              		.loc 1 228 0
 716 0010 10BD     		pop	{r4, pc}
 717              		.cfi_endproc
 718              	.LFE3:
 719              		.size	CySetTemp, .-CySetTemp
 720              		.comm	dieTemperature,2,4
 721              		.bss
 722              		.align	2
 723              		.set	.LANCHOR0,. + 0
 724              		.type	rowBuffer, %object
 725              		.size	rowBuffer, 4
 726              	rowBuffer:
 727 0000 00000000 		.space	4
 728              		.text
 729              	.Letext0: