ARM GAS  C:\DOCUME~1\ADMINI~1\LOCALS~1\Temp\cc0hliBl.s 			page 1


   1              		.syntax unified
   2              		.cpu cortex-m3
   3              		.fpu softvfp
   4              		.eabi_attribute 20, 1
   5              		.eabi_attribute 21, 1
   6              		.eabi_attribute 23, 3
   7              		.eabi_attribute 24, 1
   8              		.eabi_attribute 25, 1
   9              		.eabi_attribute 26, 1
  10              		.eabi_attribute 30, 4
  11              		.eabi_attribute 18, 4
  12              		.thumb
  13              		.file	"CySpc.c"
  20 0000 77010000 		.text
  20      02005E00 
  20      00000201 
  20      FB0E0D00 
  20      01010101 
  21              	.Ltext0:
  22              		.cfi_sections	.debug_frame
  23              		.section	.text.CySpcLoadMultiByte,"ax",%progbits
  24              		.align	1
  25              		.global	CySpcLoadMultiByte
  26              		.thumb
  27              		.thumb_func
  28              		.type	CySpcLoadMultiByte, %function
  29              	CySpcLoadMultiByte:
  30              	.LFB3:
  31              		.file 1 ".\\Generated_Source\\PSoC5\\CySpc.c"
   1:.\Generated_Source\PSoC5/CySpc.c **** /*******************************************************************************
   2:.\Generated_Source\PSoC5/CySpc.c **** * File Name: CySpc.c
   3:.\Generated_Source\PSoC5/CySpc.c **** * Version 3.40
   4:.\Generated_Source\PSoC5/CySpc.c **** *
   5:.\Generated_Source\PSoC5/CySpc.c **** *  Description:
   6:.\Generated_Source\PSoC5/CySpc.c **** *   Provides an API for the System Performance Component.
   7:.\Generated_Source\PSoC5/CySpc.c **** *   The SPC functions are not meant to be called directly by the user
   8:.\Generated_Source\PSoC5/CySpc.c **** *   application.
   9:.\Generated_Source\PSoC5/CySpc.c **** *
  10:.\Generated_Source\PSoC5/CySpc.c **** ********************************************************************************
  11:.\Generated_Source\PSoC5/CySpc.c **** * Copyright 2008-2013, Cypress Semiconductor Corporation.  All rights reserved.
  12:.\Generated_Source\PSoC5/CySpc.c **** * You may use this file only in accordance with the license, terms, conditions,
  13:.\Generated_Source\PSoC5/CySpc.c **** * disclaimers, and limitations in the end user license agreement accompanying
  14:.\Generated_Source\PSoC5/CySpc.c **** * the software package with which this file was provided.
  15:.\Generated_Source\PSoC5/CySpc.c **** *******************************************************************************/
  16:.\Generated_Source\PSoC5/CySpc.c **** 
  17:.\Generated_Source\PSoC5/CySpc.c **** #include "CySpc.h"
  18:.\Generated_Source\PSoC5/CySpc.c **** 
  19:.\Generated_Source\PSoC5/CySpc.c **** #define CY_SPC_KEY_ONE                      (0xB6u)
  20:.\Generated_Source\PSoC5/CySpc.c **** #define CY_SPC_KEY_TWO(x)                   ((uint8) (((uint16) 0xD3u) + ((uint16) (x))))
  21:.\Generated_Source\PSoC5/CySpc.c **** 
  22:.\Generated_Source\PSoC5/CySpc.c **** /* Command Codes */
ARM GAS  C:\DOCUME~1\ADMINI~1\LOCALS~1\Temp\cc0hliBl.s 			page 2


  23:.\Generated_Source\PSoC5/CySpc.c **** #define CY_SPC_CMD_LD_BYTE                  (0x00u)
  24:.\Generated_Source\PSoC5/CySpc.c **** #define CY_SPC_CMD_LD_MULTI_BYTE            (0x01u)
  25:.\Generated_Source\PSoC5/CySpc.c **** #define CY_SPC_CMD_LD_ROW                   (0x02u)
  26:.\Generated_Source\PSoC5/CySpc.c **** #define CY_SPC_CMD_RD_BYTE                  (0x03u)
  27:.\Generated_Source\PSoC5/CySpc.c **** #define CY_SPC_CMD_RD_MULTI_BYTE            (0x04u)
  28:.\Generated_Source\PSoC5/CySpc.c **** #define CY_SPC_CMD_WR_ROW                   (0x05u)
  29:.\Generated_Source\PSoC5/CySpc.c **** #define CY_SPC_CMD_WR_USER_NVL              (0x06u)
  30:.\Generated_Source\PSoC5/CySpc.c **** #define CY_SPC_CMD_PRG_ROW                  (0x07u)
  31:.\Generated_Source\PSoC5/CySpc.c **** #define CY_SPC_CMD_ER_SECTOR                (0x08u)
  32:.\Generated_Source\PSoC5/CySpc.c **** #define CY_SPC_CMD_ER_ALL                   (0x09u)
  33:.\Generated_Source\PSoC5/CySpc.c **** #define CY_SPC_CMD_RD_HIDDEN                (0x0Au)
  34:.\Generated_Source\PSoC5/CySpc.c **** #define CY_SPC_CMD_PRG_PROTECT              (0x0Bu)
  35:.\Generated_Source\PSoC5/CySpc.c **** #define CY_SPC_CMD_CHECKSUM                 (0x0Cu)
  36:.\Generated_Source\PSoC5/CySpc.c **** #define CY_SPC_CMD_DWNLD_ALGORITHM          (0x0Du)
  37:.\Generated_Source\PSoC5/CySpc.c **** #define CY_SPC_CMD_GET_TEMP                 (0x0Eu)
  38:.\Generated_Source\PSoC5/CySpc.c **** #define CY_SPC_CMD_GET_ADC                  (0x0Fu)
  39:.\Generated_Source\PSoC5/CySpc.c **** #define CY_SPC_CMD_RD_NVL_VOLATILE          (0x10u)
  40:.\Generated_Source\PSoC5/CySpc.c **** #define CY_SPC_CMD_SETUP_TS                 (0x11u)
  41:.\Generated_Source\PSoC5/CySpc.c **** #define CY_SPC_CMD_DISABLE_TS               (0x12u)
  42:.\Generated_Source\PSoC5/CySpc.c **** #define CY_SPC_CMD_ER_ROW                   (0x13u)
  43:.\Generated_Source\PSoC5/CySpc.c **** 
  44:.\Generated_Source\PSoC5/CySpc.c **** /* Enable bit in Active and Alternate Active mode templates */
  45:.\Generated_Source\PSoC5/CySpc.c **** #define PM_SPC_PM_EN                        (0x08u)
  46:.\Generated_Source\PSoC5/CySpc.c **** 
  47:.\Generated_Source\PSoC5/CySpc.c **** /* Gate calls to the SPC. */
  48:.\Generated_Source\PSoC5/CySpc.c **** uint8 SpcLockState = CY_SPC_UNLOCKED;
  49:.\Generated_Source\PSoC5/CySpc.c **** 
  50:.\Generated_Source\PSoC5/CySpc.c **** 
  51:.\Generated_Source\PSoC5/CySpc.c **** #if(CY_PSOC5LP)
  52:.\Generated_Source\PSoC5/CySpc.c **** 
  53:.\Generated_Source\PSoC5/CySpc.c ****     /***************************************************************************
  54:.\Generated_Source\PSoC5/CySpc.c ****     * The wait-state pipeline must be enabled prior to accessing the SPC
  55:.\Generated_Source\PSoC5/CySpc.c ****     * register interface regardless of CPU frequency. The CySpcLock() saves
  56:.\Generated_Source\PSoC5/CySpc.c ****     * current wait-state pipeline state and enables it. The CySpcUnlock()
  57:.\Generated_Source\PSoC5/CySpc.c ****     * function, which must be called after SPC transaction, restores original
  58:.\Generated_Source\PSoC5/CySpc.c ****     * state.
  59:.\Generated_Source\PSoC5/CySpc.c ****     ***************************************************************************/
  60:.\Generated_Source\PSoC5/CySpc.c ****     static uint8 spcWaitPipeBypass = 0u;
  61:.\Generated_Source\PSoC5/CySpc.c **** 
  62:.\Generated_Source\PSoC5/CySpc.c **** #endif  /* (CY_PSOC5LP) */
  63:.\Generated_Source\PSoC5/CySpc.c **** 
  64:.\Generated_Source\PSoC5/CySpc.c **** 
  65:.\Generated_Source\PSoC5/CySpc.c **** /*******************************************************************************
  66:.\Generated_Source\PSoC5/CySpc.c **** * Function Name: CySpcStart
  67:.\Generated_Source\PSoC5/CySpc.c **** ********************************************************************************
  68:.\Generated_Source\PSoC5/CySpc.c **** * Summary:
  69:.\Generated_Source\PSoC5/CySpc.c **** *  Starts the SPC.
  70:.\Generated_Source\PSoC5/CySpc.c **** *
  71:.\Generated_Source\PSoC5/CySpc.c **** * Parameters:
  72:.\Generated_Source\PSoC5/CySpc.c **** *  None
  73:.\Generated_Source\PSoC5/CySpc.c **** *
  74:.\Generated_Source\PSoC5/CySpc.c **** * Return:
  75:.\Generated_Source\PSoC5/CySpc.c **** *  None
  76:.\Generated_Source\PSoC5/CySpc.c **** *
  77:.\Generated_Source\PSoC5/CySpc.c **** *******************************************************************************/
  78:.\Generated_Source\PSoC5/CySpc.c **** void CySpcStart(void) 
  79:.\Generated_Source\PSoC5/CySpc.c **** {
ARM GAS  C:\DOCUME~1\ADMINI~1\LOCALS~1\Temp\cc0hliBl.s 			page 3


  80:.\Generated_Source\PSoC5/CySpc.c ****     /* Save current global interrupt enable and disable it */
  81:.\Generated_Source\PSoC5/CySpc.c ****     uint8 interruptState = CyEnterCriticalSection();
  82:.\Generated_Source\PSoC5/CySpc.c **** 
  83:.\Generated_Source\PSoC5/CySpc.c ****     CY_SPC_PM_ACT_REG  |= PM_SPC_PM_EN;
  84:.\Generated_Source\PSoC5/CySpc.c ****     CY_SPC_PM_STBY_REG |= PM_SPC_PM_EN;
  85:.\Generated_Source\PSoC5/CySpc.c **** 
  86:.\Generated_Source\PSoC5/CySpc.c ****     /* Restore global interrupt enable state */
  87:.\Generated_Source\PSoC5/CySpc.c ****     CyExitCriticalSection(interruptState);
  88:.\Generated_Source\PSoC5/CySpc.c **** }
  89:.\Generated_Source\PSoC5/CySpc.c **** 
  90:.\Generated_Source\PSoC5/CySpc.c **** 
  91:.\Generated_Source\PSoC5/CySpc.c **** /*******************************************************************************
  92:.\Generated_Source\PSoC5/CySpc.c **** * Function Name: CySpcStop
  93:.\Generated_Source\PSoC5/CySpc.c **** ********************************************************************************
  94:.\Generated_Source\PSoC5/CySpc.c **** * Summary:
  95:.\Generated_Source\PSoC5/CySpc.c **** *  Stops the SPC.
  96:.\Generated_Source\PSoC5/CySpc.c **** *
  97:.\Generated_Source\PSoC5/CySpc.c **** * Parameters:
  98:.\Generated_Source\PSoC5/CySpc.c **** *  None
  99:.\Generated_Source\PSoC5/CySpc.c **** *
 100:.\Generated_Source\PSoC5/CySpc.c **** * Return:
 101:.\Generated_Source\PSoC5/CySpc.c **** *  None
 102:.\Generated_Source\PSoC5/CySpc.c **** *
 103:.\Generated_Source\PSoC5/CySpc.c **** *******************************************************************************/
 104:.\Generated_Source\PSoC5/CySpc.c **** void CySpcStop(void) 
 105:.\Generated_Source\PSoC5/CySpc.c **** {
 106:.\Generated_Source\PSoC5/CySpc.c ****     /* Save current global interrupt enable and disable it */
 107:.\Generated_Source\PSoC5/CySpc.c ****     uint8 interruptState = CyEnterCriticalSection();
 108:.\Generated_Source\PSoC5/CySpc.c **** 
 109:.\Generated_Source\PSoC5/CySpc.c ****     CY_SPC_PM_ACT_REG  &= ((uint8)(~PM_SPC_PM_EN));
 110:.\Generated_Source\PSoC5/CySpc.c ****     CY_SPC_PM_STBY_REG &= ((uint8)(~PM_SPC_PM_EN));
 111:.\Generated_Source\PSoC5/CySpc.c **** 
 112:.\Generated_Source\PSoC5/CySpc.c ****     /* Restore global interrupt enable state */
 113:.\Generated_Source\PSoC5/CySpc.c ****     CyExitCriticalSection(interruptState);
 114:.\Generated_Source\PSoC5/CySpc.c **** }
 115:.\Generated_Source\PSoC5/CySpc.c **** 
 116:.\Generated_Source\PSoC5/CySpc.c **** 
 117:.\Generated_Source\PSoC5/CySpc.c **** /*******************************************************************************
 118:.\Generated_Source\PSoC5/CySpc.c **** * Function Name: CySpcReadData
 119:.\Generated_Source\PSoC5/CySpc.c **** ********************************************************************************
 120:.\Generated_Source\PSoC5/CySpc.c **** * Summary:
 121:.\Generated_Source\PSoC5/CySpc.c **** *  Reads data from the SPC.
 122:.\Generated_Source\PSoC5/CySpc.c **** *
 123:.\Generated_Source\PSoC5/CySpc.c **** * Parameters:
 124:.\Generated_Source\PSoC5/CySpc.c **** *  uint8 buffer:
 125:.\Generated_Source\PSoC5/CySpc.c **** *   Address to store data read.
 126:.\Generated_Source\PSoC5/CySpc.c **** *
 127:.\Generated_Source\PSoC5/CySpc.c **** *  uint8 size:
 128:.\Generated_Source\PSoC5/CySpc.c **** *   Number of bytes to read from the SPC.
 129:.\Generated_Source\PSoC5/CySpc.c **** *
 130:.\Generated_Source\PSoC5/CySpc.c **** * Return:
 131:.\Generated_Source\PSoC5/CySpc.c **** *  uint8:
 132:.\Generated_Source\PSoC5/CySpc.c **** *   The number of bytes read from the SPC.
 133:.\Generated_Source\PSoC5/CySpc.c **** *
 134:.\Generated_Source\PSoC5/CySpc.c **** *******************************************************************************/
 135:.\Generated_Source\PSoC5/CySpc.c **** uint8 CySpcReadData(uint8 buffer[], uint8 size) 
 136:.\Generated_Source\PSoC5/CySpc.c **** {
ARM GAS  C:\DOCUME~1\ADMINI~1\LOCALS~1\Temp\cc0hliBl.s 			page 4


 137:.\Generated_Source\PSoC5/CySpc.c ****     uint8 i;
 138:.\Generated_Source\PSoC5/CySpc.c **** 
 139:.\Generated_Source\PSoC5/CySpc.c ****     for(i = 0u; i < size; i++)
 140:.\Generated_Source\PSoC5/CySpc.c ****     {
 141:.\Generated_Source\PSoC5/CySpc.c ****         while(!CY_SPC_DATA_READY)
 142:.\Generated_Source\PSoC5/CySpc.c ****         {
 143:.\Generated_Source\PSoC5/CySpc.c ****             CyDelayUs(1u);
 144:.\Generated_Source\PSoC5/CySpc.c ****         }
 145:.\Generated_Source\PSoC5/CySpc.c ****         buffer[i] = CY_SPC_CPU_DATA_REG;
 146:.\Generated_Source\PSoC5/CySpc.c ****     }
 147:.\Generated_Source\PSoC5/CySpc.c **** 
 148:.\Generated_Source\PSoC5/CySpc.c ****     return(i);
 149:.\Generated_Source\PSoC5/CySpc.c **** }
 150:.\Generated_Source\PSoC5/CySpc.c **** 
 151:.\Generated_Source\PSoC5/CySpc.c **** 
 152:.\Generated_Source\PSoC5/CySpc.c **** /*******************************************************************************
 153:.\Generated_Source\PSoC5/CySpc.c **** * Function Name: CySpcLoadMultiByte
 154:.\Generated_Source\PSoC5/CySpc.c **** ********************************************************************************
 155:.\Generated_Source\PSoC5/CySpc.c **** * Summary:
 156:.\Generated_Source\PSoC5/CySpc.c **** *  Loads 1 to 32 bytes of data into the row latch of a Flash/EEPROM array.
 157:.\Generated_Source\PSoC5/CySpc.c **** *
 158:.\Generated_Source\PSoC5/CySpc.c **** * Parameters:
 159:.\Generated_Source\PSoC5/CySpc.c **** *  uint8 array:
 160:.\Generated_Source\PSoC5/CySpc.c **** *   Id of the array.
 161:.\Generated_Source\PSoC5/CySpc.c **** *
 162:.\Generated_Source\PSoC5/CySpc.c **** *  uint16 address:
 163:.\Generated_Source\PSoC5/CySpc.c **** *   Flash/eeprom addrress
 164:.\Generated_Source\PSoC5/CySpc.c **** *
 165:.\Generated_Source\PSoC5/CySpc.c **** *  uint8* buffer:
 166:.\Generated_Source\PSoC5/CySpc.c **** *   Data to load to the row latch
 167:.\Generated_Source\PSoC5/CySpc.c **** *
 168:.\Generated_Source\PSoC5/CySpc.c **** *  uint16 number:
 169:.\Generated_Source\PSoC5/CySpc.c **** *   Number bytes to load.
 170:.\Generated_Source\PSoC5/CySpc.c **** *
 171:.\Generated_Source\PSoC5/CySpc.c **** * Return:
 172:.\Generated_Source\PSoC5/CySpc.c **** *  CYRET_STARTED
 173:.\Generated_Source\PSoC5/CySpc.c **** *  CYRET_CANCELED
 174:.\Generated_Source\PSoC5/CySpc.c **** *  CYRET_LOCKED
 175:.\Generated_Source\PSoC5/CySpc.c **** *  CYRET_BAD_PARAM
 176:.\Generated_Source\PSoC5/CySpc.c **** *
 177:.\Generated_Source\PSoC5/CySpc.c **** *******************************************************************************/
 178:.\Generated_Source\PSoC5/CySpc.c **** cystatus CySpcLoadMultiByte(uint8 array, uint16 address, const uint8 buffer[], uint8 size) 
 179:.\Generated_Source\PSoC5/CySpc.c **** {
  32              		.loc 1 179 0
  33              		.cfi_startproc
  34              		@ args = 0, pretend = 0, frame = 0
  35              		@ frame_needed = 0, uses_anonymous_args = 0
  36              	.LVL0:
 180:.\Generated_Source\PSoC5/CySpc.c ****     cystatus status = CYRET_STARTED;
 181:.\Generated_Source\PSoC5/CySpc.c ****     uint8 i;
 182:.\Generated_Source\PSoC5/CySpc.c **** 
 183:.\Generated_Source\PSoC5/CySpc.c ****     /***************************************************************************
 184:.\Generated_Source\PSoC5/CySpc.c ****     * Check if number is correct for array. Number must be less than
 185:.\Generated_Source\PSoC5/CySpc.c ****     * 32 for Flash or less than 16 for EEPROM.
 186:.\Generated_Source\PSoC5/CySpc.c ****     ***************************************************************************/
 187:.\Generated_Source\PSoC5/CySpc.c ****     if(((array < CY_SPC_LAST_FLASH_ARRAYID) && (size < 32u)) ||
  37              		.loc 1 187 0
ARM GAS  C:\DOCUME~1\ADMINI~1\LOCALS~1\Temp\cc0hliBl.s 			page 5


  38 0000 3E28     		cmp	r0, #62
  39              		.loc 1 179 0
  40 0002 30B5     		push	{r4, r5, lr}
  41              	.LCFI0:
  42              		.cfi_def_cfa_offset 12
  43              		.loc 1 187 0
  44 0004 01D8     		bhi	.L2
  45              		.cfi_offset 14, -4
  46              		.cfi_offset 5, -8
  47              		.cfi_offset 4, -12
  48 0006 1F2B     		cmp	r3, #31
  49 0008 02E0     		b	.L11
  50              	.L2:
  51 000a 3F28     		cmp	r0, #63
  52 000c 34D0     		beq	.L4
  53 000e 0F2B     		cmp	r3, #15
  54              	.L11:
  55 0010 32D8     		bhi	.L4
 188:.\Generated_Source\PSoC5/CySpc.c ****        ((array > CY_SPC_LAST_FLASH_ARRAYID) && (size < 16u)))
 189:.\Generated_Source\PSoC5/CySpc.c ****     {
 190:.\Generated_Source\PSoC5/CySpc.c ****         if(CY_SPC_IDLE)
  56              		.loc 1 190 0
  57 0012 1A4D     		ldr	r5, .L13
  58 0014 95F800C0 		ldrb	ip, [r5, #0]	@ zero_extendqisi2
  59 0018 1CF0020F 		tst	ip, #2
  60 001c 01D1     		bne	.L5
  61 001e 0420     		movs	r0, #4
  62              	.LVL1:
  63 0020 30BD     		pop	{r4, r5, pc}
  64              	.LVL2:
  65              	.L5:
 191:.\Generated_Source\PSoC5/CySpc.c ****         {
 192:.\Generated_Source\PSoC5/CySpc.c ****             CY_SPC_CPU_DATA_REG = CY_SPC_KEY_ONE;
  66              		.loc 1 192 0
  67 0022 174C     		ldr	r4, .L13+4
  68 0024 6FF0490C 		mvn	ip, #73
  69 0028 84F800C0 		strb	ip, [r4, #0]
 193:.\Generated_Source\PSoC5/CySpc.c ****             CY_SPC_CPU_DATA_REG = CY_SPC_KEY_TWO(CY_SPC_CMD_LD_MULTI_BYTE);
  70              		.loc 1 193 0
  71 002c 0CF11E0C 		add	ip, ip, #30
  72 0030 84F800C0 		strb	ip, [r4, #0]
 194:.\Generated_Source\PSoC5/CySpc.c ****             CY_SPC_CPU_DATA_REG = CY_SPC_CMD_LD_MULTI_BYTE;
  73              		.loc 1 194 0
  74 0034 0CF12D0C 		add	ip, ip, #45
  75 0038 84F800C0 		strb	ip, [r4, #0]
 195:.\Generated_Source\PSoC5/CySpc.c **** 
 196:.\Generated_Source\PSoC5/CySpc.c ****             if(CY_SPC_BUSY)
  76              		.loc 1 196 0
  77 003c 95F800C0 		ldrb	ip, [r5, #0]	@ zero_extendqisi2
  78 0040 1CF0020C 		ands	ip, ip, #2
  79 0044 01D0     		beq	.L7
  80 0046 0920     		movs	r0, #9
  81              	.LVL3:
  82 0048 30BD     		pop	{r4, r5, pc}
  83              	.LVL4:
  84              	.L7:
 197:.\Generated_Source\PSoC5/CySpc.c ****             {
ARM GAS  C:\DOCUME~1\ADMINI~1\LOCALS~1\Temp\cc0hliBl.s 			page 6


 198:.\Generated_Source\PSoC5/CySpc.c ****                 CY_SPC_CPU_DATA_REG = array;
  85              		.loc 1 198 0
  86 004a 2070     		strb	r0, [r4, #0]
 199:.\Generated_Source\PSoC5/CySpc.c ****                 CY_SPC_CPU_DATA_REG = 1u & HI8(address);
  87              		.loc 1 199 0
  88 004c 080A     		lsrs	r0, r1, #8
  89              	.LVL5:
  90 004e 00F00100 		and	r0, r0, #1
 200:.\Generated_Source\PSoC5/CySpc.c ****                 CY_SPC_CPU_DATA_REG = LO8(address);
  91              		.loc 1 200 0
  92 0052 C9B2     		uxtb	r1, r1
  93              	.LVL6:
  94              		.loc 1 199 0
  95 0054 2070     		strb	r0, [r4, #0]
  96              		.loc 1 200 0
  97 0056 2170     		strb	r1, [r4, #0]
 201:.\Generated_Source\PSoC5/CySpc.c ****                 CY_SPC_CPU_DATA_REG = ((uint8)(size - 1u));
  98              		.loc 1 201 0
  99 0058 591E     		subs	r1, r3, #1
 100 005a C9B2     		uxtb	r1, r1
 101 005c 2170     		strb	r1, [r4, #0]
 102 005e 6146     		mov	r1, ip
 202:.\Generated_Source\PSoC5/CySpc.c **** 
 203:.\Generated_Source\PSoC5/CySpc.c ****                 for(i = 0u; i < size; i++)
 103              		.loc 1 203 0
 104 0060 05E0     		b	.L8
 105              	.L9:
 204:.\Generated_Source\PSoC5/CySpc.c ****                 {
 205:.\Generated_Source\PSoC5/CySpc.c ****                     CY_SPC_CPU_DATA_REG = buffer[i];
 106              		.loc 1 205 0
 107 0062 12F801C0 		ldrb	ip, [r2, r1]	@ zero_extendqisi2
 108 0066 0648     		ldr	r0, .L13+4
 109 0068 0131     		adds	r1, r1, #1
 110 006a 80F800C0 		strb	ip, [r0, #0]
 111              	.L8:
 112              		.loc 1 203 0
 113 006e C8B2     		uxtb	r0, r1
 114 0070 9842     		cmp	r0, r3
 115 0072 F6D3     		bcc	.L9
 116 0074 0720     		movs	r0, #7
 117              	.LVL7:
 118 0076 30BD     		pop	{r4, r5, pc}
 119              	.LVL8:
 120              	.L4:
 121 0078 0120     		movs	r0, #1
 122              	.LVL9:
 123              	.LVL10:
 206:.\Generated_Source\PSoC5/CySpc.c ****                 }
 207:.\Generated_Source\PSoC5/CySpc.c ****             }
 208:.\Generated_Source\PSoC5/CySpc.c ****             else
 209:.\Generated_Source\PSoC5/CySpc.c ****             {
 210:.\Generated_Source\PSoC5/CySpc.c ****                 status = CYRET_CANCELED;
 211:.\Generated_Source\PSoC5/CySpc.c ****             }
 212:.\Generated_Source\PSoC5/CySpc.c ****         }
 213:.\Generated_Source\PSoC5/CySpc.c ****         else
 214:.\Generated_Source\PSoC5/CySpc.c ****         {
 215:.\Generated_Source\PSoC5/CySpc.c ****             status = CYRET_LOCKED;
ARM GAS  C:\DOCUME~1\ADMINI~1\LOCALS~1\Temp\cc0hliBl.s 			page 7


 216:.\Generated_Source\PSoC5/CySpc.c ****         }
 217:.\Generated_Source\PSoC5/CySpc.c ****     }
 218:.\Generated_Source\PSoC5/CySpc.c ****     else
 219:.\Generated_Source\PSoC5/CySpc.c ****     {
 220:.\Generated_Source\PSoC5/CySpc.c ****         status = CYRET_BAD_PARAM;
 221:.\Generated_Source\PSoC5/CySpc.c ****     }
 222:.\Generated_Source\PSoC5/CySpc.c **** 
 223:.\Generated_Source\PSoC5/CySpc.c ****     return(status);
 224:.\Generated_Source\PSoC5/CySpc.c **** }
 124              		.loc 1 224 0
 125 007a 30BD     		pop	{r4, r5, pc}
 126              	.L14:
 127              		.align	2
 128              	.L13:
 129 007c 22470040 		.word	1073760034
 130 0080 20470040 		.word	1073760032
 131              		.cfi_endproc
 132              	.LFE3:
 133              		.size	CySpcLoadMultiByte, .-CySpcLoadMultiByte
 134              		.section	.text.CySpcLoadRow,"ax",%progbits
 135              		.align	1
 136              		.global	CySpcLoadRow
 137              		.thumb
 138              		.thumb_func
 139              		.type	CySpcLoadRow, %function
 140              	CySpcLoadRow:
 141              	.LFB4:
 225:.\Generated_Source\PSoC5/CySpc.c **** 
 226:.\Generated_Source\PSoC5/CySpc.c **** 
 227:.\Generated_Source\PSoC5/CySpc.c **** /*******************************************************************************
 228:.\Generated_Source\PSoC5/CySpc.c **** * Function Name: CySpcLoadRow
 229:.\Generated_Source\PSoC5/CySpc.c **** ********************************************************************************
 230:.\Generated_Source\PSoC5/CySpc.c **** * Summary:
 231:.\Generated_Source\PSoC5/CySpc.c **** *  Loads a row of data into the row latch of a Flash/EEPROM array.
 232:.\Generated_Source\PSoC5/CySpc.c **** *
 233:.\Generated_Source\PSoC5/CySpc.c **** * Parameters:
 234:.\Generated_Source\PSoC5/CySpc.c **** *  uint8 array:
 235:.\Generated_Source\PSoC5/CySpc.c **** *   Id of the array.
 236:.\Generated_Source\PSoC5/CySpc.c **** *
 237:.\Generated_Source\PSoC5/CySpc.c **** *  uint8* buffer:
 238:.\Generated_Source\PSoC5/CySpc.c **** *   Data to be loaded to the row latch
 239:.\Generated_Source\PSoC5/CySpc.c **** *
 240:.\Generated_Source\PSoC5/CySpc.c **** *  uint8 size:
 241:.\Generated_Source\PSoC5/CySpc.c **** *   The number of data bytes that the SPC expects to be written. Depends on the
 242:.\Generated_Source\PSoC5/CySpc.c **** *   type of the array and, if the array is Flash, whether ECC is being enabled
 243:.\Generated_Source\PSoC5/CySpc.c **** *   or not. There are following values: flash row latch size with ECC enabled,
 244:.\Generated_Source\PSoC5/CySpc.c **** *   flash row latch size with ECC disabled and EEPROM row latch size.
 245:.\Generated_Source\PSoC5/CySpc.c **** *
 246:.\Generated_Source\PSoC5/CySpc.c **** * Return:
 247:.\Generated_Source\PSoC5/CySpc.c **** *  CYRET_STARTED
 248:.\Generated_Source\PSoC5/CySpc.c **** *  CYRET_CANCELED
 249:.\Generated_Source\PSoC5/CySpc.c **** *  CYRET_LOCKED
 250:.\Generated_Source\PSoC5/CySpc.c **** *
 251:.\Generated_Source\PSoC5/CySpc.c **** *******************************************************************************/
 252:.\Generated_Source\PSoC5/CySpc.c **** cystatus CySpcLoadRow(uint8 array, const uint8 buffer[], uint16 size)
 253:.\Generated_Source\PSoC5/CySpc.c **** {
 142              		.loc 1 253 0
ARM GAS  C:\DOCUME~1\ADMINI~1\LOCALS~1\Temp\cc0hliBl.s 			page 8


 143              		.cfi_startproc
 144              		@ args = 0, pretend = 0, frame = 0
 145              		@ frame_needed = 0, uses_anonymous_args = 0
 146              	.LVL11:
 147 0000 10B5     		push	{r4, lr}
 148              	.LCFI1:
 149              		.cfi_def_cfa_offset 8
 254:.\Generated_Source\PSoC5/CySpc.c ****     cystatus status = CYRET_STARTED;
 255:.\Generated_Source\PSoC5/CySpc.c ****     uint16 i;
 256:.\Generated_Source\PSoC5/CySpc.c **** 
 257:.\Generated_Source\PSoC5/CySpc.c ****     /* Make sure the SPC is ready to accept command */
 258:.\Generated_Source\PSoC5/CySpc.c ****     if(CY_SPC_IDLE)
 150              		.loc 1 258 0
 151 0002 144B     		ldr	r3, .L22
 152 0004 93F800C0 		ldrb	ip, [r3, #0]	@ zero_extendqisi2
 153 0008 1CF0020F 		tst	ip, #2
 154 000c 01D1     		bne	.L16
 155              		.cfi_offset 14, -4
 156              		.cfi_offset 4, -8
 157 000e 0420     		movs	r0, #4
 158              	.LVL12:
 159 0010 10BD     		pop	{r4, pc}
 160              	.LVL13:
 161              	.L16:
 259:.\Generated_Source\PSoC5/CySpc.c ****     {
 260:.\Generated_Source\PSoC5/CySpc.c ****         CY_SPC_CPU_DATA_REG = CY_SPC_KEY_ONE;
 162              		.loc 1 260 0
 163 0012 114C     		ldr	r4, .L22+4
 164 0014 6FF0490C 		mvn	ip, #73
 165 0018 84F800C0 		strb	ip, [r4, #0]
 261:.\Generated_Source\PSoC5/CySpc.c ****         CY_SPC_CPU_DATA_REG = CY_SPC_KEY_TWO(CY_SPC_CMD_LD_ROW);
 166              		.loc 1 261 0
 167 001c 0CF11F0C 		add	ip, ip, #31
 168 0020 84F800C0 		strb	ip, [r4, #0]
 262:.\Generated_Source\PSoC5/CySpc.c ****         CY_SPC_CPU_DATA_REG = CY_SPC_CMD_LD_ROW;
 169              		.loc 1 262 0
 170 0024 0CF12D0C 		add	ip, ip, #45
 171 0028 84F800C0 		strb	ip, [r4, #0]
 263:.\Generated_Source\PSoC5/CySpc.c **** 
 264:.\Generated_Source\PSoC5/CySpc.c ****         /* Make sure the command was accepted */
 265:.\Generated_Source\PSoC5/CySpc.c ****         if(CY_SPC_BUSY)
 172              		.loc 1 265 0
 173 002c 1B78     		ldrb	r3, [r3, #0]	@ zero_extendqisi2
 174 002e 13EA0C03 		ands	r3, r3, ip
 175 0032 01D0     		beq	.L18
 176 0034 0920     		movs	r0, #9
 177              	.LVL14:
 178 0036 10BD     		pop	{r4, pc}
 179              	.LVL15:
 180              	.L18:
 266:.\Generated_Source\PSoC5/CySpc.c ****         {
 267:.\Generated_Source\PSoC5/CySpc.c ****             CY_SPC_CPU_DATA_REG = array;
 181              		.loc 1 267 0
 182 0038 2070     		strb	r0, [r4, #0]
 268:.\Generated_Source\PSoC5/CySpc.c **** 
 269:.\Generated_Source\PSoC5/CySpc.c ****             for(i = 0u; i < size; i++)
 183              		.loc 1 269 0
ARM GAS  C:\DOCUME~1\ADMINI~1\LOCALS~1\Temp\cc0hliBl.s 			page 9


 184 003a 05E0     		b	.L19
 185              	.LVL16:
 186              	.L20:
 270:.\Generated_Source\PSoC5/CySpc.c ****             {
 271:.\Generated_Source\PSoC5/CySpc.c ****                 CY_SPC_CPU_DATA_REG = buffer[i];
 187              		.loc 1 271 0
 188 003c 11F803C0 		ldrb	ip, [r1, r3]	@ zero_extendqisi2
 189 0040 0548     		ldr	r0, .L22+4
 190 0042 0133     		adds	r3, r3, #1
 191 0044 80F800C0 		strb	ip, [r0, #0]
 192              	.LVL17:
 193              	.L19:
 194              		.loc 1 269 0
 195 0048 98B2     		uxth	r0, r3
 196              	.LVL18:
 197 004a 9042     		cmp	r0, r2
 198 004c F6D3     		bcc	.L20
 199 004e 0720     		movs	r0, #7
 200              	.LVL19:
 201              	.LVL20:
 272:.\Generated_Source\PSoC5/CySpc.c ****             }
 273:.\Generated_Source\PSoC5/CySpc.c ****         }
 274:.\Generated_Source\PSoC5/CySpc.c ****         else
 275:.\Generated_Source\PSoC5/CySpc.c ****         {
 276:.\Generated_Source\PSoC5/CySpc.c ****             status = CYRET_CANCELED;
 277:.\Generated_Source\PSoC5/CySpc.c ****         }
 278:.\Generated_Source\PSoC5/CySpc.c ****     }
 279:.\Generated_Source\PSoC5/CySpc.c ****     else
 280:.\Generated_Source\PSoC5/CySpc.c ****     {
 281:.\Generated_Source\PSoC5/CySpc.c ****         status = CYRET_LOCKED;
 282:.\Generated_Source\PSoC5/CySpc.c ****     }
 283:.\Generated_Source\PSoC5/CySpc.c **** 
 284:.\Generated_Source\PSoC5/CySpc.c ****     return(status);
 285:.\Generated_Source\PSoC5/CySpc.c **** }
 202              		.loc 1 285 0
 203 0050 10BD     		pop	{r4, pc}
 204              	.L23:
 205 0052 00BF     		.align	2
 206              	.L22:
 207 0054 22470040 		.word	1073760034
 208 0058 20470040 		.word	1073760032
 209              		.cfi_endproc
 210              	.LFE4:
 211              		.size	CySpcLoadRow, .-CySpcLoadRow
 212              		.section	.text.CySpcWriteRow,"ax",%progbits
 213              		.align	1
 214              		.global	CySpcWriteRow
 215              		.thumb
 216              		.thumb_func
 217              		.type	CySpcWriteRow, %function
 218              	CySpcWriteRow:
 219              	.LFB5:
 286:.\Generated_Source\PSoC5/CySpc.c **** 
 287:.\Generated_Source\PSoC5/CySpc.c **** 
 288:.\Generated_Source\PSoC5/CySpc.c **** /*******************************************************************************
 289:.\Generated_Source\PSoC5/CySpc.c **** * Function Name: CySpcWriteRow
 290:.\Generated_Source\PSoC5/CySpc.c **** ********************************************************************************
ARM GAS  C:\DOCUME~1\ADMINI~1\LOCALS~1\Temp\cc0hliBl.s 			page 10


 291:.\Generated_Source\PSoC5/CySpc.c **** * Summary:
 292:.\Generated_Source\PSoC5/CySpc.c **** *  Erases then programs a row in Flash/EEPROM with data in row latch.
 293:.\Generated_Source\PSoC5/CySpc.c **** *
 294:.\Generated_Source\PSoC5/CySpc.c **** * Parameters:
 295:.\Generated_Source\PSoC5/CySpc.c **** *  uint8 array:
 296:.\Generated_Source\PSoC5/CySpc.c **** *   Id of the array.
 297:.\Generated_Source\PSoC5/CySpc.c **** *
 298:.\Generated_Source\PSoC5/CySpc.c **** *  uint16 address:
 299:.\Generated_Source\PSoC5/CySpc.c **** *   flash/eeprom addrress
 300:.\Generated_Source\PSoC5/CySpc.c **** *
 301:.\Generated_Source\PSoC5/CySpc.c **** *  uint8 tempPolarity:
 302:.\Generated_Source\PSoC5/CySpc.c **** *   temperature polarity.
 303:.\Generated_Source\PSoC5/CySpc.c **** *   1: the Temp Magnitude is interpreted as a positive value
 304:.\Generated_Source\PSoC5/CySpc.c **** *   0: the Temp Magnitude is interpreted as a negative value
 305:.\Generated_Source\PSoC5/CySpc.c **** *
 306:.\Generated_Source\PSoC5/CySpc.c **** *  uint8 tempMagnitude:
 307:.\Generated_Source\PSoC5/CySpc.c **** *   temperature magnitude.
 308:.\Generated_Source\PSoC5/CySpc.c **** *
 309:.\Generated_Source\PSoC5/CySpc.c **** * Return:
 310:.\Generated_Source\PSoC5/CySpc.c **** *  CYRET_STARTED
 311:.\Generated_Source\PSoC5/CySpc.c **** *  CYRET_CANCELED
 312:.\Generated_Source\PSoC5/CySpc.c **** *  CYRET_LOCKED
 313:.\Generated_Source\PSoC5/CySpc.c **** *
 314:.\Generated_Source\PSoC5/CySpc.c **** *******************************************************************************/
 315:.\Generated_Source\PSoC5/CySpc.c **** cystatus CySpcWriteRow(uint8 array, uint16 address, uint8 tempPolarity, uint8 tempMagnitude)
 316:.\Generated_Source\PSoC5/CySpc.c **** {
 220              		.loc 1 316 0
 221              		.cfi_startproc
 222              		@ args = 0, pretend = 0, frame = 0
 223              		@ frame_needed = 0, uses_anonymous_args = 0
 224              	.LVL21:
 225 0000 30B5     		push	{r4, r5, lr}
 226              	.LCFI2:
 227              		.cfi_def_cfa_offset 12
 317:.\Generated_Source\PSoC5/CySpc.c ****     cystatus status = CYRET_STARTED;
 318:.\Generated_Source\PSoC5/CySpc.c **** 
 319:.\Generated_Source\PSoC5/CySpc.c ****     /* Make sure the SPC is ready to accept command */
 320:.\Generated_Source\PSoC5/CySpc.c ****     if(CY_SPC_IDLE)
 228              		.loc 1 320 0
 229 0002 124D     		ldr	r5, .L29
 230              		.cfi_offset 14, -4
 231              		.cfi_offset 5, -8
 232              		.cfi_offset 4, -12
 233 0004 95F800C0 		ldrb	ip, [r5, #0]	@ zero_extendqisi2
 234 0008 1CF0020F 		tst	ip, #2
 235 000c 01D1     		bne	.L25
 236 000e 0420     		movs	r0, #4
 237              	.LVL22:
 238 0010 30BD     		pop	{r4, r5, pc}
 239              	.LVL23:
 240              	.L25:
 321:.\Generated_Source\PSoC5/CySpc.c ****     {
 322:.\Generated_Source\PSoC5/CySpc.c ****         CY_SPC_CPU_DATA_REG = CY_SPC_KEY_ONE;
 241              		.loc 1 322 0
 242 0012 0F4C     		ldr	r4, .L29+4
 243 0014 6FF0490C 		mvn	ip, #73
 244 0018 84F800C0 		strb	ip, [r4, #0]
ARM GAS  C:\DOCUME~1\ADMINI~1\LOCALS~1\Temp\cc0hliBl.s 			page 11


 323:.\Generated_Source\PSoC5/CySpc.c ****         CY_SPC_CPU_DATA_REG = CY_SPC_KEY_TWO(CY_SPC_CMD_WR_ROW);
 245              		.loc 1 323 0
 246 001c 0CF1220C 		add	ip, ip, #34
 247 0020 84F800C0 		strb	ip, [r4, #0]
 324:.\Generated_Source\PSoC5/CySpc.c ****         CY_SPC_CPU_DATA_REG = CY_SPC_CMD_WR_ROW;
 248              		.loc 1 324 0
 249 0024 0CF12D0C 		add	ip, ip, #45
 250 0028 84F800C0 		strb	ip, [r4, #0]
 325:.\Generated_Source\PSoC5/CySpc.c **** 
 326:.\Generated_Source\PSoC5/CySpc.c ****         /* Make sure the command was accepted */
 327:.\Generated_Source\PSoC5/CySpc.c ****         if(CY_SPC_BUSY)
 251              		.loc 1 327 0
 252 002c 95F800C0 		ldrb	ip, [r5, #0]	@ zero_extendqisi2
 253 0030 1CF0020F 		tst	ip, #2
 254 0034 01D0     		beq	.L27
 255 0036 0920     		movs	r0, #9
 256              	.LVL24:
 257 0038 30BD     		pop	{r4, r5, pc}
 258              	.LVL25:
 259              	.L27:
 328:.\Generated_Source\PSoC5/CySpc.c ****         {
 329:.\Generated_Source\PSoC5/CySpc.c ****             CY_SPC_CPU_DATA_REG = array;
 260              		.loc 1 329 0
 261 003a 2070     		strb	r0, [r4, #0]
 330:.\Generated_Source\PSoC5/CySpc.c ****             CY_SPC_CPU_DATA_REG = HI8(address);
 262              		.loc 1 330 0
 263 003c 080A     		lsrs	r0, r1, #8
 264              	.LVL26:
 331:.\Generated_Source\PSoC5/CySpc.c ****             CY_SPC_CPU_DATA_REG = LO8(address);
 265              		.loc 1 331 0
 266 003e C9B2     		uxtb	r1, r1
 267              	.LVL27:
 268              		.loc 1 330 0
 269 0040 2070     		strb	r0, [r4, #0]
 270              		.loc 1 331 0
 271 0042 2170     		strb	r1, [r4, #0]
 332:.\Generated_Source\PSoC5/CySpc.c ****             CY_SPC_CPU_DATA_REG = tempPolarity;
 333:.\Generated_Source\PSoC5/CySpc.c ****             CY_SPC_CPU_DATA_REG = tempMagnitude;
 272              		.loc 1 333 0
 273 0044 0720     		movs	r0, #7
 274              	.LVL28:
 275              		.loc 1 332 0
 276 0046 2270     		strb	r2, [r4, #0]
 277              		.loc 1 333 0
 278 0048 2370     		strb	r3, [r4, #0]
 279              	.LVL29:
 334:.\Generated_Source\PSoC5/CySpc.c ****         }
 335:.\Generated_Source\PSoC5/CySpc.c ****         else
 336:.\Generated_Source\PSoC5/CySpc.c ****         {
 337:.\Generated_Source\PSoC5/CySpc.c ****             status = CYRET_CANCELED;
 338:.\Generated_Source\PSoC5/CySpc.c ****         }
 339:.\Generated_Source\PSoC5/CySpc.c ****     }
 340:.\Generated_Source\PSoC5/CySpc.c ****     else
 341:.\Generated_Source\PSoC5/CySpc.c ****     {
 342:.\Generated_Source\PSoC5/CySpc.c ****         status = CYRET_LOCKED;
 343:.\Generated_Source\PSoC5/CySpc.c ****     }
 344:.\Generated_Source\PSoC5/CySpc.c **** 
ARM GAS  C:\DOCUME~1\ADMINI~1\LOCALS~1\Temp\cc0hliBl.s 			page 12


 345:.\Generated_Source\PSoC5/CySpc.c ****     return(status);
 346:.\Generated_Source\PSoC5/CySpc.c **** }
 280              		.loc 1 346 0
 281 004a 30BD     		pop	{r4, r5, pc}
 282              	.L30:
 283              		.align	2
 284              	.L29:
 285 004c 22470040 		.word	1073760034
 286 0050 20470040 		.word	1073760032
 287              		.cfi_endproc
 288              	.LFE5:
 289              		.size	CySpcWriteRow, .-CySpcWriteRow
 290              		.section	.text.CySpcEraseSector,"ax",%progbits
 291              		.align	1
 292              		.global	CySpcEraseSector
 293              		.thumb
 294              		.thumb_func
 295              		.type	CySpcEraseSector, %function
 296              	CySpcEraseSector:
 297              	.LFB6:
 347:.\Generated_Source\PSoC5/CySpc.c **** 
 348:.\Generated_Source\PSoC5/CySpc.c **** 
 349:.\Generated_Source\PSoC5/CySpc.c **** /*******************************************************************************
 350:.\Generated_Source\PSoC5/CySpc.c **** * Function Name: CySpcEraseSector
 351:.\Generated_Source\PSoC5/CySpc.c **** ********************************************************************************
 352:.\Generated_Source\PSoC5/CySpc.c **** * Summary:
 353:.\Generated_Source\PSoC5/CySpc.c **** *  Erases all data in the addressed sector (block of 64 rows).
 354:.\Generated_Source\PSoC5/CySpc.c **** *
 355:.\Generated_Source\PSoC5/CySpc.c **** * Parameters:
 356:.\Generated_Source\PSoC5/CySpc.c **** *  uint8 array:
 357:.\Generated_Source\PSoC5/CySpc.c **** *   Id of the array.
 358:.\Generated_Source\PSoC5/CySpc.c **** *
 359:.\Generated_Source\PSoC5/CySpc.c **** *  uint8 sectorNumber:
 360:.\Generated_Source\PSoC5/CySpc.c **** *   Zero based sector number within Flash/EEPROM array
 361:.\Generated_Source\PSoC5/CySpc.c **** *
 362:.\Generated_Source\PSoC5/CySpc.c **** * Return:
 363:.\Generated_Source\PSoC5/CySpc.c **** *  CYRET_STARTED
 364:.\Generated_Source\PSoC5/CySpc.c **** *  CYRET_CANCELED
 365:.\Generated_Source\PSoC5/CySpc.c **** *  CYRET_LOCKED
 366:.\Generated_Source\PSoC5/CySpc.c **** *
 367:.\Generated_Source\PSoC5/CySpc.c **** *******************************************************************************/
 368:.\Generated_Source\PSoC5/CySpc.c **** cystatus CySpcEraseSector(uint8 array, uint8 sectorNumber)
 369:.\Generated_Source\PSoC5/CySpc.c **** {
 298              		.loc 1 369 0
 299              		.cfi_startproc
 300              		@ args = 0, pretend = 0, frame = 0
 301              		@ frame_needed = 0, uses_anonymous_args = 0
 302              		@ link register save eliminated.
 303              	.LVL30:
 370:.\Generated_Source\PSoC5/CySpc.c ****     cystatus status = CYRET_STARTED;
 371:.\Generated_Source\PSoC5/CySpc.c **** 
 372:.\Generated_Source\PSoC5/CySpc.c ****     /* Make sure the SPC is ready to accept command */
 373:.\Generated_Source\PSoC5/CySpc.c ****     if(CY_SPC_IDLE)
 304              		.loc 1 373 0
 305 0000 0E4A     		ldr	r2, .L36
 306 0002 1378     		ldrb	r3, [r2, #0]	@ zero_extendqisi2
 307 0004 13F0020F 		tst	r3, #2
ARM GAS  C:\DOCUME~1\ADMINI~1\LOCALS~1\Temp\cc0hliBl.s 			page 13


 308 0008 01D1     		bne	.L32
 309 000a 0420     		movs	r0, #4
 310              	.LVL31:
 311 000c 7047     		bx	lr
 312              	.LVL32:
 313              	.L32:
 374:.\Generated_Source\PSoC5/CySpc.c ****     {
 375:.\Generated_Source\PSoC5/CySpc.c ****         CY_SPC_CPU_DATA_REG = CY_SPC_KEY_ONE;
 314              		.loc 1 375 0
 315 000e 0C4B     		ldr	r3, .L36+4
 316 0010 6FF0490C 		mvn	ip, #73
 317 0014 83F800C0 		strb	ip, [r3, #0]
 376:.\Generated_Source\PSoC5/CySpc.c ****         CY_SPC_CPU_DATA_REG = CY_SPC_KEY_TWO(CY_SPC_CMD_ER_SECTOR);
 318              		.loc 1 376 0
 319 0018 0CF1250C 		add	ip, ip, #37
 320 001c 83F800C0 		strb	ip, [r3, #0]
 377:.\Generated_Source\PSoC5/CySpc.c ****         CY_SPC_CPU_DATA_REG = CY_SPC_CMD_ER_SECTOR;
 321              		.loc 1 377 0
 322 0020 0CF12D0C 		add	ip, ip, #45
 323 0024 83F800C0 		strb	ip, [r3, #0]
 378:.\Generated_Source\PSoC5/CySpc.c **** 
 379:.\Generated_Source\PSoC5/CySpc.c ****         /* Make sure the command was accepted */
 380:.\Generated_Source\PSoC5/CySpc.c ****         if(CY_SPC_BUSY)
 324              		.loc 1 380 0
 325 0028 1278     		ldrb	r2, [r2, #0]	@ zero_extendqisi2
 326 002a 12F0020F 		tst	r2, #2
 327 002e 01D0     		beq	.L34
 328 0030 0920     		movs	r0, #9
 329              	.LVL33:
 330 0032 7047     		bx	lr
 331              	.LVL34:
 332              	.L34:
 381:.\Generated_Source\PSoC5/CySpc.c ****         {
 382:.\Generated_Source\PSoC5/CySpc.c ****             CY_SPC_CPU_DATA_REG = array;
 333              		.loc 1 382 0
 334 0034 1870     		strb	r0, [r3, #0]
 383:.\Generated_Source\PSoC5/CySpc.c ****             CY_SPC_CPU_DATA_REG = sectorNumber;
 335              		.loc 1 383 0
 336 0036 1970     		strb	r1, [r3, #0]
 337 0038 0720     		movs	r0, #7
 338              	.LVL35:
 339              	.LVL36:
 384:.\Generated_Source\PSoC5/CySpc.c ****         }
 385:.\Generated_Source\PSoC5/CySpc.c ****         else
 386:.\Generated_Source\PSoC5/CySpc.c ****         {
 387:.\Generated_Source\PSoC5/CySpc.c ****             status = CYRET_CANCELED;
 388:.\Generated_Source\PSoC5/CySpc.c ****         }
 389:.\Generated_Source\PSoC5/CySpc.c ****     }
 390:.\Generated_Source\PSoC5/CySpc.c ****     else
 391:.\Generated_Source\PSoC5/CySpc.c ****     {
 392:.\Generated_Source\PSoC5/CySpc.c ****         status = CYRET_LOCKED;
 393:.\Generated_Source\PSoC5/CySpc.c ****     }
 394:.\Generated_Source\PSoC5/CySpc.c **** 
 395:.\Generated_Source\PSoC5/CySpc.c ****     return(status);
 396:.\Generated_Source\PSoC5/CySpc.c **** }
 340              		.loc 1 396 0
 341 003a 7047     		bx	lr
ARM GAS  C:\DOCUME~1\ADMINI~1\LOCALS~1\Temp\cc0hliBl.s 			page 14


 342              	.L37:
 343              		.align	2
 344              	.L36:
 345 003c 22470040 		.word	1073760034
 346 0040 20470040 		.word	1073760032
 347              		.cfi_endproc
 348              	.LFE6:
 349              		.size	CySpcEraseSector, .-CySpcEraseSector
 350              		.section	.text.CySpcGetTemp,"ax",%progbits
 351              		.align	1
 352              		.global	CySpcGetTemp
 353              		.thumb
 354              		.thumb_func
 355              		.type	CySpcGetTemp, %function
 356              	CySpcGetTemp:
 357              	.LFB7:
 397:.\Generated_Source\PSoC5/CySpc.c **** 
 398:.\Generated_Source\PSoC5/CySpc.c **** 
 399:.\Generated_Source\PSoC5/CySpc.c **** /*******************************************************************************
 400:.\Generated_Source\PSoC5/CySpc.c **** * Function Name: CySpcGetTemp
 401:.\Generated_Source\PSoC5/CySpc.c **** ********************************************************************************
 402:.\Generated_Source\PSoC5/CySpc.c **** * Summary:
 403:.\Generated_Source\PSoC5/CySpc.c **** *  Returns the internal die temperature
 404:.\Generated_Source\PSoC5/CySpc.c **** *
 405:.\Generated_Source\PSoC5/CySpc.c **** * Parameters:
 406:.\Generated_Source\PSoC5/CySpc.c **** *  uint8 numSamples:
 407:.\Generated_Source\PSoC5/CySpc.c **** *   Number of samples. Valid values are 1-5, resulting in 2 - 32 samples
 408:.\Generated_Source\PSoC5/CySpc.c **** *   respectively.
 409:.\Generated_Source\PSoC5/CySpc.c **** *
 410:.\Generated_Source\PSoC5/CySpc.c **** * uint16 timerPeriod:
 411:.\Generated_Source\PSoC5/CySpc.c **** *   Number of ADC ACLK cycles. A valid 14 bit value is accepted, higher 2 bits
 412:.\Generated_Source\PSoC5/CySpc.c **** *   of 16 bit values are ignored.
 413:.\Generated_Source\PSoC5/CySpc.c **** *
 414:.\Generated_Source\PSoC5/CySpc.c **** * uint8 clkDivSelect:
 415:.\Generated_Source\PSoC5/CySpc.c **** *   ADC ACLK clock divide value. Valid values are 2 - 225.
 416:.\Generated_Source\PSoC5/CySpc.c **** *
 417:.\Generated_Source\PSoC5/CySpc.c **** * Return:
 418:.\Generated_Source\PSoC5/CySpc.c **** *  CYRET_STARTED
 419:.\Generated_Source\PSoC5/CySpc.c **** *  CYRET_CANCELED
 420:.\Generated_Source\PSoC5/CySpc.c **** *  CYRET_LOCKED
 421:.\Generated_Source\PSoC5/CySpc.c **** *
 422:.\Generated_Source\PSoC5/CySpc.c **** *******************************************************************************/
 423:.\Generated_Source\PSoC5/CySpc.c **** #if(CY_PSOC5A)
 424:.\Generated_Source\PSoC5/CySpc.c **** cystatus CySpcGetTemp(uint8 numSamples, uint16 timerPeriod, uint8 clkDivSelect)
 425:.\Generated_Source\PSoC5/CySpc.c **** #else
 426:.\Generated_Source\PSoC5/CySpc.c **** cystatus CySpcGetTemp(uint8 numSamples)
 427:.\Generated_Source\PSoC5/CySpc.c **** #endif  /* (CY_PSOC5A) */
 428:.\Generated_Source\PSoC5/CySpc.c **** {
 358              		.loc 1 428 0
 359              		.cfi_startproc
 360              		@ args = 0, pretend = 0, frame = 0
 361              		@ frame_needed = 0, uses_anonymous_args = 0
 362              		@ link register save eliminated.
 363              	.LVL37:
 429:.\Generated_Source\PSoC5/CySpc.c ****     cystatus status = CYRET_STARTED;
 430:.\Generated_Source\PSoC5/CySpc.c **** 
 431:.\Generated_Source\PSoC5/CySpc.c ****     /* Make sure the SPC is ready to accept command */
ARM GAS  C:\DOCUME~1\ADMINI~1\LOCALS~1\Temp\cc0hliBl.s 			page 15


 432:.\Generated_Source\PSoC5/CySpc.c ****     if(CY_SPC_IDLE)
 364              		.loc 1 432 0
 365 0000 0B4A     		ldr	r2, .L43
 366 0002 1378     		ldrb	r3, [r2, #0]	@ zero_extendqisi2
 367 0004 13F0020F 		tst	r3, #2
 368 0008 01D1     		bne	.L39
 369 000a 0420     		movs	r0, #4
 370              	.LVL38:
 371 000c 7047     		bx	lr
 372              	.LVL39:
 373              	.L39:
 433:.\Generated_Source\PSoC5/CySpc.c ****     {
 434:.\Generated_Source\PSoC5/CySpc.c ****         CY_SPC_CPU_DATA_REG = CY_SPC_KEY_ONE;
 374              		.loc 1 434 0
 375 000e 094B     		ldr	r3, .L43+4
 376 0010 6FF04901 		mvn	r1, #73
 377 0014 1970     		strb	r1, [r3, #0]
 435:.\Generated_Source\PSoC5/CySpc.c ****         CY_SPC_CPU_DATA_REG = CY_SPC_KEY_TWO(CY_SPC_CMD_GET_TEMP);
 378              		.loc 1 435 0
 379 0016 2B31     		adds	r1, r1, #43
 380 0018 1970     		strb	r1, [r3, #0]
 436:.\Generated_Source\PSoC5/CySpc.c ****         CY_SPC_CPU_DATA_REG = CY_SPC_CMD_GET_TEMP;
 381              		.loc 1 436 0
 382 001a 2D31     		adds	r1, r1, #45
 383 001c 1970     		strb	r1, [r3, #0]
 437:.\Generated_Source\PSoC5/CySpc.c **** 
 438:.\Generated_Source\PSoC5/CySpc.c ****         /* Make sure the command was accepted */
 439:.\Generated_Source\PSoC5/CySpc.c ****         if(CY_SPC_BUSY)
 384              		.loc 1 439 0
 385 001e 1278     		ldrb	r2, [r2, #0]	@ zero_extendqisi2
 386 0020 12F0020F 		tst	r2, #2
 387 0024 01D0     		beq	.L41
 388 0026 0920     		movs	r0, #9
 389              	.LVL40:
 390 0028 7047     		bx	lr
 391              	.LVL41:
 392              	.L41:
 440:.\Generated_Source\PSoC5/CySpc.c ****         {
 441:.\Generated_Source\PSoC5/CySpc.c ****             CY_SPC_CPU_DATA_REG = numSamples;
 393              		.loc 1 441 0
 394 002a 1870     		strb	r0, [r3, #0]
 395 002c 0720     		movs	r0, #7
 396              	.LVL42:
 397              	.LVL43:
 442:.\Generated_Source\PSoC5/CySpc.c **** 
 443:.\Generated_Source\PSoC5/CySpc.c ****             #if(CY_PSOC5A)
 444:.\Generated_Source\PSoC5/CySpc.c ****                 CY_SPC_CPU_DATA_REG = HI8(timerPeriod);
 445:.\Generated_Source\PSoC5/CySpc.c ****                 CY_SPC_CPU_DATA_REG = LO8(timerPeriod);
 446:.\Generated_Source\PSoC5/CySpc.c ****                 CY_SPC_CPU_DATA_REG = clkDivSelect;
 447:.\Generated_Source\PSoC5/CySpc.c ****             #endif  /* (CY_PSOC5A) */
 448:.\Generated_Source\PSoC5/CySpc.c ****         }
 449:.\Generated_Source\PSoC5/CySpc.c ****         else
 450:.\Generated_Source\PSoC5/CySpc.c ****         {
 451:.\Generated_Source\PSoC5/CySpc.c ****             status = CYRET_CANCELED;
 452:.\Generated_Source\PSoC5/CySpc.c ****         }
 453:.\Generated_Source\PSoC5/CySpc.c ****     }
 454:.\Generated_Source\PSoC5/CySpc.c ****     else
ARM GAS  C:\DOCUME~1\ADMINI~1\LOCALS~1\Temp\cc0hliBl.s 			page 16


 455:.\Generated_Source\PSoC5/CySpc.c ****     {
 456:.\Generated_Source\PSoC5/CySpc.c ****         status = CYRET_LOCKED;
 457:.\Generated_Source\PSoC5/CySpc.c ****     }
 458:.\Generated_Source\PSoC5/CySpc.c **** 
 459:.\Generated_Source\PSoC5/CySpc.c ****     return(status);
 460:.\Generated_Source\PSoC5/CySpc.c **** }
 398              		.loc 1 460 0
 399 002e 7047     		bx	lr
 400              	.L44:
 401              		.align	2
 402              	.L43:
 403 0030 22470040 		.word	1073760034
 404 0034 20470040 		.word	1073760032
 405              		.cfi_endproc
 406              	.LFE7:
 407              		.size	CySpcGetTemp, .-CySpcGetTemp
 408              		.section	.text.CySpcUnlock,"ax",%progbits
 409              		.align	1
 410              		.global	CySpcUnlock
 411              		.thumb
 412              		.thumb_func
 413              		.type	CySpcUnlock, %function
 414              	CySpcUnlock:
 415              	.LFB9:
 461:.\Generated_Source\PSoC5/CySpc.c **** 
 462:.\Generated_Source\PSoC5/CySpc.c **** 
 463:.\Generated_Source\PSoC5/CySpc.c **** /*******************************************************************************
 464:.\Generated_Source\PSoC5/CySpc.c **** * Function Name: CySpcLock
 465:.\Generated_Source\PSoC5/CySpc.c **** ********************************************************************************
 466:.\Generated_Source\PSoC5/CySpc.c **** * Summary:
 467:.\Generated_Source\PSoC5/CySpc.c **** *  Locks the SPC so it can not be used by someone else:
 468:.\Generated_Source\PSoC5/CySpc.c **** *   - Saves wait-pipeline enable state and enable pipeline (PSoC5)
 469:.\Generated_Source\PSoC5/CySpc.c **** *
 470:.\Generated_Source\PSoC5/CySpc.c **** * Parameters:
 471:.\Generated_Source\PSoC5/CySpc.c **** *  Note
 472:.\Generated_Source\PSoC5/CySpc.c **** *
 473:.\Generated_Source\PSoC5/CySpc.c **** * Return:
 474:.\Generated_Source\PSoC5/CySpc.c **** *  CYRET_SUCCESS - if the resource was free.
 475:.\Generated_Source\PSoC5/CySpc.c **** *  CYRET_LOCKED  - if the SPC is in use.
 476:.\Generated_Source\PSoC5/CySpc.c **** *
 477:.\Generated_Source\PSoC5/CySpc.c **** *******************************************************************************/
 478:.\Generated_Source\PSoC5/CySpc.c **** cystatus CySpcLock(void)
 479:.\Generated_Source\PSoC5/CySpc.c **** {
 480:.\Generated_Source\PSoC5/CySpc.c ****     cystatus status = CYRET_LOCKED;
 481:.\Generated_Source\PSoC5/CySpc.c ****     uint8 interruptState;
 482:.\Generated_Source\PSoC5/CySpc.c **** 
 483:.\Generated_Source\PSoC5/CySpc.c ****     /* Enter critical section */
 484:.\Generated_Source\PSoC5/CySpc.c ****     interruptState = CyEnterCriticalSection();
 485:.\Generated_Source\PSoC5/CySpc.c **** 
 486:.\Generated_Source\PSoC5/CySpc.c ****     if(CY_SPC_UNLOCKED == SpcLockState)
 487:.\Generated_Source\PSoC5/CySpc.c ****     {
 488:.\Generated_Source\PSoC5/CySpc.c ****         SpcLockState = CY_SPC_LOCKED;
 489:.\Generated_Source\PSoC5/CySpc.c ****         status = CYRET_SUCCESS;
 490:.\Generated_Source\PSoC5/CySpc.c **** 
 491:.\Generated_Source\PSoC5/CySpc.c ****         #if(CY_PSOC5LP)
 492:.\Generated_Source\PSoC5/CySpc.c **** 
 493:.\Generated_Source\PSoC5/CySpc.c ****             if(0u != (CY_SPC_CPU_WAITPIPE_REG & CY_SPC_CPU_WAITPIPE_BYPASS))
ARM GAS  C:\DOCUME~1\ADMINI~1\LOCALS~1\Temp\cc0hliBl.s 			page 17


 494:.\Generated_Source\PSoC5/CySpc.c ****             {
 495:.\Generated_Source\PSoC5/CySpc.c ****                 /* Enable pipeline registers */
 496:.\Generated_Source\PSoC5/CySpc.c ****                 CY_SPC_CPU_WAITPIPE_REG &= ((uint32)(~CY_SPC_CPU_WAITPIPE_BYPASS));
 497:.\Generated_Source\PSoC5/CySpc.c **** 
 498:.\Generated_Source\PSoC5/CySpc.c ****                 /* At least 2 NOP instructions are recommended */
 499:.\Generated_Source\PSoC5/CySpc.c ****                 CY_NOP;
 500:.\Generated_Source\PSoC5/CySpc.c ****                 CY_NOP;
 501:.\Generated_Source\PSoC5/CySpc.c ****                 CY_NOP;
 502:.\Generated_Source\PSoC5/CySpc.c **** 
 503:.\Generated_Source\PSoC5/CySpc.c ****                 spcWaitPipeBypass = CY_SPC_CPU_WAITPIPE_BYPASS;
 504:.\Generated_Source\PSoC5/CySpc.c ****             }
 505:.\Generated_Source\PSoC5/CySpc.c **** 
 506:.\Generated_Source\PSoC5/CySpc.c ****         #endif  /* (CY_PSOC5LP) */
 507:.\Generated_Source\PSoC5/CySpc.c ****     }
 508:.\Generated_Source\PSoC5/CySpc.c **** 
 509:.\Generated_Source\PSoC5/CySpc.c ****     /* Exit critical section */
 510:.\Generated_Source\PSoC5/CySpc.c ****     CyExitCriticalSection(interruptState);
 511:.\Generated_Source\PSoC5/CySpc.c **** 
 512:.\Generated_Source\PSoC5/CySpc.c ****     return(status);
 513:.\Generated_Source\PSoC5/CySpc.c **** }
 514:.\Generated_Source\PSoC5/CySpc.c **** 
 515:.\Generated_Source\PSoC5/CySpc.c **** 
 516:.\Generated_Source\PSoC5/CySpc.c **** /*******************************************************************************
 517:.\Generated_Source\PSoC5/CySpc.c **** * Function Name: CySpcUnlock
 518:.\Generated_Source\PSoC5/CySpc.c **** ********************************************************************************
 519:.\Generated_Source\PSoC5/CySpc.c **** * Summary:
 520:.\Generated_Source\PSoC5/CySpc.c **** *  Unlocks the SPC so it can be used by someone else:
 521:.\Generated_Source\PSoC5/CySpc.c **** *   - Restores wait-pipeline enable state (PSoC5)
 522:.\Generated_Source\PSoC5/CySpc.c **** *
 523:.\Generated_Source\PSoC5/CySpc.c **** * Parameters:
 524:.\Generated_Source\PSoC5/CySpc.c **** *  None
 525:.\Generated_Source\PSoC5/CySpc.c **** *
 526:.\Generated_Source\PSoC5/CySpc.c **** * Return:
 527:.\Generated_Source\PSoC5/CySpc.c **** *  None
 528:.\Generated_Source\PSoC5/CySpc.c **** *
 529:.\Generated_Source\PSoC5/CySpc.c **** *******************************************************************************/
 530:.\Generated_Source\PSoC5/CySpc.c **** void CySpcUnlock(void)
 531:.\Generated_Source\PSoC5/CySpc.c **** {
 416              		.loc 1 531 0
 417              		.cfi_startproc
 418              		@ args = 0, pretend = 0, frame = 0
 419              		@ frame_needed = 0, uses_anonymous_args = 0
 420 0000 10B5     		push	{r4, lr}
 421              	.LCFI3:
 422              		.cfi_def_cfa_offset 8
 532:.\Generated_Source\PSoC5/CySpc.c ****     uint8 interruptState;
 533:.\Generated_Source\PSoC5/CySpc.c **** 
 534:.\Generated_Source\PSoC5/CySpc.c ****     /* Enter critical section */
 535:.\Generated_Source\PSoC5/CySpc.c ****     interruptState = CyEnterCriticalSection();
 423              		.loc 1 535 0
 424              		.cfi_offset 14, -4
 425              		.cfi_offset 4, -8
 426 0002 FFF7FEFF 		bl	CyEnterCriticalSection
 536:.\Generated_Source\PSoC5/CySpc.c **** 
 537:.\Generated_Source\PSoC5/CySpc.c ****     /* Release the SPC object */
 538:.\Generated_Source\PSoC5/CySpc.c ****     SpcLockState = CY_SPC_UNLOCKED;
 427              		.loc 1 538 0
ARM GAS  C:\DOCUME~1\ADMINI~1\LOCALS~1\Temp\cc0hliBl.s 			page 18


 428 0006 094B     		ldr	r3, .L48
 429 0008 0022     		movs	r2, #0
 539:.\Generated_Source\PSoC5/CySpc.c **** 
 540:.\Generated_Source\PSoC5/CySpc.c ****     #if(CY_PSOC5LP)
 541:.\Generated_Source\PSoC5/CySpc.c **** 
 542:.\Generated_Source\PSoC5/CySpc.c ****         if(CY_SPC_CPU_WAITPIPE_BYPASS == spcWaitPipeBypass)
 430              		.loc 1 542 0
 431 000a 5978     		ldrb	r1, [r3, #1]	@ zero_extendqisi2
 432              		.loc 1 538 0
 433 000c 1A70     		strb	r2, [r3, #0]
 434              		.loc 1 542 0
 435 000e 0129     		cmp	r1, #1
 436 0010 08D1     		bne	.L46
 543:.\Generated_Source\PSoC5/CySpc.c ****         {
 544:.\Generated_Source\PSoC5/CySpc.c ****             /* Force to bypass pipeline registers */
 545:.\Generated_Source\PSoC5/CySpc.c ****             CY_SPC_CPU_WAITPIPE_REG |= CY_SPC_CPU_WAITPIPE_BYPASS;
 437              		.loc 1 545 0
 438 0012 0749     		ldr	r1, .L48+4
 439 0014 0C68     		ldr	r4, [r1, #0]
 440 0016 44F00104 		orr	r4, r4, #1
 441 001a 0C60     		str	r4, [r1, #0]
 546:.\Generated_Source\PSoC5/CySpc.c **** 
 547:.\Generated_Source\PSoC5/CySpc.c ****             /* At least 2 NOP instructions are recommended */
 548:.\Generated_Source\PSoC5/CySpc.c ****             CY_NOP;
 442              		.loc 1 548 0
 443              	@ 548 ".\Generated_Source\PSoC5\CySpc.c" 1
 444 001c 00BF     		NOP
 445              	
 446              	@ 0 "" 2
 549:.\Generated_Source\PSoC5/CySpc.c ****             CY_NOP;
 447              		.loc 1 549 0
 448              	@ 549 ".\Generated_Source\PSoC5\CySpc.c" 1
 449 001e 00BF     		NOP
 450              	
 451              	@ 0 "" 2
 550:.\Generated_Source\PSoC5/CySpc.c ****             CY_NOP;
 452              		.loc 1 550 0
 453              	@ 550 ".\Generated_Source\PSoC5\CySpc.c" 1
 454 0020 00BF     		NOP
 455              	
 456              	@ 0 "" 2
 551:.\Generated_Source\PSoC5/CySpc.c **** 
 552:.\Generated_Source\PSoC5/CySpc.c ****             spcWaitPipeBypass = 0u;
 457              		.loc 1 552 0
 458              		.thumb
 459 0022 5A70     		strb	r2, [r3, #1]
 460              	.L46:
 553:.\Generated_Source\PSoC5/CySpc.c ****         }
 554:.\Generated_Source\PSoC5/CySpc.c **** 
 555:.\Generated_Source\PSoC5/CySpc.c ****     #endif  /* (CY_PSOC5LP) */
 556:.\Generated_Source\PSoC5/CySpc.c **** 
 557:.\Generated_Source\PSoC5/CySpc.c ****     /* Exit critical section */
 558:.\Generated_Source\PSoC5/CySpc.c ****     CyExitCriticalSection(interruptState);
 559:.\Generated_Source\PSoC5/CySpc.c **** }
 461              		.loc 1 559 0
 462 0024 BDE81040 		pop	{r4, lr}
 463              		.loc 1 558 0
ARM GAS  C:\DOCUME~1\ADMINI~1\LOCALS~1\Temp\cc0hliBl.s 			page 19


 464 0028 FFF7FEBF 		b	CyExitCriticalSection
 465              	.L49:
 466              		.align	2
 467              	.L48:
 468 002c 00000000 		.word	.LANCHOR0
 469 0030 04000840 		.word	1074266116
 470              		.cfi_endproc
 471              	.LFE9:
 472              		.size	CySpcUnlock, .-CySpcUnlock
 473              		.section	.text.CySpcLock,"ax",%progbits
 474              		.align	1
 475              		.global	CySpcLock
 476              		.thumb
 477              		.thumb_func
 478              		.type	CySpcLock, %function
 479              	CySpcLock:
 480              	.LFB8:
 481              		.loc 1 479 0
 482              		.cfi_startproc
 483              		@ args = 0, pretend = 0, frame = 0
 484              		@ frame_needed = 0, uses_anonymous_args = 0
 485 0000 10B5     		push	{r4, lr}
 486              	.LCFI4:
 487              		.cfi_def_cfa_offset 8
 488              		.loc 1 484 0
 489              		.cfi_offset 14, -4
 490              		.cfi_offset 4, -8
 491 0002 FFF7FEFF 		bl	CyEnterCriticalSection
 492              		.loc 1 486 0
 493 0006 0E4B     		ldr	r3, .L55
 494 0008 1978     		ldrb	r1, [r3, #0]	@ zero_extendqisi2
 495 000a 09B1     		cbz	r1, .L51
 496 000c 0424     		movs	r4, #4
 497              	.LVL44:
 498 000e 12E0     		b	.L52
 499              	.LVL45:
 500              	.L51:
 501              		.loc 1 488 0
 502 0010 4FF0010C 		mov	ip, #1
 503              		.loc 1 493 0
 504 0014 0B4A     		ldr	r2, .L55+4
 505              		.loc 1 488 0
 506 0016 83F800C0 		strb	ip, [r3, #0]
 507              		.loc 1 493 0
 508 001a 1468     		ldr	r4, [r2, #0]
 509 001c 14EA0C04 		ands	r4, r4, ip
 510 0020 09D0     		beq	.L52
 511              		.loc 1 496 0
 512 0022 1468     		ldr	r4, [r2, #0]
 513 0024 24F00104 		bic	r4, r4, #1
 514 0028 1460     		str	r4, [r2, #0]
 515              		.loc 1 499 0
 516              	@ 499 ".\Generated_Source\PSoC5\CySpc.c" 1
 517 002a 00BF     		NOP
 518              	
 519              	@ 0 "" 2
 520              		.loc 1 500 0
ARM GAS  C:\DOCUME~1\ADMINI~1\LOCALS~1\Temp\cc0hliBl.s 			page 20


 521              	@ 500 ".\Generated_Source\PSoC5\CySpc.c" 1
 522 002c 00BF     		NOP
 523              	
 524              	@ 0 "" 2
 525              		.loc 1 501 0
 526              	@ 501 ".\Generated_Source\PSoC5\CySpc.c" 1
 527 002e 00BF     		NOP
 528              	
 529              	@ 0 "" 2
 530              		.loc 1 503 0
 531              		.thumb
 532 0030 83F801C0 		strb	ip, [r3, #1]
 533 0034 0C46     		mov	r4, r1
 534              	.LVL46:
 535              	.L52:
 536              		.loc 1 510 0
 537 0036 FFF7FEFF 		bl	CyExitCriticalSection
 538              		.loc 1 513 0
 539 003a 2046     		mov	r0, r4
 540 003c 10BD     		pop	{r4, pc}
 541              	.L56:
 542 003e 00BF     		.align	2
 543              	.L55:
 544 0040 00000000 		.word	.LANCHOR0
 545 0044 04000840 		.word	1074266116
 546              		.cfi_endproc
 547              	.LFE8:
 548              		.size	CySpcLock, .-CySpcLock
 549              		.section	.text.CySpcStop,"ax",%progbits
 550              		.align	1
 551              		.global	CySpcStop
 552              		.thumb
 553              		.thumb_func
 554              		.type	CySpcStop, %function
 555              	CySpcStop:
 556              	.LFB1:
 557              		.loc 1 105 0
 558              		.cfi_startproc
 559              		@ args = 0, pretend = 0, frame = 0
 560              		@ frame_needed = 0, uses_anonymous_args = 0
 561 0000 10B5     		push	{r4, lr}
 562              	.LCFI5:
 563              		.cfi_def_cfa_offset 8
 564              		.loc 1 107 0
 565              		.cfi_offset 14, -4
 566              		.cfi_offset 4, -8
 567 0002 FFF7FEFF 		bl	CyEnterCriticalSection
 568              		.loc 1 109 0
 569 0006 074B     		ldr	r3, .L59
 570 0008 1A78     		ldrb	r2, [r3, #0]	@ zero_extendqisi2
 571 000a 02F0F702 		and	r2, r2, #247
 572 000e 1A70     		strb	r2, [r3, #0]
 573              		.loc 1 110 0
 574 0010 1033     		adds	r3, r3, #16
 575 0012 1A78     		ldrb	r2, [r3, #0]	@ zero_extendqisi2
 576 0014 02F0F702 		and	r2, r2, #247
 577 0018 1A70     		strb	r2, [r3, #0]
ARM GAS  C:\DOCUME~1\ADMINI~1\LOCALS~1\Temp\cc0hliBl.s 			page 21


 578              		.loc 1 114 0
 579 001a BDE81040 		pop	{r4, lr}
 580              		.loc 1 113 0
 581 001e FFF7FEBF 		b	CyExitCriticalSection
 582              	.L60:
 583 0022 00BF     		.align	2
 584              	.L59:
 585 0024 A0430040 		.word	1073759136
 586              		.cfi_endproc
 587              	.LFE1:
 588              		.size	CySpcStop, .-CySpcStop
 589              		.section	.text.CySpcStart,"ax",%progbits
 590              		.align	1
 591              		.global	CySpcStart
 592              		.thumb
 593              		.thumb_func
 594              		.type	CySpcStart, %function
 595              	CySpcStart:
 596              	.LFB0:
 597              		.loc 1 79 0
 598              		.cfi_startproc
 599              		@ args = 0, pretend = 0, frame = 0
 600              		@ frame_needed = 0, uses_anonymous_args = 0
 601 0000 10B5     		push	{r4, lr}
 602              	.LCFI6:
 603              		.cfi_def_cfa_offset 8
 604              		.loc 1 81 0
 605              		.cfi_offset 14, -4
 606              		.cfi_offset 4, -8
 607 0002 FFF7FEFF 		bl	CyEnterCriticalSection
 608              		.loc 1 83 0
 609 0006 074B     		ldr	r3, .L63
 610 0008 1A78     		ldrb	r2, [r3, #0]	@ zero_extendqisi2
 611 000a 42F00802 		orr	r2, r2, #8
 612 000e 1A70     		strb	r2, [r3, #0]
 613              		.loc 1 84 0
 614 0010 1033     		adds	r3, r3, #16
 615 0012 1A78     		ldrb	r2, [r3, #0]	@ zero_extendqisi2
 616 0014 42F00802 		orr	r2, r2, #8
 617 0018 1A70     		strb	r2, [r3, #0]
 618              		.loc 1 88 0
 619 001a BDE81040 		pop	{r4, lr}
 620              		.loc 1 87 0
 621 001e FFF7FEBF 		b	CyExitCriticalSection
 622              	.L64:
 623 0022 00BF     		.align	2
 624              	.L63:
 625 0024 A0430040 		.word	1073759136
 626              		.cfi_endproc
 627              	.LFE0:
 628              		.size	CySpcStart, .-CySpcStart
 629              		.section	.text.CySpcReadData,"ax",%progbits
 630              		.align	1
 631              		.global	CySpcReadData
 632              		.thumb
 633              		.thumb_func
 634              		.type	CySpcReadData, %function
ARM GAS  C:\DOCUME~1\ADMINI~1\LOCALS~1\Temp\cc0hliBl.s 			page 22


 635              	CySpcReadData:
 636              	.LFB2:
 637              		.loc 1 136 0
 638              		.cfi_startproc
 639              		@ args = 0, pretend = 0, frame = 0
 640              		@ frame_needed = 0, uses_anonymous_args = 0
 641              	.LVL47:
 642 0000 70B5     		push	{r4, r5, r6, lr}
 643              	.LCFI7:
 644              		.cfi_def_cfa_offset 16
 645              		.loc 1 136 0
 646 0002 0446     		mov	r4, r0
 647              		.cfi_offset 14, -4
 648              		.cfi_offset 6, -8
 649              		.cfi_offset 5, -12
 650              		.cfi_offset 4, -16
 651 0004 0E46     		mov	r6, r1
 652 0006 0025     		movs	r5, #0
 653              		.loc 1 139 0
 654 0008 0BE0     		b	.L66
 655              	.LVL48:
 656              	.L67:
 657              		.loc 1 143 0
 658 000a 0120     		movs	r0, #1
 659 000c FFF7FEFF 		bl	CyDelayUs
 660              	.LVL49:
 661              	.L68:
 662              		.loc 1 141 0
 663 0010 064B     		ldr	r3, .L70
 664 0012 1B78     		ldrb	r3, [r3, #0]	@ zero_extendqisi2
 665 0014 13F0010F 		tst	r3, #1
 666 0018 F7D0     		beq	.L67
 667              		.loc 1 145 0
 668 001a 054B     		ldr	r3, .L70+4
 669 001c 1B78     		ldrb	r3, [r3, #0]	@ zero_extendqisi2
 670 001e 6355     		strb	r3, [r4, r5]
 671 0020 0135     		adds	r5, r5, #1
 672              	.L66:
 673              		.loc 1 139 0
 674 0022 EBB2     		uxtb	r3, r5
 675 0024 B342     		cmp	r3, r6
 676 0026 F3D3     		bcc	.L68
 677              		.loc 1 149 0
 678 0028 3046     		mov	r0, r6
 679 002a 70BD     		pop	{r4, r5, r6, pc}
 680              	.L71:
 681              		.align	2
 682              	.L70:
 683 002c 22470040 		.word	1073760034
 684 0030 20470040 		.word	1073760032
 685              		.cfi_endproc
 686              	.LFE2:
 687              		.size	CySpcReadData, .-CySpcReadData
 688              		.global	SpcLockState
 689              		.bss
 690              		.set	.LANCHOR0,. + 0
 691              		.type	SpcLockState, %object
ARM GAS  C:\DOCUME~1\ADMINI~1\LOCALS~1\Temp\cc0hliBl.s 			page 23


 692              		.size	SpcLockState, 1
 693              	SpcLockState:
 694 0000 00       		.space	1
 695              		.type	spcWaitPipeBypass, %object
 696              		.size	spcWaitPipeBypass, 1
 697              	spcWaitPipeBypass:
 698 0001 00       		.space	1
 699              		.text
 700              	.Letext0: