ARM GAS  C:\DOCUME~1\ADMINI~1\LOCALS~1\Temp\cch3Lwyk.s 			page 1


   1              		.syntax unified
   2              		.cpu cortex-m3
   3              		.fpu softvfp
   4              		.eabi_attribute 20, 1
   5              		.eabi_attribute 21, 1
   6              		.eabi_attribute 23, 3
   7              		.eabi_attribute 24, 1
   8              		.eabi_attribute 25, 1
   9              		.eabi_attribute 26, 1
  10              		.eabi_attribute 30, 4
  11              		.eabi_attribute 18, 4
  12              		.thumb
  13              		.file	"I2CHW_INT.c"
  20 0000 D3000000 		.text
  20      02007100 
  20      00000201 
  20      FB0E0D00 
  20      01010101 
  21              	.Ltext0:
  22              		.cfi_sections	.debug_frame
  23              		.section	.text.I2CHW_ISR,"ax",%progbits
  24              		.align	1
  25              		.global	I2CHW_ISR
  26              		.thumb
  27              		.thumb_func
  28              		.type	I2CHW_ISR, %function
  29              	I2CHW_ISR:
  30              	.LFB0:
  31              		.file 1 ".\\Generated_Source\\PSoC5\\I2CHW_INT.c"
   1:.\Generated_Source\PSoC5/I2CHW_INT.c **** /*******************************************************************************
   2:.\Generated_Source\PSoC5/I2CHW_INT.c **** * File Name: I2CHW_INT.c
   3:.\Generated_Source\PSoC5/I2CHW_INT.c **** * Version 3.30
   4:.\Generated_Source\PSoC5/I2CHW_INT.c **** *
   5:.\Generated_Source\PSoC5/I2CHW_INT.c **** * Description:
   6:.\Generated_Source\PSoC5/I2CHW_INT.c **** *  This file provides the source code of Interrupt Service Routine (ISR)
   7:.\Generated_Source\PSoC5/I2CHW_INT.c **** *  for I2C component.
   8:.\Generated_Source\PSoC5/I2CHW_INT.c **** *
   9:.\Generated_Source\PSoC5/I2CHW_INT.c **** *  Note:
  10:.\Generated_Source\PSoC5/I2CHW_INT.c **** *
  11:.\Generated_Source\PSoC5/I2CHW_INT.c **** ********************************************************************************
  12:.\Generated_Source\PSoC5/I2CHW_INT.c **** * Copyright 2008-2012, Cypress Semiconductor Corporation.  All rights reserved.
  13:.\Generated_Source\PSoC5/I2CHW_INT.c **** * You may use this file only in accordance with the license, terms, conditions,
  14:.\Generated_Source\PSoC5/I2CHW_INT.c **** * disclaimers, and limitations in the end user license agreement accompanying
  15:.\Generated_Source\PSoC5/I2CHW_INT.c **** * the software package with which this file was provided.
  16:.\Generated_Source\PSoC5/I2CHW_INT.c **** *******************************************************************************/
  17:.\Generated_Source\PSoC5/I2CHW_INT.c **** 
  18:.\Generated_Source\PSoC5/I2CHW_INT.c **** #include "I2CHW_PVT.h"
  19:.\Generated_Source\PSoC5/I2CHW_INT.c **** 
  20:.\Generated_Source\PSoC5/I2CHW_INT.c **** 
  21:.\Generated_Source\PSoC5/I2CHW_INT.c **** /*******************************************************************************
  22:.\Generated_Source\PSoC5/I2CHW_INT.c **** *  Place your includes, defines and code here
ARM GAS  C:\DOCUME~1\ADMINI~1\LOCALS~1\Temp\cch3Lwyk.s 			page 2


  23:.\Generated_Source\PSoC5/I2CHW_INT.c **** ********************************************************************************/
  24:.\Generated_Source\PSoC5/I2CHW_INT.c **** /* `#START I2CHW_ISR_intc` */
  25:.\Generated_Source\PSoC5/I2CHW_INT.c **** 
  26:.\Generated_Source\PSoC5/I2CHW_INT.c **** /* `#END` */
  27:.\Generated_Source\PSoC5/I2CHW_INT.c **** 
  28:.\Generated_Source\PSoC5/I2CHW_INT.c **** 
  29:.\Generated_Source\PSoC5/I2CHW_INT.c **** /*******************************************************************************
  30:.\Generated_Source\PSoC5/I2CHW_INT.c **** * Function Name: I2CHW_ISR
  31:.\Generated_Source\PSoC5/I2CHW_INT.c **** ********************************************************************************
  32:.\Generated_Source\PSoC5/I2CHW_INT.c **** *
  33:.\Generated_Source\PSoC5/I2CHW_INT.c **** * Summary:
  34:.\Generated_Source\PSoC5/I2CHW_INT.c **** *  Handler for I2C interrupt. The Slave and Master operations are handled here.
  35:.\Generated_Source\PSoC5/I2CHW_INT.c **** *
  36:.\Generated_Source\PSoC5/I2CHW_INT.c **** * Parameters:
  37:.\Generated_Source\PSoC5/I2CHW_INT.c **** *  void
  38:.\Generated_Source\PSoC5/I2CHW_INT.c **** *
  39:.\Generated_Source\PSoC5/I2CHW_INT.c **** * Return:
  40:.\Generated_Source\PSoC5/I2CHW_INT.c **** *  void
  41:.\Generated_Source\PSoC5/I2CHW_INT.c **** *
  42:.\Generated_Source\PSoC5/I2CHW_INT.c **** * Reentrant:
  43:.\Generated_Source\PSoC5/I2CHW_INT.c **** *  No
  44:.\Generated_Source\PSoC5/I2CHW_INT.c **** *
  45:.\Generated_Source\PSoC5/I2CHW_INT.c **** *******************************************************************************/
  46:.\Generated_Source\PSoC5/I2CHW_INT.c **** CY_ISR(I2CHW_ISR)
  47:.\Generated_Source\PSoC5/I2CHW_INT.c **** {
  32              		.loc 1 47 0
  33              		.cfi_startproc
  34              		@ args = 0, pretend = 0, frame = 0
  35              		@ frame_needed = 0, uses_anonymous_args = 0
  36 0000 38B5     		push	{r3, r4, r5, lr}
  37              	.LCFI0:
  38              		.cfi_def_cfa_offset 16
  48:.\Generated_Source\PSoC5/I2CHW_INT.c ****     #if(I2CHW_MODE_SLAVE_ENABLED)
  49:.\Generated_Source\PSoC5/I2CHW_INT.c ****        uint8  tmp8;
  50:.\Generated_Source\PSoC5/I2CHW_INT.c ****     #endif  /* (I2CHW_MODE_SLAVE_ENABLED) */
  51:.\Generated_Source\PSoC5/I2CHW_INT.c **** 
  52:.\Generated_Source\PSoC5/I2CHW_INT.c ****     uint8  tmpCsr;
  53:.\Generated_Source\PSoC5/I2CHW_INT.c **** 
  54:.\Generated_Source\PSoC5/I2CHW_INT.c ****     #if(I2CHW_TIMEOUT_FF_ENABLED)
  55:.\Generated_Source\PSoC5/I2CHW_INT.c ****         if(0u != I2CHW_TimeoutGetStatus())
  56:.\Generated_Source\PSoC5/I2CHW_INT.c ****         {
  57:.\Generated_Source\PSoC5/I2CHW_INT.c ****             I2CHW_TimeoutReset();
  58:.\Generated_Source\PSoC5/I2CHW_INT.c ****             I2CHW_state = I2CHW_SM_EXIT_IDLE;
  59:.\Generated_Source\PSoC5/I2CHW_INT.c ****             /* I2CHW_CSR_REG should be cleared after reset */
  60:.\Generated_Source\PSoC5/I2CHW_INT.c ****         }
  61:.\Generated_Source\PSoC5/I2CHW_INT.c ****     #endif /* (I2CHW_TIMEOUT_FF_ENABLED) */
  62:.\Generated_Source\PSoC5/I2CHW_INT.c **** 
  63:.\Generated_Source\PSoC5/I2CHW_INT.c **** 
  64:.\Generated_Source\PSoC5/I2CHW_INT.c ****     tmpCsr = I2CHW_CSR_REG;      /* Make copy as interrupts clear */
  39              		.loc 1 64 0
  40 0002 834B     		ldr	r3, .L31
  41              		.cfi_offset 14, -4
  42              		.cfi_offset 5, -8
  43              		.cfi_offset 4, -12
  44              		.cfi_offset 3, -16
  45 0004 1C78     		ldrb	r4, [r3, #0]	@ zero_extendqisi2
  65:.\Generated_Source\PSoC5/I2CHW_INT.c **** 
ARM GAS  C:\DOCUME~1\ADMINI~1\LOCALS~1\Temp\cch3Lwyk.s 			page 3


  66:.\Generated_Source\PSoC5/I2CHW_INT.c ****     #if(I2CHW_MODE_MULTI_MASTER_SLAVE_ENABLED)
  67:.\Generated_Source\PSoC5/I2CHW_INT.c ****         if(I2CHW_CHECK_START_GEN(I2CHW_MCSR_REG))
  68:.\Generated_Source\PSoC5/I2CHW_INT.c ****         {
  69:.\Generated_Source\PSoC5/I2CHW_INT.c ****             I2CHW_CLEAR_START_GEN;
  70:.\Generated_Source\PSoC5/I2CHW_INT.c **** 
  71:.\Generated_Source\PSoC5/I2CHW_INT.c ****             /* Set READ complete, but was aborted */
  72:.\Generated_Source\PSoC5/I2CHW_INT.c ****             I2CHW_mstrStatus |= (I2CHW_MSTAT_ERR_XFER |
  73:.\Generated_Source\PSoC5/I2CHW_INT.c ****                                             I2CHW_GET_MSTAT_CMPLT);
  74:.\Generated_Source\PSoC5/I2CHW_INT.c **** 
  75:.\Generated_Source\PSoC5/I2CHW_INT.c ****             /* The slave was addressed */
  76:.\Generated_Source\PSoC5/I2CHW_INT.c ****             I2CHW_state = I2CHW_SM_SLAVE;
  77:.\Generated_Source\PSoC5/I2CHW_INT.c ****         }
  78:.\Generated_Source\PSoC5/I2CHW_INT.c ****     #endif /* (I2CHW_MODE_MULTI_MASTER_SLAVE_ENABLED) */
  79:.\Generated_Source\PSoC5/I2CHW_INT.c **** 
  80:.\Generated_Source\PSoC5/I2CHW_INT.c **** 
  81:.\Generated_Source\PSoC5/I2CHW_INT.c ****     #if(I2CHW_MODE_MULTI_MASTER_ENABLED)
  82:.\Generated_Source\PSoC5/I2CHW_INT.c ****         if(I2CHW_CHECK_LOST_ARB(tmpCsr))
  83:.\Generated_Source\PSoC5/I2CHW_INT.c ****         {
  84:.\Generated_Source\PSoC5/I2CHW_INT.c ****             /* Set errors */
  85:.\Generated_Source\PSoC5/I2CHW_INT.c ****             I2CHW_mstrStatus |= (I2CHW_MSTAT_ERR_XFER     |
  86:.\Generated_Source\PSoC5/I2CHW_INT.c ****                                             I2CHW_MSTAT_ERR_ARB_LOST |
  87:.\Generated_Source\PSoC5/I2CHW_INT.c ****                                             I2CHW_GET_MSTAT_CMPLT);
  88:.\Generated_Source\PSoC5/I2CHW_INT.c **** 
  89:.\Generated_Source\PSoC5/I2CHW_INT.c ****             I2CHW_DISABLE_INT_ON_STOP; /* Interrupt on Stop is enabled by write */
  90:.\Generated_Source\PSoC5/I2CHW_INT.c **** 
  91:.\Generated_Source\PSoC5/I2CHW_INT.c ****             #if(I2CHW_MODE_MULTI_MASTER_SLAVE_ENABLED)
  92:.\Generated_Source\PSoC5/I2CHW_INT.c ****                 if(I2CHW_CHECK_ADDRESS_STS(tmpCsr))
  93:.\Generated_Source\PSoC5/I2CHW_INT.c ****                 {
  94:.\Generated_Source\PSoC5/I2CHW_INT.c ****                     /* The slave was addressed */
  95:.\Generated_Source\PSoC5/I2CHW_INT.c ****                     I2CHW_state = I2CHW_SM_SLAVE;
  96:.\Generated_Source\PSoC5/I2CHW_INT.c ****                 }
  97:.\Generated_Source\PSoC5/I2CHW_INT.c ****                 else
  98:.\Generated_Source\PSoC5/I2CHW_INT.c ****                 {
  99:.\Generated_Source\PSoC5/I2CHW_INT.c ****                     I2CHW_BUS_RELEASE;
 100:.\Generated_Source\PSoC5/I2CHW_INT.c **** 
 101:.\Generated_Source\PSoC5/I2CHW_INT.c ****                     I2CHW_state = I2CHW_SM_EXIT_IDLE;
 102:.\Generated_Source\PSoC5/I2CHW_INT.c ****                 }
 103:.\Generated_Source\PSoC5/I2CHW_INT.c ****             #else
 104:.\Generated_Source\PSoC5/I2CHW_INT.c ****                 I2CHW_BUS_RELEASE;
 105:.\Generated_Source\PSoC5/I2CHW_INT.c **** 
 106:.\Generated_Source\PSoC5/I2CHW_INT.c ****                 I2CHW_state = I2CHW_SM_EXIT_IDLE;
 107:.\Generated_Source\PSoC5/I2CHW_INT.c **** 
 108:.\Generated_Source\PSoC5/I2CHW_INT.c ****             #endif /* (I2CHW_MODE_MULTI_MASTER_SLAVE_ENABLED) */
 109:.\Generated_Source\PSoC5/I2CHW_INT.c ****         }
 110:.\Generated_Source\PSoC5/I2CHW_INT.c ****     #endif /* (I2CHW_MODE_MULTI_MASTER_ENABLED) */
 111:.\Generated_Source\PSoC5/I2CHW_INT.c **** 
 112:.\Generated_Source\PSoC5/I2CHW_INT.c ****     /* Check for Master operation mode */
 113:.\Generated_Source\PSoC5/I2CHW_INT.c ****     if(I2CHW_CHECK_SM_MASTER)
  46              		.loc 1 113 0
  47 0006 834B     		ldr	r3, .L31+4
  48 0008 1A78     		ldrb	r2, [r3, #0]	@ zero_extendqisi2
  49 000a 12F0400F 		tst	r2, #64
  50 000e 00F0F780 		beq	.L2
 114:.\Generated_Source\PSoC5/I2CHW_INT.c ****     {
 115:.\Generated_Source\PSoC5/I2CHW_INT.c ****         #if(I2CHW_MODE_MASTER_ENABLED)
 116:.\Generated_Source\PSoC5/I2CHW_INT.c ****             if(I2CHW_CHECK_BYTE_COMPLETE(tmpCsr))
  51              		.loc 1 116 0
ARM GAS  C:\DOCUME~1\ADMINI~1\LOCALS~1\Temp\cch3Lwyk.s 			page 4


  52 0012 14F0010F 		tst	r4, #1
  53              	.LVL0:
  54 0016 00F0DC80 		beq	.L3
 117:.\Generated_Source\PSoC5/I2CHW_INT.c ****             {
 118:.\Generated_Source\PSoC5/I2CHW_INT.c ****                 switch (I2CHW_state)
  55              		.loc 1 118 0
  56 001a 1B78     		ldrb	r3, [r3, #0]	@ zero_extendqisi2
  57 001c 453B     		subs	r3, r3, #69
  58 001e 052B     		cmp	r3, #5
  59 0020 00F2D780 		bhi	.L3
  60 0024 DFE813F0 		tbh	[pc, r3, lsl #1]
  61              	.L7:
  62 0028 0600     		.2byte	(.L4-.L7)/2
  63 002a 5C00     		.2byte	(.L5-.L7)/2
  64 002c D500     		.2byte	(.L3-.L7)/2
  65 002e D500     		.2byte	(.L3-.L7)/2
  66 0030 0600     		.2byte	(.L4-.L7)/2
  67 0032 A300     		.2byte	(.L6-.L7)/2
  68              	.L4:
 119:.\Generated_Source\PSoC5/I2CHW_INT.c ****                 {
 120:.\Generated_Source\PSoC5/I2CHW_INT.c ****                 case I2CHW_SM_MSTR_WR_ADDR:  /* After address is sent, WRITE data */
 121:.\Generated_Source\PSoC5/I2CHW_INT.c ****                 case I2CHW_SM_MSTR_RD_ADDR:  /* After address is sent, READ  data */
 122:.\Generated_Source\PSoC5/I2CHW_INT.c **** 
 123:.\Generated_Source\PSoC5/I2CHW_INT.c ****                     tmpCsr &= ((uint8) ~I2CHW_CSR_STOP_STATUS); /* Clear STOP bit history on addres
  69              		.loc 1 123 0
  70 0034 04F0DF04 		and	r4, r4, #223
  71              	.LVL1:
 124:.\Generated_Source\PSoC5/I2CHW_INT.c ****                     
 125:.\Generated_Source\PSoC5/I2CHW_INT.c ****                     if(I2CHW_CHECK_ADDR_ACK(tmpCsr))
  72              		.loc 1 125 0
  73 0038 04F00A03 		and	r3, r4, #10
  74 003c 082B     		cmp	r3, #8
  75 003e 2AD1     		bne	.L8
 126:.\Generated_Source\PSoC5/I2CHW_INT.c ****                     {
 127:.\Generated_Source\PSoC5/I2CHW_INT.c ****                         /* Setup for transmit or receive of data */
 128:.\Generated_Source\PSoC5/I2CHW_INT.c ****                         if(I2CHW_state == I2CHW_SM_MSTR_WR_ADDR)   /* TRANSMIT data */
  76              		.loc 1 128 0
  77 0040 744B     		ldr	r3, .L31+4
  78 0042 1A78     		ldrb	r2, [r3, #0]	@ zero_extendqisi2
  79 0044 452A     		cmp	r2, #69
  80 0046 1ED1     		bne	.L9
 129:.\Generated_Source\PSoC5/I2CHW_INT.c ****                         {
 130:.\Generated_Source\PSoC5/I2CHW_INT.c ****                             /* Check if at least one byte to transfer */
 131:.\Generated_Source\PSoC5/I2CHW_INT.c ****                             if(I2CHW_mstrWrBufSize > 0u)
  81              		.loc 1 131 0
  82 0048 734A     		ldr	r2, .L31+8
  83 004a 1278     		ldrb	r2, [r2, #0]	@ zero_extendqisi2
  84 004c 7AB1     		cbz	r2, .L10
 132:.\Generated_Source\PSoC5/I2CHW_INT.c ****                             {
 133:.\Generated_Source\PSoC5/I2CHW_INT.c ****                                 /* Load the 1st data byte */
 134:.\Generated_Source\PSoC5/I2CHW_INT.c ****                                 I2CHW_DATA_REG = I2CHW_mstrWrBufPtr[0u];
  85              		.loc 1 134 0
  86 004e 734A     		ldr	r2, .L31+12
  87 0050 1268     		ldr	r2, [r2, #0]
  88 0052 1178     		ldrb	r1, [r2, #0]	@ zero_extendqisi2
  89 0054 724A     		ldr	r2, .L31+16
  90 0056 1170     		strb	r1, [r2, #0]
ARM GAS  C:\DOCUME~1\ADMINI~1\LOCALS~1\Temp\cch3Lwyk.s 			page 5


 135:.\Generated_Source\PSoC5/I2CHW_INT.c ****                                 I2CHW_TRANSMIT_DATA;
  91              		.loc 1 135 0
  92 0058 0621     		movs	r1, #6
  93 005a 963A     		subs	r2, r2, #150
  94 005c 1170     		strb	r1, [r2, #0]
  95 005e 0639     		subs	r1, r1, #6
  96 0060 E632     		adds	r2, r2, #230
  97 0062 1170     		strb	r1, [r2, #0]
 136:.\Generated_Source\PSoC5/I2CHW_INT.c ****                                 I2CHW_mstrWrBufIndex = 1u;   /* Set index to 2nd element */
  98              		.loc 1 136 0
  99 0064 6F4A     		ldr	r2, .L31+20
 100 0066 0131     		adds	r1, r1, #1
 101 0068 1170     		strb	r1, [r2, #0]
 137:.\Generated_Source\PSoC5/I2CHW_INT.c **** 
 138:.\Generated_Source\PSoC5/I2CHW_INT.c ****                                 /* Set transmit state until done */
 139:.\Generated_Source\PSoC5/I2CHW_INT.c ****                                 I2CHW_state = I2CHW_SM_MSTR_WR_DATA;
 102              		.loc 1 139 0
 103 006a 4622     		movs	r2, #70
 104 006c 94E0     		b	.L25
 105              	.L10:
 140:.\Generated_Source\PSoC5/I2CHW_INT.c ****                             }
 141:.\Generated_Source\PSoC5/I2CHW_INT.c ****                             /* End of buffer: complete writing */
 142:.\Generated_Source\PSoC5/I2CHW_INT.c ****                             else if(I2CHW_CHECK_NO_STOP(I2CHW_mstrControl))
 106              		.loc 1 142 0
 107 006e 6E4A     		ldr	r2, .L31+24
 108 0070 1278     		ldrb	r2, [r2, #0]	@ zero_extendqisi2
 109 0072 12F00202 		ands	r2, r2, #2
 110 0076 2AD0     		beq	.L12
 143:.\Generated_Source\PSoC5/I2CHW_INT.c ****                             {
 144:.\Generated_Source\PSoC5/I2CHW_INT.c ****                                 #if(CY_PSOC5A)
 145:.\Generated_Source\PSoC5/I2CHW_INT.c ****                                     /* Do not handles 0 bytes transfer - HALT is NOT allowed */
 146:.\Generated_Source\PSoC5/I2CHW_INT.c ****                                     I2CHW_ENABLE_INT_ON_STOP;
 147:.\Generated_Source\PSoC5/I2CHW_INT.c ****                                     I2CHW_GENERATE_STOP;
 148:.\Generated_Source\PSoC5/I2CHW_INT.c ****                                 
 149:.\Generated_Source\PSoC5/I2CHW_INT.c ****                                 #else
 150:.\Generated_Source\PSoC5/I2CHW_INT.c ****                                     /* Set WRITE complete and Master HALTED */
 151:.\Generated_Source\PSoC5/I2CHW_INT.c ****                                     I2CHW_mstrStatus |= (I2CHW_MSTAT_XFER_HALT |
 111              		.loc 1 151 0
 112 0078 6C4A     		ldr	r2, .L31+28
 113 007a 1178     		ldrb	r1, [r2, #0]	@ zero_extendqisi2
 114 007c 41F00A01 		orr	r1, r1, #10
 115              	.LVL2:
 116 0080 1170     		strb	r1, [r2, #0]
 152:.\Generated_Source\PSoC5/I2CHW_INT.c ****                                                                     I2CHW_MSTAT_WR_CMPLT);
 153:.\Generated_Source\PSoC5/I2CHW_INT.c **** 
 154:.\Generated_Source\PSoC5/I2CHW_INT.c ****                                     I2CHW_state = I2CHW_SM_MSTR_HALT; /* Expect RESTART */
 117              		.loc 1 154 0
 118 0082 6022     		movs	r2, #96
 119 0084 96E0     		b	.L29
 120              	.LVL3:
 121              	.L9:
 155:.\Generated_Source\PSoC5/I2CHW_INT.c ****                                     I2CHW_DisableInt();
 156:.\Generated_Source\PSoC5/I2CHW_INT.c ****                                 
 157:.\Generated_Source\PSoC5/I2CHW_INT.c ****                                 #endif /* (CY_PSOC5A) */
 158:.\Generated_Source\PSoC5/I2CHW_INT.c ****                             }
 159:.\Generated_Source\PSoC5/I2CHW_INT.c ****                             else
 160:.\Generated_Source\PSoC5/I2CHW_INT.c ****                             {
ARM GAS  C:\DOCUME~1\ADMINI~1\LOCALS~1\Temp\cch3Lwyk.s 			page 6


 161:.\Generated_Source\PSoC5/I2CHW_INT.c ****                                 I2CHW_ENABLE_INT_ON_STOP; /* Enable interrupt on STOP, to catch it 
 162:.\Generated_Source\PSoC5/I2CHW_INT.c ****                                 I2CHW_GENERATE_STOP;
 163:.\Generated_Source\PSoC5/I2CHW_INT.c ****                             }
 164:.\Generated_Source\PSoC5/I2CHW_INT.c ****                         }
 165:.\Generated_Source\PSoC5/I2CHW_INT.c ****                         else  /* Master Receive data */
 166:.\Generated_Source\PSoC5/I2CHW_INT.c ****                         {
 167:.\Generated_Source\PSoC5/I2CHW_INT.c ****                             I2CHW_READY_TO_READ; /* Release bus to read data */
 122              		.loc 1 167 0
 123 0086 6A4A     		ldr	r2, .L31+32
 124 0088 0221     		movs	r1, #2
 125 008a 1170     		strb	r1, [r2, #0]
 126 008c E632     		adds	r2, r2, #230
 127 008e 0239     		subs	r1, r1, #2
 128 0090 1170     		strb	r1, [r2, #0]
 168:.\Generated_Source\PSoC5/I2CHW_INT.c **** 
 169:.\Generated_Source\PSoC5/I2CHW_INT.c ****                             I2CHW_state  = I2CHW_SM_MSTR_RD_DATA;
 129              		.loc 1 169 0
 130 0092 4A22     		movs	r2, #74
 131 0094 80E0     		b	.L25
 132              	.L8:
 170:.\Generated_Source\PSoC5/I2CHW_INT.c ****                         }
 171:.\Generated_Source\PSoC5/I2CHW_INT.c ****                     }
 172:.\Generated_Source\PSoC5/I2CHW_INT.c ****                     /* Address is NACKed */
 173:.\Generated_Source\PSoC5/I2CHW_INT.c ****                     else if(I2CHW_CHECK_ADDR_NAK(tmpCsr))
 133              		.loc 1 173 0
 134 0096 0A2B     		cmp	r3, #10
 135 0098 40F09B80 		bne	.L3
 174:.\Generated_Source\PSoC5/I2CHW_INT.c ****                     {
 175:.\Generated_Source\PSoC5/I2CHW_INT.c ****                         /* Set Address NAK error */
 176:.\Generated_Source\PSoC5/I2CHW_INT.c ****                         I2CHW_mstrStatus |= (I2CHW_MSTAT_ERR_XFER |
 136              		.loc 1 176 0
 137 009c 634B     		ldr	r3, .L31+28
 138 009e 1A78     		ldrb	r2, [r3, #0]	@ zero_extendqisi2
 139 00a0 42F0A002 		orr	r2, r2, #160
 140              	.LVL4:
 141 00a4 1A70     		strb	r2, [r3, #0]
 177:.\Generated_Source\PSoC5/I2CHW_INT.c ****                                                         I2CHW_MSTAT_ERR_ADDR_NAK);
 178:.\Generated_Source\PSoC5/I2CHW_INT.c ****                                                         
 179:.\Generated_Source\PSoC5/I2CHW_INT.c ****                         if(I2CHW_CHECK_NO_STOP(I2CHW_mstrControl))
 142              		.loc 1 179 0
 143 00a6 604A     		ldr	r2, .L31+24
 144              	.LVL5:
 145 00a8 1278     		ldrb	r2, [r2, #0]	@ zero_extendqisi2
 146 00aa 12F00202 		ands	r2, r2, #2
 147 00ae 0ED0     		beq	.L12
 180:.\Generated_Source\PSoC5/I2CHW_INT.c ****                         {
 181:.\Generated_Source\PSoC5/I2CHW_INT.c ****                             I2CHW_mstrStatus |= (I2CHW_MSTAT_XFER_HALT | 
 182:.\Generated_Source\PSoC5/I2CHW_INT.c ****                                                             I2CHW_GET_MSTAT_CMPLT);
 148              		.loc 1 182 0
 149 00b0 584A     		ldr	r2, .L31+4
 150              		.loc 1 181 0
 151 00b2 1878     		ldrb	r0, [r3, #0]	@ zero_extendqisi2
 152              		.loc 1 182 0
 153 00b4 1178     		ldrb	r1, [r2, #0]	@ zero_extendqisi2
 154              		.loc 1 181 0
 155 00b6 01F00801 		and	r1, r1, #8
 156 00ba 0029     		cmp	r1, #0
ARM GAS  C:\DOCUME~1\ADMINI~1\LOCALS~1\Temp\cch3Lwyk.s 			page 7


 157 00bc 14BF     		ite	ne
 158 00be 0921     		movne	r1, #9
 159 00c0 0A21     		moveq	r1, #10
 160 00c2 0143     		orrs	r1, r1, r0
 161              	.LVL6:
 162 00c4 1970     		strb	r1, [r3, #0]
 183:.\Generated_Source\PSoC5/I2CHW_INT.c **** 
 184:.\Generated_Source\PSoC5/I2CHW_INT.c ****                             I2CHW_state = I2CHW_SM_MSTR_HALT; /* Expect RESTART */
 163              		.loc 1 184 0
 164 00c6 6023     		movs	r3, #96
 165 00c8 1370     		strb	r3, [r2, #0]
 185:.\Generated_Source\PSoC5/I2CHW_INT.c ****                             I2CHW_DisableInt();
 166              		.loc 1 185 0
 167 00ca 0122     		movs	r2, #1
 168 00cc 74E0     		b	.L27
 169              	.LVL7:
 170              	.L12:
 186:.\Generated_Source\PSoC5/I2CHW_INT.c ****                         }
 187:.\Generated_Source\PSoC5/I2CHW_INT.c ****                         else  /* Do normal Stop */
 188:.\Generated_Source\PSoC5/I2CHW_INT.c ****                         {
 189:.\Generated_Source\PSoC5/I2CHW_INT.c ****                             I2CHW_ENABLE_INT_ON_STOP; /* Enable interrupt on STOP, to catch it */
 171              		.loc 1 189 0
 172 00ce 594B     		ldr	r3, .L31+36
 173 00d0 1978     		ldrb	r1, [r3, #0]	@ zero_extendqisi2
 174 00d2 41F02001 		orr	r1, r1, #32
 175 00d6 1970     		strb	r1, [r3, #0]
 190:.\Generated_Source\PSoC5/I2CHW_INT.c ****                             I2CHW_GENERATE_STOP;
 176              		.loc 1 190 0
 177 00d8 5221     		movs	r1, #82
 178 00da 183B     		subs	r3, r3, #24
 179 00dc 1970     		strb	r1, [r3, #0]
 180 00de 5AE0     		b	.L28
 181              	.L5:
 191:.\Generated_Source\PSoC5/I2CHW_INT.c ****                         }
 192:.\Generated_Source\PSoC5/I2CHW_INT.c ****                     }
 193:.\Generated_Source\PSoC5/I2CHW_INT.c ****                     else
 194:.\Generated_Source\PSoC5/I2CHW_INT.c ****                     {
 195:.\Generated_Source\PSoC5/I2CHW_INT.c ****                         /* Address phase is not set for some reason: error */
 196:.\Generated_Source\PSoC5/I2CHW_INT.c ****                         #if(I2CHW_TIMEOUT_ENABLED)
 197:.\Generated_Source\PSoC5/I2CHW_INT.c ****                             /* Exit from interrupt to take a chance for timeout timer handle this c
 198:.\Generated_Source\PSoC5/I2CHW_INT.c ****                             I2CHW_DisableInt();
 199:.\Generated_Source\PSoC5/I2CHW_INT.c ****                             I2CHW_ClearPendingInt();
 200:.\Generated_Source\PSoC5/I2CHW_INT.c ****                         #else
 201:.\Generated_Source\PSoC5/I2CHW_INT.c ****                             /* Block execution flow: unexpected condition */
 202:.\Generated_Source\PSoC5/I2CHW_INT.c ****                             CYASSERT(0u != 0u);
 203:.\Generated_Source\PSoC5/I2CHW_INT.c ****                         #endif /* (I2CHW_TIMEOUT_ENABLED) */
 204:.\Generated_Source\PSoC5/I2CHW_INT.c ****                     }
 205:.\Generated_Source\PSoC5/I2CHW_INT.c ****                     break;
 206:.\Generated_Source\PSoC5/I2CHW_INT.c **** 
 207:.\Generated_Source\PSoC5/I2CHW_INT.c ****                 case I2CHW_SM_MSTR_WR_DATA:
 208:.\Generated_Source\PSoC5/I2CHW_INT.c **** 
 209:.\Generated_Source\PSoC5/I2CHW_INT.c ****                     if(I2CHW_CHECK_DATA_ACK(tmpCsr))
 182              		.loc 1 209 0
 183 00e0 14F00201 		ands	r1, r4, #2
 184 00e4 2BD1     		bne	.L15
 210:.\Generated_Source\PSoC5/I2CHW_INT.c ****                     {
 211:.\Generated_Source\PSoC5/I2CHW_INT.c ****                         /* Check if end of buffer */
ARM GAS  C:\DOCUME~1\ADMINI~1\LOCALS~1\Temp\cch3Lwyk.s 			page 8


 212:.\Generated_Source\PSoC5/I2CHW_INT.c ****                         if(I2CHW_mstrWrBufIndex  < I2CHW_mstrWrBufSize)
 185              		.loc 1 212 0
 186 00e6 4F4B     		ldr	r3, .L31+20
 187 00e8 4B4A     		ldr	r2, .L31+8
 188 00ea 1878     		ldrb	r0, [r3, #0]	@ zero_extendqisi2
 189 00ec 1278     		ldrb	r2, [r2, #0]	@ zero_extendqisi2
 190 00ee 9042     		cmp	r0, r2
 191 00f0 0ED2     		bcs	.L16
 213:.\Generated_Source\PSoC5/I2CHW_INT.c ****                         {
 214:.\Generated_Source\PSoC5/I2CHW_INT.c ****                             I2CHW_DATA_REG =
 215:.\Generated_Source\PSoC5/I2CHW_INT.c ****                                                      I2CHW_mstrWrBufPtr[I2CHW_mstrWrBufIndex];
 192              		.loc 1 215 0
 193 00f2 4A4A     		ldr	r2, .L31+12
 194 00f4 1878     		ldrb	r0, [r3, #0]	@ zero_extendqisi2
 195 00f6 1268     		ldr	r2, [r2, #0]
 196 00f8 805C     		ldrb	r0, [r0, r2]	@ zero_extendqisi2
 197              		.loc 1 214 0
 198 00fa 494A     		ldr	r2, .L31+16
 199 00fc 1070     		strb	r0, [r2, #0]
 216:.\Generated_Source\PSoC5/I2CHW_INT.c ****                             I2CHW_TRANSMIT_DATA;
 200              		.loc 1 216 0
 201 00fe 963A     		subs	r2, r2, #150
 202 0100 0620     		movs	r0, #6
 203 0102 1070     		strb	r0, [r2, #0]
 204 0104 E632     		adds	r2, r2, #230
 205 0106 1170     		strb	r1, [r2, #0]
 217:.\Generated_Source\PSoC5/I2CHW_INT.c ****                             I2CHW_mstrWrBufIndex++;
 206              		.loc 1 217 0
 207 0108 1A78     		ldrb	r2, [r3, #0]	@ zero_extendqisi2
 208 010a 0132     		adds	r2, r2, #1
 209 010c D2B2     		uxtb	r2, r2
 210              	.LVL8:
 211 010e 43E0     		b	.L25
 212              	.LVL9:
 213              	.L16:
 218:.\Generated_Source\PSoC5/I2CHW_INT.c ****                         }
 219:.\Generated_Source\PSoC5/I2CHW_INT.c ****                         /* End of buffer: complete writing */
 220:.\Generated_Source\PSoC5/I2CHW_INT.c ****                         else if(I2CHW_CHECK_NO_STOP(I2CHW_mstrControl))
 214              		.loc 1 220 0
 215 0110 454B     		ldr	r3, .L31+24
 216 0112 1B78     		ldrb	r3, [r3, #0]	@ zero_extendqisi2
 217 0114 13F00205 		ands	r5, r3, #2
 218 0118 04D0     		beq	.L17
 221:.\Generated_Source\PSoC5/I2CHW_INT.c ****                         {
 222:.\Generated_Source\PSoC5/I2CHW_INT.c ****                             /* Set WRITE complete and Master HALTED */
 223:.\Generated_Source\PSoC5/I2CHW_INT.c ****                             I2CHW_mstrStatus |= (I2CHW_MSTAT_XFER_HALT |
 219              		.loc 1 223 0
 220 011a 444B     		ldr	r3, .L31+28
 221 011c 1A78     		ldrb	r2, [r3, #0]	@ zero_extendqisi2
 222 011e 42F00A02 		orr	r2, r2, #10
 223              	.LVL10:
 224 0122 44E0     		b	.L26
 225              	.LVL11:
 226              	.L17:
 224:.\Generated_Source\PSoC5/I2CHW_INT.c ****                                                             I2CHW_MSTAT_WR_CMPLT);
 225:.\Generated_Source\PSoC5/I2CHW_INT.c **** 
 226:.\Generated_Source\PSoC5/I2CHW_INT.c ****                             I2CHW_state = I2CHW_SM_MSTR_HALT;    /* Expect RESTART */
ARM GAS  C:\DOCUME~1\ADMINI~1\LOCALS~1\Temp\cch3Lwyk.s 			page 9


 227:.\Generated_Source\PSoC5/I2CHW_INT.c ****                             I2CHW_DisableInt();
 228:.\Generated_Source\PSoC5/I2CHW_INT.c ****                         }
 229:.\Generated_Source\PSoC5/I2CHW_INT.c ****                         else  /* Do normal STOP */
 230:.\Generated_Source\PSoC5/I2CHW_INT.c ****                         {
 231:.\Generated_Source\PSoC5/I2CHW_INT.c ****                             I2CHW_Workaround();          /* Workaround: empty function */
 227              		.loc 1 231 0
 228 0124 FFF7FEFF 		bl	I2CHW_Workaround
 232:.\Generated_Source\PSoC5/I2CHW_INT.c ****                             I2CHW_ENABLE_INT_ON_STOP;    /* Enable interrupt on STOP, to catch it *
 229              		.loc 1 232 0
 230 0128 424B     		ldr	r3, .L31+36
 231 012a 1A78     		ldrb	r2, [r3, #0]	@ zero_extendqisi2
 232 012c 42F02002 		orr	r2, r2, #32
 233 0130 1A70     		strb	r2, [r3, #0]
 233:.\Generated_Source\PSoC5/I2CHW_INT.c ****                             I2CHW_GENERATE_STOP;
 234              		.loc 1 233 0
 235 0132 5222     		movs	r2, #82
 236 0134 183B     		subs	r3, r3, #24
 237 0136 1A70     		strb	r2, [r3, #0]
 238 0138 3F4A     		ldr	r2, .L31+40
 239 013a 1570     		strb	r5, [r2, #0]
 240 013c 49E0     		b	.L3
 241              	.L15:
 234:.\Generated_Source\PSoC5/I2CHW_INT.c ****                         }
 235:.\Generated_Source\PSoC5/I2CHW_INT.c ****                     }
 236:.\Generated_Source\PSoC5/I2CHW_INT.c ****                     /* Last byte NAKed: end writing */
 237:.\Generated_Source\PSoC5/I2CHW_INT.c ****                     else if(I2CHW_CHECK_NO_STOP(I2CHW_mstrControl))
 242              		.loc 1 237 0
 243 013e 3A4B     		ldr	r3, .L31+24
 244 0140 1B78     		ldrb	r3, [r3, #0]	@ zero_extendqisi2
 245 0142 13F00201 		ands	r1, r3, #2
 246 0146 394B     		ldr	r3, .L31+28
 247 0148 03D0     		beq	.L18
 238:.\Generated_Source\PSoC5/I2CHW_INT.c ****                     {
 239:.\Generated_Source\PSoC5/I2CHW_INT.c ****                         /* Set WRITE complete, SHORT transfer and Master HALTED */
 240:.\Generated_Source\PSoC5/I2CHW_INT.c ****                         I2CHW_mstrStatus |= (I2CHW_MSTAT_ERR_XFER       |
 248              		.loc 1 240 0
 249 014a 1A78     		ldrb	r2, [r3, #0]	@ zero_extendqisi2
 250 014c 42F09A02 		orr	r2, r2, #154
 251              	.LVL12:
 252 0150 2DE0     		b	.L26
 253              	.LVL13:
 254              	.L18:
 241:.\Generated_Source\PSoC5/I2CHW_INT.c ****                                                         I2CHW_MSTAT_ERR_SHORT_XFER |
 242:.\Generated_Source\PSoC5/I2CHW_INT.c ****                                                         I2CHW_MSTAT_XFER_HALT      |
 243:.\Generated_Source\PSoC5/I2CHW_INT.c ****                                                         I2CHW_MSTAT_WR_CMPLT);
 244:.\Generated_Source\PSoC5/I2CHW_INT.c **** 
 245:.\Generated_Source\PSoC5/I2CHW_INT.c ****                         I2CHW_state = I2CHW_SM_MSTR_HALT;    /* Expect RESTART */
 246:.\Generated_Source\PSoC5/I2CHW_INT.c ****                         I2CHW_DisableInt();
 247:.\Generated_Source\PSoC5/I2CHW_INT.c ****                     }
 248:.\Generated_Source\PSoC5/I2CHW_INT.c ****                     else  /* Do normal STOP */
 249:.\Generated_Source\PSoC5/I2CHW_INT.c ****                     {
 250:.\Generated_Source\PSoC5/I2CHW_INT.c ****                         I2CHW_ENABLE_INT_ON_STOP;    /* Enable interrupt on STOP, to catch it */
 255              		.loc 1 250 0
 256 0152 384A     		ldr	r2, .L31+36
 257 0154 1078     		ldrb	r0, [r2, #0]	@ zero_extendqisi2
 258 0156 40F02000 		orr	r0, r0, #32
 259 015a 1070     		strb	r0, [r2, #0]
ARM GAS  C:\DOCUME~1\ADMINI~1\LOCALS~1\Temp\cch3Lwyk.s 			page 10


 251:.\Generated_Source\PSoC5/I2CHW_INT.c ****                         I2CHW_GENERATE_STOP;
 260              		.loc 1 251 0
 261 015c 183A     		subs	r2, r2, #24
 262 015e 5220     		movs	r0, #82
 263 0160 1070     		strb	r0, [r2, #0]
 264 0162 E632     		adds	r2, r2, #230
 265 0164 1170     		strb	r1, [r2, #0]
 252:.\Generated_Source\PSoC5/I2CHW_INT.c **** 
 253:.\Generated_Source\PSoC5/I2CHW_INT.c ****                         /* Set SHORT and ERR transfer */
 254:.\Generated_Source\PSoC5/I2CHW_INT.c ****                         I2CHW_mstrStatus |= (I2CHW_MSTAT_ERR_SHORT_XFER |
 266              		.loc 1 254 0
 267 0166 1A78     		ldrb	r2, [r3, #0]	@ zero_extendqisi2
 268 0168 42F09002 		orr	r2, r2, #144
 269              	.LVL14:
 270 016c 14E0     		b	.L25
 271              	.LVL15:
 272              	.L6:
 255:.\Generated_Source\PSoC5/I2CHW_INT.c ****                                                         I2CHW_MSTAT_ERR_XFER);
 256:.\Generated_Source\PSoC5/I2CHW_INT.c ****                     }
 257:.\Generated_Source\PSoC5/I2CHW_INT.c ****                     
 258:.\Generated_Source\PSoC5/I2CHW_INT.c ****                     break;
 259:.\Generated_Source\PSoC5/I2CHW_INT.c **** 
 260:.\Generated_Source\PSoC5/I2CHW_INT.c ****                 case I2CHW_SM_MSTR_RD_DATA:
 261:.\Generated_Source\PSoC5/I2CHW_INT.c **** 
 262:.\Generated_Source\PSoC5/I2CHW_INT.c ****                     I2CHW_mstrRdBufPtr[I2CHW_mstrRdBufIndex] = I2CHW_DATA_REG;
 273              		.loc 1 262 0
 274 016e 334B     		ldr	r3, .L31+44
 275 0170 334A     		ldr	r2, .L31+48
 276 0172 2B48     		ldr	r0, .L31+16
 277 0174 1978     		ldrb	r1, [r3, #0]	@ zero_extendqisi2
 278 0176 1268     		ldr	r2, [r2, #0]
 279 0178 0078     		ldrb	r0, [r0, #0]	@ zero_extendqisi2
 280 017a 8854     		strb	r0, [r1, r2]
 263:.\Generated_Source\PSoC5/I2CHW_INT.c ****                     I2CHW_mstrRdBufIndex++;
 281              		.loc 1 263 0
 282 017c 1A78     		ldrb	r2, [r3, #0]	@ zero_extendqisi2
 283 017e 0132     		adds	r2, r2, #1
 284 0180 D2B2     		uxtb	r2, r2
 285              	.LVL16:
 286 0182 1A70     		strb	r2, [r3, #0]
 264:.\Generated_Source\PSoC5/I2CHW_INT.c **** 
 265:.\Generated_Source\PSoC5/I2CHW_INT.c ****                     /* Check if end of buffer */
 266:.\Generated_Source\PSoC5/I2CHW_INT.c ****                     if(I2CHW_mstrRdBufIndex < I2CHW_mstrRdBufSize)
 287              		.loc 1 266 0
 288 0184 1A78     		ldrb	r2, [r3, #0]	@ zero_extendqisi2
 289              	.LVL17:
 290 0186 2F4B     		ldr	r3, .L31+52
 291 0188 1B78     		ldrb	r3, [r3, #0]	@ zero_extendqisi2
 292 018a 9A42     		cmp	r2, r3
 293 018c 06D2     		bcs	.L19
 267:.\Generated_Source\PSoC5/I2CHW_INT.c ****                     {
 268:.\Generated_Source\PSoC5/I2CHW_INT.c ****                         I2CHW_ACK_AND_RECEIVE;       /* ACK and receive byte */
 294              		.loc 1 268 0
 295 018e 284B     		ldr	r3, .L31+32
 296 0190 0222     		movs	r2, #2
 297 0192 1A70     		strb	r2, [r3, #0]
 298 0194 023A     		subs	r2, r2, #2
ARM GAS  C:\DOCUME~1\ADMINI~1\LOCALS~1\Temp\cch3Lwyk.s 			page 11


 299              	.L28:
 300 0196 E633     		adds	r3, r3, #230
 301              	.LVL18:
 302              	.L25:
 303 0198 1A70     		strb	r2, [r3, #0]
 304              	.LVL19:
 305 019a 1AE0     		b	.L3
 306              	.L19:
 269:.\Generated_Source\PSoC5/I2CHW_INT.c ****                     }
 270:.\Generated_Source\PSoC5/I2CHW_INT.c ****                     /* End of buffer: complete reading */
 271:.\Generated_Source\PSoC5/I2CHW_INT.c ****                     else if(I2CHW_CHECK_NO_STOP(I2CHW_mstrControl))
 307              		.loc 1 271 0
 308 019c 224B     		ldr	r3, .L31+24
 309 019e 1B78     		ldrb	r3, [r3, #0]	@ zero_extendqisi2
 310 01a0 13F00201 		ands	r1, r3, #2
 311 01a4 0BD0     		beq	.L20
 272:.\Generated_Source\PSoC5/I2CHW_INT.c ****                     {                        
 273:.\Generated_Source\PSoC5/I2CHW_INT.c ****                         /* Set READ complete and Master HALTED */
 274:.\Generated_Source\PSoC5/I2CHW_INT.c ****                         I2CHW_mstrStatus |= (I2CHW_MSTAT_XFER_HALT |
 312              		.loc 1 274 0
 313 01a6 214B     		ldr	r3, .L31+28
 314 01a8 1A78     		ldrb	r2, [r3, #0]	@ zero_extendqisi2
 315 01aa 42F00902 		orr	r2, r2, #9
 316              	.LVL20:
 317              	.L26:
 318 01ae 1A70     		strb	r2, [r3, #0]
 275:.\Generated_Source\PSoC5/I2CHW_INT.c ****                                                         I2CHW_MSTAT_RD_CMPLT);
 276:.\Generated_Source\PSoC5/I2CHW_INT.c ****                         
 277:.\Generated_Source\PSoC5/I2CHW_INT.c ****                         I2CHW_state = I2CHW_SM_MSTR_HALT;    /* Expect RESTART */
 319              		.loc 1 277 0
 320 01b0 184B     		ldr	r3, .L31+4
 321 01b2 6022     		movs	r2, #96
 322              	.LVL21:
 323              	.L29:
 324 01b4 1A70     		strb	r2, [r3, #0]
 278:.\Generated_Source\PSoC5/I2CHW_INT.c ****                         I2CHW_DisableInt();
 325              		.loc 1 278 0
 326 01b6 5F3A     		subs	r2, r2, #95
 327              	.L27:
 328 01b8 234B     		ldr	r3, .L31+56
 329 01ba 1A60     		str	r2, [r3, #0]
 330 01bc 09E0     		b	.L3
 331              	.LVL22:
 332              	.L20:
 279:.\Generated_Source\PSoC5/I2CHW_INT.c ****                     }
 280:.\Generated_Source\PSoC5/I2CHW_INT.c ****                     else
 281:.\Generated_Source\PSoC5/I2CHW_INT.c ****                     {
 282:.\Generated_Source\PSoC5/I2CHW_INT.c ****                         I2CHW_ENABLE_INT_ON_STOP;
 333              		.loc 1 282 0
 334 01be 1D4B     		ldr	r3, .L31+36
 335 01c0 1A78     		ldrb	r2, [r3, #0]	@ zero_extendqisi2
 336 01c2 42F02002 		orr	r2, r2, #32
 337 01c6 1A70     		strb	r2, [r3, #0]
 283:.\Generated_Source\PSoC5/I2CHW_INT.c ****                         I2CHW_NAK_AND_RECEIVE;       /* NACK and TRY to generate STOP */
 338              		.loc 1 283 0
 339 01c8 1222     		movs	r2, #18
 340 01ca 183B     		subs	r3, r3, #24
ARM GAS  C:\DOCUME~1\ADMINI~1\LOCALS~1\Temp\cch3Lwyk.s 			page 12


 341 01cc 1A70     		strb	r2, [r3, #0]
 342 01ce 1A4A     		ldr	r2, .L31+40
 343 01d0 1170     		strb	r1, [r2, #0]
 344              	.LVL23:
 345              	.L3:
 284:.\Generated_Source\PSoC5/I2CHW_INT.c ****                     }
 285:.\Generated_Source\PSoC5/I2CHW_INT.c ****                     break;
 286:.\Generated_Source\PSoC5/I2CHW_INT.c **** 
 287:.\Generated_Source\PSoC5/I2CHW_INT.c ****                 default: /* This is an invalid state and should not occur */
 288:.\Generated_Source\PSoC5/I2CHW_INT.c **** 
 289:.\Generated_Source\PSoC5/I2CHW_INT.c ****                     #if(I2CHW_TIMEOUT_ENABLED)
 290:.\Generated_Source\PSoC5/I2CHW_INT.c ****                         /* Exit from interrupt to take a chance for timeout timer handle this case 
 291:.\Generated_Source\PSoC5/I2CHW_INT.c ****                         I2CHW_DisableInt();
 292:.\Generated_Source\PSoC5/I2CHW_INT.c ****                         I2CHW_ClearPendingInt();
 293:.\Generated_Source\PSoC5/I2CHW_INT.c ****                     #else
 294:.\Generated_Source\PSoC5/I2CHW_INT.c ****                         /* Block execution flow: unexpected condition */
 295:.\Generated_Source\PSoC5/I2CHW_INT.c ****                         CYASSERT(0u != 0u);
 296:.\Generated_Source\PSoC5/I2CHW_INT.c ****                     #endif /* (I2CHW_TIMEOUT_ENABLED) */
 297:.\Generated_Source\PSoC5/I2CHW_INT.c **** 
 298:.\Generated_Source\PSoC5/I2CHW_INT.c ****                     break;
 299:.\Generated_Source\PSoC5/I2CHW_INT.c ****                 }
 300:.\Generated_Source\PSoC5/I2CHW_INT.c ****             }
 301:.\Generated_Source\PSoC5/I2CHW_INT.c **** 
 302:.\Generated_Source\PSoC5/I2CHW_INT.c ****             /* Catches the Stop: end of transaction */
 303:.\Generated_Source\PSoC5/I2CHW_INT.c ****             if(I2CHW_CHECK_STOP_STS(tmpCsr))
 346              		.loc 1 303 0
 347 01d2 14F0200F 		tst	r4, #32
 348 01d6 19D0     		beq	.L24
 304:.\Generated_Source\PSoC5/I2CHW_INT.c ****             {
 305:.\Generated_Source\PSoC5/I2CHW_INT.c ****                 I2CHW_mstrStatus |= I2CHW_GET_MSTAT_CMPLT;
 349              		.loc 1 305 0
 350 01d8 144A     		ldr	r2, .L31+28
 351 01da 0E4B     		ldr	r3, .L31+4
 352 01dc 1078     		ldrb	r0, [r2, #0]	@ zero_extendqisi2
 353              	.LVL24:
 354 01de 1978     		ldrb	r1, [r3, #0]	@ zero_extendqisi2
 355 01e0 01F00801 		and	r1, r1, #8
 356 01e4 0029     		cmp	r1, #0
 357 01e6 14BF     		ite	ne
 358 01e8 0121     		movne	r1, #1
 359 01ea 0221     		moveq	r1, #2
 360 01ec 0143     		orrs	r1, r1, r0
 361              	.LVL25:
 362 01ee 1170     		strb	r1, [r2, #0]
 306:.\Generated_Source\PSoC5/I2CHW_INT.c **** 
 307:.\Generated_Source\PSoC5/I2CHW_INT.c ****                 I2CHW_DISABLE_INT_ON_STOP;
 363              		.loc 1 307 0
 364 01f0 104A     		ldr	r2, .L31+36
 365 01f2 1178     		ldrb	r1, [r2, #0]	@ zero_extendqisi2
 366              	.LVL26:
 367 01f4 01F0DF01 		and	r1, r1, #223
 368 01f8 1170     		strb	r1, [r2, #0]
 308:.\Generated_Source\PSoC5/I2CHW_INT.c ****                 I2CHW_state = I2CHW_SM_IDLE;
 369              		.loc 1 308 0
 370 01fa 1022     		movs	r2, #16
 371 01fc 1A70     		strb	r2, [r3, #0]
 372 01fe 38BD     		pop	{r3, r4, r5, pc}
ARM GAS  C:\DOCUME~1\ADMINI~1\LOCALS~1\Temp\cch3Lwyk.s 			page 13


 373              	.LVL27:
 374              	.L2:
 309:.\Generated_Source\PSoC5/I2CHW_INT.c ****             }
 310:.\Generated_Source\PSoC5/I2CHW_INT.c ****         #endif /* (I2CHW_MODE_MASTER_ENABLED) */
 311:.\Generated_Source\PSoC5/I2CHW_INT.c ****     }
 312:.\Generated_Source\PSoC5/I2CHW_INT.c ****     else if(I2CHW_CHECK_SM_SLAVE)
 375              		.loc 1 312 0
 376 0200 1A78     		ldrb	r2, [r3, #0]	@ zero_extendqisi2
 377 0202 12F0100F 		tst	r2, #16
 378 0206 01D1     		bne	.L24
 313:.\Generated_Source\PSoC5/I2CHW_INT.c ****     {
 314:.\Generated_Source\PSoC5/I2CHW_INT.c ****         #if(I2CHW_MODE_SLAVE_ENABLED)
 315:.\Generated_Source\PSoC5/I2CHW_INT.c ****             
 316:.\Generated_Source\PSoC5/I2CHW_INT.c ****             if((I2CHW_CHECK_STOP_STS(tmpCsr)) || /* Stop || Restart */
 317:.\Generated_Source\PSoC5/I2CHW_INT.c ****                (I2CHW_CHECK_BYTE_COMPLETE(tmpCsr) && I2CHW_CHECK_ADDRESS_STS(tmpCsr)))
 318:.\Generated_Source\PSoC5/I2CHW_INT.c ****             {
 319:.\Generated_Source\PSoC5/I2CHW_INT.c ****                 /* Catch end of master write transcation: use interrupt on Stop */
 320:.\Generated_Source\PSoC5/I2CHW_INT.c ****                 /* The STOP bit history on address phase does not have correct state */
 321:.\Generated_Source\PSoC5/I2CHW_INT.c ****                 if(I2CHW_SM_SL_WR_DATA == I2CHW_state)
 322:.\Generated_Source\PSoC5/I2CHW_INT.c ****                 {
 323:.\Generated_Source\PSoC5/I2CHW_INT.c ****                     I2CHW_DISABLE_INT_ON_STOP;
 324:.\Generated_Source\PSoC5/I2CHW_INT.c **** 
 325:.\Generated_Source\PSoC5/I2CHW_INT.c ****                     I2CHW_slStatus &= ((uint8) ~I2CHW_SSTAT_WR_BUSY);
 326:.\Generated_Source\PSoC5/I2CHW_INT.c ****                     I2CHW_slStatus |= ((uint8)  I2CHW_SSTAT_WR_CMPLT);
 327:.\Generated_Source\PSoC5/I2CHW_INT.c **** 
 328:.\Generated_Source\PSoC5/I2CHW_INT.c ****                     I2CHW_state = I2CHW_SM_IDLE;
 329:.\Generated_Source\PSoC5/I2CHW_INT.c ****                 }
 330:.\Generated_Source\PSoC5/I2CHW_INT.c ****             }
 331:.\Generated_Source\PSoC5/I2CHW_INT.c **** 
 332:.\Generated_Source\PSoC5/I2CHW_INT.c ****             if(I2CHW_CHECK_BYTE_COMPLETE(tmpCsr))
 333:.\Generated_Source\PSoC5/I2CHW_INT.c ****             {
 334:.\Generated_Source\PSoC5/I2CHW_INT.c ****                 /* The address only issued after Start or ReStart: so check address
 335:.\Generated_Source\PSoC5/I2CHW_INT.c ****                    to catch this events:
 336:.\Generated_Source\PSoC5/I2CHW_INT.c ****                     FF : sets Addr phase with byte_complete interrupt trigger.
 337:.\Generated_Source\PSoC5/I2CHW_INT.c ****                     UDB: sets Addr phase immediately after Start or ReStart. */
 338:.\Generated_Source\PSoC5/I2CHW_INT.c ****                 if(I2CHW_CHECK_ADDRESS_STS(tmpCsr))
 339:.\Generated_Source\PSoC5/I2CHW_INT.c ****                 {
 340:.\Generated_Source\PSoC5/I2CHW_INT.c ****                     /* Check for software address detection */
 341:.\Generated_Source\PSoC5/I2CHW_INT.c ****                     #if(I2CHW_SW_ADRR_DECODE)
 342:.\Generated_Source\PSoC5/I2CHW_INT.c ****                         tmp8 = I2CHW_GET_SLAVE_ADDR(I2CHW_DATA_REG);
 343:.\Generated_Source\PSoC5/I2CHW_INT.c **** 
 344:.\Generated_Source\PSoC5/I2CHW_INT.c ****                         if(tmp8 == I2CHW_slAddress)   /* Check for address match */
 345:.\Generated_Source\PSoC5/I2CHW_INT.c ****                         {
 346:.\Generated_Source\PSoC5/I2CHW_INT.c ****                             if(0u != (I2CHW_DATA_REG & I2CHW_READ_FLAG))
 347:.\Generated_Source\PSoC5/I2CHW_INT.c ****                             {
 348:.\Generated_Source\PSoC5/I2CHW_INT.c ****                                 /* Place code to prepare read buffer here                  */
 349:.\Generated_Source\PSoC5/I2CHW_INT.c ****                                 /* `#START I2CHW_SW_PREPARE_READ_BUF_interrupt` */
 350:.\Generated_Source\PSoC5/I2CHW_INT.c **** 
 351:.\Generated_Source\PSoC5/I2CHW_INT.c ****                                 /* `#END` */
 352:.\Generated_Source\PSoC5/I2CHW_INT.c **** 
 353:.\Generated_Source\PSoC5/I2CHW_INT.c ****                                 /* Prepare next opeation to read, get data and place in data regist
 354:.\Generated_Source\PSoC5/I2CHW_INT.c ****                                 if(I2CHW_slRdBufIndex < I2CHW_slRdBufSize)
 355:.\Generated_Source\PSoC5/I2CHW_INT.c ****                                 {
 356:.\Generated_Source\PSoC5/I2CHW_INT.c ****                                     /* Load first data byte from array */
 357:.\Generated_Source\PSoC5/I2CHW_INT.c ****                                     I2CHW_DATA_REG = I2CHW_slRdBufPtr[I2CHW_slRdBufIndex];
 358:.\Generated_Source\PSoC5/I2CHW_INT.c ****                                     I2CHW_ACK_AND_TRANSMIT;
 359:.\Generated_Source\PSoC5/I2CHW_INT.c ****                                     I2CHW_slRdBufIndex++;
ARM GAS  C:\DOCUME~1\ADMINI~1\LOCALS~1\Temp\cch3Lwyk.s 			page 14


 360:.\Generated_Source\PSoC5/I2CHW_INT.c **** 
 361:.\Generated_Source\PSoC5/I2CHW_INT.c ****                                     I2CHW_slStatus |= I2CHW_SSTAT_RD_BUSY;
 362:.\Generated_Source\PSoC5/I2CHW_INT.c ****                                 }
 363:.\Generated_Source\PSoC5/I2CHW_INT.c ****                                 else    /* Overflow: provide 0xFF on the bus */
 364:.\Generated_Source\PSoC5/I2CHW_INT.c ****                                 {
 365:.\Generated_Source\PSoC5/I2CHW_INT.c ****                                     I2CHW_DATA_REG = I2CHW_OVERFLOW_RETURN;
 366:.\Generated_Source\PSoC5/I2CHW_INT.c ****                                     I2CHW_ACK_AND_TRANSMIT;
 367:.\Generated_Source\PSoC5/I2CHW_INT.c **** 
 368:.\Generated_Source\PSoC5/I2CHW_INT.c ****                                     I2CHW_slStatus  |= (I2CHW_SSTAT_RD_BUSY |
 369:.\Generated_Source\PSoC5/I2CHW_INT.c ****                                                                    I2CHW_SSTAT_RD_ERR_OVFL);
 370:.\Generated_Source\PSoC5/I2CHW_INT.c ****                                 }
 371:.\Generated_Source\PSoC5/I2CHW_INT.c **** 
 372:.\Generated_Source\PSoC5/I2CHW_INT.c ****                                 I2CHW_state = I2CHW_SM_SL_RD_DATA;
 373:.\Generated_Source\PSoC5/I2CHW_INT.c ****                             }
 374:.\Generated_Source\PSoC5/I2CHW_INT.c ****                             else  /* Write transaction: receive 1st byte */
 375:.\Generated_Source\PSoC5/I2CHW_INT.c ****                             {
 376:.\Generated_Source\PSoC5/I2CHW_INT.c ****                                 I2CHW_ACK_AND_RECEIVE;
 377:.\Generated_Source\PSoC5/I2CHW_INT.c ****                                 I2CHW_state = I2CHW_SM_SL_WR_DATA;
 378:.\Generated_Source\PSoC5/I2CHW_INT.c **** 
 379:.\Generated_Source\PSoC5/I2CHW_INT.c ****                                 I2CHW_slStatus |= I2CHW_SSTAT_WR_BUSY;
 380:.\Generated_Source\PSoC5/I2CHW_INT.c ****                                 I2CHW_ENABLE_INT_ON_STOP;
 381:.\Generated_Source\PSoC5/I2CHW_INT.c ****                             }
 382:.\Generated_Source\PSoC5/I2CHW_INT.c ****                         }    
 383:.\Generated_Source\PSoC5/I2CHW_INT.c ****                         else
 384:.\Generated_Source\PSoC5/I2CHW_INT.c ****                         {
 385:.\Generated_Source\PSoC5/I2CHW_INT.c ****                             /*     Place code to compare for additional address here    */
 386:.\Generated_Source\PSoC5/I2CHW_INT.c ****                             /* `#START I2CHW_SW_ADDR_COMPARE_interruptStart` */
 387:.\Generated_Source\PSoC5/I2CHW_INT.c **** 
 388:.\Generated_Source\PSoC5/I2CHW_INT.c ****                             /* `#END` */
 389:.\Generated_Source\PSoC5/I2CHW_INT.c ****                             
 390:.\Generated_Source\PSoC5/I2CHW_INT.c ****                             I2CHW_NAK_AND_RECEIVE;   /* NACK address */
 391:.\Generated_Source\PSoC5/I2CHW_INT.c **** 
 392:.\Generated_Source\PSoC5/I2CHW_INT.c ****                             /* Place code to end of condition for NACK generation here */
 393:.\Generated_Source\PSoC5/I2CHW_INT.c ****                             /* `#START I2CHW_SW_ADDR_COMPARE_interruptEnd`  */
 394:.\Generated_Source\PSoC5/I2CHW_INT.c **** 
 395:.\Generated_Source\PSoC5/I2CHW_INT.c ****                             /* `#END` */
 396:.\Generated_Source\PSoC5/I2CHW_INT.c ****                         }
 397:.\Generated_Source\PSoC5/I2CHW_INT.c ****                         
 398:.\Generated_Source\PSoC5/I2CHW_INT.c ****                     #else /* (I2CHW_HW_ADRR_DECODE) */
 399:.\Generated_Source\PSoC5/I2CHW_INT.c ****                         
 400:.\Generated_Source\PSoC5/I2CHW_INT.c ****                         if(0u != (I2CHW_DATA_REG & I2CHW_READ_FLAG))
 401:.\Generated_Source\PSoC5/I2CHW_INT.c ****                         {
 402:.\Generated_Source\PSoC5/I2CHW_INT.c ****                             /* Place code to prepare read buffer here                  */
 403:.\Generated_Source\PSoC5/I2CHW_INT.c ****                             /* `#START I2CHW_HW_PREPARE_READ_BUF_interrupt` */
 404:.\Generated_Source\PSoC5/I2CHW_INT.c **** 
 405:.\Generated_Source\PSoC5/I2CHW_INT.c ****                             /* `#END` */
 406:.\Generated_Source\PSoC5/I2CHW_INT.c **** 
 407:.\Generated_Source\PSoC5/I2CHW_INT.c ****                             /* Prepare next opeation to read, get data and place in data register *
 408:.\Generated_Source\PSoC5/I2CHW_INT.c ****                             if(I2CHW_slRdBufIndex < I2CHW_slRdBufSize)
 409:.\Generated_Source\PSoC5/I2CHW_INT.c ****                             {
 410:.\Generated_Source\PSoC5/I2CHW_INT.c ****                                 /* Load first data byte from array */
 411:.\Generated_Source\PSoC5/I2CHW_INT.c ****                                 I2CHW_DATA_REG = I2CHW_slRdBufPtr[I2CHW_slRdBufIndex];
 412:.\Generated_Source\PSoC5/I2CHW_INT.c ****                                 I2CHW_ACK_AND_TRANSMIT;
 413:.\Generated_Source\PSoC5/I2CHW_INT.c ****                                 I2CHW_slRdBufIndex++;
 414:.\Generated_Source\PSoC5/I2CHW_INT.c **** 
 415:.\Generated_Source\PSoC5/I2CHW_INT.c ****                                 I2CHW_slStatus |= I2CHW_SSTAT_RD_BUSY;
 416:.\Generated_Source\PSoC5/I2CHW_INT.c ****                             }
ARM GAS  C:\DOCUME~1\ADMINI~1\LOCALS~1\Temp\cch3Lwyk.s 			page 15


 417:.\Generated_Source\PSoC5/I2CHW_INT.c ****                             else    /* Overflow: provide 0xFF on the bus */
 418:.\Generated_Source\PSoC5/I2CHW_INT.c ****                             {
 419:.\Generated_Source\PSoC5/I2CHW_INT.c ****                                 I2CHW_DATA_REG = I2CHW_OVERFLOW_RETURN;
 420:.\Generated_Source\PSoC5/I2CHW_INT.c ****                                 I2CHW_ACK_AND_TRANSMIT;
 421:.\Generated_Source\PSoC5/I2CHW_INT.c **** 
 422:.\Generated_Source\PSoC5/I2CHW_INT.c ****                                 I2CHW_slStatus  |= (I2CHW_SSTAT_RD_BUSY |
 423:.\Generated_Source\PSoC5/I2CHW_INT.c ****                                                                I2CHW_SSTAT_RD_ERR_OVFL);
 424:.\Generated_Source\PSoC5/I2CHW_INT.c ****                             }
 425:.\Generated_Source\PSoC5/I2CHW_INT.c **** 
 426:.\Generated_Source\PSoC5/I2CHW_INT.c ****                             I2CHW_state = I2CHW_SM_SL_RD_DATA;
 427:.\Generated_Source\PSoC5/I2CHW_INT.c ****                         }
 428:.\Generated_Source\PSoC5/I2CHW_INT.c ****                         else  /* Write transaction: receive 1st byte */
 429:.\Generated_Source\PSoC5/I2CHW_INT.c ****                         {
 430:.\Generated_Source\PSoC5/I2CHW_INT.c ****                             I2CHW_ACK_AND_RECEIVE;
 431:.\Generated_Source\PSoC5/I2CHW_INT.c ****                             I2CHW_state = I2CHW_SM_SL_WR_DATA;
 432:.\Generated_Source\PSoC5/I2CHW_INT.c **** 
 433:.\Generated_Source\PSoC5/I2CHW_INT.c ****                             I2CHW_slStatus |= I2CHW_SSTAT_WR_BUSY;
 434:.\Generated_Source\PSoC5/I2CHW_INT.c ****                             I2CHW_ENABLE_INT_ON_STOP;
 435:.\Generated_Source\PSoC5/I2CHW_INT.c ****                         }
 436:.\Generated_Source\PSoC5/I2CHW_INT.c ****                         
 437:.\Generated_Source\PSoC5/I2CHW_INT.c ****                     #endif /* (I2CHW_SW_ADRR_DECODE) */
 438:.\Generated_Source\PSoC5/I2CHW_INT.c ****                 }
 439:.\Generated_Source\PSoC5/I2CHW_INT.c ****                 /* Data states */
 440:.\Generated_Source\PSoC5/I2CHW_INT.c ****                 /* Data master writes into slave */
 441:.\Generated_Source\PSoC5/I2CHW_INT.c ****                 else if(I2CHW_state == I2CHW_SM_SL_WR_DATA)
 442:.\Generated_Source\PSoC5/I2CHW_INT.c ****                 {
 443:.\Generated_Source\PSoC5/I2CHW_INT.c ****                     if(I2CHW_slWrBufIndex < I2CHW_slWrBufSize)
 444:.\Generated_Source\PSoC5/I2CHW_INT.c ****                     {
 445:.\Generated_Source\PSoC5/I2CHW_INT.c ****                         tmp8 = I2CHW_DATA_REG;
 446:.\Generated_Source\PSoC5/I2CHW_INT.c ****                         I2CHW_ACK_AND_RECEIVE;
 447:.\Generated_Source\PSoC5/I2CHW_INT.c ****                         I2CHW_slWrBufPtr[I2CHW_slWrBufIndex] = tmp8;
 448:.\Generated_Source\PSoC5/I2CHW_INT.c ****                         I2CHW_slWrBufIndex++;
 449:.\Generated_Source\PSoC5/I2CHW_INT.c ****                     }
 450:.\Generated_Source\PSoC5/I2CHW_INT.c ****                     else  /* of array: complete write, send NACK */
 451:.\Generated_Source\PSoC5/I2CHW_INT.c ****                     {
 452:.\Generated_Source\PSoC5/I2CHW_INT.c ****                         I2CHW_NAK_AND_RECEIVE;
 453:.\Generated_Source\PSoC5/I2CHW_INT.c **** 
 454:.\Generated_Source\PSoC5/I2CHW_INT.c ****                         I2CHW_slStatus |= I2CHW_SSTAT_WR_ERR_OVFL;
 455:.\Generated_Source\PSoC5/I2CHW_INT.c ****                     }
 456:.\Generated_Source\PSoC5/I2CHW_INT.c ****                 }
 457:.\Generated_Source\PSoC5/I2CHW_INT.c ****                 /* Data master reads from slave */
 458:.\Generated_Source\PSoC5/I2CHW_INT.c ****                 else if(I2CHW_state == I2CHW_SM_SL_RD_DATA)
 459:.\Generated_Source\PSoC5/I2CHW_INT.c ****                 {
 460:.\Generated_Source\PSoC5/I2CHW_INT.c ****                     if(I2CHW_CHECK_DATA_ACK(tmpCsr))
 461:.\Generated_Source\PSoC5/I2CHW_INT.c ****                     {
 462:.\Generated_Source\PSoC5/I2CHW_INT.c ****                         if(I2CHW_slRdBufIndex < I2CHW_slRdBufSize)
 463:.\Generated_Source\PSoC5/I2CHW_INT.c ****                         {
 464:.\Generated_Source\PSoC5/I2CHW_INT.c ****                              /* Get data from array */
 465:.\Generated_Source\PSoC5/I2CHW_INT.c ****                             I2CHW_DATA_REG = I2CHW_slRdBufPtr[I2CHW_slRdBufIndex];
 466:.\Generated_Source\PSoC5/I2CHW_INT.c ****                             I2CHW_TRANSMIT_DATA;
 467:.\Generated_Source\PSoC5/I2CHW_INT.c ****                             I2CHW_slRdBufIndex++;
 468:.\Generated_Source\PSoC5/I2CHW_INT.c ****                         }
 469:.\Generated_Source\PSoC5/I2CHW_INT.c ****                         else   /* Overflow: provide 0xFF on the bus */
 470:.\Generated_Source\PSoC5/I2CHW_INT.c ****                         {
 471:.\Generated_Source\PSoC5/I2CHW_INT.c ****                             I2CHW_DATA_REG = I2CHW_OVERFLOW_RETURN;
 472:.\Generated_Source\PSoC5/I2CHW_INT.c ****                             I2CHW_TRANSMIT_DATA;
 473:.\Generated_Source\PSoC5/I2CHW_INT.c **** 
ARM GAS  C:\DOCUME~1\ADMINI~1\LOCALS~1\Temp\cch3Lwyk.s 			page 16


 474:.\Generated_Source\PSoC5/I2CHW_INT.c ****                             I2CHW_slStatus |= I2CHW_SSTAT_RD_ERR_OVFL;
 475:.\Generated_Source\PSoC5/I2CHW_INT.c ****                         }
 476:.\Generated_Source\PSoC5/I2CHW_INT.c ****                     }
 477:.\Generated_Source\PSoC5/I2CHW_INT.c ****                     else  /* Last byte was NACKed: read complete */
 478:.\Generated_Source\PSoC5/I2CHW_INT.c ****                     {
 479:.\Generated_Source\PSoC5/I2CHW_INT.c ****                         /* Only NACK appears on the bus */
 480:.\Generated_Source\PSoC5/I2CHW_INT.c ****                         I2CHW_DATA_REG = I2CHW_OVERFLOW_RETURN;
 481:.\Generated_Source\PSoC5/I2CHW_INT.c ****                         I2CHW_NAK_AND_TRANSMIT;
 482:.\Generated_Source\PSoC5/I2CHW_INT.c **** 
 483:.\Generated_Source\PSoC5/I2CHW_INT.c ****                         I2CHW_slStatus &= ((uint8) ~I2CHW_SSTAT_RD_BUSY);
 484:.\Generated_Source\PSoC5/I2CHW_INT.c ****                         I2CHW_slStatus |= ((uint8)  I2CHW_SSTAT_RD_CMPLT);
 485:.\Generated_Source\PSoC5/I2CHW_INT.c **** 
 486:.\Generated_Source\PSoC5/I2CHW_INT.c ****                         I2CHW_state = I2CHW_SM_IDLE;
 487:.\Generated_Source\PSoC5/I2CHW_INT.c ****                     }
 488:.\Generated_Source\PSoC5/I2CHW_INT.c ****                 }
 489:.\Generated_Source\PSoC5/I2CHW_INT.c ****                 else
 490:.\Generated_Source\PSoC5/I2CHW_INT.c ****                 {
 491:.\Generated_Source\PSoC5/I2CHW_INT.c ****                     #if(I2CHW_TIMEOUT_ENABLED)
 492:.\Generated_Source\PSoC5/I2CHW_INT.c ****                         /* Exit from interrupt to take a chance for timeout timer handle this case 
 493:.\Generated_Source\PSoC5/I2CHW_INT.c ****                         I2CHW_DisableInt();
 494:.\Generated_Source\PSoC5/I2CHW_INT.c ****                         I2CHW_ClearPendingInt();
 495:.\Generated_Source\PSoC5/I2CHW_INT.c ****                     #else
 496:.\Generated_Source\PSoC5/I2CHW_INT.c ****                         /* Block execution flow: unexpected condition */
 497:.\Generated_Source\PSoC5/I2CHW_INT.c ****                         CYASSERT(0u != 0u);
 498:.\Generated_Source\PSoC5/I2CHW_INT.c ****                     #endif /* (I2CHW_TIMEOUT_ENABLED) */
 499:.\Generated_Source\PSoC5/I2CHW_INT.c ****                 }
 500:.\Generated_Source\PSoC5/I2CHW_INT.c ****             }
 501:.\Generated_Source\PSoC5/I2CHW_INT.c ****         #endif /* (I2CHW_MODE_SLAVE_ENABLED) */
 502:.\Generated_Source\PSoC5/I2CHW_INT.c ****     }
 503:.\Generated_Source\PSoC5/I2CHW_INT.c ****     else
 504:.\Generated_Source\PSoC5/I2CHW_INT.c ****     {
 505:.\Generated_Source\PSoC5/I2CHW_INT.c ****         /* The FSM skips master and slave processing: return to IDLE */
 506:.\Generated_Source\PSoC5/I2CHW_INT.c ****         I2CHW_state = I2CHW_SM_IDLE;
 379              		.loc 1 506 0
 380 0208 1022     		movs	r2, #16
 381 020a 1A70     		strb	r2, [r3, #0]
 382              	.LVL28:
 383              	.L24:
 384 020c 38BD     		pop	{r3, r4, r5, pc}
 385              	.L32:
 386 020e 00BF     		.align	2
 387              	.L31:
 388 0210 68640040 		.word	1073767528
 389 0214 00000000 		.word	I2CHW_state
 390 0218 00000000 		.word	I2CHW_mstrWrBufSize
 391 021c 00000000 		.word	I2CHW_mstrWrBufPtr
 392 0220 06650040 		.word	1073767686
 393 0224 00000000 		.word	I2CHW_mstrWrBufIndex
 394 0228 00000000 		.word	I2CHW_mstrControl
 395 022c 00000000 		.word	I2CHW_mstrStatus
 396 0230 70640040 		.word	1073767536
 397 0234 88640040 		.word	1073767560
 398 0238 56650040 		.word	1073767766
 399 023c 00000000 		.word	I2CHW_mstrRdBufIndex
 400 0240 00000000 		.word	I2CHW_mstrRdBufPtr
 401 0244 00000000 		.word	I2CHW_mstrRdBufSize
 402 0248 80E100E0 		.word	-536813184
ARM GAS  C:\DOCUME~1\ADMINI~1\LOCALS~1\Temp\cch3Lwyk.s 			page 17


 403              		.cfi_endproc
 404              	.LFE0:
 405              		.size	I2CHW_ISR, .-I2CHW_ISR
 406              		.text
 407              	.Letext0: