ARM GAS  C:\DOCUME~1\ADMINI~1\LOCALS~1\Temp\ccNBrMLw.s 			page 1


   1              		.syntax unified
   2              		.cpu cortex-m3
   3              		.fpu softvfp
   4              		.eabi_attribute 20, 1
   5              		.eabi_attribute 21, 1
   6              		.eabi_attribute 23, 3
   7              		.eabi_attribute 24, 1
   8              		.eabi_attribute 25, 1
   9              		.eabi_attribute 26, 1
  10              		.eabi_attribute 30, 4
  11              		.eabi_attribute 18, 4
  12              		.thumb
  13              		.file	"I2CHW.c"
  20 0000 D3000000 		.text
  20      02005E00 
  20      00000201 
  20      FB0E0D00 
  20      01010101 
  21              	.Ltext0:
  22              		.cfi_sections	.debug_frame
  23              		.section	.text.I2CHW_Enable,"ax",%progbits
  24              		.align	1
  25              		.global	I2CHW_Enable
  26              		.thumb
  27              		.thumb_func
  28              		.type	I2CHW_Enable, %function
  29              	I2CHW_Enable:
  30              	.LFB1:
  31              		.file 1 ".\\Generated_Source\\PSoC5\\I2CHW.c"
   1:.\Generated_Source\PSoC5/I2CHW.c **** /*******************************************************************************
   2:.\Generated_Source\PSoC5/I2CHW.c **** * File Name: I2CHW.c
   3:.\Generated_Source\PSoC5/I2CHW.c **** * Version 3.30
   4:.\Generated_Source\PSoC5/I2CHW.c **** *
   5:.\Generated_Source\PSoC5/I2CHW.c **** * Description:
   6:.\Generated_Source\PSoC5/I2CHW.c **** *  This file provides the source code of APIs for the I2C component.
   7:.\Generated_Source\PSoC5/I2CHW.c **** *  Actual protocol and operation code resides in the interrupt service routine
   8:.\Generated_Source\PSoC5/I2CHW.c **** *  file.
   9:.\Generated_Source\PSoC5/I2CHW.c **** *
  10:.\Generated_Source\PSoC5/I2CHW.c **** * Note:
  11:.\Generated_Source\PSoC5/I2CHW.c **** *
  12:.\Generated_Source\PSoC5/I2CHW.c **** *******************************************************************************
  13:.\Generated_Source\PSoC5/I2CHW.c **** * Copyright 2008-2012, Cypress Semiconductor Corporation. All rights reserved.
  14:.\Generated_Source\PSoC5/I2CHW.c **** * You may use this file only in accordance with the license, terms, conditions,
  15:.\Generated_Source\PSoC5/I2CHW.c **** * disclaimers, and limitations in the end user license agreement accompanying
  16:.\Generated_Source\PSoC5/I2CHW.c **** * the software package with which this file was provided.
  17:.\Generated_Source\PSoC5/I2CHW.c **** *******************************************************************************/
  18:.\Generated_Source\PSoC5/I2CHW.c **** 
  19:.\Generated_Source\PSoC5/I2CHW.c **** #include "I2CHW_PVT.h"
  20:.\Generated_Source\PSoC5/I2CHW.c **** 
  21:.\Generated_Source\PSoC5/I2CHW.c **** 
  22:.\Generated_Source\PSoC5/I2CHW.c **** /**********************************
ARM GAS  C:\DOCUME~1\ADMINI~1\LOCALS~1\Temp\ccNBrMLw.s 			page 2


  23:.\Generated_Source\PSoC5/I2CHW.c **** *      System variables
  24:.\Generated_Source\PSoC5/I2CHW.c **** **********************************/
  25:.\Generated_Source\PSoC5/I2CHW.c **** 
  26:.\Generated_Source\PSoC5/I2CHW.c **** uint8 I2CHW_initVar = 0u;    /* Defines if component was initialized */
  27:.\Generated_Source\PSoC5/I2CHW.c **** 
  28:.\Generated_Source\PSoC5/I2CHW.c **** volatile uint8 I2CHW_state;  /* Current state of I2C FSM */
  29:.\Generated_Source\PSoC5/I2CHW.c **** 
  30:.\Generated_Source\PSoC5/I2CHW.c **** 
  31:.\Generated_Source\PSoC5/I2CHW.c **** /*******************************************************************************
  32:.\Generated_Source\PSoC5/I2CHW.c **** * Function Name: I2CHW_Init
  33:.\Generated_Source\PSoC5/I2CHW.c **** ********************************************************************************
  34:.\Generated_Source\PSoC5/I2CHW.c **** *
  35:.\Generated_Source\PSoC5/I2CHW.c **** * Summary:
  36:.\Generated_Source\PSoC5/I2CHW.c **** *  Initializes I2C registers with initial values provided from customizer.
  37:.\Generated_Source\PSoC5/I2CHW.c **** *
  38:.\Generated_Source\PSoC5/I2CHW.c **** * Parameters:
  39:.\Generated_Source\PSoC5/I2CHW.c **** *  None
  40:.\Generated_Source\PSoC5/I2CHW.c **** *
  41:.\Generated_Source\PSoC5/I2CHW.c **** * Return:
  42:.\Generated_Source\PSoC5/I2CHW.c **** *  None
  43:.\Generated_Source\PSoC5/I2CHW.c **** *
  44:.\Generated_Source\PSoC5/I2CHW.c **** * Global variables:
  45:.\Generated_Source\PSoC5/I2CHW.c **** *  None
  46:.\Generated_Source\PSoC5/I2CHW.c **** *
  47:.\Generated_Source\PSoC5/I2CHW.c **** * Reentrant:
  48:.\Generated_Source\PSoC5/I2CHW.c **** *  No
  49:.\Generated_Source\PSoC5/I2CHW.c **** *
  50:.\Generated_Source\PSoC5/I2CHW.c **** *******************************************************************************/
  51:.\Generated_Source\PSoC5/I2CHW.c **** void I2CHW_Init(void) 
  52:.\Generated_Source\PSoC5/I2CHW.c **** {
  53:.\Generated_Source\PSoC5/I2CHW.c ****     #if(I2CHW_FF_IMPLEMENTED)
  54:.\Generated_Source\PSoC5/I2CHW.c ****         I2CHW_CFG_REG  = I2CHW_DEFAULT_CFG;
  55:.\Generated_Source\PSoC5/I2CHW.c ****         I2CHW_XCFG_REG = I2CHW_DEFAULT_XCFG;
  56:.\Generated_Source\PSoC5/I2CHW.c **** 
  57:.\Generated_Source\PSoC5/I2CHW.c ****         #if(CY_PSOC5A)
  58:.\Generated_Source\PSoC5/I2CHW.c ****             I2CHW_CLKDIV_REG  = LO8(I2CHW_DEFAULT_DIVIDE_FACTOR);
  59:.\Generated_Source\PSoC5/I2CHW.c ****         #else
  60:.\Generated_Source\PSoC5/I2CHW.c ****             I2CHW_CLKDIV1_REG = LO8(I2CHW_DEFAULT_DIVIDE_FACTOR);
  61:.\Generated_Source\PSoC5/I2CHW.c ****             I2CHW_CLKDIV2_REG = HI8(I2CHW_DEFAULT_DIVIDE_FACTOR);
  62:.\Generated_Source\PSoC5/I2CHW.c ****         #endif /* (CY_PSOC5A) */
  63:.\Generated_Source\PSoC5/I2CHW.c **** 
  64:.\Generated_Source\PSoC5/I2CHW.c ****     #else
  65:.\Generated_Source\PSoC5/I2CHW.c ****         uint8 enableInterrupts;
  66:.\Generated_Source\PSoC5/I2CHW.c **** 
  67:.\Generated_Source\PSoC5/I2CHW.c ****         I2CHW_CFG_REG      = I2CHW_DEFAULT_CFG;      /* control  */
  68:.\Generated_Source\PSoC5/I2CHW.c ****         I2CHW_INT_MASK_REG = I2CHW_DEFAULT_INT_MASK; /* int_mask */
  69:.\Generated_Source\PSoC5/I2CHW.c **** 
  70:.\Generated_Source\PSoC5/I2CHW.c ****         /* Enable interrupts from block */
  71:.\Generated_Source\PSoC5/I2CHW.c ****         enableInterrupts = CyEnterCriticalSection();
  72:.\Generated_Source\PSoC5/I2CHW.c ****         I2CHW_INT_ENABLE_REG |= I2CHW_INTR_ENABLE; /* aux_ctl */
  73:.\Generated_Source\PSoC5/I2CHW.c ****         CyExitCriticalSection(enableInterrupts);
  74:.\Generated_Source\PSoC5/I2CHW.c **** 
  75:.\Generated_Source\PSoC5/I2CHW.c ****         #if(I2CHW_MODE_MASTER_ENABLED)
  76:.\Generated_Source\PSoC5/I2CHW.c ****             I2CHW_MCLK_PRD_REG = I2CHW_DEFAULT_MCLK_PRD;
  77:.\Generated_Source\PSoC5/I2CHW.c ****             I2CHW_MCLK_CMP_REG = I2CHW_DEFAULT_MCLK_CMP;
  78:.\Generated_Source\PSoC5/I2CHW.c ****          #endif /* (I2CHW_MODE_MASTER_ENABLED) */
  79:.\Generated_Source\PSoC5/I2CHW.c **** 
ARM GAS  C:\DOCUME~1\ADMINI~1\LOCALS~1\Temp\ccNBrMLw.s 			page 3


  80:.\Generated_Source\PSoC5/I2CHW.c ****         #if(I2CHW_MODE_SLAVE_ENABLED)
  81:.\Generated_Source\PSoC5/I2CHW.c ****             I2CHW_PERIOD_REG = I2CHW_DEFAULT_PERIOD;
  82:.\Generated_Source\PSoC5/I2CHW.c ****         #endif  /* (I2CHW_MODE_SLAVE_ENABLED) */
  83:.\Generated_Source\PSoC5/I2CHW.c **** 
  84:.\Generated_Source\PSoC5/I2CHW.c ****     #endif /* (I2CHW_FF_IMPLEMENTED) */
  85:.\Generated_Source\PSoC5/I2CHW.c **** 
  86:.\Generated_Source\PSoC5/I2CHW.c ****     #if(I2CHW_TIMEOUT_ENABLED)
  87:.\Generated_Source\PSoC5/I2CHW.c ****         I2CHW_TimeoutInit();
  88:.\Generated_Source\PSoC5/I2CHW.c ****     #endif /* (I2CHW_TIMEOUT_ENABLED) */
  89:.\Generated_Source\PSoC5/I2CHW.c **** 
  90:.\Generated_Source\PSoC5/I2CHW.c ****     /* Disable Interrupt and set vector and priority */
  91:.\Generated_Source\PSoC5/I2CHW.c ****     CyIntDisable    (I2CHW_ISR_NUMBER);
  92:.\Generated_Source\PSoC5/I2CHW.c ****     CyIntSetPriority(I2CHW_ISR_NUMBER, I2CHW_ISR_PRIORITY);
  93:.\Generated_Source\PSoC5/I2CHW.c ****     #if(I2CHW_INTERN_I2C_INTR_HANDLER)
  94:.\Generated_Source\PSoC5/I2CHW.c ****         (void) CyIntSetVector(I2CHW_ISR_NUMBER, &I2CHW_ISR);
  95:.\Generated_Source\PSoC5/I2CHW.c ****     #endif /* (I2CHW_INTERN_I2C_INTR_HANDLER) */
  96:.\Generated_Source\PSoC5/I2CHW.c **** 
  97:.\Generated_Source\PSoC5/I2CHW.c **** 
  98:.\Generated_Source\PSoC5/I2CHW.c ****     /* Put state machine in idle state */
  99:.\Generated_Source\PSoC5/I2CHW.c ****     I2CHW_state = I2CHW_SM_IDLE;
 100:.\Generated_Source\PSoC5/I2CHW.c **** 
 101:.\Generated_Source\PSoC5/I2CHW.c ****     #if(I2CHW_MODE_SLAVE_ENABLED)
 102:.\Generated_Source\PSoC5/I2CHW.c ****         /* Reset status and buffers index */
 103:.\Generated_Source\PSoC5/I2CHW.c ****         I2CHW_SlaveClearReadBuf();
 104:.\Generated_Source\PSoC5/I2CHW.c ****         I2CHW_SlaveClearWriteBuf();
 105:.\Generated_Source\PSoC5/I2CHW.c ****         I2CHW_slStatus = 0u; /* Reset slave status */
 106:.\Generated_Source\PSoC5/I2CHW.c **** 
 107:.\Generated_Source\PSoC5/I2CHW.c ****         /* Set default address */
 108:.\Generated_Source\PSoC5/I2CHW.c ****         I2CHW_SlaveSetAddress(I2CHW_DEFAULT_ADDR);
 109:.\Generated_Source\PSoC5/I2CHW.c ****     #endif /* (I2CHW_MODE_SLAVE_ENABLED) */
 110:.\Generated_Source\PSoC5/I2CHW.c **** 
 111:.\Generated_Source\PSoC5/I2CHW.c ****     #if(I2CHW_MODE_MASTER_ENABLED)
 112:.\Generated_Source\PSoC5/I2CHW.c ****         /* Reset status and buffers index */
 113:.\Generated_Source\PSoC5/I2CHW.c ****         I2CHW_MasterClearReadBuf();
 114:.\Generated_Source\PSoC5/I2CHW.c ****         I2CHW_MasterClearWriteBuf();
 115:.\Generated_Source\PSoC5/I2CHW.c ****         (void) I2CHW_MasterClearStatus();
 116:.\Generated_Source\PSoC5/I2CHW.c ****     #endif /* (I2CHW_MODE_MASTER_ENABLED) */
 117:.\Generated_Source\PSoC5/I2CHW.c **** }
 118:.\Generated_Source\PSoC5/I2CHW.c **** 
 119:.\Generated_Source\PSoC5/I2CHW.c **** 
 120:.\Generated_Source\PSoC5/I2CHW.c **** /*******************************************************************************
 121:.\Generated_Source\PSoC5/I2CHW.c **** * Function Name: I2CHW_Enable
 122:.\Generated_Source\PSoC5/I2CHW.c **** ********************************************************************************
 123:.\Generated_Source\PSoC5/I2CHW.c **** *
 124:.\Generated_Source\PSoC5/I2CHW.c **** * Summary:
 125:.\Generated_Source\PSoC5/I2CHW.c **** *  Enables I2C operations.
 126:.\Generated_Source\PSoC5/I2CHW.c **** *
 127:.\Generated_Source\PSoC5/I2CHW.c **** * Parameters:
 128:.\Generated_Source\PSoC5/I2CHW.c **** *  None
 129:.\Generated_Source\PSoC5/I2CHW.c **** *
 130:.\Generated_Source\PSoC5/I2CHW.c **** * Return:
 131:.\Generated_Source\PSoC5/I2CHW.c **** *  None
 132:.\Generated_Source\PSoC5/I2CHW.c **** *
 133:.\Generated_Source\PSoC5/I2CHW.c **** * Global variables:
 134:.\Generated_Source\PSoC5/I2CHW.c **** *  None
 135:.\Generated_Source\PSoC5/I2CHW.c **** *
 136:.\Generated_Source\PSoC5/I2CHW.c **** *******************************************************************************/
ARM GAS  C:\DOCUME~1\ADMINI~1\LOCALS~1\Temp\ccNBrMLw.s 			page 4


 137:.\Generated_Source\PSoC5/I2CHW.c **** void I2CHW_Enable(void) 
 138:.\Generated_Source\PSoC5/I2CHW.c **** {
  32              		.loc 1 138 0
  33              		.cfi_startproc
  34              		@ args = 0, pretend = 0, frame = 0
  35              		@ frame_needed = 0, uses_anonymous_args = 0
  36              		@ link register save eliminated.
 139:.\Generated_Source\PSoC5/I2CHW.c ****     #if(I2CHW_FF_IMPLEMENTED)
 140:.\Generated_Source\PSoC5/I2CHW.c ****         uint8 enableInterrupts;
 141:.\Generated_Source\PSoC5/I2CHW.c **** 
 142:.\Generated_Source\PSoC5/I2CHW.c ****         /* Enable power to I2C FF block */
 143:.\Generated_Source\PSoC5/I2CHW.c ****         enableInterrupts = CyEnterCriticalSection();
 144:.\Generated_Source\PSoC5/I2CHW.c ****         I2CHW_ACT_PWRMGR_REG  |= I2CHW_ACT_PWR_EN;
 145:.\Generated_Source\PSoC5/I2CHW.c ****         I2CHW_STBY_PWRMGR_REG |= I2CHW_STBY_PWR_EN;
 146:.\Generated_Source\PSoC5/I2CHW.c ****         CyExitCriticalSection(enableInterrupts);
 147:.\Generated_Source\PSoC5/I2CHW.c **** 
 148:.\Generated_Source\PSoC5/I2CHW.c ****     #else
 149:.\Generated_Source\PSoC5/I2CHW.c **** 
 150:.\Generated_Source\PSoC5/I2CHW.c ****         #if(I2CHW_MODE_SLAVE_ENABLED)
 151:.\Generated_Source\PSoC5/I2CHW.c ****             uint8 enableInterrupts;
 152:.\Generated_Source\PSoC5/I2CHW.c ****         #endif /* (I2CHW_MODE_SLAVE_ENABLED) */
 153:.\Generated_Source\PSoC5/I2CHW.c **** 
 154:.\Generated_Source\PSoC5/I2CHW.c ****         #if(I2CHW_MODE_SLAVE_ENABLED)
 155:.\Generated_Source\PSoC5/I2CHW.c ****             /* Enable slave bit counter */
 156:.\Generated_Source\PSoC5/I2CHW.c ****             enableInterrupts = CyEnterCriticalSection();
 157:.\Generated_Source\PSoC5/I2CHW.c ****             I2CHW_COUNTER_AUX_CTL_REG |= I2CHW_CNT7_ENABLE;   /* aux_ctl */
 158:.\Generated_Source\PSoC5/I2CHW.c ****             CyExitCriticalSection(enableInterrupts);
 159:.\Generated_Source\PSoC5/I2CHW.c ****         #endif /* (I2CHW_MODE_SLAVE_ENABLED) */
 160:.\Generated_Source\PSoC5/I2CHW.c **** 
 161:.\Generated_Source\PSoC5/I2CHW.c ****         I2CHW_CFG_REG |= I2CHW_ENABLE_MS;
  37              		.loc 1 161 0
  38 0000 024B     		ldr	r3, .L3
  39 0002 1A78     		ldrb	r2, [r3, #0]	@ zero_extendqisi2
  40 0004 42F00202 		orr	r2, r2, #2
  41 0008 1A70     		strb	r2, [r3, #0]
 162:.\Generated_Source\PSoC5/I2CHW.c **** 
 163:.\Generated_Source\PSoC5/I2CHW.c ****     #endif /* (I2CHW_FF_IMPLEMENTED) */
 164:.\Generated_Source\PSoC5/I2CHW.c **** 
 165:.\Generated_Source\PSoC5/I2CHW.c ****     #if(I2CHW_TIMEOUT_ENABLED)
 166:.\Generated_Source\PSoC5/I2CHW.c ****         I2CHW_TimeoutEnable();
 167:.\Generated_Source\PSoC5/I2CHW.c ****     #endif /* (I2CHW_TIMEOUT_ENABLED) */
 168:.\Generated_Source\PSoC5/I2CHW.c **** }
  42              		.loc 1 168 0
  43 000a 7047     		bx	lr
  44              	.L4:
  45              		.align	2
  46              	.L3:
  47 000c 70640040 		.word	1073767536
  48              		.cfi_endproc
  49              	.LFE1:
  50              		.size	I2CHW_Enable, .-I2CHW_Enable
  51              		.section	.text.I2CHW_Stop,"ax",%progbits
  52              		.align	1
  53              		.global	I2CHW_Stop
  54              		.thumb
  55              		.thumb_func
  56              		.type	I2CHW_Stop, %function
ARM GAS  C:\DOCUME~1\ADMINI~1\LOCALS~1\Temp\ccNBrMLw.s 			page 5


  57              	I2CHW_Stop:
  58              	.LFB3:
 169:.\Generated_Source\PSoC5/I2CHW.c **** 
 170:.\Generated_Source\PSoC5/I2CHW.c **** 
 171:.\Generated_Source\PSoC5/I2CHW.c **** /*******************************************************************************
 172:.\Generated_Source\PSoC5/I2CHW.c **** * Function Name: I2CHW_Start
 173:.\Generated_Source\PSoC5/I2CHW.c **** ********************************************************************************
 174:.\Generated_Source\PSoC5/I2CHW.c **** *
 175:.\Generated_Source\PSoC5/I2CHW.c **** * Summary:
 176:.\Generated_Source\PSoC5/I2CHW.c **** *  Starts the I2C hardware. Enables Active mode power template bits or clock
 177:.\Generated_Source\PSoC5/I2CHW.c **** *  gating as appropriate. It is required to be executed before I2C bus
 178:.\Generated_Source\PSoC5/I2CHW.c **** *  operation.
 179:.\Generated_Source\PSoC5/I2CHW.c **** *  The I2C interrupt remains disabled after this function call.
 180:.\Generated_Source\PSoC5/I2CHW.c **** *
 181:.\Generated_Source\PSoC5/I2CHW.c **** * Parameters:
 182:.\Generated_Source\PSoC5/I2CHW.c **** *  None
 183:.\Generated_Source\PSoC5/I2CHW.c **** *
 184:.\Generated_Source\PSoC5/I2CHW.c **** * Return:
 185:.\Generated_Source\PSoC5/I2CHW.c **** *  None
 186:.\Generated_Source\PSoC5/I2CHW.c **** *
 187:.\Generated_Source\PSoC5/I2CHW.c **** * Side Effects:
 188:.\Generated_Source\PSoC5/I2CHW.c **** *  This component automatically enables it's interrupt.  If I2C is enabled
 189:.\Generated_Source\PSoC5/I2CHW.c **** *  without the interrupt enabled, it could lock up the I2C bus.
 190:.\Generated_Source\PSoC5/I2CHW.c **** *
 191:.\Generated_Source\PSoC5/I2CHW.c **** * Global variables:
 192:.\Generated_Source\PSoC5/I2CHW.c **** *  I2CHW_initVar - used to check initial configuration, modified
 193:.\Generated_Source\PSoC5/I2CHW.c **** *  on first function call.
 194:.\Generated_Source\PSoC5/I2CHW.c **** *
 195:.\Generated_Source\PSoC5/I2CHW.c **** * Reentrant:
 196:.\Generated_Source\PSoC5/I2CHW.c **** *  No
 197:.\Generated_Source\PSoC5/I2CHW.c **** *
 198:.\Generated_Source\PSoC5/I2CHW.c **** *******************************************************************************/
 199:.\Generated_Source\PSoC5/I2CHW.c **** void I2CHW_Start(void) 
 200:.\Generated_Source\PSoC5/I2CHW.c **** {
 201:.\Generated_Source\PSoC5/I2CHW.c ****     /* Initialize I2C registers, reset I2C buffer index and clears status */
 202:.\Generated_Source\PSoC5/I2CHW.c ****     if(0u == I2CHW_initVar)
 203:.\Generated_Source\PSoC5/I2CHW.c ****     {
 204:.\Generated_Source\PSoC5/I2CHW.c ****         I2CHW_Init();
 205:.\Generated_Source\PSoC5/I2CHW.c ****         I2CHW_initVar = 1u; /* Component initialized */
 206:.\Generated_Source\PSoC5/I2CHW.c ****     }
 207:.\Generated_Source\PSoC5/I2CHW.c **** 
 208:.\Generated_Source\PSoC5/I2CHW.c ****     I2CHW_Enable();
 209:.\Generated_Source\PSoC5/I2CHW.c ****     I2CHW_EnableInt();
 210:.\Generated_Source\PSoC5/I2CHW.c **** }
 211:.\Generated_Source\PSoC5/I2CHW.c **** 
 212:.\Generated_Source\PSoC5/I2CHW.c **** 
 213:.\Generated_Source\PSoC5/I2CHW.c **** /*******************************************************************************
 214:.\Generated_Source\PSoC5/I2CHW.c **** * Function Name: I2CHW_Stop
 215:.\Generated_Source\PSoC5/I2CHW.c **** ********************************************************************************
 216:.\Generated_Source\PSoC5/I2CHW.c **** *
 217:.\Generated_Source\PSoC5/I2CHW.c **** * Summary:
 218:.\Generated_Source\PSoC5/I2CHW.c **** *  Disables I2C hardware and disables I2C interrupt. Disables Active mode power
 219:.\Generated_Source\PSoC5/I2CHW.c **** *  template bits or clock gating as appropriate.
 220:.\Generated_Source\PSoC5/I2CHW.c **** *
 221:.\Generated_Source\PSoC5/I2CHW.c **** * Parameters:
 222:.\Generated_Source\PSoC5/I2CHW.c **** *  None
 223:.\Generated_Source\PSoC5/I2CHW.c **** *
ARM GAS  C:\DOCUME~1\ADMINI~1\LOCALS~1\Temp\ccNBrMLw.s 			page 6


 224:.\Generated_Source\PSoC5/I2CHW.c **** * Return:
 225:.\Generated_Source\PSoC5/I2CHW.c **** *  None
 226:.\Generated_Source\PSoC5/I2CHW.c **** *
 227:.\Generated_Source\PSoC5/I2CHW.c **** *******************************************************************************/
 228:.\Generated_Source\PSoC5/I2CHW.c **** void I2CHW_Stop(void) 
 229:.\Generated_Source\PSoC5/I2CHW.c **** {
  59              		.loc 1 229 0
  60              		.cfi_startproc
  61              		@ args = 0, pretend = 0, frame = 0
  62              		@ frame_needed = 0, uses_anonymous_args = 0
  63              		@ link register save eliminated.
 230:.\Generated_Source\PSoC5/I2CHW.c ****     #if((I2CHW_FF_IMPLEMENTED)  || \
 231:.\Generated_Source\PSoC5/I2CHW.c ****         (I2CHW_UDB_IMPLEMENTED && I2CHW_MODE_SLAVE_ENABLED))
 232:.\Generated_Source\PSoC5/I2CHW.c ****         uint8 enableInterrupts;
 233:.\Generated_Source\PSoC5/I2CHW.c ****     #endif /* ((I2CHW_FF_IMPLEMENTED)  || \
 234:.\Generated_Source\PSoC5/I2CHW.c ****                (I2CHW_UDB_IMPLEMENTED && I2CHW_MODE_SLAVE_ENABLED)) */
 235:.\Generated_Source\PSoC5/I2CHW.c **** 
 236:.\Generated_Source\PSoC5/I2CHW.c ****     I2CHW_DisableInt();
  64              		.loc 1 236 0
  65 0000 0A4A     		ldr	r2, .L7
  66 0002 0123     		movs	r3, #1
  67 0004 1360     		str	r3, [r2, #0]
 237:.\Generated_Source\PSoC5/I2CHW.c **** 
 238:.\Generated_Source\PSoC5/I2CHW.c ****     I2CHW_DISABLE_INT_ON_STOP;   /* Interrupt on Stop can be enabled by write */
  68              		.loc 1 238 0
  69 0006 0A4A     		ldr	r2, .L7+4
  70 0008 1178     		ldrb	r1, [r2, #0]	@ zero_extendqisi2
  71 000a 01F0DF01 		and	r1, r1, #223
  72 000e 1170     		strb	r1, [r2, #0]
 239:.\Generated_Source\PSoC5/I2CHW.c ****     (void) I2CHW_CSR_REG;        /* Clear CSR reg */
  73              		.loc 1 239 0
  74 0010 203A     		subs	r2, r2, #32
  75 0012 1278     		ldrb	r2, [r2, #0]	@ zero_extendqisi2
 240:.\Generated_Source\PSoC5/I2CHW.c ****     
 241:.\Generated_Source\PSoC5/I2CHW.c ****     #if(I2CHW_TIMEOUT_ENABLED)
 242:.\Generated_Source\PSoC5/I2CHW.c ****         I2CHW_TimeoutStop();
 243:.\Generated_Source\PSoC5/I2CHW.c ****     #endif  /* End (I2CHW_TIMEOUT_ENABLED) */
 244:.\Generated_Source\PSoC5/I2CHW.c **** 
 245:.\Generated_Source\PSoC5/I2CHW.c ****     #if(I2CHW_FF_IMPLEMENTED)
 246:.\Generated_Source\PSoC5/I2CHW.c ****         #if(CY_PSOC3 || CY_PSOC5LP)
 247:.\Generated_Source\PSoC5/I2CHW.c ****             /* Store registers which are held in reset when Master and Slave bits are cleared */
 248:.\Generated_Source\PSoC5/I2CHW.c ****             #if(I2CHW_MODE_SLAVE_ENABLED)
 249:.\Generated_Source\PSoC5/I2CHW.c ****                 I2CHW_backup.addr = I2CHW_ADDR_REG;
 250:.\Generated_Source\PSoC5/I2CHW.c ****             #endif /* (I2CHW_MODE_SLAVE_ENABLED) */
 251:.\Generated_Source\PSoC5/I2CHW.c **** 
 252:.\Generated_Source\PSoC5/I2CHW.c ****             I2CHW_backup.clkDiv1  = I2CHW_CLKDIV1_REG;
 253:.\Generated_Source\PSoC5/I2CHW.c ****             I2CHW_backup.clkDiv2  = I2CHW_CLKDIV2_REG;
 254:.\Generated_Source\PSoC5/I2CHW.c **** 
 255:.\Generated_Source\PSoC5/I2CHW.c **** 
 256:.\Generated_Source\PSoC5/I2CHW.c ****             /* Reset FF block */
 257:.\Generated_Source\PSoC5/I2CHW.c ****             I2CHW_CFG_REG &= ((uint8) ~I2CHW_ENABLE_MS);
 258:.\Generated_Source\PSoC5/I2CHW.c ****             CyDelayUs(I2CHW_FF_RESET_DELAY);
 259:.\Generated_Source\PSoC5/I2CHW.c ****             I2CHW_CFG_REG |= ((uint8)  I2CHW_ENABLE_MS);
 260:.\Generated_Source\PSoC5/I2CHW.c **** 
 261:.\Generated_Source\PSoC5/I2CHW.c **** 
 262:.\Generated_Source\PSoC5/I2CHW.c ****             /* Restore registers */
 263:.\Generated_Source\PSoC5/I2CHW.c ****             #if(I2CHW_MODE_SLAVE_ENABLED)
ARM GAS  C:\DOCUME~1\ADMINI~1\LOCALS~1\Temp\ccNBrMLw.s 			page 7


 264:.\Generated_Source\PSoC5/I2CHW.c ****                 I2CHW_ADDR_REG = I2CHW_backup.addr;
 265:.\Generated_Source\PSoC5/I2CHW.c ****             #endif /* (I2CHW_MODE_SLAVE_ENABLED) */
 266:.\Generated_Source\PSoC5/I2CHW.c **** 
 267:.\Generated_Source\PSoC5/I2CHW.c ****             I2CHW_CLKDIV1_REG = I2CHW_backup.clkDiv1;
 268:.\Generated_Source\PSoC5/I2CHW.c ****             I2CHW_CLKDIV2_REG = I2CHW_backup.clkDiv2;
 269:.\Generated_Source\PSoC5/I2CHW.c **** 
 270:.\Generated_Source\PSoC5/I2CHW.c ****         #endif /* (CY_PSOC3 || CY_PSOC5LP) */
 271:.\Generated_Source\PSoC5/I2CHW.c **** 
 272:.\Generated_Source\PSoC5/I2CHW.c ****         /* Disable power to I2C block */
 273:.\Generated_Source\PSoC5/I2CHW.c ****         enableInterrupts = CyEnterCriticalSection();
 274:.\Generated_Source\PSoC5/I2CHW.c ****         I2CHW_ACT_PWRMGR_REG  &= ((uint8) ~I2CHW_ACT_PWR_EN);
 275:.\Generated_Source\PSoC5/I2CHW.c ****         I2CHW_STBY_PWRMGR_REG &= ((uint8) ~I2CHW_STBY_PWR_EN);
 276:.\Generated_Source\PSoC5/I2CHW.c ****         CyExitCriticalSection(enableInterrupts);
 277:.\Generated_Source\PSoC5/I2CHW.c **** 
 278:.\Generated_Source\PSoC5/I2CHW.c ****     #else
 279:.\Generated_Source\PSoC5/I2CHW.c **** 
 280:.\Generated_Source\PSoC5/I2CHW.c ****         #if(I2CHW_MODE_SLAVE_ENABLED)
 281:.\Generated_Source\PSoC5/I2CHW.c ****             /* Disable slave bit counter */
 282:.\Generated_Source\PSoC5/I2CHW.c ****             enableInterrupts = CyEnterCriticalSection();
 283:.\Generated_Source\PSoC5/I2CHW.c ****             I2CHW_COUNTER_AUX_CTL_REG &= ((uint8) ~I2CHW_CNT7_ENABLE);
 284:.\Generated_Source\PSoC5/I2CHW.c ****             CyExitCriticalSection(enableInterrupts);
 285:.\Generated_Source\PSoC5/I2CHW.c ****         #endif /* (I2CHW_MODE_SLAVE_ENABLED) */
 286:.\Generated_Source\PSoC5/I2CHW.c **** 
 287:.\Generated_Source\PSoC5/I2CHW.c ****         I2CHW_CFG_REG &= ((uint8) ~I2CHW_ENABLE_MS);
  76              		.loc 1 287 0
  77 0014 074A     		ldr	r2, .L7+8
  78 0016 1178     		ldrb	r1, [r2, #0]	@ zero_extendqisi2
  79 0018 01F0FD01 		and	r1, r1, #253
  80 001c 1170     		strb	r1, [r2, #0]
 288:.\Generated_Source\PSoC5/I2CHW.c **** 
 289:.\Generated_Source\PSoC5/I2CHW.c ****     #endif /* (I2CHW_FF_IMPLEMENTED) */
 290:.\Generated_Source\PSoC5/I2CHW.c **** 
 291:.\Generated_Source\PSoC5/I2CHW.c ****     I2CHW_ClearPendingInt();  /* Clear interrupt triggers on reset */
  81              		.loc 1 291 0
  82 001e 064A     		ldr	r2, .L7+12
  83 0020 1360     		str	r3, [r2, #0]
 292:.\Generated_Source\PSoC5/I2CHW.c **** 
 293:.\Generated_Source\PSoC5/I2CHW.c ****     I2CHW_state = I2CHW_SM_IDLE;  /* Reset software FSM */
  84              		.loc 1 293 0
  85 0022 064B     		ldr	r3, .L7+16
  86 0024 1022     		movs	r2, #16
  87 0026 1A70     		strb	r2, [r3, #0]
 294:.\Generated_Source\PSoC5/I2CHW.c **** }
  88              		.loc 1 294 0
  89 0028 7047     		bx	lr
  90              	.L8:
  91 002a 00BF     		.align	2
  92              	.L7:
  93 002c 80E100E0 		.word	-536813184
  94 0030 88640040 		.word	1073767560
  95 0034 70640040 		.word	1073767536
  96 0038 80E200E0 		.word	-536812928
  97 003c 00000000 		.word	I2CHW_state
  98              		.cfi_endproc
  99              	.LFE3:
 100              		.size	I2CHW_Stop, .-I2CHW_Stop
 101              		.section	.text.I2CHW_Init,"ax",%progbits
ARM GAS  C:\DOCUME~1\ADMINI~1\LOCALS~1\Temp\ccNBrMLw.s 			page 8


 102              		.align	1
 103              		.global	I2CHW_Init
 104              		.thumb
 105              		.thumb_func
 106              		.type	I2CHW_Init, %function
 107              	I2CHW_Init:
 108              	.LFB0:
 109              		.loc 1 52 0
 110              		.cfi_startproc
 111              		@ args = 0, pretend = 0, frame = 0
 112              		@ frame_needed = 0, uses_anonymous_args = 0
 113              		.loc 1 67 0
 114 0000 154B     		ldr	r3, .L11
 115              		.loc 1 52 0
 116 0002 70B5     		push	{r4, r5, r6, lr}
 117              	.LCFI0:
 118              		.cfi_def_cfa_offset 16
 119              		.loc 1 67 0
 120 0004 0024     		movs	r4, #0
 121              		.cfi_offset 14, -4
 122              		.cfi_offset 6, -8
 123              		.cfi_offset 5, -12
 124              		.cfi_offset 4, -16
 125 0006 1C70     		strb	r4, [r3, #0]
 126              		.loc 1 68 0
 127 0008 0125     		movs	r5, #1
 128 000a 1833     		adds	r3, r3, #24
 129 000c 1D70     		strb	r5, [r3, #0]
 130              		.loc 1 71 0
 131 000e FFF7FEFF 		bl	CyEnterCriticalSection
 132              		.loc 1 72 0
 133 0012 124B     		ldr	r3, .L11+4
 134 0014 1A78     		ldrb	r2, [r3, #0]	@ zero_extendqisi2
 135 0016 42F01002 		orr	r2, r2, #16
 136 001a 1A70     		strb	r2, [r3, #0]
 137              		.loc 1 73 0
 138 001c FFF7FEFF 		bl	CyExitCriticalSection
 139              		.loc 1 76 0
 140 0020 0F4B     		ldr	r3, .L11+8
 141 0022 0F22     		movs	r2, #15
 142 0024 1A70     		strb	r2, [r3, #0]
 143              		.loc 1 77 0
 144 0026 073A     		subs	r2, r2, #7
 145 0028 1033     		adds	r3, r3, #16
 146 002a 1A70     		strb	r2, [r3, #0]
 147              		.loc 1 91 0
 148 002c 0D4B     		ldr	r3, .L11+12
 149              		.loc 1 92 0
 150 002e 2046     		mov	r0, r4
 151              		.loc 1 91 0
 152 0030 1D60     		str	r5, [r3, #0]
 153              		.loc 1 92 0
 154 0032 0521     		movs	r1, #5
 155 0034 FFF7FEFF 		bl	CyIntSetPriority
 156              		.loc 1 94 0
 157 0038 0B49     		ldr	r1, .L11+16
 158 003a 2046     		mov	r0, r4
ARM GAS  C:\DOCUME~1\ADMINI~1\LOCALS~1\Temp\ccNBrMLw.s 			page 9


 159 003c FFF7FEFF 		bl	CyIntSetVector
 160              		.loc 1 99 0
 161 0040 0A4B     		ldr	r3, .L11+20
 162 0042 1022     		movs	r2, #16
 163 0044 1A70     		strb	r2, [r3, #0]
 164              		.loc 1 113 0
 165 0046 FFF7FEFF 		bl	I2CHW_MasterClearReadBuf
 166              		.loc 1 114 0
 167 004a FFF7FEFF 		bl	I2CHW_MasterClearWriteBuf
 168              		.loc 1 117 0
 169 004e BDE87040 		pop	{r4, r5, r6, lr}
 170              		.loc 1 115 0
 171 0052 FFF7FEBF 		b	I2CHW_MasterClearStatus
 172              	.L12:
 173 0056 00BF     		.align	2
 174              	.L11:
 175 0058 70640040 		.word	1073767536
 176 005c 98640040 		.word	1073767576
 177 0060 29640040 		.word	1073767465
 178 0064 80E100E0 		.word	-536813184
 179 0068 00000000 		.word	I2CHW_ISR
 180 006c 00000000 		.word	I2CHW_state
 181              		.cfi_endproc
 182              	.LFE0:
 183              		.size	I2CHW_Init, .-I2CHW_Init
 184              		.section	.text.I2CHW_Start,"ax",%progbits
 185              		.align	1
 186              		.global	I2CHW_Start
 187              		.thumb
 188              		.thumb_func
 189              		.type	I2CHW_Start, %function
 190              	I2CHW_Start:
 191              	.LFB2:
 192              		.loc 1 200 0
 193              		.cfi_startproc
 194              		@ args = 0, pretend = 0, frame = 0
 195              		@ frame_needed = 0, uses_anonymous_args = 0
 196 0000 10B5     		push	{r4, lr}
 197              	.LCFI1:
 198              		.cfi_def_cfa_offset 8
 199              		.loc 1 202 0
 200 0002 064C     		ldr	r4, .L17
 201              		.cfi_offset 14, -4
 202              		.cfi_offset 4, -8
 203 0004 2378     		ldrb	r3, [r4, #0]	@ zero_extendqisi2
 204 0006 1BB9     		cbnz	r3, .L14
 205              		.loc 1 204 0
 206 0008 FFF7FEFF 		bl	I2CHW_Init
 207              		.loc 1 205 0
 208 000c 0123     		movs	r3, #1
 209 000e 2370     		strb	r3, [r4, #0]
 210              	.L14:
 211              		.loc 1 208 0
 212 0010 FFF7FEFF 		bl	I2CHW_Enable
 213              		.loc 1 209 0
 214 0014 024B     		ldr	r3, .L17+4
 215 0016 0122     		movs	r2, #1
ARM GAS  C:\DOCUME~1\ADMINI~1\LOCALS~1\Temp\ccNBrMLw.s 			page 10


 216 0018 1A60     		str	r2, [r3, #0]
 217              		.loc 1 210 0
 218 001a 10BD     		pop	{r4, pc}
 219              	.L18:
 220              		.align	2
 221              	.L17:
 222 001c 00000000 		.word	.LANCHOR0
 223 0020 00E100E0 		.word	-536813312
 224              		.cfi_endproc
 225              	.LFE2:
 226              		.size	I2CHW_Start, .-I2CHW_Start
 227              		.global	I2CHW_initVar
 228              		.comm	I2CHW_state,1,1
 229              		.bss
 230              		.set	.LANCHOR0,. + 0
 231              		.type	I2CHW_initVar, %object
 232              		.size	I2CHW_initVar, 1
 233              	I2CHW_initVar:
 234 0000 00       		.space	1
 235              		.text
 236              	.Letext0: