ARM GAS  C:\DOCUME~1\ADMINI~1\LOCALS~1\Temp\ccYBPvqZ.s 			page 1


   1              		.syntax unified
   2              		.cpu cortex-m3
   3              		.fpu softvfp
   4              		.eabi_attribute 20, 1
   5              		.eabi_attribute 21, 1
   6              		.eabi_attribute 23, 3
   7              		.eabi_attribute 24, 1
   8              		.eabi_attribute 25, 1
   9              		.eabi_attribute 26, 1
  10              		.eabi_attribute 30, 4
  11              		.eabi_attribute 18, 4
  12              		.thumb
  13              		.file	"isr_UsbSuspend.c"
  20 0000 7B010000 		.text
  20      02008100 
  20      00000201 
  20      FB0E0D00 
  20      01010101 
  21              	.Ltext0:
  22              		.cfi_sections	.debug_frame
  23              		.section	.text.isr_UsbSuspend_SetVector,"ax",%progbits
  24              		.align	1
  25              		.global	isr_UsbSuspend_SetVector
  26              		.thumb
  27              		.thumb_func
  28              		.type	isr_UsbSuspend_SetVector, %function
  29              	isr_UsbSuspend_SetVector:
  30              	.LFB33:
  31              		.file 1 ".\\Generated_Source\\PSoC5\\isr_UsbSuspend.c"
   1:.\Generated_Source\PSoC5/isr_UsbSuspend.c **** /*******************************************************************************
   2:.\Generated_Source\PSoC5/isr_UsbSuspend.c **** * File Name: isr_UsbSuspend.c  
   3:.\Generated_Source\PSoC5/isr_UsbSuspend.c **** * Version 1.70
   4:.\Generated_Source\PSoC5/isr_UsbSuspend.c **** *
   5:.\Generated_Source\PSoC5/isr_UsbSuspend.c **** *  Description:
   6:.\Generated_Source\PSoC5/isr_UsbSuspend.c **** *   API for controlling the state of an interrupt.
   7:.\Generated_Source\PSoC5/isr_UsbSuspend.c **** *
   8:.\Generated_Source\PSoC5/isr_UsbSuspend.c **** *
   9:.\Generated_Source\PSoC5/isr_UsbSuspend.c **** *  Note:
  10:.\Generated_Source\PSoC5/isr_UsbSuspend.c **** *
  11:.\Generated_Source\PSoC5/isr_UsbSuspend.c **** ********************************************************************************
  12:.\Generated_Source\PSoC5/isr_UsbSuspend.c **** * Copyright 2008-2012, Cypress Semiconductor Corporation.  All rights reserved.
  13:.\Generated_Source\PSoC5/isr_UsbSuspend.c **** * You may use this file only in accordance with the license, terms, conditions, 
  14:.\Generated_Source\PSoC5/isr_UsbSuspend.c **** * disclaimers, and limitations in the end user license agreement accompanying 
  15:.\Generated_Source\PSoC5/isr_UsbSuspend.c **** * the software package with which this file was provided.
  16:.\Generated_Source\PSoC5/isr_UsbSuspend.c **** *******************************************************************************/
  17:.\Generated_Source\PSoC5/isr_UsbSuspend.c **** 
  18:.\Generated_Source\PSoC5/isr_UsbSuspend.c **** 
  19:.\Generated_Source\PSoC5/isr_UsbSuspend.c **** #include <CYDEVICE_TRM.H>
  20:.\Generated_Source\PSoC5/isr_UsbSuspend.c **** #include <CYLIB.H>
  21:.\Generated_Source\PSoC5/isr_UsbSuspend.c **** #include <isr_UsbSuspend.H>
  22:.\Generated_Source\PSoC5/isr_UsbSuspend.c **** 
ARM GAS  C:\DOCUME~1\ADMINI~1\LOCALS~1\Temp\ccYBPvqZ.s 			page 2


  23:.\Generated_Source\PSoC5/isr_UsbSuspend.c **** #if !defined(isr_UsbSuspend__REMOVED) /* Check for removal by optimization */
  24:.\Generated_Source\PSoC5/isr_UsbSuspend.c **** 
  25:.\Generated_Source\PSoC5/isr_UsbSuspend.c **** /*******************************************************************************
  26:.\Generated_Source\PSoC5/isr_UsbSuspend.c **** *  Place your includes, defines and code here 
  27:.\Generated_Source\PSoC5/isr_UsbSuspend.c **** ********************************************************************************/
  28:.\Generated_Source\PSoC5/isr_UsbSuspend.c **** /* `#START isr_UsbSuspend_intc` */
  29:.\Generated_Source\PSoC5/isr_UsbSuspend.c **** #include "kitprog.h"
  30:.\Generated_Source\PSoC5/isr_UsbSuspend.c **** /* `#END` */
  31:.\Generated_Source\PSoC5/isr_UsbSuspend.c **** 
  32:.\Generated_Source\PSoC5/isr_UsbSuspend.c **** #ifndef CYINT_IRQ_BASE
  33:.\Generated_Source\PSoC5/isr_UsbSuspend.c **** #define CYINT_IRQ_BASE      16
  34:.\Generated_Source\PSoC5/isr_UsbSuspend.c **** #endif /* CYINT_IRQ_BASE */
  35:.\Generated_Source\PSoC5/isr_UsbSuspend.c **** #ifndef CYINT_VECT_TABLE
  36:.\Generated_Source\PSoC5/isr_UsbSuspend.c **** #define CYINT_VECT_TABLE    ((cyisraddress **) CYREG_NVIC_VECT_OFFSET)
  37:.\Generated_Source\PSoC5/isr_UsbSuspend.c **** #endif /* CYINT_VECT_TABLE */
  38:.\Generated_Source\PSoC5/isr_UsbSuspend.c **** 
  39:.\Generated_Source\PSoC5/isr_UsbSuspend.c **** /* Declared in startup, used to set unused interrupts to. */
  40:.\Generated_Source\PSoC5/isr_UsbSuspend.c **** CY_ISR_PROTO(IntDefaultHandler);
  41:.\Generated_Source\PSoC5/isr_UsbSuspend.c **** 
  42:.\Generated_Source\PSoC5/isr_UsbSuspend.c **** 
  43:.\Generated_Source\PSoC5/isr_UsbSuspend.c **** /*******************************************************************************
  44:.\Generated_Source\PSoC5/isr_UsbSuspend.c **** * Function Name: isr_UsbSuspend_Start
  45:.\Generated_Source\PSoC5/isr_UsbSuspend.c **** ********************************************************************************
  46:.\Generated_Source\PSoC5/isr_UsbSuspend.c **** *
  47:.\Generated_Source\PSoC5/isr_UsbSuspend.c **** * Summary:
  48:.\Generated_Source\PSoC5/isr_UsbSuspend.c **** *  Set up the interrupt and enable it.
  49:.\Generated_Source\PSoC5/isr_UsbSuspend.c **** *
  50:.\Generated_Source\PSoC5/isr_UsbSuspend.c **** * Parameters:  
  51:.\Generated_Source\PSoC5/isr_UsbSuspend.c **** *   None
  52:.\Generated_Source\PSoC5/isr_UsbSuspend.c **** *
  53:.\Generated_Source\PSoC5/isr_UsbSuspend.c **** * Return:
  54:.\Generated_Source\PSoC5/isr_UsbSuspend.c **** *   None
  55:.\Generated_Source\PSoC5/isr_UsbSuspend.c **** *
  56:.\Generated_Source\PSoC5/isr_UsbSuspend.c **** *******************************************************************************/
  57:.\Generated_Source\PSoC5/isr_UsbSuspend.c **** void isr_UsbSuspend_Start(void)
  58:.\Generated_Source\PSoC5/isr_UsbSuspend.c **** {
  59:.\Generated_Source\PSoC5/isr_UsbSuspend.c ****     /* For all we know the interrupt is active. */
  60:.\Generated_Source\PSoC5/isr_UsbSuspend.c ****     isr_UsbSuspend_Disable();
  61:.\Generated_Source\PSoC5/isr_UsbSuspend.c **** 
  62:.\Generated_Source\PSoC5/isr_UsbSuspend.c ****     /* Set the ISR to point to the isr_UsbSuspend Interrupt. */
  63:.\Generated_Source\PSoC5/isr_UsbSuspend.c ****     isr_UsbSuspend_SetVector(&isr_UsbSuspend_Interrupt);
  64:.\Generated_Source\PSoC5/isr_UsbSuspend.c **** 
  65:.\Generated_Source\PSoC5/isr_UsbSuspend.c ****     /* Set the priority. */
  66:.\Generated_Source\PSoC5/isr_UsbSuspend.c ****     isr_UsbSuspend_SetPriority((uint8)isr_UsbSuspend_INTC_PRIOR_NUMBER);
  67:.\Generated_Source\PSoC5/isr_UsbSuspend.c **** 
  68:.\Generated_Source\PSoC5/isr_UsbSuspend.c ****     /* Enable it. */
  69:.\Generated_Source\PSoC5/isr_UsbSuspend.c ****     isr_UsbSuspend_Enable();
  70:.\Generated_Source\PSoC5/isr_UsbSuspend.c **** }
  71:.\Generated_Source\PSoC5/isr_UsbSuspend.c **** 
  72:.\Generated_Source\PSoC5/isr_UsbSuspend.c **** 
  73:.\Generated_Source\PSoC5/isr_UsbSuspend.c **** /*******************************************************************************
  74:.\Generated_Source\PSoC5/isr_UsbSuspend.c **** * Function Name: isr_UsbSuspend_StartEx
  75:.\Generated_Source\PSoC5/isr_UsbSuspend.c **** ********************************************************************************
  76:.\Generated_Source\PSoC5/isr_UsbSuspend.c **** *
  77:.\Generated_Source\PSoC5/isr_UsbSuspend.c **** * Summary:
  78:.\Generated_Source\PSoC5/isr_UsbSuspend.c **** *  Set up the interrupt and enable it.
  79:.\Generated_Source\PSoC5/isr_UsbSuspend.c **** *
ARM GAS  C:\DOCUME~1\ADMINI~1\LOCALS~1\Temp\ccYBPvqZ.s 			page 3


  80:.\Generated_Source\PSoC5/isr_UsbSuspend.c **** * Parameters:  
  81:.\Generated_Source\PSoC5/isr_UsbSuspend.c **** *   address: Address of the ISR to set in the interrupt vector table.
  82:.\Generated_Source\PSoC5/isr_UsbSuspend.c **** *
  83:.\Generated_Source\PSoC5/isr_UsbSuspend.c **** * Return:
  84:.\Generated_Source\PSoC5/isr_UsbSuspend.c **** *   None
  85:.\Generated_Source\PSoC5/isr_UsbSuspend.c **** *
  86:.\Generated_Source\PSoC5/isr_UsbSuspend.c **** *******************************************************************************/
  87:.\Generated_Source\PSoC5/isr_UsbSuspend.c **** void isr_UsbSuspend_StartEx(cyisraddress address)
  88:.\Generated_Source\PSoC5/isr_UsbSuspend.c **** {
  89:.\Generated_Source\PSoC5/isr_UsbSuspend.c ****     /* For all we know the interrupt is active. */
  90:.\Generated_Source\PSoC5/isr_UsbSuspend.c ****     isr_UsbSuspend_Disable();
  91:.\Generated_Source\PSoC5/isr_UsbSuspend.c **** 
  92:.\Generated_Source\PSoC5/isr_UsbSuspend.c ****     /* Set the ISR to point to the isr_UsbSuspend Interrupt. */
  93:.\Generated_Source\PSoC5/isr_UsbSuspend.c ****     isr_UsbSuspend_SetVector(address);
  94:.\Generated_Source\PSoC5/isr_UsbSuspend.c **** 
  95:.\Generated_Source\PSoC5/isr_UsbSuspend.c ****     /* Set the priority. */
  96:.\Generated_Source\PSoC5/isr_UsbSuspend.c ****     isr_UsbSuspend_SetPriority((uint8)isr_UsbSuspend_INTC_PRIOR_NUMBER);
  97:.\Generated_Source\PSoC5/isr_UsbSuspend.c **** 
  98:.\Generated_Source\PSoC5/isr_UsbSuspend.c ****     /* Enable it. */
  99:.\Generated_Source\PSoC5/isr_UsbSuspend.c ****     isr_UsbSuspend_Enable();
 100:.\Generated_Source\PSoC5/isr_UsbSuspend.c **** }
 101:.\Generated_Source\PSoC5/isr_UsbSuspend.c **** 
 102:.\Generated_Source\PSoC5/isr_UsbSuspend.c **** 
 103:.\Generated_Source\PSoC5/isr_UsbSuspend.c **** /*******************************************************************************
 104:.\Generated_Source\PSoC5/isr_UsbSuspend.c **** * Function Name: isr_UsbSuspend_Stop
 105:.\Generated_Source\PSoC5/isr_UsbSuspend.c **** ********************************************************************************
 106:.\Generated_Source\PSoC5/isr_UsbSuspend.c **** *
 107:.\Generated_Source\PSoC5/isr_UsbSuspend.c **** * Summary:
 108:.\Generated_Source\PSoC5/isr_UsbSuspend.c **** *   Disables and removes the interrupt.
 109:.\Generated_Source\PSoC5/isr_UsbSuspend.c **** *
 110:.\Generated_Source\PSoC5/isr_UsbSuspend.c **** * Parameters:  
 111:.\Generated_Source\PSoC5/isr_UsbSuspend.c **** *
 112:.\Generated_Source\PSoC5/isr_UsbSuspend.c **** * Return:
 113:.\Generated_Source\PSoC5/isr_UsbSuspend.c **** *   None
 114:.\Generated_Source\PSoC5/isr_UsbSuspend.c **** *
 115:.\Generated_Source\PSoC5/isr_UsbSuspend.c **** *******************************************************************************/
 116:.\Generated_Source\PSoC5/isr_UsbSuspend.c **** void isr_UsbSuspend_Stop(void)
 117:.\Generated_Source\PSoC5/isr_UsbSuspend.c **** {
 118:.\Generated_Source\PSoC5/isr_UsbSuspend.c ****     /* Disable this interrupt. */
 119:.\Generated_Source\PSoC5/isr_UsbSuspend.c ****     isr_UsbSuspend_Disable();
 120:.\Generated_Source\PSoC5/isr_UsbSuspend.c **** 
 121:.\Generated_Source\PSoC5/isr_UsbSuspend.c ****     /* Set the ISR to point to the passive one. */
 122:.\Generated_Source\PSoC5/isr_UsbSuspend.c ****     isr_UsbSuspend_SetVector(&IntDefaultHandler);
 123:.\Generated_Source\PSoC5/isr_UsbSuspend.c **** }
 124:.\Generated_Source\PSoC5/isr_UsbSuspend.c **** 
 125:.\Generated_Source\PSoC5/isr_UsbSuspend.c **** 
 126:.\Generated_Source\PSoC5/isr_UsbSuspend.c **** /*******************************************************************************
 127:.\Generated_Source\PSoC5/isr_UsbSuspend.c **** * Function Name: isr_UsbSuspend_Interrupt
 128:.\Generated_Source\PSoC5/isr_UsbSuspend.c **** ********************************************************************************
 129:.\Generated_Source\PSoC5/isr_UsbSuspend.c **** *
 130:.\Generated_Source\PSoC5/isr_UsbSuspend.c **** * Summary:
 131:.\Generated_Source\PSoC5/isr_UsbSuspend.c **** *   The default Interrupt Service Routine for isr_UsbSuspend.
 132:.\Generated_Source\PSoC5/isr_UsbSuspend.c **** *
 133:.\Generated_Source\PSoC5/isr_UsbSuspend.c **** *   Add custom code between the coments to keep the next version of this file
 134:.\Generated_Source\PSoC5/isr_UsbSuspend.c **** *   from over writting your code.
 135:.\Generated_Source\PSoC5/isr_UsbSuspend.c **** *
 136:.\Generated_Source\PSoC5/isr_UsbSuspend.c **** * Parameters:  
ARM GAS  C:\DOCUME~1\ADMINI~1\LOCALS~1\Temp\ccYBPvqZ.s 			page 4


 137:.\Generated_Source\PSoC5/isr_UsbSuspend.c **** *
 138:.\Generated_Source\PSoC5/isr_UsbSuspend.c **** * Return:
 139:.\Generated_Source\PSoC5/isr_UsbSuspend.c **** *   None
 140:.\Generated_Source\PSoC5/isr_UsbSuspend.c **** *
 141:.\Generated_Source\PSoC5/isr_UsbSuspend.c **** *******************************************************************************/
 142:.\Generated_Source\PSoC5/isr_UsbSuspend.c **** CY_ISR(isr_UsbSuspend_Interrupt)
 143:.\Generated_Source\PSoC5/isr_UsbSuspend.c **** {
 144:.\Generated_Source\PSoC5/isr_UsbSuspend.c ****     /*  Place your Interrupt code here. */
 145:.\Generated_Source\PSoC5/isr_UsbSuspend.c ****     /* `#START isr_UsbSuspend_Interrupt` */
 146:.\Generated_Source\PSoC5/isr_UsbSuspend.c **** 	checkActivityFlag = TRUE;
 147:.\Generated_Source\PSoC5/isr_UsbSuspend.c **** 	Timer_UsbSuspend_ReadStatusRegister();
 148:.\Generated_Source\PSoC5/isr_UsbSuspend.c ****     /* `#END` */
 149:.\Generated_Source\PSoC5/isr_UsbSuspend.c **** }
 150:.\Generated_Source\PSoC5/isr_UsbSuspend.c **** 
 151:.\Generated_Source\PSoC5/isr_UsbSuspend.c **** 
 152:.\Generated_Source\PSoC5/isr_UsbSuspend.c **** /*******************************************************************************
 153:.\Generated_Source\PSoC5/isr_UsbSuspend.c **** * Function Name: isr_UsbSuspend_SetVector
 154:.\Generated_Source\PSoC5/isr_UsbSuspend.c **** ********************************************************************************
 155:.\Generated_Source\PSoC5/isr_UsbSuspend.c **** *
 156:.\Generated_Source\PSoC5/isr_UsbSuspend.c **** * Summary:
 157:.\Generated_Source\PSoC5/isr_UsbSuspend.c **** *   Change the ISR vector for the Interrupt. Note calling isr_UsbSuspend_Start
 158:.\Generated_Source\PSoC5/isr_UsbSuspend.c **** *   will override any effect this method would have had. To set the vector 
 159:.\Generated_Source\PSoC5/isr_UsbSuspend.c **** *   before the component has been started use isr_UsbSuspend_StartEx instead.
 160:.\Generated_Source\PSoC5/isr_UsbSuspend.c **** *
 161:.\Generated_Source\PSoC5/isr_UsbSuspend.c **** * Parameters:
 162:.\Generated_Source\PSoC5/isr_UsbSuspend.c **** *   address: Address of the ISR to set in the interrupt vector table.
 163:.\Generated_Source\PSoC5/isr_UsbSuspend.c **** *
 164:.\Generated_Source\PSoC5/isr_UsbSuspend.c **** * Return:
 165:.\Generated_Source\PSoC5/isr_UsbSuspend.c **** *   None
 166:.\Generated_Source\PSoC5/isr_UsbSuspend.c **** *
 167:.\Generated_Source\PSoC5/isr_UsbSuspend.c **** *******************************************************************************/
 168:.\Generated_Source\PSoC5/isr_UsbSuspend.c **** void isr_UsbSuspend_SetVector(cyisraddress address)
 169:.\Generated_Source\PSoC5/isr_UsbSuspend.c **** {
  32              		.loc 1 169 0
  33              		.cfi_startproc
  34              		@ args = 0, pretend = 0, frame = 0
  35              		@ frame_needed = 0, uses_anonymous_args = 0
  36              		@ link register save eliminated.
  37              	.LVL0:
 170:.\Generated_Source\PSoC5/isr_UsbSuspend.c ****     cyisraddress * ramVectorTable;
 171:.\Generated_Source\PSoC5/isr_UsbSuspend.c **** 
 172:.\Generated_Source\PSoC5/isr_UsbSuspend.c ****     ramVectorTable = (cyisraddress *) *CYINT_VECT_TABLE;
  38              		.loc 1 172 0
  39 0000 024B     		ldr	r3, .L3
  40 0002 1B68     		ldr	r3, [r3, #0]
  41              	.LVL1:
 173:.\Generated_Source\PSoC5/isr_UsbSuspend.c **** 
 174:.\Generated_Source\PSoC5/isr_UsbSuspend.c ****     ramVectorTable[CYINT_IRQ_BASE + (uint32)isr_UsbSuspend__INTC_NUMBER] = address;
  42              		.loc 1 174 0
  43 0004 C3F88400 		str	r0, [r3, #132]
 175:.\Generated_Source\PSoC5/isr_UsbSuspend.c **** }
  44              		.loc 1 175 0
  45 0008 7047     		bx	lr
  46              	.L4:
  47 000a 00BF     		.align	2
  48              	.L3:
  49 000c 08ED00E0 		.word	-536810232
ARM GAS  C:\DOCUME~1\ADMINI~1\LOCALS~1\Temp\ccYBPvqZ.s 			page 5


  50              		.cfi_endproc
  51              	.LFE33:
  52              		.size	isr_UsbSuspend_SetVector, .-isr_UsbSuspend_SetVector
  53              		.section	.text.isr_UsbSuspend_GetVector,"ax",%progbits
  54              		.align	1
  55              		.global	isr_UsbSuspend_GetVector
  56              		.thumb
  57              		.thumb_func
  58              		.type	isr_UsbSuspend_GetVector, %function
  59              	isr_UsbSuspend_GetVector:
  60              	.LFB34:
 176:.\Generated_Source\PSoC5/isr_UsbSuspend.c **** 
 177:.\Generated_Source\PSoC5/isr_UsbSuspend.c **** 
 178:.\Generated_Source\PSoC5/isr_UsbSuspend.c **** /*******************************************************************************
 179:.\Generated_Source\PSoC5/isr_UsbSuspend.c **** * Function Name: isr_UsbSuspend_GetVector
 180:.\Generated_Source\PSoC5/isr_UsbSuspend.c **** ********************************************************************************
 181:.\Generated_Source\PSoC5/isr_UsbSuspend.c **** *
 182:.\Generated_Source\PSoC5/isr_UsbSuspend.c **** * Summary:
 183:.\Generated_Source\PSoC5/isr_UsbSuspend.c **** *   Gets the "address" of the current ISR vector for the Interrupt.
 184:.\Generated_Source\PSoC5/isr_UsbSuspend.c **** *
 185:.\Generated_Source\PSoC5/isr_UsbSuspend.c **** * Parameters:
 186:.\Generated_Source\PSoC5/isr_UsbSuspend.c **** *   None
 187:.\Generated_Source\PSoC5/isr_UsbSuspend.c **** *
 188:.\Generated_Source\PSoC5/isr_UsbSuspend.c **** * Return:
 189:.\Generated_Source\PSoC5/isr_UsbSuspend.c **** *   Address of the ISR in the interrupt vector table.
 190:.\Generated_Source\PSoC5/isr_UsbSuspend.c **** *
 191:.\Generated_Source\PSoC5/isr_UsbSuspend.c **** *******************************************************************************/
 192:.\Generated_Source\PSoC5/isr_UsbSuspend.c **** cyisraddress isr_UsbSuspend_GetVector(void)
 193:.\Generated_Source\PSoC5/isr_UsbSuspend.c **** {
  61              		.loc 1 193 0
  62              		.cfi_startproc
  63              		@ args = 0, pretend = 0, frame = 0
  64              		@ frame_needed = 0, uses_anonymous_args = 0
  65              		@ link register save eliminated.
 194:.\Generated_Source\PSoC5/isr_UsbSuspend.c ****     cyisraddress * ramVectorTable;
 195:.\Generated_Source\PSoC5/isr_UsbSuspend.c **** 
 196:.\Generated_Source\PSoC5/isr_UsbSuspend.c ****     ramVectorTable = (cyisraddress *) *CYINT_VECT_TABLE;
  66              		.loc 1 196 0
  67 0000 024B     		ldr	r3, .L7
  68 0002 1B68     		ldr	r3, [r3, #0]
  69              	.LVL2:
 197:.\Generated_Source\PSoC5/isr_UsbSuspend.c **** 
 198:.\Generated_Source\PSoC5/isr_UsbSuspend.c ****     return ramVectorTable[CYINT_IRQ_BASE + (uint32)isr_UsbSuspend__INTC_NUMBER];
 199:.\Generated_Source\PSoC5/isr_UsbSuspend.c **** }
  70              		.loc 1 199 0
  71 0004 D3F88400 		ldr	r0, [r3, #132]
  72 0008 7047     		bx	lr
  73              	.L8:
  74 000a 00BF     		.align	2
  75              	.L7:
  76 000c 08ED00E0 		.word	-536810232
  77              		.cfi_endproc
  78              	.LFE34:
  79              		.size	isr_UsbSuspend_GetVector, .-isr_UsbSuspend_GetVector
  80              		.section	.text.isr_UsbSuspend_SetPriority,"ax",%progbits
  81              		.align	1
  82              		.global	isr_UsbSuspend_SetPriority
ARM GAS  C:\DOCUME~1\ADMINI~1\LOCALS~1\Temp\ccYBPvqZ.s 			page 6


  83              		.thumb
  84              		.thumb_func
  85              		.type	isr_UsbSuspend_SetPriority, %function
  86              	isr_UsbSuspend_SetPriority:
  87              	.LFB35:
 200:.\Generated_Source\PSoC5/isr_UsbSuspend.c **** 
 201:.\Generated_Source\PSoC5/isr_UsbSuspend.c **** 
 202:.\Generated_Source\PSoC5/isr_UsbSuspend.c **** /*******************************************************************************
 203:.\Generated_Source\PSoC5/isr_UsbSuspend.c **** * Function Name: isr_UsbSuspend_SetPriority
 204:.\Generated_Source\PSoC5/isr_UsbSuspend.c **** ********************************************************************************
 205:.\Generated_Source\PSoC5/isr_UsbSuspend.c **** *
 206:.\Generated_Source\PSoC5/isr_UsbSuspend.c **** * Summary:
 207:.\Generated_Source\PSoC5/isr_UsbSuspend.c **** *   Sets the Priority of the Interrupt. Note calling isr_UsbSuspend_Start
 208:.\Generated_Source\PSoC5/isr_UsbSuspend.c **** *   or isr_UsbSuspend_StartEx will override any effect this method 
 209:.\Generated_Source\PSoC5/isr_UsbSuspend.c **** *   would have had. This method should only be called after 
 210:.\Generated_Source\PSoC5/isr_UsbSuspend.c **** *   isr_UsbSuspend_Start or isr_UsbSuspend_StartEx has been called. To set 
 211:.\Generated_Source\PSoC5/isr_UsbSuspend.c **** *   the initial priority for the component use the cydwr file in the tool.
 212:.\Generated_Source\PSoC5/isr_UsbSuspend.c **** *
 213:.\Generated_Source\PSoC5/isr_UsbSuspend.c **** * Parameters:
 214:.\Generated_Source\PSoC5/isr_UsbSuspend.c **** *   priority: Priority of the interrupt. 0 - 7, 0 being the highest.
 215:.\Generated_Source\PSoC5/isr_UsbSuspend.c **** *
 216:.\Generated_Source\PSoC5/isr_UsbSuspend.c **** * Return:
 217:.\Generated_Source\PSoC5/isr_UsbSuspend.c **** *   None
 218:.\Generated_Source\PSoC5/isr_UsbSuspend.c **** *
 219:.\Generated_Source\PSoC5/isr_UsbSuspend.c **** *******************************************************************************/
 220:.\Generated_Source\PSoC5/isr_UsbSuspend.c **** void isr_UsbSuspend_SetPriority(uint8 priority)
 221:.\Generated_Source\PSoC5/isr_UsbSuspend.c **** {
  88              		.loc 1 221 0
  89              		.cfi_startproc
  90              		@ args = 0, pretend = 0, frame = 0
  91              		@ frame_needed = 0, uses_anonymous_args = 0
  92              		@ link register save eliminated.
  93              	.LVL3:
 222:.\Generated_Source\PSoC5/isr_UsbSuspend.c ****     *isr_UsbSuspend_INTC_PRIOR = priority << 5;
  94              		.loc 1 222 0
  95 0000 4001     		lsls	r0, r0, #5
  96              	.LVL4:
  97 0002 024B     		ldr	r3, .L11
  98 0004 C0B2     		uxtb	r0, r0
  99 0006 1870     		strb	r0, [r3, #0]
 223:.\Generated_Source\PSoC5/isr_UsbSuspend.c **** }
 100              		.loc 1 223 0
 101 0008 7047     		bx	lr
 102              	.L12:
 103 000a 00BF     		.align	2
 104              	.L11:
 105 000c 11E400E0 		.word	-536812527
 106              		.cfi_endproc
 107              	.LFE35:
 108              		.size	isr_UsbSuspend_SetPriority, .-isr_UsbSuspend_SetPriority
 109              		.section	.text.isr_UsbSuspend_GetPriority,"ax",%progbits
 110              		.align	1
 111              		.global	isr_UsbSuspend_GetPriority
 112              		.thumb
 113              		.thumb_func
 114              		.type	isr_UsbSuspend_GetPriority, %function
 115              	isr_UsbSuspend_GetPriority:
ARM GAS  C:\DOCUME~1\ADMINI~1\LOCALS~1\Temp\ccYBPvqZ.s 			page 7


 116              	.LFB36:
 224:.\Generated_Source\PSoC5/isr_UsbSuspend.c **** 
 225:.\Generated_Source\PSoC5/isr_UsbSuspend.c **** 
 226:.\Generated_Source\PSoC5/isr_UsbSuspend.c **** /*******************************************************************************
 227:.\Generated_Source\PSoC5/isr_UsbSuspend.c **** * Function Name: isr_UsbSuspend_GetPriority
 228:.\Generated_Source\PSoC5/isr_UsbSuspend.c **** ********************************************************************************
 229:.\Generated_Source\PSoC5/isr_UsbSuspend.c **** *
 230:.\Generated_Source\PSoC5/isr_UsbSuspend.c **** * Summary:
 231:.\Generated_Source\PSoC5/isr_UsbSuspend.c **** *   Gets the Priority of the Interrupt.
 232:.\Generated_Source\PSoC5/isr_UsbSuspend.c **** *
 233:.\Generated_Source\PSoC5/isr_UsbSuspend.c **** * Parameters:
 234:.\Generated_Source\PSoC5/isr_UsbSuspend.c **** *   None
 235:.\Generated_Source\PSoC5/isr_UsbSuspend.c **** *
 236:.\Generated_Source\PSoC5/isr_UsbSuspend.c **** * Return:
 237:.\Generated_Source\PSoC5/isr_UsbSuspend.c **** *   Priority of the interrupt. 0 - 7, 0 being the highest.
 238:.\Generated_Source\PSoC5/isr_UsbSuspend.c **** *
 239:.\Generated_Source\PSoC5/isr_UsbSuspend.c **** *******************************************************************************/
 240:.\Generated_Source\PSoC5/isr_UsbSuspend.c **** uint8 isr_UsbSuspend_GetPriority(void)
 241:.\Generated_Source\PSoC5/isr_UsbSuspend.c **** {
 117              		.loc 1 241 0
 118              		.cfi_startproc
 119              		@ args = 0, pretend = 0, frame = 0
 120              		@ frame_needed = 0, uses_anonymous_args = 0
 121              		@ link register save eliminated.
 242:.\Generated_Source\PSoC5/isr_UsbSuspend.c ****     uint8 priority;
 243:.\Generated_Source\PSoC5/isr_UsbSuspend.c **** 
 244:.\Generated_Source\PSoC5/isr_UsbSuspend.c **** 
 245:.\Generated_Source\PSoC5/isr_UsbSuspend.c ****     priority = *isr_UsbSuspend_INTC_PRIOR >> 5;
 122              		.loc 1 245 0
 123 0000 014B     		ldr	r3, .L15
 124 0002 1878     		ldrb	r0, [r3, #0]	@ zero_extendqisi2
 246:.\Generated_Source\PSoC5/isr_UsbSuspend.c **** 
 247:.\Generated_Source\PSoC5/isr_UsbSuspend.c ****     return priority;
 248:.\Generated_Source\PSoC5/isr_UsbSuspend.c **** }
 125              		.loc 1 248 0
 126 0004 4009     		lsrs	r0, r0, #5
 127 0006 7047     		bx	lr
 128              	.L16:
 129              		.align	2
 130              	.L15:
 131 0008 11E400E0 		.word	-536812527
 132              		.cfi_endproc
 133              	.LFE36:
 134              		.size	isr_UsbSuspend_GetPriority, .-isr_UsbSuspend_GetPriority
 135              		.section	.text.isr_UsbSuspend_Enable,"ax",%progbits
 136              		.align	1
 137              		.global	isr_UsbSuspend_Enable
 138              		.thumb
 139              		.thumb_func
 140              		.type	isr_UsbSuspend_Enable, %function
 141              	isr_UsbSuspend_Enable:
 142              	.LFB37:
 249:.\Generated_Source\PSoC5/isr_UsbSuspend.c **** 
 250:.\Generated_Source\PSoC5/isr_UsbSuspend.c **** 
 251:.\Generated_Source\PSoC5/isr_UsbSuspend.c **** /*******************************************************************************
 252:.\Generated_Source\PSoC5/isr_UsbSuspend.c **** * Function Name: isr_UsbSuspend_Enable
 253:.\Generated_Source\PSoC5/isr_UsbSuspend.c **** ********************************************************************************
ARM GAS  C:\DOCUME~1\ADMINI~1\LOCALS~1\Temp\ccYBPvqZ.s 			page 8


 254:.\Generated_Source\PSoC5/isr_UsbSuspend.c **** *
 255:.\Generated_Source\PSoC5/isr_UsbSuspend.c **** * Summary:
 256:.\Generated_Source\PSoC5/isr_UsbSuspend.c **** *   Enables the interrupt.
 257:.\Generated_Source\PSoC5/isr_UsbSuspend.c **** *
 258:.\Generated_Source\PSoC5/isr_UsbSuspend.c **** * Parameters:
 259:.\Generated_Source\PSoC5/isr_UsbSuspend.c **** *   None
 260:.\Generated_Source\PSoC5/isr_UsbSuspend.c **** *
 261:.\Generated_Source\PSoC5/isr_UsbSuspend.c **** * Return:
 262:.\Generated_Source\PSoC5/isr_UsbSuspend.c **** *   None
 263:.\Generated_Source\PSoC5/isr_UsbSuspend.c **** *
 264:.\Generated_Source\PSoC5/isr_UsbSuspend.c **** *******************************************************************************/
 265:.\Generated_Source\PSoC5/isr_UsbSuspend.c **** void isr_UsbSuspend_Enable(void)
 266:.\Generated_Source\PSoC5/isr_UsbSuspend.c **** {
 143              		.loc 1 266 0
 144              		.cfi_startproc
 145              		@ args = 0, pretend = 0, frame = 0
 146              		@ frame_needed = 0, uses_anonymous_args = 0
 147              		@ link register save eliminated.
 267:.\Generated_Source\PSoC5/isr_UsbSuspend.c ****     /* Enable the general interrupt. */
 268:.\Generated_Source\PSoC5/isr_UsbSuspend.c ****     *isr_UsbSuspend_INTC_SET_EN = isr_UsbSuspend__INTC_MASK;
 148              		.loc 1 268 0
 149 0000 024B     		ldr	r3, .L19
 150 0002 4FF40032 		mov	r2, #131072
 151 0006 1A60     		str	r2, [r3, #0]
 269:.\Generated_Source\PSoC5/isr_UsbSuspend.c **** }
 152              		.loc 1 269 0
 153 0008 7047     		bx	lr
 154              	.L20:
 155 000a 00BF     		.align	2
 156              	.L19:
 157 000c 00E100E0 		.word	-536813312
 158              		.cfi_endproc
 159              	.LFE37:
 160              		.size	isr_UsbSuspend_Enable, .-isr_UsbSuspend_Enable
 161              		.section	.text.isr_UsbSuspend_GetState,"ax",%progbits
 162              		.align	1
 163              		.global	isr_UsbSuspend_GetState
 164              		.thumb
 165              		.thumb_func
 166              		.type	isr_UsbSuspend_GetState, %function
 167              	isr_UsbSuspend_GetState:
 168              	.LFB38:
 270:.\Generated_Source\PSoC5/isr_UsbSuspend.c **** 
 271:.\Generated_Source\PSoC5/isr_UsbSuspend.c **** 
 272:.\Generated_Source\PSoC5/isr_UsbSuspend.c **** /*******************************************************************************
 273:.\Generated_Source\PSoC5/isr_UsbSuspend.c **** * Function Name: isr_UsbSuspend_GetState
 274:.\Generated_Source\PSoC5/isr_UsbSuspend.c **** ********************************************************************************
 275:.\Generated_Source\PSoC5/isr_UsbSuspend.c **** *
 276:.\Generated_Source\PSoC5/isr_UsbSuspend.c **** * Summary:
 277:.\Generated_Source\PSoC5/isr_UsbSuspend.c **** *   Gets the state (enabled, disabled) of the Interrupt.
 278:.\Generated_Source\PSoC5/isr_UsbSuspend.c **** *
 279:.\Generated_Source\PSoC5/isr_UsbSuspend.c **** * Parameters:
 280:.\Generated_Source\PSoC5/isr_UsbSuspend.c **** *   None
 281:.\Generated_Source\PSoC5/isr_UsbSuspend.c **** *
 282:.\Generated_Source\PSoC5/isr_UsbSuspend.c **** * Return:
 283:.\Generated_Source\PSoC5/isr_UsbSuspend.c **** *   1 if enabled, 0 if disabled.
 284:.\Generated_Source\PSoC5/isr_UsbSuspend.c **** *
ARM GAS  C:\DOCUME~1\ADMINI~1\LOCALS~1\Temp\ccYBPvqZ.s 			page 9


 285:.\Generated_Source\PSoC5/isr_UsbSuspend.c **** *******************************************************************************/
 286:.\Generated_Source\PSoC5/isr_UsbSuspend.c **** uint8 isr_UsbSuspend_GetState(void)
 287:.\Generated_Source\PSoC5/isr_UsbSuspend.c **** {
 169              		.loc 1 287 0
 170              		.cfi_startproc
 171              		@ args = 0, pretend = 0, frame = 0
 172              		@ frame_needed = 0, uses_anonymous_args = 0
 173              		@ link register save eliminated.
 288:.\Generated_Source\PSoC5/isr_UsbSuspend.c ****     /* Get the state of the general interrupt. */
 289:.\Generated_Source\PSoC5/isr_UsbSuspend.c ****     return ((*isr_UsbSuspend_INTC_SET_EN & (uint32)isr_UsbSuspend__INTC_MASK) != 0u) ? 1u:0u;
 174              		.loc 1 289 0
 175 0000 024B     		ldr	r3, .L23
 176 0002 1868     		ldr	r0, [r3, #0]
 177 0004 400C     		lsrs	r0, r0, #17
 290:.\Generated_Source\PSoC5/isr_UsbSuspend.c **** }
 178              		.loc 1 290 0
 179 0006 00F00100 		and	r0, r0, #1
 180 000a 7047     		bx	lr
 181              	.L24:
 182              		.align	2
 183              	.L23:
 184 000c 00E100E0 		.word	-536813312
 185              		.cfi_endproc
 186              	.LFE38:
 187              		.size	isr_UsbSuspend_GetState, .-isr_UsbSuspend_GetState
 188              		.section	.text.isr_UsbSuspend_Disable,"ax",%progbits
 189              		.align	1
 190              		.global	isr_UsbSuspend_Disable
 191              		.thumb
 192              		.thumb_func
 193              		.type	isr_UsbSuspend_Disable, %function
 194              	isr_UsbSuspend_Disable:
 195              	.LFB39:
 291:.\Generated_Source\PSoC5/isr_UsbSuspend.c **** 
 292:.\Generated_Source\PSoC5/isr_UsbSuspend.c **** 
 293:.\Generated_Source\PSoC5/isr_UsbSuspend.c **** /*******************************************************************************
 294:.\Generated_Source\PSoC5/isr_UsbSuspend.c **** * Function Name: isr_UsbSuspend_Disable
 295:.\Generated_Source\PSoC5/isr_UsbSuspend.c **** ********************************************************************************
 296:.\Generated_Source\PSoC5/isr_UsbSuspend.c **** *
 297:.\Generated_Source\PSoC5/isr_UsbSuspend.c **** * Summary:
 298:.\Generated_Source\PSoC5/isr_UsbSuspend.c **** *   Disables the Interrupt.
 299:.\Generated_Source\PSoC5/isr_UsbSuspend.c **** *
 300:.\Generated_Source\PSoC5/isr_UsbSuspend.c **** * Parameters:
 301:.\Generated_Source\PSoC5/isr_UsbSuspend.c **** *   None
 302:.\Generated_Source\PSoC5/isr_UsbSuspend.c **** *
 303:.\Generated_Source\PSoC5/isr_UsbSuspend.c **** * Return:
 304:.\Generated_Source\PSoC5/isr_UsbSuspend.c **** *   None
 305:.\Generated_Source\PSoC5/isr_UsbSuspend.c **** *
 306:.\Generated_Source\PSoC5/isr_UsbSuspend.c **** *******************************************************************************/
 307:.\Generated_Source\PSoC5/isr_UsbSuspend.c **** void isr_UsbSuspend_Disable(void)
 308:.\Generated_Source\PSoC5/isr_UsbSuspend.c **** {
 196              		.loc 1 308 0
 197              		.cfi_startproc
 198              		@ args = 0, pretend = 0, frame = 0
 199              		@ frame_needed = 0, uses_anonymous_args = 0
 200              		@ link register save eliminated.
 309:.\Generated_Source\PSoC5/isr_UsbSuspend.c ****     /* Disable the general interrupt. */
ARM GAS  C:\DOCUME~1\ADMINI~1\LOCALS~1\Temp\ccYBPvqZ.s 			page 10


 310:.\Generated_Source\PSoC5/isr_UsbSuspend.c ****     *isr_UsbSuspend_INTC_CLR_EN = isr_UsbSuspend__INTC_MASK;
 201              		.loc 1 310 0
 202 0000 024B     		ldr	r3, .L27
 203 0002 4FF40032 		mov	r2, #131072
 204 0006 1A60     		str	r2, [r3, #0]
 311:.\Generated_Source\PSoC5/isr_UsbSuspend.c **** }
 205              		.loc 1 311 0
 206 0008 7047     		bx	lr
 207              	.L28:
 208 000a 00BF     		.align	2
 209              	.L27:
 210 000c 80E100E0 		.word	-536813184
 211              		.cfi_endproc
 212              	.LFE39:
 213              		.size	isr_UsbSuspend_Disable, .-isr_UsbSuspend_Disable
 214              		.section	.text.isr_UsbSuspend_Stop,"ax",%progbits
 215              		.align	1
 216              		.global	isr_UsbSuspend_Stop
 217              		.thumb
 218              		.thumb_func
 219              		.type	isr_UsbSuspend_Stop, %function
 220              	isr_UsbSuspend_Stop:
 221              	.LFB31:
 222              		.loc 1 117 0
 223              		.cfi_startproc
 224              		@ args = 0, pretend = 0, frame = 0
 225              		@ frame_needed = 0, uses_anonymous_args = 0
 226 0000 10B5     		push	{r4, lr}
 227              	.LCFI0:
 228              		.cfi_def_cfa_offset 8
 229              		.loc 1 119 0
 230              		.cfi_offset 14, -4
 231              		.cfi_offset 4, -8
 232 0002 FFF7FEFF 		bl	isr_UsbSuspend_Disable
 233              		.loc 1 122 0
 234 0006 0248     		ldr	r0, .L31
 235              		.loc 1 123 0
 236 0008 BDE81040 		pop	{r4, lr}
 237              		.loc 1 122 0
 238 000c FFF7FEBF 		b	isr_UsbSuspend_SetVector
 239              	.L32:
 240              		.align	2
 241              	.L31:
 242 0010 00000000 		.word	IntDefaultHandler
 243              		.cfi_endproc
 244              	.LFE31:
 245              		.size	isr_UsbSuspend_Stop, .-isr_UsbSuspend_Stop
 246              		.section	.text.isr_UsbSuspend_StartEx,"ax",%progbits
 247              		.align	1
 248              		.global	isr_UsbSuspend_StartEx
 249              		.thumb
 250              		.thumb_func
 251              		.type	isr_UsbSuspend_StartEx, %function
 252              	isr_UsbSuspend_StartEx:
 253              	.LFB30:
 254              		.loc 1 88 0
 255              		.cfi_startproc
ARM GAS  C:\DOCUME~1\ADMINI~1\LOCALS~1\Temp\ccYBPvqZ.s 			page 11


 256              		@ args = 0, pretend = 0, frame = 0
 257              		@ frame_needed = 0, uses_anonymous_args = 0
 258              	.LVL5:
 259 0000 10B5     		push	{r4, lr}
 260              	.LCFI1:
 261              		.cfi_def_cfa_offset 8
 262              		.loc 1 88 0
 263 0002 0446     		mov	r4, r0
 264              		.cfi_offset 14, -4
 265              		.cfi_offset 4, -8
 266              		.loc 1 90 0
 267 0004 FFF7FEFF 		bl	isr_UsbSuspend_Disable
 268              	.LVL6:
 269              		.loc 1 93 0
 270 0008 2046     		mov	r0, r4
 271 000a FFF7FEFF 		bl	isr_UsbSuspend_SetVector
 272              		.loc 1 96 0
 273 000e 0720     		movs	r0, #7
 274 0010 FFF7FEFF 		bl	isr_UsbSuspend_SetPriority
 275              		.loc 1 100 0
 276 0014 BDE81040 		pop	{r4, lr}
 277              		.loc 1 99 0
 278 0018 FFF7FEBF 		b	isr_UsbSuspend_Enable
 279              		.cfi_endproc
 280              	.LFE30:
 281              		.size	isr_UsbSuspend_StartEx, .-isr_UsbSuspend_StartEx
 282              		.section	.text.isr_UsbSuspend_Start,"ax",%progbits
 283              		.align	1
 284              		.global	isr_UsbSuspend_Start
 285              		.thumb
 286              		.thumb_func
 287              		.type	isr_UsbSuspend_Start, %function
 288              	isr_UsbSuspend_Start:
 289              	.LFB29:
 290              		.loc 1 58 0
 291              		.cfi_startproc
 292              		@ args = 0, pretend = 0, frame = 0
 293              		@ frame_needed = 0, uses_anonymous_args = 0
 294 0000 10B5     		push	{r4, lr}
 295              	.LCFI2:
 296              		.cfi_def_cfa_offset 8
 297              		.loc 1 60 0
 298              		.cfi_offset 14, -4
 299              		.cfi_offset 4, -8
 300 0002 FFF7FEFF 		bl	isr_UsbSuspend_Disable
 301              		.loc 1 63 0
 302 0006 0548     		ldr	r0, .L37
 303 0008 FFF7FEFF 		bl	isr_UsbSuspend_SetVector
 304              		.loc 1 66 0
 305 000c 0720     		movs	r0, #7
 306 000e FFF7FEFF 		bl	isr_UsbSuspend_SetPriority
 307              		.loc 1 70 0
 308 0012 BDE81040 		pop	{r4, lr}
 309              		.loc 1 69 0
 310 0016 FFF7FEBF 		b	isr_UsbSuspend_Enable
 311              	.L38:
 312 001a 00BF     		.align	2
ARM GAS  C:\DOCUME~1\ADMINI~1\LOCALS~1\Temp\ccYBPvqZ.s 			page 12


 313              	.L37:
 314 001c 00000000 		.word	isr_UsbSuspend_Interrupt
 315              		.cfi_endproc
 316              	.LFE29:
 317              		.size	isr_UsbSuspend_Start, .-isr_UsbSuspend_Start
 318              		.section	.text.isr_UsbSuspend_SetPending,"ax",%progbits
 319              		.align	1
 320              		.global	isr_UsbSuspend_SetPending
 321              		.thumb
 322              		.thumb_func
 323              		.type	isr_UsbSuspend_SetPending, %function
 324              	isr_UsbSuspend_SetPending:
 325              	.LFB40:
 312:.\Generated_Source\PSoC5/isr_UsbSuspend.c **** 
 313:.\Generated_Source\PSoC5/isr_UsbSuspend.c **** 
 314:.\Generated_Source\PSoC5/isr_UsbSuspend.c **** /*******************************************************************************
 315:.\Generated_Source\PSoC5/isr_UsbSuspend.c **** * Function Name: isr_UsbSuspend_SetPending
 316:.\Generated_Source\PSoC5/isr_UsbSuspend.c **** ********************************************************************************
 317:.\Generated_Source\PSoC5/isr_UsbSuspend.c **** *
 318:.\Generated_Source\PSoC5/isr_UsbSuspend.c **** * Summary:
 319:.\Generated_Source\PSoC5/isr_UsbSuspend.c **** *   Causes the Interrupt to enter the pending state, a software method of
 320:.\Generated_Source\PSoC5/isr_UsbSuspend.c **** *   generating the interrupt.
 321:.\Generated_Source\PSoC5/isr_UsbSuspend.c **** *
 322:.\Generated_Source\PSoC5/isr_UsbSuspend.c **** * Parameters:
 323:.\Generated_Source\PSoC5/isr_UsbSuspend.c **** *   None
 324:.\Generated_Source\PSoC5/isr_UsbSuspend.c **** *
 325:.\Generated_Source\PSoC5/isr_UsbSuspend.c **** * Return:
 326:.\Generated_Source\PSoC5/isr_UsbSuspend.c **** *   None
 327:.\Generated_Source\PSoC5/isr_UsbSuspend.c **** *
 328:.\Generated_Source\PSoC5/isr_UsbSuspend.c **** *******************************************************************************/
 329:.\Generated_Source\PSoC5/isr_UsbSuspend.c **** void isr_UsbSuspend_SetPending(void)
 330:.\Generated_Source\PSoC5/isr_UsbSuspend.c **** {
 326              		.loc 1 330 0
 327              		.cfi_startproc
 328              		@ args = 0, pretend = 0, frame = 0
 329              		@ frame_needed = 0, uses_anonymous_args = 0
 330              		@ link register save eliminated.
 331:.\Generated_Source\PSoC5/isr_UsbSuspend.c ****     *isr_UsbSuspend_INTC_SET_PD = isr_UsbSuspend__INTC_MASK;
 331              		.loc 1 331 0
 332 0000 024B     		ldr	r3, .L41
 333 0002 4FF40032 		mov	r2, #131072
 334 0006 1A60     		str	r2, [r3, #0]
 332:.\Generated_Source\PSoC5/isr_UsbSuspend.c **** }
 335              		.loc 1 332 0
 336 0008 7047     		bx	lr
 337              	.L42:
 338 000a 00BF     		.align	2
 339              	.L41:
 340 000c 00E200E0 		.word	-536813056
 341              		.cfi_endproc
 342              	.LFE40:
 343              		.size	isr_UsbSuspend_SetPending, .-isr_UsbSuspend_SetPending
 344              		.section	.text.isr_UsbSuspend_ClearPending,"ax",%progbits
 345              		.align	1
 346              		.global	isr_UsbSuspend_ClearPending
 347              		.thumb
 348              		.thumb_func
ARM GAS  C:\DOCUME~1\ADMINI~1\LOCALS~1\Temp\ccYBPvqZ.s 			page 13


 349              		.type	isr_UsbSuspend_ClearPending, %function
 350              	isr_UsbSuspend_ClearPending:
 351              	.LFB41:
 333:.\Generated_Source\PSoC5/isr_UsbSuspend.c **** 
 334:.\Generated_Source\PSoC5/isr_UsbSuspend.c **** 
 335:.\Generated_Source\PSoC5/isr_UsbSuspend.c **** /*******************************************************************************
 336:.\Generated_Source\PSoC5/isr_UsbSuspend.c **** * Function Name: isr_UsbSuspend_ClearPending
 337:.\Generated_Source\PSoC5/isr_UsbSuspend.c **** ********************************************************************************
 338:.\Generated_Source\PSoC5/isr_UsbSuspend.c **** *
 339:.\Generated_Source\PSoC5/isr_UsbSuspend.c **** * Summary:
 340:.\Generated_Source\PSoC5/isr_UsbSuspend.c **** *   Clears a pending interrupt.
 341:.\Generated_Source\PSoC5/isr_UsbSuspend.c **** *
 342:.\Generated_Source\PSoC5/isr_UsbSuspend.c **** * Parameters:
 343:.\Generated_Source\PSoC5/isr_UsbSuspend.c **** *   None
 344:.\Generated_Source\PSoC5/isr_UsbSuspend.c **** *
 345:.\Generated_Source\PSoC5/isr_UsbSuspend.c **** * Return:
 346:.\Generated_Source\PSoC5/isr_UsbSuspend.c **** *   None
 347:.\Generated_Source\PSoC5/isr_UsbSuspend.c **** *
 348:.\Generated_Source\PSoC5/isr_UsbSuspend.c **** *******************************************************************************/
 349:.\Generated_Source\PSoC5/isr_UsbSuspend.c **** void isr_UsbSuspend_ClearPending(void)
 350:.\Generated_Source\PSoC5/isr_UsbSuspend.c **** {
 352              		.loc 1 350 0
 353              		.cfi_startproc
 354              		@ args = 0, pretend = 0, frame = 0
 355              		@ frame_needed = 0, uses_anonymous_args = 0
 356              		@ link register save eliminated.
 351:.\Generated_Source\PSoC5/isr_UsbSuspend.c ****     *isr_UsbSuspend_INTC_CLR_PD = isr_UsbSuspend__INTC_MASK;
 357              		.loc 1 351 0
 358 0000 024B     		ldr	r3, .L45
 359 0002 4FF40032 		mov	r2, #131072
 360 0006 1A60     		str	r2, [r3, #0]
 352:.\Generated_Source\PSoC5/isr_UsbSuspend.c **** }
 361              		.loc 1 352 0
 362 0008 7047     		bx	lr
 363              	.L46:
 364 000a 00BF     		.align	2
 365              	.L45:
 366 000c 80E200E0 		.word	-536812928
 367              		.cfi_endproc
 368              	.LFE41:
 369              		.size	isr_UsbSuspend_ClearPending, .-isr_UsbSuspend_ClearPending
 370              		.section	.text.isr_UsbSuspend_Interrupt,"ax",%progbits
 371              		.align	1
 372              		.global	isr_UsbSuspend_Interrupt
 373              		.thumb
 374              		.thumb_func
 375              		.type	isr_UsbSuspend_Interrupt, %function
 376              	isr_UsbSuspend_Interrupt:
 377              	.LFB32:
 378              		.loc 1 143 0
 379              		.cfi_startproc
 380              		@ args = 0, pretend = 0, frame = 0
 381              		@ frame_needed = 0, uses_anonymous_args = 0
 382              		@ link register save eliminated.
 383              		.loc 1 146 0
 384 0000 024B     		ldr	r3, .L49
 385 0002 0122     		movs	r2, #1
ARM GAS  C:\DOCUME~1\ADMINI~1\LOCALS~1\Temp\ccYBPvqZ.s 			page 14


 386 0004 1A70     		strb	r2, [r3, #0]
 387              		.loc 1 149 0
 388              		.loc 1 147 0
 389 0006 FFF7FEBF 		b	Timer_UsbSuspend_ReadStatusRegister
 390              	.L50:
 391 000a 00BF     		.align	2
 392              	.L49:
 393 000c 00000000 		.word	checkActivityFlag
 394              		.cfi_endproc
 395              	.LFE32:
 396              		.size	isr_UsbSuspend_Interrupt, .-isr_UsbSuspend_Interrupt
 397              		.text
 398              	.Letext0: