ARM GAS  C:\DOCUME~1\ADMINI~1\LOCALS~1\Temp\ccjJ9gio.s 			page 1


   1              		.syntax unified
   2              		.cpu cortex-m3
   3              		.fpu softvfp
   4              		.eabi_attribute 20, 1
   5              		.eabi_attribute 21, 1
   6              		.eabi_attribute 23, 3
   7              		.eabi_attribute 24, 1
   8              		.eabi_attribute 25, 1
   9              		.eabi_attribute 26, 1
  10              		.eabi_attribute 30, 4
  11              		.eabi_attribute 18, 4
  12              		.thumb
  13              		.file	"power.c"
  20 0000 21010000 		.text
  20      02006200 
  20      00000201 
  20      FB0E0D00 
  20      01010101 
  21              	.Ltext0:
  22              		.cfi_sections	.debug_frame
  23              		.section	.text.Convert_To_milliVolts,"ax",%progbits
  24              		.align	1
  25              		.global	Convert_To_milliVolts
  26              		.thumb
  27              		.thumb_func
  28              		.type	Convert_To_milliVolts, %function
  29              	Convert_To_milliVolts:
  30              	.LFB32:
  31              		.file 1 ".\\power.c"
   1:.\power.c     **** /*****************************************************************************
   2:.\power.c     **** * File Name: power.c
   3:.\power.c     **** * 
   4:.\power.c     **** * Version 2.03
   5:.\power.c     **** *
   6:.\power.c     **** * Description:
   7:.\power.c     **** *  This file provides the source code to handle the power routines for PSoC 5LP.
   8:.\power.c     **** *
   9:.\power.c     **** * Owner:
  10:.\power.c     **** *	Ranjith M, Applications Engineer (rnjt@cypress.com)
  11:.\power.c     **** *
  12:.\power.c     **** * Related Document:
  13:.\power.c     **** * 	001-85925 - CY8CKIT-042 PSoC 4 Pioneer Kit IROS
  14:.\power.c     **** *
  15:.\power.c     **** * Hardware Dependency:
  16:.\power.c     **** * 	CY8CKIT-042 (KitProg) 
  17:.\power.c     **** *
  18:.\power.c     **** * Code Tested With:
  19:.\power.c     **** * 	Creator 2.2
  20:.\power.c     **** *	GCC1 4.4.1
  21:.\power.c     **** *	CY8CKIT-042 Rev 1
  22:.\power.c     **** *
ARM GAS  C:\DOCUME~1\ADMINI~1\LOCALS~1\Temp\ccjJ9gio.s 			page 2


  23:.\power.c     **** ******************************************************************************
  24:.\power.c     **** * Copyright (2013), Cypress Semiconductor Corporation.
  25:.\power.c     **** ******************************************************************************
  26:.\power.c     **** * This software is owned by Cypress Semiconductor Corporation (Cypress) and is
  27:.\power.c     **** * protected by and subject to worldwide patent protection (United States and
  28:.\power.c     **** * foreign), United States copyright laws and international treaty provisions.
  29:.\power.c     **** * Cypress hereby grants to licensee a personal, non-exclusive, non-transferable
  30:.\power.c     **** * license to copy, use, modify, create derivative works of, and compile the
  31:.\power.c     **** * Cypress Source Code and derivative works for the sole purpose of creating
  32:.\power.c     **** * custom software in support of licensee product to be used only in conjunction
  33:.\power.c     **** * with a Cypress integrated circuit as specified in the applicable agreement.
  34:.\power.c     **** * Any reproduction, modification, translation, compilation, or representation of
  35:.\power.c     **** * this software except as specified above is prohibited without the express
  36:.\power.c     **** * written permission of Cypress.
  37:.\power.c     **** *
  38:.\power.c     **** * Disclaimer: CYPRESS MAKES NO WARRANTY OF ANY KIND, EXPRESS OR IMPLIED, WITH
  39:.\power.c     **** * REGARD TO THIS MATERIAL, INCLUDING, BUT NOT LIMITED TO, THE IMPLIED
  40:.\power.c     **** * WARRANTIES OF MERCHANTABILITY AND FITNESS FOR A PARTICULAR PURPOSE.
  41:.\power.c     **** * Cypress reserves the right to make changes without further notice to the
  42:.\power.c     **** * materials described herein. Cypress does not assume any liability arising out
  43:.\power.c     **** * of the application or use of any product or circuit described herein. Cypress
  44:.\power.c     **** * does not authorize its products for use as critical components in life-support
  45:.\power.c     **** * systems where a malfunction or failure may reasonably be expected to result in
  46:.\power.c     **** * significant injury to the user. The inclusion of Cypress' product in a life-
  47:.\power.c     **** * support systems application implies that the manufacturer assumes all risk of
  48:.\power.c     **** * such use and in doing so indemnifies Cypress against all charges. Use may be
  49:.\power.c     **** * limited by and subject to the applicable Cypress software license agreement.
  50:.\power.c     **** *****************************************************************************/
  51:.\power.c     **** 
  52:.\power.c     **** #include "KitProg.h"
  53:.\power.c     **** 
  54:.\power.c     **** /*****************************************************************************
  55:.\power.c     **** * Local Function Prototypes
  56:.\power.c     **** *****************************************************************************/
  57:.\power.c     **** void VoltageMonitorInit(void);
  58:.\power.c     **** uint16 GetVoltage(void);
  59:.\power.c     **** void GetRange(void);
  60:.\power.c     **** uint16 Convert_To_milliVolts(uint16 counts);
  61:.\power.c     **** void SendPSoCToSleep(void);
  62:.\power.c     **** void ResumeFromSleep(void);
  63:.\power.c     **** void HandleUSBSuspend(void);
  64:.\power.c     **** 
  65:.\power.c     **** /*****************************************************************************
  66:.\power.c     **** * Global Variable Declarations
  67:.\power.c     **** *****************************************************************************/
  68:.\power.c     **** uint8 checkActivityFlag = FALSE;
  69:.\power.c     **** 
  70:.\power.c     **** /*****************************************************************************
  71:.\power.c     **** * Local Global Variable Declarations
  72:.\power.c     **** *****************************************************************************/
  73:.\power.c     **** uint8 range = RANGE_5V0;
  74:.\power.c     **** uint16 result = 0;
  75:.\power.c     **** /*******************************************************************************
  76:.\power.c     **** * Function Name: VoltageMonitorInit()
  77:.\power.c     **** ********************************************************************************
  78:.\power.c     **** * Summary:
  79:.\power.c     **** * Initialize the ADC for voltage monitoring.
ARM GAS  C:\DOCUME~1\ADMINI~1\LOCALS~1\Temp\ccjJ9gio.s 			page 3


  80:.\power.c     **** *
  81:.\power.c     **** * Parameters:
  82:.\power.c     **** *  void
  83:.\power.c     **** *
  84:.\power.c     **** * Return:
  85:.\power.c     **** *  void
  86:.\power.c     **** *
  87:.\power.c     **** *******************************************************************************/
  88:.\power.c     **** void VoltageMonitorInit(void)
  89:.\power.c     **** {
  90:.\power.c     **** 	ADC_Voltage_Target_Start();
  91:.\power.c     **** 	ADC_Voltage_Target_StartConvert();
  92:.\power.c     **** 	GetRange();
  93:.\power.c     **** }
  94:.\power.c     **** 
  95:.\power.c     **** /*******************************************************************************
  96:.\power.c     **** * Function Name: CalADC()
  97:.\power.c     **** ********************************************************************************
  98:.\power.c     **** * Summary:
  99:.\power.c     **** * Get the VDD Range.
 100:.\power.c     **** *
 101:.\power.c     **** * Parameters:
 102:.\power.c     **** *  void
 103:.\power.c     **** *
 104:.\power.c     **** * Return:
 105:.\power.c     **** *  void
 106:.\power.c     **** *
 107:.\power.c     **** *******************************************************************************/
 108:.\power.c     **** void GetRange(void)
 109:.\power.c     **** {
 110:.\power.c     **** 	/* Select the known voltage source VRef for the ADC */
 111:.\power.c     **** 	AMux_Select(0);
 112:.\power.c     **** 	
 113:.\power.c     **** 	/* Calculate the counts for the known voltage source */
 114:.\power.c     **** 	ADC_Voltage_Target_IsEndConversion(ADC_Voltage_Target_WAIT_FOR_RESULT);
 115:.\power.c     **** 	result = ADC_Voltage_Target_GetResult16();
 116:.\power.c     **** 	
 117:.\power.c     **** 	/* Determine the VDD range based on the count value for known input source */
 118:.\power.c     **** 	if(result < THRESHOLD)
 119:.\power.c     **** 	{
 120:.\power.c     **** 		range = RANGE_5V0;
 121:.\power.c     **** 	}
 122:.\power.c     **** 	else
 123:.\power.c     **** 	{
 124:.\power.c     **** 		range = RANGE_3V3;
 125:.\power.c     **** 	}
 126:.\power.c     **** }
 127:.\power.c     **** /*******************************************************************************
 128:.\power.c     **** * Function Name: GetVoltage()
 129:.\power.c     **** ********************************************************************************
 130:.\power.c     **** * Summary:
 131:.\power.c     **** * Calculates the VDD of the PSoC 4
 132:.\power.c     **** *
 133:.\power.c     **** * Parameters:
 134:.\power.c     **** *  void
 135:.\power.c     **** *
 136:.\power.c     **** * Return:
ARM GAS  C:\DOCUME~1\ADMINI~1\LOCALS~1\Temp\ccjJ9gio.s 			page 4


 137:.\power.c     **** *  Voltage in millivolts.
 138:.\power.c     **** *
 139:.\power.c     **** *******************************************************************************/
 140:.\power.c     **** uint16 GetVoltage(void)
 141:.\power.c     **** {
 142:.\power.c     **** 	uint16 targetVoltage = ZERO;
 143:.\power.c     **** 	uint16 targetValue;	
 144:.\power.c     **** 	
 145:.\power.c     **** 	/* Seelct the Vtarget input */
 146:.\power.c     **** 	AMux_Select(1);
 147:.\power.c     **** 	
 148:.\power.c     **** 	/* Calculate the ADC input value */
 149:.\power.c     **** 	ADC_Voltage_Target_IsEndConversion(ADC_Voltage_Target_WAIT_FOR_RESULT);
 150:.\power.c     **** 	targetValue = ADC_Voltage_Target_GetResult16();
 151:.\power.c     **** 	
 152:.\power.c     **** 	/* Convert to milliVolts */
 153:.\power.c     **** 	targetVoltage = Convert_To_milliVolts(targetValue);
 154:.\power.c     **** 	
 155:.\power.c     **** 	/* Account for the resistive divider in the hardware used to sample 
 156:.\power.c     **** 	* the input voltage (1.5K + 3K) */
 157:.\power.c     **** 	targetVoltage = targetVoltage * 3;
 158:.\power.c     **** 	targetVoltage = targetVoltage/2;
 159:.\power.c     **** 	
 160:.\power.c     **** 	return(targetVoltage);
 161:.\power.c     **** }
 162:.\power.c     **** /*******************************************************************************
 163:.\power.c     **** * Function Name: Convert_To_milliVolts()
 164:.\power.c     **** ********************************************************************************
 165:.\power.c     **** * Summary:
 166:.\power.c     **** * Converts the ADC output counts to millivolts. Calcultaion is: 
 167:.\power.c     **** * mV = (counts*5000)/(2^12) or (counts*3300)/(2^12) depending on the voltage range.
 168:.\power.c     **** *
 169:.\power.c     **** * Parameters:
 170:.\power.c     **** *  counts: ADC 12-bit count value
 171:.\power.c     **** *
 172:.\power.c     **** * Return:
 173:.\power.c     **** *  Voltage in millivolts.
 174:.\power.c     **** *
 175:.\power.c     **** *******************************************************************************/
 176:.\power.c     **** uint16 Convert_To_milliVolts(uint16 counts)
 177:.\power.c     **** {
  32              		.loc 1 177 0
  33              		.cfi_startproc
  34              		@ args = 0, pretend = 0, frame = 0
  35              		@ frame_needed = 0, uses_anonymous_args = 0
  36              		@ link register save eliminated.
  37              	.LVL0:
 178:.\power.c     **** 	uint16 voltage = ZERO;
 179:.\power.c     **** 	uint32 intermediate = ZERO;
 180:.\power.c     **** 	
 181:.\power.c     **** 	/*Convert to millivolts based on the input voltage range */
 182:.\power.c     **** 	if(range == RANGE_5V0)
  38              		.loc 1 182 0
  39 0000 054B     		ldr	r3, .L6
  40 0002 1B78     		ldrb	r3, [r3, #0]	@ zero_extendqisi2
  41 0004 012B     		cmp	r3, #1
 183:.\power.c     **** 	{
ARM GAS  C:\DOCUME~1\ADMINI~1\LOCALS~1\Temp\ccjJ9gio.s 			page 5


 184:.\power.c     **** 		intermediate = counts * FIVE_VOLT_MULTIPLIER;
  42              		.loc 1 184 0
  43 0006 0CBF     		ite	eq
  44 0008 41F28833 		movweq	r3, #5000
 185:.\power.c     **** 	}
 186:.\power.c     **** 	else
 187:.\power.c     **** 	{
 188:.\power.c     **** 		intermediate = counts * THREE_VOLT_MULTIPLIER;
  45              		.loc 1 188 0
  46 000c 40F6E443 		movwne	r3, #3300
  47 0010 5843     		muls	r0, r3, r0
  48              	.LVL1:
  49 0012 000B     		lsrs	r0, r0, #12
  50              	.LVL2:
 189:.\power.c     **** 	}
 190:.\power.c     **** 	intermediate = intermediate/TWELVE_BIT_DIVIDER;
 191:.\power.c     **** 	
 192:.\power.c     **** 	/* Convert to 16-bit value */
 193:.\power.c     **** 	voltage = (uint16)intermediate;	
 194:.\power.c     **** 	
 195:.\power.c     **** 	return(voltage);
 196:.\power.c     **** }
  51              		.loc 1 196 0
  52 0014 80B2     		uxth	r0, r0
  53 0016 7047     		bx	lr
  54              	.L7:
  55              		.align	2
  56              	.L6:
  57 0018 00000000 		.word	.LANCHOR0
  58              		.cfi_endproc
  59              	.LFE32:
  60              		.size	Convert_To_milliVolts, .-Convert_To_milliVolts
  61              		.section	.text.ResumeFromSleep,"ax",%progbits
  62              		.align	1
  63              		.global	ResumeFromSleep
  64              		.thumb
  65              		.thumb_func
  66              		.type	ResumeFromSleep, %function
  67              	ResumeFromSleep:
  68              	.LFB35:
 197:.\power.c     **** /*******************************************************************************
 198:.\power.c     **** * Function Name: VoltageMonitorStop()
 199:.\power.c     **** ********************************************************************************
 200:.\power.c     **** * Summary:
 201:.\power.c     **** *  Stops the ADC component used for target voltage monitoring.
 202:.\power.c     **** *
 203:.\power.c     **** * Parameters:
 204:.\power.c     **** *  None
 205:.\power.c     **** *
 206:.\power.c     **** * Return:
 207:.\power.c     **** *  None
 208:.\power.c     **** *
 209:.\power.c     **** *******************************************************************************/
 210:.\power.c     **** void VoltageMonitorStop(void)
 211:.\power.c     **** {
 212:.\power.c     **** 	ADC_Voltage_Target_Sleep();
 213:.\power.c     **** }
ARM GAS  C:\DOCUME~1\ADMINI~1\LOCALS~1\Temp\ccjJ9gio.s 			page 6


 214:.\power.c     **** /*******************************************************************************
 215:.\power.c     **** * Function Name: SendPSoCToSleep()
 216:.\power.c     **** ********************************************************************************
 217:.\power.c     **** * Summary:
 218:.\power.c     **** *  Prepares the PSoC 5LP device for sleep and puts the device in low power mode.
 219:.\power.c     **** *
 220:.\power.c     **** * Parameters:
 221:.\power.c     **** *  None
 222:.\power.c     **** *
 223:.\power.c     **** * Return:
 224:.\power.c     **** *  None
 225:.\power.c     **** *
 226:.\power.c     **** *******************************************************************************/
 227:.\power.c     **** void SendPSoCToSleep(void)
 228:.\power.c     **** {
 229:.\power.c     **** 	Pin_StatusLED_Write(1);
 230:.\power.c     **** 	Timer_UsbSuspend_Stop();	
 231:.\power.c     **** 	UART_Bridge_Stop();
 232:.\power.c     ****     VoltageMonitorStop();
 233:.\power.c     **** 	SWDHalt();
 234:.\power.c     **** 	HostCommStop();
 235:.\power.c     **** 	I2CPullUpDisable();		
 236:.\power.c     **** 	CyPmSaveClocks();
 237:.\power.c     **** 	CyPmSleep(PM_SLEEP_TIME_NONE, PM_SLEEP_SRC_PICU);	
 238:.\power.c     **** }
 239:.\power.c     **** /*******************************************************************************
 240:.\power.c     **** * Function Name: ResumeFromSleep()
 241:.\power.c     **** ********************************************************************************
 242:.\power.c     **** * Summary:
 243:.\power.c     **** *  Restores the configurations of PSoC 5LP after resuming from sleep.
 244:.\power.c     **** *
 245:.\power.c     **** * Parameters:
 246:.\power.c     **** *  None
 247:.\power.c     **** *
 248:.\power.c     **** * Return:
 249:.\power.c     **** *  None
 250:.\power.c     **** *
 251:.\power.c     **** *******************************************************************************/
 252:.\power.c     **** void ResumeFromSleep(void)
 253:.\power.c     **** {
  69              		.loc 1 253 0
  70              		.cfi_startproc
  71              		@ args = 0, pretend = 0, frame = 0
  72              		@ frame_needed = 0, uses_anonymous_args = 0
  73 0000 10B5     		push	{r4, lr}
  74              	.LCFI0:
  75              		.cfi_def_cfa_offset 8
 254:.\power.c     **** 	CyPmRestoreClocks();
  76              		.loc 1 254 0
  77              		.cfi_offset 14, -4
  78              		.cfi_offset 4, -8
  79 0002 FFF7FEFF 		bl	CyPmRestoreClocks
 255:.\power.c     **** 	ProgramInit();
  80              		.loc 1 255 0
  81 0006 FFF7FEFF 		bl	ProgramInit
 256:.\power.c     **** 	HostCommInit();
  82              		.loc 1 256 0
ARM GAS  C:\DOCUME~1\ADMINI~1\LOCALS~1\Temp\ccjJ9gio.s 			page 7


  83 000a FFF7FEFF 		bl	HostCommInit
 257:.\power.c     **** 	SWDInit();
  84              		.loc 1 257 0
  85 000e FFF7FEFF 		bl	SWDInit
 258:.\power.c     **** 	ADC_Voltage_Target_Wakeup();
  86              		.loc 1 258 0
  87 0012 FFF7FEFF 		bl	ADC_Voltage_Target_Wakeup
 259:.\power.c     **** 	ADC_Voltage_Target_StartConvert();
  88              		.loc 1 259 0
  89 0016 FFF7FEFF 		bl	ADC_Voltage_Target_StartConvert
 260:.\power.c     **** 	
 261:.\power.c     **** 	/* Initializes USB-UART interface */
 262:.\power.c     ****     USBUARTInit();
  90              		.loc 1 262 0
  91 001a FFF7FEFF 		bl	USBUARTInit
 263:.\power.c     **** 	
 264:.\power.c     **** 	/* Initializes the timer for handling the USBFS Suspend Activity */
 265:.\power.c     **** 	Timer_UsbSuspend_Start();
  92              		.loc 1 265 0
  93 001e FFF7FEFF 		bl	Timer_UsbSuspend_Start
 266:.\power.c     **** 	bUSBResetDetected = TRUE;
  94              		.loc 1 266 0
  95 0022 044B     		ldr	r3, .L10
  96 0024 0122     		movs	r2, #1
 267:.\power.c     **** 	Pin_StatusLED_Write(0);
  97              		.loc 1 267 0
  98 0026 0020     		movs	r0, #0
  99              		.loc 1 266 0
 100 0028 1A70     		strb	r2, [r3, #0]
 268:.\power.c     **** }
 101              		.loc 1 268 0
 102 002a BDE81040 		pop	{r4, lr}
 103              		.loc 1 267 0
 104 002e FFF7FEBF 		b	Pin_StatusLED_Write
 105              	.L11:
 106 0032 00BF     		.align	2
 107              	.L10:
 108 0034 00000000 		.word	bUSBResetDetected
 109              		.cfi_endproc
 110              	.LFE35:
 111              		.size	ResumeFromSleep, .-ResumeFromSleep
 112              		.section	.text.VoltageMonitorStop,"ax",%progbits
 113              		.align	1
 114              		.global	VoltageMonitorStop
 115              		.thumb
 116              		.thumb_func
 117              		.type	VoltageMonitorStop, %function
 118              	VoltageMonitorStop:
 119              	.LFB33:
 120              		.loc 1 211 0
 121              		.cfi_startproc
 122              		@ args = 0, pretend = 0, frame = 0
 123              		@ frame_needed = 0, uses_anonymous_args = 0
 124              		@ link register save eliminated.
 125              		.loc 1 213 0
 126              		.loc 1 212 0
 127 0000 FFF7FEBF 		b	ADC_Voltage_Target_Sleep
ARM GAS  C:\DOCUME~1\ADMINI~1\LOCALS~1\Temp\ccjJ9gio.s 			page 8


 128              		.cfi_endproc
 129              	.LFE33:
 130              		.size	VoltageMonitorStop, .-VoltageMonitorStop
 131              		.section	.text.SendPSoCToSleep,"ax",%progbits
 132              		.align	1
 133              		.global	SendPSoCToSleep
 134              		.thumb
 135              		.thumb_func
 136              		.type	SendPSoCToSleep, %function
 137              	SendPSoCToSleep:
 138              	.LFB34:
 139              		.loc 1 228 0
 140              		.cfi_startproc
 141              		@ args = 0, pretend = 0, frame = 0
 142              		@ frame_needed = 0, uses_anonymous_args = 0
 143              		.loc 1 229 0
 144 0000 0120     		movs	r0, #1
 145              		.loc 1 228 0
 146 0002 10B5     		push	{r4, lr}
 147              	.LCFI1:
 148              		.cfi_def_cfa_offset 8
 149              		.loc 1 229 0
 150              		.cfi_offset 14, -4
 151              		.cfi_offset 4, -8
 152 0004 FFF7FEFF 		bl	Pin_StatusLED_Write
 153              		.loc 1 230 0
 154 0008 FFF7FEFF 		bl	Timer_UsbSuspend_Stop
 155              		.loc 1 231 0
 156 000c FFF7FEFF 		bl	UART_Bridge_Stop
 157              		.loc 1 232 0
 158 0010 FFF7FEFF 		bl	VoltageMonitorStop
 159              		.loc 1 233 0
 160 0014 FFF7FEFF 		bl	SWDHalt
 161              		.loc 1 234 0
 162 0018 FFF7FEFF 		bl	HostCommStop
 163              		.loc 1 235 0
 164 001c FFF7FEFF 		bl	I2CPullUpDisable
 165              		.loc 1 236 0
 166 0020 FFF7FEFF 		bl	CyPmSaveClocks
 167              		.loc 1 237 0
 168 0024 0020     		movs	r0, #0
 169 0026 4021     		movs	r1, #64
 170              		.loc 1 238 0
 171 0028 BDE81040 		pop	{r4, lr}
 172              		.loc 1 237 0
 173 002c FFF7FEBF 		b	CyPmSleep
 174              		.cfi_endproc
 175              	.LFE34:
 176              		.size	SendPSoCToSleep, .-SendPSoCToSleep
 177              		.section	.text.HandleUSBSuspend,"ax",%progbits
 178              		.align	1
 179              		.global	HandleUSBSuspend
 180              		.thumb
 181              		.thumb_func
 182              		.type	HandleUSBSuspend, %function
 183              	HandleUSBSuspend:
 184              	.LFB36:
ARM GAS  C:\DOCUME~1\ADMINI~1\LOCALS~1\Temp\ccjJ9gio.s 			page 9


 269:.\power.c     **** /*******************************************************************************
 270:.\power.c     **** * Function Name: HandleUSBSuspend()
 271:.\power.c     **** ********************************************************************************
 272:.\power.c     **** * Summary:
 273:.\power.c     **** * 	Handles the USB suspend Event
 274:.\power.c     **** *
 275:.\power.c     **** * Parameters:
 276:.\power.c     **** *  None
 277:.\power.c     **** *
 278:.\power.c     **** * Return:
 279:.\power.c     **** *  None
 280:.\power.c     **** *
 281:.\power.c     **** *******************************************************************************/
 282:.\power.c     **** void HandleUSBSuspend(void)
 283:.\power.c     **** {
 185              		.loc 1 283 0
 186              		.cfi_startproc
 187              		@ args = 0, pretend = 0, frame = 0
 188              		@ frame_needed = 0, uses_anonymous_args = 0
 189 0000 08B5     		push	{r3, lr}
 190              	.LCFI2:
 191              		.cfi_def_cfa_offset 8
 284:.\power.c     **** 	if(checkActivityFlag == TRUE)
 192              		.loc 1 284 0
 193 0002 094B     		ldr	r3, .L21
 194              		.cfi_offset 14, -4
 195              		.cfi_offset 3, -8
 196 0004 1B78     		ldrb	r3, [r3, #0]	@ zero_extendqisi2
 197 0006 012B     		cmp	r3, #1
 198 0008 0DD1     		bne	.L19
 285:.\power.c     **** 	{	
 286:.\power.c     **** 		if(USBFS_CheckActivity() == 0)
 199              		.loc 1 286 0
 200 000a FFF7FEFF 		bl	USBFS_CheckActivity
 201 000e 38B9     		cbnz	r0, .L18
 287:.\power.c     **** 		{
 288:.\power.c     **** 
 289:.\power.c     **** 			USBFS_Suspend();
 202              		.loc 1 289 0
 203 0010 FFF7FEFF 		bl	USBFS_Suspend
 290:.\power.c     **** 			SendPSoCToSleep();
 204              		.loc 1 290 0
 205 0014 FFF7FEFF 		bl	SendPSoCToSleep
 291:.\power.c     **** 			ResumeFromSleep();
 206              		.loc 1 291 0
 207 0018 FFF7FEFF 		bl	ResumeFromSleep
 292:.\power.c     **** 			USBFS_Resume();
 208              		.loc 1 292 0
 209 001c FFF7FEFF 		bl	USBFS_Resume
 210              	.L18:
 293:.\power.c     **** 		}
 294:.\power.c     **** 		else
 295:.\power.c     **** 		{
 296:.\power.c     **** 			/* Do nothing */
 297:.\power.c     **** 		}
 298:.\power.c     **** 		checkActivityFlag = FALSE;
 211              		.loc 1 298 0
ARM GAS  C:\DOCUME~1\ADMINI~1\LOCALS~1\Temp\ccjJ9gio.s 			page 10


 212 0020 014B     		ldr	r3, .L21
 213 0022 0022     		movs	r2, #0
 214 0024 1A70     		strb	r2, [r3, #0]
 215              	.L19:
 216 0026 08BD     		pop	{r3, pc}
 217              	.L22:
 218              		.align	2
 219              	.L21:
 220 0028 00000000 		.word	.LANCHOR1
 221              		.cfi_endproc
 222              	.LFE36:
 223              		.size	HandleUSBSuspend, .-HandleUSBSuspend
 224              		.section	.text.GetVoltage,"ax",%progbits
 225              		.align	1
 226              		.global	GetVoltage
 227              		.thumb
 228              		.thumb_func
 229              		.type	GetVoltage, %function
 230              	GetVoltage:
 231              	.LFB31:
 232              		.loc 1 141 0
 233              		.cfi_startproc
 234              		@ args = 0, pretend = 0, frame = 0
 235              		@ frame_needed = 0, uses_anonymous_args = 0
 236 0000 08B5     		push	{r3, lr}
 237              	.LCFI3:
 238              		.cfi_def_cfa_offset 8
 239              		.loc 1 146 0
 240 0002 0120     		movs	r0, #1
 241              		.cfi_offset 14, -4
 242              		.cfi_offset 3, -8
 243 0004 FFF7FEFF 		bl	AMux_Select
 244              		.loc 1 149 0
 245 0008 0020     		movs	r0, #0
 246 000a FFF7FEFF 		bl	ADC_Voltage_Target_IsEndConversion
 247              		.loc 1 150 0
 248 000e FFF7FEFF 		bl	ADC_Voltage_Target_GetResult16
 249              		.loc 1 153 0
 250 0012 80B2     		uxth	r0, r0
 251 0014 FFF7FEFF 		bl	Convert_To_milliVolts
 252              		.loc 1 157 0
 253 0018 00EB4000 		add	r0, r0, r0, lsl #1
 254 001c 80B2     		uxth	r0, r0
 255              	.LVL3:
 256              		.loc 1 161 0
 257 001e 4008     		lsrs	r0, r0, #1
 258              	.LVL4:
 259 0020 08BD     		pop	{r3, pc}
 260              		.cfi_endproc
 261              	.LFE31:
 262              		.size	GetVoltage, .-GetVoltage
 263              		.section	.text.GetRange,"ax",%progbits
 264              		.align	1
 265              		.global	GetRange
 266              		.thumb
 267              		.thumb_func
 268              		.type	GetRange, %function
ARM GAS  C:\DOCUME~1\ADMINI~1\LOCALS~1\Temp\ccjJ9gio.s 			page 11


 269              	GetRange:
 270              	.LFB30:
 271              		.loc 1 109 0
 272              		.cfi_startproc
 273              		@ args = 0, pretend = 0, frame = 0
 274              		@ frame_needed = 0, uses_anonymous_args = 0
 275 0000 08B5     		push	{r3, lr}
 276              	.LCFI4:
 277              		.cfi_def_cfa_offset 8
 278              		.loc 1 111 0
 279 0002 0020     		movs	r0, #0
 280              		.cfi_offset 14, -4
 281              		.cfi_offset 3, -8
 282 0004 FFF7FEFF 		bl	AMux_Select
 283              		.loc 1 114 0
 284 0008 0020     		movs	r0, #0
 285 000a FFF7FEFF 		bl	ADC_Voltage_Target_IsEndConversion
 286              		.loc 1 115 0
 287 000e FFF7FEFF 		bl	ADC_Voltage_Target_GetResult16
 288 0012 064B     		ldr	r3, .L30
 289 0014 80B2     		uxth	r0, r0
 290              		.loc 1 118 0
 291 0016 B0F57A7F 		cmp	r0, #1000
 292              		.loc 1 115 0
 293 001a 5880     		strh	r0, [r3, #2]	@ movhi
 294 001c 044B     		ldr	r3, .L30+4
 295              		.loc 1 118 0
 296 001e 01D2     		bcs	.L26
 297              		.loc 1 120 0
 298 0020 0122     		movs	r2, #1
 299 0022 00E0     		b	.L29
 300              	.L26:
 301              		.loc 1 124 0
 302 0024 0022     		movs	r2, #0
 303              	.L29:
 304 0026 1A70     		strb	r2, [r3, #0]
 305 0028 08BD     		pop	{r3, pc}
 306              	.L31:
 307 002a 00BF     		.align	2
 308              	.L30:
 309 002c 00000000 		.word	.LANCHOR1
 310 0030 00000000 		.word	.LANCHOR0
 311              		.cfi_endproc
 312              	.LFE30:
 313              		.size	GetRange, .-GetRange
 314              		.section	.text.VoltageMonitorInit,"ax",%progbits
 315              		.align	1
 316              		.global	VoltageMonitorInit
 317              		.thumb
 318              		.thumb_func
 319              		.type	VoltageMonitorInit, %function
 320              	VoltageMonitorInit:
 321              	.LFB29:
 322              		.loc 1 89 0
 323              		.cfi_startproc
 324              		@ args = 0, pretend = 0, frame = 0
 325              		@ frame_needed = 0, uses_anonymous_args = 0
ARM GAS  C:\DOCUME~1\ADMINI~1\LOCALS~1\Temp\ccjJ9gio.s 			page 12


 326 0000 10B5     		push	{r4, lr}
 327              	.LCFI5:
 328              		.cfi_def_cfa_offset 8
 329              		.loc 1 90 0
 330              		.cfi_offset 14, -4
 331              		.cfi_offset 4, -8
 332 0002 FFF7FEFF 		bl	ADC_Voltage_Target_Start
 333              		.loc 1 91 0
 334 0006 FFF7FEFF 		bl	ADC_Voltage_Target_StartConvert
 335              		.loc 1 93 0
 336 000a BDE81040 		pop	{r4, lr}
 337              		.loc 1 92 0
 338 000e FFF7FEBF 		b	GetRange
 339              		.cfi_endproc
 340              	.LFE29:
 341              		.size	VoltageMonitorInit, .-VoltageMonitorInit
 342              		.global	checkActivityFlag
 343              		.global	range
 344              		.global	result
 345              		.data
 346              		.set	.LANCHOR0,. + 0
 347              		.type	range, %object
 348              		.size	range, 1
 349              	range:
 350 0000 01       		.byte	1
 351              		.bss
 352              		.align	1
 353              		.set	.LANCHOR1,. + 0
 354              		.type	checkActivityFlag, %object
 355              		.size	checkActivityFlag, 1
 356              	checkActivityFlag:
 357 0000 00       		.space	1
 358 0001 00       		.space	1
 359              		.type	result, %object
 360              		.size	result, 2
 361              	result:
 362 0002 0000     		.space	2
 363              		.text
 364              	.Letext0: