ARM GAS  C:\DOCUME~1\ADMINI~1\LOCALS~1\Temp\cciKGBW8.s 			page 1


   1              		.syntax unified
   2              		.cpu cortex-m3
   3              		.fpu softvfp
   4              		.eabi_attribute 20, 1
   5              		.eabi_attribute 21, 1
   6              		.eabi_attribute 23, 3
   7              		.eabi_attribute 24, 1
   8              		.eabi_attribute 25, 1
   9              		.eabi_attribute 26, 1
  10              		.eabi_attribute 30, 4
  11              		.eabi_attribute 18, 4
  12              		.thumb
  13              		.file	"Timer_UsbSuspend_PM.c"
  20 0000 D5000000 		.text
  20      02008200 
  20      00000201 
  20      FB0E0D00 
  20      01010101 
  21              	.Ltext0:
  22              		.cfi_sections	.debug_frame
  23              		.section	.text.Timer_UsbSuspend_SaveConfig,"ax",%progbits
  24              		.align	1
  25              		.global	Timer_UsbSuspend_SaveConfig
  26              		.thumb
  27              		.thumb_func
  28              		.type	Timer_UsbSuspend_SaveConfig, %function
  29              	Timer_UsbSuspend_SaveConfig:
  30              	.LFB0:
  31              		.file 1 ".\\Generated_Source\\PSoC5\\Timer_UsbSuspend_PM.c"
   1:.\Generated_Source\PSoC5/Timer_UsbSuspend_PM.c **** /*******************************************************************************
   2:.\Generated_Source\PSoC5/Timer_UsbSuspend_PM.c **** * File Name: Timer_UsbSuspend_PM.c
   3:.\Generated_Source\PSoC5/Timer_UsbSuspend_PM.c **** * Version 2.50
   4:.\Generated_Source\PSoC5/Timer_UsbSuspend_PM.c **** *
   5:.\Generated_Source\PSoC5/Timer_UsbSuspend_PM.c **** *  Description:
   6:.\Generated_Source\PSoC5/Timer_UsbSuspend_PM.c **** *     This file provides the power management source code to API for the
   7:.\Generated_Source\PSoC5/Timer_UsbSuspend_PM.c **** *     Timer.
   8:.\Generated_Source\PSoC5/Timer_UsbSuspend_PM.c **** *
   9:.\Generated_Source\PSoC5/Timer_UsbSuspend_PM.c **** *   Note:
  10:.\Generated_Source\PSoC5/Timer_UsbSuspend_PM.c **** *     None
  11:.\Generated_Source\PSoC5/Timer_UsbSuspend_PM.c **** *
  12:.\Generated_Source\PSoC5/Timer_UsbSuspend_PM.c **** *******************************************************************************
  13:.\Generated_Source\PSoC5/Timer_UsbSuspend_PM.c **** * Copyright 2008-2012, Cypress Semiconductor Corporation.  All rights reserved.
  14:.\Generated_Source\PSoC5/Timer_UsbSuspend_PM.c **** * You may use this file only in accordance with the license, terms, conditions,
  15:.\Generated_Source\PSoC5/Timer_UsbSuspend_PM.c **** * disclaimers, and limitations in the end user license agreement accompanying
  16:.\Generated_Source\PSoC5/Timer_UsbSuspend_PM.c **** * the software package with which this file was provided.
  17:.\Generated_Source\PSoC5/Timer_UsbSuspend_PM.c **** ********************************************************************************/
  18:.\Generated_Source\PSoC5/Timer_UsbSuspend_PM.c **** 
  19:.\Generated_Source\PSoC5/Timer_UsbSuspend_PM.c **** #include "Timer_UsbSuspend.h"
  20:.\Generated_Source\PSoC5/Timer_UsbSuspend_PM.c **** static Timer_UsbSuspend_backupStruct Timer_UsbSuspend_backup;
  21:.\Generated_Source\PSoC5/Timer_UsbSuspend_PM.c **** 
  22:.\Generated_Source\PSoC5/Timer_UsbSuspend_PM.c **** 
ARM GAS  C:\DOCUME~1\ADMINI~1\LOCALS~1\Temp\cciKGBW8.s 			page 2


  23:.\Generated_Source\PSoC5/Timer_UsbSuspend_PM.c **** /*******************************************************************************
  24:.\Generated_Source\PSoC5/Timer_UsbSuspend_PM.c **** * Function Name: Timer_UsbSuspend_SaveConfig
  25:.\Generated_Source\PSoC5/Timer_UsbSuspend_PM.c **** ********************************************************************************
  26:.\Generated_Source\PSoC5/Timer_UsbSuspend_PM.c **** *
  27:.\Generated_Source\PSoC5/Timer_UsbSuspend_PM.c **** * Summary:
  28:.\Generated_Source\PSoC5/Timer_UsbSuspend_PM.c **** *     Save the current user configuration
  29:.\Generated_Source\PSoC5/Timer_UsbSuspend_PM.c **** *
  30:.\Generated_Source\PSoC5/Timer_UsbSuspend_PM.c **** * Parameters:
  31:.\Generated_Source\PSoC5/Timer_UsbSuspend_PM.c **** *  void
  32:.\Generated_Source\PSoC5/Timer_UsbSuspend_PM.c **** *
  33:.\Generated_Source\PSoC5/Timer_UsbSuspend_PM.c **** * Return:
  34:.\Generated_Source\PSoC5/Timer_UsbSuspend_PM.c **** *  void
  35:.\Generated_Source\PSoC5/Timer_UsbSuspend_PM.c **** *
  36:.\Generated_Source\PSoC5/Timer_UsbSuspend_PM.c **** * Global variables:
  37:.\Generated_Source\PSoC5/Timer_UsbSuspend_PM.c **** *  Timer_UsbSuspend_backup:  Variables of this global structure are modified to
  38:.\Generated_Source\PSoC5/Timer_UsbSuspend_PM.c **** *  store the values of non retention configuration registers when Sleep() API is
  39:.\Generated_Source\PSoC5/Timer_UsbSuspend_PM.c **** *  called.
  40:.\Generated_Source\PSoC5/Timer_UsbSuspend_PM.c **** *
  41:.\Generated_Source\PSoC5/Timer_UsbSuspend_PM.c **** *******************************************************************************/
  42:.\Generated_Source\PSoC5/Timer_UsbSuspend_PM.c **** void Timer_UsbSuspend_SaveConfig(void) 
  43:.\Generated_Source\PSoC5/Timer_UsbSuspend_PM.c **** {
  32              		.loc 1 43 0
  33              		.cfi_startproc
  34              		@ args = 0, pretend = 0, frame = 0
  35              		@ frame_needed = 0, uses_anonymous_args = 0
  36              		@ link register save eliminated.
  44:.\Generated_Source\PSoC5/Timer_UsbSuspend_PM.c ****     #if (!Timer_UsbSuspend_UsingFixedFunction)
  45:.\Generated_Source\PSoC5/Timer_UsbSuspend_PM.c ****         /* Backup the UDB non-rentention registers for CY_UDB_V0 */
  46:.\Generated_Source\PSoC5/Timer_UsbSuspend_PM.c ****         #if (CY_UDB_V0)
  47:.\Generated_Source\PSoC5/Timer_UsbSuspend_PM.c ****             Timer_UsbSuspend_backup.TimerUdb = Timer_UsbSuspend_ReadCounter();
  48:.\Generated_Source\PSoC5/Timer_UsbSuspend_PM.c ****             Timer_UsbSuspend_backup.TimerPeriod = Timer_UsbSuspend_ReadPeriod();
  49:.\Generated_Source\PSoC5/Timer_UsbSuspend_PM.c ****             Timer_UsbSuspend_backup.InterruptMaskValue = Timer_UsbSuspend_STATUS_MASK;
  50:.\Generated_Source\PSoC5/Timer_UsbSuspend_PM.c ****             #if (Timer_UsbSuspend_UsingHWCaptureCounter)
  51:.\Generated_Source\PSoC5/Timer_UsbSuspend_PM.c ****                 Timer_UsbSuspend_backup.TimerCaptureCounter = Timer_UsbSuspend_ReadCaptureCount();
  52:.\Generated_Source\PSoC5/Timer_UsbSuspend_PM.c ****             #endif /* Backup the UDB non-rentention register capture counter for CY_UDB_V0 */
  53:.\Generated_Source\PSoC5/Timer_UsbSuspend_PM.c ****         #endif /* Backup the UDB non-rentention registers for CY_UDB_V0 */
  54:.\Generated_Source\PSoC5/Timer_UsbSuspend_PM.c **** 
  55:.\Generated_Source\PSoC5/Timer_UsbSuspend_PM.c ****         #if (CY_UDB_V1)
  56:.\Generated_Source\PSoC5/Timer_UsbSuspend_PM.c ****             Timer_UsbSuspend_backup.TimerUdb = Timer_UsbSuspend_ReadCounter();
  57:.\Generated_Source\PSoC5/Timer_UsbSuspend_PM.c ****             Timer_UsbSuspend_backup.InterruptMaskValue = Timer_UsbSuspend_STATUS_MASK;
  58:.\Generated_Source\PSoC5/Timer_UsbSuspend_PM.c ****             #if (Timer_UsbSuspend_UsingHWCaptureCounter)
  59:.\Generated_Source\PSoC5/Timer_UsbSuspend_PM.c ****                 Timer_UsbSuspend_backup.TimerCaptureCounter = Timer_UsbSuspend_ReadCaptureCount();
  60:.\Generated_Source\PSoC5/Timer_UsbSuspend_PM.c ****             #endif /* Back Up capture counter register  */
  61:.\Generated_Source\PSoC5/Timer_UsbSuspend_PM.c ****         #endif /* Backup non retention registers, interrupt mask and capture counter for CY_UDB_V1 
  62:.\Generated_Source\PSoC5/Timer_UsbSuspend_PM.c **** 
  63:.\Generated_Source\PSoC5/Timer_UsbSuspend_PM.c ****         #if(!Timer_UsbSuspend_ControlRegRemoved)
  64:.\Generated_Source\PSoC5/Timer_UsbSuspend_PM.c ****             Timer_UsbSuspend_backup.TimerControlRegister = Timer_UsbSuspend_ReadControlRegister();
  65:.\Generated_Source\PSoC5/Timer_UsbSuspend_PM.c ****         #endif /* Backup the enable state of the Timer component */
  66:.\Generated_Source\PSoC5/Timer_UsbSuspend_PM.c ****     #endif /* Backup non retention registers in UDB implementation. All fixed function registers ar
  67:.\Generated_Source\PSoC5/Timer_UsbSuspend_PM.c **** }
  37              		.loc 1 67 0
  38 0000 7047     		bx	lr
  39              		.cfi_endproc
  40              	.LFE0:
  41              		.size	Timer_UsbSuspend_SaveConfig, .-Timer_UsbSuspend_SaveConfig
  42              		.section	.text.Timer_UsbSuspend_RestoreConfig,"ax",%progbits
  43              		.align	1
ARM GAS  C:\DOCUME~1\ADMINI~1\LOCALS~1\Temp\cciKGBW8.s 			page 3


  44              		.global	Timer_UsbSuspend_RestoreConfig
  45              		.thumb
  46              		.thumb_func
  47              		.type	Timer_UsbSuspend_RestoreConfig, %function
  48              	Timer_UsbSuspend_RestoreConfig:
  49              	.LFB1:
  68:.\Generated_Source\PSoC5/Timer_UsbSuspend_PM.c **** 
  69:.\Generated_Source\PSoC5/Timer_UsbSuspend_PM.c **** 
  70:.\Generated_Source\PSoC5/Timer_UsbSuspend_PM.c **** /*******************************************************************************
  71:.\Generated_Source\PSoC5/Timer_UsbSuspend_PM.c **** * Function Name: Timer_UsbSuspend_RestoreConfig
  72:.\Generated_Source\PSoC5/Timer_UsbSuspend_PM.c **** ********************************************************************************
  73:.\Generated_Source\PSoC5/Timer_UsbSuspend_PM.c **** *
  74:.\Generated_Source\PSoC5/Timer_UsbSuspend_PM.c **** * Summary:
  75:.\Generated_Source\PSoC5/Timer_UsbSuspend_PM.c **** *  Restores the current user configuration.
  76:.\Generated_Source\PSoC5/Timer_UsbSuspend_PM.c **** *
  77:.\Generated_Source\PSoC5/Timer_UsbSuspend_PM.c **** * Parameters:
  78:.\Generated_Source\PSoC5/Timer_UsbSuspend_PM.c **** *  void
  79:.\Generated_Source\PSoC5/Timer_UsbSuspend_PM.c **** *
  80:.\Generated_Source\PSoC5/Timer_UsbSuspend_PM.c **** * Return:
  81:.\Generated_Source\PSoC5/Timer_UsbSuspend_PM.c **** *  void
  82:.\Generated_Source\PSoC5/Timer_UsbSuspend_PM.c **** *
  83:.\Generated_Source\PSoC5/Timer_UsbSuspend_PM.c **** * Global variables:
  84:.\Generated_Source\PSoC5/Timer_UsbSuspend_PM.c **** *  Timer_UsbSuspend_backup:  Variables of this global structure are used to
  85:.\Generated_Source\PSoC5/Timer_UsbSuspend_PM.c **** *  restore the values of non retention registers on wakeup from sleep mode.
  86:.\Generated_Source\PSoC5/Timer_UsbSuspend_PM.c **** *
  87:.\Generated_Source\PSoC5/Timer_UsbSuspend_PM.c **** *******************************************************************************/
  88:.\Generated_Source\PSoC5/Timer_UsbSuspend_PM.c **** void Timer_UsbSuspend_RestoreConfig(void) 
  89:.\Generated_Source\PSoC5/Timer_UsbSuspend_PM.c **** {   
  50              		.loc 1 89 0
  51              		.cfi_startproc
  52              		@ args = 0, pretend = 0, frame = 0
  53              		@ frame_needed = 0, uses_anonymous_args = 0
  54              		@ link register save eliminated.
  90:.\Generated_Source\PSoC5/Timer_UsbSuspend_PM.c ****     #if (!Timer_UsbSuspend_UsingFixedFunction)
  91:.\Generated_Source\PSoC5/Timer_UsbSuspend_PM.c ****         /* Restore the UDB non-rentention registers for CY_UDB_V0 */
  92:.\Generated_Source\PSoC5/Timer_UsbSuspend_PM.c ****         #if (CY_UDB_V0)
  93:.\Generated_Source\PSoC5/Timer_UsbSuspend_PM.c ****             /* Interrupt State Backup for Critical Region*/
  94:.\Generated_Source\PSoC5/Timer_UsbSuspend_PM.c ****             uint8 Timer_UsbSuspend_interruptState;
  95:.\Generated_Source\PSoC5/Timer_UsbSuspend_PM.c **** 
  96:.\Generated_Source\PSoC5/Timer_UsbSuspend_PM.c ****             Timer_UsbSuspend_WriteCounter(Timer_UsbSuspend_backup.TimerUdb);
  97:.\Generated_Source\PSoC5/Timer_UsbSuspend_PM.c ****             Timer_UsbSuspend_WritePeriod(Timer_UsbSuspend_backup.TimerPeriod);
  98:.\Generated_Source\PSoC5/Timer_UsbSuspend_PM.c ****             /* CyEnterCriticalRegion and CyExitCriticalRegion are used to mark following region cri
  99:.\Generated_Source\PSoC5/Timer_UsbSuspend_PM.c ****             /* Enter Critical Region*/
 100:.\Generated_Source\PSoC5/Timer_UsbSuspend_PM.c ****             Timer_UsbSuspend_interruptState = CyEnterCriticalSection();
 101:.\Generated_Source\PSoC5/Timer_UsbSuspend_PM.c ****             /* Use the interrupt output of the status register for IRQ output */
 102:.\Generated_Source\PSoC5/Timer_UsbSuspend_PM.c ****             Timer_UsbSuspend_STATUS_AUX_CTRL |= Timer_UsbSuspend_STATUS_ACTL_INT_EN_MASK;
 103:.\Generated_Source\PSoC5/Timer_UsbSuspend_PM.c ****             /* Exit Critical Region*/
 104:.\Generated_Source\PSoC5/Timer_UsbSuspend_PM.c ****             CyExitCriticalSection(Timer_UsbSuspend_interruptState);
 105:.\Generated_Source\PSoC5/Timer_UsbSuspend_PM.c ****             Timer_UsbSuspend_STATUS_MASK =Timer_UsbSuspend_backup.InterruptMaskValue;
 106:.\Generated_Source\PSoC5/Timer_UsbSuspend_PM.c ****             #if (Timer_UsbSuspend_UsingHWCaptureCounter)
 107:.\Generated_Source\PSoC5/Timer_UsbSuspend_PM.c ****                 Timer_UsbSuspend_SetCaptureCount(Timer_UsbSuspend_backup.TimerCaptureCounter);
 108:.\Generated_Source\PSoC5/Timer_UsbSuspend_PM.c ****             #endif /* Restore the UDB non-rentention register capture counter for CY_UDB_V0 */
 109:.\Generated_Source\PSoC5/Timer_UsbSuspend_PM.c ****         #endif /* Restore the UDB non-rentention registers for CY_UDB_V0 */
 110:.\Generated_Source\PSoC5/Timer_UsbSuspend_PM.c **** 
 111:.\Generated_Source\PSoC5/Timer_UsbSuspend_PM.c ****         #if (CY_UDB_V1)
 112:.\Generated_Source\PSoC5/Timer_UsbSuspend_PM.c ****             Timer_UsbSuspend_WriteCounter(Timer_UsbSuspend_backup.TimerUdb);
 113:.\Generated_Source\PSoC5/Timer_UsbSuspend_PM.c ****             Timer_UsbSuspend_STATUS_MASK =Timer_UsbSuspend_backup.InterruptMaskValue;
ARM GAS  C:\DOCUME~1\ADMINI~1\LOCALS~1\Temp\cciKGBW8.s 			page 4


 114:.\Generated_Source\PSoC5/Timer_UsbSuspend_PM.c ****             #if (Timer_UsbSuspend_UsingHWCaptureCounter)
 115:.\Generated_Source\PSoC5/Timer_UsbSuspend_PM.c ****                 Timer_UsbSuspend_SetCaptureCount(Timer_UsbSuspend_backup.TimerCaptureCounter);
 116:.\Generated_Source\PSoC5/Timer_UsbSuspend_PM.c ****             #endif /* Restore Capture counter register*/
 117:.\Generated_Source\PSoC5/Timer_UsbSuspend_PM.c ****         #endif /* Restore up non retention registers, interrupt mask and capture counter for CY_UDB
 118:.\Generated_Source\PSoC5/Timer_UsbSuspend_PM.c **** 
 119:.\Generated_Source\PSoC5/Timer_UsbSuspend_PM.c ****         #if(!Timer_UsbSuspend_ControlRegRemoved)
 120:.\Generated_Source\PSoC5/Timer_UsbSuspend_PM.c ****             Timer_UsbSuspend_WriteControlRegister(Timer_UsbSuspend_backup.TimerControlRegister);
 121:.\Generated_Source\PSoC5/Timer_UsbSuspend_PM.c ****         #endif /* Restore the enable state of the Timer component */
 122:.\Generated_Source\PSoC5/Timer_UsbSuspend_PM.c ****     #endif /* Restore non retention registers in the UDB implementation only */
 123:.\Generated_Source\PSoC5/Timer_UsbSuspend_PM.c **** }
  55              		.loc 1 123 0
  56 0000 7047     		bx	lr
  57              		.cfi_endproc
  58              	.LFE1:
  59              		.size	Timer_UsbSuspend_RestoreConfig, .-Timer_UsbSuspend_RestoreConfig
  60              		.section	.text.Timer_UsbSuspend_Wakeup,"ax",%progbits
  61              		.align	1
  62              		.global	Timer_UsbSuspend_Wakeup
  63              		.thumb
  64              		.thumb_func
  65              		.type	Timer_UsbSuspend_Wakeup, %function
  66              	Timer_UsbSuspend_Wakeup:
  67              	.LFB3:
 124:.\Generated_Source\PSoC5/Timer_UsbSuspend_PM.c **** 
 125:.\Generated_Source\PSoC5/Timer_UsbSuspend_PM.c **** 
 126:.\Generated_Source\PSoC5/Timer_UsbSuspend_PM.c **** /*******************************************************************************
 127:.\Generated_Source\PSoC5/Timer_UsbSuspend_PM.c **** * Function Name: Timer_UsbSuspend_Sleep
 128:.\Generated_Source\PSoC5/Timer_UsbSuspend_PM.c **** ********************************************************************************
 129:.\Generated_Source\PSoC5/Timer_UsbSuspend_PM.c **** *
 130:.\Generated_Source\PSoC5/Timer_UsbSuspend_PM.c **** * Summary:
 131:.\Generated_Source\PSoC5/Timer_UsbSuspend_PM.c **** *     Stop and Save the user configuration
 132:.\Generated_Source\PSoC5/Timer_UsbSuspend_PM.c **** *
 133:.\Generated_Source\PSoC5/Timer_UsbSuspend_PM.c **** * Parameters:
 134:.\Generated_Source\PSoC5/Timer_UsbSuspend_PM.c **** *  void
 135:.\Generated_Source\PSoC5/Timer_UsbSuspend_PM.c **** *
 136:.\Generated_Source\PSoC5/Timer_UsbSuspend_PM.c **** * Return:
 137:.\Generated_Source\PSoC5/Timer_UsbSuspend_PM.c **** *  void
 138:.\Generated_Source\PSoC5/Timer_UsbSuspend_PM.c **** *
 139:.\Generated_Source\PSoC5/Timer_UsbSuspend_PM.c **** * Global variables:
 140:.\Generated_Source\PSoC5/Timer_UsbSuspend_PM.c **** *  Timer_UsbSuspend_backup.TimerEnableState:  Is modified depending on the
 141:.\Generated_Source\PSoC5/Timer_UsbSuspend_PM.c **** *  enable state of the block before entering sleep mode.
 142:.\Generated_Source\PSoC5/Timer_UsbSuspend_PM.c **** *
 143:.\Generated_Source\PSoC5/Timer_UsbSuspend_PM.c **** *******************************************************************************/
 144:.\Generated_Source\PSoC5/Timer_UsbSuspend_PM.c **** void Timer_UsbSuspend_Sleep(void) 
 145:.\Generated_Source\PSoC5/Timer_UsbSuspend_PM.c **** {
 146:.\Generated_Source\PSoC5/Timer_UsbSuspend_PM.c ****     #if(!Timer_UsbSuspend_ControlRegRemoved)
 147:.\Generated_Source\PSoC5/Timer_UsbSuspend_PM.c ****         /* Save Counter's enable state */
 148:.\Generated_Source\PSoC5/Timer_UsbSuspend_PM.c ****         if(Timer_UsbSuspend_CTRL_ENABLE == (Timer_UsbSuspend_CONTROL & Timer_UsbSuspend_CTRL_ENABLE
 149:.\Generated_Source\PSoC5/Timer_UsbSuspend_PM.c ****         {
 150:.\Generated_Source\PSoC5/Timer_UsbSuspend_PM.c ****             /* Timer is enabled */
 151:.\Generated_Source\PSoC5/Timer_UsbSuspend_PM.c ****             Timer_UsbSuspend_backup.TimerEnableState = 1u;
 152:.\Generated_Source\PSoC5/Timer_UsbSuspend_PM.c ****         }
 153:.\Generated_Source\PSoC5/Timer_UsbSuspend_PM.c ****         else
 154:.\Generated_Source\PSoC5/Timer_UsbSuspend_PM.c ****         {
 155:.\Generated_Source\PSoC5/Timer_UsbSuspend_PM.c ****             /* Timer is disabled */
 156:.\Generated_Source\PSoC5/Timer_UsbSuspend_PM.c ****             Timer_UsbSuspend_backup.TimerEnableState = 0u;
 157:.\Generated_Source\PSoC5/Timer_UsbSuspend_PM.c ****         }
ARM GAS  C:\DOCUME~1\ADMINI~1\LOCALS~1\Temp\cciKGBW8.s 			page 5


 158:.\Generated_Source\PSoC5/Timer_UsbSuspend_PM.c ****     #endif /* Back up enable state from the Timer control register */
 159:.\Generated_Source\PSoC5/Timer_UsbSuspend_PM.c ****     Timer_UsbSuspend_Stop();
 160:.\Generated_Source\PSoC5/Timer_UsbSuspend_PM.c ****     Timer_UsbSuspend_SaveConfig();
 161:.\Generated_Source\PSoC5/Timer_UsbSuspend_PM.c **** }
 162:.\Generated_Source\PSoC5/Timer_UsbSuspend_PM.c **** 
 163:.\Generated_Source\PSoC5/Timer_UsbSuspend_PM.c **** 
 164:.\Generated_Source\PSoC5/Timer_UsbSuspend_PM.c **** /*******************************************************************************
 165:.\Generated_Source\PSoC5/Timer_UsbSuspend_PM.c **** * Function Name: Timer_UsbSuspend_Wakeup
 166:.\Generated_Source\PSoC5/Timer_UsbSuspend_PM.c **** ********************************************************************************
 167:.\Generated_Source\PSoC5/Timer_UsbSuspend_PM.c **** *
 168:.\Generated_Source\PSoC5/Timer_UsbSuspend_PM.c **** * Summary:
 169:.\Generated_Source\PSoC5/Timer_UsbSuspend_PM.c **** *  Restores and enables the user configuration
 170:.\Generated_Source\PSoC5/Timer_UsbSuspend_PM.c **** *
 171:.\Generated_Source\PSoC5/Timer_UsbSuspend_PM.c **** * Parameters:
 172:.\Generated_Source\PSoC5/Timer_UsbSuspend_PM.c **** *  void
 173:.\Generated_Source\PSoC5/Timer_UsbSuspend_PM.c **** *
 174:.\Generated_Source\PSoC5/Timer_UsbSuspend_PM.c **** * Return:
 175:.\Generated_Source\PSoC5/Timer_UsbSuspend_PM.c **** *  void
 176:.\Generated_Source\PSoC5/Timer_UsbSuspend_PM.c **** *
 177:.\Generated_Source\PSoC5/Timer_UsbSuspend_PM.c **** * Global variables:
 178:.\Generated_Source\PSoC5/Timer_UsbSuspend_PM.c **** *  Timer_UsbSuspend_backup.enableState:  Is used to restore the enable state of
 179:.\Generated_Source\PSoC5/Timer_UsbSuspend_PM.c **** *  block on wakeup from sleep mode.
 180:.\Generated_Source\PSoC5/Timer_UsbSuspend_PM.c **** *
 181:.\Generated_Source\PSoC5/Timer_UsbSuspend_PM.c **** *******************************************************************************/
 182:.\Generated_Source\PSoC5/Timer_UsbSuspend_PM.c **** void Timer_UsbSuspend_Wakeup(void) 
 183:.\Generated_Source\PSoC5/Timer_UsbSuspend_PM.c **** {
  68              		.loc 1 183 0
  69              		.cfi_startproc
  70              		@ args = 0, pretend = 0, frame = 0
  71              		@ frame_needed = 0, uses_anonymous_args = 0
  72              		@ link register save eliminated.
 184:.\Generated_Source\PSoC5/Timer_UsbSuspend_PM.c ****     Timer_UsbSuspend_RestoreConfig();
 185:.\Generated_Source\PSoC5/Timer_UsbSuspend_PM.c ****     #if(!Timer_UsbSuspend_ControlRegRemoved)
 186:.\Generated_Source\PSoC5/Timer_UsbSuspend_PM.c ****         if(Timer_UsbSuspend_backup.TimerEnableState == 1u)
  73              		.loc 1 186 0
  74 0000 034B     		ldr	r3, .L9
  75 0002 1B78     		ldrb	r3, [r3, #0]	@ zero_extendqisi2
  76 0004 012B     		cmp	r3, #1
  77 0006 01D1     		bne	.L7
 187:.\Generated_Source\PSoC5/Timer_UsbSuspend_PM.c ****         {     /* Enable Timer's operation */
 188:.\Generated_Source\PSoC5/Timer_UsbSuspend_PM.c ****                 Timer_UsbSuspend_Enable();
 189:.\Generated_Source\PSoC5/Timer_UsbSuspend_PM.c ****         } /* Do nothing if Timer was disabled before */
 190:.\Generated_Source\PSoC5/Timer_UsbSuspend_PM.c ****     #endif /* Remove this code section if Control register is removed */
 191:.\Generated_Source\PSoC5/Timer_UsbSuspend_PM.c **** }
  78              		.loc 1 191 0
  79              		.loc 1 188 0
  80 0008 FFF7FEBF 		b	Timer_UsbSuspend_Enable
  81              	.L7:
  82 000c 7047     		bx	lr
  83              	.L10:
  84 000e 00BF     		.align	2
  85              	.L9:
  86 0010 00000000 		.word	.LANCHOR0
  87              		.cfi_endproc
  88              	.LFE3:
  89              		.size	Timer_UsbSuspend_Wakeup, .-Timer_UsbSuspend_Wakeup
  90              		.section	.text.Timer_UsbSuspend_Sleep,"ax",%progbits
ARM GAS  C:\DOCUME~1\ADMINI~1\LOCALS~1\Temp\cciKGBW8.s 			page 6


  91              		.align	1
  92              		.global	Timer_UsbSuspend_Sleep
  93              		.thumb
  94              		.thumb_func
  95              		.type	Timer_UsbSuspend_Sleep, %function
  96              	Timer_UsbSuspend_Sleep:
  97              	.LFB2:
  98              		.loc 1 145 0
  99              		.cfi_startproc
 100              		@ args = 0, pretend = 0, frame = 0
 101              		@ frame_needed = 0, uses_anonymous_args = 0
 102              		@ link register save eliminated.
 103              		.loc 1 148 0
 104 0000 044B     		ldr	r3, .L15
 105 0002 1B78     		ldrb	r3, [r3, #0]	@ zero_extendqisi2
 106 0004 13F00102 		ands	r2, r3, #1
 107 0008 034B     		ldr	r3, .L15+4
 108              		.loc 1 151 0
 109 000a 18BF     		it	ne
 110 000c 0122     		movne	r2, #1
 111              		.loc 1 156 0
 112 000e 1A70     		strb	r2, [r3, #0]
 113              		.loc 1 161 0
 114              		.loc 1 159 0
 115 0010 FFF7FEBF 		b	Timer_UsbSuspend_Stop
 116              	.L16:
 117              		.align	2
 118              	.L15:
 119 0014 004F0040 		.word	1073762048
 120 0018 00000000 		.word	.LANCHOR0
 121              		.cfi_endproc
 122              	.LFE2:
 123              		.size	Timer_UsbSuspend_Sleep, .-Timer_UsbSuspend_Sleep
 124              		.bss
 125              		.align	2
 126              		.set	.LANCHOR0,. + 0
 127              		.type	Timer_UsbSuspend_backup, %object
 128              		.size	Timer_UsbSuspend_backup, 1
 129              	Timer_UsbSuspend_backup:
 130 0000 00       		.space	1
 131 0001 000000   		.text
 132              	.Letext0:
 133              		.file 2 ".\\Generated_Source\\PSoC5\\/cytypes.h"
 134              		.file 3 ".\\Generated_Source\\PSoC5\\/Timer_UsbSuspend.h"