ARM GAS  C:\DOCUME~1\ADMINI~1\LOCALS~1\Temp\cc7EA4qV.s 			page 1


   1              		.syntax unified
   2              		.cpu cortex-m3
   3              		.fpu softvfp
   4              		.eabi_attribute 20, 1
   5              		.eabi_attribute 21, 1
   6              		.eabi_attribute 23, 3
   7              		.eabi_attribute 24, 1
   8              		.eabi_attribute 25, 1
   9              		.eabi_attribute 26, 1
  10              		.eabi_attribute 30, 4
  11              		.eabi_attribute 18, 4
  12              		.thumb
  13              		.file	"UART_Bridge.c"
  20 0000 47030000 		.text
  20      02006400 
  20      00000201 
  20      FB0E0D00 
  20      01010101 
  21              	.Ltext0:
  22              		.cfi_sections	.debug_frame
  23              		.section	.text.UART_Bridge_ReadControlRegister,"ax",%progbits
  24              		.align	1
  25              		.global	UART_Bridge_ReadControlRegister
  26              		.thumb
  27              		.thumb_func
  28              		.type	UART_Bridge_ReadControlRegister, %function
  29              	UART_Bridge_ReadControlRegister:
  30              	.LFB4:
  31              		.file 1 ".\\Generated_Source\\PSoC5\\UART_Bridge.c"
   1:.\Generated_Source\PSoC5/UART_Bridge.c **** /*******************************************************************************
   2:.\Generated_Source\PSoC5/UART_Bridge.c **** * File Name: UART_Bridge.c
   3:.\Generated_Source\PSoC5/UART_Bridge.c **** * Version 2.30
   4:.\Generated_Source\PSoC5/UART_Bridge.c **** *
   5:.\Generated_Source\PSoC5/UART_Bridge.c **** * Description:
   6:.\Generated_Source\PSoC5/UART_Bridge.c **** *  This file provides all API functionality of the UART component
   7:.\Generated_Source\PSoC5/UART_Bridge.c **** *
   8:.\Generated_Source\PSoC5/UART_Bridge.c **** * Note:
   9:.\Generated_Source\PSoC5/UART_Bridge.c **** *
  10:.\Generated_Source\PSoC5/UART_Bridge.c **** ********************************************************************************
  11:.\Generated_Source\PSoC5/UART_Bridge.c **** * Copyright 2008-2012, Cypress Semiconductor Corporation.  All rights reserved.
  12:.\Generated_Source\PSoC5/UART_Bridge.c **** * You may use this file only in accordance with the license, terms, conditions,
  13:.\Generated_Source\PSoC5/UART_Bridge.c **** * disclaimers, and limitations in the end user license agreement accompanying
  14:.\Generated_Source\PSoC5/UART_Bridge.c **** * the software package with which this file was provided.
  15:.\Generated_Source\PSoC5/UART_Bridge.c **** *******************************************************************************/
  16:.\Generated_Source\PSoC5/UART_Bridge.c **** 
  17:.\Generated_Source\PSoC5/UART_Bridge.c **** #include "UART_Bridge.h"
  18:.\Generated_Source\PSoC5/UART_Bridge.c **** #include "CyLib.h"
  19:.\Generated_Source\PSoC5/UART_Bridge.c **** #if(UART_Bridge_INTERNAL_CLOCK_USED)
  20:.\Generated_Source\PSoC5/UART_Bridge.c ****     #include "UART_Bridge_IntClock.h"
  21:.\Generated_Source\PSoC5/UART_Bridge.c **** #endif /* End UART_Bridge_INTERNAL_CLOCK_USED */
  22:.\Generated_Source\PSoC5/UART_Bridge.c **** 
ARM GAS  C:\DOCUME~1\ADMINI~1\LOCALS~1\Temp\cc7EA4qV.s 			page 2


  23:.\Generated_Source\PSoC5/UART_Bridge.c **** 
  24:.\Generated_Source\PSoC5/UART_Bridge.c **** /***************************************
  25:.\Generated_Source\PSoC5/UART_Bridge.c **** * Global data allocation
  26:.\Generated_Source\PSoC5/UART_Bridge.c **** ***************************************/
  27:.\Generated_Source\PSoC5/UART_Bridge.c **** 
  28:.\Generated_Source\PSoC5/UART_Bridge.c **** uint8 UART_Bridge_initVar = 0u;
  29:.\Generated_Source\PSoC5/UART_Bridge.c **** #if( UART_Bridge_TX_ENABLED && (UART_Bridge_TXBUFFERSIZE > UART_Bridge_FIFO_LENGTH))
  30:.\Generated_Source\PSoC5/UART_Bridge.c ****     volatile uint8 UART_Bridge_txBuffer[UART_Bridge_TXBUFFERSIZE];
  31:.\Generated_Source\PSoC5/UART_Bridge.c ****     volatile uint8 UART_Bridge_txBufferRead = 0u;
  32:.\Generated_Source\PSoC5/UART_Bridge.c ****     uint8 UART_Bridge_txBufferWrite = 0u;
  33:.\Generated_Source\PSoC5/UART_Bridge.c **** #endif /* End UART_Bridge_TX_ENABLED */
  34:.\Generated_Source\PSoC5/UART_Bridge.c **** #if( ( UART_Bridge_RX_ENABLED || UART_Bridge_HD_ENABLED ) && \
  35:.\Generated_Source\PSoC5/UART_Bridge.c ****      (UART_Bridge_RXBUFFERSIZE > UART_Bridge_FIFO_LENGTH) )
  36:.\Generated_Source\PSoC5/UART_Bridge.c ****     volatile uint8 UART_Bridge_rxBuffer[UART_Bridge_RXBUFFERSIZE];
  37:.\Generated_Source\PSoC5/UART_Bridge.c ****     volatile uint8 UART_Bridge_rxBufferRead = 0u;
  38:.\Generated_Source\PSoC5/UART_Bridge.c ****     volatile uint8 UART_Bridge_rxBufferWrite = 0u;
  39:.\Generated_Source\PSoC5/UART_Bridge.c ****     volatile uint8 UART_Bridge_rxBufferLoopDetect = 0u;
  40:.\Generated_Source\PSoC5/UART_Bridge.c ****     volatile uint8 UART_Bridge_rxBufferOverflow = 0u;
  41:.\Generated_Source\PSoC5/UART_Bridge.c ****     #if (UART_Bridge_RXHW_ADDRESS_ENABLED)
  42:.\Generated_Source\PSoC5/UART_Bridge.c ****         volatile uint8 UART_Bridge_rxAddressMode = UART_Bridge_RXADDRESSMODE;
  43:.\Generated_Source\PSoC5/UART_Bridge.c ****         volatile uint8 UART_Bridge_rxAddressDetected = 0u;
  44:.\Generated_Source\PSoC5/UART_Bridge.c ****     #endif /* End EnableHWAddress */
  45:.\Generated_Source\PSoC5/UART_Bridge.c **** #endif /* End UART_Bridge_RX_ENABLED */
  46:.\Generated_Source\PSoC5/UART_Bridge.c **** 
  47:.\Generated_Source\PSoC5/UART_Bridge.c **** 
  48:.\Generated_Source\PSoC5/UART_Bridge.c **** /*******************************************************************************
  49:.\Generated_Source\PSoC5/UART_Bridge.c **** * Function Name: UART_Bridge_Start
  50:.\Generated_Source\PSoC5/UART_Bridge.c **** ********************************************************************************
  51:.\Generated_Source\PSoC5/UART_Bridge.c **** *
  52:.\Generated_Source\PSoC5/UART_Bridge.c **** * Summary:
  53:.\Generated_Source\PSoC5/UART_Bridge.c **** *  Initialize and Enable the UART component.
  54:.\Generated_Source\PSoC5/UART_Bridge.c **** *  Enable the clock input to enable operation.
  55:.\Generated_Source\PSoC5/UART_Bridge.c **** *
  56:.\Generated_Source\PSoC5/UART_Bridge.c **** * Parameters:
  57:.\Generated_Source\PSoC5/UART_Bridge.c **** *  None.
  58:.\Generated_Source\PSoC5/UART_Bridge.c **** *
  59:.\Generated_Source\PSoC5/UART_Bridge.c **** * Return:
  60:.\Generated_Source\PSoC5/UART_Bridge.c **** *  None.
  61:.\Generated_Source\PSoC5/UART_Bridge.c **** *
  62:.\Generated_Source\PSoC5/UART_Bridge.c **** * Global variables:
  63:.\Generated_Source\PSoC5/UART_Bridge.c **** *  The UART_Bridge_intiVar variable is used to indicate initial
  64:.\Generated_Source\PSoC5/UART_Bridge.c **** *  configuration of this component. The variable is initialized to zero (0u)
  65:.\Generated_Source\PSoC5/UART_Bridge.c **** *  and set to one (1u) the first time UART_Start() is called. This allows for
  66:.\Generated_Source\PSoC5/UART_Bridge.c **** *  component initialization without re-initialization in all subsequent calls
  67:.\Generated_Source\PSoC5/UART_Bridge.c **** *  to the UART_Bridge_Start() routine.
  68:.\Generated_Source\PSoC5/UART_Bridge.c **** *
  69:.\Generated_Source\PSoC5/UART_Bridge.c **** * Reentrant:
  70:.\Generated_Source\PSoC5/UART_Bridge.c **** *  No.
  71:.\Generated_Source\PSoC5/UART_Bridge.c **** *
  72:.\Generated_Source\PSoC5/UART_Bridge.c **** *******************************************************************************/
  73:.\Generated_Source\PSoC5/UART_Bridge.c **** void UART_Bridge_Start(void) 
  74:.\Generated_Source\PSoC5/UART_Bridge.c **** {
  75:.\Generated_Source\PSoC5/UART_Bridge.c ****     /* If not Initialized then initialize all required hardware and software */
  76:.\Generated_Source\PSoC5/UART_Bridge.c ****     if(UART_Bridge_initVar == 0u)
  77:.\Generated_Source\PSoC5/UART_Bridge.c ****     {
  78:.\Generated_Source\PSoC5/UART_Bridge.c ****         UART_Bridge_Init();
  79:.\Generated_Source\PSoC5/UART_Bridge.c ****         UART_Bridge_initVar = 1u;
ARM GAS  C:\DOCUME~1\ADMINI~1\LOCALS~1\Temp\cc7EA4qV.s 			page 3


  80:.\Generated_Source\PSoC5/UART_Bridge.c ****     }
  81:.\Generated_Source\PSoC5/UART_Bridge.c ****     UART_Bridge_Enable();
  82:.\Generated_Source\PSoC5/UART_Bridge.c **** }
  83:.\Generated_Source\PSoC5/UART_Bridge.c **** 
  84:.\Generated_Source\PSoC5/UART_Bridge.c **** 
  85:.\Generated_Source\PSoC5/UART_Bridge.c **** /*******************************************************************************
  86:.\Generated_Source\PSoC5/UART_Bridge.c **** * Function Name: UART_Bridge_Init
  87:.\Generated_Source\PSoC5/UART_Bridge.c **** ********************************************************************************
  88:.\Generated_Source\PSoC5/UART_Bridge.c **** *
  89:.\Generated_Source\PSoC5/UART_Bridge.c **** * Summary:
  90:.\Generated_Source\PSoC5/UART_Bridge.c **** *  Initialize component's parameters to the parameters set by user in the
  91:.\Generated_Source\PSoC5/UART_Bridge.c **** *  customizer of the component placed onto schematic. Usually called in
  92:.\Generated_Source\PSoC5/UART_Bridge.c **** *  UART_Bridge_Start().
  93:.\Generated_Source\PSoC5/UART_Bridge.c **** *
  94:.\Generated_Source\PSoC5/UART_Bridge.c **** * Parameters:
  95:.\Generated_Source\PSoC5/UART_Bridge.c **** *  None.
  96:.\Generated_Source\PSoC5/UART_Bridge.c **** *
  97:.\Generated_Source\PSoC5/UART_Bridge.c **** * Return:
  98:.\Generated_Source\PSoC5/UART_Bridge.c **** *  None.
  99:.\Generated_Source\PSoC5/UART_Bridge.c **** *
 100:.\Generated_Source\PSoC5/UART_Bridge.c **** *******************************************************************************/
 101:.\Generated_Source\PSoC5/UART_Bridge.c **** void UART_Bridge_Init(void) 
 102:.\Generated_Source\PSoC5/UART_Bridge.c **** {
 103:.\Generated_Source\PSoC5/UART_Bridge.c ****     #if(UART_Bridge_RX_ENABLED || UART_Bridge_HD_ENABLED)
 104:.\Generated_Source\PSoC5/UART_Bridge.c **** 
 105:.\Generated_Source\PSoC5/UART_Bridge.c ****         #if(UART_Bridge_RX_INTERRUPT_ENABLED && (UART_Bridge_RXBUFFERSIZE > UART_Bridge_FIFO_LENGTH
 106:.\Generated_Source\PSoC5/UART_Bridge.c ****             /* Set the RX Interrupt. */
 107:.\Generated_Source\PSoC5/UART_Bridge.c ****             (void)CyIntSetVector(UART_Bridge_RX_VECT_NUM, &UART_Bridge_RXISR);
 108:.\Generated_Source\PSoC5/UART_Bridge.c ****             CyIntSetPriority(UART_Bridge_RX_VECT_NUM, UART_Bridge_RX_PRIOR_NUM);
 109:.\Generated_Source\PSoC5/UART_Bridge.c ****         #endif /* End UART_Bridge_RX_INTERRUPT_ENABLED */
 110:.\Generated_Source\PSoC5/UART_Bridge.c **** 
 111:.\Generated_Source\PSoC5/UART_Bridge.c ****         #if (UART_Bridge_RXHW_ADDRESS_ENABLED)
 112:.\Generated_Source\PSoC5/UART_Bridge.c ****             UART_Bridge_SetRxAddressMode(UART_Bridge_RXAddressMode);
 113:.\Generated_Source\PSoC5/UART_Bridge.c ****             UART_Bridge_SetRxAddress1(UART_Bridge_RXHWADDRESS1);
 114:.\Generated_Source\PSoC5/UART_Bridge.c ****             UART_Bridge_SetRxAddress2(UART_Bridge_RXHWADDRESS2);
 115:.\Generated_Source\PSoC5/UART_Bridge.c ****         #endif /* End UART_Bridge_RXHW_ADDRESS_ENABLED */
 116:.\Generated_Source\PSoC5/UART_Bridge.c **** 
 117:.\Generated_Source\PSoC5/UART_Bridge.c ****         /* Init Count7 period */
 118:.\Generated_Source\PSoC5/UART_Bridge.c ****         UART_Bridge_RXBITCTR_PERIOD_REG = UART_Bridge_RXBITCTR_INIT;
 119:.\Generated_Source\PSoC5/UART_Bridge.c ****         /* Configure the Initial RX interrupt mask */
 120:.\Generated_Source\PSoC5/UART_Bridge.c ****         UART_Bridge_RXSTATUS_MASK_REG  = UART_Bridge_INIT_RX_INTERRUPTS_MASK;
 121:.\Generated_Source\PSoC5/UART_Bridge.c ****     #endif /* End UART_Bridge_RX_ENABLED || UART_Bridge_HD_ENABLED*/
 122:.\Generated_Source\PSoC5/UART_Bridge.c **** 
 123:.\Generated_Source\PSoC5/UART_Bridge.c ****     #if(UART_Bridge_TX_ENABLED)
 124:.\Generated_Source\PSoC5/UART_Bridge.c ****         #if(UART_Bridge_TX_INTERRUPT_ENABLED && (UART_Bridge_TXBUFFERSIZE > UART_Bridge_FIFO_LENGTH
 125:.\Generated_Source\PSoC5/UART_Bridge.c ****             /* Set the TX Interrupt. */
 126:.\Generated_Source\PSoC5/UART_Bridge.c ****             (void)CyIntSetVector(UART_Bridge_TX_VECT_NUM, &UART_Bridge_TXISR);
 127:.\Generated_Source\PSoC5/UART_Bridge.c ****             CyIntSetPriority(UART_Bridge_TX_VECT_NUM, UART_Bridge_TX_PRIOR_NUM);
 128:.\Generated_Source\PSoC5/UART_Bridge.c ****         #endif /* End UART_Bridge_TX_INTERRUPT_ENABLED */
 129:.\Generated_Source\PSoC5/UART_Bridge.c **** 
 130:.\Generated_Source\PSoC5/UART_Bridge.c ****         /* Write Counter Value for TX Bit Clk Generator*/
 131:.\Generated_Source\PSoC5/UART_Bridge.c ****         #if(UART_Bridge_TXCLKGEN_DP)
 132:.\Generated_Source\PSoC5/UART_Bridge.c ****             UART_Bridge_TXBITCLKGEN_CTR_REG = UART_Bridge_BIT_CENTER;
 133:.\Generated_Source\PSoC5/UART_Bridge.c ****             UART_Bridge_TXBITCLKTX_COMPLETE_REG = (UART_Bridge_NUMBER_OF_DATA_BITS +
 134:.\Generated_Source\PSoC5/UART_Bridge.c ****                         UART_Bridge_NUMBER_OF_START_BIT) * UART_Bridge_OVER_SAMPLE_COUNT;
 135:.\Generated_Source\PSoC5/UART_Bridge.c ****         #else
 136:.\Generated_Source\PSoC5/UART_Bridge.c ****             UART_Bridge_TXBITCTR_PERIOD_REG = ((UART_Bridge_NUMBER_OF_DATA_BITS +
ARM GAS  C:\DOCUME~1\ADMINI~1\LOCALS~1\Temp\cc7EA4qV.s 			page 4


 137:.\Generated_Source\PSoC5/UART_Bridge.c ****                         UART_Bridge_NUMBER_OF_START_BIT) * UART_Bridge_OVER_SAMPLE_8) - 1u;
 138:.\Generated_Source\PSoC5/UART_Bridge.c ****         #endif /* End UART_Bridge_TXCLKGEN_DP */
 139:.\Generated_Source\PSoC5/UART_Bridge.c **** 
 140:.\Generated_Source\PSoC5/UART_Bridge.c ****         /* Configure the Initial TX interrupt mask */
 141:.\Generated_Source\PSoC5/UART_Bridge.c ****         #if(UART_Bridge_TX_INTERRUPT_ENABLED && (UART_Bridge_TXBUFFERSIZE > UART_Bridge_FIFO_LENGTH
 142:.\Generated_Source\PSoC5/UART_Bridge.c ****             UART_Bridge_TXSTATUS_MASK_REG = UART_Bridge_TX_STS_FIFO_EMPTY;
 143:.\Generated_Source\PSoC5/UART_Bridge.c ****         #else
 144:.\Generated_Source\PSoC5/UART_Bridge.c ****             UART_Bridge_TXSTATUS_MASK_REG = UART_Bridge_INIT_TX_INTERRUPTS_MASK;
 145:.\Generated_Source\PSoC5/UART_Bridge.c ****         #endif /*End UART_Bridge_TX_INTERRUPT_ENABLED*/
 146:.\Generated_Source\PSoC5/UART_Bridge.c **** 
 147:.\Generated_Source\PSoC5/UART_Bridge.c ****     #endif /* End UART_Bridge_TX_ENABLED */
 148:.\Generated_Source\PSoC5/UART_Bridge.c **** 
 149:.\Generated_Source\PSoC5/UART_Bridge.c ****     #if(UART_Bridge_PARITY_TYPE_SW)  /* Write Parity to Control Register */
 150:.\Generated_Source\PSoC5/UART_Bridge.c ****         UART_Bridge_WriteControlRegister( \
 151:.\Generated_Source\PSoC5/UART_Bridge.c ****             (UART_Bridge_ReadControlRegister() & (uint8)~UART_Bridge_CTRL_PARITY_TYPE_MASK) | \
 152:.\Generated_Source\PSoC5/UART_Bridge.c ****             (uint8)(UART_Bridge_PARITY_TYPE << UART_Bridge_CTRL_PARITY_TYPE0_SHIFT) );
 153:.\Generated_Source\PSoC5/UART_Bridge.c ****     #endif /* End UART_Bridge_PARITY_TYPE_SW */
 154:.\Generated_Source\PSoC5/UART_Bridge.c **** }
 155:.\Generated_Source\PSoC5/UART_Bridge.c **** 
 156:.\Generated_Source\PSoC5/UART_Bridge.c **** 
 157:.\Generated_Source\PSoC5/UART_Bridge.c **** /*******************************************************************************
 158:.\Generated_Source\PSoC5/UART_Bridge.c **** * Function Name: UART_Bridge_Enable
 159:.\Generated_Source\PSoC5/UART_Bridge.c **** ********************************************************************************
 160:.\Generated_Source\PSoC5/UART_Bridge.c **** *
 161:.\Generated_Source\PSoC5/UART_Bridge.c **** * Summary:
 162:.\Generated_Source\PSoC5/UART_Bridge.c **** *  Enables the UART block operation
 163:.\Generated_Source\PSoC5/UART_Bridge.c **** *
 164:.\Generated_Source\PSoC5/UART_Bridge.c **** * Parameters:
 165:.\Generated_Source\PSoC5/UART_Bridge.c **** *  None.
 166:.\Generated_Source\PSoC5/UART_Bridge.c **** *
 167:.\Generated_Source\PSoC5/UART_Bridge.c **** * Return:
 168:.\Generated_Source\PSoC5/UART_Bridge.c **** *  None.
 169:.\Generated_Source\PSoC5/UART_Bridge.c **** *
 170:.\Generated_Source\PSoC5/UART_Bridge.c **** * Global Variables:
 171:.\Generated_Source\PSoC5/UART_Bridge.c **** *  UART_Bridge_rxAddressDetected - set to initial state (0).
 172:.\Generated_Source\PSoC5/UART_Bridge.c **** *
 173:.\Generated_Source\PSoC5/UART_Bridge.c **** *******************************************************************************/
 174:.\Generated_Source\PSoC5/UART_Bridge.c **** void UART_Bridge_Enable(void) 
 175:.\Generated_Source\PSoC5/UART_Bridge.c **** {
 176:.\Generated_Source\PSoC5/UART_Bridge.c ****     uint8 enableInterrupts;
 177:.\Generated_Source\PSoC5/UART_Bridge.c ****     enableInterrupts = CyEnterCriticalSection();
 178:.\Generated_Source\PSoC5/UART_Bridge.c **** 
 179:.\Generated_Source\PSoC5/UART_Bridge.c ****     #if(UART_Bridge_RX_ENABLED || UART_Bridge_HD_ENABLED)
 180:.\Generated_Source\PSoC5/UART_Bridge.c ****         /*RX Counter (Count7) Enable */
 181:.\Generated_Source\PSoC5/UART_Bridge.c ****         UART_Bridge_RXBITCTR_CONTROL_REG |= UART_Bridge_CNTR_ENABLE;
 182:.\Generated_Source\PSoC5/UART_Bridge.c ****         /* Enable the RX Interrupt. */
 183:.\Generated_Source\PSoC5/UART_Bridge.c ****         UART_Bridge_RXSTATUS_ACTL_REG  |= UART_Bridge_INT_ENABLE;
 184:.\Generated_Source\PSoC5/UART_Bridge.c ****         #if(UART_Bridge_RX_INTERRUPT_ENABLED && (UART_Bridge_RXBUFFERSIZE > UART_Bridge_FIFO_LENGTH
 185:.\Generated_Source\PSoC5/UART_Bridge.c ****             CyIntEnable(UART_Bridge_RX_VECT_NUM);
 186:.\Generated_Source\PSoC5/UART_Bridge.c ****             #if (UART_Bridge_RXHW_ADDRESS_ENABLED)
 187:.\Generated_Source\PSoC5/UART_Bridge.c ****                 UART_Bridge_rxAddressDetected = 0u;
 188:.\Generated_Source\PSoC5/UART_Bridge.c ****             #endif /* End UART_Bridge_RXHW_ADDRESS_ENABLED */
 189:.\Generated_Source\PSoC5/UART_Bridge.c ****         #endif /* End UART_Bridge_RX_INTERRUPT_ENABLED */
 190:.\Generated_Source\PSoC5/UART_Bridge.c ****     #endif /* End UART_Bridge_RX_ENABLED || UART_Bridge_HD_ENABLED*/
 191:.\Generated_Source\PSoC5/UART_Bridge.c **** 
 192:.\Generated_Source\PSoC5/UART_Bridge.c ****     #if(UART_Bridge_TX_ENABLED)
 193:.\Generated_Source\PSoC5/UART_Bridge.c ****         /*TX Counter (DP/Count7) Enable */
ARM GAS  C:\DOCUME~1\ADMINI~1\LOCALS~1\Temp\cc7EA4qV.s 			page 5


 194:.\Generated_Source\PSoC5/UART_Bridge.c ****         #if(!UART_Bridge_TXCLKGEN_DP)
 195:.\Generated_Source\PSoC5/UART_Bridge.c ****             UART_Bridge_TXBITCTR_CONTROL_REG |= UART_Bridge_CNTR_ENABLE;
 196:.\Generated_Source\PSoC5/UART_Bridge.c ****         #endif /* End UART_Bridge_TXCLKGEN_DP */
 197:.\Generated_Source\PSoC5/UART_Bridge.c ****         /* Enable the TX Interrupt. */
 198:.\Generated_Source\PSoC5/UART_Bridge.c ****         UART_Bridge_TXSTATUS_ACTL_REG |= UART_Bridge_INT_ENABLE;
 199:.\Generated_Source\PSoC5/UART_Bridge.c ****         #if(UART_Bridge_TX_INTERRUPT_ENABLED && (UART_Bridge_TXBUFFERSIZE > UART_Bridge_FIFO_LENGTH
 200:.\Generated_Source\PSoC5/UART_Bridge.c ****             CyIntEnable(UART_Bridge_TX_VECT_NUM);
 201:.\Generated_Source\PSoC5/UART_Bridge.c ****         #endif /* End UART_Bridge_TX_INTERRUPT_ENABLED*/
 202:.\Generated_Source\PSoC5/UART_Bridge.c ****      #endif /* End UART_Bridge_TX_ENABLED */
 203:.\Generated_Source\PSoC5/UART_Bridge.c **** 
 204:.\Generated_Source\PSoC5/UART_Bridge.c ****     #if(UART_Bridge_INTERNAL_CLOCK_USED)
 205:.\Generated_Source\PSoC5/UART_Bridge.c ****         /* Enable the clock. */
 206:.\Generated_Source\PSoC5/UART_Bridge.c ****         UART_Bridge_IntClock_Start();
 207:.\Generated_Source\PSoC5/UART_Bridge.c ****     #endif /* End UART_Bridge_INTERNAL_CLOCK_USED */
 208:.\Generated_Source\PSoC5/UART_Bridge.c **** 
 209:.\Generated_Source\PSoC5/UART_Bridge.c ****     CyExitCriticalSection(enableInterrupts);
 210:.\Generated_Source\PSoC5/UART_Bridge.c **** }
 211:.\Generated_Source\PSoC5/UART_Bridge.c **** 
 212:.\Generated_Source\PSoC5/UART_Bridge.c **** 
 213:.\Generated_Source\PSoC5/UART_Bridge.c **** /*******************************************************************************
 214:.\Generated_Source\PSoC5/UART_Bridge.c **** * Function Name: UART_Bridge_Stop
 215:.\Generated_Source\PSoC5/UART_Bridge.c **** ********************************************************************************
 216:.\Generated_Source\PSoC5/UART_Bridge.c **** *
 217:.\Generated_Source\PSoC5/UART_Bridge.c **** * Summary:
 218:.\Generated_Source\PSoC5/UART_Bridge.c **** *  Disable the UART component
 219:.\Generated_Source\PSoC5/UART_Bridge.c **** *
 220:.\Generated_Source\PSoC5/UART_Bridge.c **** * Parameters:
 221:.\Generated_Source\PSoC5/UART_Bridge.c **** *  None.
 222:.\Generated_Source\PSoC5/UART_Bridge.c **** *
 223:.\Generated_Source\PSoC5/UART_Bridge.c **** * Return:
 224:.\Generated_Source\PSoC5/UART_Bridge.c **** *  None.
 225:.\Generated_Source\PSoC5/UART_Bridge.c **** *
 226:.\Generated_Source\PSoC5/UART_Bridge.c **** *******************************************************************************/
 227:.\Generated_Source\PSoC5/UART_Bridge.c **** void UART_Bridge_Stop(void) 
 228:.\Generated_Source\PSoC5/UART_Bridge.c **** {
 229:.\Generated_Source\PSoC5/UART_Bridge.c ****     uint8 enableInterrupts;
 230:.\Generated_Source\PSoC5/UART_Bridge.c ****     enableInterrupts = CyEnterCriticalSection();
 231:.\Generated_Source\PSoC5/UART_Bridge.c **** 
 232:.\Generated_Source\PSoC5/UART_Bridge.c ****     /* Write Bit Counter Disable */
 233:.\Generated_Source\PSoC5/UART_Bridge.c ****     #if(UART_Bridge_RX_ENABLED || UART_Bridge_HD_ENABLED)
 234:.\Generated_Source\PSoC5/UART_Bridge.c ****         UART_Bridge_RXBITCTR_CONTROL_REG &= (uint8)~UART_Bridge_CNTR_ENABLE;
 235:.\Generated_Source\PSoC5/UART_Bridge.c ****     #endif /* End UART_Bridge_RX_ENABLED */
 236:.\Generated_Source\PSoC5/UART_Bridge.c **** 
 237:.\Generated_Source\PSoC5/UART_Bridge.c ****     #if(UART_Bridge_TX_ENABLED)
 238:.\Generated_Source\PSoC5/UART_Bridge.c ****         #if(!UART_Bridge_TXCLKGEN_DP)
 239:.\Generated_Source\PSoC5/UART_Bridge.c ****             UART_Bridge_TXBITCTR_CONTROL_REG &= (uint8)~UART_Bridge_CNTR_ENABLE;
 240:.\Generated_Source\PSoC5/UART_Bridge.c ****         #endif /* End UART_Bridge_TXCLKGEN_DP */
 241:.\Generated_Source\PSoC5/UART_Bridge.c ****     #endif /* UART_Bridge_TX_ENABLED */
 242:.\Generated_Source\PSoC5/UART_Bridge.c **** 
 243:.\Generated_Source\PSoC5/UART_Bridge.c ****     #if(UART_Bridge_INTERNAL_CLOCK_USED)
 244:.\Generated_Source\PSoC5/UART_Bridge.c ****         /* Disable the clock. */
 245:.\Generated_Source\PSoC5/UART_Bridge.c ****         UART_Bridge_IntClock_Stop();
 246:.\Generated_Source\PSoC5/UART_Bridge.c ****     #endif /* End UART_Bridge_INTERNAL_CLOCK_USED */
 247:.\Generated_Source\PSoC5/UART_Bridge.c **** 
 248:.\Generated_Source\PSoC5/UART_Bridge.c ****     /* Disable internal interrupt component */
 249:.\Generated_Source\PSoC5/UART_Bridge.c ****     #if(UART_Bridge_RX_ENABLED || UART_Bridge_HD_ENABLED)
 250:.\Generated_Source\PSoC5/UART_Bridge.c ****         UART_Bridge_RXSTATUS_ACTL_REG  &= (uint8)~UART_Bridge_INT_ENABLE;
ARM GAS  C:\DOCUME~1\ADMINI~1\LOCALS~1\Temp\cc7EA4qV.s 			page 6


 251:.\Generated_Source\PSoC5/UART_Bridge.c ****         #if(UART_Bridge_RX_INTERRUPT_ENABLED && (UART_Bridge_RXBUFFERSIZE > UART_Bridge_FIFO_LENGTH
 252:.\Generated_Source\PSoC5/UART_Bridge.c ****             UART_Bridge_DisableRxInt();
 253:.\Generated_Source\PSoC5/UART_Bridge.c ****         #endif /* End UART_Bridge_RX_INTERRUPT_ENABLED */
 254:.\Generated_Source\PSoC5/UART_Bridge.c ****     #endif /* End UART_Bridge_RX_ENABLED */
 255:.\Generated_Source\PSoC5/UART_Bridge.c **** 
 256:.\Generated_Source\PSoC5/UART_Bridge.c ****     #if(UART_Bridge_TX_ENABLED)
 257:.\Generated_Source\PSoC5/UART_Bridge.c ****         UART_Bridge_TXSTATUS_ACTL_REG &= (uint8)~UART_Bridge_INT_ENABLE;
 258:.\Generated_Source\PSoC5/UART_Bridge.c ****         #if(UART_Bridge_TX_INTERRUPT_ENABLED && (UART_Bridge_TXBUFFERSIZE > UART_Bridge_FIFO_LENGTH
 259:.\Generated_Source\PSoC5/UART_Bridge.c ****             UART_Bridge_DisableTxInt();
 260:.\Generated_Source\PSoC5/UART_Bridge.c ****         #endif /* End UART_Bridge_TX_INTERRUPT_ENABLED */
 261:.\Generated_Source\PSoC5/UART_Bridge.c ****     #endif /* End UART_Bridge_TX_ENABLED */
 262:.\Generated_Source\PSoC5/UART_Bridge.c **** 
 263:.\Generated_Source\PSoC5/UART_Bridge.c ****     CyExitCriticalSection(enableInterrupts);
 264:.\Generated_Source\PSoC5/UART_Bridge.c **** }
 265:.\Generated_Source\PSoC5/UART_Bridge.c **** 
 266:.\Generated_Source\PSoC5/UART_Bridge.c **** 
 267:.\Generated_Source\PSoC5/UART_Bridge.c **** /*******************************************************************************
 268:.\Generated_Source\PSoC5/UART_Bridge.c **** * Function Name: UART_Bridge_ReadControlRegister
 269:.\Generated_Source\PSoC5/UART_Bridge.c **** ********************************************************************************
 270:.\Generated_Source\PSoC5/UART_Bridge.c **** *
 271:.\Generated_Source\PSoC5/UART_Bridge.c **** * Summary:
 272:.\Generated_Source\PSoC5/UART_Bridge.c **** *  Read the current state of the control register
 273:.\Generated_Source\PSoC5/UART_Bridge.c **** *
 274:.\Generated_Source\PSoC5/UART_Bridge.c **** * Parameters:
 275:.\Generated_Source\PSoC5/UART_Bridge.c **** *  None.
 276:.\Generated_Source\PSoC5/UART_Bridge.c **** *
 277:.\Generated_Source\PSoC5/UART_Bridge.c **** * Return:
 278:.\Generated_Source\PSoC5/UART_Bridge.c **** *  Current state of the control register.
 279:.\Generated_Source\PSoC5/UART_Bridge.c **** *
 280:.\Generated_Source\PSoC5/UART_Bridge.c **** *******************************************************************************/
 281:.\Generated_Source\PSoC5/UART_Bridge.c **** uint8 UART_Bridge_ReadControlRegister(void) 
 282:.\Generated_Source\PSoC5/UART_Bridge.c **** {
  32              		.loc 1 282 0
  33              		.cfi_startproc
  34              		@ args = 0, pretend = 0, frame = 0
  35              		@ frame_needed = 0, uses_anonymous_args = 0
  36              		@ link register save eliminated.
 283:.\Generated_Source\PSoC5/UART_Bridge.c ****     #if( UART_Bridge_CONTROL_REG_REMOVED )
 284:.\Generated_Source\PSoC5/UART_Bridge.c ****         return(0u);
 285:.\Generated_Source\PSoC5/UART_Bridge.c ****     #else
 286:.\Generated_Source\PSoC5/UART_Bridge.c ****         return(UART_Bridge_CONTROL_REG);
 287:.\Generated_Source\PSoC5/UART_Bridge.c ****     #endif /* End UART_Bridge_CONTROL_REG_REMOVED */
 288:.\Generated_Source\PSoC5/UART_Bridge.c **** }
  37              		.loc 1 288 0
  38 0000 0020     		movs	r0, #0
  39 0002 7047     		bx	lr
  40              		.cfi_endproc
  41              	.LFE4:
  42              		.size	UART_Bridge_ReadControlRegister, .-UART_Bridge_ReadControlRegister
  43              		.section	.text.UART_Bridge_WriteControlRegister,"ax",%progbits
  44              		.align	1
  45              		.global	UART_Bridge_WriteControlRegister
  46              		.thumb
  47              		.thumb_func
  48              		.type	UART_Bridge_WriteControlRegister, %function
  49              	UART_Bridge_WriteControlRegister:
  50              	.LFB5:
ARM GAS  C:\DOCUME~1\ADMINI~1\LOCALS~1\Temp\cc7EA4qV.s 			page 7


 289:.\Generated_Source\PSoC5/UART_Bridge.c **** 
 290:.\Generated_Source\PSoC5/UART_Bridge.c **** 
 291:.\Generated_Source\PSoC5/UART_Bridge.c **** /*******************************************************************************
 292:.\Generated_Source\PSoC5/UART_Bridge.c **** * Function Name: UART_Bridge_WriteControlRegister
 293:.\Generated_Source\PSoC5/UART_Bridge.c **** ********************************************************************************
 294:.\Generated_Source\PSoC5/UART_Bridge.c **** *
 295:.\Generated_Source\PSoC5/UART_Bridge.c **** * Summary:
 296:.\Generated_Source\PSoC5/UART_Bridge.c **** *  Writes an 8-bit value into the control register
 297:.\Generated_Source\PSoC5/UART_Bridge.c **** *
 298:.\Generated_Source\PSoC5/UART_Bridge.c **** * Parameters:
 299:.\Generated_Source\PSoC5/UART_Bridge.c **** *  control:  control register value
 300:.\Generated_Source\PSoC5/UART_Bridge.c **** *
 301:.\Generated_Source\PSoC5/UART_Bridge.c **** * Return:
 302:.\Generated_Source\PSoC5/UART_Bridge.c **** *  None.
 303:.\Generated_Source\PSoC5/UART_Bridge.c **** *
 304:.\Generated_Source\PSoC5/UART_Bridge.c **** *******************************************************************************/
 305:.\Generated_Source\PSoC5/UART_Bridge.c **** void  UART_Bridge_WriteControlRegister(uint8 control) 
 306:.\Generated_Source\PSoC5/UART_Bridge.c **** {
  51              		.loc 1 306 0
  52              		.cfi_startproc
  53              		@ args = 0, pretend = 0, frame = 0
  54              		@ frame_needed = 0, uses_anonymous_args = 0
  55              		@ link register save eliminated.
  56              	.LVL0:
 307:.\Generated_Source\PSoC5/UART_Bridge.c ****     #if( UART_Bridge_CONTROL_REG_REMOVED )
 308:.\Generated_Source\PSoC5/UART_Bridge.c ****         if(control != 0u) { }      /* release compiler warning */
 309:.\Generated_Source\PSoC5/UART_Bridge.c ****     #else
 310:.\Generated_Source\PSoC5/UART_Bridge.c ****        UART_Bridge_CONTROL_REG = control;
 311:.\Generated_Source\PSoC5/UART_Bridge.c ****     #endif /* End UART_Bridge_CONTROL_REG_REMOVED */
 312:.\Generated_Source\PSoC5/UART_Bridge.c **** }
  57              		.loc 1 312 0
  58 0000 7047     		bx	lr
  59              		.cfi_endproc
  60              	.LFE5:
  61              		.size	UART_Bridge_WriteControlRegister, .-UART_Bridge_WriteControlRegister
  62              		.section	.text.UART_Bridge_EnableRxInt,"ax",%progbits
  63              		.align	1
  64              		.global	UART_Bridge_EnableRxInt
  65              		.thumb
  66              		.thumb_func
  67              		.type	UART_Bridge_EnableRxInt, %function
  68              	UART_Bridge_EnableRxInt:
  69              	.LFB6:
 313:.\Generated_Source\PSoC5/UART_Bridge.c **** 
 314:.\Generated_Source\PSoC5/UART_Bridge.c **** 
 315:.\Generated_Source\PSoC5/UART_Bridge.c **** #if(UART_Bridge_RX_ENABLED || UART_Bridge_HD_ENABLED)
 316:.\Generated_Source\PSoC5/UART_Bridge.c **** 
 317:.\Generated_Source\PSoC5/UART_Bridge.c ****     #if(UART_Bridge_RX_INTERRUPT_ENABLED)
 318:.\Generated_Source\PSoC5/UART_Bridge.c **** 
 319:.\Generated_Source\PSoC5/UART_Bridge.c ****         /*******************************************************************************
 320:.\Generated_Source\PSoC5/UART_Bridge.c ****         * Function Name: UART_Bridge_EnableRxInt
 321:.\Generated_Source\PSoC5/UART_Bridge.c ****         ********************************************************************************
 322:.\Generated_Source\PSoC5/UART_Bridge.c ****         *
 323:.\Generated_Source\PSoC5/UART_Bridge.c ****         * Summary:
 324:.\Generated_Source\PSoC5/UART_Bridge.c ****         *  Enable RX interrupt generation
 325:.\Generated_Source\PSoC5/UART_Bridge.c ****         *
 326:.\Generated_Source\PSoC5/UART_Bridge.c ****         * Parameters:
ARM GAS  C:\DOCUME~1\ADMINI~1\LOCALS~1\Temp\cc7EA4qV.s 			page 8


 327:.\Generated_Source\PSoC5/UART_Bridge.c ****         *  None.
 328:.\Generated_Source\PSoC5/UART_Bridge.c ****         *
 329:.\Generated_Source\PSoC5/UART_Bridge.c ****         * Return:
 330:.\Generated_Source\PSoC5/UART_Bridge.c ****         *  None.
 331:.\Generated_Source\PSoC5/UART_Bridge.c ****         *
 332:.\Generated_Source\PSoC5/UART_Bridge.c ****         * Theory:
 333:.\Generated_Source\PSoC5/UART_Bridge.c ****         *  Enable the interrupt output -or- the interrupt component itself
 334:.\Generated_Source\PSoC5/UART_Bridge.c ****         *
 335:.\Generated_Source\PSoC5/UART_Bridge.c ****         *******************************************************************************/
 336:.\Generated_Source\PSoC5/UART_Bridge.c ****         void UART_Bridge_EnableRxInt(void) 
 337:.\Generated_Source\PSoC5/UART_Bridge.c ****         {
  70              		.loc 1 337 0
  71              		.cfi_startproc
  72              		@ args = 0, pretend = 0, frame = 0
  73              		@ frame_needed = 0, uses_anonymous_args = 0
  74              		@ link register save eliminated.
 338:.\Generated_Source\PSoC5/UART_Bridge.c ****             CyIntEnable(UART_Bridge_RX_VECT_NUM);
  75              		.loc 1 338 0
  76 0000 014B     		ldr	r3, .L7
  77 0002 0222     		movs	r2, #2
  78 0004 1A60     		str	r2, [r3, #0]
 339:.\Generated_Source\PSoC5/UART_Bridge.c ****         }
  79              		.loc 1 339 0
  80 0006 7047     		bx	lr
  81              	.L8:
  82              		.align	2
  83              	.L7:
  84 0008 00E100E0 		.word	-536813312
  85              		.cfi_endproc
  86              	.LFE6:
  87              		.size	UART_Bridge_EnableRxInt, .-UART_Bridge_EnableRxInt
  88              		.section	.text.UART_Bridge_DisableRxInt,"ax",%progbits
  89              		.align	1
  90              		.global	UART_Bridge_DisableRxInt
  91              		.thumb
  92              		.thumb_func
  93              		.type	UART_Bridge_DisableRxInt, %function
  94              	UART_Bridge_DisableRxInt:
  95              	.LFB7:
 340:.\Generated_Source\PSoC5/UART_Bridge.c **** 
 341:.\Generated_Source\PSoC5/UART_Bridge.c **** 
 342:.\Generated_Source\PSoC5/UART_Bridge.c ****         /*******************************************************************************
 343:.\Generated_Source\PSoC5/UART_Bridge.c ****         * Function Name: UART_Bridge_DisableRxInt
 344:.\Generated_Source\PSoC5/UART_Bridge.c ****         ********************************************************************************
 345:.\Generated_Source\PSoC5/UART_Bridge.c ****         *
 346:.\Generated_Source\PSoC5/UART_Bridge.c ****         * Summary:
 347:.\Generated_Source\PSoC5/UART_Bridge.c ****         *  Disable RX interrupt generation
 348:.\Generated_Source\PSoC5/UART_Bridge.c ****         *
 349:.\Generated_Source\PSoC5/UART_Bridge.c ****         * Parameters:
 350:.\Generated_Source\PSoC5/UART_Bridge.c ****         *  None.
 351:.\Generated_Source\PSoC5/UART_Bridge.c ****         *
 352:.\Generated_Source\PSoC5/UART_Bridge.c ****         * Return:
 353:.\Generated_Source\PSoC5/UART_Bridge.c ****         *  None.
 354:.\Generated_Source\PSoC5/UART_Bridge.c ****         *
 355:.\Generated_Source\PSoC5/UART_Bridge.c ****         * Theory:
 356:.\Generated_Source\PSoC5/UART_Bridge.c ****         *  Disable the interrupt output -or- the interrupt component itself
 357:.\Generated_Source\PSoC5/UART_Bridge.c ****         *
ARM GAS  C:\DOCUME~1\ADMINI~1\LOCALS~1\Temp\cc7EA4qV.s 			page 9


 358:.\Generated_Source\PSoC5/UART_Bridge.c ****         *******************************************************************************/
 359:.\Generated_Source\PSoC5/UART_Bridge.c ****         void UART_Bridge_DisableRxInt(void) 
 360:.\Generated_Source\PSoC5/UART_Bridge.c ****         {
  96              		.loc 1 360 0
  97              		.cfi_startproc
  98              		@ args = 0, pretend = 0, frame = 0
  99              		@ frame_needed = 0, uses_anonymous_args = 0
 100              		@ link register save eliminated.
 361:.\Generated_Source\PSoC5/UART_Bridge.c ****             CyIntDisable(UART_Bridge_RX_VECT_NUM);
 101              		.loc 1 361 0
 102 0000 014B     		ldr	r3, .L11
 103 0002 0222     		movs	r2, #2
 104 0004 1A60     		str	r2, [r3, #0]
 362:.\Generated_Source\PSoC5/UART_Bridge.c ****         }
 105              		.loc 1 362 0
 106 0006 7047     		bx	lr
 107              	.L12:
 108              		.align	2
 109              	.L11:
 110 0008 80E100E0 		.word	-536813184
 111              		.cfi_endproc
 112              	.LFE7:
 113              		.size	UART_Bridge_DisableRxInt, .-UART_Bridge_DisableRxInt
 114              		.section	.text.UART_Bridge_SetRxInterruptMode,"ax",%progbits
 115              		.align	1
 116              		.global	UART_Bridge_SetRxInterruptMode
 117              		.thumb
 118              		.thumb_func
 119              		.type	UART_Bridge_SetRxInterruptMode, %function
 120              	UART_Bridge_SetRxInterruptMode:
 121              	.LFB8:
 363:.\Generated_Source\PSoC5/UART_Bridge.c **** 
 364:.\Generated_Source\PSoC5/UART_Bridge.c ****     #endif /* UART_Bridge_RX_INTERRUPT_ENABLED */
 365:.\Generated_Source\PSoC5/UART_Bridge.c **** 
 366:.\Generated_Source\PSoC5/UART_Bridge.c **** 
 367:.\Generated_Source\PSoC5/UART_Bridge.c ****     /*******************************************************************************
 368:.\Generated_Source\PSoC5/UART_Bridge.c ****     * Function Name: UART_Bridge_SetRxInterruptMode
 369:.\Generated_Source\PSoC5/UART_Bridge.c ****     ********************************************************************************
 370:.\Generated_Source\PSoC5/UART_Bridge.c ****     *
 371:.\Generated_Source\PSoC5/UART_Bridge.c ****     * Summary:
 372:.\Generated_Source\PSoC5/UART_Bridge.c ****     *  Configure which status bits trigger an interrupt event
 373:.\Generated_Source\PSoC5/UART_Bridge.c ****     *
 374:.\Generated_Source\PSoC5/UART_Bridge.c ****     * Parameters:
 375:.\Generated_Source\PSoC5/UART_Bridge.c ****     *  IntSrc:  An or'd combination of the desired status bit masks (defined in
 376:.\Generated_Source\PSoC5/UART_Bridge.c ****     *           the header file)
 377:.\Generated_Source\PSoC5/UART_Bridge.c ****     *
 378:.\Generated_Source\PSoC5/UART_Bridge.c ****     * Return:
 379:.\Generated_Source\PSoC5/UART_Bridge.c ****     *  None.
 380:.\Generated_Source\PSoC5/UART_Bridge.c ****     *
 381:.\Generated_Source\PSoC5/UART_Bridge.c ****     * Theory:
 382:.\Generated_Source\PSoC5/UART_Bridge.c ****     *  Enables the output of specific status bits to the interrupt controller
 383:.\Generated_Source\PSoC5/UART_Bridge.c ****     *
 384:.\Generated_Source\PSoC5/UART_Bridge.c ****     *******************************************************************************/
 385:.\Generated_Source\PSoC5/UART_Bridge.c ****     void UART_Bridge_SetRxInterruptMode(uint8 intSrc) 
 386:.\Generated_Source\PSoC5/UART_Bridge.c ****     {
 122              		.loc 1 386 0
 123              		.cfi_startproc
ARM GAS  C:\DOCUME~1\ADMINI~1\LOCALS~1\Temp\cc7EA4qV.s 			page 10


 124              		@ args = 0, pretend = 0, frame = 0
 125              		@ frame_needed = 0, uses_anonymous_args = 0
 126              		@ link register save eliminated.
 127              	.LVL1:
 387:.\Generated_Source\PSoC5/UART_Bridge.c ****         UART_Bridge_RXSTATUS_MASK_REG  = intSrc;
 128              		.loc 1 387 0
 129 0000 014B     		ldr	r3, .L15
 130 0002 1870     		strb	r0, [r3, #0]
 388:.\Generated_Source\PSoC5/UART_Bridge.c ****     }
 131              		.loc 1 388 0
 132 0004 7047     		bx	lr
 133              	.L16:
 134 0006 00BF     		.align	2
 135              	.L15:
 136 0008 84640040 		.word	1073767556
 137              		.cfi_endproc
 138              	.LFE8:
 139              		.size	UART_Bridge_SetRxInterruptMode, .-UART_Bridge_SetRxInterruptMode
 140              		.section	.text.UART_Bridge_ReadRxData,"ax",%progbits
 141              		.align	1
 142              		.global	UART_Bridge_ReadRxData
 143              		.thumb
 144              		.thumb_func
 145              		.type	UART_Bridge_ReadRxData, %function
 146              	UART_Bridge_ReadRxData:
 147              	.LFB9:
 389:.\Generated_Source\PSoC5/UART_Bridge.c **** 
 390:.\Generated_Source\PSoC5/UART_Bridge.c **** 
 391:.\Generated_Source\PSoC5/UART_Bridge.c ****     /*******************************************************************************
 392:.\Generated_Source\PSoC5/UART_Bridge.c ****     * Function Name: UART_Bridge_ReadRxData
 393:.\Generated_Source\PSoC5/UART_Bridge.c ****     ********************************************************************************
 394:.\Generated_Source\PSoC5/UART_Bridge.c ****     *
 395:.\Generated_Source\PSoC5/UART_Bridge.c ****     * Summary:
 396:.\Generated_Source\PSoC5/UART_Bridge.c ****     *  Returns data in RX Data register without checking status register to
 397:.\Generated_Source\PSoC5/UART_Bridge.c ****     *  determine if data is valid
 398:.\Generated_Source\PSoC5/UART_Bridge.c ****     *
 399:.\Generated_Source\PSoC5/UART_Bridge.c ****     * Parameters:
 400:.\Generated_Source\PSoC5/UART_Bridge.c ****     *  None.
 401:.\Generated_Source\PSoC5/UART_Bridge.c ****     *
 402:.\Generated_Source\PSoC5/UART_Bridge.c ****     * Return:
 403:.\Generated_Source\PSoC5/UART_Bridge.c ****     *  Received data from RX register
 404:.\Generated_Source\PSoC5/UART_Bridge.c ****     *
 405:.\Generated_Source\PSoC5/UART_Bridge.c ****     * Global Variables:
 406:.\Generated_Source\PSoC5/UART_Bridge.c ****     *  UART_Bridge_rxBuffer - RAM buffer pointer for save received data.
 407:.\Generated_Source\PSoC5/UART_Bridge.c ****     *  UART_Bridge_rxBufferWrite - cyclic index for write to rxBuffer,
 408:.\Generated_Source\PSoC5/UART_Bridge.c ****     *     checked to identify new data.
 409:.\Generated_Source\PSoC5/UART_Bridge.c ****     *  UART_Bridge_rxBufferRead - cyclic index for read from rxBuffer,
 410:.\Generated_Source\PSoC5/UART_Bridge.c ****     *     incremented after each byte has been read from buffer.
 411:.\Generated_Source\PSoC5/UART_Bridge.c ****     *  UART_Bridge_rxBufferLoopDetect - creared if loop condition was detected
 412:.\Generated_Source\PSoC5/UART_Bridge.c ****     *     in RX ISR.
 413:.\Generated_Source\PSoC5/UART_Bridge.c ****     *
 414:.\Generated_Source\PSoC5/UART_Bridge.c ****     * Reentrant:
 415:.\Generated_Source\PSoC5/UART_Bridge.c ****     *  No.
 416:.\Generated_Source\PSoC5/UART_Bridge.c ****     *
 417:.\Generated_Source\PSoC5/UART_Bridge.c ****     *******************************************************************************/
 418:.\Generated_Source\PSoC5/UART_Bridge.c ****     uint8 UART_Bridge_ReadRxData(void) 
 419:.\Generated_Source\PSoC5/UART_Bridge.c ****     {
ARM GAS  C:\DOCUME~1\ADMINI~1\LOCALS~1\Temp\cc7EA4qV.s 			page 11


 148              		.loc 1 419 0
 149              		.cfi_startproc
 150              		@ args = 0, pretend = 0, frame = 0
 151              		@ frame_needed = 0, uses_anonymous_args = 0
 152 0000 10B5     		push	{r4, lr}
 153              	.LCFI0:
 154              		.cfi_def_cfa_offset 8
 420:.\Generated_Source\PSoC5/UART_Bridge.c ****         uint8 rxData;
 421:.\Generated_Source\PSoC5/UART_Bridge.c **** 
 422:.\Generated_Source\PSoC5/UART_Bridge.c ****         #if(UART_Bridge_RXBUFFERSIZE > UART_Bridge_FIFO_LENGTH)
 423:.\Generated_Source\PSoC5/UART_Bridge.c ****             uint8 loc_rxBufferRead;
 424:.\Generated_Source\PSoC5/UART_Bridge.c ****             uint8 loc_rxBufferWrite;
 425:.\Generated_Source\PSoC5/UART_Bridge.c ****             /* Protect variables that could change on interrupt. */
 426:.\Generated_Source\PSoC5/UART_Bridge.c ****             /* Disable Rx interrupt. */
 427:.\Generated_Source\PSoC5/UART_Bridge.c ****             #if(UART_Bridge_RX_INTERRUPT_ENABLED)
 428:.\Generated_Source\PSoC5/UART_Bridge.c ****                 UART_Bridge_DisableRxInt();
 155              		.loc 1 428 0
 156              		.cfi_offset 14, -4
 157              		.cfi_offset 4, -8
 158 0002 FFF7FEFF 		bl	UART_Bridge_DisableRxInt
 429:.\Generated_Source\PSoC5/UART_Bridge.c ****             #endif /* UART_Bridge_RX_INTERRUPT_ENABLED */
 430:.\Generated_Source\PSoC5/UART_Bridge.c ****             loc_rxBufferRead = UART_Bridge_rxBufferRead;
 159              		.loc 1 430 0
 160 0006 0D4A     		ldr	r2, .L24
 161 0008 1378     		ldrb	r3, [r2, #0]	@ zero_extendqisi2
 431:.\Generated_Source\PSoC5/UART_Bridge.c ****             loc_rxBufferWrite = UART_Bridge_rxBufferWrite;
 162              		.loc 1 431 0
 163 000a 5178     		ldrb	r1, [r2, #1]	@ zero_extendqisi2
 432:.\Generated_Source\PSoC5/UART_Bridge.c **** 
 433:.\Generated_Source\PSoC5/UART_Bridge.c ****             if( (UART_Bridge_rxBufferLoopDetect != 0u) || (loc_rxBufferRead != loc_rxBufferWrite) )
 164              		.loc 1 433 0
 165 000c 9278     		ldrb	r2, [r2, #2]	@ zero_extendqisi2
 166 000e 0AB9     		cbnz	r2, .L18
 167 0010 8B42     		cmp	r3, r1
 168              	.LVL2:
 169 0012 0DD0     		beq	.L19
 170              	.L18:
 434:.\Generated_Source\PSoC5/UART_Bridge.c ****             {
 435:.\Generated_Source\PSoC5/UART_Bridge.c ****                 rxData = UART_Bridge_rxBuffer[loc_rxBufferRead];
 171              		.loc 1 435 0
 172 0014 0A4A     		ldr	r2, .L24+4
 173 0016 D45C     		ldrb	r4, [r2, r3]	@ zero_extendqisi2
 436:.\Generated_Source\PSoC5/UART_Bridge.c ****                 loc_rxBufferRead++;
 174              		.loc 1 436 0
 175 0018 0133     		adds	r3, r3, #1
 176              	.LVL3:
 177 001a DBB2     		uxtb	r3, r3
 178              	.LVL4:
 437:.\Generated_Source\PSoC5/UART_Bridge.c **** 
 438:.\Generated_Source\PSoC5/UART_Bridge.c ****                 if(loc_rxBufferRead >= UART_Bridge_RXBUFFERSIZE)
 179              		.loc 1 438 0
 180 001c 5AB2     		sxtb	r2, r3
 181              	.LVL5:
 182 001e 23EAE273 		bic	r3, r3, r2, asr #31
 183              	.LVL6:
 439:.\Generated_Source\PSoC5/UART_Bridge.c ****                 {
 440:.\Generated_Source\PSoC5/UART_Bridge.c ****                     loc_rxBufferRead = 0u;
ARM GAS  C:\DOCUME~1\ADMINI~1\LOCALS~1\Temp\cc7EA4qV.s 			page 12


 441:.\Generated_Source\PSoC5/UART_Bridge.c ****                 }
 442:.\Generated_Source\PSoC5/UART_Bridge.c ****                 /* Update the real pointer */
 443:.\Generated_Source\PSoC5/UART_Bridge.c ****                 UART_Bridge_rxBufferRead = loc_rxBufferRead;
 184              		.loc 1 443 0
 185 0022 064A     		ldr	r2, .L24
 186 0024 1370     		strb	r3, [r2, #0]
 444:.\Generated_Source\PSoC5/UART_Bridge.c **** 
 445:.\Generated_Source\PSoC5/UART_Bridge.c ****                 if(UART_Bridge_rxBufferLoopDetect != 0u )
 187              		.loc 1 445 0
 188 0026 9378     		ldrb	r3, [r2, #2]	@ zero_extendqisi2
 189              	.LVL7:
 190 0028 23B1     		cbz	r3, .L21
 446:.\Generated_Source\PSoC5/UART_Bridge.c ****                 {
 447:.\Generated_Source\PSoC5/UART_Bridge.c ****                     UART_Bridge_rxBufferLoopDetect = 0u;
 191              		.loc 1 447 0
 192 002a 0023     		movs	r3, #0
 193 002c 9370     		strb	r3, [r2, #2]
 194 002e 01E0     		b	.L21
 195              	.LVL8:
 196              	.L19:
 448:.\Generated_Source\PSoC5/UART_Bridge.c ****                     #if( (UART_Bridge_RX_INTERRUPT_ENABLED) && (UART_Bridge_FLOW_CONTROL != 0u) && 
 449:.\Generated_Source\PSoC5/UART_Bridge.c ****                          (UART_Bridge_RXBUFFERSIZE > UART_Bridge_FIFO_LENGTH) )
 450:.\Generated_Source\PSoC5/UART_Bridge.c ****                         /* When Hardware Flow Control selected - return RX mask */
 451:.\Generated_Source\PSoC5/UART_Bridge.c ****                         #if( UART_Bridge_HD_ENABLED )
 452:.\Generated_Source\PSoC5/UART_Bridge.c ****                             if((UART_Bridge_CONTROL_REG & UART_Bridge_CTRL_HD_SEND) == 0u)
 453:.\Generated_Source\PSoC5/UART_Bridge.c ****                             {   /* In Half duplex mode return RX mask only in RX
 454:.\Generated_Source\PSoC5/UART_Bridge.c ****                                 *  configuration set, otherwise
 455:.\Generated_Source\PSoC5/UART_Bridge.c ****                                 *  mask will be returned in LoadRxConfig() API.
 456:.\Generated_Source\PSoC5/UART_Bridge.c ****                                 */
 457:.\Generated_Source\PSoC5/UART_Bridge.c ****                                 UART_Bridge_RXSTATUS_MASK_REG  |= UART_Bridge_RX_STS_FIFO_NOTEMPTY;
 458:.\Generated_Source\PSoC5/UART_Bridge.c ****                             }
 459:.\Generated_Source\PSoC5/UART_Bridge.c ****                         #else
 460:.\Generated_Source\PSoC5/UART_Bridge.c ****                             UART_Bridge_RXSTATUS_MASK_REG  |= UART_Bridge_RX_STS_FIFO_NOTEMPTY;
 461:.\Generated_Source\PSoC5/UART_Bridge.c ****                         #endif /* end UART_Bridge_HD_ENABLED */
 462:.\Generated_Source\PSoC5/UART_Bridge.c ****                     #endif /* UART_Bridge_RX_INTERRUPT_ENABLED and Hardware flow control*/
 463:.\Generated_Source\PSoC5/UART_Bridge.c ****                 }
 464:.\Generated_Source\PSoC5/UART_Bridge.c ****             }
 465:.\Generated_Source\PSoC5/UART_Bridge.c ****             else
 466:.\Generated_Source\PSoC5/UART_Bridge.c ****             {   /* Needs to check status for RX_STS_FIFO_NOTEMPTY bit*/
 467:.\Generated_Source\PSoC5/UART_Bridge.c ****                 rxData = UART_Bridge_RXDATA_REG;
 197              		.loc 1 467 0
 198 0030 044B     		ldr	r3, .L24+8
 199              	.LVL9:
 200 0032 1C78     		ldrb	r4, [r3, #0]	@ zero_extendqisi2
 201              	.L21:
 468:.\Generated_Source\PSoC5/UART_Bridge.c ****             }
 469:.\Generated_Source\PSoC5/UART_Bridge.c **** 
 470:.\Generated_Source\PSoC5/UART_Bridge.c ****             /* Enable Rx interrupt. */
 471:.\Generated_Source\PSoC5/UART_Bridge.c ****             #if(UART_Bridge_RX_INTERRUPT_ENABLED)
 472:.\Generated_Source\PSoC5/UART_Bridge.c ****                 UART_Bridge_EnableRxInt();
 202              		.loc 1 472 0
 203 0034 FFF7FEFF 		bl	UART_Bridge_EnableRxInt
 204              	.LVL10:
 473:.\Generated_Source\PSoC5/UART_Bridge.c ****             #endif /* End UART_Bridge_RX_INTERRUPT_ENABLED */
 474:.\Generated_Source\PSoC5/UART_Bridge.c **** 
 475:.\Generated_Source\PSoC5/UART_Bridge.c ****         #else /* UART_Bridge_RXBUFFERSIZE > UART_Bridge_FIFO_LENGTH */
 476:.\Generated_Source\PSoC5/UART_Bridge.c **** 
ARM GAS  C:\DOCUME~1\ADMINI~1\LOCALS~1\Temp\cc7EA4qV.s 			page 13


 477:.\Generated_Source\PSoC5/UART_Bridge.c ****             /* Needs to check status for RX_STS_FIFO_NOTEMPTY bit*/
 478:.\Generated_Source\PSoC5/UART_Bridge.c ****             rxData = UART_Bridge_RXDATA_REG;
 479:.\Generated_Source\PSoC5/UART_Bridge.c **** 
 480:.\Generated_Source\PSoC5/UART_Bridge.c ****         #endif /* UART_Bridge_RXBUFFERSIZE > UART_Bridge_FIFO_LENGTH */
 481:.\Generated_Source\PSoC5/UART_Bridge.c **** 
 482:.\Generated_Source\PSoC5/UART_Bridge.c ****         return(rxData);
 483:.\Generated_Source\PSoC5/UART_Bridge.c ****     }
 205              		.loc 1 483 0
 206 0038 2046     		mov	r0, r4
 207              	.LVL11:
 208 003a 10BD     		pop	{r4, pc}
 209              	.L25:
 210              		.align	2
 211              	.L24:
 212 003c 00000000 		.word	.LANCHOR0
 213 0040 00000000 		.word	UART_Bridge_rxBuffer
 214 0044 40640040 		.word	1073767488
 215              		.cfi_endproc
 216              	.LFE9:
 217              		.size	UART_Bridge_ReadRxData, .-UART_Bridge_ReadRxData
 218              		.section	.text.UART_Bridge_ReadRxStatus,"ax",%progbits
 219              		.align	1
 220              		.global	UART_Bridge_ReadRxStatus
 221              		.thumb
 222              		.thumb_func
 223              		.type	UART_Bridge_ReadRxStatus, %function
 224              	UART_Bridge_ReadRxStatus:
 225              	.LFB10:
 484:.\Generated_Source\PSoC5/UART_Bridge.c **** 
 485:.\Generated_Source\PSoC5/UART_Bridge.c **** 
 486:.\Generated_Source\PSoC5/UART_Bridge.c ****     /*******************************************************************************
 487:.\Generated_Source\PSoC5/UART_Bridge.c ****     * Function Name: UART_Bridge_ReadRxStatus
 488:.\Generated_Source\PSoC5/UART_Bridge.c ****     ********************************************************************************
 489:.\Generated_Source\PSoC5/UART_Bridge.c ****     *
 490:.\Generated_Source\PSoC5/UART_Bridge.c ****     * Summary:
 491:.\Generated_Source\PSoC5/UART_Bridge.c ****     *  Read the current state of the status register
 492:.\Generated_Source\PSoC5/UART_Bridge.c ****     *  And detect software buffer overflow.
 493:.\Generated_Source\PSoC5/UART_Bridge.c ****     *
 494:.\Generated_Source\PSoC5/UART_Bridge.c ****     * Parameters:
 495:.\Generated_Source\PSoC5/UART_Bridge.c ****     *  None.
 496:.\Generated_Source\PSoC5/UART_Bridge.c ****     *
 497:.\Generated_Source\PSoC5/UART_Bridge.c ****     * Return:
 498:.\Generated_Source\PSoC5/UART_Bridge.c ****     *  Current state of the status register.
 499:.\Generated_Source\PSoC5/UART_Bridge.c ****     *
 500:.\Generated_Source\PSoC5/UART_Bridge.c ****     * Global Variables:
 501:.\Generated_Source\PSoC5/UART_Bridge.c ****     *  UART_Bridge_rxBufferOverflow - used to indicate overload condition.
 502:.\Generated_Source\PSoC5/UART_Bridge.c ****     *   It set to one in RX interrupt when there isn?t free space in
 503:.\Generated_Source\PSoC5/UART_Bridge.c ****     *   UART_Bridge_rxBufferRead to write new data. This condition returned
 504:.\Generated_Source\PSoC5/UART_Bridge.c ****     *   and cleared to zero by this API as an
 505:.\Generated_Source\PSoC5/UART_Bridge.c ****     *   UART_Bridge_RX_STS_SOFT_BUFF_OVER bit along with RX Status register
 506:.\Generated_Source\PSoC5/UART_Bridge.c ****     *   bits.
 507:.\Generated_Source\PSoC5/UART_Bridge.c ****     *
 508:.\Generated_Source\PSoC5/UART_Bridge.c ****     *******************************************************************************/
 509:.\Generated_Source\PSoC5/UART_Bridge.c ****     uint8 UART_Bridge_ReadRxStatus(void) 
 510:.\Generated_Source\PSoC5/UART_Bridge.c ****     {
 226              		.loc 1 510 0
 227              		.cfi_startproc
ARM GAS  C:\DOCUME~1\ADMINI~1\LOCALS~1\Temp\cc7EA4qV.s 			page 14


 228              		@ args = 0, pretend = 0, frame = 0
 229              		@ frame_needed = 0, uses_anonymous_args = 0
 230              		@ link register save eliminated.
 511:.\Generated_Source\PSoC5/UART_Bridge.c ****         uint8 status;
 512:.\Generated_Source\PSoC5/UART_Bridge.c **** 
 513:.\Generated_Source\PSoC5/UART_Bridge.c ****         status = UART_Bridge_RXSTATUS_REG & UART_Bridge_RX_HW_MASK;
 231              		.loc 1 513 0
 232 0000 054B     		ldr	r3, .L29
 233 0002 1878     		ldrb	r0, [r3, #0]	@ zero_extendqisi2
 514:.\Generated_Source\PSoC5/UART_Bridge.c **** 
 515:.\Generated_Source\PSoC5/UART_Bridge.c ****         #if(UART_Bridge_RXBUFFERSIZE > UART_Bridge_FIFO_LENGTH)
 516:.\Generated_Source\PSoC5/UART_Bridge.c ****             if( UART_Bridge_rxBufferOverflow != 0u )
 234              		.loc 1 516 0
 235 0004 054B     		ldr	r3, .L29+4
 236              		.loc 1 513 0
 237 0006 00F07F00 		and	r0, r0, #127
 238              	.LVL12:
 239              		.loc 1 516 0
 240 000a DA78     		ldrb	r2, [r3, #3]	@ zero_extendqisi2
 241 000c 1AB1     		cbz	r2, .L27
 517:.\Generated_Source\PSoC5/UART_Bridge.c ****             {
 518:.\Generated_Source\PSoC5/UART_Bridge.c ****                 status |= UART_Bridge_RX_STS_SOFT_BUFF_OVER;
 519:.\Generated_Source\PSoC5/UART_Bridge.c ****                 UART_Bridge_rxBufferOverflow = 0u;
 242              		.loc 1 519 0
 243 000e 0022     		movs	r2, #0
 244              		.loc 1 518 0
 245 0010 40F08000 		orr	r0, r0, #128
 246              	.LVL13:
 247              		.loc 1 519 0
 248 0014 DA70     		strb	r2, [r3, #3]
 249              	.L27:
 250              	.LVL14:
 520:.\Generated_Source\PSoC5/UART_Bridge.c ****             }
 521:.\Generated_Source\PSoC5/UART_Bridge.c ****         #endif /* UART_Bridge_RXBUFFERSIZE */
 522:.\Generated_Source\PSoC5/UART_Bridge.c **** 
 523:.\Generated_Source\PSoC5/UART_Bridge.c ****         return(status);
 524:.\Generated_Source\PSoC5/UART_Bridge.c ****     }
 251              		.loc 1 524 0
 252 0016 7047     		bx	lr
 253              	.L30:
 254              		.align	2
 255              	.L29:
 256 0018 64640040 		.word	1073767524
 257 001c 00000000 		.word	.LANCHOR0
 258              		.cfi_endproc
 259              	.LFE10:
 260              		.size	UART_Bridge_ReadRxStatus, .-UART_Bridge_ReadRxStatus
 261              		.section	.text.UART_Bridge_GetChar,"ax",%progbits
 262              		.align	1
 263              		.global	UART_Bridge_GetChar
 264              		.thumb
 265              		.thumb_func
 266              		.type	UART_Bridge_GetChar, %function
 267              	UART_Bridge_GetChar:
 268              	.LFB11:
 525:.\Generated_Source\PSoC5/UART_Bridge.c **** 
 526:.\Generated_Source\PSoC5/UART_Bridge.c **** 
ARM GAS  C:\DOCUME~1\ADMINI~1\LOCALS~1\Temp\cc7EA4qV.s 			page 15


 527:.\Generated_Source\PSoC5/UART_Bridge.c ****     /*******************************************************************************
 528:.\Generated_Source\PSoC5/UART_Bridge.c ****     * Function Name: UART_Bridge_GetChar
 529:.\Generated_Source\PSoC5/UART_Bridge.c ****     ********************************************************************************
 530:.\Generated_Source\PSoC5/UART_Bridge.c ****     *
 531:.\Generated_Source\PSoC5/UART_Bridge.c ****     * Summary:
 532:.\Generated_Source\PSoC5/UART_Bridge.c ****     *  Reads UART RX buffer immediately, if data is not available or an error
 533:.\Generated_Source\PSoC5/UART_Bridge.c ****     *  condition exists, zero is returned; otherwise, character is read and
 534:.\Generated_Source\PSoC5/UART_Bridge.c ****     *  returned.
 535:.\Generated_Source\PSoC5/UART_Bridge.c ****     *
 536:.\Generated_Source\PSoC5/UART_Bridge.c ****     * Parameters:
 537:.\Generated_Source\PSoC5/UART_Bridge.c ****     *  None.
 538:.\Generated_Source\PSoC5/UART_Bridge.c ****     *
 539:.\Generated_Source\PSoC5/UART_Bridge.c ****     * Return:
 540:.\Generated_Source\PSoC5/UART_Bridge.c ****     *  Character read from UART RX buffer. ASCII characters from 1 to 255 are valid.
 541:.\Generated_Source\PSoC5/UART_Bridge.c ****     *  A returned zero signifies an error condition or no data available.
 542:.\Generated_Source\PSoC5/UART_Bridge.c ****     *
 543:.\Generated_Source\PSoC5/UART_Bridge.c ****     * Global Variables:
 544:.\Generated_Source\PSoC5/UART_Bridge.c ****     *  UART_Bridge_rxBuffer - RAM buffer pointer for save received data.
 545:.\Generated_Source\PSoC5/UART_Bridge.c ****     *  UART_Bridge_rxBufferWrite - cyclic index for write to rxBuffer,
 546:.\Generated_Source\PSoC5/UART_Bridge.c ****     *     checked to identify new data.
 547:.\Generated_Source\PSoC5/UART_Bridge.c ****     *  UART_Bridge_rxBufferRead - cyclic index for read from rxBuffer,
 548:.\Generated_Source\PSoC5/UART_Bridge.c ****     *     incremented after each byte has been read from buffer.
 549:.\Generated_Source\PSoC5/UART_Bridge.c ****     *  UART_Bridge_rxBufferLoopDetect - creared if loop condition was detected
 550:.\Generated_Source\PSoC5/UART_Bridge.c ****     *     in RX ISR.
 551:.\Generated_Source\PSoC5/UART_Bridge.c ****     *
 552:.\Generated_Source\PSoC5/UART_Bridge.c ****     * Reentrant:
 553:.\Generated_Source\PSoC5/UART_Bridge.c ****     *  No.
 554:.\Generated_Source\PSoC5/UART_Bridge.c ****     *
 555:.\Generated_Source\PSoC5/UART_Bridge.c ****     *******************************************************************************/
 556:.\Generated_Source\PSoC5/UART_Bridge.c ****     uint8 UART_Bridge_GetChar(void) 
 557:.\Generated_Source\PSoC5/UART_Bridge.c ****     {
 269              		.loc 1 557 0
 270              		.cfi_startproc
 271              		@ args = 0, pretend = 0, frame = 0
 272              		@ frame_needed = 0, uses_anonymous_args = 0
 273 0000 10B5     		push	{r4, lr}
 274              	.LCFI1:
 275              		.cfi_def_cfa_offset 8
 558:.\Generated_Source\PSoC5/UART_Bridge.c ****         uint8 rxData = 0u;
 559:.\Generated_Source\PSoC5/UART_Bridge.c ****         uint8 rxStatus;
 560:.\Generated_Source\PSoC5/UART_Bridge.c **** 
 561:.\Generated_Source\PSoC5/UART_Bridge.c ****         #if(UART_Bridge_RXBUFFERSIZE > UART_Bridge_FIFO_LENGTH)
 562:.\Generated_Source\PSoC5/UART_Bridge.c ****             uint8 loc_rxBufferRead;
 563:.\Generated_Source\PSoC5/UART_Bridge.c ****             uint8 loc_rxBufferWrite;
 564:.\Generated_Source\PSoC5/UART_Bridge.c ****             /* Protect variables that could change on interrupt. */
 565:.\Generated_Source\PSoC5/UART_Bridge.c ****             /* Disable Rx interrupt. */
 566:.\Generated_Source\PSoC5/UART_Bridge.c ****             #if(UART_Bridge_RX_INTERRUPT_ENABLED)
 567:.\Generated_Source\PSoC5/UART_Bridge.c ****                 UART_Bridge_DisableRxInt();
 276              		.loc 1 567 0
 277              		.cfi_offset 14, -4
 278              		.cfi_offset 4, -8
 279 0002 FFF7FEFF 		bl	UART_Bridge_DisableRxInt
 568:.\Generated_Source\PSoC5/UART_Bridge.c ****             #endif /* UART_Bridge_RX_INTERRUPT_ENABLED */
 569:.\Generated_Source\PSoC5/UART_Bridge.c ****             loc_rxBufferRead = UART_Bridge_rxBufferRead;
 280              		.loc 1 569 0
 281 0006 124A     		ldr	r2, .L38
 282 0008 1378     		ldrb	r3, [r2, #0]	@ zero_extendqisi2
ARM GAS  C:\DOCUME~1\ADMINI~1\LOCALS~1\Temp\cc7EA4qV.s 			page 16


 570:.\Generated_Source\PSoC5/UART_Bridge.c ****             loc_rxBufferWrite = UART_Bridge_rxBufferWrite;
 283              		.loc 1 570 0
 284 000a 5178     		ldrb	r1, [r2, #1]	@ zero_extendqisi2
 571:.\Generated_Source\PSoC5/UART_Bridge.c **** 
 572:.\Generated_Source\PSoC5/UART_Bridge.c ****             if( (UART_Bridge_rxBufferLoopDetect != 0u) || (loc_rxBufferRead != loc_rxBufferWrite) )
 285              		.loc 1 572 0
 286 000c 9278     		ldrb	r2, [r2, #2]	@ zero_extendqisi2
 287 000e 0AB9     		cbnz	r2, .L32
 288 0010 8B42     		cmp	r3, r1
 289              	.LVL15:
 290 0012 0DD0     		beq	.L33
 291              	.L32:
 573:.\Generated_Source\PSoC5/UART_Bridge.c ****             {
 574:.\Generated_Source\PSoC5/UART_Bridge.c ****                 rxData = UART_Bridge_rxBuffer[loc_rxBufferRead];
 292              		.loc 1 574 0
 293 0014 0F4A     		ldr	r2, .L38+4
 294 0016 D45C     		ldrb	r4, [r2, r3]	@ zero_extendqisi2
 575:.\Generated_Source\PSoC5/UART_Bridge.c ****                 loc_rxBufferRead++;
 295              		.loc 1 575 0
 296 0018 0133     		adds	r3, r3, #1
 297              	.LVL16:
 298 001a DBB2     		uxtb	r3, r3
 299              	.LVL17:
 576:.\Generated_Source\PSoC5/UART_Bridge.c ****                 if(loc_rxBufferRead >= UART_Bridge_RXBUFFERSIZE)
 300              		.loc 1 576 0
 301 001c 5AB2     		sxtb	r2, r3
 302              	.LVL18:
 303 001e 23EAE273 		bic	r3, r3, r2, asr #31
 304              	.LVL19:
 577:.\Generated_Source\PSoC5/UART_Bridge.c ****                 {
 578:.\Generated_Source\PSoC5/UART_Bridge.c ****                     loc_rxBufferRead = 0u;
 579:.\Generated_Source\PSoC5/UART_Bridge.c ****                 }
 580:.\Generated_Source\PSoC5/UART_Bridge.c ****                 /* Update the real pointer */
 581:.\Generated_Source\PSoC5/UART_Bridge.c ****                 UART_Bridge_rxBufferRead = loc_rxBufferRead;
 305              		.loc 1 581 0
 306 0022 0B4A     		ldr	r2, .L38
 307 0024 1370     		strb	r3, [r2, #0]
 582:.\Generated_Source\PSoC5/UART_Bridge.c **** 
 583:.\Generated_Source\PSoC5/UART_Bridge.c ****                 if(UART_Bridge_rxBufferLoopDetect > 0u )
 308              		.loc 1 583 0
 309 0026 9378     		ldrb	r3, [r2, #2]	@ zero_extendqisi2
 310              	.LVL20:
 311 0028 6BB1     		cbz	r3, .L35
 584:.\Generated_Source\PSoC5/UART_Bridge.c ****                 {
 585:.\Generated_Source\PSoC5/UART_Bridge.c ****                     UART_Bridge_rxBufferLoopDetect = 0u;
 312              		.loc 1 585 0
 313 002a 0023     		movs	r3, #0
 314 002c 9370     		strb	r3, [r2, #2]
 315 002e 0AE0     		b	.L35
 316              	.LVL21:
 317              	.L33:
 586:.\Generated_Source\PSoC5/UART_Bridge.c ****                     #if( (UART_Bridge_RX_INTERRUPT_ENABLED) && (UART_Bridge_FLOW_CONTROL != 0u) )
 587:.\Generated_Source\PSoC5/UART_Bridge.c ****                         /* When Hardware Flow Control selected - return RX mask */
 588:.\Generated_Source\PSoC5/UART_Bridge.c ****                         #if( UART_Bridge_HD_ENABLED )
 589:.\Generated_Source\PSoC5/UART_Bridge.c ****                             if((UART_Bridge_CONTROL_REG & UART_Bridge_CTRL_HD_SEND) == 0u)
 590:.\Generated_Source\PSoC5/UART_Bridge.c ****                             {   /* In Half duplex mode return RX mask only if
 591:.\Generated_Source\PSoC5/UART_Bridge.c ****                                 *  RX configuration set, otherwise
ARM GAS  C:\DOCUME~1\ADMINI~1\LOCALS~1\Temp\cc7EA4qV.s 			page 17


 592:.\Generated_Source\PSoC5/UART_Bridge.c ****                                 *  mask will be returned in LoadRxConfig() API.
 593:.\Generated_Source\PSoC5/UART_Bridge.c ****                                 */
 594:.\Generated_Source\PSoC5/UART_Bridge.c ****                                 UART_Bridge_RXSTATUS_MASK_REG  |= UART_Bridge_RX_STS_FIFO_NOTEMPTY;
 595:.\Generated_Source\PSoC5/UART_Bridge.c ****                             }
 596:.\Generated_Source\PSoC5/UART_Bridge.c ****                         #else
 597:.\Generated_Source\PSoC5/UART_Bridge.c ****                             UART_Bridge_RXSTATUS_MASK_REG  |= UART_Bridge_RX_STS_FIFO_NOTEMPTY;
 598:.\Generated_Source\PSoC5/UART_Bridge.c ****                         #endif /* end UART_Bridge_HD_ENABLED */
 599:.\Generated_Source\PSoC5/UART_Bridge.c ****                     #endif /* UART_Bridge_RX_INTERRUPT_ENABLED and Hardware flow control*/
 600:.\Generated_Source\PSoC5/UART_Bridge.c ****                 }
 601:.\Generated_Source\PSoC5/UART_Bridge.c **** 
 602:.\Generated_Source\PSoC5/UART_Bridge.c ****             }
 603:.\Generated_Source\PSoC5/UART_Bridge.c ****             else
 604:.\Generated_Source\PSoC5/UART_Bridge.c ****             {   rxStatus = UART_Bridge_RXSTATUS_REG;
 318              		.loc 1 604 0
 319 0030 094B     		ldr	r3, .L38+8
 320              	.LVL22:
 321 0032 1B78     		ldrb	r3, [r3, #0]	@ zero_extendqisi2
 605:.\Generated_Source\PSoC5/UART_Bridge.c ****                 if((rxStatus & UART_Bridge_RX_STS_FIFO_NOTEMPTY) != 0u)
 322              		.loc 1 605 0
 323 0034 13F0200F 		tst	r3, #32
 324              	.LVL23:
 325 0038 04D0     		beq	.L36
 606:.\Generated_Source\PSoC5/UART_Bridge.c ****                 {   /* Read received data from FIFO*/
 607:.\Generated_Source\PSoC5/UART_Bridge.c ****                     rxData = UART_Bridge_RXDATA_REG;
 326              		.loc 1 607 0
 327 003a 084A     		ldr	r2, .L38+12
 608:.\Generated_Source\PSoC5/UART_Bridge.c ****                     /*Check status on error*/
 609:.\Generated_Source\PSoC5/UART_Bridge.c ****                     if((rxStatus & (UART_Bridge_RX_STS_BREAK | UART_Bridge_RX_STS_PAR_ERROR |
 328              		.loc 1 609 0
 329 003c 13F01E0F 		tst	r3, #30
 330              		.loc 1 607 0
 331 0040 1478     		ldrb	r4, [r2, #0]	@ zero_extendqisi2
 332              		.loc 1 609 0
 333 0042 00D0     		beq	.L35
 334              	.L36:
 335 0044 0024     		movs	r4, #0
 336              	.LVL24:
 337              	.L35:
 610:.\Generated_Source\PSoC5/UART_Bridge.c ****                                    UART_Bridge_RX_STS_STOP_ERROR | UART_Bridge_RX_STS_OVERRUN)) != 
 611:.\Generated_Source\PSoC5/UART_Bridge.c ****                     {
 612:.\Generated_Source\PSoC5/UART_Bridge.c ****                         rxData = 0u;
 613:.\Generated_Source\PSoC5/UART_Bridge.c ****                     }
 614:.\Generated_Source\PSoC5/UART_Bridge.c ****                 }
 615:.\Generated_Source\PSoC5/UART_Bridge.c ****             }
 616:.\Generated_Source\PSoC5/UART_Bridge.c **** 
 617:.\Generated_Source\PSoC5/UART_Bridge.c ****             /* Enable Rx interrupt. */
 618:.\Generated_Source\PSoC5/UART_Bridge.c ****             #if(UART_Bridge_RX_INTERRUPT_ENABLED)
 619:.\Generated_Source\PSoC5/UART_Bridge.c ****                 UART_Bridge_EnableRxInt();
 338              		.loc 1 619 0
 339 0046 FFF7FEFF 		bl	UART_Bridge_EnableRxInt
 340              	.LVL25:
 620:.\Generated_Source\PSoC5/UART_Bridge.c ****             #endif /* UART_Bridge_RX_INTERRUPT_ENABLED */
 621:.\Generated_Source\PSoC5/UART_Bridge.c **** 
 622:.\Generated_Source\PSoC5/UART_Bridge.c ****         #else /* UART_Bridge_RXBUFFERSIZE > UART_Bridge_FIFO_LENGTH */
 623:.\Generated_Source\PSoC5/UART_Bridge.c **** 
 624:.\Generated_Source\PSoC5/UART_Bridge.c ****             rxStatus =UART_Bridge_RXSTATUS_REG;
 625:.\Generated_Source\PSoC5/UART_Bridge.c ****             if((rxStatus & UART_Bridge_RX_STS_FIFO_NOTEMPTY) != 0u)
ARM GAS  C:\DOCUME~1\ADMINI~1\LOCALS~1\Temp\cc7EA4qV.s 			page 18


 626:.\Generated_Source\PSoC5/UART_Bridge.c ****             {   /* Read received data from FIFO*/
 627:.\Generated_Source\PSoC5/UART_Bridge.c ****                 rxData = UART_Bridge_RXDATA_REG;
 628:.\Generated_Source\PSoC5/UART_Bridge.c ****                 /*Check status on error*/
 629:.\Generated_Source\PSoC5/UART_Bridge.c ****                 if((rxStatus & (UART_Bridge_RX_STS_BREAK | UART_Bridge_RX_STS_PAR_ERROR |
 630:.\Generated_Source\PSoC5/UART_Bridge.c ****                                UART_Bridge_RX_STS_STOP_ERROR | UART_Bridge_RX_STS_OVERRUN)) != 0u)
 631:.\Generated_Source\PSoC5/UART_Bridge.c ****                 {
 632:.\Generated_Source\PSoC5/UART_Bridge.c ****                     rxData = 0u;
 633:.\Generated_Source\PSoC5/UART_Bridge.c ****                 }
 634:.\Generated_Source\PSoC5/UART_Bridge.c ****             }
 635:.\Generated_Source\PSoC5/UART_Bridge.c ****         #endif /* UART_Bridge_RXBUFFERSIZE > UART_Bridge_FIFO_LENGTH */
 636:.\Generated_Source\PSoC5/UART_Bridge.c **** 
 637:.\Generated_Source\PSoC5/UART_Bridge.c ****         return(rxData);
 638:.\Generated_Source\PSoC5/UART_Bridge.c ****     }
 341              		.loc 1 638 0
 342 004a 2046     		mov	r0, r4
 343 004c 10BD     		pop	{r4, pc}
 344              	.L39:
 345 004e 00BF     		.align	2
 346              	.L38:
 347 0050 00000000 		.word	.LANCHOR0
 348 0054 00000000 		.word	UART_Bridge_rxBuffer
 349 0058 64640040 		.word	1073767524
 350 005c 40640040 		.word	1073767488
 351              		.cfi_endproc
 352              	.LFE11:
 353              		.size	UART_Bridge_GetChar, .-UART_Bridge_GetChar
 354              		.section	.text.UART_Bridge_GetByte,"ax",%progbits
 355              		.align	1
 356              		.global	UART_Bridge_GetByte
 357              		.thumb
 358              		.thumb_func
 359              		.type	UART_Bridge_GetByte, %function
 360              	UART_Bridge_GetByte:
 361              	.LFB12:
 639:.\Generated_Source\PSoC5/UART_Bridge.c **** 
 640:.\Generated_Source\PSoC5/UART_Bridge.c **** 
 641:.\Generated_Source\PSoC5/UART_Bridge.c ****     /*******************************************************************************
 642:.\Generated_Source\PSoC5/UART_Bridge.c ****     * Function Name: UART_Bridge_GetByte
 643:.\Generated_Source\PSoC5/UART_Bridge.c ****     ********************************************************************************
 644:.\Generated_Source\PSoC5/UART_Bridge.c ****     *
 645:.\Generated_Source\PSoC5/UART_Bridge.c ****     * Summary:
 646:.\Generated_Source\PSoC5/UART_Bridge.c ****     *  Grab the next available byte of data from the recieve FIFO
 647:.\Generated_Source\PSoC5/UART_Bridge.c ****     *
 648:.\Generated_Source\PSoC5/UART_Bridge.c ****     * Parameters:
 649:.\Generated_Source\PSoC5/UART_Bridge.c ****     *  None.
 650:.\Generated_Source\PSoC5/UART_Bridge.c ****     *
 651:.\Generated_Source\PSoC5/UART_Bridge.c ****     * Return:
 652:.\Generated_Source\PSoC5/UART_Bridge.c ****     *  MSB contains Status Register and LSB contains UART RX data
 653:.\Generated_Source\PSoC5/UART_Bridge.c ****     *
 654:.\Generated_Source\PSoC5/UART_Bridge.c ****     * Reentrant:
 655:.\Generated_Source\PSoC5/UART_Bridge.c ****     *  No.
 656:.\Generated_Source\PSoC5/UART_Bridge.c ****     *
 657:.\Generated_Source\PSoC5/UART_Bridge.c ****     *******************************************************************************/
 658:.\Generated_Source\PSoC5/UART_Bridge.c ****     uint16 UART_Bridge_GetByte(void) 
 659:.\Generated_Source\PSoC5/UART_Bridge.c ****     {
 362              		.loc 1 659 0
 363              		.cfi_startproc
ARM GAS  C:\DOCUME~1\ADMINI~1\LOCALS~1\Temp\cc7EA4qV.s 			page 19


 364              		@ args = 0, pretend = 0, frame = 0
 365              		@ frame_needed = 0, uses_anonymous_args = 0
 366 0000 10B5     		push	{r4, lr}
 367              	.LCFI2:
 368              		.cfi_def_cfa_offset 8
 660:.\Generated_Source\PSoC5/UART_Bridge.c ****         return ( ((uint16)UART_Bridge_ReadRxStatus() << 8u) | UART_Bridge_ReadRxData() );
 369              		.loc 1 660 0
 370              		.cfi_offset 14, -4
 371              		.cfi_offset 4, -8
 372 0002 FFF7FEFF 		bl	UART_Bridge_ReadRxStatus
 373 0006 0446     		mov	r4, r0
 374 0008 FFF7FEFF 		bl	UART_Bridge_ReadRxData
 375 000c 40EA0420 		orr	r0, r0, r4, lsl #8
 661:.\Generated_Source\PSoC5/UART_Bridge.c ****     }
 376              		.loc 1 661 0
 377 0010 80B2     		uxth	r0, r0
 378 0012 10BD     		pop	{r4, pc}
 379              		.cfi_endproc
 380              	.LFE12:
 381              		.size	UART_Bridge_GetByte, .-UART_Bridge_GetByte
 382              		.section	.text.UART_Bridge_GetRxBufferSize,"ax",%progbits
 383              		.align	1
 384              		.global	UART_Bridge_GetRxBufferSize
 385              		.thumb
 386              		.thumb_func
 387              		.type	UART_Bridge_GetRxBufferSize, %function
 388              	UART_Bridge_GetRxBufferSize:
 389              	.LFB13:
 662:.\Generated_Source\PSoC5/UART_Bridge.c **** 
 663:.\Generated_Source\PSoC5/UART_Bridge.c **** 
 664:.\Generated_Source\PSoC5/UART_Bridge.c ****     /*******************************************************************************
 665:.\Generated_Source\PSoC5/UART_Bridge.c ****     * Function Name: UART_Bridge_GetRxBufferSize
 666:.\Generated_Source\PSoC5/UART_Bridge.c ****     ********************************************************************************
 667:.\Generated_Source\PSoC5/UART_Bridge.c ****     *
 668:.\Generated_Source\PSoC5/UART_Bridge.c ****     * Summary:
 669:.\Generated_Source\PSoC5/UART_Bridge.c ****     *  Determine the amount of bytes left in the RX buffer and return the count in
 670:.\Generated_Source\PSoC5/UART_Bridge.c ****     *  bytes
 671:.\Generated_Source\PSoC5/UART_Bridge.c ****     *
 672:.\Generated_Source\PSoC5/UART_Bridge.c ****     * Parameters:
 673:.\Generated_Source\PSoC5/UART_Bridge.c ****     *  None.
 674:.\Generated_Source\PSoC5/UART_Bridge.c ****     *
 675:.\Generated_Source\PSoC5/UART_Bridge.c ****     * Return:
 676:.\Generated_Source\PSoC5/UART_Bridge.c ****     *  uint8: Integer count of the number of bytes left
 677:.\Generated_Source\PSoC5/UART_Bridge.c ****     *  in the RX buffer
 678:.\Generated_Source\PSoC5/UART_Bridge.c ****     *
 679:.\Generated_Source\PSoC5/UART_Bridge.c ****     * Global Variables:
 680:.\Generated_Source\PSoC5/UART_Bridge.c ****     *  UART_Bridge_rxBufferWrite - used to calculate left bytes.
 681:.\Generated_Source\PSoC5/UART_Bridge.c ****     *  UART_Bridge_rxBufferRead - used to calculate left bytes.
 682:.\Generated_Source\PSoC5/UART_Bridge.c ****     *  UART_Bridge_rxBufferLoopDetect - checked to decide left bytes amount.
 683:.\Generated_Source\PSoC5/UART_Bridge.c ****     *
 684:.\Generated_Source\PSoC5/UART_Bridge.c ****     * Reentrant:
 685:.\Generated_Source\PSoC5/UART_Bridge.c ****     *  No.
 686:.\Generated_Source\PSoC5/UART_Bridge.c ****     *
 687:.\Generated_Source\PSoC5/UART_Bridge.c ****     * Theory:
 688:.\Generated_Source\PSoC5/UART_Bridge.c ****     *  Allows the user to find out how full the RX Buffer is.
 689:.\Generated_Source\PSoC5/UART_Bridge.c ****     *
 690:.\Generated_Source\PSoC5/UART_Bridge.c ****     *******************************************************************************/
ARM GAS  C:\DOCUME~1\ADMINI~1\LOCALS~1\Temp\cc7EA4qV.s 			page 20


 691:.\Generated_Source\PSoC5/UART_Bridge.c ****     uint8 UART_Bridge_GetRxBufferSize(void)
 692:.\Generated_Source\PSoC5/UART_Bridge.c ****                                                             
 693:.\Generated_Source\PSoC5/UART_Bridge.c ****     {
 390              		.loc 1 693 0
 391              		.cfi_startproc
 392              		@ args = 0, pretend = 0, frame = 0
 393              		@ frame_needed = 0, uses_anonymous_args = 0
 394 0000 10B5     		push	{r4, lr}
 395              	.LCFI3:
 396              		.cfi_def_cfa_offset 8
 694:.\Generated_Source\PSoC5/UART_Bridge.c ****         uint8 size;
 695:.\Generated_Source\PSoC5/UART_Bridge.c **** 
 696:.\Generated_Source\PSoC5/UART_Bridge.c ****         #if(UART_Bridge_RXBUFFERSIZE > UART_Bridge_FIFO_LENGTH)
 697:.\Generated_Source\PSoC5/UART_Bridge.c **** 
 698:.\Generated_Source\PSoC5/UART_Bridge.c ****             /* Disable Rx interrupt. */
 699:.\Generated_Source\PSoC5/UART_Bridge.c ****             /* Protect variables that could change on interrupt. */
 700:.\Generated_Source\PSoC5/UART_Bridge.c ****             #if(UART_Bridge_RX_INTERRUPT_ENABLED)
 701:.\Generated_Source\PSoC5/UART_Bridge.c ****                 UART_Bridge_DisableRxInt();
 397              		.loc 1 701 0
 398              		.cfi_offset 14, -4
 399              		.cfi_offset 4, -8
 400 0002 FFF7FEFF 		bl	UART_Bridge_DisableRxInt
 702:.\Generated_Source\PSoC5/UART_Bridge.c ****             #endif /* UART_Bridge_RX_INTERRUPT_ENABLED */
 703:.\Generated_Source\PSoC5/UART_Bridge.c **** 
 704:.\Generated_Source\PSoC5/UART_Bridge.c ****             if(UART_Bridge_rxBufferRead == UART_Bridge_rxBufferWrite)
 401              		.loc 1 704 0
 402 0006 0C4B     		ldr	r3, .L49
 403 0008 1978     		ldrb	r1, [r3, #0]	@ zero_extendqisi2
 404 000a 5A78     		ldrb	r2, [r3, #1]	@ zero_extendqisi2
 405 000c 9142     		cmp	r1, r2
 406 000e 05D1     		bne	.L43
 705:.\Generated_Source\PSoC5/UART_Bridge.c ****             {
 706:.\Generated_Source\PSoC5/UART_Bridge.c ****                 if(UART_Bridge_rxBufferLoopDetect > 0u)
 407              		.loc 1 706 0
 408 0010 9C78     		ldrb	r4, [r3, #2]	@ zero_extendqisi2
 409 0012 002C     		cmp	r4, #0
 410 0014 14BF     		ite	ne
 411 0016 8024     		movne	r4, #128
 412 0018 0024     		moveq	r4, #0
 413              	.LVL26:
 414 001a 08E0     		b	.L45
 415              	.LVL27:
 416              	.L43:
 707:.\Generated_Source\PSoC5/UART_Bridge.c ****                 {
 708:.\Generated_Source\PSoC5/UART_Bridge.c ****                     size = UART_Bridge_RXBUFFERSIZE;
 709:.\Generated_Source\PSoC5/UART_Bridge.c ****                 }
 710:.\Generated_Source\PSoC5/UART_Bridge.c ****                 else
 711:.\Generated_Source\PSoC5/UART_Bridge.c ****                 {
 712:.\Generated_Source\PSoC5/UART_Bridge.c ****                     size = 0u;
 713:.\Generated_Source\PSoC5/UART_Bridge.c ****                 }
 714:.\Generated_Source\PSoC5/UART_Bridge.c ****             }
 715:.\Generated_Source\PSoC5/UART_Bridge.c ****             else if(UART_Bridge_rxBufferRead < UART_Bridge_rxBufferWrite)
 417              		.loc 1 715 0
 418 001c 1978     		ldrb	r1, [r3, #0]	@ zero_extendqisi2
 419 001e 5A78     		ldrb	r2, [r3, #1]	@ zero_extendqisi2
 716:.\Generated_Source\PSoC5/UART_Bridge.c ****             {
 717:.\Generated_Source\PSoC5/UART_Bridge.c ****                 size = (UART_Bridge_rxBufferWrite - UART_Bridge_rxBufferRead);
ARM GAS  C:\DOCUME~1\ADMINI~1\LOCALS~1\Temp\cc7EA4qV.s 			page 21


 420              		.loc 1 717 0
 421 0020 5C78     		ldrb	r4, [r3, #1]	@ zero_extendqisi2
 422              		.loc 1 715 0
 423 0022 9142     		cmp	r1, r2
 424              		.loc 1 717 0
 425 0024 1B78     		ldrb	r3, [r3, #0]	@ zero_extendqisi2
 718:.\Generated_Source\PSoC5/UART_Bridge.c ****             }
 719:.\Generated_Source\PSoC5/UART_Bridge.c ****             else
 720:.\Generated_Source\PSoC5/UART_Bridge.c ****             {
 721:.\Generated_Source\PSoC5/UART_Bridge.c ****                 size = (UART_Bridge_RXBUFFERSIZE - UART_Bridge_rxBufferRead) + UART_Bridge_rxBuffer
 426              		.loc 1 721 0
 427 0026 28BF     		it	cs
 428 0028 803C     		subcs	r4, r4, #128
 429 002a E41A     		subs	r4, r4, r3
 430 002c E4B2     		uxtb	r4, r4
 431              	.LVL28:
 432              	.L45:
 722:.\Generated_Source\PSoC5/UART_Bridge.c ****             }
 723:.\Generated_Source\PSoC5/UART_Bridge.c **** 
 724:.\Generated_Source\PSoC5/UART_Bridge.c ****             /* Enable Rx interrupt. */
 725:.\Generated_Source\PSoC5/UART_Bridge.c ****             #if(UART_Bridge_RX_INTERRUPT_ENABLED)
 726:.\Generated_Source\PSoC5/UART_Bridge.c ****                 UART_Bridge_EnableRxInt();
 433              		.loc 1 726 0
 434 002e FFF7FEFF 		bl	UART_Bridge_EnableRxInt
 727:.\Generated_Source\PSoC5/UART_Bridge.c ****             #endif /* End UART_Bridge_RX_INTERRUPT_ENABLED */
 728:.\Generated_Source\PSoC5/UART_Bridge.c **** 
 729:.\Generated_Source\PSoC5/UART_Bridge.c ****         #else /* UART_Bridge_RXBUFFERSIZE > UART_Bridge_FIFO_LENGTH */
 730:.\Generated_Source\PSoC5/UART_Bridge.c **** 
 731:.\Generated_Source\PSoC5/UART_Bridge.c ****             /* We can only know if there is data in the fifo. */
 732:.\Generated_Source\PSoC5/UART_Bridge.c ****             size = ((UART_Bridge_RXSTATUS_REG & UART_Bridge_RX_STS_FIFO_NOTEMPTY) != 0u) ? 1u : 0u;
 733:.\Generated_Source\PSoC5/UART_Bridge.c **** 
 734:.\Generated_Source\PSoC5/UART_Bridge.c ****         #endif /* End UART_Bridge_RXBUFFERSIZE > UART_Bridge_FIFO_LENGTH */
 735:.\Generated_Source\PSoC5/UART_Bridge.c **** 
 736:.\Generated_Source\PSoC5/UART_Bridge.c ****         return(size);
 737:.\Generated_Source\PSoC5/UART_Bridge.c ****     }
 435              		.loc 1 737 0
 436 0032 2046     		mov	r0, r4
 437 0034 10BD     		pop	{r4, pc}
 438              	.L50:
 439 0036 00BF     		.align	2
 440              	.L49:
 441 0038 00000000 		.word	.LANCHOR0
 442              		.cfi_endproc
 443              	.LFE13:
 444              		.size	UART_Bridge_GetRxBufferSize, .-UART_Bridge_GetRxBufferSize
 445              		.section	.text.UART_Bridge_SetRxAddressMode,"ax",%progbits
 446              		.align	1
 447              		.global	UART_Bridge_SetRxAddressMode
 448              		.thumb
 449              		.thumb_func
 450              		.type	UART_Bridge_SetRxAddressMode, %function
 451              	UART_Bridge_SetRxAddressMode:
 452              	.LFB15:
 738:.\Generated_Source\PSoC5/UART_Bridge.c **** 
 739:.\Generated_Source\PSoC5/UART_Bridge.c **** 
 740:.\Generated_Source\PSoC5/UART_Bridge.c ****     /*******************************************************************************
 741:.\Generated_Source\PSoC5/UART_Bridge.c ****     * Function Name: UART_Bridge_ClearRxBuffer
ARM GAS  C:\DOCUME~1\ADMINI~1\LOCALS~1\Temp\cc7EA4qV.s 			page 22


 742:.\Generated_Source\PSoC5/UART_Bridge.c ****     ********************************************************************************
 743:.\Generated_Source\PSoC5/UART_Bridge.c ****     *
 744:.\Generated_Source\PSoC5/UART_Bridge.c ****     * Summary:
 745:.\Generated_Source\PSoC5/UART_Bridge.c ****     *  Clears the RX RAM buffer by setting the read and write pointers both to zero.
 746:.\Generated_Source\PSoC5/UART_Bridge.c ****     *  Clears hardware RX FIFO.
 747:.\Generated_Source\PSoC5/UART_Bridge.c ****     *
 748:.\Generated_Source\PSoC5/UART_Bridge.c ****     * Parameters:
 749:.\Generated_Source\PSoC5/UART_Bridge.c ****     *  None.
 750:.\Generated_Source\PSoC5/UART_Bridge.c ****     *
 751:.\Generated_Source\PSoC5/UART_Bridge.c ****     * Return:
 752:.\Generated_Source\PSoC5/UART_Bridge.c ****     *  None.
 753:.\Generated_Source\PSoC5/UART_Bridge.c ****     *
 754:.\Generated_Source\PSoC5/UART_Bridge.c ****     * Global Variables:
 755:.\Generated_Source\PSoC5/UART_Bridge.c ****     *  UART_Bridge_rxBufferWrite - cleared to zero.
 756:.\Generated_Source\PSoC5/UART_Bridge.c ****     *  UART_Bridge_rxBufferRead - cleared to zero.
 757:.\Generated_Source\PSoC5/UART_Bridge.c ****     *  UART_Bridge_rxBufferLoopDetect - cleared to zero.
 758:.\Generated_Source\PSoC5/UART_Bridge.c ****     *  UART_Bridge_rxBufferOverflow - cleared to zero.
 759:.\Generated_Source\PSoC5/UART_Bridge.c ****     *
 760:.\Generated_Source\PSoC5/UART_Bridge.c ****     * Reentrant:
 761:.\Generated_Source\PSoC5/UART_Bridge.c ****     *  No.
 762:.\Generated_Source\PSoC5/UART_Bridge.c ****     *
 763:.\Generated_Source\PSoC5/UART_Bridge.c ****     * Theory:
 764:.\Generated_Source\PSoC5/UART_Bridge.c ****     *  Setting the pointers to zero makes the system believe there is no data to
 765:.\Generated_Source\PSoC5/UART_Bridge.c ****     *  read and writing will resume at address 0 overwriting any data that may
 766:.\Generated_Source\PSoC5/UART_Bridge.c ****     *  have remained in the RAM.
 767:.\Generated_Source\PSoC5/UART_Bridge.c ****     *
 768:.\Generated_Source\PSoC5/UART_Bridge.c ****     * Side Effects:
 769:.\Generated_Source\PSoC5/UART_Bridge.c ****     *  Any received data not read from the RAM or FIFO buffer will be lost.
 770:.\Generated_Source\PSoC5/UART_Bridge.c ****     *******************************************************************************/
 771:.\Generated_Source\PSoC5/UART_Bridge.c ****     void UART_Bridge_ClearRxBuffer(void) 
 772:.\Generated_Source\PSoC5/UART_Bridge.c ****     {
 773:.\Generated_Source\PSoC5/UART_Bridge.c ****         uint8 enableInterrupts;
 774:.\Generated_Source\PSoC5/UART_Bridge.c **** 
 775:.\Generated_Source\PSoC5/UART_Bridge.c ****         /* clear the HW FIFO */
 776:.\Generated_Source\PSoC5/UART_Bridge.c ****         /* Enter critical section */
 777:.\Generated_Source\PSoC5/UART_Bridge.c ****         enableInterrupts = CyEnterCriticalSection();
 778:.\Generated_Source\PSoC5/UART_Bridge.c ****         UART_Bridge_RXDATA_AUX_CTL_REG |=  UART_Bridge_RX_FIFO_CLR;
 779:.\Generated_Source\PSoC5/UART_Bridge.c ****         UART_Bridge_RXDATA_AUX_CTL_REG &= (uint8)~UART_Bridge_RX_FIFO_CLR;
 780:.\Generated_Source\PSoC5/UART_Bridge.c ****         /* Exit critical section */
 781:.\Generated_Source\PSoC5/UART_Bridge.c ****         CyExitCriticalSection(enableInterrupts);
 782:.\Generated_Source\PSoC5/UART_Bridge.c **** 
 783:.\Generated_Source\PSoC5/UART_Bridge.c ****         #if(UART_Bridge_RXBUFFERSIZE > UART_Bridge_FIFO_LENGTH)
 784:.\Generated_Source\PSoC5/UART_Bridge.c ****             /* Disable Rx interrupt. */
 785:.\Generated_Source\PSoC5/UART_Bridge.c ****             /* Protect variables that could change on interrupt. */
 786:.\Generated_Source\PSoC5/UART_Bridge.c ****             #if(UART_Bridge_RX_INTERRUPT_ENABLED)
 787:.\Generated_Source\PSoC5/UART_Bridge.c ****                 UART_Bridge_DisableRxInt();
 788:.\Generated_Source\PSoC5/UART_Bridge.c ****             #endif /* End UART_Bridge_RX_INTERRUPT_ENABLED */
 789:.\Generated_Source\PSoC5/UART_Bridge.c **** 
 790:.\Generated_Source\PSoC5/UART_Bridge.c ****             UART_Bridge_rxBufferRead = 0u;
 791:.\Generated_Source\PSoC5/UART_Bridge.c ****             UART_Bridge_rxBufferWrite = 0u;
 792:.\Generated_Source\PSoC5/UART_Bridge.c ****             UART_Bridge_rxBufferLoopDetect = 0u;
 793:.\Generated_Source\PSoC5/UART_Bridge.c ****             UART_Bridge_rxBufferOverflow = 0u;
 794:.\Generated_Source\PSoC5/UART_Bridge.c **** 
 795:.\Generated_Source\PSoC5/UART_Bridge.c ****             /* Enable Rx interrupt. */
 796:.\Generated_Source\PSoC5/UART_Bridge.c ****             #if(UART_Bridge_RX_INTERRUPT_ENABLED)
 797:.\Generated_Source\PSoC5/UART_Bridge.c ****                 UART_Bridge_EnableRxInt();
 798:.\Generated_Source\PSoC5/UART_Bridge.c ****             #endif /* End UART_Bridge_RX_INTERRUPT_ENABLED */
ARM GAS  C:\DOCUME~1\ADMINI~1\LOCALS~1\Temp\cc7EA4qV.s 			page 23


 799:.\Generated_Source\PSoC5/UART_Bridge.c ****         #endif /* End UART_Bridge_RXBUFFERSIZE > UART_Bridge_FIFO_LENGTH */
 800:.\Generated_Source\PSoC5/UART_Bridge.c **** 
 801:.\Generated_Source\PSoC5/UART_Bridge.c ****     }
 802:.\Generated_Source\PSoC5/UART_Bridge.c **** 
 803:.\Generated_Source\PSoC5/UART_Bridge.c **** 
 804:.\Generated_Source\PSoC5/UART_Bridge.c ****     /*******************************************************************************
 805:.\Generated_Source\PSoC5/UART_Bridge.c ****     * Function Name: UART_Bridge_SetRxAddressMode
 806:.\Generated_Source\PSoC5/UART_Bridge.c ****     ********************************************************************************
 807:.\Generated_Source\PSoC5/UART_Bridge.c ****     *
 808:.\Generated_Source\PSoC5/UART_Bridge.c ****     * Summary:
 809:.\Generated_Source\PSoC5/UART_Bridge.c ****     *  Set the receive addressing mode
 810:.\Generated_Source\PSoC5/UART_Bridge.c ****     *
 811:.\Generated_Source\PSoC5/UART_Bridge.c ****     * Parameters:
 812:.\Generated_Source\PSoC5/UART_Bridge.c ****     *  addressMode: Enumerated value indicating the mode of RX addressing
 813:.\Generated_Source\PSoC5/UART_Bridge.c ****     *  UART_Bridge__B_UART__AM_SW_BYTE_BYTE -  Software Byte-by-Byte address
 814:.\Generated_Source\PSoC5/UART_Bridge.c ****     *                                               detection
 815:.\Generated_Source\PSoC5/UART_Bridge.c ****     *  UART_Bridge__B_UART__AM_SW_DETECT_TO_BUFFER - Software Detect to Buffer
 816:.\Generated_Source\PSoC5/UART_Bridge.c ****     *                                               address detection
 817:.\Generated_Source\PSoC5/UART_Bridge.c ****     *  UART_Bridge__B_UART__AM_HW_BYTE_BY_BYTE - Hardware Byte-by-Byte address
 818:.\Generated_Source\PSoC5/UART_Bridge.c ****     *                                               detection
 819:.\Generated_Source\PSoC5/UART_Bridge.c ****     *  UART_Bridge__B_UART__AM_HW_DETECT_TO_BUFFER - Hardware Detect to Buffer
 820:.\Generated_Source\PSoC5/UART_Bridge.c ****     *                                               address detection
 821:.\Generated_Source\PSoC5/UART_Bridge.c ****     *  UART_Bridge__B_UART__AM_NONE - No address detection
 822:.\Generated_Source\PSoC5/UART_Bridge.c ****     *
 823:.\Generated_Source\PSoC5/UART_Bridge.c ****     * Return:
 824:.\Generated_Source\PSoC5/UART_Bridge.c ****     *  None.
 825:.\Generated_Source\PSoC5/UART_Bridge.c ****     *
 826:.\Generated_Source\PSoC5/UART_Bridge.c ****     * Global Variables:
 827:.\Generated_Source\PSoC5/UART_Bridge.c ****     *  UART_Bridge_rxAddressMode - the parameter stored in this variable for
 828:.\Generated_Source\PSoC5/UART_Bridge.c ****     *   the farther usage in RX ISR.
 829:.\Generated_Source\PSoC5/UART_Bridge.c ****     *  UART_Bridge_rxAddressDetected - set to initial state (0).
 830:.\Generated_Source\PSoC5/UART_Bridge.c ****     *
 831:.\Generated_Source\PSoC5/UART_Bridge.c ****     *******************************************************************************/
 832:.\Generated_Source\PSoC5/UART_Bridge.c ****     void UART_Bridge_SetRxAddressMode(uint8 addressMode)
 833:.\Generated_Source\PSoC5/UART_Bridge.c ****                                                         
 834:.\Generated_Source\PSoC5/UART_Bridge.c ****     {
 453              		.loc 1 834 0
 454              		.cfi_startproc
 455              		@ args = 0, pretend = 0, frame = 0
 456              		@ frame_needed = 0, uses_anonymous_args = 0
 457              		@ link register save eliminated.
 458              	.LVL29:
 835:.\Generated_Source\PSoC5/UART_Bridge.c ****         #if(UART_Bridge_RXHW_ADDRESS_ENABLED)
 836:.\Generated_Source\PSoC5/UART_Bridge.c ****             #if(UART_Bridge_CONTROL_REG_REMOVED)
 837:.\Generated_Source\PSoC5/UART_Bridge.c ****                 if(addressMode != 0u) { }     /* release compiler warning */
 838:.\Generated_Source\PSoC5/UART_Bridge.c ****             #else /* UART_Bridge_CONTROL_REG_REMOVED */
 839:.\Generated_Source\PSoC5/UART_Bridge.c ****                 uint8 tmpCtrl;
 840:.\Generated_Source\PSoC5/UART_Bridge.c ****                 tmpCtrl = UART_Bridge_CONTROL_REG & (uint8)~UART_Bridge_CTRL_RXADDR_MODE_MASK;
 841:.\Generated_Source\PSoC5/UART_Bridge.c ****                 tmpCtrl |= (uint8)(addressMode << UART_Bridge_CTRL_RXADDR_MODE0_SHIFT);
 842:.\Generated_Source\PSoC5/UART_Bridge.c ****                 UART_Bridge_CONTROL_REG = tmpCtrl;
 843:.\Generated_Source\PSoC5/UART_Bridge.c ****                 #if(UART_Bridge_RX_INTERRUPT_ENABLED && \
 844:.\Generated_Source\PSoC5/UART_Bridge.c ****                    (UART_Bridge_RXBUFFERSIZE > UART_Bridge_FIFO_LENGTH) )
 845:.\Generated_Source\PSoC5/UART_Bridge.c ****                     UART_Bridge_rxAddressMode = addressMode;
 846:.\Generated_Source\PSoC5/UART_Bridge.c ****                     UART_Bridge_rxAddressDetected = 0u;
 847:.\Generated_Source\PSoC5/UART_Bridge.c ****                 #endif /* End UART_Bridge_RXBUFFERSIZE > UART_Bridge_FIFO_LENGTH*/
 848:.\Generated_Source\PSoC5/UART_Bridge.c ****             #endif /* End UART_Bridge_CONTROL_REG_REMOVED */
 849:.\Generated_Source\PSoC5/UART_Bridge.c ****         #else /* UART_Bridge_RXHW_ADDRESS_ENABLED */
ARM GAS  C:\DOCUME~1\ADMINI~1\LOCALS~1\Temp\cc7EA4qV.s 			page 24


 850:.\Generated_Source\PSoC5/UART_Bridge.c ****             if(addressMode != 0u) { }     /* release compiler warning */
 851:.\Generated_Source\PSoC5/UART_Bridge.c ****         #endif /* End UART_Bridge_RXHW_ADDRESS_ENABLED */
 852:.\Generated_Source\PSoC5/UART_Bridge.c ****     }
 459              		.loc 1 852 0
 460 0000 7047     		bx	lr
 461              		.cfi_endproc
 462              	.LFE15:
 463              		.size	UART_Bridge_SetRxAddressMode, .-UART_Bridge_SetRxAddressMode
 464              		.section	.text.UART_Bridge_SetRxAddress1,"ax",%progbits
 465              		.align	1
 466              		.global	UART_Bridge_SetRxAddress1
 467              		.thumb
 468              		.thumb_func
 469              		.type	UART_Bridge_SetRxAddress1, %function
 470              	UART_Bridge_SetRxAddress1:
 471              	.LFB16:
 853:.\Generated_Source\PSoC5/UART_Bridge.c **** 
 854:.\Generated_Source\PSoC5/UART_Bridge.c **** 
 855:.\Generated_Source\PSoC5/UART_Bridge.c ****     /*******************************************************************************
 856:.\Generated_Source\PSoC5/UART_Bridge.c ****     * Function Name: UART_Bridge_SetRxAddress1
 857:.\Generated_Source\PSoC5/UART_Bridge.c ****     ********************************************************************************
 858:.\Generated_Source\PSoC5/UART_Bridge.c ****     *
 859:.\Generated_Source\PSoC5/UART_Bridge.c ****     * Summary:
 860:.\Generated_Source\PSoC5/UART_Bridge.c ****     *  Set the first hardware address compare value
 861:.\Generated_Source\PSoC5/UART_Bridge.c ****     *
 862:.\Generated_Source\PSoC5/UART_Bridge.c ****     * Parameters:
 863:.\Generated_Source\PSoC5/UART_Bridge.c ****     *  address
 864:.\Generated_Source\PSoC5/UART_Bridge.c ****     *
 865:.\Generated_Source\PSoC5/UART_Bridge.c ****     * Return:
 866:.\Generated_Source\PSoC5/UART_Bridge.c ****     *  None.
 867:.\Generated_Source\PSoC5/UART_Bridge.c ****     *
 868:.\Generated_Source\PSoC5/UART_Bridge.c ****     *******************************************************************************/
 869:.\Generated_Source\PSoC5/UART_Bridge.c ****     void UART_Bridge_SetRxAddress1(uint8 address) 
 870:.\Generated_Source\PSoC5/UART_Bridge.c **** 
 871:.\Generated_Source\PSoC5/UART_Bridge.c ****     {
 472              		.loc 1 871 0
 473              		.cfi_startproc
 474              		@ args = 0, pretend = 0, frame = 0
 475              		@ frame_needed = 0, uses_anonymous_args = 0
 476              		@ link register save eliminated.
 477              	.LVL30:
 872:.\Generated_Source\PSoC5/UART_Bridge.c ****         UART_Bridge_RXADDRESS1_REG = address;
 478              		.loc 1 872 0
 479 0000 014B     		ldr	r3, .L55
 480 0002 1870     		strb	r0, [r3, #0]
 873:.\Generated_Source\PSoC5/UART_Bridge.c ****     }
 481              		.loc 1 873 0
 482 0004 7047     		bx	lr
 483              	.L56:
 484 0006 00BF     		.align	2
 485              	.L55:
 486 0008 20640040 		.word	1073767456
 487              		.cfi_endproc
 488              	.LFE16:
 489              		.size	UART_Bridge_SetRxAddress1, .-UART_Bridge_SetRxAddress1
 490              		.section	.text.UART_Bridge_SetRxAddress2,"ax",%progbits
 491              		.align	1
ARM GAS  C:\DOCUME~1\ADMINI~1\LOCALS~1\Temp\cc7EA4qV.s 			page 25


 492              		.global	UART_Bridge_SetRxAddress2
 493              		.thumb
 494              		.thumb_func
 495              		.type	UART_Bridge_SetRxAddress2, %function
 496              	UART_Bridge_SetRxAddress2:
 497              	.LFB17:
 874:.\Generated_Source\PSoC5/UART_Bridge.c **** 
 875:.\Generated_Source\PSoC5/UART_Bridge.c **** 
 876:.\Generated_Source\PSoC5/UART_Bridge.c ****     /*******************************************************************************
 877:.\Generated_Source\PSoC5/UART_Bridge.c ****     * Function Name: UART_Bridge_SetRxAddress2
 878:.\Generated_Source\PSoC5/UART_Bridge.c ****     ********************************************************************************
 879:.\Generated_Source\PSoC5/UART_Bridge.c ****     *
 880:.\Generated_Source\PSoC5/UART_Bridge.c ****     * Summary:
 881:.\Generated_Source\PSoC5/UART_Bridge.c ****     *  Set the second hardware address compare value
 882:.\Generated_Source\PSoC5/UART_Bridge.c ****     *
 883:.\Generated_Source\PSoC5/UART_Bridge.c ****     * Parameters:
 884:.\Generated_Source\PSoC5/UART_Bridge.c ****     *  address
 885:.\Generated_Source\PSoC5/UART_Bridge.c ****     *
 886:.\Generated_Source\PSoC5/UART_Bridge.c ****     * Return:
 887:.\Generated_Source\PSoC5/UART_Bridge.c ****     *  None.
 888:.\Generated_Source\PSoC5/UART_Bridge.c ****     *
 889:.\Generated_Source\PSoC5/UART_Bridge.c ****     *******************************************************************************/
 890:.\Generated_Source\PSoC5/UART_Bridge.c ****     void UART_Bridge_SetRxAddress2(uint8 address) 
 891:.\Generated_Source\PSoC5/UART_Bridge.c ****     {
 498              		.loc 1 891 0
 499              		.cfi_startproc
 500              		@ args = 0, pretend = 0, frame = 0
 501              		@ frame_needed = 0, uses_anonymous_args = 0
 502              		@ link register save eliminated.
 503              	.LVL31:
 892:.\Generated_Source\PSoC5/UART_Bridge.c ****         UART_Bridge_RXADDRESS2_REG = address;
 504              		.loc 1 892 0
 505 0000 014B     		ldr	r3, .L59
 506 0002 1870     		strb	r0, [r3, #0]
 893:.\Generated_Source\PSoC5/UART_Bridge.c ****     }
 507              		.loc 1 893 0
 508 0004 7047     		bx	lr
 509              	.L60:
 510 0006 00BF     		.align	2
 511              	.L59:
 512 0008 30640040 		.word	1073767472
 513              		.cfi_endproc
 514              	.LFE17:
 515              		.size	UART_Bridge_SetRxAddress2, .-UART_Bridge_SetRxAddress2
 516              		.section	.text.UART_Bridge_EnableTxInt,"ax",%progbits
 517              		.align	1
 518              		.global	UART_Bridge_EnableTxInt
 519              		.thumb
 520              		.thumb_func
 521              		.type	UART_Bridge_EnableTxInt, %function
 522              	UART_Bridge_EnableTxInt:
 523              	.LFB18:
 894:.\Generated_Source\PSoC5/UART_Bridge.c **** 
 895:.\Generated_Source\PSoC5/UART_Bridge.c **** #endif  /* UART_Bridge_RX_ENABLED || UART_Bridge_HD_ENABLED*/
 896:.\Generated_Source\PSoC5/UART_Bridge.c **** 
 897:.\Generated_Source\PSoC5/UART_Bridge.c **** 
 898:.\Generated_Source\PSoC5/UART_Bridge.c **** #if( (UART_Bridge_TX_ENABLED) || (UART_Bridge_HD_ENABLED) )
ARM GAS  C:\DOCUME~1\ADMINI~1\LOCALS~1\Temp\cc7EA4qV.s 			page 26


 899:.\Generated_Source\PSoC5/UART_Bridge.c **** 
 900:.\Generated_Source\PSoC5/UART_Bridge.c ****     #if(UART_Bridge_TX_INTERRUPT_ENABLED)
 901:.\Generated_Source\PSoC5/UART_Bridge.c **** 
 902:.\Generated_Source\PSoC5/UART_Bridge.c ****         /*******************************************************************************
 903:.\Generated_Source\PSoC5/UART_Bridge.c ****         * Function Name: UART_Bridge_EnableTxInt
 904:.\Generated_Source\PSoC5/UART_Bridge.c ****         ********************************************************************************
 905:.\Generated_Source\PSoC5/UART_Bridge.c ****         *
 906:.\Generated_Source\PSoC5/UART_Bridge.c ****         * Summary:
 907:.\Generated_Source\PSoC5/UART_Bridge.c ****         *  Enable TX interrupt generation
 908:.\Generated_Source\PSoC5/UART_Bridge.c ****         *
 909:.\Generated_Source\PSoC5/UART_Bridge.c ****         * Parameters:
 910:.\Generated_Source\PSoC5/UART_Bridge.c ****         *  None.
 911:.\Generated_Source\PSoC5/UART_Bridge.c ****         *
 912:.\Generated_Source\PSoC5/UART_Bridge.c ****         * Return:
 913:.\Generated_Source\PSoC5/UART_Bridge.c ****         *  None.
 914:.\Generated_Source\PSoC5/UART_Bridge.c ****         *
 915:.\Generated_Source\PSoC5/UART_Bridge.c ****         * Theory:
 916:.\Generated_Source\PSoC5/UART_Bridge.c ****         *  Enable the interrupt output -or- the interrupt component itself
 917:.\Generated_Source\PSoC5/UART_Bridge.c ****         *
 918:.\Generated_Source\PSoC5/UART_Bridge.c ****         *******************************************************************************/
 919:.\Generated_Source\PSoC5/UART_Bridge.c ****         void UART_Bridge_EnableTxInt(void) 
 920:.\Generated_Source\PSoC5/UART_Bridge.c ****         {
 524              		.loc 1 920 0
 525              		.cfi_startproc
 526              		@ args = 0, pretend = 0, frame = 0
 527              		@ frame_needed = 0, uses_anonymous_args = 0
 528              		@ link register save eliminated.
 921:.\Generated_Source\PSoC5/UART_Bridge.c ****             CyIntEnable(UART_Bridge_TX_VECT_NUM);
 529              		.loc 1 921 0
 530 0000 014B     		ldr	r3, .L63
 531 0002 0422     		movs	r2, #4
 532 0004 1A60     		str	r2, [r3, #0]
 922:.\Generated_Source\PSoC5/UART_Bridge.c ****         }
 533              		.loc 1 922 0
 534 0006 7047     		bx	lr
 535              	.L64:
 536              		.align	2
 537              	.L63:
 538 0008 00E100E0 		.word	-536813312
 539              		.cfi_endproc
 540              	.LFE18:
 541              		.size	UART_Bridge_EnableTxInt, .-UART_Bridge_EnableTxInt
 542              		.section	.text.UART_Bridge_DisableTxInt,"ax",%progbits
 543              		.align	1
 544              		.global	UART_Bridge_DisableTxInt
 545              		.thumb
 546              		.thumb_func
 547              		.type	UART_Bridge_DisableTxInt, %function
 548              	UART_Bridge_DisableTxInt:
 549              	.LFB19:
 923:.\Generated_Source\PSoC5/UART_Bridge.c **** 
 924:.\Generated_Source\PSoC5/UART_Bridge.c **** 
 925:.\Generated_Source\PSoC5/UART_Bridge.c ****         /*******************************************************************************
 926:.\Generated_Source\PSoC5/UART_Bridge.c ****         * Function Name: UART_Bridge_DisableTxInt
 927:.\Generated_Source\PSoC5/UART_Bridge.c ****         ********************************************************************************
 928:.\Generated_Source\PSoC5/UART_Bridge.c ****         *
 929:.\Generated_Source\PSoC5/UART_Bridge.c ****         * Summary:
ARM GAS  C:\DOCUME~1\ADMINI~1\LOCALS~1\Temp\cc7EA4qV.s 			page 27


 930:.\Generated_Source\PSoC5/UART_Bridge.c ****         *  Disable TX interrupt generation
 931:.\Generated_Source\PSoC5/UART_Bridge.c ****         *
 932:.\Generated_Source\PSoC5/UART_Bridge.c ****         * Parameters:
 933:.\Generated_Source\PSoC5/UART_Bridge.c ****         *  None.
 934:.\Generated_Source\PSoC5/UART_Bridge.c ****         *
 935:.\Generated_Source\PSoC5/UART_Bridge.c ****         * Return:
 936:.\Generated_Source\PSoC5/UART_Bridge.c ****         *  None.
 937:.\Generated_Source\PSoC5/UART_Bridge.c ****         *
 938:.\Generated_Source\PSoC5/UART_Bridge.c ****         * Theory:
 939:.\Generated_Source\PSoC5/UART_Bridge.c ****         *  Disable the interrupt output -or- the interrupt component itself
 940:.\Generated_Source\PSoC5/UART_Bridge.c ****         *
 941:.\Generated_Source\PSoC5/UART_Bridge.c ****         *******************************************************************************/
 942:.\Generated_Source\PSoC5/UART_Bridge.c ****         void UART_Bridge_DisableTxInt(void) 
 943:.\Generated_Source\PSoC5/UART_Bridge.c ****         {
 550              		.loc 1 943 0
 551              		.cfi_startproc
 552              		@ args = 0, pretend = 0, frame = 0
 553              		@ frame_needed = 0, uses_anonymous_args = 0
 554              		@ link register save eliminated.
 944:.\Generated_Source\PSoC5/UART_Bridge.c ****             CyIntDisable(UART_Bridge_TX_VECT_NUM);
 555              		.loc 1 944 0
 556 0000 014B     		ldr	r3, .L67
 557 0002 0422     		movs	r2, #4
 558 0004 1A60     		str	r2, [r3, #0]
 945:.\Generated_Source\PSoC5/UART_Bridge.c ****         }
 559              		.loc 1 945 0
 560 0006 7047     		bx	lr
 561              	.L68:
 562              		.align	2
 563              	.L67:
 564 0008 80E100E0 		.word	-536813184
 565              		.cfi_endproc
 566              	.LFE19:
 567              		.size	UART_Bridge_DisableTxInt, .-UART_Bridge_DisableTxInt
 568              		.section	.text.UART_Bridge_SetTxInterruptMode,"ax",%progbits
 569              		.align	1
 570              		.global	UART_Bridge_SetTxInterruptMode
 571              		.thumb
 572              		.thumb_func
 573              		.type	UART_Bridge_SetTxInterruptMode, %function
 574              	UART_Bridge_SetTxInterruptMode:
 575              	.LFB20:
 946:.\Generated_Source\PSoC5/UART_Bridge.c **** 
 947:.\Generated_Source\PSoC5/UART_Bridge.c ****     #endif /* UART_Bridge_TX_INTERRUPT_ENABLED */
 948:.\Generated_Source\PSoC5/UART_Bridge.c **** 
 949:.\Generated_Source\PSoC5/UART_Bridge.c **** 
 950:.\Generated_Source\PSoC5/UART_Bridge.c ****     /*******************************************************************************
 951:.\Generated_Source\PSoC5/UART_Bridge.c ****     * Function Name: UART_Bridge_SetTxInterruptMode
 952:.\Generated_Source\PSoC5/UART_Bridge.c ****     ********************************************************************************
 953:.\Generated_Source\PSoC5/UART_Bridge.c ****     *
 954:.\Generated_Source\PSoC5/UART_Bridge.c ****     * Summary:
 955:.\Generated_Source\PSoC5/UART_Bridge.c ****     *  Configure which status bits trigger an interrupt event
 956:.\Generated_Source\PSoC5/UART_Bridge.c ****     *
 957:.\Generated_Source\PSoC5/UART_Bridge.c ****     * Parameters:
 958:.\Generated_Source\PSoC5/UART_Bridge.c ****     *  intSrc: An or'd combination of the desired status bit masks (defined in
 959:.\Generated_Source\PSoC5/UART_Bridge.c ****     *          the header file)
 960:.\Generated_Source\PSoC5/UART_Bridge.c ****     *
ARM GAS  C:\DOCUME~1\ADMINI~1\LOCALS~1\Temp\cc7EA4qV.s 			page 28


 961:.\Generated_Source\PSoC5/UART_Bridge.c ****     * Return:
 962:.\Generated_Source\PSoC5/UART_Bridge.c ****     *  None.
 963:.\Generated_Source\PSoC5/UART_Bridge.c ****     *
 964:.\Generated_Source\PSoC5/UART_Bridge.c ****     * Theory:
 965:.\Generated_Source\PSoC5/UART_Bridge.c ****     *  Enables the output of specific status bits to the interrupt controller
 966:.\Generated_Source\PSoC5/UART_Bridge.c ****     *
 967:.\Generated_Source\PSoC5/UART_Bridge.c ****     *******************************************************************************/
 968:.\Generated_Source\PSoC5/UART_Bridge.c ****     void UART_Bridge_SetTxInterruptMode(uint8 intSrc) 
 969:.\Generated_Source\PSoC5/UART_Bridge.c ****     {
 576              		.loc 1 969 0
 577              		.cfi_startproc
 578              		@ args = 0, pretend = 0, frame = 0
 579              		@ frame_needed = 0, uses_anonymous_args = 0
 580              		@ link register save eliminated.
 581              	.LVL32:
 970:.\Generated_Source\PSoC5/UART_Bridge.c ****         UART_Bridge_TXSTATUS_MASK_REG = intSrc;
 582              		.loc 1 970 0
 583 0000 014B     		ldr	r3, .L71
 584 0002 1870     		strb	r0, [r3, #0]
 971:.\Generated_Source\PSoC5/UART_Bridge.c ****     }
 585              		.loc 1 971 0
 586 0004 7047     		bx	lr
 587              	.L72:
 588 0006 00BF     		.align	2
 589              	.L71:
 590 0008 82640040 		.word	1073767554
 591              		.cfi_endproc
 592              	.LFE20:
 593              		.size	UART_Bridge_SetTxInterruptMode, .-UART_Bridge_SetTxInterruptMode
 594              		.section	.text.UART_Bridge_WriteTxData,"ax",%progbits
 595              		.align	1
 596              		.global	UART_Bridge_WriteTxData
 597              		.thumb
 598              		.thumb_func
 599              		.type	UART_Bridge_WriteTxData, %function
 600              	UART_Bridge_WriteTxData:
 601              	.LFB21:
 972:.\Generated_Source\PSoC5/UART_Bridge.c **** 
 973:.\Generated_Source\PSoC5/UART_Bridge.c **** 
 974:.\Generated_Source\PSoC5/UART_Bridge.c ****     /*******************************************************************************
 975:.\Generated_Source\PSoC5/UART_Bridge.c ****     * Function Name: UART_Bridge_WriteTxData
 976:.\Generated_Source\PSoC5/UART_Bridge.c ****     ********************************************************************************
 977:.\Generated_Source\PSoC5/UART_Bridge.c ****     *
 978:.\Generated_Source\PSoC5/UART_Bridge.c ****     * Summary:
 979:.\Generated_Source\PSoC5/UART_Bridge.c ****     *  Write a byte of data to the Transmit FIFO or TX buffer to be sent when the
 980:.\Generated_Source\PSoC5/UART_Bridge.c ****     *  bus is available. WriteTxData sends a byte without checking for buffer room
 981:.\Generated_Source\PSoC5/UART_Bridge.c ****     *  or status. It is up to the user to separately check status.
 982:.\Generated_Source\PSoC5/UART_Bridge.c ****     *
 983:.\Generated_Source\PSoC5/UART_Bridge.c ****     * Parameters:
 984:.\Generated_Source\PSoC5/UART_Bridge.c ****     *  TXDataByte: byte of data to place in the transmit FIFO
 985:.\Generated_Source\PSoC5/UART_Bridge.c ****     *
 986:.\Generated_Source\PSoC5/UART_Bridge.c ****     * Return:
 987:.\Generated_Source\PSoC5/UART_Bridge.c ****     * void
 988:.\Generated_Source\PSoC5/UART_Bridge.c ****     *
 989:.\Generated_Source\PSoC5/UART_Bridge.c ****     * Global Variables:
 990:.\Generated_Source\PSoC5/UART_Bridge.c ****     *  UART_Bridge_txBuffer - RAM buffer pointer for save data for transmission
 991:.\Generated_Source\PSoC5/UART_Bridge.c ****     *  UART_Bridge_txBufferWrite - cyclic index for write to txBuffer,
ARM GAS  C:\DOCUME~1\ADMINI~1\LOCALS~1\Temp\cc7EA4qV.s 			page 29


 992:.\Generated_Source\PSoC5/UART_Bridge.c ****     *    incremented after each byte saved to buffer.
 993:.\Generated_Source\PSoC5/UART_Bridge.c ****     *  UART_Bridge_txBufferRead - cyclic index for read from txBuffer,
 994:.\Generated_Source\PSoC5/UART_Bridge.c ****     *    checked to identify the condition to write to FIFO directly or to TX buffer
 995:.\Generated_Source\PSoC5/UART_Bridge.c ****     *  UART_Bridge_initVar - checked to identify that the component has been
 996:.\Generated_Source\PSoC5/UART_Bridge.c ****     *    initialized.
 997:.\Generated_Source\PSoC5/UART_Bridge.c ****     *
 998:.\Generated_Source\PSoC5/UART_Bridge.c ****     * Reentrant:
 999:.\Generated_Source\PSoC5/UART_Bridge.c ****     *  No.
1000:.\Generated_Source\PSoC5/UART_Bridge.c ****     *
1001:.\Generated_Source\PSoC5/UART_Bridge.c ****     *******************************************************************************/
1002:.\Generated_Source\PSoC5/UART_Bridge.c ****     void UART_Bridge_WriteTxData(uint8 txDataByte) 
1003:.\Generated_Source\PSoC5/UART_Bridge.c ****     {
 602              		.loc 1 1003 0
 603              		.cfi_startproc
 604              		@ args = 0, pretend = 0, frame = 0
 605              		@ frame_needed = 0, uses_anonymous_args = 0
 606              	.LVL33:
 607 0000 70B5     		push	{r4, r5, r6, lr}
 608              	.LCFI4:
 609              		.cfi_def_cfa_offset 16
1004:.\Generated_Source\PSoC5/UART_Bridge.c ****         /* If not Initialized then skip this function*/
1005:.\Generated_Source\PSoC5/UART_Bridge.c ****         if(UART_Bridge_initVar != 0u)
 610              		.loc 1 1005 0
 611 0002 124C     		ldr	r4, .L79
 612              		.cfi_offset 14, -4
 613              		.cfi_offset 6, -8
 614              		.cfi_offset 5, -12
 615              		.cfi_offset 4, -16
 616              		.loc 1 1003 0
 617 0004 0546     		mov	r5, r0
 618              		.loc 1 1005 0
 619 0006 2379     		ldrb	r3, [r4, #4]	@ zero_extendqisi2
 620 0008 002B     		cmp	r3, #0
 621 000a 1DD0     		beq	.L78
 622              	.LVL34:
1006:.\Generated_Source\PSoC5/UART_Bridge.c ****         {
1007:.\Generated_Source\PSoC5/UART_Bridge.c ****             #if(UART_Bridge_TXBUFFERSIZE > UART_Bridge_FIFO_LENGTH)
1008:.\Generated_Source\PSoC5/UART_Bridge.c **** 
1009:.\Generated_Source\PSoC5/UART_Bridge.c ****                 /* Disable Tx interrupt. */
1010:.\Generated_Source\PSoC5/UART_Bridge.c ****                 /* Protect variables that could change on interrupt. */
1011:.\Generated_Source\PSoC5/UART_Bridge.c ****                 #if(UART_Bridge_TX_INTERRUPT_ENABLED)
1012:.\Generated_Source\PSoC5/UART_Bridge.c ****                     UART_Bridge_DisableTxInt();
 623              		.loc 1 1012 0
 624 000c FFF7FEFF 		bl	UART_Bridge_DisableTxInt
1013:.\Generated_Source\PSoC5/UART_Bridge.c ****                 #endif /* End UART_Bridge_TX_INTERRUPT_ENABLED */
1014:.\Generated_Source\PSoC5/UART_Bridge.c **** 
1015:.\Generated_Source\PSoC5/UART_Bridge.c ****                 if( (UART_Bridge_txBufferRead == UART_Bridge_txBufferWrite) &&
 625              		.loc 1 1015 0
 626 0010 6279     		ldrb	r2, [r4, #5]	@ zero_extendqisi2
 627 0012 A379     		ldrb	r3, [r4, #6]	@ zero_extendqisi2
 628 0014 9A42     		cmp	r2, r3
 629 0016 07D1     		bne	.L75
1016:.\Generated_Source\PSoC5/UART_Bridge.c ****                     ((UART_Bridge_TXSTATUS_REG & UART_Bridge_TX_STS_FIFO_FULL) == 0u) )
 630              		.loc 1 1016 0
 631 0018 0D4A     		ldr	r2, .L79+4
 632 001a 1278     		ldrb	r2, [r2, #0]	@ zero_extendqisi2
 633              		.loc 1 1015 0
ARM GAS  C:\DOCUME~1\ADMINI~1\LOCALS~1\Temp\cc7EA4qV.s 			page 30


 634 001c 12F0040F 		tst	r2, #4
 635 0020 02D1     		bne	.L75
1017:.\Generated_Source\PSoC5/UART_Bridge.c ****                 {
1018:.\Generated_Source\PSoC5/UART_Bridge.c ****                     /* Add directly to the FIFO. */
1019:.\Generated_Source\PSoC5/UART_Bridge.c ****                     UART_Bridge_TXDATA_REG = txDataByte;
 636              		.loc 1 1019 0
 637 0022 0C4B     		ldr	r3, .L79+8
 638 0024 1D70     		strb	r5, [r3, #0]
 639              		.loc 1 1015 0
 640 0026 0BE0     		b	.L76
 641              	.L75:
1020:.\Generated_Source\PSoC5/UART_Bridge.c ****                 }
1021:.\Generated_Source\PSoC5/UART_Bridge.c ****                 else
1022:.\Generated_Source\PSoC5/UART_Bridge.c ****                 {
1023:.\Generated_Source\PSoC5/UART_Bridge.c ****                     if(UART_Bridge_txBufferWrite >= UART_Bridge_TXBUFFERSIZE)
 642              		.loc 1 1023 0
 643 0028 13F0800F 		tst	r3, #128
 644 002c 02D0     		beq	.L77
1024:.\Generated_Source\PSoC5/UART_Bridge.c ****                     {
1025:.\Generated_Source\PSoC5/UART_Bridge.c ****                         UART_Bridge_txBufferWrite = 0u;
 645              		.loc 1 1025 0
 646 002e 074B     		ldr	r3, .L79
 647 0030 0022     		movs	r2, #0
 648 0032 9A71     		strb	r2, [r3, #6]
 649              	.L77:
1026:.\Generated_Source\PSoC5/UART_Bridge.c ****                     }
1027:.\Generated_Source\PSoC5/UART_Bridge.c **** 
1028:.\Generated_Source\PSoC5/UART_Bridge.c ****                     UART_Bridge_txBuffer[UART_Bridge_txBufferWrite] = txDataByte;
 650              		.loc 1 1028 0
 651 0034 054B     		ldr	r3, .L79
 652 0036 0849     		ldr	r1, .L79+12
 653 0038 9A79     		ldrb	r2, [r3, #6]	@ zero_extendqisi2
 654 003a 8D54     		strb	r5, [r1, r2]
1029:.\Generated_Source\PSoC5/UART_Bridge.c **** 
1030:.\Generated_Source\PSoC5/UART_Bridge.c ****                     /* Add to the software buffer. */
1031:.\Generated_Source\PSoC5/UART_Bridge.c ****                     UART_Bridge_txBufferWrite++;
 655              		.loc 1 1031 0
 656 003c 0132     		adds	r2, r2, #1
 657 003e 9A71     		strb	r2, [r3, #6]
 658              	.L76:
1032:.\Generated_Source\PSoC5/UART_Bridge.c **** 
1033:.\Generated_Source\PSoC5/UART_Bridge.c ****                 }
1034:.\Generated_Source\PSoC5/UART_Bridge.c **** 
1035:.\Generated_Source\PSoC5/UART_Bridge.c ****                 /* Enable Tx interrupt. */
1036:.\Generated_Source\PSoC5/UART_Bridge.c ****                 #if(UART_Bridge_TX_INTERRUPT_ENABLED)
1037:.\Generated_Source\PSoC5/UART_Bridge.c ****                     UART_Bridge_EnableTxInt();
1038:.\Generated_Source\PSoC5/UART_Bridge.c ****                 #endif /* End UART_Bridge_TX_INTERRUPT_ENABLED */
1039:.\Generated_Source\PSoC5/UART_Bridge.c **** 
1040:.\Generated_Source\PSoC5/UART_Bridge.c ****             #else /* UART_Bridge_TXBUFFERSIZE > UART_Bridge_FIFO_LENGTH */
1041:.\Generated_Source\PSoC5/UART_Bridge.c **** 
1042:.\Generated_Source\PSoC5/UART_Bridge.c ****                 /* Add directly to the FIFO. */
1043:.\Generated_Source\PSoC5/UART_Bridge.c ****                 UART_Bridge_TXDATA_REG = txDataByte;
1044:.\Generated_Source\PSoC5/UART_Bridge.c **** 
1045:.\Generated_Source\PSoC5/UART_Bridge.c ****             #endif /* End UART_Bridge_TXBUFFERSIZE > UART_Bridge_FIFO_LENGTH */
1046:.\Generated_Source\PSoC5/UART_Bridge.c ****         }
1047:.\Generated_Source\PSoC5/UART_Bridge.c ****     }
 659              		.loc 1 1047 0
ARM GAS  C:\DOCUME~1\ADMINI~1\LOCALS~1\Temp\cc7EA4qV.s 			page 31


 660 0040 BDE87040 		pop	{r4, r5, r6, lr}
 661              		.loc 1 1037 0
 662 0044 FFF7FEBF 		b	UART_Bridge_EnableTxInt
 663              	.LVL35:
 664              	.L78:
 665 0048 70BD     		pop	{r4, r5, r6, pc}
 666              	.L80:
 667 004a 00BF     		.align	2
 668              	.L79:
 669 004c 00000000 		.word	.LANCHOR0
 670 0050 62640040 		.word	1073767522
 671 0054 42640040 		.word	1073767490
 672 0058 00000000 		.word	UART_Bridge_txBuffer
 673              		.cfi_endproc
 674              	.LFE21:
 675              		.size	UART_Bridge_WriteTxData, .-UART_Bridge_WriteTxData
 676              		.section	.text.UART_Bridge_ReadTxStatus,"ax",%progbits
 677              		.align	1
 678              		.global	UART_Bridge_ReadTxStatus
 679              		.thumb
 680              		.thumb_func
 681              		.type	UART_Bridge_ReadTxStatus, %function
 682              	UART_Bridge_ReadTxStatus:
 683              	.LFB22:
1048:.\Generated_Source\PSoC5/UART_Bridge.c **** 
1049:.\Generated_Source\PSoC5/UART_Bridge.c **** 
1050:.\Generated_Source\PSoC5/UART_Bridge.c ****     /*******************************************************************************
1051:.\Generated_Source\PSoC5/UART_Bridge.c ****     * Function Name: UART_Bridge_ReadTxStatus
1052:.\Generated_Source\PSoC5/UART_Bridge.c ****     ********************************************************************************
1053:.\Generated_Source\PSoC5/UART_Bridge.c ****     *
1054:.\Generated_Source\PSoC5/UART_Bridge.c ****     * Summary:
1055:.\Generated_Source\PSoC5/UART_Bridge.c ****     *  Read the status register for the component
1056:.\Generated_Source\PSoC5/UART_Bridge.c ****     *
1057:.\Generated_Source\PSoC5/UART_Bridge.c ****     * Parameters:
1058:.\Generated_Source\PSoC5/UART_Bridge.c ****     *  None.
1059:.\Generated_Source\PSoC5/UART_Bridge.c ****     *
1060:.\Generated_Source\PSoC5/UART_Bridge.c ****     * Return:
1061:.\Generated_Source\PSoC5/UART_Bridge.c ****     *  Contents of the status register
1062:.\Generated_Source\PSoC5/UART_Bridge.c ****     *
1063:.\Generated_Source\PSoC5/UART_Bridge.c ****     * Theory:
1064:.\Generated_Source\PSoC5/UART_Bridge.c ****     *  This function reads the status register which is clear on read. It is up to
1065:.\Generated_Source\PSoC5/UART_Bridge.c ****     *  the user to handle all bits in this return value accordingly, even if the bit
1066:.\Generated_Source\PSoC5/UART_Bridge.c ****     *  was not enabled as an interrupt source the event happened and must be handled
1067:.\Generated_Source\PSoC5/UART_Bridge.c ****     *  accordingly.
1068:.\Generated_Source\PSoC5/UART_Bridge.c ****     *
1069:.\Generated_Source\PSoC5/UART_Bridge.c ****     *******************************************************************************/
1070:.\Generated_Source\PSoC5/UART_Bridge.c ****     uint8 UART_Bridge_ReadTxStatus(void) 
1071:.\Generated_Source\PSoC5/UART_Bridge.c ****     {
 684              		.loc 1 1071 0
 685              		.cfi_startproc
 686              		@ args = 0, pretend = 0, frame = 0
 687              		@ frame_needed = 0, uses_anonymous_args = 0
 688              		@ link register save eliminated.
1072:.\Generated_Source\PSoC5/UART_Bridge.c ****         return(UART_Bridge_TXSTATUS_REG);
 689              		.loc 1 1072 0
 690 0000 014B     		ldr	r3, .L83
 691 0002 1878     		ldrb	r0, [r3, #0]	@ zero_extendqisi2
ARM GAS  C:\DOCUME~1\ADMINI~1\LOCALS~1\Temp\cc7EA4qV.s 			page 32


1073:.\Generated_Source\PSoC5/UART_Bridge.c ****     }
 692              		.loc 1 1073 0
 693 0004 7047     		bx	lr
 694              	.L84:
 695 0006 00BF     		.align	2
 696              	.L83:
 697 0008 62640040 		.word	1073767522
 698              		.cfi_endproc
 699              	.LFE22:
 700              		.size	UART_Bridge_ReadTxStatus, .-UART_Bridge_ReadTxStatus
 701              		.section	.text.UART_Bridge_PutChar,"ax",%progbits
 702              		.align	1
 703              		.global	UART_Bridge_PutChar
 704              		.thumb
 705              		.thumb_func
 706              		.type	UART_Bridge_PutChar, %function
 707              	UART_Bridge_PutChar:
 708              	.LFB23:
1074:.\Generated_Source\PSoC5/UART_Bridge.c **** 
1075:.\Generated_Source\PSoC5/UART_Bridge.c **** 
1076:.\Generated_Source\PSoC5/UART_Bridge.c ****     /*******************************************************************************
1077:.\Generated_Source\PSoC5/UART_Bridge.c ****     * Function Name: UART_Bridge_PutChar
1078:.\Generated_Source\PSoC5/UART_Bridge.c ****     ********************************************************************************
1079:.\Generated_Source\PSoC5/UART_Bridge.c ****     *
1080:.\Generated_Source\PSoC5/UART_Bridge.c ****     * Summary:
1081:.\Generated_Source\PSoC5/UART_Bridge.c ****     *  Wait to send byte until TX register or buffer has room.
1082:.\Generated_Source\PSoC5/UART_Bridge.c ****     *
1083:.\Generated_Source\PSoC5/UART_Bridge.c ****     * Parameters:
1084:.\Generated_Source\PSoC5/UART_Bridge.c ****     *  txDataByte: The 8-bit data value to send across the UART.
1085:.\Generated_Source\PSoC5/UART_Bridge.c ****     *
1086:.\Generated_Source\PSoC5/UART_Bridge.c ****     * Return:
1087:.\Generated_Source\PSoC5/UART_Bridge.c ****     *  None.
1088:.\Generated_Source\PSoC5/UART_Bridge.c ****     *
1089:.\Generated_Source\PSoC5/UART_Bridge.c ****     * Global Variables:
1090:.\Generated_Source\PSoC5/UART_Bridge.c ****     *  UART_Bridge_txBuffer - RAM buffer pointer for save data for transmission
1091:.\Generated_Source\PSoC5/UART_Bridge.c ****     *  UART_Bridge_txBufferWrite - cyclic index for write to txBuffer,
1092:.\Generated_Source\PSoC5/UART_Bridge.c ****     *     checked to identify free space in txBuffer and incremented after each byte
1093:.\Generated_Source\PSoC5/UART_Bridge.c ****     *     saved to buffer.
1094:.\Generated_Source\PSoC5/UART_Bridge.c ****     *  UART_Bridge_txBufferRead - cyclic index for read from txBuffer,
1095:.\Generated_Source\PSoC5/UART_Bridge.c ****     *     checked to identify free space in txBuffer.
1096:.\Generated_Source\PSoC5/UART_Bridge.c ****     *  UART_Bridge_initVar - checked to identify that the component has been
1097:.\Generated_Source\PSoC5/UART_Bridge.c ****     *     initialized.
1098:.\Generated_Source\PSoC5/UART_Bridge.c ****     *
1099:.\Generated_Source\PSoC5/UART_Bridge.c ****     * Reentrant:
1100:.\Generated_Source\PSoC5/UART_Bridge.c ****     *  No.
1101:.\Generated_Source\PSoC5/UART_Bridge.c ****     *
1102:.\Generated_Source\PSoC5/UART_Bridge.c ****     * Theory:
1103:.\Generated_Source\PSoC5/UART_Bridge.c ****     *  Allows the user to transmit any byte of data in a single transfer
1104:.\Generated_Source\PSoC5/UART_Bridge.c ****     *
1105:.\Generated_Source\PSoC5/UART_Bridge.c ****     *******************************************************************************/
1106:.\Generated_Source\PSoC5/UART_Bridge.c ****     void UART_Bridge_PutChar(uint8 txDataByte) 
1107:.\Generated_Source\PSoC5/UART_Bridge.c ****     {
 709              		.loc 1 1107 0
 710              		.cfi_startproc
 711              		@ args = 0, pretend = 0, frame = 0
 712              		@ frame_needed = 0, uses_anonymous_args = 0
 713              		@ link register save eliminated.
ARM GAS  C:\DOCUME~1\ADMINI~1\LOCALS~1\Temp\cc7EA4qV.s 			page 33


 714              	.LVL36:
1108:.\Generated_Source\PSoC5/UART_Bridge.c ****             #if(UART_Bridge_TXBUFFERSIZE > UART_Bridge_FIFO_LENGTH)
1109:.\Generated_Source\PSoC5/UART_Bridge.c ****                 /* The temporary output pointer is used since it takes two instructions
1110:.\Generated_Source\PSoC5/UART_Bridge.c ****                 *  to increment with a wrap, and we can't risk doing that with the real
1111:.\Generated_Source\PSoC5/UART_Bridge.c ****                 *  pointer and getting an interrupt in between instructions.
1112:.\Generated_Source\PSoC5/UART_Bridge.c ****                 */
1113:.\Generated_Source\PSoC5/UART_Bridge.c ****                 uint8 loc_txBufferWrite;
1114:.\Generated_Source\PSoC5/UART_Bridge.c ****                 uint8 loc_txBufferRead;
1115:.\Generated_Source\PSoC5/UART_Bridge.c **** 
1116:.\Generated_Source\PSoC5/UART_Bridge.c ****                 do{
1117:.\Generated_Source\PSoC5/UART_Bridge.c ****                     /* Block if software buffer is full, so we don't overwrite. */
1118:.\Generated_Source\PSoC5/UART_Bridge.c ****                     #if ((UART_Bridge_TXBUFFERSIZE > UART_Bridge_MAX_BYTE_VALUE) && (CY_PSOC3))
1119:.\Generated_Source\PSoC5/UART_Bridge.c ****                         /* Disable TX interrupt to protect variables that could change on interrupt
1120:.\Generated_Source\PSoC5/UART_Bridge.c ****                         CyIntDisable(UART_Bridge_TX_VECT_NUM);
1121:.\Generated_Source\PSoC5/UART_Bridge.c ****                     #endif /* End TXBUFFERSIZE > 255 */
1122:.\Generated_Source\PSoC5/UART_Bridge.c ****                     loc_txBufferWrite = UART_Bridge_txBufferWrite;
 715              		.loc 1 1122 0
 716 0000 124B     		ldr	r3, .L93
 717 0002 9B79     		ldrb	r3, [r3, #6]	@ zero_extendqisi2
 718              	.LVL37:
 719              	.L88:
1123:.\Generated_Source\PSoC5/UART_Bridge.c ****                     loc_txBufferRead = UART_Bridge_txBufferRead;
 720              		.loc 1 1123 0
 721 0004 114A     		ldr	r2, .L93
 722              	.LVL38:
 723 0006 5279     		ldrb	r2, [r2, #5]	@ zero_extendqisi2
1124:.\Generated_Source\PSoC5/UART_Bridge.c ****                     #if ((UART_Bridge_TXBUFFERSIZE > UART_Bridge_MAX_BYTE_VALUE) && (CY_PSOC3))
1125:.\Generated_Source\PSoC5/UART_Bridge.c ****                         /* Enable interrupt to continue transmission */
1126:.\Generated_Source\PSoC5/UART_Bridge.c ****                         CyIntEnable(UART_Bridge_TX_VECT_NUM);
1127:.\Generated_Source\PSoC5/UART_Bridge.c ****                     #endif /* End TXBUFFERSIZE > 255 */
1128:.\Generated_Source\PSoC5/UART_Bridge.c ****                 }while( (loc_txBufferWrite < loc_txBufferRead) ? (loc_txBufferWrite == (loc_txBuffe
1129:.\Generated_Source\PSoC5/UART_Bridge.c ****                                         ((loc_txBufferWrite - loc_txBufferRead) ==
1130:.\Generated_Source\PSoC5/UART_Bridge.c ****                                         (uint8)(UART_Bridge_TXBUFFERSIZE - 1u)) );
 724              		.loc 1 1130 0
 725 0008 9342     		cmp	r3, r2
 726              	.LVL39:
 727 000a 05D2     		bcs	.L86
 728 000c 511E     		subs	r1, r2, #1
 729 000e 8B42     		cmp	r3, r1
 730 0010 14BF     		ite	ne
 731 0012 0021     		movne	r1, #0
 732 0014 0121     		moveq	r1, #1
 733 0016 04E0     		b	.L87
 734              	.L86:
 735 0018 991A     		subs	r1, r3, r2
 736 001a 7F29     		cmp	r1, #127
 737 001c 14BF     		ite	ne
 738 001e 0021     		movne	r1, #0
 739 0020 0121     		moveq	r1, #1
 740              	.L87:
 741 0022 0029     		cmp	r1, #0
 742 0024 EED1     		bne	.L88
1131:.\Generated_Source\PSoC5/UART_Bridge.c **** 
1132:.\Generated_Source\PSoC5/UART_Bridge.c ****                 if( (loc_txBufferRead == loc_txBufferWrite) &&
 743              		.loc 1 1132 0
 744 0026 9A42     		cmp	r2, r3
 745 0028 07D1     		bne	.L89
ARM GAS  C:\DOCUME~1\ADMINI~1\LOCALS~1\Temp\cc7EA4qV.s 			page 34


1133:.\Generated_Source\PSoC5/UART_Bridge.c ****                     ((UART_Bridge_TXSTATUS_REG & UART_Bridge_TX_STS_FIFO_FULL) == 0u) )
 746              		.loc 1 1133 0
 747 002a 094A     		ldr	r2, .L93+4
 748              	.LVL40:
 749 002c 1278     		ldrb	r2, [r2, #0]	@ zero_extendqisi2
 750              		.loc 1 1132 0
 751 002e 12F0040F 		tst	r2, #4
 752 0032 02D1     		bne	.L89
1134:.\Generated_Source\PSoC5/UART_Bridge.c ****                 {
1135:.\Generated_Source\PSoC5/UART_Bridge.c ****                     /* Add directly to the FIFO. */
1136:.\Generated_Source\PSoC5/UART_Bridge.c ****                     UART_Bridge_TXDATA_REG = txDataByte;
 753              		.loc 1 1136 0
 754 0034 074B     		ldr	r3, .L93+8
 755              	.LVL41:
 756 0036 1870     		strb	r0, [r3, #0]
 757              		.loc 1 1132 0
 758 0038 7047     		bx	lr
 759              	.LVL42:
 760              	.L89:
1137:.\Generated_Source\PSoC5/UART_Bridge.c ****                 }
1138:.\Generated_Source\PSoC5/UART_Bridge.c ****                 else
1139:.\Generated_Source\PSoC5/UART_Bridge.c ****                 {
1140:.\Generated_Source\PSoC5/UART_Bridge.c ****                     if(loc_txBufferWrite >= UART_Bridge_TXBUFFERSIZE)
 761              		.loc 1 1140 0
 762 003a 5AB2     		sxtb	r2, r3
 763              	.LVL43:
 764 003c 23EAE273 		bic	r3, r3, r2, asr #31
 765              	.LVL44:
1141:.\Generated_Source\PSoC5/UART_Bridge.c ****                     {
1142:.\Generated_Source\PSoC5/UART_Bridge.c ****                         loc_txBufferWrite = 0u;
1143:.\Generated_Source\PSoC5/UART_Bridge.c ****                     }
1144:.\Generated_Source\PSoC5/UART_Bridge.c ****                     /* Add to the software buffer. */
1145:.\Generated_Source\PSoC5/UART_Bridge.c ****                     UART_Bridge_txBuffer[loc_txBufferWrite] = txDataByte;
 766              		.loc 1 1145 0
 767 0040 054A     		ldr	r2, .L93+12
 768 0042 D054     		strb	r0, [r2, r3]
1146:.\Generated_Source\PSoC5/UART_Bridge.c ****                     loc_txBufferWrite++;
1147:.\Generated_Source\PSoC5/UART_Bridge.c **** 
1148:.\Generated_Source\PSoC5/UART_Bridge.c ****                     /* Finally, update the real output pointer */
1149:.\Generated_Source\PSoC5/UART_Bridge.c ****                     #if ((UART_Bridge_TXBUFFERSIZE > UART_Bridge_MAX_BYTE_VALUE) && (CY_PSOC3))
1150:.\Generated_Source\PSoC5/UART_Bridge.c ****                         CyIntDisable(UART_Bridge_TX_VECT_NUM);
1151:.\Generated_Source\PSoC5/UART_Bridge.c ****                     #endif /* End TXBUFFERSIZE > 255 */
1152:.\Generated_Source\PSoC5/UART_Bridge.c ****                     UART_Bridge_txBufferWrite = loc_txBufferWrite;
 769              		.loc 1 1152 0
 770 0044 014A     		ldr	r2, .L93
 771 0046 0133     		adds	r3, r3, #1
 772              	.LVL45:
 773 0048 9371     		strb	r3, [r2, #6]
 774 004a 7047     		bx	lr
 775              	.L94:
 776              		.align	2
 777              	.L93:
 778 004c 00000000 		.word	.LANCHOR0
 779 0050 62640040 		.word	1073767522
 780 0054 42640040 		.word	1073767490
 781 0058 00000000 		.word	UART_Bridge_txBuffer
 782              		.cfi_endproc
ARM GAS  C:\DOCUME~1\ADMINI~1\LOCALS~1\Temp\cc7EA4qV.s 			page 35


 783              	.LFE23:
 784              		.size	UART_Bridge_PutChar, .-UART_Bridge_PutChar
 785              		.section	.text.UART_Bridge_PutString,"ax",%progbits
 786              		.align	1
 787              		.global	UART_Bridge_PutString
 788              		.thumb
 789              		.thumb_func
 790              		.type	UART_Bridge_PutString, %function
 791              	UART_Bridge_PutString:
 792              	.LFB24:
1153:.\Generated_Source\PSoC5/UART_Bridge.c ****                     #if ((UART_Bridge_TXBUFFERSIZE > UART_Bridge_MAX_BYTE_VALUE) && (CY_PSOC3))
1154:.\Generated_Source\PSoC5/UART_Bridge.c ****                         CyIntEnable(UART_Bridge_TX_VECT_NUM);
1155:.\Generated_Source\PSoC5/UART_Bridge.c ****                     #endif /* End TXBUFFERSIZE > 255 */
1156:.\Generated_Source\PSoC5/UART_Bridge.c ****                 }
1157:.\Generated_Source\PSoC5/UART_Bridge.c **** 
1158:.\Generated_Source\PSoC5/UART_Bridge.c ****             #else /* UART_Bridge_TXBUFFERSIZE > UART_Bridge_FIFO_LENGTH */
1159:.\Generated_Source\PSoC5/UART_Bridge.c **** 
1160:.\Generated_Source\PSoC5/UART_Bridge.c ****                 while((UART_Bridge_TXSTATUS_REG & UART_Bridge_TX_STS_FIFO_FULL) != 0u)
1161:.\Generated_Source\PSoC5/UART_Bridge.c ****                 {
1162:.\Generated_Source\PSoC5/UART_Bridge.c ****                     ; /* Wait for room in the FIFO. */
1163:.\Generated_Source\PSoC5/UART_Bridge.c ****                 }
1164:.\Generated_Source\PSoC5/UART_Bridge.c **** 
1165:.\Generated_Source\PSoC5/UART_Bridge.c ****                 /* Add directly to the FIFO. */
1166:.\Generated_Source\PSoC5/UART_Bridge.c ****                 UART_Bridge_TXDATA_REG = txDataByte;
1167:.\Generated_Source\PSoC5/UART_Bridge.c **** 
1168:.\Generated_Source\PSoC5/UART_Bridge.c ****             #endif /* End UART_Bridge_TXBUFFERSIZE > UART_Bridge_FIFO_LENGTH */
1169:.\Generated_Source\PSoC5/UART_Bridge.c ****     }
1170:.\Generated_Source\PSoC5/UART_Bridge.c **** 
1171:.\Generated_Source\PSoC5/UART_Bridge.c **** 
1172:.\Generated_Source\PSoC5/UART_Bridge.c ****     /*******************************************************************************
1173:.\Generated_Source\PSoC5/UART_Bridge.c ****     * Function Name: UART_Bridge_PutString
1174:.\Generated_Source\PSoC5/UART_Bridge.c ****     ********************************************************************************
1175:.\Generated_Source\PSoC5/UART_Bridge.c ****     *
1176:.\Generated_Source\PSoC5/UART_Bridge.c ****     * Summary:
1177:.\Generated_Source\PSoC5/UART_Bridge.c ****     *  Write a Sequence of bytes on the Transmit line. Data comes from RAM or ROM.
1178:.\Generated_Source\PSoC5/UART_Bridge.c ****     *
1179:.\Generated_Source\PSoC5/UART_Bridge.c ****     * Parameters:
1180:.\Generated_Source\PSoC5/UART_Bridge.c ****     *  string: char pointer to character string of Data to Send.
1181:.\Generated_Source\PSoC5/UART_Bridge.c ****     *
1182:.\Generated_Source\PSoC5/UART_Bridge.c ****     * Return:
1183:.\Generated_Source\PSoC5/UART_Bridge.c ****     *  None.
1184:.\Generated_Source\PSoC5/UART_Bridge.c ****     *
1185:.\Generated_Source\PSoC5/UART_Bridge.c ****     * Global Variables:
1186:.\Generated_Source\PSoC5/UART_Bridge.c ****     *  UART_Bridge_initVar - checked to identify that the component has been
1187:.\Generated_Source\PSoC5/UART_Bridge.c ****     *     initialized.
1188:.\Generated_Source\PSoC5/UART_Bridge.c ****     *
1189:.\Generated_Source\PSoC5/UART_Bridge.c ****     * Reentrant:
1190:.\Generated_Source\PSoC5/UART_Bridge.c ****     *  No.
1191:.\Generated_Source\PSoC5/UART_Bridge.c ****     *
1192:.\Generated_Source\PSoC5/UART_Bridge.c ****     * Theory:
1193:.\Generated_Source\PSoC5/UART_Bridge.c ****     *  This function will block if there is not enough memory to place the whole
1194:.\Generated_Source\PSoC5/UART_Bridge.c ****     *  string, it will block until the entire string has been written to the
1195:.\Generated_Source\PSoC5/UART_Bridge.c ****     *  transmit buffer.
1196:.\Generated_Source\PSoC5/UART_Bridge.c ****     *
1197:.\Generated_Source\PSoC5/UART_Bridge.c ****     *******************************************************************************/
1198:.\Generated_Source\PSoC5/UART_Bridge.c ****     void UART_Bridge_PutString(const char8 string[]) 
1199:.\Generated_Source\PSoC5/UART_Bridge.c ****     {
ARM GAS  C:\DOCUME~1\ADMINI~1\LOCALS~1\Temp\cc7EA4qV.s 			page 36


 793              		.loc 1 1199 0
 794              		.cfi_startproc
 795              		@ args = 0, pretend = 0, frame = 0
 796              		@ frame_needed = 0, uses_anonymous_args = 0
 797              	.LVL46:
 798 0000 38B5     		push	{r3, r4, r5, lr}
 799              	.LCFI5:
 800              		.cfi_def_cfa_offset 16
1200:.\Generated_Source\PSoC5/UART_Bridge.c ****         uint16 buf_index = 0u;
1201:.\Generated_Source\PSoC5/UART_Bridge.c ****         /* If not Initialized then skip this function*/
1202:.\Generated_Source\PSoC5/UART_Bridge.c ****         if(UART_Bridge_initVar != 0u)
 801              		.loc 1 1202 0
 802 0002 074B     		ldr	r3, .L100
 803              		.cfi_offset 14, -4
 804              		.cfi_offset 5, -8
 805              		.cfi_offset 4, -12
 806              		.cfi_offset 3, -16
 807              		.loc 1 1199 0
 808 0004 0546     		mov	r5, r0
 809              		.loc 1 1202 0
 810 0006 1B79     		ldrb	r3, [r3, #4]	@ zero_extendqisi2
 811 0008 43B1     		cbz	r3, .L99
 812              	.LVL47:
 813 000a 0024     		movs	r4, #0
 814              	.LVL48:
 815 000c 03E0     		b	.L97
 816              	.LVL49:
 817              	.L98:
1203:.\Generated_Source\PSoC5/UART_Bridge.c ****         {
1204:.\Generated_Source\PSoC5/UART_Bridge.c ****             /* This is a blocking function, it will not exit until all data is sent*/
1205:.\Generated_Source\PSoC5/UART_Bridge.c ****             while(string[buf_index] != (char8)0)
1206:.\Generated_Source\PSoC5/UART_Bridge.c ****             {
1207:.\Generated_Source\PSoC5/UART_Bridge.c ****                 UART_Bridge_PutChar((uint8)string[buf_index]);
 818              		.loc 1 1207 0
 819 000e FFF7FEFF 		bl	UART_Bridge_PutChar
1208:.\Generated_Source\PSoC5/UART_Bridge.c ****                 buf_index++;
 820              		.loc 1 1208 0
 821 0012 0134     		adds	r4, r4, #1
 822              	.LVL50:
 823 0014 A4B2     		uxth	r4, r4
 824              	.LVL51:
 825              	.L97:
 826              		.loc 1 1205 0
 827 0016 285D     		ldrb	r0, [r5, r4]	@ zero_extendqisi2
 828 0018 0028     		cmp	r0, #0
 829 001a F8D1     		bne	.L98
 830              	.LVL52:
 831              	.L99:
 832 001c 38BD     		pop	{r3, r4, r5, pc}
 833              	.L101:
 834 001e 00BF     		.align	2
 835              	.L100:
 836 0020 00000000 		.word	.LANCHOR0
 837              		.cfi_endproc
 838              	.LFE24:
 839              		.size	UART_Bridge_PutString, .-UART_Bridge_PutString
 840              		.section	.text.UART_Bridge_PutArray,"ax",%progbits
ARM GAS  C:\DOCUME~1\ADMINI~1\LOCALS~1\Temp\cc7EA4qV.s 			page 37


 841              		.align	1
 842              		.global	UART_Bridge_PutArray
 843              		.thumb
 844              		.thumb_func
 845              		.type	UART_Bridge_PutArray, %function
 846              	UART_Bridge_PutArray:
 847              	.LFB25:
1209:.\Generated_Source\PSoC5/UART_Bridge.c ****             }
1210:.\Generated_Source\PSoC5/UART_Bridge.c ****         }
1211:.\Generated_Source\PSoC5/UART_Bridge.c ****     }
1212:.\Generated_Source\PSoC5/UART_Bridge.c **** 
1213:.\Generated_Source\PSoC5/UART_Bridge.c **** 
1214:.\Generated_Source\PSoC5/UART_Bridge.c ****     /*******************************************************************************
1215:.\Generated_Source\PSoC5/UART_Bridge.c ****     * Function Name: UART_Bridge_PutArray
1216:.\Generated_Source\PSoC5/UART_Bridge.c ****     ********************************************************************************
1217:.\Generated_Source\PSoC5/UART_Bridge.c ****     *
1218:.\Generated_Source\PSoC5/UART_Bridge.c ****     * Summary:
1219:.\Generated_Source\PSoC5/UART_Bridge.c ****     *  Write a Sequence of bytes on the Transmit line. Data comes from RAM or ROM.
1220:.\Generated_Source\PSoC5/UART_Bridge.c ****     *
1221:.\Generated_Source\PSoC5/UART_Bridge.c ****     * Parameters:
1222:.\Generated_Source\PSoC5/UART_Bridge.c ****     *  string: Address of the memory array residing in RAM or ROM.
1223:.\Generated_Source\PSoC5/UART_Bridge.c ****     *  byteCount: Number of Bytes to be transmitted.
1224:.\Generated_Source\PSoC5/UART_Bridge.c ****     *
1225:.\Generated_Source\PSoC5/UART_Bridge.c ****     * Return:
1226:.\Generated_Source\PSoC5/UART_Bridge.c ****     *  None.
1227:.\Generated_Source\PSoC5/UART_Bridge.c ****     *
1228:.\Generated_Source\PSoC5/UART_Bridge.c ****     * Global Variables:
1229:.\Generated_Source\PSoC5/UART_Bridge.c ****     *  UART_Bridge_initVar - checked to identify that the component has been
1230:.\Generated_Source\PSoC5/UART_Bridge.c ****     *     initialized.
1231:.\Generated_Source\PSoC5/UART_Bridge.c ****     *
1232:.\Generated_Source\PSoC5/UART_Bridge.c ****     * Reentrant:
1233:.\Generated_Source\PSoC5/UART_Bridge.c ****     *  No.
1234:.\Generated_Source\PSoC5/UART_Bridge.c ****     *
1235:.\Generated_Source\PSoC5/UART_Bridge.c ****     *******************************************************************************/
1236:.\Generated_Source\PSoC5/UART_Bridge.c ****     void UART_Bridge_PutArray(const uint8 string[], uint8 byteCount)
1237:.\Generated_Source\PSoC5/UART_Bridge.c ****                                                                     
1238:.\Generated_Source\PSoC5/UART_Bridge.c ****     {
 848              		.loc 1 1238 0
 849              		.cfi_startproc
 850              		@ args = 0, pretend = 0, frame = 0
 851              		@ frame_needed = 0, uses_anonymous_args = 0
 852              	.LVL53:
 853 0000 70B5     		push	{r4, r5, r6, lr}
 854              	.LCFI6:
 855              		.cfi_def_cfa_offset 16
1239:.\Generated_Source\PSoC5/UART_Bridge.c ****         uint8 buf_index = 0u;
1240:.\Generated_Source\PSoC5/UART_Bridge.c ****         /* If not Initialized then skip this function*/
1241:.\Generated_Source\PSoC5/UART_Bridge.c ****         if(UART_Bridge_initVar != 0u)
 856              		.loc 1 1241 0
 857 0002 074B     		ldr	r3, .L106
 858              		.loc 1 1238 0
 859 0004 0446     		mov	r4, r0
 860              		.cfi_offset 14, -4
 861              		.cfi_offset 6, -8
 862              		.cfi_offset 5, -12
 863              		.cfi_offset 4, -16
 864              		.loc 1 1241 0
ARM GAS  C:\DOCUME~1\ADMINI~1\LOCALS~1\Temp\cc7EA4qV.s 			page 38


 865 0006 1B79     		ldrb	r3, [r3, #4]	@ zero_extendqisi2
 866              		.loc 1 1238 0
 867 0008 0E46     		mov	r6, r1
 868              		.loc 1 1241 0
 869 000a 3BB1     		cbz	r3, .L105
 870              	.LVL54:
 871 000c 0025     		movs	r5, #0
 872              	.L104:
1242:.\Generated_Source\PSoC5/UART_Bridge.c ****         {
1243:.\Generated_Source\PSoC5/UART_Bridge.c ****             do
1244:.\Generated_Source\PSoC5/UART_Bridge.c ****             {
1245:.\Generated_Source\PSoC5/UART_Bridge.c ****                 UART_Bridge_PutChar(string[buf_index]);
 873              		.loc 1 1245 0
 874 000e 605D     		ldrb	r0, [r4, r5]	@ zero_extendqisi2
 875 0010 0135     		adds	r5, r5, #1
 876 0012 FFF7FEFF 		bl	UART_Bridge_PutChar
1246:.\Generated_Source\PSoC5/UART_Bridge.c ****                 buf_index++;
1247:.\Generated_Source\PSoC5/UART_Bridge.c ****             }while(buf_index < byteCount);
 877              		.loc 1 1247 0
 878 0016 EBB2     		uxtb	r3, r5
 879 0018 B342     		cmp	r3, r6
 880 001a F8D3     		bcc	.L104
 881              	.LVL55:
 882              	.L105:
 883 001c 70BD     		pop	{r4, r5, r6, pc}
 884              	.L107:
 885 001e 00BF     		.align	2
 886              	.L106:
 887 0020 00000000 		.word	.LANCHOR0
 888              		.cfi_endproc
 889              	.LFE25:
 890              		.size	UART_Bridge_PutArray, .-UART_Bridge_PutArray
 891              		.section	.text.UART_Bridge_PutCRLF,"ax",%progbits
 892              		.align	1
 893              		.global	UART_Bridge_PutCRLF
 894              		.thumb
 895              		.thumb_func
 896              		.type	UART_Bridge_PutCRLF, %function
 897              	UART_Bridge_PutCRLF:
 898              	.LFB26:
1248:.\Generated_Source\PSoC5/UART_Bridge.c ****         }
1249:.\Generated_Source\PSoC5/UART_Bridge.c ****     }
1250:.\Generated_Source\PSoC5/UART_Bridge.c **** 
1251:.\Generated_Source\PSoC5/UART_Bridge.c **** 
1252:.\Generated_Source\PSoC5/UART_Bridge.c ****     /*******************************************************************************
1253:.\Generated_Source\PSoC5/UART_Bridge.c ****     * Function Name: UART_Bridge_PutCRLF
1254:.\Generated_Source\PSoC5/UART_Bridge.c ****     ********************************************************************************
1255:.\Generated_Source\PSoC5/UART_Bridge.c ****     *
1256:.\Generated_Source\PSoC5/UART_Bridge.c ****     * Summary:
1257:.\Generated_Source\PSoC5/UART_Bridge.c ****     *  Write a character and then carriage return and line feed.
1258:.\Generated_Source\PSoC5/UART_Bridge.c ****     *
1259:.\Generated_Source\PSoC5/UART_Bridge.c ****     * Parameters:
1260:.\Generated_Source\PSoC5/UART_Bridge.c ****     *  txDataByte: uint8 Character to send.
1261:.\Generated_Source\PSoC5/UART_Bridge.c ****     *
1262:.\Generated_Source\PSoC5/UART_Bridge.c ****     * Return:
1263:.\Generated_Source\PSoC5/UART_Bridge.c ****     *  None.
1264:.\Generated_Source\PSoC5/UART_Bridge.c ****     *
ARM GAS  C:\DOCUME~1\ADMINI~1\LOCALS~1\Temp\cc7EA4qV.s 			page 39


1265:.\Generated_Source\PSoC5/UART_Bridge.c ****     * Global Variables:
1266:.\Generated_Source\PSoC5/UART_Bridge.c ****     *  UART_Bridge_initVar - checked to identify that the component has been
1267:.\Generated_Source\PSoC5/UART_Bridge.c ****     *     initialized.
1268:.\Generated_Source\PSoC5/UART_Bridge.c ****     *
1269:.\Generated_Source\PSoC5/UART_Bridge.c ****     * Reentrant:
1270:.\Generated_Source\PSoC5/UART_Bridge.c ****     *  No.
1271:.\Generated_Source\PSoC5/UART_Bridge.c ****     *
1272:.\Generated_Source\PSoC5/UART_Bridge.c ****     *******************************************************************************/
1273:.\Generated_Source\PSoC5/UART_Bridge.c ****     void UART_Bridge_PutCRLF(uint8 txDataByte) 
1274:.\Generated_Source\PSoC5/UART_Bridge.c ****     {
 899              		.loc 1 1274 0
 900              		.cfi_startproc
 901              		@ args = 0, pretend = 0, frame = 0
 902              		@ frame_needed = 0, uses_anonymous_args = 0
 903              	.LVL56:
 904 0000 10B5     		push	{r4, lr}
 905              	.LCFI7:
 906              		.cfi_def_cfa_offset 8
1275:.\Generated_Source\PSoC5/UART_Bridge.c ****         /* If not Initialized then skip this function*/
1276:.\Generated_Source\PSoC5/UART_Bridge.c ****         if(UART_Bridge_initVar != 0u)
 907              		.loc 1 1276 0
 908 0002 074B     		ldr	r3, .L111
 909 0004 1B79     		ldrb	r3, [r3, #4]	@ zero_extendqisi2
 910 0006 4BB1     		cbz	r3, .L110
 911              		.cfi_offset 14, -4
 912              		.cfi_offset 4, -8
1277:.\Generated_Source\PSoC5/UART_Bridge.c ****         {
1278:.\Generated_Source\PSoC5/UART_Bridge.c ****             UART_Bridge_PutChar(txDataByte);
 913              		.loc 1 1278 0
 914 0008 FFF7FEFF 		bl	UART_Bridge_PutChar
 915              	.LVL57:
1279:.\Generated_Source\PSoC5/UART_Bridge.c ****             UART_Bridge_PutChar(0x0Du);
 916              		.loc 1 1279 0
 917 000c 0D20     		movs	r0, #13
 918 000e FFF7FEFF 		bl	UART_Bridge_PutChar
1280:.\Generated_Source\PSoC5/UART_Bridge.c ****             UART_Bridge_PutChar(0x0Au);
 919              		.loc 1 1280 0
 920 0012 0A20     		movs	r0, #10
1281:.\Generated_Source\PSoC5/UART_Bridge.c ****         }
1282:.\Generated_Source\PSoC5/UART_Bridge.c ****     }
 921              		.loc 1 1282 0
 922 0014 BDE81040 		pop	{r4, lr}
 923              		.loc 1 1280 0
 924 0018 FFF7FEBF 		b	UART_Bridge_PutChar
 925              	.LVL58:
 926              	.L110:
 927 001c 10BD     		pop	{r4, pc}
 928              	.L112:
 929 001e 00BF     		.align	2
 930              	.L111:
 931 0020 00000000 		.word	.LANCHOR0
 932              		.cfi_endproc
 933              	.LFE26:
 934              		.size	UART_Bridge_PutCRLF, .-UART_Bridge_PutCRLF
 935              		.section	.text.UART_Bridge_GetTxBufferSize,"ax",%progbits
 936              		.align	1
 937              		.global	UART_Bridge_GetTxBufferSize
ARM GAS  C:\DOCUME~1\ADMINI~1\LOCALS~1\Temp\cc7EA4qV.s 			page 40


 938              		.thumb
 939              		.thumb_func
 940              		.type	UART_Bridge_GetTxBufferSize, %function
 941              	UART_Bridge_GetTxBufferSize:
 942              	.LFB27:
1283:.\Generated_Source\PSoC5/UART_Bridge.c **** 
1284:.\Generated_Source\PSoC5/UART_Bridge.c **** 
1285:.\Generated_Source\PSoC5/UART_Bridge.c ****     /*******************************************************************************
1286:.\Generated_Source\PSoC5/UART_Bridge.c ****     * Function Name: UART_Bridge_GetTxBufferSize
1287:.\Generated_Source\PSoC5/UART_Bridge.c ****     ********************************************************************************
1288:.\Generated_Source\PSoC5/UART_Bridge.c ****     *
1289:.\Generated_Source\PSoC5/UART_Bridge.c ****     * Summary:
1290:.\Generated_Source\PSoC5/UART_Bridge.c ****     *  Determine the amount of space left in the TX buffer and return the count in
1291:.\Generated_Source\PSoC5/UART_Bridge.c ****     *  bytes
1292:.\Generated_Source\PSoC5/UART_Bridge.c ****     *
1293:.\Generated_Source\PSoC5/UART_Bridge.c ****     * Parameters:
1294:.\Generated_Source\PSoC5/UART_Bridge.c ****     *  None.
1295:.\Generated_Source\PSoC5/UART_Bridge.c ****     *
1296:.\Generated_Source\PSoC5/UART_Bridge.c ****     * Return:
1297:.\Generated_Source\PSoC5/UART_Bridge.c ****     *  Integer count of the number of bytes left in the TX buffer
1298:.\Generated_Source\PSoC5/UART_Bridge.c ****     *
1299:.\Generated_Source\PSoC5/UART_Bridge.c ****     * Global Variables:
1300:.\Generated_Source\PSoC5/UART_Bridge.c ****     *  UART_Bridge_txBufferWrite - used to calculate left space.
1301:.\Generated_Source\PSoC5/UART_Bridge.c ****     *  UART_Bridge_txBufferRead - used to calculate left space.
1302:.\Generated_Source\PSoC5/UART_Bridge.c ****     *
1303:.\Generated_Source\PSoC5/UART_Bridge.c ****     * Reentrant:
1304:.\Generated_Source\PSoC5/UART_Bridge.c ****     *  No.
1305:.\Generated_Source\PSoC5/UART_Bridge.c ****     *
1306:.\Generated_Source\PSoC5/UART_Bridge.c ****     * Theory:
1307:.\Generated_Source\PSoC5/UART_Bridge.c ****     *  Allows the user to find out how full the TX Buffer is.
1308:.\Generated_Source\PSoC5/UART_Bridge.c ****     *
1309:.\Generated_Source\PSoC5/UART_Bridge.c ****     *******************************************************************************/
1310:.\Generated_Source\PSoC5/UART_Bridge.c ****     uint8 UART_Bridge_GetTxBufferSize(void)
1311:.\Generated_Source\PSoC5/UART_Bridge.c ****                                                             
1312:.\Generated_Source\PSoC5/UART_Bridge.c ****     {
 943              		.loc 1 1312 0
 944              		.cfi_startproc
 945              		@ args = 0, pretend = 0, frame = 0
 946              		@ frame_needed = 0, uses_anonymous_args = 0
 947 0000 10B5     		push	{r4, lr}
 948              	.LCFI8:
 949              		.cfi_def_cfa_offset 8
1313:.\Generated_Source\PSoC5/UART_Bridge.c ****         uint8 size;
1314:.\Generated_Source\PSoC5/UART_Bridge.c **** 
1315:.\Generated_Source\PSoC5/UART_Bridge.c ****         #if(UART_Bridge_TXBUFFERSIZE > UART_Bridge_FIFO_LENGTH)
1316:.\Generated_Source\PSoC5/UART_Bridge.c **** 
1317:.\Generated_Source\PSoC5/UART_Bridge.c ****             /* Disable Tx interrupt. */
1318:.\Generated_Source\PSoC5/UART_Bridge.c ****             /* Protect variables that could change on interrupt. */
1319:.\Generated_Source\PSoC5/UART_Bridge.c ****             #if(UART_Bridge_TX_INTERRUPT_ENABLED)
1320:.\Generated_Source\PSoC5/UART_Bridge.c ****                 UART_Bridge_DisableTxInt();
 950              		.loc 1 1320 0
 951              		.cfi_offset 14, -4
 952              		.cfi_offset 4, -8
 953 0002 FFF7FEFF 		bl	UART_Bridge_DisableTxInt
1321:.\Generated_Source\PSoC5/UART_Bridge.c ****             #endif /* End UART_Bridge_TX_INTERRUPT_ENABLED */
1322:.\Generated_Source\PSoC5/UART_Bridge.c **** 
1323:.\Generated_Source\PSoC5/UART_Bridge.c ****             if(UART_Bridge_txBufferRead == UART_Bridge_txBufferWrite)
ARM GAS  C:\DOCUME~1\ADMINI~1\LOCALS~1\Temp\cc7EA4qV.s 			page 41


 954              		.loc 1 1323 0
 955 0006 0B4B     		ldr	r3, .L119
 956 0008 5979     		ldrb	r1, [r3, #5]	@ zero_extendqisi2
 957 000a 9A79     		ldrb	r2, [r3, #6]	@ zero_extendqisi2
 958 000c 9142     		cmp	r1, r2
 959 000e 01D1     		bne	.L114
 960 0010 0024     		movs	r4, #0
 961              	.LVL59:
 962 0012 0AE0     		b	.L115
 963              	.LVL60:
 964              	.L114:
1324:.\Generated_Source\PSoC5/UART_Bridge.c ****             {
1325:.\Generated_Source\PSoC5/UART_Bridge.c ****                 size = 0u;
1326:.\Generated_Source\PSoC5/UART_Bridge.c ****             }
1327:.\Generated_Source\PSoC5/UART_Bridge.c ****             else if(UART_Bridge_txBufferRead < UART_Bridge_txBufferWrite)
 965              		.loc 1 1327 0
 966 0014 5979     		ldrb	r1, [r3, #5]	@ zero_extendqisi2
 967 0016 9142     		cmp	r1, r2
 968 0018 02D2     		bcs	.L116
1328:.\Generated_Source\PSoC5/UART_Bridge.c ****             {
1329:.\Generated_Source\PSoC5/UART_Bridge.c ****                 size = (UART_Bridge_txBufferWrite - UART_Bridge_txBufferRead);
 969              		.loc 1 1329 0
 970 001a 5C79     		ldrb	r4, [r3, #5]	@ zero_extendqisi2
 971 001c 141B     		subs	r4, r2, r4
 972 001e 03E0     		b	.L118
 973              	.L116:
1330:.\Generated_Source\PSoC5/UART_Bridge.c ****             }
1331:.\Generated_Source\PSoC5/UART_Bridge.c ****             else
1332:.\Generated_Source\PSoC5/UART_Bridge.c ****             {
1333:.\Generated_Source\PSoC5/UART_Bridge.c ****                 size = (UART_Bridge_TXBUFFERSIZE - UART_Bridge_txBufferRead) + UART_Bridge_txBuffer
 974              		.loc 1 1333 0
 975 0020 5B79     		ldrb	r3, [r3, #5]	@ zero_extendqisi2
 976 0022 A2F18004 		sub	r4, r2, #128
 977 0026 E41A     		subs	r4, r4, r3
 978              	.L118:
 979 0028 E4B2     		uxtb	r4, r4
 980              	.LVL61:
 981              	.L115:
1334:.\Generated_Source\PSoC5/UART_Bridge.c ****             }
1335:.\Generated_Source\PSoC5/UART_Bridge.c **** 
1336:.\Generated_Source\PSoC5/UART_Bridge.c ****             /* Enable Tx interrupt. */
1337:.\Generated_Source\PSoC5/UART_Bridge.c ****             #if(UART_Bridge_TX_INTERRUPT_ENABLED)
1338:.\Generated_Source\PSoC5/UART_Bridge.c ****                 UART_Bridge_EnableTxInt();
 982              		.loc 1 1338 0
 983 002a FFF7FEFF 		bl	UART_Bridge_EnableTxInt
1339:.\Generated_Source\PSoC5/UART_Bridge.c ****             #endif /* End UART_Bridge_TX_INTERRUPT_ENABLED */
1340:.\Generated_Source\PSoC5/UART_Bridge.c **** 
1341:.\Generated_Source\PSoC5/UART_Bridge.c ****         #else /* UART_Bridge_TXBUFFERSIZE > UART_Bridge_FIFO_LENGTH */
1342:.\Generated_Source\PSoC5/UART_Bridge.c **** 
1343:.\Generated_Source\PSoC5/UART_Bridge.c ****             size = UART_Bridge_TXSTATUS_REG;
1344:.\Generated_Source\PSoC5/UART_Bridge.c **** 
1345:.\Generated_Source\PSoC5/UART_Bridge.c ****             /* Is the fifo is full. */
1346:.\Generated_Source\PSoC5/UART_Bridge.c ****             if((size & UART_Bridge_TX_STS_FIFO_FULL) != 0u)
1347:.\Generated_Source\PSoC5/UART_Bridge.c ****             {
1348:.\Generated_Source\PSoC5/UART_Bridge.c ****                 size = UART_Bridge_FIFO_LENGTH;
1349:.\Generated_Source\PSoC5/UART_Bridge.c ****             }
1350:.\Generated_Source\PSoC5/UART_Bridge.c ****             else if((size & UART_Bridge_TX_STS_FIFO_EMPTY) != 0u)
ARM GAS  C:\DOCUME~1\ADMINI~1\LOCALS~1\Temp\cc7EA4qV.s 			page 42


1351:.\Generated_Source\PSoC5/UART_Bridge.c ****             {
1352:.\Generated_Source\PSoC5/UART_Bridge.c ****                 size = 0u;
1353:.\Generated_Source\PSoC5/UART_Bridge.c ****             }
1354:.\Generated_Source\PSoC5/UART_Bridge.c ****             else
1355:.\Generated_Source\PSoC5/UART_Bridge.c ****             {
1356:.\Generated_Source\PSoC5/UART_Bridge.c ****                 /* We only know there is data in the fifo. */
1357:.\Generated_Source\PSoC5/UART_Bridge.c ****                 size = 1u;
1358:.\Generated_Source\PSoC5/UART_Bridge.c ****             }
1359:.\Generated_Source\PSoC5/UART_Bridge.c **** 
1360:.\Generated_Source\PSoC5/UART_Bridge.c ****         #endif /* End UART_Bridge_TXBUFFERSIZE > UART_Bridge_FIFO_LENGTH */
1361:.\Generated_Source\PSoC5/UART_Bridge.c **** 
1362:.\Generated_Source\PSoC5/UART_Bridge.c ****         return(size);
1363:.\Generated_Source\PSoC5/UART_Bridge.c ****     }
 984              		.loc 1 1363 0
 985 002e 2046     		mov	r0, r4
 986 0030 10BD     		pop	{r4, pc}
 987              	.L120:
 988 0032 00BF     		.align	2
 989              	.L119:
 990 0034 00000000 		.word	.LANCHOR0
 991              		.cfi_endproc
 992              	.LFE27:
 993              		.size	UART_Bridge_GetTxBufferSize, .-UART_Bridge_GetTxBufferSize
 994              		.section	.text.UART_Bridge_SendBreak,"ax",%progbits
 995              		.align	1
 996              		.global	UART_Bridge_SendBreak
 997              		.thumb
 998              		.thumb_func
 999              		.type	UART_Bridge_SendBreak, %function
 1000              	UART_Bridge_SendBreak:
 1001              	.LFB29:
1364:.\Generated_Source\PSoC5/UART_Bridge.c **** 
1365:.\Generated_Source\PSoC5/UART_Bridge.c **** 
1366:.\Generated_Source\PSoC5/UART_Bridge.c ****     /*******************************************************************************
1367:.\Generated_Source\PSoC5/UART_Bridge.c ****     * Function Name: UART_Bridge_ClearTxBuffer
1368:.\Generated_Source\PSoC5/UART_Bridge.c ****     ********************************************************************************
1369:.\Generated_Source\PSoC5/UART_Bridge.c ****     *
1370:.\Generated_Source\PSoC5/UART_Bridge.c ****     * Summary:
1371:.\Generated_Source\PSoC5/UART_Bridge.c ****     *  Clears the TX RAM buffer by setting the read and write pointers both to zero.
1372:.\Generated_Source\PSoC5/UART_Bridge.c ****     *  Clears the hardware TX FIFO.  Any data present in the FIFO will not be sent.
1373:.\Generated_Source\PSoC5/UART_Bridge.c ****     *
1374:.\Generated_Source\PSoC5/UART_Bridge.c ****     * Parameters:
1375:.\Generated_Source\PSoC5/UART_Bridge.c ****     *  None.
1376:.\Generated_Source\PSoC5/UART_Bridge.c ****     *
1377:.\Generated_Source\PSoC5/UART_Bridge.c ****     * Return:
1378:.\Generated_Source\PSoC5/UART_Bridge.c ****     *  None.
1379:.\Generated_Source\PSoC5/UART_Bridge.c ****     *
1380:.\Generated_Source\PSoC5/UART_Bridge.c ****     * Global Variables:
1381:.\Generated_Source\PSoC5/UART_Bridge.c ****     *  UART_Bridge_txBufferWrite - cleared to zero.
1382:.\Generated_Source\PSoC5/UART_Bridge.c ****     *  UART_Bridge_txBufferRead - cleared to zero.
1383:.\Generated_Source\PSoC5/UART_Bridge.c ****     *
1384:.\Generated_Source\PSoC5/UART_Bridge.c ****     * Reentrant:
1385:.\Generated_Source\PSoC5/UART_Bridge.c ****     *  No.
1386:.\Generated_Source\PSoC5/UART_Bridge.c ****     *
1387:.\Generated_Source\PSoC5/UART_Bridge.c ****     * Theory:
1388:.\Generated_Source\PSoC5/UART_Bridge.c ****     *  Setting the pointers to zero makes the system believe there is no data to
1389:.\Generated_Source\PSoC5/UART_Bridge.c ****     *  read and writing will resume at address 0 overwriting any data that may have
ARM GAS  C:\DOCUME~1\ADMINI~1\LOCALS~1\Temp\cc7EA4qV.s 			page 43


1390:.\Generated_Source\PSoC5/UART_Bridge.c ****     *  remained in the RAM.
1391:.\Generated_Source\PSoC5/UART_Bridge.c ****     *
1392:.\Generated_Source\PSoC5/UART_Bridge.c ****     * Side Effects:
1393:.\Generated_Source\PSoC5/UART_Bridge.c ****     *  Any received data not read from the RAM buffer will be lost when overwritten.
1394:.\Generated_Source\PSoC5/UART_Bridge.c ****     *
1395:.\Generated_Source\PSoC5/UART_Bridge.c ****     *******************************************************************************/
1396:.\Generated_Source\PSoC5/UART_Bridge.c ****     void UART_Bridge_ClearTxBuffer(void) 
1397:.\Generated_Source\PSoC5/UART_Bridge.c ****     {
1398:.\Generated_Source\PSoC5/UART_Bridge.c ****         uint8 enableInterrupts;
1399:.\Generated_Source\PSoC5/UART_Bridge.c **** 
1400:.\Generated_Source\PSoC5/UART_Bridge.c ****         /* Enter critical section */
1401:.\Generated_Source\PSoC5/UART_Bridge.c ****         enableInterrupts = CyEnterCriticalSection();
1402:.\Generated_Source\PSoC5/UART_Bridge.c ****         /* clear the HW FIFO */
1403:.\Generated_Source\PSoC5/UART_Bridge.c ****         UART_Bridge_TXDATA_AUX_CTL_REG |=  UART_Bridge_TX_FIFO_CLR;
1404:.\Generated_Source\PSoC5/UART_Bridge.c ****         UART_Bridge_TXDATA_AUX_CTL_REG &= (uint8)~UART_Bridge_TX_FIFO_CLR;
1405:.\Generated_Source\PSoC5/UART_Bridge.c ****         /* Exit critical section */
1406:.\Generated_Source\PSoC5/UART_Bridge.c ****         CyExitCriticalSection(enableInterrupts);
1407:.\Generated_Source\PSoC5/UART_Bridge.c **** 
1408:.\Generated_Source\PSoC5/UART_Bridge.c ****         #if(UART_Bridge_TXBUFFERSIZE > UART_Bridge_FIFO_LENGTH)
1409:.\Generated_Source\PSoC5/UART_Bridge.c **** 
1410:.\Generated_Source\PSoC5/UART_Bridge.c ****             /* Disable Tx interrupt. */
1411:.\Generated_Source\PSoC5/UART_Bridge.c ****             /* Protect variables that could change on interrupt. */
1412:.\Generated_Source\PSoC5/UART_Bridge.c ****             #if(UART_Bridge_TX_INTERRUPT_ENABLED)
1413:.\Generated_Source\PSoC5/UART_Bridge.c ****                 UART_Bridge_DisableTxInt();
1414:.\Generated_Source\PSoC5/UART_Bridge.c ****             #endif /* End UART_Bridge_TX_INTERRUPT_ENABLED */
1415:.\Generated_Source\PSoC5/UART_Bridge.c **** 
1416:.\Generated_Source\PSoC5/UART_Bridge.c ****             UART_Bridge_txBufferRead = 0u;
1417:.\Generated_Source\PSoC5/UART_Bridge.c ****             UART_Bridge_txBufferWrite = 0u;
1418:.\Generated_Source\PSoC5/UART_Bridge.c **** 
1419:.\Generated_Source\PSoC5/UART_Bridge.c ****             /* Enable Tx interrupt. */
1420:.\Generated_Source\PSoC5/UART_Bridge.c ****             #if(UART_Bridge_TX_INTERRUPT_ENABLED)
1421:.\Generated_Source\PSoC5/UART_Bridge.c ****                 UART_Bridge_EnableTxInt();
1422:.\Generated_Source\PSoC5/UART_Bridge.c ****             #endif /* End UART_Bridge_TX_INTERRUPT_ENABLED */
1423:.\Generated_Source\PSoC5/UART_Bridge.c **** 
1424:.\Generated_Source\PSoC5/UART_Bridge.c ****         #endif /* End UART_Bridge_TXBUFFERSIZE > UART_Bridge_FIFO_LENGTH */
1425:.\Generated_Source\PSoC5/UART_Bridge.c ****     }
1426:.\Generated_Source\PSoC5/UART_Bridge.c **** 
1427:.\Generated_Source\PSoC5/UART_Bridge.c **** 
1428:.\Generated_Source\PSoC5/UART_Bridge.c ****     /*******************************************************************************
1429:.\Generated_Source\PSoC5/UART_Bridge.c ****     * Function Name: UART_Bridge_SendBreak
1430:.\Generated_Source\PSoC5/UART_Bridge.c ****     ********************************************************************************
1431:.\Generated_Source\PSoC5/UART_Bridge.c ****     *
1432:.\Generated_Source\PSoC5/UART_Bridge.c ****     * Summary:
1433:.\Generated_Source\PSoC5/UART_Bridge.c ****     *  Write a Break command to the UART
1434:.\Generated_Source\PSoC5/UART_Bridge.c ****     *
1435:.\Generated_Source\PSoC5/UART_Bridge.c ****     * Parameters:
1436:.\Generated_Source\PSoC5/UART_Bridge.c ****     *  uint8 retMode:  Wait mode,
1437:.\Generated_Source\PSoC5/UART_Bridge.c ****     *   0 - Initialize registers for Break, sends the Break signal and return
1438:.\Generated_Source\PSoC5/UART_Bridge.c ****     *       imediately.
1439:.\Generated_Source\PSoC5/UART_Bridge.c ****     *   1 - Wait until Break sending is complete, reinitialize registers to normal
1440:.\Generated_Source\PSoC5/UART_Bridge.c ****     *       transmission mode then return.
1441:.\Generated_Source\PSoC5/UART_Bridge.c ****     *   2 - Reinitialize registers to normal transmission mode then return.
1442:.\Generated_Source\PSoC5/UART_Bridge.c ****     *   3 - both steps: 0 and 1
1443:.\Generated_Source\PSoC5/UART_Bridge.c ****     *       init registers for Break, send Break signal
1444:.\Generated_Source\PSoC5/UART_Bridge.c ****     *       wait until Break sending is complete, reinit registers to normal
1445:.\Generated_Source\PSoC5/UART_Bridge.c ****     *       transmission mode then return.
1446:.\Generated_Source\PSoC5/UART_Bridge.c ****     *
ARM GAS  C:\DOCUME~1\ADMINI~1\LOCALS~1\Temp\cc7EA4qV.s 			page 44


1447:.\Generated_Source\PSoC5/UART_Bridge.c ****     * Return:
1448:.\Generated_Source\PSoC5/UART_Bridge.c ****     *  None.
1449:.\Generated_Source\PSoC5/UART_Bridge.c ****     *
1450:.\Generated_Source\PSoC5/UART_Bridge.c ****     * Global Variables:
1451:.\Generated_Source\PSoC5/UART_Bridge.c ****     *  UART_Bridge_initVar - checked to identify that the component has been
1452:.\Generated_Source\PSoC5/UART_Bridge.c ****     *     initialized.
1453:.\Generated_Source\PSoC5/UART_Bridge.c ****     *  tx_period - static variable, used for keeping TX period configuration.
1454:.\Generated_Source\PSoC5/UART_Bridge.c ****     *
1455:.\Generated_Source\PSoC5/UART_Bridge.c ****     * Reentrant:
1456:.\Generated_Source\PSoC5/UART_Bridge.c ****     *  No.
1457:.\Generated_Source\PSoC5/UART_Bridge.c ****     *
1458:.\Generated_Source\PSoC5/UART_Bridge.c ****     * Theory:
1459:.\Generated_Source\PSoC5/UART_Bridge.c ****     *  SendBreak function initializes registers to send 13-bit break signal. It is
1460:.\Generated_Source\PSoC5/UART_Bridge.c ****     *  important to return the registers configuration to normal for continue 8-bit
1461:.\Generated_Source\PSoC5/UART_Bridge.c ****     *  operation.
1462:.\Generated_Source\PSoC5/UART_Bridge.c ****     *  Trere are 3 variants for this API usage:
1463:.\Generated_Source\PSoC5/UART_Bridge.c ****     *  1) SendBreak(3) - function will send the Break signal and take care on the
1464:.\Generated_Source\PSoC5/UART_Bridge.c ****     *     configuration returning. Funcition will block CPU untill transmition
1465:.\Generated_Source\PSoC5/UART_Bridge.c ****     *     complete.
1466:.\Generated_Source\PSoC5/UART_Bridge.c ****     *  2) User may want to use bloking time if UART configured to the low speed
1467:.\Generated_Source\PSoC5/UART_Bridge.c ****     *     operation
1468:.\Generated_Source\PSoC5/UART_Bridge.c ****     *     Emample for this case:
1469:.\Generated_Source\PSoC5/UART_Bridge.c ****     *     SendBreak(0);     - init Break signal transmition
1470:.\Generated_Source\PSoC5/UART_Bridge.c ****     *         Add your code here to use CPU time
1471:.\Generated_Source\PSoC5/UART_Bridge.c ****     *     SendBreak(1);     - complete Break operation
1472:.\Generated_Source\PSoC5/UART_Bridge.c ****     *  3) Same to 2) but user may want to init and use the interrupt for complete
1473:.\Generated_Source\PSoC5/UART_Bridge.c ****     *     break operation.
1474:.\Generated_Source\PSoC5/UART_Bridge.c ****     *     Example for this case:
1475:.\Generated_Source\PSoC5/UART_Bridge.c ****     *     Init TX interrupt whith "TX - On TX Complete" parameter
1476:.\Generated_Source\PSoC5/UART_Bridge.c ****     *     SendBreak(0);     - init Break signal transmition
1477:.\Generated_Source\PSoC5/UART_Bridge.c ****     *         Add your code here to use CPU time
1478:.\Generated_Source\PSoC5/UART_Bridge.c ****     *     When interrupt appear with UART_TX_STS_COMPLETE status:
1479:.\Generated_Source\PSoC5/UART_Bridge.c ****     *     SendBreak(2);     - complete Break operation
1480:.\Generated_Source\PSoC5/UART_Bridge.c ****     *
1481:.\Generated_Source\PSoC5/UART_Bridge.c ****     * Side Effects:
1482:.\Generated_Source\PSoC5/UART_Bridge.c ****     *   Uses static variable to keep registers configuration.
1483:.\Generated_Source\PSoC5/UART_Bridge.c ****     *
1484:.\Generated_Source\PSoC5/UART_Bridge.c ****     *******************************************************************************/
1485:.\Generated_Source\PSoC5/UART_Bridge.c ****     void UART_Bridge_SendBreak(uint8 retMode) 
1486:.\Generated_Source\PSoC5/UART_Bridge.c ****     {
 1002              		.loc 1 1486 0
 1003              		.cfi_startproc
 1004              		@ args = 0, pretend = 0, frame = 0
 1005              		@ frame_needed = 0, uses_anonymous_args = 0
 1006              		@ link register save eliminated.
 1007              	.LVL62:
1487:.\Generated_Source\PSoC5/UART_Bridge.c **** 
1488:.\Generated_Source\PSoC5/UART_Bridge.c ****         /* If not Initialized then skip this function*/
1489:.\Generated_Source\PSoC5/UART_Bridge.c ****         if(UART_Bridge_initVar != 0u)
 1008              		.loc 1 1489 0
 1009 0000 124B     		ldr	r3, .L129
 1010 0002 1B79     		ldrb	r3, [r3, #4]	@ zero_extendqisi2
 1011 0004 0BB3     		cbz	r3, .L128
 1012              	.LBB2:
1490:.\Generated_Source\PSoC5/UART_Bridge.c ****         {
1491:.\Generated_Source\PSoC5/UART_Bridge.c ****             /*Set the Counter to 13-bits and transmit a 00 byte*/
1492:.\Generated_Source\PSoC5/UART_Bridge.c ****             /*When that is done then reset the counter value back*/
ARM GAS  C:\DOCUME~1\ADMINI~1\LOCALS~1\Temp\cc7EA4qV.s 			page 45


1493:.\Generated_Source\PSoC5/UART_Bridge.c ****             uint8 tmpStat;
1494:.\Generated_Source\PSoC5/UART_Bridge.c **** 
1495:.\Generated_Source\PSoC5/UART_Bridge.c ****             #if(UART_Bridge_HD_ENABLED) /* Half Duplex mode*/
1496:.\Generated_Source\PSoC5/UART_Bridge.c **** 
1497:.\Generated_Source\PSoC5/UART_Bridge.c ****                 if( (retMode == UART_Bridge_SEND_BREAK) ||
1498:.\Generated_Source\PSoC5/UART_Bridge.c ****                     (retMode == UART_Bridge_SEND_WAIT_REINIT ) )
1499:.\Generated_Source\PSoC5/UART_Bridge.c ****                 {
1500:.\Generated_Source\PSoC5/UART_Bridge.c ****                     /* CTRL_HD_SEND_BREAK - sends break bits in HD mode*/
1501:.\Generated_Source\PSoC5/UART_Bridge.c ****                     UART_Bridge_WriteControlRegister(UART_Bridge_ReadControlRegister() |
1502:.\Generated_Source\PSoC5/UART_Bridge.c ****                                                           UART_Bridge_CTRL_HD_SEND_BREAK);
1503:.\Generated_Source\PSoC5/UART_Bridge.c ****                     /* Send zeros*/
1504:.\Generated_Source\PSoC5/UART_Bridge.c ****                     UART_Bridge_TXDATA_REG = 0u;
1505:.\Generated_Source\PSoC5/UART_Bridge.c **** 
1506:.\Generated_Source\PSoC5/UART_Bridge.c ****                     do /*wait until transmit starts*/
1507:.\Generated_Source\PSoC5/UART_Bridge.c ****                     {
1508:.\Generated_Source\PSoC5/UART_Bridge.c ****                         tmpStat = UART_Bridge_TXSTATUS_REG;
1509:.\Generated_Source\PSoC5/UART_Bridge.c ****                     }while((tmpStat & UART_Bridge_TX_STS_FIFO_EMPTY) != 0u);
1510:.\Generated_Source\PSoC5/UART_Bridge.c ****                 }
1511:.\Generated_Source\PSoC5/UART_Bridge.c **** 
1512:.\Generated_Source\PSoC5/UART_Bridge.c ****                 if( (retMode == UART_Bridge_WAIT_FOR_COMPLETE_REINIT) ||
1513:.\Generated_Source\PSoC5/UART_Bridge.c ****                     (retMode == UART_Bridge_SEND_WAIT_REINIT) )
1514:.\Generated_Source\PSoC5/UART_Bridge.c ****                 {
1515:.\Generated_Source\PSoC5/UART_Bridge.c ****                     do /*wait until transmit complete*/
1516:.\Generated_Source\PSoC5/UART_Bridge.c ****                     {
1517:.\Generated_Source\PSoC5/UART_Bridge.c ****                         tmpStat = UART_Bridge_TXSTATUS_REG;
1518:.\Generated_Source\PSoC5/UART_Bridge.c ****                     }while(((uint8)~tmpStat & UART_Bridge_TX_STS_COMPLETE) != 0u);
1519:.\Generated_Source\PSoC5/UART_Bridge.c ****                 }
1520:.\Generated_Source\PSoC5/UART_Bridge.c **** 
1521:.\Generated_Source\PSoC5/UART_Bridge.c ****                 if( (retMode == UART_Bridge_WAIT_FOR_COMPLETE_REINIT) ||
1522:.\Generated_Source\PSoC5/UART_Bridge.c ****                     (retMode == UART_Bridge_REINIT) ||
1523:.\Generated_Source\PSoC5/UART_Bridge.c ****                     (retMode == UART_Bridge_SEND_WAIT_REINIT) )
1524:.\Generated_Source\PSoC5/UART_Bridge.c ****                 {
1525:.\Generated_Source\PSoC5/UART_Bridge.c ****                     UART_Bridge_WriteControlRegister(UART_Bridge_ReadControlRegister() &
1526:.\Generated_Source\PSoC5/UART_Bridge.c ****                                                   (uint8)~UART_Bridge_CTRL_HD_SEND_BREAK);
1527:.\Generated_Source\PSoC5/UART_Bridge.c ****                 }
1528:.\Generated_Source\PSoC5/UART_Bridge.c **** 
1529:.\Generated_Source\PSoC5/UART_Bridge.c ****             #else /* UART_Bridge_HD_ENABLED Full Duplex mode */
1530:.\Generated_Source\PSoC5/UART_Bridge.c **** 
1531:.\Generated_Source\PSoC5/UART_Bridge.c ****                 static uint8 tx_period;
1532:.\Generated_Source\PSoC5/UART_Bridge.c **** 
1533:.\Generated_Source\PSoC5/UART_Bridge.c ****                 if( (retMode == UART_Bridge_SEND_BREAK) ||
 1013              		.loc 1 1533 0
 1014 0006 08B1     		cbz	r0, .L123
 1015 0008 0328     		cmp	r0, #3
 1016 000a 0DD1     		bne	.L124
 1017              	.L123:
1534:.\Generated_Source\PSoC5/UART_Bridge.c ****                     (retMode == UART_Bridge_SEND_WAIT_REINIT) )
1535:.\Generated_Source\PSoC5/UART_Bridge.c ****                 {
1536:.\Generated_Source\PSoC5/UART_Bridge.c ****                     /* CTRL_HD_SEND_BREAK - skip to send parity bit at Break signal in Full Duplex 
1537:.\Generated_Source\PSoC5/UART_Bridge.c ****                     #if( (UART_Bridge_PARITY_TYPE != UART_Bridge__B_UART__NONE_REVB) || \
1538:.\Generated_Source\PSoC5/UART_Bridge.c ****                                         (UART_Bridge_PARITY_TYPE_SW != 0u) )
1539:.\Generated_Source\PSoC5/UART_Bridge.c ****                         UART_Bridge_WriteControlRegister(UART_Bridge_ReadControlRegister() |
1540:.\Generated_Source\PSoC5/UART_Bridge.c ****                                                               UART_Bridge_CTRL_HD_SEND_BREAK);
1541:.\Generated_Source\PSoC5/UART_Bridge.c ****                     #endif /* End UART_Bridge_PARITY_TYPE != UART_Bridge__B_UART__NONE_REVB  */
1542:.\Generated_Source\PSoC5/UART_Bridge.c **** 
1543:.\Generated_Source\PSoC5/UART_Bridge.c ****                     #if(UART_Bridge_TXCLKGEN_DP)
1544:.\Generated_Source\PSoC5/UART_Bridge.c ****                         tx_period = UART_Bridge_TXBITCLKTX_COMPLETE_REG;
ARM GAS  C:\DOCUME~1\ADMINI~1\LOCALS~1\Temp\cc7EA4qV.s 			page 46


 1018              		.loc 1 1544 0
 1019 000c 104B     		ldr	r3, .L129+4
 1020 000e 0F4A     		ldr	r2, .L129
 1021 0010 1978     		ldrb	r1, [r3, #0]	@ zero_extendqisi2
 1022 0012 D171     		strb	r1, [r2, #7]
1545:.\Generated_Source\PSoC5/UART_Bridge.c ****                         UART_Bridge_TXBITCLKTX_COMPLETE_REG = UART_Bridge_TXBITCTR_BREAKBITS;
 1023              		.loc 1 1545 0
 1024 0014 6722     		movs	r2, #103
 1025 0016 1A70     		strb	r2, [r3, #0]
1546:.\Generated_Source\PSoC5/UART_Bridge.c ****                     #else
1547:.\Generated_Source\PSoC5/UART_Bridge.c ****                         tx_period = UART_Bridge_TXBITCTR_PERIOD_REG;
1548:.\Generated_Source\PSoC5/UART_Bridge.c ****                         UART_Bridge_TXBITCTR_PERIOD_REG = UART_Bridge_TXBITCTR_BREAKBITS8X;
1549:.\Generated_Source\PSoC5/UART_Bridge.c ****                     #endif /* End UART_Bridge_TXCLKGEN_DP */
1550:.\Generated_Source\PSoC5/UART_Bridge.c **** 
1551:.\Generated_Source\PSoC5/UART_Bridge.c ****                     /* Send zeros*/
1552:.\Generated_Source\PSoC5/UART_Bridge.c ****                     UART_Bridge_TXDATA_REG = 0u;
 1026              		.loc 1 1552 0
 1027 0018 673A     		subs	r2, r2, #103
 1028 001a 0C33     		adds	r3, r3, #12
 1029 001c 1A70     		strb	r2, [r3, #0]
 1030              	.L125:
1553:.\Generated_Source\PSoC5/UART_Bridge.c **** 
1554:.\Generated_Source\PSoC5/UART_Bridge.c ****                     do /* wait until transmit starts */
1555:.\Generated_Source\PSoC5/UART_Bridge.c ****                     {
1556:.\Generated_Source\PSoC5/UART_Bridge.c ****                         tmpStat = UART_Bridge_TXSTATUS_REG;
 1031              		.loc 1 1556 0
 1032 001e 0D4B     		ldr	r3, .L129+8
 1033 0020 1B78     		ldrb	r3, [r3, #0]	@ zero_extendqisi2
1557:.\Generated_Source\PSoC5/UART_Bridge.c ****                     }while((tmpStat & UART_Bridge_TX_STS_FIFO_EMPTY) != 0u);
 1034              		.loc 1 1557 0
 1035 0022 13F0020F 		tst	r3, #2
 1036 0026 FAD1     		bne	.L125
 1037              	.L124:
1558:.\Generated_Source\PSoC5/UART_Bridge.c ****                 }
1559:.\Generated_Source\PSoC5/UART_Bridge.c **** 
1560:.\Generated_Source\PSoC5/UART_Bridge.c ****                 if( (retMode == UART_Bridge_WAIT_FOR_COMPLETE_REINIT) ||
 1038              		.loc 1 1560 0
 1039 0028 0128     		cmp	r0, #1
 1040 002a 01D0     		beq	.L126
 1041 002c 0328     		cmp	r0, #3
 1042 002e 04D1     		bne	.L127
 1043              	.L126:
1561:.\Generated_Source\PSoC5/UART_Bridge.c ****                     (retMode == UART_Bridge_SEND_WAIT_REINIT) )
1562:.\Generated_Source\PSoC5/UART_Bridge.c ****                 {
1563:.\Generated_Source\PSoC5/UART_Bridge.c ****                     do /*wait until transmit complete*/
1564:.\Generated_Source\PSoC5/UART_Bridge.c ****                     {
1565:.\Generated_Source\PSoC5/UART_Bridge.c ****                         tmpStat = UART_Bridge_TXSTATUS_REG;
 1044              		.loc 1 1565 0
 1045 0030 084B     		ldr	r3, .L129+8
 1046 0032 1B78     		ldrb	r3, [r3, #0]	@ zero_extendqisi2
1566:.\Generated_Source\PSoC5/UART_Bridge.c ****                     }while(((uint8)~tmpStat & UART_Bridge_TX_STS_COMPLETE) != 0u);
 1047              		.loc 1 1566 0
 1048 0034 13F0010F 		tst	r3, #1
 1049 0038 FAD0     		beq	.L126
 1050              	.L127:
1567:.\Generated_Source\PSoC5/UART_Bridge.c ****                 }
1568:.\Generated_Source\PSoC5/UART_Bridge.c **** 
ARM GAS  C:\DOCUME~1\ADMINI~1\LOCALS~1\Temp\cc7EA4qV.s 			page 47


1569:.\Generated_Source\PSoC5/UART_Bridge.c ****                 if( (retMode == UART_Bridge_WAIT_FOR_COMPLETE_REINIT) ||
 1051              		.loc 1 1569 0
 1052 003a 0138     		subs	r0, r0, #1
 1053              	.LVL63:
 1054 003c C0B2     		uxtb	r0, r0
 1055 003e 0228     		cmp	r0, #2
 1056 0040 03D8     		bhi	.L128
1570:.\Generated_Source\PSoC5/UART_Bridge.c ****                     (retMode == UART_Bridge_REINIT) ||
1571:.\Generated_Source\PSoC5/UART_Bridge.c ****                     (retMode == UART_Bridge_SEND_WAIT_REINIT) )
1572:.\Generated_Source\PSoC5/UART_Bridge.c ****                 {
1573:.\Generated_Source\PSoC5/UART_Bridge.c **** 
1574:.\Generated_Source\PSoC5/UART_Bridge.c ****                     #if(UART_Bridge_TXCLKGEN_DP)
1575:.\Generated_Source\PSoC5/UART_Bridge.c ****                         UART_Bridge_TXBITCLKTX_COMPLETE_REG = tx_period;
 1057              		.loc 1 1575 0
 1058 0042 024B     		ldr	r3, .L129
 1059 0044 DA79     		ldrb	r2, [r3, #7]	@ zero_extendqisi2
 1060 0046 024B     		ldr	r3, .L129+4
 1061 0048 1A70     		strb	r2, [r3, #0]
 1062              	.LVL64:
 1063              	.L128:
 1064 004a 7047     		bx	lr
 1065              	.L130:
 1066              		.align	2
 1067              	.L129:
 1068 004c 00000000 		.word	.LANCHOR0
 1069 0050 36640040 		.word	1073767478
 1070 0054 62640040 		.word	1073767522
 1071              	.LBE2:
 1072              		.cfi_endproc
 1073              	.LFE29:
 1074              		.size	UART_Bridge_SendBreak, .-UART_Bridge_SendBreak
 1075              		.section	.text.UART_Bridge_SetTxAddressMode,"ax",%progbits
 1076              		.align	1
 1077              		.global	UART_Bridge_SetTxAddressMode
 1078              		.thumb
 1079              		.thumb_func
 1080              		.type	UART_Bridge_SetTxAddressMode, %function
 1081              	UART_Bridge_SetTxAddressMode:
 1082              	.LFB30:
1576:.\Generated_Source\PSoC5/UART_Bridge.c ****                     #else
1577:.\Generated_Source\PSoC5/UART_Bridge.c ****                         UART_Bridge_TXBITCTR_PERIOD_REG = tx_period;
1578:.\Generated_Source\PSoC5/UART_Bridge.c ****                     #endif /* End UART_Bridge_TXCLKGEN_DP */
1579:.\Generated_Source\PSoC5/UART_Bridge.c **** 
1580:.\Generated_Source\PSoC5/UART_Bridge.c ****                     #if( (UART_Bridge_PARITY_TYPE != UART_Bridge__B_UART__NONE_REVB) || \
1581:.\Generated_Source\PSoC5/UART_Bridge.c ****                          (UART_Bridge_PARITY_TYPE_SW != 0u) )
1582:.\Generated_Source\PSoC5/UART_Bridge.c ****                         UART_Bridge_WriteControlRegister(UART_Bridge_ReadControlRegister() &
1583:.\Generated_Source\PSoC5/UART_Bridge.c ****                                                       (uint8)~UART_Bridge_CTRL_HD_SEND_BREAK);
1584:.\Generated_Source\PSoC5/UART_Bridge.c ****                     #endif /* End UART_Bridge_PARITY_TYPE != NONE */
1585:.\Generated_Source\PSoC5/UART_Bridge.c ****                 }
1586:.\Generated_Source\PSoC5/UART_Bridge.c ****             #endif    /* End UART_Bridge_HD_ENABLED */
1587:.\Generated_Source\PSoC5/UART_Bridge.c ****         }
1588:.\Generated_Source\PSoC5/UART_Bridge.c ****     }
1589:.\Generated_Source\PSoC5/UART_Bridge.c **** 
1590:.\Generated_Source\PSoC5/UART_Bridge.c **** 
1591:.\Generated_Source\PSoC5/UART_Bridge.c ****     /*******************************************************************************
1592:.\Generated_Source\PSoC5/UART_Bridge.c ****     * Function Name: UART_Bridge_SetTxAddressMode
1593:.\Generated_Source\PSoC5/UART_Bridge.c ****     ********************************************************************************
ARM GAS  C:\DOCUME~1\ADMINI~1\LOCALS~1\Temp\cc7EA4qV.s 			page 48


1594:.\Generated_Source\PSoC5/UART_Bridge.c ****     *
1595:.\Generated_Source\PSoC5/UART_Bridge.c ****     * Summary:
1596:.\Generated_Source\PSoC5/UART_Bridge.c ****     *  Set the transmit addressing mode
1597:.\Generated_Source\PSoC5/UART_Bridge.c ****     *
1598:.\Generated_Source\PSoC5/UART_Bridge.c ****     * Parameters:
1599:.\Generated_Source\PSoC5/UART_Bridge.c ****     *  addressMode: 0 -> Space
1600:.\Generated_Source\PSoC5/UART_Bridge.c ****     *               1 -> Mark
1601:.\Generated_Source\PSoC5/UART_Bridge.c ****     *
1602:.\Generated_Source\PSoC5/UART_Bridge.c ****     * Return:
1603:.\Generated_Source\PSoC5/UART_Bridge.c ****     *  None.
1604:.\Generated_Source\PSoC5/UART_Bridge.c ****     *
1605:.\Generated_Source\PSoC5/UART_Bridge.c ****     *******************************************************************************/
1606:.\Generated_Source\PSoC5/UART_Bridge.c ****     void UART_Bridge_SetTxAddressMode(uint8 addressMode) 
1607:.\Generated_Source\PSoC5/UART_Bridge.c ****     {
 1083              		.loc 1 1607 0
 1084              		.cfi_startproc
 1085              		@ args = 0, pretend = 0, frame = 0
 1086              		@ frame_needed = 0, uses_anonymous_args = 0
 1087              		@ link register save eliminated.
 1088              	.LVL65:
1608:.\Generated_Source\PSoC5/UART_Bridge.c ****         /* Mark/Space sending enable*/
1609:.\Generated_Source\PSoC5/UART_Bridge.c ****         if(addressMode != 0u)
1610:.\Generated_Source\PSoC5/UART_Bridge.c ****         {
1611:.\Generated_Source\PSoC5/UART_Bridge.c ****             #if( UART_Bridge_CONTROL_REG_REMOVED == 0u )
1612:.\Generated_Source\PSoC5/UART_Bridge.c ****                 UART_Bridge_WriteControlRegister(UART_Bridge_ReadControlRegister() |
1613:.\Generated_Source\PSoC5/UART_Bridge.c ****                                                       UART_Bridge_CTRL_MARK);
1614:.\Generated_Source\PSoC5/UART_Bridge.c ****             #endif /* End UART_Bridge_CONTROL_REG_REMOVED == 0u */
1615:.\Generated_Source\PSoC5/UART_Bridge.c ****         }
1616:.\Generated_Source\PSoC5/UART_Bridge.c ****         else
1617:.\Generated_Source\PSoC5/UART_Bridge.c ****         {
1618:.\Generated_Source\PSoC5/UART_Bridge.c ****             #if( UART_Bridge_CONTROL_REG_REMOVED == 0u )
1619:.\Generated_Source\PSoC5/UART_Bridge.c ****                 UART_Bridge_WriteControlRegister(UART_Bridge_ReadControlRegister() &
1620:.\Generated_Source\PSoC5/UART_Bridge.c ****                                                     (uint8)~UART_Bridge_CTRL_MARK);
1621:.\Generated_Source\PSoC5/UART_Bridge.c ****             #endif /* End UART_Bridge_CONTROL_REG_REMOVED == 0u */
1622:.\Generated_Source\PSoC5/UART_Bridge.c ****         }
1623:.\Generated_Source\PSoC5/UART_Bridge.c ****     }
 1089              		.loc 1 1623 0
 1090 0000 7047     		bx	lr
 1091              		.cfi_endproc
 1092              	.LFE30:
 1093              		.size	UART_Bridge_SetTxAddressMode, .-UART_Bridge_SetTxAddressMode
 1094              		.section	.text.UART_Bridge_ClearTxBuffer,"ax",%progbits
 1095              		.align	1
 1096              		.global	UART_Bridge_ClearTxBuffer
 1097              		.thumb
 1098              		.thumb_func
 1099              		.type	UART_Bridge_ClearTxBuffer, %function
 1100              	UART_Bridge_ClearTxBuffer:
 1101              	.LFB28:
 1102              		.loc 1 1397 0
 1103              		.cfi_startproc
 1104              		@ args = 0, pretend = 0, frame = 0
 1105              		@ frame_needed = 0, uses_anonymous_args = 0
 1106 0000 10B5     		push	{r4, lr}
 1107              	.LCFI9:
 1108              		.cfi_def_cfa_offset 8
 1109              		.loc 1 1401 0
ARM GAS  C:\DOCUME~1\ADMINI~1\LOCALS~1\Temp\cc7EA4qV.s 			page 49


 1110              		.cfi_offset 14, -4
 1111              		.cfi_offset 4, -8
 1112 0002 FFF7FEFF 		bl	CyEnterCriticalSection
 1113              		.loc 1 1403 0
 1114 0006 0A4B     		ldr	r3, .L135
 1115 0008 1A78     		ldrb	r2, [r3, #0]	@ zero_extendqisi2
 1116 000a 42F00102 		orr	r2, r2, #1
 1117 000e 1A70     		strb	r2, [r3, #0]
 1118              		.loc 1 1404 0
 1119 0010 1A78     		ldrb	r2, [r3, #0]	@ zero_extendqisi2
 1120 0012 02F0FE02 		and	r2, r2, #254
 1121 0016 1A70     		strb	r2, [r3, #0]
 1122              		.loc 1 1406 0
 1123 0018 FFF7FEFF 		bl	CyExitCriticalSection
 1124              		.loc 1 1413 0
 1125 001c FFF7FEFF 		bl	UART_Bridge_DisableTxInt
 1126              		.loc 1 1416 0
 1127 0020 044B     		ldr	r3, .L135+4
 1128 0022 0022     		movs	r2, #0
 1129 0024 5A71     		strb	r2, [r3, #5]
 1130              		.loc 1 1417 0
 1131 0026 9A71     		strb	r2, [r3, #6]
 1132              		.loc 1 1425 0
 1133 0028 BDE81040 		pop	{r4, lr}
 1134              		.loc 1 1421 0
 1135 002c FFF7FEBF 		b	UART_Bridge_EnableTxInt
 1136              	.L136:
 1137              		.align	2
 1138              	.L135:
 1139 0030 92640040 		.word	1073767570
 1140 0034 00000000 		.word	.LANCHOR0
 1141              		.cfi_endproc
 1142              	.LFE28:
 1143              		.size	UART_Bridge_ClearTxBuffer, .-UART_Bridge_ClearTxBuffer
 1144              		.section	.text.UART_Bridge_ClearRxBuffer,"ax",%progbits
 1145              		.align	1
 1146              		.global	UART_Bridge_ClearRxBuffer
 1147              		.thumb
 1148              		.thumb_func
 1149              		.type	UART_Bridge_ClearRxBuffer, %function
 1150              	UART_Bridge_ClearRxBuffer:
 1151              	.LFB14:
 1152              		.loc 1 772 0
 1153              		.cfi_startproc
 1154              		@ args = 0, pretend = 0, frame = 0
 1155              		@ frame_needed = 0, uses_anonymous_args = 0
 1156 0000 10B5     		push	{r4, lr}
 1157              	.LCFI10:
 1158              		.cfi_def_cfa_offset 8
 1159              		.loc 1 777 0
 1160              		.cfi_offset 14, -4
 1161              		.cfi_offset 4, -8
 1162 0002 FFF7FEFF 		bl	CyEnterCriticalSection
 1163              		.loc 1 778 0
 1164 0006 0B4B     		ldr	r3, .L139
 1165 0008 1A78     		ldrb	r2, [r3, #0]	@ zero_extendqisi2
 1166 000a 42F00102 		orr	r2, r2, #1
ARM GAS  C:\DOCUME~1\ADMINI~1\LOCALS~1\Temp\cc7EA4qV.s 			page 50


 1167 000e 1A70     		strb	r2, [r3, #0]
 1168              		.loc 1 779 0
 1169 0010 1A78     		ldrb	r2, [r3, #0]	@ zero_extendqisi2
 1170 0012 02F0FE02 		and	r2, r2, #254
 1171 0016 1A70     		strb	r2, [r3, #0]
 1172              		.loc 1 781 0
 1173 0018 FFF7FEFF 		bl	CyExitCriticalSection
 1174              		.loc 1 787 0
 1175 001c FFF7FEFF 		bl	UART_Bridge_DisableRxInt
 1176              		.loc 1 790 0
 1177 0020 054B     		ldr	r3, .L139+4
 1178 0022 0022     		movs	r2, #0
 1179 0024 1A70     		strb	r2, [r3, #0]
 1180              		.loc 1 791 0
 1181 0026 5A70     		strb	r2, [r3, #1]
 1182              		.loc 1 792 0
 1183 0028 9A70     		strb	r2, [r3, #2]
 1184              		.loc 1 793 0
 1185 002a DA70     		strb	r2, [r3, #3]
 1186              		.loc 1 801 0
 1187 002c BDE81040 		pop	{r4, lr}
 1188              		.loc 1 797 0
 1189 0030 FFF7FEBF 		b	UART_Bridge_EnableRxInt
 1190              	.L140:
 1191              		.align	2
 1192              	.L139:
 1193 0034 90640040 		.word	1073767568
 1194 0038 00000000 		.word	.LANCHOR0
 1195              		.cfi_endproc
 1196              	.LFE14:
 1197              		.size	UART_Bridge_ClearRxBuffer, .-UART_Bridge_ClearRxBuffer
 1198              		.section	.text.UART_Bridge_Stop,"ax",%progbits
 1199              		.align	1
 1200              		.global	UART_Bridge_Stop
 1201              		.thumb
 1202              		.thumb_func
 1203              		.type	UART_Bridge_Stop, %function
 1204              	UART_Bridge_Stop:
 1205              	.LFB3:
 1206              		.loc 1 228 0
 1207              		.cfi_startproc
 1208              		@ args = 0, pretend = 0, frame = 0
 1209              		@ frame_needed = 0, uses_anonymous_args = 0
 1210 0000 10B5     		push	{r4, lr}
 1211              	.LCFI11:
 1212              		.cfi_def_cfa_offset 8
 1213              		.loc 1 230 0
 1214              		.cfi_offset 14, -4
 1215              		.cfi_offset 4, -8
 1216 0002 FFF7FEFF 		bl	CyEnterCriticalSection
 1217              		.loc 1 234 0
 1218 0006 0C4B     		ldr	r3, .L143
 1219              		.loc 1 230 0
 1220 0008 0446     		mov	r4, r0
 1221              		.loc 1 234 0
 1222 000a 1A78     		ldrb	r2, [r3, #0]	@ zero_extendqisi2
 1223 000c 02F0DF02 		and	r2, r2, #223
ARM GAS  C:\DOCUME~1\ADMINI~1\LOCALS~1\Temp\cc7EA4qV.s 			page 51


 1224 0010 1A70     		strb	r2, [r3, #0]
 1225              		.loc 1 250 0
 1226 0012 0A4B     		ldr	r3, .L143+4
 1227 0014 1A78     		ldrb	r2, [r3, #0]	@ zero_extendqisi2
 1228 0016 02F0EF02 		and	r2, r2, #239
 1229 001a 1A70     		strb	r2, [r3, #0]
 1230              		.loc 1 252 0
 1231 001c FFF7FEFF 		bl	UART_Bridge_DisableRxInt
 1232              		.loc 1 257 0
 1233 0020 074B     		ldr	r3, .L143+8
 1234 0022 1A78     		ldrb	r2, [r3, #0]	@ zero_extendqisi2
 1235 0024 02F0EF02 		and	r2, r2, #239
 1236 0028 1A70     		strb	r2, [r3, #0]
 1237              		.loc 1 259 0
 1238 002a FFF7FEFF 		bl	UART_Bridge_DisableTxInt
 1239              		.loc 1 263 0
 1240 002e 2046     		mov	r0, r4
 1241              		.loc 1 264 0
 1242 0030 BDE81040 		pop	{r4, lr}
 1243              		.loc 1 263 0
 1244 0034 FFF7FEBF 		b	CyExitCriticalSection
 1245              	.L144:
 1246              		.align	2
 1247              	.L143:
 1248 0038 97650040 		.word	1073767831
 1249 003c 94640040 		.word	1073767572
 1250 0040 92640040 		.word	1073767570
 1251              		.cfi_endproc
 1252              	.LFE3:
 1253              		.size	UART_Bridge_Stop, .-UART_Bridge_Stop
 1254              		.section	.text.UART_Bridge_Enable,"ax",%progbits
 1255              		.align	1
 1256              		.global	UART_Bridge_Enable
 1257              		.thumb
 1258              		.thumb_func
 1259              		.type	UART_Bridge_Enable, %function
 1260              	UART_Bridge_Enable:
 1261              	.LFB2:
 1262              		.loc 1 175 0
 1263              		.cfi_startproc
 1264              		@ args = 0, pretend = 0, frame = 0
 1265              		@ frame_needed = 0, uses_anonymous_args = 0
 1266 0000 10B5     		push	{r4, lr}
 1267              	.LCFI12:
 1268              		.cfi_def_cfa_offset 8
 1269              		.loc 1 177 0
 1270              		.cfi_offset 14, -4
 1271              		.cfi_offset 4, -8
 1272 0002 FFF7FEFF 		bl	CyEnterCriticalSection
 1273              		.loc 1 181 0
 1274 0006 0C4B     		ldr	r3, .L147
 1275 0008 1A78     		ldrb	r2, [r3, #0]	@ zero_extendqisi2
 1276 000a 42F02002 		orr	r2, r2, #32
 1277 000e 1A70     		strb	r2, [r3, #0]
 1278              		.loc 1 183 0
 1279 0010 0A4B     		ldr	r3, .L147+4
 1280 0012 1A78     		ldrb	r2, [r3, #0]	@ zero_extendqisi2
ARM GAS  C:\DOCUME~1\ADMINI~1\LOCALS~1\Temp\cc7EA4qV.s 			page 52


 1281 0014 42F01002 		orr	r2, r2, #16
 1282 0018 1A70     		strb	r2, [r3, #0]
 1283              		.loc 1 185 0
 1284 001a 094B     		ldr	r3, .L147+8
 1285 001c 0222     		movs	r2, #2
 1286 001e 1A60     		str	r2, [r3, #0]
 1287              		.loc 1 198 0
 1288 0020 084A     		ldr	r2, .L147+12
 1289 0022 1178     		ldrb	r1, [r2, #0]	@ zero_extendqisi2
 1290 0024 41F01001 		orr	r1, r1, #16
 1291 0028 1170     		strb	r1, [r2, #0]
 1292              		.loc 1 200 0
 1293 002a 0422     		movs	r2, #4
 1294 002c 1A60     		str	r2, [r3, #0]
 1295              		.loc 1 210 0
 1296 002e BDE81040 		pop	{r4, lr}
 1297              		.loc 1 209 0
 1298 0032 FFF7FEBF 		b	CyExitCriticalSection
 1299              	.L148:
 1300 0036 00BF     		.align	2
 1301              	.L147:
 1302 0038 97650040 		.word	1073767831
 1303 003c 94640040 		.word	1073767572
 1304 0040 00E100E0 		.word	-536813312
 1305 0044 92640040 		.word	1073767570
 1306              		.cfi_endproc
 1307              	.LFE2:
 1308              		.size	UART_Bridge_Enable, .-UART_Bridge_Enable
 1309              		.section	.text.UART_Bridge_Init,"ax",%progbits
 1310              		.align	1
 1311              		.global	UART_Bridge_Init
 1312              		.thumb
 1313              		.thumb_func
 1314              		.type	UART_Bridge_Init, %function
 1315              	UART_Bridge_Init:
 1316              	.LFB1:
 1317              		.loc 1 102 0
 1318              		.cfi_startproc
 1319              		@ args = 0, pretend = 0, frame = 0
 1320              		@ frame_needed = 0, uses_anonymous_args = 0
 1321 0000 08B5     		push	{r3, lr}
 1322              	.LCFI13:
 1323              		.cfi_def_cfa_offset 8
 1324              		.loc 1 107 0
 1325 0002 1049     		ldr	r1, .L151
 1326 0004 0120     		movs	r0, #1
 1327              		.cfi_offset 14, -4
 1328              		.cfi_offset 3, -8
 1329 0006 FFF7FEFF 		bl	CyIntSetVector
 1330              		.loc 1 108 0
 1331 000a 0120     		movs	r0, #1
 1332 000c 0421     		movs	r1, #4
 1333 000e FFF7FEFF 		bl	CyIntSetPriority
 1334              		.loc 1 118 0
 1335 0012 0D4B     		ldr	r3, .L151+4
 1336 0014 7222     		movs	r2, #114
 1337 0016 1A70     		strb	r2, [r3, #0]
ARM GAS  C:\DOCUME~1\ADMINI~1\LOCALS~1\Temp\cc7EA4qV.s 			page 53


 1338              		.loc 1 120 0
 1339 0018 0C4B     		ldr	r3, .L151+8
 1340 001a 523A     		subs	r2, r2, #82
 1341 001c 1A70     		strb	r2, [r3, #0]
 1342              		.loc 1 126 0
 1343 001e 0C49     		ldr	r1, .L151+12
 1344 0020 0220     		movs	r0, #2
 1345 0022 FFF7FEFF 		bl	CyIntSetVector
 1346              		.loc 1 127 0
 1347 0026 0220     		movs	r0, #2
 1348 0028 0421     		movs	r1, #4
 1349 002a FFF7FEFF 		bl	CyIntSetPriority
 1350              		.loc 1 132 0
 1351 002e 094B     		ldr	r3, .L151+16
 1352 0030 0722     		movs	r2, #7
 1353 0032 1A70     		strb	r2, [r3, #0]
 1354              		.loc 1 133 0
 1355 0034 4132     		adds	r2, r2, #65
 1356 0036 1033     		adds	r3, r3, #16
 1357 0038 1A70     		strb	r2, [r3, #0]
 1358              		.loc 1 142 0
 1359 003a 463A     		subs	r2, r2, #70
 1360 003c 4C33     		adds	r3, r3, #76
 1361 003e 1A70     		strb	r2, [r3, #0]
 1362              		.loc 1 154 0
 1363 0040 08BD     		pop	{r3, pc}
 1364              	.L152:
 1365 0042 00BF     		.align	2
 1366              	.L151:
 1367 0044 00000000 		.word	UART_Bridge_RXISR
 1368 0048 87650040 		.word	1073767815
 1369 004c 84640040 		.word	1073767556
 1370 0050 00000000 		.word	UART_Bridge_TXISR
 1371 0054 26640040 		.word	1073767462
 1372              		.cfi_endproc
 1373              	.LFE1:
 1374              		.size	UART_Bridge_Init, .-UART_Bridge_Init
 1375              		.section	.text.UART_Bridge_Start,"ax",%progbits
 1376              		.align	1
 1377              		.global	UART_Bridge_Start
 1378              		.thumb
 1379              		.thumb_func
 1380              		.type	UART_Bridge_Start, %function
 1381              	UART_Bridge_Start:
 1382              	.LFB0:
 1383              		.loc 1 74 0
 1384              		.cfi_startproc
 1385              		@ args = 0, pretend = 0, frame = 0
 1386              		@ frame_needed = 0, uses_anonymous_args = 0
 1387 0000 10B5     		push	{r4, lr}
 1388              	.LCFI14:
 1389              		.cfi_def_cfa_offset 8
 1390              		.loc 1 76 0
 1391 0002 054C     		ldr	r4, .L156
 1392              		.cfi_offset 14, -4
 1393              		.cfi_offset 4, -8
 1394 0004 2379     		ldrb	r3, [r4, #4]	@ zero_extendqisi2
ARM GAS  C:\DOCUME~1\ADMINI~1\LOCALS~1\Temp\cc7EA4qV.s 			page 54


 1395 0006 1BB9     		cbnz	r3, .L154
 1396              		.loc 1 78 0
 1397 0008 FFF7FEFF 		bl	UART_Bridge_Init
 1398              		.loc 1 79 0
 1399 000c 0123     		movs	r3, #1
 1400 000e 2371     		strb	r3, [r4, #4]
 1401              	.L154:
 1402              		.loc 1 82 0
 1403 0010 BDE81040 		pop	{r4, lr}
 1404              		.loc 1 81 0
 1405 0014 FFF7FEBF 		b	UART_Bridge_Enable
 1406              	.L157:
 1407              		.align	2
 1408              	.L156:
 1409 0018 00000000 		.word	.LANCHOR0
 1410              		.cfi_endproc
 1411              	.LFE0:
 1412              		.size	UART_Bridge_Start, .-UART_Bridge_Start
 1413              		.global	UART_Bridge_initVar
 1414              		.global	UART_Bridge_txBufferRead
 1415              		.global	UART_Bridge_txBufferWrite
 1416              		.global	UART_Bridge_rxBufferRead
 1417              		.global	UART_Bridge_rxBufferWrite
 1418              		.global	UART_Bridge_rxBufferLoopDetect
 1419              		.global	UART_Bridge_rxBufferOverflow
 1420              		.comm	UART_Bridge_txBuffer,128,4
 1421              		.comm	UART_Bridge_rxBuffer,128,4
 1422              		.bss
 1423              		.set	.LANCHOR0,. + 0
 1424              		.type	UART_Bridge_rxBufferRead, %object
 1425              		.size	UART_Bridge_rxBufferRead, 1
 1426              	UART_Bridge_rxBufferRead:
 1427 0000 00       		.space	1
 1428              		.type	UART_Bridge_rxBufferWrite, %object
 1429              		.size	UART_Bridge_rxBufferWrite, 1
 1430              	UART_Bridge_rxBufferWrite:
 1431 0001 00       		.space	1
 1432              		.type	UART_Bridge_rxBufferLoopDetect, %object
 1433              		.size	UART_Bridge_rxBufferLoopDetect, 1
 1434              	UART_Bridge_rxBufferLoopDetect:
 1435 0002 00       		.space	1
 1436              		.type	UART_Bridge_rxBufferOverflow, %object
 1437              		.size	UART_Bridge_rxBufferOverflow, 1
 1438              	UART_Bridge_rxBufferOverflow:
 1439 0003 00       		.space	1
 1440              		.type	UART_Bridge_initVar, %object
 1441              		.size	UART_Bridge_initVar, 1
 1442              	UART_Bridge_initVar:
 1443 0004 00       		.space	1
 1444              		.type	UART_Bridge_txBufferRead, %object
 1445              		.size	UART_Bridge_txBufferRead, 1
 1446              	UART_Bridge_txBufferRead:
 1447 0005 00       		.space	1
 1448              		.type	UART_Bridge_txBufferWrite, %object
 1449              		.size	UART_Bridge_txBufferWrite, 1
 1450              	UART_Bridge_txBufferWrite:
 1451 0006 00       		.space	1
ARM GAS  C:\DOCUME~1\ADMINI~1\LOCALS~1\Temp\cc7EA4qV.s 			page 55


 1452              		.type	tx_period.2355, %object
 1453              		.size	tx_period.2355, 1
 1454              	tx_period.2355:
 1455 0007 00       		.space	1
 1456              		.text
 1457              	.Letext0: