ARM GAS  C:\DOCUME~1\ADMINI~1\LOCALS~1\Temp\cc7EA4qV.s 			page 1


   1              		.syntax unified
   2              		.cpu cortex-m3
   3              		.fpu softvfp
   4              		.eabi_attribute 20, 1
   5              		.eabi_attribute 21, 1
   6              		.eabi_attribute 23, 3
   7              		.eabi_attribute 24, 1
   8              		.eabi_attribute 25, 1
   9              		.eabi_attribute 26, 1
  10              		.eabi_attribute 30, 4
  11              		.eabi_attribute 18, 4
  12              		.thumb
  13              		.file	"UART_Bridge.c"
  14              		.section	.debug_abbrev,"",%progbits
  15              	.Ldebug_abbrev0:
  16              		.section	.debug_info,"",%progbits
  17              	.Ldebug_info0:
  18              		.section	.debug_line,"",%progbits
  19              	.Ldebug_line0:
  20 0000 47030000 		.text
  20      02006400 
  20      00000201 
  20      FB0E0D00 
  20      01010101 
  21              	.Ltext0:
  22              		.cfi_sections	.debug_frame
  23              		.section	.text.UART_Bridge_ReadControlRegister,"ax",%progbits
  24              		.align	1
  25              		.global	UART_Bridge_ReadControlRegister
  26              		.thumb
  27              		.thumb_func
  28              		.type	UART_Bridge_ReadControlRegister, %function
  29              	UART_Bridge_ReadControlRegister:
  30              	.LFB4:
  31              		.file 1 ".\\Generated_Source\\PSoC5\\UART_Bridge.c"
   1:.\Generated_Source\PSoC5/UART_Bridge.c **** /*******************************************************************************
   2:.\Generated_Source\PSoC5/UART_Bridge.c **** * File Name: UART_Bridge.c
   3:.\Generated_Source\PSoC5/UART_Bridge.c **** * Version 2.30
   4:.\Generated_Source\PSoC5/UART_Bridge.c **** *
   5:.\Generated_Source\PSoC5/UART_Bridge.c **** * Description:
   6:.\Generated_Source\PSoC5/UART_Bridge.c **** *  This file provides all API functionality of the UART component
   7:.\Generated_Source\PSoC5/UART_Bridge.c **** *
   8:.\Generated_Source\PSoC5/UART_Bridge.c **** * Note:
   9:.\Generated_Source\PSoC5/UART_Bridge.c **** *
  10:.\Generated_Source\PSoC5/UART_Bridge.c **** ********************************************************************************
  11:.\Generated_Source\PSoC5/UART_Bridge.c **** * Copyright 2008-2012, Cypress Semiconductor Corporation.  All rights reserved.
  12:.\Generated_Source\PSoC5/UART_Bridge.c **** * You may use this file only in accordance with the license, terms, conditions,
  13:.\Generated_Source\PSoC5/UART_Bridge.c **** * disclaimers, and limitations in the end user license agreement accompanying
  14:.\Generated_Source\PSoC5/UART_Bridge.c **** * the software package with which this file was provided.
  15:.\Generated_Source\PSoC5/UART_Bridge.c **** *******************************************************************************/
  16:.\Generated_Source\PSoC5/UART_Bridge.c **** 
  17:.\Generated_Source\PSoC5/UART_Bridge.c **** #include "UART_Bridge.h"
  18:.\Generated_Source\PSoC5/UART_Bridge.c **** #include "CyLib.h"
  19:.\Generated_Source\PSoC5/UART_Bridge.c **** #if(UART_Bridge_INTERNAL_CLOCK_USED)
  20:.\Generated_Source\PSoC5/UART_Bridge.c ****     #include "UART_Bridge_IntClock.h"
  21:.\Generated_Source\PSoC5/UART_Bridge.c **** #endif /* End UART_Bridge_INTERNAL_CLOCK_USED */
  22:.\Generated_Source\PSoC5/UART_Bridge.c **** 
ARM GAS  C:\DOCUME~1\ADMINI~1\LOCALS~1\Temp\cc7EA4qV.s 			page 2


  23:.\Generated_Source\PSoC5/UART_Bridge.c **** 
  24:.\Generated_Source\PSoC5/UART_Bridge.c **** /***************************************
  25:.\Generated_Source\PSoC5/UART_Bridge.c **** * Global data allocation
  26:.\Generated_Source\PSoC5/UART_Bridge.c **** ***************************************/
  27:.\Generated_Source\PSoC5/UART_Bridge.c **** 
  28:.\Generated_Source\PSoC5/UART_Bridge.c **** uint8 UART_Bridge_initVar = 0u;
  29:.\Generated_Source\PSoC5/UART_Bridge.c **** #if( UART_Bridge_TX_ENABLED && (UART_Bridge_TXBUFFERSIZE > UART_Bridge_FIFO_LENGTH))
  30:.\Generated_Source\PSoC5/UART_Bridge.c ****     volatile uint8 UART_Bridge_txBuffer[UART_Bridge_TXBUFFERSIZE];
  31:.\Generated_Source\PSoC5/UART_Bridge.c ****     volatile uint8 UART_Bridge_txBufferRead = 0u;
  32:.\Generated_Source\PSoC5/UART_Bridge.c ****     uint8 UART_Bridge_txBufferWrite = 0u;
  33:.\Generated_Source\PSoC5/UART_Bridge.c **** #endif /* End UART_Bridge_TX_ENABLED */
  34:.\Generated_Source\PSoC5/UART_Bridge.c **** #if( ( UART_Bridge_RX_ENABLED || UART_Bridge_HD_ENABLED ) && \
  35:.\Generated_Source\PSoC5/UART_Bridge.c ****      (UART_Bridge_RXBUFFERSIZE > UART_Bridge_FIFO_LENGTH) )
  36:.\Generated_Source\PSoC5/UART_Bridge.c ****     volatile uint8 UART_Bridge_rxBuffer[UART_Bridge_RXBUFFERSIZE];
  37:.\Generated_Source\PSoC5/UART_Bridge.c ****     volatile uint8 UART_Bridge_rxBufferRead = 0u;
  38:.\Generated_Source\PSoC5/UART_Bridge.c ****     volatile uint8 UART_Bridge_rxBufferWrite = 0u;
  39:.\Generated_Source\PSoC5/UART_Bridge.c ****     volatile uint8 UART_Bridge_rxBufferLoopDetect = 0u;
  40:.\Generated_Source\PSoC5/UART_Bridge.c ****     volatile uint8 UART_Bridge_rxBufferOverflow = 0u;
  41:.\Generated_Source\PSoC5/UART_Bridge.c ****     #if (UART_Bridge_RXHW_ADDRESS_ENABLED)
  42:.\Generated_Source\PSoC5/UART_Bridge.c ****         volatile uint8 UART_Bridge_rxAddressMode = UART_Bridge_RXADDRESSMODE;
  43:.\Generated_Source\PSoC5/UART_Bridge.c ****         volatile uint8 UART_Bridge_rxAddressDetected = 0u;
  44:.\Generated_Source\PSoC5/UART_Bridge.c ****     #endif /* End EnableHWAddress */
  45:.\Generated_Source\PSoC5/UART_Bridge.c **** #endif /* End UART_Bridge_RX_ENABLED */
  46:.\Generated_Source\PSoC5/UART_Bridge.c **** 
  47:.\Generated_Source\PSoC5/UART_Bridge.c **** 
  48:.\Generated_Source\PSoC5/UART_Bridge.c **** /*******************************************************************************
  49:.\Generated_Source\PSoC5/UART_Bridge.c **** * Function Name: UART_Bridge_Start
  50:.\Generated_Source\PSoC5/UART_Bridge.c **** ********************************************************************************
  51:.\Generated_Source\PSoC5/UART_Bridge.c **** *
  52:.\Generated_Source\PSoC5/UART_Bridge.c **** * Summary:
  53:.\Generated_Source\PSoC5/UART_Bridge.c **** *  Initialize and Enable the UART component.
  54:.\Generated_Source\PSoC5/UART_Bridge.c **** *  Enable the clock input to enable operation.
  55:.\Generated_Source\PSoC5/UART_Bridge.c **** *
  56:.\Generated_Source\PSoC5/UART_Bridge.c **** * Parameters:
  57:.\Generated_Source\PSoC5/UART_Bridge.c **** *  None.
  58:.\Generated_Source\PSoC5/UART_Bridge.c **** *
  59:.\Generated_Source\PSoC5/UART_Bridge.c **** * Return:
  60:.\Generated_Source\PSoC5/UART_Bridge.c **** *  None.
  61:.\Generated_Source\PSoC5/UART_Bridge.c **** *
  62:.\Generated_Source\PSoC5/UART_Bridge.c **** * Global variables:
  63:.\Generated_Source\PSoC5/UART_Bridge.c **** *  The UART_Bridge_intiVar variable is used to indicate initial
  64:.\Generated_Source\PSoC5/UART_Bridge.c **** *  configuration of this component. The variable is initialized to zero (0u)
  65:.\Generated_Source\PSoC5/UART_Bridge.c **** *  and set to one (1u) the first time UART_Start() is called. This allows for
  66:.\Generated_Source\PSoC5/UART_Bridge.c **** *  component initialization without re-initialization in all subsequent calls
  67:.\Generated_Source\PSoC5/UART_Bridge.c **** *  to the UART_Bridge_Start() routine.
  68:.\Generated_Source\PSoC5/UART_Bridge.c **** *
  69:.\Generated_Source\PSoC5/UART_Bridge.c **** * Reentrant:
  70:.\Generated_Source\PSoC5/UART_Bridge.c **** *  No.
  71:.\Generated_Source\PSoC5/UART_Bridge.c **** *
  72:.\Generated_Source\PSoC5/UART_Bridge.c **** *******************************************************************************/
  73:.\Generated_Source\PSoC5/UART_Bridge.c **** void UART_Bridge_Start(void) 
  74:.\Generated_Source\PSoC5/UART_Bridge.c **** {
  75:.\Generated_Source\PSoC5/UART_Bridge.c ****     /* If not Initialized then initialize all required hardware and software */
  76:.\Generated_Source\PSoC5/UART_Bridge.c ****     if(UART_Bridge_initVar == 0u)
  77:.\Generated_Source\PSoC5/UART_Bridge.c ****     {
  78:.\Generated_Source\PSoC5/UART_Bridge.c ****         UART_Bridge_Init();
  79:.\Generated_Source\PSoC5/UART_Bridge.c ****         UART_Bridge_initVar = 1u;
ARM GAS  C:\DOCUME~1\ADMINI~1\LOCALS~1\Temp\cc7EA4qV.s 			page 3


  80:.\Generated_Source\PSoC5/UART_Bridge.c ****     }
  81:.\Generated_Source\PSoC5/UART_Bridge.c ****     UART_Bridge_Enable();
  82:.\Generated_Source\PSoC5/UART_Bridge.c **** }
  83:.\Generated_Source\PSoC5/UART_Bridge.c **** 
  84:.\Generated_Source\PSoC5/UART_Bridge.c **** 
  85:.\Generated_Source\PSoC5/UART_Bridge.c **** /*******************************************************************************
  86:.\Generated_Source\PSoC5/UART_Bridge.c **** * Function Name: UART_Bridge_Init
  87:.\Generated_Source\PSoC5/UART_Bridge.c **** ********************************************************************************
  88:.\Generated_Source\PSoC5/UART_Bridge.c **** *
  89:.\Generated_Source\PSoC5/UART_Bridge.c **** * Summary:
  90:.\Generated_Source\PSoC5/UART_Bridge.c **** *  Initialize component's parameters to the parameters set by user in the
  91:.\Generated_Source\PSoC5/UART_Bridge.c **** *  customizer of the component placed onto schematic. Usually called in
  92:.\Generated_Source\PSoC5/UART_Bridge.c **** *  UART_Bridge_Start().
  93:.\Generated_Source\PSoC5/UART_Bridge.c **** *
  94:.\Generated_Source\PSoC5/UART_Bridge.c **** * Parameters:
  95:.\Generated_Source\PSoC5/UART_Bridge.c **** *  None.
  96:.\Generated_Source\PSoC5/UART_Bridge.c **** *
  97:.\Generated_Source\PSoC5/UART_Bridge.c **** * Return:
  98:.\Generated_Source\PSoC5/UART_Bridge.c **** *  None.
  99:.\Generated_Source\PSoC5/UART_Bridge.c **** *
 100:.\Generated_Source\PSoC5/UART_Bridge.c **** *******************************************************************************/
 101:.\Generated_Source\PSoC5/UART_Bridge.c **** void UART_Bridge_Init(void) 
 102:.\Generated_Source\PSoC5/UART_Bridge.c **** {
 103:.\Generated_Source\PSoC5/UART_Bridge.c ****     #if(UART_Bridge_RX_ENABLED || UART_Bridge_HD_ENABLED)
 104:.\Generated_Source\PSoC5/UART_Bridge.c **** 
 105:.\Generated_Source\PSoC5/UART_Bridge.c ****         #if(UART_Bridge_RX_INTERRUPT_ENABLED && (UART_Bridge_RXBUFFERSIZE > UART_Bridge_FIFO_LENGTH
 106:.\Generated_Source\PSoC5/UART_Bridge.c ****             /* Set the RX Interrupt. */
 107:.\Generated_Source\PSoC5/UART_Bridge.c ****             (void)CyIntSetVector(UART_Bridge_RX_VECT_NUM, &UART_Bridge_RXISR);
 108:.\Generated_Source\PSoC5/UART_Bridge.c ****             CyIntSetPriority(UART_Bridge_RX_VECT_NUM, UART_Bridge_RX_PRIOR_NUM);
 109:.\Generated_Source\PSoC5/UART_Bridge.c ****         #endif /* End UART_Bridge_RX_INTERRUPT_ENABLED */
 110:.\Generated_Source\PSoC5/UART_Bridge.c **** 
 111:.\Generated_Source\PSoC5/UART_Bridge.c ****         #if (UART_Bridge_RXHW_ADDRESS_ENABLED)
 112:.\Generated_Source\PSoC5/UART_Bridge.c ****             UART_Bridge_SetRxAddressMode(UART_Bridge_RXAddressMode);
 113:.\Generated_Source\PSoC5/UART_Bridge.c ****             UART_Bridge_SetRxAddress1(UART_Bridge_RXHWADDRESS1);
 114:.\Generated_Source\PSoC5/UART_Bridge.c ****             UART_Bridge_SetRxAddress2(UART_Bridge_RXHWADDRESS2);
 115:.\Generated_Source\PSoC5/UART_Bridge.c ****         #endif /* End UART_Bridge_RXHW_ADDRESS_ENABLED */
 116:.\Generated_Source\PSoC5/UART_Bridge.c **** 
 117:.\Generated_Source\PSoC5/UART_Bridge.c ****         /* Init Count7 period */
 118:.\Generated_Source\PSoC5/UART_Bridge.c ****         UART_Bridge_RXBITCTR_PERIOD_REG = UART_Bridge_RXBITCTR_INIT;
 119:.\Generated_Source\PSoC5/UART_Bridge.c ****         /* Configure the Initial RX interrupt mask */
 120:.\Generated_Source\PSoC5/UART_Bridge.c ****         UART_Bridge_RXSTATUS_MASK_REG  = UART_Bridge_INIT_RX_INTERRUPTS_MASK;
 121:.\Generated_Source\PSoC5/UART_Bridge.c ****     #endif /* End UART_Bridge_RX_ENABLED || UART_Bridge_HD_ENABLED*/
 122:.\Generated_Source\PSoC5/UART_Bridge.c **** 
 123:.\Generated_Source\PSoC5/UART_Bridge.c ****     #if(UART_Bridge_TX_ENABLED)
 124:.\Generated_Source\PSoC5/UART_Bridge.c ****         #if(UART_Bridge_TX_INTERRUPT_ENABLED && (UART_Bridge_TXBUFFERSIZE > UART_Bridge_FIFO_LENGTH
 125:.\Generated_Source\PSoC5/UART_Bridge.c ****             /* Set the TX Interrupt. */
 126:.\Generated_Source\PSoC5/UART_Bridge.c ****             (void)CyIntSetVector(UART_Bridge_TX_VECT_NUM, &UART_Bridge_TXISR);
 127:.\Generated_Source\PSoC5/UART_Bridge.c ****             CyIntSetPriority(UART_Bridge_TX_VECT_NUM, UART_Bridge_TX_PRIOR_NUM);
 128:.\Generated_Source\PSoC5/UART_Bridge.c ****         #endif /* End UART_Bridge_TX_INTERRUPT_ENABLED */
 129:.\Generated_Source\PSoC5/UART_Bridge.c **** 
 130:.\Generated_Source\PSoC5/UART_Bridge.c ****         /* Write Counter Value for TX Bit Clk Generator*/
 131:.\Generated_Source\PSoC5/UART_Bridge.c ****         #if(UART_Bridge_TXCLKGEN_DP)
 132:.\Generated_Source\PSoC5/UART_Bridge.c ****             UART_Bridge_TXBITCLKGEN_CTR_REG = UART_Bridge_BIT_CENTER;
 133:.\Generated_Source\PSoC5/UART_Bridge.c ****             UART_Bridge_TXBITCLKTX_COMPLETE_REG = (UART_Bridge_NUMBER_OF_DATA_BITS +
 134:.\Generated_Source\PSoC5/UART_Bridge.c ****                         UART_Bridge_NUMBER_OF_START_BIT) * UART_Bridge_OVER_SAMPLE_COUNT;
 135:.\Generated_Source\PSoC5/UART_Bridge.c ****         #else
 136:.\Generated_Source\PSoC5/UART_Bridge.c ****             UART_Bridge_TXBITCTR_PERIOD_REG = ((UART_Bridge_NUMBER_OF_DATA_BITS +
ARM GAS  C:\DOCUME~1\ADMINI~1\LOCALS~1\Temp\cc7EA4qV.s 			page 4


 137:.\Generated_Source\PSoC5/UART_Bridge.c ****                         UART_Bridge_NUMBER_OF_START_BIT) * UART_Bridge_OVER_SAMPLE_8) - 1u;
 138:.\Generated_Source\PSoC5/UART_Bridge.c ****         #endif /* End UART_Bridge_TXCLKGEN_DP */
 139:.\Generated_Source\PSoC5/UART_Bridge.c **** 
 140:.\Generated_Source\PSoC5/UART_Bridge.c ****         /* Configure the Initial TX interrupt mask */
 141:.\Generated_Source\PSoC5/UART_Bridge.c ****         #if(UART_Bridge_TX_INTERRUPT_ENABLED && (UART_Bridge_TXBUFFERSIZE > UART_Bridge_FIFO_LENGTH
 142:.\Generated_Source\PSoC5/UART_Bridge.c ****             UART_Bridge_TXSTATUS_MASK_REG = UART_Bridge_TX_STS_FIFO_EMPTY;
 143:.\Generated_Source\PSoC5/UART_Bridge.c ****         #else
 144:.\Generated_Source\PSoC5/UART_Bridge.c ****             UART_Bridge_TXSTATUS_MASK_REG = UART_Bridge_INIT_TX_INTERRUPTS_MASK;
 145:.\Generated_Source\PSoC5/UART_Bridge.c ****         #endif /*End UART_Bridge_TX_INTERRUPT_ENABLED*/
 146:.\Generated_Source\PSoC5/UART_Bridge.c **** 
 147:.\Generated_Source\PSoC5/UART_Bridge.c ****     #endif /* End UART_Bridge_TX_ENABLED */
 148:.\Generated_Source\PSoC5/UART_Bridge.c **** 
 149:.\Generated_Source\PSoC5/UART_Bridge.c ****     #if(UART_Bridge_PARITY_TYPE_SW)  /* Write Parity to Control Register */
 150:.\Generated_Source\PSoC5/UART_Bridge.c ****         UART_Bridge_WriteControlRegister( \
 151:.\Generated_Source\PSoC5/UART_Bridge.c ****             (UART_Bridge_ReadControlRegister() & (uint8)~UART_Bridge_CTRL_PARITY_TYPE_MASK) | \
 152:.\Generated_Source\PSoC5/UART_Bridge.c ****             (uint8)(UART_Bridge_PARITY_TYPE << UART_Bridge_CTRL_PARITY_TYPE0_SHIFT) );
 153:.\Generated_Source\PSoC5/UART_Bridge.c ****     #endif /* End UART_Bridge_PARITY_TYPE_SW */
 154:.\Generated_Source\PSoC5/UART_Bridge.c **** }
 155:.\Generated_Source\PSoC5/UART_Bridge.c **** 
 156:.\Generated_Source\PSoC5/UART_Bridge.c **** 
 157:.\Generated_Source\PSoC5/UART_Bridge.c **** /*******************************************************************************
 158:.\Generated_Source\PSoC5/UART_Bridge.c **** * Function Name: UART_Bridge_Enable
 159:.\Generated_Source\PSoC5/UART_Bridge.c **** ********************************************************************************
 160:.\Generated_Source\PSoC5/UART_Bridge.c **** *
 161:.\Generated_Source\PSoC5/UART_Bridge.c **** * Summary:
 162:.\Generated_Source\PSoC5/UART_Bridge.c **** *  Enables the UART block operation
 163:.\Generated_Source\PSoC5/UART_Bridge.c **** *
 164:.\Generated_Source\PSoC5/UART_Bridge.c **** * Parameters:
 165:.\Generated_Source\PSoC5/UART_Bridge.c **** *  None.
 166:.\Generated_Source\PSoC5/UART_Bridge.c **** *
 167:.\Generated_Source\PSoC5/UART_Bridge.c **** * Return:
 168:.\Generated_Source\PSoC5/UART_Bridge.c **** *  None.
 169:.\Generated_Source\PSoC5/UART_Bridge.c **** *
 170:.\Generated_Source\PSoC5/UART_Bridge.c **** * Global Variables:
 171:.\Generated_Source\PSoC5/UART_Bridge.c **** *  UART_Bridge_rxAddressDetected - set to initial state (0).
 172:.\Generated_Source\PSoC5/UART_Bridge.c **** *
 173:.\Generated_Source\PSoC5/UART_Bridge.c **** *******************************************************************************/
 174:.\Generated_Source\PSoC5/UART_Bridge.c **** void UART_Bridge_Enable(void) 
 175:.\Generated_Source\PSoC5/UART_Bridge.c **** {
 176:.\Generated_Source\PSoC5/UART_Bridge.c ****     uint8 enableInterrupts;
 177:.\Generated_Source\PSoC5/UART_Bridge.c ****     enableInterrupts = CyEnterCriticalSection();
 178:.\Generated_Source\PSoC5/UART_Bridge.c **** 
 179:.\Generated_Source\PSoC5/UART_Bridge.c ****     #if(UART_Bridge_RX_ENABLED || UART_Bridge_HD_ENABLED)
 180:.\Generated_Source\PSoC5/UART_Bridge.c ****         /*RX Counter (Count7) Enable */
 181:.\Generated_Source\PSoC5/UART_Bridge.c ****         UART_Bridge_RXBITCTR_CONTROL_REG |= UART_Bridge_CNTR_ENABLE;
 182:.\Generated_Source\PSoC5/UART_Bridge.c ****         /* Enable the RX Interrupt. */
 183:.\Generated_Source\PSoC5/UART_Bridge.c ****         UART_Bridge_RXSTATUS_ACTL_REG  |= UART_Bridge_INT_ENABLE;
 184:.\Generated_Source\PSoC5/UART_Bridge.c ****         #if(UART_Bridge_RX_INTERRUPT_ENABLED && (UART_Bridge_RXBUFFERSIZE > UART_Bridge_FIFO_LENGTH
 185:.\Generated_Source\PSoC5/UART_Bridge.c ****             CyIntEnable(UART_Bridge_RX_VECT_NUM);
 186:.\Generated_Source\PSoC5/UART_Bridge.c ****             #if (UART_Bridge_RXHW_ADDRESS_ENABLED)
 187:.\Generated_Source\PSoC5/UART_Bridge.c ****                 UART_Bridge_rxAddressDetected = 0u;
 188:.\Generated_Source\PSoC5/UART_Bridge.c ****             #endif /* End UART_Bridge_RXHW_ADDRESS_ENABLED */
 189:.\Generated_Source\PSoC5/UART_Bridge.c ****         #endif /* End UART_Bridge_RX_INTERRUPT_ENABLED */
 190:.\Generated_Source\PSoC5/UART_Bridge.c ****     #endif /* End UART_Bridge_RX_ENABLED || UART_Bridge_HD_ENABLED*/
 191:.\Generated_Source\PSoC5/UART_Bridge.c **** 
 192:.\Generated_Source\PSoC5/UART_Bridge.c ****     #if(UART_Bridge_TX_ENABLED)
 193:.\Generated_Source\PSoC5/UART_Bridge.c ****         /*TX Counter (DP/Count7) Enable */
ARM GAS  C:\DOCUME~1\ADMINI~1\LOCALS~1\Temp\cc7EA4qV.s 			page 5


 194:.\Generated_Source\PSoC5/UART_Bridge.c ****         #if(!UART_Bridge_TXCLKGEN_DP)
 195:.\Generated_Source\PSoC5/UART_Bridge.c ****             UART_Bridge_TXBITCTR_CONTROL_REG |= UART_Bridge_CNTR_ENABLE;
 196:.\Generated_Source\PSoC5/UART_Bridge.c ****         #endif /* End UART_Bridge_TXCLKGEN_DP */
 197:.\Generated_Source\PSoC5/UART_Bridge.c ****         /* Enable the TX Interrupt. */
 198:.\Generated_Source\PSoC5/UART_Bridge.c ****         UART_Bridge_TXSTATUS_ACTL_REG |= UART_Bridge_INT_ENABLE;
 199:.\Generated_Source\PSoC5/UART_Bridge.c ****         #if(UART_Bridge_TX_INTERRUPT_ENABLED && (UART_Bridge_TXBUFFERSIZE > UART_Bridge_FIFO_LENGTH
 200:.\Generated_Source\PSoC5/UART_Bridge.c ****             CyIntEnable(UART_Bridge_TX_VECT_NUM);
 201:.\Generated_Source\PSoC5/UART_Bridge.c ****         #endif /* End UART_Bridge_TX_INTERRUPT_ENABLED*/
 202:.\Generated_Source\PSoC5/UART_Bridge.c ****      #endif /* End UART_Bridge_TX_ENABLED */
 203:.\Generated_Source\PSoC5/UART_Bridge.c **** 
 204:.\Generated_Source\PSoC5/UART_Bridge.c ****     #if(UART_Bridge_INTERNAL_CLOCK_USED)
 205:.\Generated_Source\PSoC5/UART_Bridge.c ****         /* Enable the clock. */
 206:.\Generated_Source\PSoC5/UART_Bridge.c ****         UART_Bridge_IntClock_Start();
 207:.\Generated_Source\PSoC5/UART_Bridge.c ****     #endif /* End UART_Bridge_INTERNAL_CLOCK_USED */
 208:.\Generated_Source\PSoC5/UART_Bridge.c **** 
 209:.\Generated_Source\PSoC5/UART_Bridge.c ****     CyExitCriticalSection(enableInterrupts);
 210:.\Generated_Source\PSoC5/UART_Bridge.c **** }
 211:.\Generated_Source\PSoC5/UART_Bridge.c **** 
 212:.\Generated_Source\PSoC5/UART_Bridge.c **** 
 213:.\Generated_Source\PSoC5/UART_Bridge.c **** /*******************************************************************************
 214:.\Generated_Source\PSoC5/UART_Bridge.c **** * Function Name: UART_Bridge_Stop
 215:.\Generated_Source\PSoC5/UART_Bridge.c **** ********************************************************************************
 216:.\Generated_Source\PSoC5/UART_Bridge.c **** *
 217:.\Generated_Source\PSoC5/UART_Bridge.c **** * Summary:
 218:.\Generated_Source\PSoC5/UART_Bridge.c **** *  Disable the UART component
 219:.\Generated_Source\PSoC5/UART_Bridge.c **** *
 220:.\Generated_Source\PSoC5/UART_Bridge.c **** * Parameters:
 221:.\Generated_Source\PSoC5/UART_Bridge.c **** *  None.
 222:.\Generated_Source\PSoC5/UART_Bridge.c **** *
 223:.\Generated_Source\PSoC5/UART_Bridge.c **** * Return:
 224:.\Generated_Source\PSoC5/UART_Bridge.c **** *  None.
 225:.\Generated_Source\PSoC5/UART_Bridge.c **** *
 226:.\Generated_Source\PSoC5/UART_Bridge.c **** *******************************************************************************/
 227:.\Generated_Source\PSoC5/UART_Bridge.c **** void UART_Bridge_Stop(void) 
 228:.\Generated_Source\PSoC5/UART_Bridge.c **** {
 229:.\Generated_Source\PSoC5/UART_Bridge.c ****     uint8 enableInterrupts;
 230:.\Generated_Source\PSoC5/UART_Bridge.c ****     enableInterrupts = CyEnterCriticalSection();
 231:.\Generated_Source\PSoC5/UART_Bridge.c **** 
 232:.\Generated_Source\PSoC5/UART_Bridge.c ****     /* Write Bit Counter Disable */
 233:.\Generated_Source\PSoC5/UART_Bridge.c ****     #if(UART_Bridge_RX_ENABLED || UART_Bridge_HD_ENABLED)
 234:.\Generated_Source\PSoC5/UART_Bridge.c ****         UART_Bridge_RXBITCTR_CONTROL_REG &= (uint8)~UART_Bridge_CNTR_ENABLE;
 235:.\Generated_Source\PSoC5/UART_Bridge.c ****     #endif /* End UART_Bridge_RX_ENABLED */
 236:.\Generated_Source\PSoC5/UART_Bridge.c **** 
 237:.\Generated_Source\PSoC5/UART_Bridge.c ****     #if(UART_Bridge_TX_ENABLED)
 238:.\Generated_Source\PSoC5/UART_Bridge.c ****         #if(!UART_Bridge_TXCLKGEN_DP)
 239:.\Generated_Source\PSoC5/UART_Bridge.c ****             UART_Bridge_TXBITCTR_CONTROL_REG &= (uint8)~UART_Bridge_CNTR_ENABLE;
 240:.\Generated_Source\PSoC5/UART_Bridge.c ****         #endif /* End UART_Bridge_TXCLKGEN_DP */
 241:.\Generated_Source\PSoC5/UART_Bridge.c ****     #endif /* UART_Bridge_TX_ENABLED */
 242:.\Generated_Source\PSoC5/UART_Bridge.c **** 
 243:.\Generated_Source\PSoC5/UART_Bridge.c ****     #if(UART_Bridge_INTERNAL_CLOCK_USED)
 244:.\Generated_Source\PSoC5/UART_Bridge.c ****         /* Disable the clock. */
 245:.\Generated_Source\PSoC5/UART_Bridge.c ****         UART_Bridge_IntClock_Stop();
 246:.\Generated_Source\PSoC5/UART_Bridge.c ****     #endif /* End UART_Bridge_INTERNAL_CLOCK_USED */
 247:.\Generated_Source\PSoC5/UART_Bridge.c **** 
 248:.\Generated_Source\PSoC5/UART_Bridge.c ****     /* Disable internal interrupt component */
 249:.\Generated_Source\PSoC5/UART_Bridge.c ****     #if(UART_Bridge_RX_ENABLED || UART_Bridge_HD_ENABLED)
 250:.\Generated_Source\PSoC5/UART_Bridge.c ****         UART_Bridge_RXSTATUS_ACTL_REG  &= (uint8)~UART_Bridge_INT_ENABLE;
ARM GAS  C:\DOCUME~1\ADMINI~1\LOCALS~1\Temp\cc7EA4qV.s 			page 6


 251:.\Generated_Source\PSoC5/UART_Bridge.c ****         #if(UART_Bridge_RX_INTERRUPT_ENABLED && (UART_Bridge_RXBUFFERSIZE > UART_Bridge_FIFO_LENGTH
 252:.\Generated_Source\PSoC5/UART_Bridge.c ****             UART_Bridge_DisableRxInt();
 253:.\Generated_Source\PSoC5/UART_Bridge.c ****         #endif /* End UART_Bridge_RX_INTERRUPT_ENABLED */
 254:.\Generated_Source\PSoC5/UART_Bridge.c ****     #endif /* End UART_Bridge_RX_ENABLED */
 255:.\Generated_Source\PSoC5/UART_Bridge.c **** 
 256:.\Generated_Source\PSoC5/UART_Bridge.c ****     #if(UART_Bridge_TX_ENABLED)
 257:.\Generated_Source\PSoC5/UART_Bridge.c ****         UART_Bridge_TXSTATUS_ACTL_REG &= (uint8)~UART_Bridge_INT_ENABLE;
 258:.\Generated_Source\PSoC5/UART_Bridge.c ****         #if(UART_Bridge_TX_INTERRUPT_ENABLED && (UART_Bridge_TXBUFFERSIZE > UART_Bridge_FIFO_LENGTH
 259:.\Generated_Source\PSoC5/UART_Bridge.c ****             UART_Bridge_DisableTxInt();
 260:.\Generated_Source\PSoC5/UART_Bridge.c ****         #endif /* End UART_Bridge_TX_INTERRUPT_ENABLED */
 261:.\Generated_Source\PSoC5/UART_Bridge.c ****     #endif /* End UART_Bridge_TX_ENABLED */
 262:.\Generated_Source\PSoC5/UART_Bridge.c **** 
 263:.\Generated_Source\PSoC5/UART_Bridge.c ****     CyExitCriticalSection(enableInterrupts);
 264:.\Generated_Source\PSoC5/UART_Bridge.c **** }
 265:.\Generated_Source\PSoC5/UART_Bridge.c **** 
 266:.\Generated_Source\PSoC5/UART_Bridge.c **** 
 267:.\Generated_Source\PSoC5/UART_Bridge.c **** /*******************************************************************************
 268:.\Generated_Source\PSoC5/UART_Bridge.c **** * Function Name: UART_Bridge_ReadControlRegister
 269:.\Generated_Source\PSoC5/UART_Bridge.c **** ********************************************************************************
 270:.\Generated_Source\PSoC5/UART_Bridge.c **** *
 271:.\Generated_Source\PSoC5/UART_Bridge.c **** * Summary:
 272:.\Generated_Source\PSoC5/UART_Bridge.c **** *  Read the current state of the control register
 273:.\Generated_Source\PSoC5/UART_Bridge.c **** *
 274:.\Generated_Source\PSoC5/UART_Bridge.c **** * Parameters:
 275:.\Generated_Source\PSoC5/UART_Bridge.c **** *  None.
 276:.\Generated_Source\PSoC5/UART_Bridge.c **** *
 277:.\Generated_Source\PSoC5/UART_Bridge.c **** * Return:
 278:.\Generated_Source\PSoC5/UART_Bridge.c **** *  Current state of the control register.
 279:.\Generated_Source\PSoC5/UART_Bridge.c **** *
 280:.\Generated_Source\PSoC5/UART_Bridge.c **** *******************************************************************************/
 281:.\Generated_Source\PSoC5/UART_Bridge.c **** uint8 UART_Bridge_ReadControlRegister(void) 
 282:.\Generated_Source\PSoC5/UART_Bridge.c **** {
  32              		.loc 1 282 0
  33              		.cfi_startproc
  34              		@ args = 0, pretend = 0, frame = 0
  35              		@ frame_needed = 0, uses_anonymous_args = 0
  36              		@ link register save eliminated.
 283:.\Generated_Source\PSoC5/UART_Bridge.c ****     #if( UART_Bridge_CONTROL_REG_REMOVED )
 284:.\Generated_Source\PSoC5/UART_Bridge.c ****         return(0u);
 285:.\Generated_Source\PSoC5/UART_Bridge.c ****     #else
 286:.\Generated_Source\PSoC5/UART_Bridge.c ****         return(UART_Bridge_CONTROL_REG);
 287:.\Generated_Source\PSoC5/UART_Bridge.c ****     #endif /* End UART_Bridge_CONTROL_REG_REMOVED */
 288:.\Generated_Source\PSoC5/UART_Bridge.c **** }
  37              		.loc 1 288 0
  38 0000 0020     		movs	r0, #0
  39 0002 7047     		bx	lr
  40              		.cfi_endproc
  41              	.LFE4:
  42              		.size	UART_Bridge_ReadControlRegister, .-UART_Bridge_ReadControlRegister
  43              		.section	.text.UART_Bridge_WriteControlRegister,"ax",%progbits
  44              		.align	1
  45              		.global	UART_Bridge_WriteControlRegister
  46              		.thumb
  47              		.thumb_func
  48              		.type	UART_Bridge_WriteControlRegister, %function
  49              	UART_Bridge_WriteControlRegister:
  50              	.LFB5:
ARM GAS  C:\DOCUME~1\ADMINI~1\LOCALS~1\Temp\cc7EA4qV.s 			page 7


 289:.\Generated_Source\PSoC5/UART_Bridge.c **** 
 290:.\Generated_Source\PSoC5/UART_Bridge.c **** 
 291:.\Generated_Source\PSoC5/UART_Bridge.c **** /*******************************************************************************
 292:.\Generated_Source\PSoC5/UART_Bridge.c **** * Function Name: UART_Bridge_WriteControlRegister
 293:.\Generated_Source\PSoC5/UART_Bridge.c **** ********************************************************************************
 294:.\Generated_Source\PSoC5/UART_Bridge.c **** *
 295:.\Generated_Source\PSoC5/UART_Bridge.c **** * Summary:
 296:.\Generated_Source\PSoC5/UART_Bridge.c **** *  Writes an 8-bit value into the control register
 297:.\Generated_Source\PSoC5/UART_Bridge.c **** *
 298:.\Generated_Source\PSoC5/UART_Bridge.c **** * Parameters:
 299:.\Generated_Source\PSoC5/UART_Bridge.c **** *  control:  control register value
 300:.\Generated_Source\PSoC5/UART_Bridge.c **** *
 301:.\Generated_Source\PSoC5/UART_Bridge.c **** * Return:
 302:.\Generated_Source\PSoC5/UART_Bridge.c **** *  None.
 303:.\Generated_Source\PSoC5/UART_Bridge.c **** *
 304:.\Generated_Source\PSoC5/UART_Bridge.c **** *******************************************************************************/
 305:.\Generated_Source\PSoC5/UART_Bridge.c **** void  UART_Bridge_WriteControlRegister(uint8 control) 
 306:.\Generated_Source\PSoC5/UART_Bridge.c **** {
  51              		.loc 1 306 0
  52              		.cfi_startproc
  53              		@ args = 0, pretend = 0, frame = 0
  54              		@ frame_needed = 0, uses_anonymous_args = 0
  55              		@ link register save eliminated.
  56              	.LVL0:
 307:.\Generated_Source\PSoC5/UART_Bridge.c ****     #if( UART_Bridge_CONTROL_REG_REMOVED )
 308:.\Generated_Source\PSoC5/UART_Bridge.c ****         if(control != 0u) { }      /* release compiler warning */
 309:.\Generated_Source\PSoC5/UART_Bridge.c ****     #else
 310:.\Generated_Source\PSoC5/UART_Bridge.c ****        UART_Bridge_CONTROL_REG = control;
 311:.\Generated_Source\PSoC5/UART_Bridge.c ****     #endif /* End UART_Bridge_CONTROL_REG_REMOVED */
 312:.\Generated_Source\PSoC5/UART_Bridge.c **** }
  57              		.loc 1 312 0
  58 0000 7047     		bx	lr
  59              		.cfi_endproc
  60              	.LFE5:
  61              		.size	UART_Bridge_WriteControlRegister, .-UART_Bridge_WriteControlRegister
  62              		.section	.text.UART_Bridge_EnableRxInt,"ax",%progbits
  63              		.align	1
  64              		.global	UART_Bridge_EnableRxInt
  65              		.thumb
  66              		.thumb_func
  67              		.type	UART_Bridge_EnableRxInt, %function
  68              	UART_Bridge_EnableRxInt:
  69              	.LFB6:
 313:.\Generated_Source\PSoC5/UART_Bridge.c **** 
 314:.\Generated_Source\PSoC5/UART_Bridge.c **** 
 315:.\Generated_Source\PSoC5/UART_Bridge.c **** #if(UART_Bridge_RX_ENABLED || UART_Bridge_HD_ENABLED)
 316:.\Generated_Source\PSoC5/UART_Bridge.c **** 
 317:.\Generated_Source\PSoC5/UART_Bridge.c ****     #if(UART_Bridge_RX_INTERRUPT_ENABLED)
 318:.\Generated_Source\PSoC5/UART_Bridge.c **** 
 319:.\Generated_Source\PSoC5/UART_Bridge.c ****         /*******************************************************************************
 320:.\Generated_Source\PSoC5/UART_Bridge.c ****         * Function Name: UART_Bridge_EnableRxInt
 321:.\Generated_Source\PSoC5/UART_Bridge.c ****         ********************************************************************************
 322:.\Generated_Source\PSoC5/UART_Bridge.c ****         *
 323:.\Generated_Source\PSoC5/UART_Bridge.c ****         * Summary:
 324:.\Generated_Source\PSoC5/UART_Bridge.c ****         *  Enable RX interrupt generation
 325:.\Generated_Source\PSoC5/UART_Bridge.c ****         *
 326:.\Generated_Source\PSoC5/UART_Bridge.c ****         * Parameters:
ARM GAS  C:\DOCUME~1\ADMINI~1\LOCALS~1\Temp\cc7EA4qV.s 			page 8


 327:.\Generated_Source\PSoC5/UART_Bridge.c ****         *  None.
 328:.\Generated_Source\PSoC5/UART_Bridge.c ****         *
 329:.\Generated_Source\PSoC5/UART_Bridge.c ****         * Return:
 330:.\Generated_Source\PSoC5/UART_Bridge.c ****         *  None.
 331:.\Generated_Source\PSoC5/UART_Bridge.c ****         *
 332:.\Generated_Source\PSoC5/UART_Bridge.c ****         * Theory:
 333:.\Generated_Source\PSoC5/UART_Bridge.c ****         *  Enable the interrupt output -or- the interrupt component itself
 334:.\Generated_Source\PSoC5/UART_Bridge.c ****         *
 335:.\Generated_Source\PSoC5/UART_Bridge.c ****         *******************************************************************************/
 336:.\Generated_Source\PSoC5/UART_Bridge.c ****         void UART_Bridge_EnableRxInt(void) 
 337:.\Generated_Source\PSoC5/UART_Bridge.c ****         {
  70              		.loc 1 337 0
  71              		.cfi_startproc
  72              		@ args = 0, pretend = 0, frame = 0
  73              		@ frame_needed = 0, uses_anonymous_args = 0
  74              		@ link register save eliminated.
 338:.\Generated_Source\PSoC5/UART_Bridge.c ****             CyIntEnable(UART_Bridge_RX_VECT_NUM);
  75              		.loc 1 338 0
  76 0000 014B     		ldr	r3, .L7
  77 0002 0222     		movs	r2, #2
  78 0004 1A60     		str	r2, [r3, #0]
 339:.\Generated_Source\PSoC5/UART_Bridge.c ****         }
  79              		.loc 1 339 0
  80 0006 7047     		bx	lr
  81              	.L8:
  82              		.align	2
  83              	.L7:
  84 0008 00E100E0 		.word	-536813312
  85              		.cfi_endproc
  86              	.LFE6:
  87              		.size	UART_Bridge_EnableRxInt, .-UART_Bridge_EnableRxInt
  88              		.section	.text.UART_Bridge_DisableRxInt,"ax",%progbits
  89              		.align	1
  90              		.global	UART_Bridge_DisableRxInt
  91              		.thumb
  92              		.thumb_func
  93              		.type	UART_Bridge_DisableRxInt, %function
  94              	UART_Bridge_DisableRxInt:
  95              	.LFB7:
 340:.\Generated_Source\PSoC5/UART_Bridge.c **** 
 341:.\Generated_Source\PSoC5/UART_Bridge.c **** 
 342:.\Generated_Source\PSoC5/UART_Bridge.c ****         /*******************************************************************************
 343:.\Generated_Source\PSoC5/UART_Bridge.c ****         * Function Name: UART_Bridge_DisableRxInt
 344:.\Generated_Source\PSoC5/UART_Bridge.c ****         ********************************************************************************
 345:.\Generated_Source\PSoC5/UART_Bridge.c ****         *
 346:.\Generated_Source\PSoC5/UART_Bridge.c ****         * Summary:
 347:.\Generated_Source\PSoC5/UART_Bridge.c ****         *  Disable RX interrupt generation
 348:.\Generated_Source\PSoC5/UART_Bridge.c ****         *
 349:.\Generated_Source\PSoC5/UART_Bridge.c ****         * Parameters:
 350:.\Generated_Source\PSoC5/UART_Bridge.c ****         *  None.
 351:.\Generated_Source\PSoC5/UART_Bridge.c ****         *
 352:.\Generated_Source\PSoC5/UART_Bridge.c ****         * Return:
 353:.\Generated_Source\PSoC5/UART_Bridge.c ****         *  None.
 354:.\Generated_Source\PSoC5/UART_Bridge.c ****         *
 355:.\Generated_Source\PSoC5/UART_Bridge.c ****         * Theory:
 356:.\Generated_Source\PSoC5/UART_Bridge.c ****         *  Disable the interrupt output -or- the interrupt component itself
 357:.\Generated_Source\PSoC5/UART_Bridge.c ****         *
ARM GAS  C:\DOCUME~1\ADMINI~1\LOCALS~1\Temp\cc7EA4qV.s 			page 9


 358:.\Generated_Source\PSoC5/UART_Bridge.c ****         *******************************************************************************/
 359:.\Generated_Source\PSoC5/UART_Bridge.c ****         void UART_Bridge_DisableRxInt(void) 
 360:.\Generated_Source\PSoC5/UART_Bridge.c ****         {
  96              		.loc 1 360 0
  97              		.cfi_startproc
  98              		@ args = 0, pretend = 0, frame = 0
  99              		@ frame_needed = 0, uses_anonymous_args = 0
 100              		@ link register save eliminated.
 361:.\Generated_Source\PSoC5/UART_Bridge.c ****             CyIntDisable(UART_Bridge_RX_VECT_NUM);
 101              		.loc 1 361 0
 102 0000 014B     		ldr	r3, .L11
 103 0002 0222     		movs	r2, #2
 104 0004 1A60     		str	r2, [r3, #0]
 362:.\Generated_Source\PSoC5/UART_Bridge.c ****         }
 105              		.loc 1 362 0
 106 0006 7047     		bx	lr
 107              	.L12:
 108              		.align	2
 109              	.L11:
 110 0008 80E100E0 		.word	-536813184
 111              		.cfi_endproc
 112              	.LFE7:
 113              		.size	UART_Bridge_DisableRxInt, .-UART_Bridge_DisableRxInt
 114              		.section	.text.UART_Bridge_SetRxInterruptMode,"ax",%progbits
 115              		.align	1
 116              		.global	UART_Bridge_SetRxInterruptMode
 117              		.thumb
 118              		.thumb_func
 119              		.type	UART_Bridge_SetRxInterruptMode, %function
 120              	UART_Bridge_SetRxInterruptMode:
 121              	.LFB8:
 363:.\Generated_Source\PSoC5/UART_Bridge.c **** 
 364:.\Generated_Source\PSoC5/UART_Bridge.c ****     #endif /* UART_Bridge_RX_INTERRUPT_ENABLED */
 365:.\Generated_Source\PSoC5/UART_Bridge.c **** 
 366:.\Generated_Source\PSoC5/UART_Bridge.c **** 
 367:.\Generated_Source\PSoC5/UART_Bridge.c ****     /*******************************************************************************
 368:.\Generated_Source\PSoC5/UART_Bridge.c ****     * Function Name: UART_Bridge_SetRxInterruptMode
 369:.\Generated_Source\PSoC5/UART_Bridge.c ****     ********************************************************************************
 370:.\Generated_Source\PSoC5/UART_Bridge.c ****     *
 371:.\Generated_Source\PSoC5/UART_Bridge.c ****     * Summary:
 372:.\Generated_Source\PSoC5/UART_Bridge.c ****     *  Configure which status bits trigger an interrupt event
 373:.\Generated_Source\PSoC5/UART_Bridge.c ****     *
 374:.\Generated_Source\PSoC5/UART_Bridge.c ****     * Parameters:
 375:.\Generated_Source\PSoC5/UART_Bridge.c ****     *  IntSrc:  An or'd combination of the desired status bit masks (defined in
 376:.\Generated_Source\PSoC5/UART_Bridge.c ****     *           the header file)
 377:.\Generated_Source\PSoC5/UART_Bridge.c ****     *
 378:.\Generated_Source\PSoC5/UART_Bridge.c ****     * Return:
 379:.\Generated_Source\PSoC5/UART_Bridge.c ****     *  None.
 380:.\Generated_Source\PSoC5/UART_Bridge.c ****     *
 381:.\Generated_Source\PSoC5/UART_Bridge.c ****     * Theory:
 382:.\Generated_Source\PSoC5/UART_Bridge.c ****     *  Enables the output of specific status bits to the interrupt controller
 383:.\Generated_Source\PSoC5/UART_Bridge.c ****     *
 384:.\Generated_Source\PSoC5/UART_Bridge.c ****     *******************************************************************************/
 385:.\Generated_Source\PSoC5/UART_Bridge.c ****     void UART_Bridge_SetRxInterruptMode(uint8 intSrc) 
 386:.\Generated_Source\PSoC5/UART_Bridge.c ****     {
 122              		.loc 1 386 0
 123              		.cfi_startproc
ARM GAS  C:\DOCUME~1\ADMINI~1\LOCALS~1\Temp\cc7EA4qV.s 			page 10


 124              		@ args = 0, pretend = 0, frame = 0
 125              		@ frame_needed = 0, uses_anonymous_args = 0
 126              		@ link register save eliminated.
 127              	.LVL1:
 387:.\Generated_Source\PSoC5/UART_Bridge.c ****         UART_Bridge_RXSTATUS_MASK_REG  = intSrc;
 128              		.loc 1 387 0
 129 0000 014B     		ldr	r3, .L15
 130 0002 1870     		strb	r0, [r3, #0]
 388:.\Generated_Source\PSoC5/UART_Bridge.c ****     }
 131              		.loc 1 388 0
 132 0004 7047     		bx	lr
 133              	.L16:
 134 0006 00BF     		.align	2
 135              	.L15:
 136 0008 84640040 		.word	1073767556
 137              		.cfi_endproc
 138              	.LFE8:
 139              		.size	UART_Bridge_SetRxInterruptMode, .-UART_Bridge_SetRxInterruptMode
 140              		.section	.text.UART_Bridge_ReadRxData,"ax",%progbits
 141              		.align	1
 142              		.global	UART_Bridge_ReadRxData
 143              		.thumb
 144              		.thumb_func
 145              		.type	UART_Bridge_ReadRxData, %function
 146              	UART_Bridge_ReadRxData:
 147              	.LFB9:
 389:.\Generated_Source\PSoC5/UART_Bridge.c **** 
 390:.\Generated_Source\PSoC5/UART_Bridge.c **** 
 391:.\Generated_Source\PSoC5/UART_Bridge.c ****     /*******************************************************************************
 392:.\Generated_Source\PSoC5/UART_Bridge.c ****     * Function Name: UART_Bridge_ReadRxData
 393:.\Generated_Source\PSoC5/UART_Bridge.c ****     ********************************************************************************
 394:.\Generated_Source\PSoC5/UART_Bridge.c ****     *
 395:.\Generated_Source\PSoC5/UART_Bridge.c ****     * Summary:
 396:.\Generated_Source\PSoC5/UART_Bridge.c ****     *  Returns data in RX Data register without checking status register to
 397:.\Generated_Source\PSoC5/UART_Bridge.c ****     *  determine if data is valid
 398:.\Generated_Source\PSoC5/UART_Bridge.c ****     *
 399:.\Generated_Source\PSoC5/UART_Bridge.c ****     * Parameters:
 400:.\Generated_Source\PSoC5/UART_Bridge.c ****     *  None.
 401:.\Generated_Source\PSoC5/UART_Bridge.c ****     *
 402:.\Generated_Source\PSoC5/UART_Bridge.c ****     * Return:
 403:.\Generated_Source\PSoC5/UART_Bridge.c ****     *  Received data from RX register
 404:.\Generated_Source\PSoC5/UART_Bridge.c ****     *
 405:.\Generated_Source\PSoC5/UART_Bridge.c ****     * Global Variables:
 406:.\Generated_Source\PSoC5/UART_Bridge.c ****     *  UART_Bridge_rxBuffer - RAM buffer pointer for save received data.
 407:.\Generated_Source\PSoC5/UART_Bridge.c ****     *  UART_Bridge_rxBufferWrite - cyclic index for write to rxBuffer,
 408:.\Generated_Source\PSoC5/UART_Bridge.c ****     *     checked to identify new data.
 409:.\Generated_Source\PSoC5/UART_Bridge.c ****     *  UART_Bridge_rxBufferRead - cyclic index for read from rxBuffer,
 410:.\Generated_Source\PSoC5/UART_Bridge.c ****     *     incremented after each byte has been read from buffer.
 411:.\Generated_Source\PSoC5/UART_Bridge.c ****     *  UART_Bridge_rxBufferLoopDetect - creared if loop condition was detected
 412:.\Generated_Source\PSoC5/UART_Bridge.c ****     *     in RX ISR.
 413:.\Generated_Source\PSoC5/UART_Bridge.c ****     *
 414:.\Generated_Source\PSoC5/UART_Bridge.c ****     * Reentrant:
 415:.\Generated_Source\PSoC5/UART_Bridge.c ****     *  No.
 416:.\Generated_Source\PSoC5/UART_Bridge.c ****     *
 417:.\Generated_Source\PSoC5/UART_Bridge.c ****     *******************************************************************************/
 418:.\Generated_Source\PSoC5/UART_Bridge.c ****     uint8 UART_Bridge_ReadRxData(void) 
 419:.\Generated_Source\PSoC5/UART_Bridge.c ****     {
ARM GAS  C:\DOCUME~1\ADMINI~1\LOCALS~1\Temp\cc7EA4qV.s 			page 11


 148              		.loc 1 419 0
 149              		.cfi_startproc
 150              		@ args = 0, pretend = 0, frame = 0
 151              		@ frame_needed = 0, uses_anonymous_args = 0
 152 0000 10B5     		push	{r4, lr}
 153              	.LCFI0:
 154              		.cfi_def_cfa_offset 8
 420:.\Generated_Source\PSoC5/UART_Bridge.c ****         uint8 rxData;
 421:.\Generated_Source\PSoC5/UART_Bridge.c **** 
 422:.\Generated_Source\PSoC5/UART_Bridge.c ****         #if(UART_Bridge_RXBUFFERSIZE > UART_Bridge_FIFO_LENGTH)
 423:.\Generated_Source\PSoC5/UART_Bridge.c ****             uint8 loc_rxBufferRead;
 424:.\Generated_Source\PSoC5/UART_Bridge.c ****             uint8 loc_rxBufferWrite;
 425:.\Generated_Source\PSoC5/UART_Bridge.c ****             /* Protect variables that could change on interrupt. */
 426:.\Generated_Source\PSoC5/UART_Bridge.c ****             /* Disable Rx interrupt. */
 427:.\Generated_Source\PSoC5/UART_Bridge.c ****             #if(UART_Bridge_RX_INTERRUPT_ENABLED)
 428:.\Generated_Source\PSoC5/UART_Bridge.c ****                 UART_Bridge_DisableRxInt();
 155              		.loc 1 428 0
 156              		.cfi_offset 14, -4
 157              		.cfi_offset 4, -8
 158 0002 FFF7FEFF 		bl	UART_Bridge_DisableRxInt
 429:.\Generated_Source\PSoC5/UART_Bridge.c ****             #endif /* UART_Bridge_RX_INTERRUPT_ENABLED */
 430:.\Generated_Source\PSoC5/UART_Bridge.c ****             loc_rxBufferRead = UART_Bridge_rxBufferRead;
 159              		.loc 1 430 0
 160 0006 0D4A     		ldr	r2, .L24
 161 0008 1378     		ldrb	r3, [r2, #0]	@ zero_extendqisi2
 431:.\Generated_Source\PSoC5/UART_Bridge.c ****             loc_rxBufferWrite = UART_Bridge_rxBufferWrite;
 162              		.loc 1 431 0
 163 000a 5178     		ldrb	r1, [r2, #1]	@ zero_extendqisi2
 432:.\Generated_Source\PSoC5/UART_Bridge.c **** 
 433:.\Generated_Source\PSoC5/UART_Bridge.c ****             if( (UART_Bridge_rxBufferLoopDetect != 0u) || (loc_rxBufferRead != loc_rxBufferWrite) )
 164              		.loc 1 433 0
 165 000c 9278     		ldrb	r2, [r2, #2]	@ zero_extendqisi2
 166 000e 0AB9     		cbnz	r2, .L18
 167 0010 8B42     		cmp	r3, r1
 168              	.LVL2:
 169 0012 0DD0     		beq	.L19
 170              	.L18:
 434:.\Generated_Source\PSoC5/UART_Bridge.c ****             {
 435:.\Generated_Source\PSoC5/UART_Bridge.c ****                 rxData = UART_Bridge_rxBuffer[loc_rxBufferRead];
 171              		.loc 1 435 0
 172 0014 0A4A     		ldr	r2, .L24+4
 173 0016 D45C     		ldrb	r4, [r2, r3]	@ zero_extendqisi2
 436:.\Generated_Source\PSoC5/UART_Bridge.c ****                 loc_rxBufferRead++;
 174              		.loc 1 436 0
 175 0018 0133     		adds	r3, r3, #1
 176              	.LVL3:
 177 001a DBB2     		uxtb	r3, r3
 178              	.LVL4:
 437:.\Generated_Source\PSoC5/UART_Bridge.c **** 
 438:.\Generated_Source\PSoC5/UART_Bridge.c ****                 if(loc_rxBufferRead >= UART_Bridge_RXBUFFERSIZE)
 179              		.loc 1 438 0
 180 001c 5AB2     		sxtb	r2, r3
 181              	.LVL5:
 182 001e 23EAE273 		bic	r3, r3, r2, asr #31
 183              	.LVL6:
 439:.\Generated_Source\PSoC5/UART_Bridge.c ****                 {
 440:.\Generated_Source\PSoC5/UART_Bridge.c ****                     loc_rxBufferRead = 0u;
ARM GAS  C:\DOCUME~1\ADMINI~1\LOCALS~1\Temp\cc7EA4qV.s 			page 12


 441:.\Generated_Source\PSoC5/UART_Bridge.c ****                 }
 442:.\Generated_Source\PSoC5/UART_Bridge.c ****                 /* Update the real pointer */
 443:.\Generated_Source\PSoC5/UART_Bridge.c ****                 UART_Bridge_rxBufferRead = loc_rxBufferRead;
 184              		.loc 1 443 0
 185 0022 064A     		ldr	r2, .L24
 186 0024 1370     		strb	r3, [r2, #0]
 444:.\Generated_Source\PSoC5/UART_Bridge.c **** 
 445:.\Generated_Source\PSoC5/UART_Bridge.c ****                 if(UART_Bridge_rxBufferLoopDetect != 0u )
 187              		.loc 1 445 0
 188 0026 9378     		ldrb	r3, [r2, #2]	@ zero_extendqisi2
 189              	.LVL7:
 190 0028 23B1     		cbz	r3, .L21
 446:.\Generated_Source\PSoC5/UART_Bridge.c ****                 {
 447:.\Generated_Source\PSoC5/UART_Bridge.c ****                     UART_Bridge_rxBufferLoopDetect = 0u;
 191              		.loc 1 447 0
 192 002a 0023     		movs	r3, #0
 193 002c 9370     		strb	r3, [r2, #2]
 194 002e 01E0     		b	.L21
 195              	.LVL8:
 196              	.L19:
 448:.\Generated_Source\PSoC5/UART_Bridge.c ****                     #if( (UART_Bridge_RX_INTERRUPT_ENABLED) && (UART_Bridge_FLOW_CONTROL != 0u) && 
 449:.\Generated_Source\PSoC5/UART_Bridge.c ****                          (UART_Bridge_RXBUFFERSIZE > UART_Bridge_FIFO_LENGTH) )
 450:.\Generated_Source\PSoC5/UART_Bridge.c ****                         /* When Hardware Flow Control selected - return RX mask */
 451:.\Generated_Source\PSoC5/UART_Bridge.c ****                         #if( UART_Bridge_HD_ENABLED )
 452:.\Generated_Source\PSoC5/UART_Bridge.c ****                             if((UART_Bridge_CONTROL_REG & UART_Bridge_CTRL_HD_SEND) == 0u)
 453:.\Generated_Source\PSoC5/UART_Bridge.c ****                             {   /* In Half duplex mode return RX mask only in RX
 454:.\Generated_Source\PSoC5/UART_Bridge.c ****                                 *  configuration set, otherwise
 455:.\Generated_Source\PSoC5/UART_Bridge.c ****                                 *  mask will be returned in LoadRxConfig() API.
 456:.\Generated_Source\PSoC5/UART_Bridge.c ****                                 */
 457:.\Generated_Source\PSoC5/UART_Bridge.c ****                                 UART_Bridge_RXSTATUS_MASK_REG  |= UART_Bridge_RX_STS_FIFO_NOTEMPTY;
 458:.\Generated_Source\PSoC5/UART_Bridge.c ****                             }
 459:.\Generated_Source\PSoC5/UART_Bridge.c ****                         #else
 460:.\Generated_Source\PSoC5/UART_Bridge.c ****                             UART_Bridge_RXSTATUS_MASK_REG  |= UART_Bridge_RX_STS_FIFO_NOTEMPTY;
 461:.\Generated_Source\PSoC5/UART_Bridge.c ****                         #endif /* end UART_Bridge_HD_ENABLED */
 462:.\Generated_Source\PSoC5/UART_Bridge.c ****                     #endif /* UART_Bridge_RX_INTERRUPT_ENABLED and Hardware flow control*/
 463:.\Generated_Source\PSoC5/UART_Bridge.c ****                 }
 464:.\Generated_Source\PSoC5/UART_Bridge.c ****             }
 465:.\Generated_Source\PSoC5/UART_Bridge.c ****             else
 466:.\Generated_Source\PSoC5/UART_Bridge.c ****             {   /* Needs to check status for RX_STS_FIFO_NOTEMPTY bit*/
 467:.\Generated_Source\PSoC5/UART_Bridge.c ****                 rxData = UART_Bridge_RXDATA_REG;
 197              		.loc 1 467 0
 198 0030 044B     		ldr	r3, .L24+8
 199              	.LVL9:
 200 0032 1C78     		ldrb	r4, [r3, #0]	@ zero_extendqisi2
 201              	.L21:
 468:.\Generated_Source\PSoC5/UART_Bridge.c ****             }
 469:.\Generated_Source\PSoC5/UART_Bridge.c **** 
 470:.\Generated_Source\PSoC5/UART_Bridge.c ****             /* Enable Rx interrupt. */
 471:.\Generated_Source\PSoC5/UART_Bridge.c ****             #if(UART_Bridge_RX_INTERRUPT_ENABLED)
 472:.\Generated_Source\PSoC5/UART_Bridge.c ****                 UART_Bridge_EnableRxInt();
 202              		.loc 1 472 0
 203 0034 FFF7FEFF 		bl	UART_Bridge_EnableRxInt
 204              	.LVL10:
 473:.\Generated_Source\PSoC5/UART_Bridge.c ****             #endif /* End UART_Bridge_RX_INTERRUPT_ENABLED */
 474:.\Generated_Source\PSoC5/UART_Bridge.c **** 
 475:.\Generated_Source\PSoC5/UART_Bridge.c ****         #else /* UART_Bridge_RXBUFFERSIZE > UART_Bridge_FIFO_LENGTH */
 476:.\Generated_Source\PSoC5/UART_Bridge.c **** 
ARM GAS  C:\DOCUME~1\ADMINI~1\LOCALS~1\Temp\cc7EA4qV.s 			page 13


 477:.\Generated_Source\PSoC5/UART_Bridge.c ****             /* Needs to check status for RX_STS_FIFO_NOTEMPTY bit*/
 478:.\Generated_Source\PSoC5/UART_Bridge.c ****             rxData = UART_Bridge_RXDATA_REG;
 479:.\Generated_Source\PSoC5/UART_Bridge.c **** 
 480:.\Generated_Source\PSoC5/UART_Bridge.c ****         #endif /* UART_Bridge_RXBUFFERSIZE > UART_Bridge_FIFO_LENGTH */
 481:.\Generated_Source\PSoC5/UART_Bridge.c **** 
 482:.\Generated_Source\PSoC5/UART_Bridge.c ****         return(rxData);
 483:.\Generated_Source\PSoC5/UART_Bridge.c ****     }
 205              		.loc 1 483 0
 206 0038 2046     		mov	r0, r4
 207              	.LVL11:
 208 003a 10BD     		pop	{r4, pc}
 209              	.L25:
 210              		.align	2
 211              	.L24:
 212 003c 00000000 		.word	.LANCHOR0
 213 0040 00000000 		.word	UART_Bridge_rxBuffer
 214 0044 40640040 		.word	1073767488
 215              		.cfi_endproc
 216              	.LFE9:
 217              		.size	UART_Bridge_ReadRxData, .-UART_Bridge_ReadRxData
 218              		.section	.text.UART_Bridge_ReadRxStatus,"ax",%progbits
 219              		.align	1
 220              		.global	UART_Bridge_ReadRxStatus
 221              		.thumb
 222              		.thumb_func
 223              		.type	UART_Bridge_ReadRxStatus, %function
 224              	UART_Bridge_ReadRxStatus:
 225              	.LFB10:
 484:.\Generated_Source\PSoC5/UART_Bridge.c **** 
 485:.\Generated_Source\PSoC5/UART_Bridge.c **** 
 486:.\Generated_Source\PSoC5/UART_Bridge.c ****     /*******************************************************************************
 487:.\Generated_Source\PSoC5/UART_Bridge.c ****     * Function Name: UART_Bridge_ReadRxStatus
 488:.\Generated_Source\PSoC5/UART_Bridge.c ****     ********************************************************************************
 489:.\Generated_Source\PSoC5/UART_Bridge.c ****     *
 490:.\Generated_Source\PSoC5/UART_Bridge.c ****     * Summary:
 491:.\Generated_Source\PSoC5/UART_Bridge.c ****     *  Read the current state of the status register
 492:.\Generated_Source\PSoC5/UART_Bridge.c ****     *  And detect software buffer overflow.
 493:.\Generated_Source\PSoC5/UART_Bridge.c ****     *
 494:.\Generated_Source\PSoC5/UART_Bridge.c ****     * Parameters:
 495:.\Generated_Source\PSoC5/UART_Bridge.c ****     *  None.
 496:.\Generated_Source\PSoC5/UART_Bridge.c ****     *
 497:.\Generated_Source\PSoC5/UART_Bridge.c ****     * Return:
 498:.\Generated_Source\PSoC5/UART_Bridge.c ****     *  Current state of the status register.
 499:.\Generated_Source\PSoC5/UART_Bridge.c ****     *
 500:.\Generated_Source\PSoC5/UART_Bridge.c ****     * Global Variables:
 501:.\Generated_Source\PSoC5/UART_Bridge.c ****     *  UART_Bridge_rxBufferOverflow - used to indicate overload condition.
 502:.\Generated_Source\PSoC5/UART_Bridge.c ****     *   It set to one in RX interrupt when there isn?t free space in
 503:.\Generated_Source\PSoC5/UART_Bridge.c ****     *   UART_Bridge_rxBufferRead to write new data. This condition returned
 504:.\Generated_Source\PSoC5/UART_Bridge.c ****     *   and cleared to zero by this API as an
 505:.\Generated_Source\PSoC5/UART_Bridge.c ****     *   UART_Bridge_RX_STS_SOFT_BUFF_OVER bit along with RX Status register
 506:.\Generated_Source\PSoC5/UART_Bridge.c ****     *   bits.
 507:.\Generated_Source\PSoC5/UART_Bridge.c ****     *
 508:.\Generated_Source\PSoC5/UART_Bridge.c ****     *******************************************************************************/
 509:.\Generated_Source\PSoC5/UART_Bridge.c ****     uint8 UART_Bridge_ReadRxStatus(void) 
 510:.\Generated_Source\PSoC5/UART_Bridge.c ****     {
 226              		.loc 1 510 0
 227              		.cfi_startproc
ARM GAS  C:\DOCUME~1\ADMINI~1\LOCALS~1\Temp\cc7EA4qV.s 			page 14


 228              		@ args = 0, pretend = 0, frame = 0
 229              		@ frame_needed = 0, uses_anonymous_args = 0
 230              		@ link register save eliminated.
 511:.\Generated_Source\PSoC5/UART_Bridge.c ****         uint8 status;
 512:.\Generated_Source\PSoC5/UART_Bridge.c **** 
 513:.\Generated_Source\PSoC5/UART_Bridge.c ****         status = UART_Bridge_RXSTATUS_REG & UART_Bridge_RX_HW_MASK;
 231              		.loc 1 513 0
 232 0000 054B     		ldr	r3, .L29
 233 0002 1878     		ldrb	r0, [r3, #0]	@ zero_extendqisi2
 514:.\Generated_Source\PSoC5/UART_Bridge.c **** 
 515:.\Generated_Source\PSoC5/UART_Bridge.c ****         #if(UART_Bridge_RXBUFFERSIZE > UART_Bridge_FIFO_LENGTH)
 516:.\Generated_Source\PSoC5/UART_Bridge.c ****             if( UART_Bridge_rxBufferOverflow != 0u )
 234              		.loc 1 516 0
 235 0004 054B     		ldr	r3, .L29+4
 236              		.loc 1 513 0
 237 0006 00F07F00 		and	r0, r0, #127
 238              	.LVL12:
 239              		.loc 1 516 0
 240 000a DA78     		ldrb	r2, [r3, #3]	@ zero_extendqisi2
 241 000c 1AB1     		cbz	r2, .L27
 517:.\Generated_Source\PSoC5/UART_Bridge.c ****             {
 518:.\Generated_Source\PSoC5/UART_Bridge.c ****                 status |= UART_Bridge_RX_STS_SOFT_BUFF_OVER;
 519:.\Generated_Source\PSoC5/UART_Bridge.c ****                 UART_Bridge_rxBufferOverflow = 0u;
 242              		.loc 1 519 0
 243 000e 0022     		movs	r2, #0
 244              		.loc 1 518 0
 245 0010 40F08000 		orr	r0, r0, #128
 246              	.LVL13:
 247              		.loc 1 519 0
 248 0014 DA70     		strb	r2, [r3, #3]
 249              	.L27:
 250              	.LVL14:
 520:.\Generated_Source\PSoC5/UART_Bridge.c ****             }
 521:.\Generated_Source\PSoC5/UART_Bridge.c ****         #endif /* UART_Bridge_RXBUFFERSIZE */
 522:.\Generated_Source\PSoC5/UART_Bridge.c **** 
 523:.\Generated_Source\PSoC5/UART_Bridge.c ****         return(status);
 524:.\Generated_Source\PSoC5/UART_Bridge.c ****     }
 251              		.loc 1 524 0
 252 0016 7047     		bx	lr
 253              	.L30:
 254              		.align	2
 255              	.L29:
 256 0018 64640040 		.word	1073767524
 257 001c 00000000 		.word	.LANCHOR0
 258              		.cfi_endproc
 259              	.LFE10:
 260              		.size	UART_Bridge_ReadRxStatus, .-UART_Bridge_ReadRxStatus
 261              		.section	.text.UART_Bridge_GetChar,"ax",%progbits
 262              		.align	1
 263              		.global	UART_Bridge_GetChar
 264              		.thumb
 265              		.thumb_func
 266              		.type	UART_Bridge_GetChar, %function
 267              	UART_Bridge_GetChar:
 268              	.LFB11:
 525:.\Generated_Source\PSoC5/UART_Bridge.c **** 
 526:.\Generated_Source\PSoC5/UART_Bridge.c **** 
ARM GAS  C:\DOCUME~1\ADMINI~1\LOCALS~1\Temp\cc7EA4qV.s 			page 15


 527:.\Generated_Source\PSoC5/UART_Bridge.c ****     /*******************************************************************************
 528:.\Generated_Source\PSoC5/UART_Bridge.c ****     * Function Name: UART_Bridge_GetChar
 529:.\Generated_Source\PSoC5/UART_Bridge.c ****     ********************************************************************************
 530:.\Generated_Source\PSoC5/UART_Bridge.c ****     *
 531:.\Generated_Source\PSoC5/UART_Bridge.c ****     * Summary:
 532:.\Generated_Source\PSoC5/UART_Bridge.c ****     *  Reads UART RX buffer immediately, if data is not available or an error
 533:.\Generated_Source\PSoC5/UART_Bridge.c ****     *  condition exists, zero is returned; otherwise, character is read and
 534:.\Generated_Source\PSoC5/UART_Bridge.c ****     *  returned.
 535:.\Generated_Source\PSoC5/UART_Bridge.c ****     *
 536:.\Generated_Source\PSoC5/UART_Bridge.c ****     * Parameters:
 537:.\Generated_Source\PSoC5/UART_Bridge.c ****     *  None.
 538:.\Generated_Source\PSoC5/UART_Bridge.c ****     *
 539:.\Generated_Source\PSoC5/UART_Bridge.c ****     * Return:
 540:.\Generated_Source\PSoC5/UART_Bridge.c ****     *  Character read from UART RX buffer. ASCII characters from 1 to 255 are valid.
 541:.\Generated_Source\PSoC5/UART_Bridge.c ****     *  A returned zero signifies an error condition or no data available.
 542:.\Generated_Source\PSoC5/UART_Bridge.c ****     *
 543:.\Generated_Source\PSoC5/UART_Bridge.c ****     * Global Variables:
 544:.\Generated_Source\PSoC5/UART_Bridge.c ****     *  UART_Bridge_rxBuffer - RAM buffer pointer for save received data.
 545:.\Generated_Source\PSoC5/UART_Bridge.c ****     *  UART_Bridge_rxBufferWrite - cyclic index for write to rxBuffer,
 546:.\Generated_Source\PSoC5/UART_Bridge.c ****     *     checked to identify new data.
 547:.\Generated_Source\PSoC5/UART_Bridge.c ****     *  UART_Bridge_rxBufferRead - cyclic index for read from rxBuffer,
 548:.\Generated_Source\PSoC5/UART_Bridge.c ****     *     incremented after each byte has been read from buffer.
 549:.\Generated_Source\PSoC5/UART_Bridge.c ****     *  UART_Bridge_rxBufferLoopDetect - creared if loop condition was detected
 550:.\Generated_Source\PSoC5/UART_Bridge.c ****     *     in RX ISR.
 551:.\Generated_Source\PSoC5/UART_Bridge.c ****     *
 552:.\Generated_Source\PSoC5/UART_Bridge.c ****     * Reentrant:
 553:.\Generated_Source\PSoC5/UART_Bridge.c ****     *  No.
 554:.\Generated_Source\PSoC5/UART_Bridge.c ****     *
 555:.\Generated_Source\PSoC5/UART_Bridge.c ****     *******************************************************************************/
 556:.\Generated_Source\PSoC5/UART_Bridge.c ****     uint8 UART_Bridge_GetChar(void) 
 557:.\Generated_Source\PSoC5/UART_Bridge.c ****     {
 269              		.loc 1 557 0
 270              		.cfi_startproc
 271              		@ args = 0, pretend = 0, frame = 0
 272              		@ frame_needed = 0, uses_anonymous_args = 0
 273 0000 10B5     		push	{r4, lr}
 274              	.LCFI1:
 275              		.cfi_def_cfa_offset 8
 558:.\Generated_Source\PSoC5/UART_Bridge.c ****         uint8 rxData = 0u;
 559:.\Generated_Source\PSoC5/UART_Bridge.c ****         uint8 rxStatus;
 560:.\Generated_Source\PSoC5/UART_Bridge.c **** 
 561:.\Generated_Source\PSoC5/UART_Bridge.c ****         #if(UART_Bridge_RXBUFFERSIZE > UART_Bridge_FIFO_LENGTH)
 562:.\Generated_Source\PSoC5/UART_Bridge.c ****             uint8 loc_rxBufferRead;
 563:.\Generated_Source\PSoC5/UART_Bridge.c ****             uint8 loc_rxBufferWrite;
 564:.\Generated_Source\PSoC5/UART_Bridge.c ****             /* Protect variables that could change on interrupt. */
 565:.\Generated_Source\PSoC5/UART_Bridge.c ****             /* Disable Rx interrupt. */
 566:.\Generated_Source\PSoC5/UART_Bridge.c ****             #if(UART_Bridge_RX_INTERRUPT_ENABLED)
 567:.\Generated_Source\PSoC5/UART_Bridge.c ****                 UART_Bridge_DisableRxInt();
 276              		.loc 1 567 0
 277              		.cfi_offset 14, -4
 278              		.cfi_offset 4, -8
 279 0002 FFF7FEFF 		bl	UART_Bridge_DisableRxInt
 568:.\Generated_Source\PSoC5/UART_Bridge.c ****             #endif /* UART_Bridge_RX_INTERRUPT_ENABLED */
 569:.\Generated_Source\PSoC5/UART_Bridge.c ****             loc_rxBufferRead = UART_Bridge_rxBufferRead;
 280              		.loc 1 569 0
 281 0006 124A     		ldr	r2, .L38
 282 0008 1378     		ldrb	r3, [r2, #0]	@ zero_extendqisi2
ARM GAS  C:\DOCUME~1\ADMINI~1\LOCALS~1\Temp\cc7EA4qV.s 			page 16


 570:.\Generated_Source\PSoC5/UART_Bridge.c ****             loc_rxBufferWrite = UART_Bridge_rxBufferWrite;
 283              		.loc 1 570 0
 284 000a 5178     		ldrb	r1, [r2, #1]	@ zero_extendqisi2
 571:.\Generated_Source\PSoC5/UART_Bridge.c **** 
 572:.\Generated_Source\PSoC5/UART_Bridge.c ****             if( (UART_Bridge_rxBufferLoopDetect != 0u) || (loc_rxBufferRead != loc_rxBufferWrite) )
 285              		.loc 1 572 0
 286 000c 9278     		ldrb	r2, [r2, #2]	@ zero_extendqisi2
 287 000e 0AB9     		cbnz	r2, .L32
 288 0010 8B42     		cmp	r3, r1
 289              	.LVL15:
 290 0012 0DD0     		beq	.L33
 291              	.L32:
 573:.\Generated_Source\PSoC5/UART_Bridge.c ****             {
 574:.\Generated_Source\PSoC5/UART_Bridge.c ****                 rxData = UART_Bridge_rxBuffer[loc_rxBufferRead];
 292              		.loc 1 574 0
 293 0014 0F4A     		ldr	r2, .L38+4
 294 0016 D45C     		ldrb	r4, [r2, r3]	@ zero_extendqisi2
 575:.\Generated_Source\PSoC5/UART_Bridge.c ****                 loc_rxBufferRead++;
 295              		.loc 1 575 0
 296 0018 0133     		adds	r3, r3, #1
 297              	.LVL16:
 298 001a DBB2     		uxtb	r3, r3
 299              	.LVL17:
 576:.\Generated_Source\PSoC5/UART_Bridge.c ****                 if(loc_rxBufferRead >= UART_Bridge_RXBUFFERSIZE)
 300              		.loc 1 576 0
 301 001c 5AB2     		sxtb	r2, r3
 302              	.LVL18:
 303 001e 23EAE273 		bic	r3, r3, r2, asr #31
 304              	.LVL19:
 577:.\Generated_Source\PSoC5/UART_Bridge.c ****                 {
 578:.\Generated_Source\PSoC5/UART_Bridge.c ****                     loc_rxBufferRead = 0u;
 579:.\Generated_Source\PSoC5/UART_Bridge.c ****                 }
 580:.\Generated_Source\PSoC5/UART_Bridge.c ****                 /* Update the real pointer */
 581:.\Generated_Source\PSoC5/UART_Bridge.c ****                 UART_Bridge_rxBufferRead = loc_rxBufferRead;
 305              		.loc 1 581 0
 306 0022 0B4A     		ldr	r2, .L38
 307 0024 1370     		strb	r3, [r2, #0]
 582:.\Generated_Source\PSoC5/UART_Bridge.c **** 
 583:.\Generated_Source\PSoC5/UART_Bridge.c ****                 if(UART_Bridge_rxBufferLoopDetect > 0u )
 308              		.loc 1 583 0
 309 0026 9378     		ldrb	r3, [r2, #2]	@ zero_extendqisi2
 310              	.LVL20:
 311 0028 6BB1     		cbz	r3, .L35
 584:.\Generated_Source\PSoC5/UART_Bridge.c ****                 {
 585:.\Generated_Source\PSoC5/UART_Bridge.c ****                     UART_Bridge_rxBufferLoopDetect = 0u;
 312              		.loc 1 585 0
 313 002a 0023     		movs	r3, #0
 314 002c 9370     		strb	r3, [r2, #2]
 315 002e 0AE0     		b	.L35
 316              	.LVL21:
 317              	.L33:
 586:.\Generated_Source\PSoC5/UART_Bridge.c ****                     #if( (UART_Bridge_RX_INTERRUPT_ENABLED) && (UART_Bridge_FLOW_CONTROL != 0u) )
 587:.\Generated_Source\PSoC5/UART_Bridge.c ****                         /* When Hardware Flow Control selected - return RX mask */
 588:.\Generated_Source\PSoC5/UART_Bridge.c ****                         #if( UART_Bridge_HD_ENABLED )
 589:.\Generated_Source\PSoC5/UART_Bridge.c ****                             if((UART_Bridge_CONTROL_REG & UART_Bridge_CTRL_HD_SEND) == 0u)
 590:.\Generated_Source\PSoC5/UART_Bridge.c ****                             {   /* In Half duplex mode return RX mask only if
 591:.\Generated_Source\PSoC5/UART_Bridge.c ****                                 *  RX configuration set, otherwise
ARM GAS  C:\DOCUME~1\ADMINI~1\LOCALS~1\Temp\cc7EA4qV.s 			page 17


 592:.\Generated_Source\PSoC5/UART_Bridge.c ****                                 *  mask will be returned in LoadRxConfig() API.
 593:.\Generated_Source\PSoC5/UART_Bridge.c ****                                 */
 594:.\Generated_Source\PSoC5/UART_Bridge.c ****                                 UART_Bridge_RXSTATUS_MASK_REG  |= UART_Bridge_RX_STS_FIFO_NOTEMPTY;
 595:.\Generated_Source\PSoC5/UART_Bridge.c ****                             }
 596:.\Generated_Source\PSoC5/UART_Bridge.c ****                         #else
 597:.\Generated_Source\PSoC5/UART_Bridge.c ****                             UART_Bridge_RXSTATUS_MASK_REG  |= UART_Bridge_RX_STS_FIFO_NOTEMPTY;
 598:.\Generated_Source\PSoC5/UART_Bridge.c ****                         #endif /* end UART_Bridge_HD_ENABLED */
 599:.\Generated_Source\PSoC5/UART_Bridge.c ****                     #endif /* UART_Bridge_RX_INTERRUPT_ENABLED and Hardware flow control*/
 600:.\Generated_Source\PSoC5/UART_Bridge.c ****                 }
 601:.\Generated_Source\PSoC5/UART_Bridge.c **** 
 602:.\Generated_Source\PSoC5/UART_Bridge.c ****             }
 603:.\Generated_Source\PSoC5/UART_Bridge.c ****             else
 604:.\Generated_Source\PSoC5/UART_Bridge.c ****             {   rxStatus = UART_Bridge_RXSTATUS_REG;
 318              		.loc 1 604 0
 319 0030 094B     		ldr	r3, .L38+8
 320              	.LVL22:
 321 0032 1B78     		ldrb	r3, [r3, #0]	@ zero_extendqisi2
 605:.\Generated_Source\PSoC5/UART_Bridge.c ****                 if((rxStatus & UART_Bridge_RX_STS_FIFO_NOTEMPTY) != 0u)
 322              		.loc 1 605 0
 323 0034 13F0200F 		tst	r3, #32
 324              	.LVL23:
 325 0038 04D0     		beq	.L36
 606:.\Generated_Source\PSoC5/UART_Bridge.c ****                 {   /* Read received data from FIFO*/
 607:.\Generated_Source\PSoC5/UART_Bridge.c ****                     rxData = UART_Bridge_RXDATA_REG;
 326              		.loc 1 607 0
 327 003a 084A     		ldr	r2, .L38+12
 608:.\Generated_Source\PSoC5/UART_Bridge.c ****                     /*Check status on error*/
 609:.\Generated_Source\PSoC5/UART_Bridge.c ****                     if((rxStatus & (UART_Bridge_RX_STS_BREAK | UART_Bridge_RX_STS_PAR_ERROR |
 328              		.loc 1 609 0
 329 003c 13F01E0F 		tst	r3, #30
 330              		.loc 1 607 0
 331 0040 1478     		ldrb	r4, [r2, #0]	@ zero_extendqisi2
 332              		.loc 1 609 0
 333 0042 00D0     		beq	.L35
 334              	.L36:
 335 0044 0024     		movs	r4, #0
 336              	.LVL24:
 337              	.L35:
 610:.\Generated_Source\PSoC5/UART_Bridge.c ****                                    UART_Bridge_RX_STS_STOP_ERROR | UART_Bridge_RX_STS_OVERRUN)) != 
 611:.\Generated_Source\PSoC5/UART_Bridge.c ****                     {
 612:.\Generated_Source\PSoC5/UART_Bridge.c ****                         rxData = 0u;
 613:.\Generated_Source\PSoC5/UART_Bridge.c ****                     }
 614:.\Generated_Source\PSoC5/UART_Bridge.c ****                 }
 615:.\Generated_Source\PSoC5/UART_Bridge.c ****             }
 616:.\Generated_Source\PSoC5/UART_Bridge.c **** 
 617:.\Generated_Source\PSoC5/UART_Bridge.c ****             /* Enable Rx interrupt. */
 618:.\Generated_Source\PSoC5/UART_Bridge.c ****             #if(UART_Bridge_RX_INTERRUPT_ENABLED)
 619:.\Generated_Source\PSoC5/UART_Bridge.c ****                 UART_Bridge_EnableRxInt();
 338              		.loc 1 619 0
 339 0046 FFF7FEFF 		bl	UART_Bridge_EnableRxInt
 340              	.LVL25:
 620:.\Generated_Source\PSoC5/UART_Bridge.c ****             #endif /* UART_Bridge_RX_INTERRUPT_ENABLED */
 621:.\Generated_Source\PSoC5/UART_Bridge.c **** 
 622:.\Generated_Source\PSoC5/UART_Bridge.c ****         #else /* UART_Bridge_RXBUFFERSIZE > UART_Bridge_FIFO_LENGTH */
 623:.\Generated_Source\PSoC5/UART_Bridge.c **** 
 624:.\Generated_Source\PSoC5/UART_Bridge.c ****             rxStatus =UART_Bridge_RXSTATUS_REG;
 625:.\Generated_Source\PSoC5/UART_Bridge.c ****             if((rxStatus & UART_Bridge_RX_STS_FIFO_NOTEMPTY) != 0u)
ARM GAS  C:\DOCUME~1\ADMINI~1\LOCALS~1\Temp\cc7EA4qV.s 			page 18


 626:.\Generated_Source\PSoC5/UART_Bridge.c ****             {   /* Read received data from FIFO*/
 627:.\Generated_Source\PSoC5/UART_Bridge.c ****                 rxData = UART_Bridge_RXDATA_REG;
 628:.\Generated_Source\PSoC5/UART_Bridge.c ****                 /*Check status on error*/
 629:.\Generated_Source\PSoC5/UART_Bridge.c ****                 if((rxStatus & (UART_Bridge_RX_STS_BREAK | UART_Bridge_RX_STS_PAR_ERROR |
 630:.\Generated_Source\PSoC5/UART_Bridge.c ****                                UART_Bridge_RX_STS_STOP_ERROR | UART_Bridge_RX_STS_OVERRUN)) != 0u)
 631:.\Generated_Source\PSoC5/UART_Bridge.c ****                 {
 632:.\Generated_Source\PSoC5/UART_Bridge.c ****                     rxData = 0u;
 633:.\Generated_Source\PSoC5/UART_Bridge.c ****                 }
 634:.\Generated_Source\PSoC5/UART_Bridge.c ****             }
 635:.\Generated_Source\PSoC5/UART_Bridge.c ****         #endif /* UART_Bridge_RXBUFFERSIZE > UART_Bridge_FIFO_LENGTH */
 636:.\Generated_Source\PSoC5/UART_Bridge.c **** 
 637:.\Generated_Source\PSoC5/UART_Bridge.c ****         return(rxData);
 638:.\Generated_Source\PSoC5/UART_Bridge.c ****     }
 341              		.loc 1 638 0
 342 004a 2046     		mov	r0, r4
 343 004c 10BD     		pop	{r4, pc}
 344              	.L39:
 345 004e 00BF     		.align	2
 346              	.L38:
 347 0050 00000000 		.word	.LANCHOR0
 348 0054 00000000 		.word	UART_Bridge_rxBuffer
 349 0058 64640040 		.word	1073767524
 350 005c 40640040 		.word	1073767488
 351              		.cfi_endproc
 352              	.LFE11:
 353              		.size	UART_Bridge_GetChar, .-UART_Bridge_GetChar
 354              		.section	.text.UART_Bridge_GetByte,"ax",%progbits
 355              		.align	1
 356              		.global	UART_Bridge_GetByte
 357              		.thumb
 358              		.thumb_func
 359              		.type	UART_Bridge_GetByte, %function
 360              	UART_Bridge_GetByte:
 361              	.LFB12:
 639:.\Generated_Source\PSoC5/UART_Bridge.c **** 
 640:.\Generated_Source\PSoC5/UART_Bridge.c **** 
 641:.\Generated_Source\PSoC5/UART_Bridge.c ****     /*******************************************************************************
 642:.\Generated_Source\PSoC5/UART_Bridge.c ****     * Function Name: UART_Bridge_GetByte
 643:.\Generated_Source\PSoC5/UART_Bridge.c ****     ********************************************************************************
 644:.\Generated_Source\PSoC5/UART_Bridge.c ****     *
 645:.\Generated_Source\PSoC5/UART_Bridge.c ****     * Summary:
 646:.\Generated_Source\PSoC5/UART_Bridge.c ****     *  Grab the next available byte of data from the recieve FIFO
 647:.\Generated_Source\PSoC5/UART_Bridge.c ****     *
 648:.\Generated_Source\PSoC5/UART_Bridge.c ****     * Parameters:
 649:.\Generated_Source\PSoC5/UART_Bridge.c ****     *  None.
 650:.\Generated_Source\PSoC5/UART_Bridge.c ****     *
 651:.\Generated_Source\PSoC5/UART_Bridge.c ****     * Return:
 652:.\Generated_Source\PSoC5/UART_Bridge.c ****     *  MSB contains Status Register and LSB contains UART RX data
 653:.\Generated_Source\PSoC5/UART_Bridge.c ****     *
 654:.\Generated_Source\PSoC5/UART_Bridge.c ****     * Reentrant:
 655:.\Generated_Source\PSoC5/UART_Bridge.c ****     *  No.
 656:.\Generated_Source\PSoC5/UART_Bridge.c ****     *
 657:.\Generated_Source\PSoC5/UART_Bridge.c ****     *******************************************************************************/
 658:.\Generated_Source\PSoC5/UART_Bridge.c ****     uint16 UART_Bridge_GetByte(void) 
 659:.\Generated_Source\PSoC5/UART_Bridge.c ****     {
 362              		.loc 1 659 0
 363              		.cfi_startproc
ARM GAS  C:\DOCUME~1\ADMINI~1\LOCALS~1\Temp\cc7EA4qV.s 			page 19


 364              		@ args = 0, pretend = 0, frame = 0
 365              		@ frame_needed = 0, uses_anonymous_args = 0
 366 0000 10B5     		push	{r4, lr}
 367              	.LCFI2:
 368              		.cfi_def_cfa_offset 8
 660:.\Generated_Source\PSoC5/UART_Bridge.c ****         return ( ((uint16)UART_Bridge_ReadRxStatus() << 8u) | UART_Bridge_ReadRxData() );
 369              		.loc 1 660 0
 370              		.cfi_offset 14, -4
 371              		.cfi_offset 4, -8
 372 0002 FFF7FEFF 		bl	UART_Bridge_ReadRxStatus
 373 0006 0446     		mov	r4, r0
 374 0008 FFF7FEFF 		bl	UART_Bridge_ReadRxData
 375 000c 40EA0420 		orr	r0, r0, r4, lsl #8
 661:.\Generated_Source\PSoC5/UART_Bridge.c ****     }
 376              		.loc 1 661 0
 377 0010 80B2     		uxth	r0, r0
 378 0012 10BD     		pop	{r4, pc}
 379              		.cfi_endproc
 380              	.LFE12:
 381              		.size	UART_Bridge_GetByte, .-UART_Bridge_GetByte
 382              		.section	.text.UART_Bridge_GetRxBufferSize,"ax",%progbits
 383              		.align	1
 384              		.global	UART_Bridge_GetRxBufferSize
 385              		.thumb
 386              		.thumb_func
 387              		.type	UART_Bridge_GetRxBufferSize, %function
 388              	UART_Bridge_GetRxBufferSize:
 389              	.LFB13:
 662:.\Generated_Source\PSoC5/UART_Bridge.c **** 
 663:.\Generated_Source\PSoC5/UART_Bridge.c **** 
 664:.\Generated_Source\PSoC5/UART_Bridge.c ****     /*******************************************************************************
 665:.\Generated_Source\PSoC5/UART_Bridge.c ****     * Function Name: UART_Bridge_GetRxBufferSize
 666:.\Generated_Source\PSoC5/UART_Bridge.c ****     ********************************************************************************
 667:.\Generated_Source\PSoC5/UART_Bridge.c ****     *
 668:.\Generated_Source\PSoC5/UART_Bridge.c ****     * Summary:
 669:.\Generated_Source\PSoC5/UART_Bridge.c ****     *  Determine the amount of bytes left in the RX buffer and return the count in
 670:.\Generated_Source\PSoC5/UART_Bridge.c ****     *  bytes
 671:.\Generated_Source\PSoC5/UART_Bridge.c ****     *
 672:.\Generated_Source\PSoC5/UART_Bridge.c ****     * Parameters:
 673:.\Generated_Source\PSoC5/UART_Bridge.c ****     *  None.
 674:.\Generated_Source\PSoC5/UART_Bridge.c ****     *
 675:.\Generated_Source\PSoC5/UART_Bridge.c ****     * Return:
 676:.\Generated_Source\PSoC5/UART_Bridge.c ****     *  uint8: Integer count of the number of bytes left
 677:.\Generated_Source\PSoC5/UART_Bridge.c ****     *  in the RX buffer
 678:.\Generated_Source\PSoC5/UART_Bridge.c ****     *
 679:.\Generated_Source\PSoC5/UART_Bridge.c ****     * Global Variables:
 680:.\Generated_Source\PSoC5/UART_Bridge.c ****     *  UART_Bridge_rxBufferWrite - used to calculate left bytes.
 681:.\Generated_Source\PSoC5/UART_Bridge.c ****     *  UART_Bridge_rxBufferRead - used to calculate left bytes.
 682:.\Generated_Source\PSoC5/UART_Bridge.c ****     *  UART_Bridge_rxBufferLoopDetect - checked to decide left bytes amount.
 683:.\Generated_Source\PSoC5/UART_Bridge.c ****     *
 684:.\Generated_Source\PSoC5/UART_Bridge.c ****     * Reentrant:
 685:.\Generated_Source\PSoC5/UART_Bridge.c ****     *  No.
 686:.\Generated_Source\PSoC5/UART_Bridge.c ****     *
 687:.\Generated_Source\PSoC5/UART_Bridge.c ****     * Theory:
 688:.\Generated_Source\PSoC5/UART_Bridge.c ****     *  Allows the user to find out how full the RX Buffer is.
 689:.\Generated_Source\PSoC5/UART_Bridge.c ****     *
 690:.\Generated_Source\PSoC5/UART_Bridge.c ****     *******************************************************************************/
ARM GAS  C:\DOCUME~1\ADMINI~1\LOCALS~1\Temp\cc7EA4qV.s 			page 20


 691:.\Generated_Source\PSoC5/UART_Bridge.c ****     uint8 UART_Bridge_GetRxBufferSize(void)
 692:.\Generated_Source\PSoC5/UART_Bridge.c ****                                                             
 693:.\Generated_Source\PSoC5/UART_Bridge.c ****     {
 390              		.loc 1 693 0
 391              		.cfi_startproc
 392              		@ args = 0, pretend = 0, frame = 0
 393              		@ frame_needed = 0, uses_anonymous_args = 0
 394 0000 10B5     		push	{r4, lr}
 395              	.LCFI3:
 396              		.cfi_def_cfa_offset 8
 694:.\Generated_Source\PSoC5/UART_Bridge.c ****         uint8 size;
 695:.\Generated_Source\PSoC5/UART_Bridge.c **** 
 696:.\Generated_Source\PSoC5/UART_Bridge.c ****         #if(UART_Bridge_RXBUFFERSIZE > UART_Bridge_FIFO_LENGTH)
 697:.\Generated_Source\PSoC5/UART_Bridge.c **** 
 698:.\Generated_Source\PSoC5/UART_Bridge.c ****             /* Disable Rx interrupt. */
 699:.\Generated_Source\PSoC5/UART_Bridge.c ****             /* Protect variables that could change on interrupt. */
 700:.\Generated_Source\PSoC5/UART_Bridge.c ****             #if(UART_Bridge_RX_INTERRUPT_ENABLED)
 701:.\Generated_Source\PSoC5/UART_Bridge.c ****                 UART_Bridge_DisableRxInt();
 397              		.loc 1 701 0
 398              		.cfi_offset 14, -4
 399              		.cfi_offset 4, -8
 400 0002 FFF7FEFF 		bl	UART_Bridge_DisableRxInt
 702:.\Generated_Source\PSoC5/UART_Bridge.c ****             #endif /* UART_Bridge_RX_INTERRUPT_ENABLED */
 703:.\Generated_Source\PSoC5/UART_Bridge.c **** 
 704:.\Generated_Source\PSoC5/UART_Bridge.c ****             if(UART_Bridge_rxBufferRead == UART_Bridge_rxBufferWrite)
 401              		.loc 1 704 0
 402 0006 0C4B     		ldr	r3, .L49
 403 0008 1978     		ldrb	r1, [r3, #0]	@ zero_extendqisi2
 404 000a 5A78     		ldrb	r2, [r3, #1]	@ zero_extendqisi2
 405 000c 9142     		cmp	r1, r2
 406 000e 05D1     		bne	.L43
 705:.\Generated_Source\PSoC5/UART_Bridge.c ****             {
 706:.\Generated_Source\PSoC5/UART_Bridge.c ****                 if(UART_Bridge_rxBufferLoopDetect > 0u)
 407              		.loc 1 706 0
 408 0010 9C78     		ldrb	r4, [r3, #2]	@ zero_extendqisi2
 409 0012 002C     		cmp	r4, #0
 410 0014 14BF     		ite	ne
 411 0016 8024     		movne	r4, #128
 412 0018 0024     		moveq	r4, #0
 413              	.LVL26:
 414 001a 08E0     		b	.L45
 415              	.LVL27:
 416              	.L43:
 707:.\Generated_Source\PSoC5/UART_Bridge.c ****                 {
 708:.\Generated_Source\PSoC5/UART_Bridge.c ****                     size = UART_Bridge_RXBUFFERSIZE;
 709:.\Generated_Source\PSoC5/UART_Bridge.c ****                 }
 710:.\Generated_Source\PSoC5/UART_Bridge.c ****                 else
 711:.\Generated_Source\PSoC5/UART_Bridge.c ****                 {
 712:.\Generated_Source\PSoC5/UART_Bridge.c ****                     size = 0u;
 713:.\Generated_Source\PSoC5/UART_Bridge.c ****                 }
 714:.\Generated_Source\PSoC5/UART_Bridge.c ****             }
 715:.\Generated_Source\PSoC5/UART_Bridge.c ****             else if(UART_Bridge_rxBufferRead < UART_Bridge_rxBufferWrite)
 417              		.loc 1 715 0
 418 001c 1978     		ldrb	r1, [r3, #0]	@ zero_extendqisi2
 419 001e 5A78     		ldrb	r2, [r3, #1]	@ zero_extendqisi2
 716:.\Generated_Source\PSoC5/UART_Bridge.c ****             {
 717:.\Generated_Source\PSoC5/UART_Bridge.c ****                 size = (UART_Bridge_rxBufferWrite - UART_Bridge_rxBufferRead);
ARM GAS  C:\DOCUME~1\ADMINI~1\LOCALS~1\Temp\cc7EA4qV.s 			page 21


 420              		.loc 1 717 0
 421 0020 5C78     		ldrb	r4, [r3, #1]	@ zero_extendqisi2
 422              		.loc 1 715 0
 423 0022 9142     		cmp	r1, r2
 424              		.loc 1 717 0
 425 0024 1B78     		ldrb	r3, [r3, #0]	@ zero_extendqisi2
 718:.\Generated_Source\PSoC5/UART_Bridge.c ****             }
 719:.\Generated_Source\PSoC5/UART_Bridge.c ****             else
 720:.\Generated_Source\PSoC5/UART_Bridge.c ****             {
 721:.\Generated_Source\PSoC5/UART_Bridge.c ****                 size = (UART_Bridge_RXBUFFERSIZE - UART_Bridge_rxBufferRead) + UART_Bridge_rxBuffer
 426              		.loc 1 721 0
 427 0026 28BF     		it	cs
 428 0028 803C     		subcs	r4, r4, #128
 429 002a E41A     		subs	r4, r4, r3
 430 002c E4B2     		uxtb	r4, r4
 431              	.LVL28:
 432              	.L45:
 722:.\Generated_Source\PSoC5/UART_Bridge.c ****             }
 723:.\Generated_Source\PSoC5/UART_Bridge.c **** 
 724:.\Generated_Source\PSoC5/UART_Bridge.c ****             /* Enable Rx interrupt. */
 725:.\Generated_Source\PSoC5/UART_Bridge.c ****             #if(UART_Bridge_RX_INTERRUPT_ENABLED)
 726:.\Generated_Source\PSoC5/UART_Bridge.c ****                 UART_Bridge_EnableRxInt();
 433              		.loc 1 726 0
 434 002e FFF7FEFF 		bl	UART_Bridge_EnableRxInt
 727:.\Generated_Source\PSoC5/UART_Bridge.c ****             #endif /* End UART_Bridge_RX_INTERRUPT_ENABLED */
 728:.\Generated_Source\PSoC5/UART_Bridge.c **** 
 729:.\Generated_Source\PSoC5/UART_Bridge.c ****         #else /* UART_Bridge_RXBUFFERSIZE > UART_Bridge_FIFO_LENGTH */
 730:.\Generated_Source\PSoC5/UART_Bridge.c **** 
 731:.\Generated_Source\PSoC5/UART_Bridge.c ****             /* We can only know if there is data in the fifo. */
 732:.\Generated_Source\PSoC5/UART_Bridge.c ****             size = ((UART_Bridge_RXSTATUS_REG & UART_Bridge_RX_STS_FIFO_NOTEMPTY) != 0u) ? 1u : 0u;
 733:.\Generated_Source\PSoC5/UART_Bridge.c **** 
 734:.\Generated_Source\PSoC5/UART_Bridge.c ****         #endif /* End UART_Bridge_RXBUFFERSIZE > UART_Bridge_FIFO_LENGTH */
 735:.\Generated_Source\PSoC5/UART_Bridge.c **** 
 736:.\Generated_Source\PSoC5/UART_Bridge.c ****         return(size);
 737:.\Generated_Source\PSoC5/UART_Bridge.c ****     }
 435              		.loc 1 737 0
 436 0032 2046     		mov	r0, r4
 437 0034 10BD     		pop	{r4, pc}
 438              	.L50:
 439 0036 00BF     		.align	2
 440              	.L49:
 441 0038 00000000 		.word	.LANCHOR0
 442              		.cfi_endproc
 443              	.LFE13:
 444              		.size	UART_Bridge_GetRxBufferSize, .-UART_Bridge_GetRxBufferSize
 445              		.section	.text.UART_Bridge_SetRxAddressMode,"ax",%progbits
 446              		.align	1
 447              		.global	UART_Bridge_SetRxAddressMode
 448              		.thumb
 449              		.thumb_func
 450              		.type	UART_Bridge_SetRxAddressMode, %function
 451              	UART_Bridge_SetRxAddressMode:
 452              	.LFB15:
 738:.\Generated_Source\PSoC5/UART_Bridge.c **** 
 739:.\Generated_Source\PSoC5/UART_Bridge.c **** 
 740:.\Generated_Source\PSoC5/UART_Bridge.c ****     /*******************************************************************************
 741:.\Generated_Source\PSoC5/UART_Bridge.c ****     * Function Name: UART_Bridge_ClearRxBuffer
ARM GAS  C:\DOCUME~1\ADMINI~1\LOCALS~1\Temp\cc7EA4qV.s 			page 22


 742:.\Generated_Source\PSoC5/UART_Bridge.c ****     ********************************************************************************
 743:.\Generated_Source\PSoC5/UART_Bridge.c ****     *
 744:.\Generated_Source\PSoC5/UART_Bridge.c ****     * Summary:
 745:.\Generated_Source\PSoC5/UART_Bridge.c ****     *  Clears the RX RAM buffer by setting the read and write pointers both to zero.
 746:.\Generated_Source\PSoC5/UART_Bridge.c ****     *  Clears hardware RX FIFO.
 747:.\Generated_Source\PSoC5/UART_Bridge.c ****     *
 748:.\Generated_Source\PSoC5/UART_Bridge.c ****     * Parameters:
 749:.\Generated_Source\PSoC5/UART_Bridge.c ****     *  None.
 750:.\Generated_Source\PSoC5/UART_Bridge.c ****     *
 751:.\Generated_Source\PSoC5/UART_Bridge.c ****     * Return:
 752:.\Generated_Source\PSoC5/UART_Bridge.c ****     *  None.
 753:.\Generated_Source\PSoC5/UART_Bridge.c ****     *
 754:.\Generated_Source\PSoC5/UART_Bridge.c ****     * Global Variables:
 755:.\Generated_Source\PSoC5/UART_Bridge.c ****     *  UART_Bridge_rxBufferWrite - cleared to zero.
 756:.\Generated_Source\PSoC5/UART_Bridge.c ****     *  UART_Bridge_rxBufferRead - cleared to zero.
 757:.\Generated_Source\PSoC5/UART_Bridge.c ****     *  UART_Bridge_rxBufferLoopDetect - cleared to zero.
 758:.\Generated_Source\PSoC5/UART_Bridge.c ****     *  UART_Bridge_rxBufferOverflow - cleared to zero.
 759:.\Generated_Source\PSoC5/UART_Bridge.c ****     *
 760:.\Generated_Source\PSoC5/UART_Bridge.c ****     * Reentrant:
 761:.\Generated_Source\PSoC5/UART_Bridge.c ****     *  No.
 762:.\Generated_Source\PSoC5/UART_Bridge.c ****     *
 763:.\Generated_Source\PSoC5/UART_Bridge.c ****     * Theory:
 764:.\Generated_Source\PSoC5/UART_Bridge.c ****     *  Setting the pointers to zero makes the system believe there is no data to
 765:.\Generated_Source\PSoC5/UART_Bridge.c ****     *  read and writing will resume at address 0 overwriting any data that may
 766:.\Generated_Source\PSoC5/UART_Bridge.c ****     *  have remained in the RAM.
 767:.\Generated_Source\PSoC5/UART_Bridge.c ****     *
 768:.\Generated_Source\PSoC5/UART_Bridge.c ****     * Side Effects:
 769:.\Generated_Source\PSoC5/UART_Bridge.c ****     *  Any received data not read from the RAM or FIFO buffer will be lost.
 770:.\Generated_Source\PSoC5/UART_Bridge.c ****     *******************************************************************************/
 771:.\Generated_Source\PSoC5/UART_Bridge.c ****     void UART_Bridge_ClearRxBuffer(void) 
 772:.\Generated_Source\PSoC5/UART_Bridge.c ****     {
 773:.\Generated_Source\PSoC5/UART_Bridge.c ****         uint8 enableInterrupts;
 774:.\Generated_Source\PSoC5/UART_Bridge.c **** 
 775:.\Generated_Source\PSoC5/UART_Bridge.c ****         /* clear the HW FIFO */
 776:.\Generated_Source\PSoC5/UART_Bridge.c ****         /* Enter critical section */
 777:.\Generated_Source\PSoC5/UART_Bridge.c ****         enableInterrupts = CyEnterCriticalSection();
 778:.\Generated_Source\PSoC5/UART_Bridge.c ****         UART_Bridge_RXDATA_AUX_CTL_REG |=  UART_Bridge_RX_FIFO_CLR;
 779:.\Generated_Source\PSoC5/UART_Bridge.c ****         UART_Bridge_RXDATA_AUX_CTL_REG &= (uint8)~UART_Bridge_RX_FIFO_CLR;
 780:.\Generated_Source\PSoC5/UART_Bridge.c ****         /* Exit critical section */
 781:.\Generated_Source\PSoC5/UART_Bridge.c ****         CyExitCriticalSection(enableInterrupts);
 782:.\Generated_Source\PSoC5/UART_Bridge.c **** 
 783:.\Generated_Source\PSoC5/UART_Bridge.c ****         #if(UART_Bridge_RXBUFFERSIZE > UART_Bridge_FIFO_LENGTH)
 784:.\Generated_Source\PSoC5/UART_Bridge.c ****             /* Disable Rx interrupt. */
 785:.\Generated_Source\PSoC5/UART_Bridge.c ****             /* Protect variables that could change on interrupt. */
 786:.\Generated_Source\PSoC5/UART_Bridge.c ****             #if(UART_Bridge_RX_INTERRUPT_ENABLED)
 787:.\Generated_Source\PSoC5/UART_Bridge.c ****                 UART_Bridge_DisableRxInt();
 788:.\Generated_Source\PSoC5/UART_Bridge.c ****             #endif /* End UART_Bridge_RX_INTERRUPT_ENABLED */
 789:.\Generated_Source\PSoC5/UART_Bridge.c **** 
 790:.\Generated_Source\PSoC5/UART_Bridge.c ****             UART_Bridge_rxBufferRead = 0u;
 791:.\Generated_Source\PSoC5/UART_Bridge.c ****             UART_Bridge_rxBufferWrite = 0u;
 792:.\Generated_Source\PSoC5/UART_Bridge.c ****             UART_Bridge_rxBufferLoopDetect = 0u;
 793:.\Generated_Source\PSoC5/UART_Bridge.c ****             UART_Bridge_rxBufferOverflow = 0u;
 794:.\Generated_Source\PSoC5/UART_Bridge.c **** 
 795:.\Generated_Source\PSoC5/UART_Bridge.c ****             /* Enable Rx interrupt. */
 796:.\Generated_Source\PSoC5/UART_Bridge.c ****             #if(UART_Bridge_RX_INTERRUPT_ENABLED)
 797:.\Generated_Source\PSoC5/UART_Bridge.c ****                 UART_Bridge_EnableRxInt();
 798:.\Generated_Source\PSoC5/UART_Bridge.c ****             #endif /* End UART_Bridge_RX_INTERRUPT_ENABLED */
ARM GAS  C:\DOCUME~1\ADMINI~1\LOCALS~1\Temp\cc7EA4qV.s 			page 23


 799:.\Generated_Source\PSoC5/UART_Bridge.c ****         #endif /* End UART_Bridge_RXBUFFERSIZE > UART_Bridge_FIFO_LENGTH */
 800:.\Generated_Source\PSoC5/UART_Bridge.c **** 
 801:.\Generated_Source\PSoC5/UART_Bridge.c ****     }
 802:.\Generated_Source\PSoC5/UART_Bridge.c **** 
 803:.\Generated_Source\PSoC5/UART_Bridge.c **** 
 804:.\Generated_Source\PSoC5/UART_Bridge.c ****     /*******************************************************************************
 805:.\Generated_Source\PSoC5/UART_Bridge.c ****     * Function Name: UART_Bridge_SetRxAddressMode
 806:.\Generated_Source\PSoC5/UART_Bridge.c ****     ********************************************************************************
 807:.\Generated_Source\PSoC5/UART_Bridge.c ****     *
 808:.\Generated_Source\PSoC5/UART_Bridge.c ****     * Summary:
 809:.\Generated_Source\PSoC5/UART_Bridge.c ****     *  Set the receive addressing mode
 810:.\Generated_Source\PSoC5/UART_Bridge.c ****     *
 811:.\Generated_Source\PSoC5/UART_Bridge.c ****     * Parameters:
 812:.\Generated_Source\PSoC5/UART_Bridge.c ****     *  addressMode: Enumerated value indicating the mode of RX addressing
 813:.\Generated_Source\PSoC5/UART_Bridge.c ****     *  UART_Bridge__B_UART__AM_SW_BYTE_BYTE -  Software Byte-by-Byte address
 814:.\Generated_Source\PSoC5/UART_Bridge.c ****     *                                               detection
 815:.\Generated_Source\PSoC5/UART_Bridge.c ****     *  UART_Bridge__B_UART__AM_SW_DETECT_TO_BUFFER - Software Detect to Buffer
 816:.\Generated_Source\PSoC5/UART_Bridge.c ****     *                                               address detection
 817:.\Generated_Source\PSoC5/UART_Bridge.c ****     *  UART_Bridge__B_UART__AM_HW_BYTE_BY_BYTE - Hardware Byte-by-Byte address
 818:.\Generated_Source\PSoC5/UART_Bridge.c ****     *                                               detection
 819:.\Generated_Source\PSoC5/UART_Bridge.c ****     *  UART_Bridge__B_UART__AM_HW_DETECT_TO_BUFFER - Hardware Detect to Buffer
 820:.\Generated_Source\PSoC5/UART_Bridge.c ****     *                                               address detection
 821:.\Generated_Source\PSoC5/UART_Bridge.c ****     *  UART_Bridge__B_UART__AM_NONE - No address detection
 822:.\Generated_Source\PSoC5/UART_Bridge.c ****     *
 823:.\Generated_Source\PSoC5/UART_Bridge.c ****     * Return:
 824:.\Generated_Source\PSoC5/UART_Bridge.c ****     *  None.
 825:.\Generated_Source\PSoC5/UART_Bridge.c ****     *
 826:.\Generated_Source\PSoC5/UART_Bridge.c ****     * Global Variables:
 827:.\Generated_Source\PSoC5/UART_Bridge.c ****     *  UART_Bridge_rxAddressMode - the parameter stored in this variable for
 828:.\Generated_Source\PSoC5/UART_Bridge.c ****     *   the farther usage in RX ISR.
 829:.\Generated_Source\PSoC5/UART_Bridge.c ****     *  UART_Bridge_rxAddressDetected - set to initial state (0).
 830:.\Generated_Source\PSoC5/UART_Bridge.c ****     *
 831:.\Generated_Source\PSoC5/UART_Bridge.c ****     *******************************************************************************/
 832:.\Generated_Source\PSoC5/UART_Bridge.c ****     void UART_Bridge_SetRxAddressMode(uint8 addressMode)
 833:.\Generated_Source\PSoC5/UART_Bridge.c ****                                                         
 834:.\Generated_Source\PSoC5/UART_Bridge.c ****     {
 453              		.loc 1 834 0
 454              		.cfi_startproc
 455              		@ args = 0, pretend = 0, frame = 0
 456              		@ frame_needed = 0, uses_anonymous_args = 0
 457              		@ link register save eliminated.
 458              	.LVL29:
 835:.\Generated_Source\PSoC5/UART_Bridge.c ****         #if(UART_Bridge_RXHW_ADDRESS_ENABLED)
 836:.\Generated_Source\PSoC5/UART_Bridge.c ****             #if(UART_Bridge_CONTROL_REG_REMOVED)
 837:.\Generated_Source\PSoC5/UART_Bridge.c ****                 if(addressMode != 0u) { }     /* release compiler warning */
 838:.\Generated_Source\PSoC5/UART_Bridge.c ****             #else /* UART_Bridge_CONTROL_REG_REMOVED */
 839:.\Generated_Source\PSoC5/UART_Bridge.c ****                 uint8 tmpCtrl;
 840:.\Generated_Source\PSoC5/UART_Bridge.c ****                 tmpCtrl = UART_Bridge_CONTROL_REG & (uint8)~UART_Bridge_CTRL_RXADDR_MODE_MASK;
 841:.\Generated_Source\PSoC5/UART_Bridge.c ****                 tmpCtrl |= (uint8)(addressMode << UART_Bridge_CTRL_RXADDR_MODE0_SHIFT);
 842:.\Generated_Source\PSoC5/UART_Bridge.c ****                 UART_Bridge_CONTROL_REG = tmpCtrl;
 843:.\Generated_Source\PSoC5/UART_Bridge.c ****                 #if(UART_Bridge_RX_INTERRUPT_ENABLED && \
 844:.\Generated_Source\PSoC5/UART_Bridge.c ****                    (UART_Bridge_RXBUFFERSIZE > UART_Bridge_FIFO_LENGTH) )
 845:.\Generated_Source\PSoC5/UART_Bridge.c ****                     UART_Bridge_rxAddressMode = addressMode;
 846:.\Generated_Source\PSoC5/UART_Bridge.c ****                     UART_Bridge_rxAddressDetected = 0u;
 847:.\Generated_Source\PSoC5/UART_Bridge.c ****                 #endif /* End UART_Bridge_RXBUFFERSIZE > UART_Bridge_FIFO_LENGTH*/
 848:.\Generated_Source\PSoC5/UART_Bridge.c ****             #endif /* End UART_Bridge_CONTROL_REG_REMOVED */
 849:.\Generated_Source\PSoC5/UART_Bridge.c ****         #else /* UART_Bridge_RXHW_ADDRESS_ENABLED */
ARM GAS  C:\DOCUME~1\ADMINI~1\LOCALS~1\Temp\cc7EA4qV.s 			page 24


 850:.\Generated_Source\PSoC5/UART_Bridge.c ****             if(addressMode != 0u) { }     /* release compiler warning */
 851:.\Generated_Source\PSoC5/UART_Bridge.c ****         #endif /* End UART_Bridge_RXHW_ADDRESS_ENABLED */
 852:.\Generated_Source\PSoC5/UART_Bridge.c ****     }
 459              		.loc 1 852 0
 460 0000 7047     		bx	lr
 461              		.cfi_endproc
 462              	.LFE15:
 463              		.size	UART_Bridge_SetRxAddressMode, .-UART_Bridge_SetRxAddressMode
 464              		.section	.text.UART_Bridge_SetRxAddress1,"ax",%progbits
 465              		.align	1
 466              		.global	UART_Bridge_SetRxAddress1
 467              		.thumb
 468              		.thumb_func
 469              		.type	UART_Bridge_SetRxAddress1, %function
 470              	UART_Bridge_SetRxAddress1:
 471              	.LFB16:
 853:.\Generated_Source\PSoC5/UART_Bridge.c **** 
 854:.\Generated_Source\PSoC5/UART_Bridge.c **** 
 855:.\Generated_Source\PSoC5/UART_Bridge.c ****     /*******************************************************************************
 856:.\Generated_Source\PSoC5/UART_Bridge.c ****     * Function Name: UART_Bridge_SetRxAddress1
 857:.\Generated_Source\PSoC5/UART_Bridge.c ****     ********************************************************************************
 858:.\Generated_Source\PSoC5/UART_Bridge.c ****     *
 859:.\Generated_Source\PSoC5/UART_Bridge.c ****     * Summary:
 860:.\Generated_Source\PSoC5/UART_Bridge.c ****     *  Set the first hardware address compare value
 861:.\Generated_Source\PSoC5/UART_Bridge.c ****     *
 862:.\Generated_Source\PSoC5/UART_Bridge.c ****     * Parameters:
 863:.\Generated_Source\PSoC5/UART_Bridge.c ****     *  address
 864:.\Generated_Source\PSoC5/UART_Bridge.c ****     *
 865:.\Generated_Source\PSoC5/UART_Bridge.c ****     * Return:
 866:.\Generated_Source\PSoC5/UART_Bridge.c ****     *  None.
 867:.\Generated_Source\PSoC5/UART_Bridge.c ****     *
 868:.\Generated_Source\PSoC5/UART_Bridge.c ****     *******************************************************************************/
 869:.\Generated_Source\PSoC5/UART_Bridge.c ****     void UART_Bridge_SetRxAddress1(uint8 address) 
 870:.\Generated_Source\PSoC5/UART_Bridge.c **** 
 871:.\Generated_Source\PSoC5/UART_Bridge.c ****     {
 472              		.loc 1 871 0
 473              		.cfi_startproc
 474              		@ args = 0, pretend = 0, frame = 0
 475              		@ frame_needed = 0, uses_anonymous_args = 0
 476              		@ link register save eliminated.
 477              	.LVL30:
 872:.\Generated_Source\PSoC5/UART_Bridge.c ****         UART_Bridge_RXADDRESS1_REG = address;
 478              		.loc 1 872 0
 479 0000 014B     		ldr	r3, .L55
 480 0002 1870     		strb	r0, [r3, #0]
 873:.\Generated_Source\PSoC5/UART_Bridge.c ****     }
 481              		.loc 1 873 0
 482 0004 7047     		bx	lr
 483              	.L56:
 484 0006 00BF     		.align	2
 485              	.L55:
 486 0008 20640040 		.word	1073767456
 487              		.cfi_endproc
 488              	.LFE16:
 489              		.size	UART_Bridge_SetRxAddress1, .-UART_Bridge_SetRxAddress1
 490              		.section	.text.UART_Bridge_SetRxAddress2,"ax",%progbits
 491              		.align	1
ARM GAS  C:\DOCUME~1\ADMINI~1\LOCALS~1\Temp\cc7EA4qV.s 			page 25


 492              		.global	UART_Bridge_SetRxAddress2
 493              		.thumb
 494              		.thumb_func
 495              		.type	UART_Bridge_SetRxAddress2, %function
 496              	UART_Bridge_SetRxAddress2:
 497              	.LFB17:
 874:.\Generated_Source\PSoC5/UART_Bridge.c **** 
 875:.\Generated_Source\PSoC5/UART_Bridge.c **** 
 876:.\Generated_Source\PSoC5/UART_Bridge.c ****     /*******************************************************************************
 877:.\Generated_Source\PSoC5/UART_Bridge.c ****     * Function Name: UART_Bridge_SetRxAddress2
 878:.\Generated_Source\PSoC5/UART_Bridge.c ****     ********************************************************************************
 879:.\Generated_Source\PSoC5/UART_Bridge.c ****     *
 880:.\Generated_Source\PSoC5/UART_Bridge.c ****     * Summary:
 881:.\Generated_Source\PSoC5/UART_Bridge.c ****     *  Set the second hardware address compare value
 882:.\Generated_Source\PSoC5/UART_Bridge.c ****     *
 883:.\Generated_Source\PSoC5/UART_Bridge.c ****     * Parameters:
 884:.\Generated_Source\PSoC5/UART_Bridge.c ****     *  address
 885:.\Generated_Source\PSoC5/UART_Bridge.c ****     *
 886:.\Generated_Source\PSoC5/UART_Bridge.c ****     * Return:
 887:.\Generated_Source\PSoC5/UART_Bridge.c ****     *  None.
 888:.\Generated_Source\PSoC5/UART_Bridge.c ****     *
 889:.\Generated_Source\PSoC5/UART_Bridge.c ****     *******************************************************************************/
 890:.\Generated_Source\PSoC5/UART_Bridge.c ****     void UART_Bridge_SetRxAddress2(uint8 address) 
 891:.\Generated_Source\PSoC5/UART_Bridge.c ****     {
 498              		.loc 1 891 0
 499              		.cfi_startproc
 500              		@ args = 0, pretend = 0, frame = 0
 501              		@ frame_needed = 0, uses_anonymous_args = 0
 502              		@ link register save eliminated.
 503              	.LVL31:
 892:.\Generated_Source\PSoC5/UART_Bridge.c ****         UART_Bridge_RXADDRESS2_REG = address;
 504              		.loc 1 892 0
 505 0000 014B     		ldr	r3, .L59
 506 0002 1870     		strb	r0, [r3, #0]
 893:.\Generated_Source\PSoC5/UART_Bridge.c ****     }
 507              		.loc 1 893 0
 508 0004 7047     		bx	lr
 509              	.L60:
 510 0006 00BF     		.align	2
 511              	.L59:
 512 0008 30640040 		.word	1073767472
 513              		.cfi_endproc
 514              	.LFE17:
 515              		.size	UART_Bridge_SetRxAddress2, .-UART_Bridge_SetRxAddress2
 516              		.section	.text.UART_Bridge_EnableTxInt,"ax",%progbits
 517              		.align	1
 518              		.global	UART_Bridge_EnableTxInt
 519              		.thumb
 520              		.thumb_func
 521              		.type	UART_Bridge_EnableTxInt, %function
 522              	UART_Bridge_EnableTxInt:
 523              	.LFB18:
 894:.\Generated_Source\PSoC5/UART_Bridge.c **** 
 895:.\Generated_Source\PSoC5/UART_Bridge.c **** #endif  /* UART_Bridge_RX_ENABLED || UART_Bridge_HD_ENABLED*/
 896:.\Generated_Source\PSoC5/UART_Bridge.c **** 
 897:.\Generated_Source\PSoC5/UART_Bridge.c **** 
 898:.\Generated_Source\PSoC5/UART_Bridge.c **** #if( (UART_Bridge_TX_ENABLED) || (UART_Bridge_HD_ENABLED) )
ARM GAS  C:\DOCUME~1\ADMINI~1\LOCALS~1\Temp\cc7EA4qV.s 			page 26


 899:.\Generated_Source\PSoC5/UART_Bridge.c **** 
 900:.\Generated_Source\PSoC5/UART_Bridge.c ****     #if(UART_Bridge_TX_INTERRUPT_ENABLED)
 901:.\Generated_Source\PSoC5/UART_Bridge.c **** 
 902:.\Generated_Source\PSoC5/UART_Bridge.c ****         /*******************************************************************************
 903:.\Generated_Source\PSoC5/UART_Bridge.c ****         * Function Name: UART_Bridge_EnableTxInt
 904:.\Generated_Source\PSoC5/UART_Bridge.c ****         ********************************************************************************
 905:.\Generated_Source\PSoC5/UART_Bridge.c ****         *
 906:.\Generated_Source\PSoC5/UART_Bridge.c ****         * Summary:
 907:.\Generated_Source\PSoC5/UART_Bridge.c ****         *  Enable TX interrupt generation
 908:.\Generated_Source\PSoC5/UART_Bridge.c ****         *
 909:.\Generated_Source\PSoC5/UART_Bridge.c ****         * Parameters:
 910:.\Generated_Source\PSoC5/UART_Bridge.c ****         *  None.
 911:.\Generated_Source\PSoC5/UART_Bridge.c ****         *
 912:.\Generated_Source\PSoC5/UART_Bridge.c ****         * Return:
 913:.\Generated_Source\PSoC5/UART_Bridge.c ****         *  None.
 914:.\Generated_Source\PSoC5/UART_Bridge.c ****         *
 915:.\Generated_Source\PSoC5/UART_Bridge.c ****         * Theory:
 916:.\Generated_Source\PSoC5/UART_Bridge.c ****         *  Enable the interrupt output -or- the interrupt component itself
 917:.\Generated_Source\PSoC5/UART_Bridge.c ****         *
 918:.\Generated_Source\PSoC5/UART_Bridge.c ****         *******************************************************************************/
 919:.\Generated_Source\PSoC5/UART_Bridge.c ****         void UART_Bridge_EnableTxInt(void) 
 920:.\Generated_Source\PSoC5/UART_Bridge.c ****         {
 524              		.loc 1 920 0
 525              		.cfi_startproc
 526              		@ args = 0, pretend = 0, frame = 0
 527              		@ frame_needed = 0, uses_anonymous_args = 0
 528              		@ link register save eliminated.
 921:.\Generated_Source\PSoC5/UART_Bridge.c ****             CyIntEnable(UART_Bridge_TX_VECT_NUM);
 529              		.loc 1 921 0
 530 0000 014B     		ldr	r3, .L63
 531 0002 0422     		movs	r2, #4
 532 0004 1A60     		str	r2, [r3, #0]
 922:.\Generated_Source\PSoC5/UART_Bridge.c ****         }
 533              		.loc 1 922 0
 534 0006 7047     		bx	lr
 535              	.L64:
 536              		.align	2
 537              	.L63:
 538 0008 00E100E0 		.word	-536813312
 539              		.cfi_endproc
 540              	.LFE18:
 541              		.size	UART_Bridge_EnableTxInt, .-UART_Bridge_EnableTxInt
 542              		.section	.text.UART_Bridge_DisableTxInt,"ax",%progbits
 543              		.align	1
 544              		.global	UART_Bridge_DisableTxInt
 545              		.thumb
 546              		.thumb_func
 547              		.type	UART_Bridge_DisableTxInt, %function
 548              	UART_Bridge_DisableTxInt:
 549              	.LFB19:
 923:.\Generated_Source\PSoC5/UART_Bridge.c **** 
 924:.\Generated_Source\PSoC5/UART_Bridge.c **** 
 925:.\Generated_Source\PSoC5/UART_Bridge.c ****         /*******************************************************************************
 926:.\Generated_Source\PSoC5/UART_Bridge.c ****         * Function Name: UART_Bridge_DisableTxInt
 927:.\Generated_Source\PSoC5/UART_Bridge.c ****         ********************************************************************************
 928:.\Generated_Source\PSoC5/UART_Bridge.c ****         *
 929:.\Generated_Source\PSoC5/UART_Bridge.c ****         * Summary:
ARM GAS  C:\DOCUME~1\ADMINI~1\LOCALS~1\Temp\cc7EA4qV.s 			page 27


 930:.\Generated_Source\PSoC5/UART_Bridge.c ****         *  Disable TX interrupt generation
 931:.\Generated_Source\PSoC5/UART_Bridge.c ****         *
 932:.\Generated_Source\PSoC5/UART_Bridge.c ****         * Parameters:
 933:.\Generated_Source\PSoC5/UART_Bridge.c ****         *  None.
 934:.\Generated_Source\PSoC5/UART_Bridge.c ****         *
 935:.\Generated_Source\PSoC5/UART_Bridge.c ****         * Return:
 936:.\Generated_Source\PSoC5/UART_Bridge.c ****         *  None.
 937:.\Generated_Source\PSoC5/UART_Bridge.c ****         *
 938:.\Generated_Source\PSoC5/UART_Bridge.c ****         * Theory:
 939:.\Generated_Source\PSoC5/UART_Bridge.c ****         *  Disable the interrupt output -or- the interrupt component itself
 940:.\Generated_Source\PSoC5/UART_Bridge.c ****         *
 941:.\Generated_Source\PSoC5/UART_Bridge.c ****         *******************************************************************************/
 942:.\Generated_Source\PSoC5/UART_Bridge.c ****         void UART_Bridge_DisableTxInt(void) 
 943:.\Generated_Source\PSoC5/UART_Bridge.c ****         {
 550              		.loc 1 943 0
 551              		.cfi_startproc
 552              		@ args = 0, pretend = 0, frame = 0
 553              		@ frame_needed = 0, uses_anonymous_args = 0
 554              		@ link register save eliminated.
 944:.\Generated_Source\PSoC5/UART_Bridge.c ****             CyIntDisable(UART_Bridge_TX_VECT_NUM);
 555              		.loc 1 944 0
 556 0000 014B     		ldr	r3, .L67
 557 0002 0422     		movs	r2, #4
 558 0004 1A60     		str	r2, [r3, #0]
 945:.\Generated_Source\PSoC5/UART_Bridge.c ****         }
 559              		.loc 1 945 0
 560 0006 7047     		bx	lr
 561              	.L68:
 562              		.align	2
 563              	.L67:
 564 0008 80E100E0 		.word	-536813184
 565              		.cfi_endproc
 566              	.LFE19:
 567              		.size	UART_Bridge_DisableTxInt, .-UART_Bridge_DisableTxInt
 568              		.section	.text.UART_Bridge_SetTxInterruptMode,"ax",%progbits
 569              		.align	1
 570              		.global	UART_Bridge_SetTxInterruptMode
 571              		.thumb
 572              		.thumb_func
 573              		.type	UART_Bridge_SetTxInterruptMode, %function
 574              	UART_Bridge_SetTxInterruptMode:
 575              	.LFB20:
 946:.\Generated_Source\PSoC5/UART_Bridge.c **** 
 947:.\Generated_Source\PSoC5/UART_Bridge.c ****     #endif /* UART_Bridge_TX_INTERRUPT_ENABLED */
 948:.\Generated_Source\PSoC5/UART_Bridge.c **** 
 949:.\Generated_Source\PSoC5/UART_Bridge.c **** 
 950:.\Generated_Source\PSoC5/UART_Bridge.c ****     /*******************************************************************************
 951:.\Generated_Source\PSoC5/UART_Bridge.c ****     * Function Name: UART_Bridge_SetTxInterruptMode
 952:.\Generated_Source\PSoC5/UART_Bridge.c ****     ********************************************************************************
 953:.\Generated_Source\PSoC5/UART_Bridge.c ****     *
 954:.\Generated_Source\PSoC5/UART_Bridge.c ****     * Summary:
 955:.\Generated_Source\PSoC5/UART_Bridge.c ****     *  Configure which status bits trigger an interrupt event
 956:.\Generated_Source\PSoC5/UART_Bridge.c ****     *
 957:.\Generated_Source\PSoC5/UART_Bridge.c ****     * Parameters:
 958:.\Generated_Source\PSoC5/UART_Bridge.c ****     *  intSrc: An or'd combination of the desired status bit masks (defined in
 959:.\Generated_Source\PSoC5/UART_Bridge.c ****     *          the header file)
 960:.\Generated_Source\PSoC5/UART_Bridge.c ****     *
ARM GAS  C:\DOCUME~1\ADMINI~1\LOCALS~1\Temp\cc7EA4qV.s 			page 28


 961:.\Generated_Source\PSoC5/UART_Bridge.c ****     * Return:
 962:.\Generated_Source\PSoC5/UART_Bridge.c ****     *  None.
 963:.\Generated_Source\PSoC5/UART_Bridge.c ****     *
 964:.\Generated_Source\PSoC5/UART_Bridge.c ****     * Theory:
 965:.\Generated_Source\PSoC5/UART_Bridge.c ****     *  Enables the output of specific status bits to the interrupt controller
 966:.\Generated_Source\PSoC5/UART_Bridge.c ****     *
 967:.\Generated_Source\PSoC5/UART_Bridge.c ****     *******************************************************************************/
 968:.\Generated_Source\PSoC5/UART_Bridge.c ****     void UART_Bridge_SetTxInterruptMode(uint8 intSrc) 
 969:.\Generated_Source\PSoC5/UART_Bridge.c ****     {
 576              		.loc 1 969 0
 577              		.cfi_startproc
 578              		@ args = 0, pretend = 0, frame = 0
 579              		@ frame_needed = 0, uses_anonymous_args = 0
 580              		@ link register save eliminated.
 581              	.LVL32:
 970:.\Generated_Source\PSoC5/UART_Bridge.c ****         UART_Bridge_TXSTATUS_MASK_REG = intSrc;
 582              		.loc 1 970 0
 583 0000 014B     		ldr	r3, .L71
 584 0002 1870     		strb	r0, [r3, #0]
 971:.\Generated_Source\PSoC5/UART_Bridge.c ****     }
 585              		.loc 1 971 0
 586 0004 7047     		bx	lr
 587              	.L72:
 588 0006 00BF     		.align	2
 589              	.L71:
 590 0008 82640040 		.word	1073767554
 591              		.cfi_endproc
 592              	.LFE20:
 593              		.size	UART_Bridge_SetTxInterruptMode, .-UART_Bridge_SetTxInterruptMode
 594              		.section	.text.UART_Bridge_WriteTxData,"ax",%progbits
 595              		.align	1
 596              		.global	UART_Bridge_WriteTxData
 597              		.thumb
 598              		.thumb_func
 599              		.type	UART_Bridge_WriteTxData, %function
 600              	UART_Bridge_WriteTxData:
 601              	.LFB21:
 972:.\Generated_Source\PSoC5/UART_Bridge.c **** 
 973:.\Generated_Source\PSoC5/UART_Bridge.c **** 
 974:.\Generated_Source\PSoC5/UART_Bridge.c ****     /*******************************************************************************
 975:.\Generated_Source\PSoC5/UART_Bridge.c ****     * Function Name: UART_Bridge_WriteTxData
 976:.\Generated_Source\PSoC5/UART_Bridge.c ****     ********************************************************************************
 977:.\Generated_Source\PSoC5/UART_Bridge.c ****     *
 978:.\Generated_Source\PSoC5/UART_Bridge.c ****     * Summary:
 979:.\Generated_Source\PSoC5/UART_Bridge.c ****     *  Write a byte of data to the Transmit FIFO or TX buffer to be sent when the
 980:.\Generated_Source\PSoC5/UART_Bridge.c ****     *  bus is available. WriteTxData sends a byte without checking for buffer room
 981:.\Generated_Source\PSoC5/UART_Bridge.c ****     *  or status. It is up to the user to separately check status.
 982:.\Generated_Source\PSoC5/UART_Bridge.c ****     *
 983:.\Generated_Source\PSoC5/UART_Bridge.c ****     * Parameters:
 984:.\Generated_Source\PSoC5/UART_Bridge.c ****     *  TXDataByte: byte of data to place in the transmit FIFO
 985:.\Generated_Source\PSoC5/UART_Bridge.c ****     *
 986:.\Generated_Source\PSoC5/UART_Bridge.c ****     * Return:
 987:.\Generated_Source\PSoC5/UART_Bridge.c ****     * void
 988:.\Generated_Source\PSoC5/UART_Bridge.c ****     *
 989:.\Generated_Source\PSoC5/UART_Bridge.c ****     * Global Variables:
 990:.\Generated_Source\PSoC5/UART_Bridge.c ****     *  UART_Bridge_txBuffer - RAM buffer pointer for save data for transmission
 991:.\Generated_Source\PSoC5/UART_Bridge.c ****     *  UART_Bridge_txBufferWrite - cyclic index for write to txBuffer,
ARM GAS  C:\DOCUME~1\ADMINI~1\LOCALS~1\Temp\cc7EA4qV.s 			page 29


 992:.\Generated_Source\PSoC5/UART_Bridge.c ****     *    incremented after each byte saved to buffer.
 993:.\Generated_Source\PSoC5/UART_Bridge.c ****     *  UART_Bridge_txBufferRead - cyclic index for read from txBuffer,
 994:.\Generated_Source\PSoC5/UART_Bridge.c ****     *    checked to identify the condition to write to FIFO directly or to TX buffer
 995:.\Generated_Source\PSoC5/UART_Bridge.c ****     *  UART_Bridge_initVar - checked to identify that the component has been
 996:.\Generated_Source\PSoC5/UART_Bridge.c ****     *    initialized.
 997:.\Generated_Source\PSoC5/UART_Bridge.c ****     *
 998:.\Generated_Source\PSoC5/UART_Bridge.c ****     * Reentrant:
 999:.\Generated_Source\PSoC5/UART_Bridge.c ****     *  No.
1000:.\Generated_Source\PSoC5/UART_Bridge.c ****     *
1001:.\Generated_Source\PSoC5/UART_Bridge.c ****     *******************************************************************************/
1002:.\Generated_Source\PSoC5/UART_Bridge.c ****     void UART_Bridge_WriteTxData(uint8 txDataByte) 
1003:.\Generated_Source\PSoC5/UART_Bridge.c ****     {
 602              		.loc 1 1003 0
 603              		.cfi_startproc
 604              		@ args = 0, pretend = 0, frame = 0
 605              		@ frame_needed = 0, uses_anonymous_args = 0
 606              	.LVL33:
 607 0000 70B5     		push	{r4, r5, r6, lr}
 608              	.LCFI4:
 609              		.cfi_def_cfa_offset 16
1004:.\Generated_Source\PSoC5/UART_Bridge.c ****         /* If not Initialized then skip this function*/
1005:.\Generated_Source\PSoC5/UART_Bridge.c ****         if(UART_Bridge_initVar != 0u)
 610              		.loc 1 1005 0
 611 0002 124C     		ldr	r4, .L79
 612              		.cfi_offset 14, -4
 613              		.cfi_offset 6, -8
 614              		.cfi_offset 5, -12
 615              		.cfi_offset 4, -16
 616              		.loc 1 1003 0
 617 0004 0546     		mov	r5, r0
 618              		.loc 1 1005 0
 619 0006 2379     		ldrb	r3, [r4, #4]	@ zero_extendqisi2
 620 0008 002B     		cmp	r3, #0
 621 000a 1DD0     		beq	.L78
 622              	.LVL34:
1006:.\Generated_Source\PSoC5/UART_Bridge.c ****         {
1007:.\Generated_Source\PSoC5/UART_Bridge.c ****             #if(UART_Bridge_TXBUFFERSIZE > UART_Bridge_FIFO_LENGTH)
1008:.\Generated_Source\PSoC5/UART_Bridge.c **** 
1009:.\Generated_Source\PSoC5/UART_Bridge.c ****                 /* Disable Tx interrupt. */
1010:.\Generated_Source\PSoC5/UART_Bridge.c ****                 /* Protect variables that could change on interrupt. */
1011:.\Generated_Source\PSoC5/UART_Bridge.c ****                 #if(UART_Bridge_TX_INTERRUPT_ENABLED)
1012:.\Generated_Source\PSoC5/UART_Bridge.c ****                     UART_Bridge_DisableTxInt();
 623              		.loc 1 1012 0
 624 000c FFF7FEFF 		bl	UART_Bridge_DisableTxInt
1013:.\Generated_Source\PSoC5/UART_Bridge.c ****                 #endif /* End UART_Bridge_TX_INTERRUPT_ENABLED */
1014:.\Generated_Source\PSoC5/UART_Bridge.c **** 
1015:.\Generated_Source\PSoC5/UART_Bridge.c ****                 if( (UART_Bridge_txBufferRead == UART_Bridge_txBufferWrite) &&
 625              		.loc 1 1015 0
 626 0010 6279     		ldrb	r2, [r4, #5]	@ zero_extendqisi2
 627 0012 A379     		ldrb	r3, [r4, #6]	@ zero_extendqisi2
 628 0014 9A42     		cmp	r2, r3
 629 0016 07D1     		bne	.L75
1016:.\Generated_Source\PSoC5/UART_Bridge.c ****                     ((UART_Bridge_TXSTATUS_REG & UART_Bridge_TX_STS_FIFO_FULL) == 0u) )
 630              		.loc 1 1016 0
 631 0018 0D4A     		ldr	r2, .L79+4
 632 001a 1278     		ldrb	r2, [r2, #0]	@ zero_extendqisi2
 633              		.loc 1 1015 0
ARM GAS  C:\DOCUME~1\ADMINI~1\LOCALS~1\Temp\cc7EA4qV.s 			page 30


 634 001c 12F0040F 		tst	r2, #4
 635 0020 02D1     		bne	.L75
1017:.\Generated_Source\PSoC5/UART_Bridge.c ****                 {
1018:.\Generated_Source\PSoC5/UART_Bridge.c ****                     /* Add directly to the FIFO. */
1019:.\Generated_Source\PSoC5/UART_Bridge.c ****                     UART_Bridge_TXDATA_REG = txDataByte;
 636              		.loc 1 1019 0
 637 0022 0C4B     		ldr	r3, .L79+8
 638 0024 1D70     		strb	r5, [r3, #0]
 639              		.loc 1 1015 0
 640 0026 0BE0     		b	.L76
 641              	.L75:
1020:.\Generated_Source\PSoC5/UART_Bridge.c ****                 }
1021:.\Generated_Source\PSoC5/UART_Bridge.c ****                 else
1022:.\Generated_Source\PSoC5/UART_Bridge.c ****                 {
1023:.\Generated_Source\PSoC5/UART_Bridge.c ****                     if(UART_Bridge_txBufferWrite >= UART_Bridge_TXBUFFERSIZE)
 642              		.loc 1 1023 0
 643 0028 13F0800F 		tst	r3, #128
 644 002c 02D0     		beq	.L77
1024:.\Generated_Source\PSoC5/UART_Bridge.c ****                     {
1025:.\Generated_Source\PSoC5/UART_Bridge.c ****                         UART_Bridge_txBufferWrite = 0u;
 645              		.loc 1 1025 0
 646 002e 074B     		ldr	r3, .L79
 647 0030 0022     		movs	r2, #0
 648 0032 9A71     		strb	r2, [r3, #6]
 649              	.L77:
1026:.\Generated_Source\PSoC5/UART_Bridge.c ****                     }
1027:.\Generated_Source\PSoC5/UART_Bridge.c **** 
1028:.\Generated_Source\PSoC5/UART_Bridge.c ****                     UART_Bridge_txBuffer[UART_Bridge_txBufferWrite] = txDataByte;
 650              		.loc 1 1028 0
 651 0034 054B     		ldr	r3, .L79
 652 0036 0849     		ldr	r1, .L79+12
 653 0038 9A79     		ldrb	r2, [r3, #6]	@ zero_extendqisi2
 654 003a 8D54     		strb	r5, [r1, r2]
1029:.\Generated_Source\PSoC5/UART_Bridge.c **** 
1030:.\Generated_Source\PSoC5/UART_Bridge.c ****                     /* Add to the software buffer. */
1031:.\Generated_Source\PSoC5/UART_Bridge.c ****                     UART_Bridge_txBufferWrite++;
 655              		.loc 1 1031 0
 656 003c 0132     		adds	r2, r2, #1
 657 003e 9A71     		strb	r2, [r3, #6]
 658              	.L76:
1032:.\Generated_Source\PSoC5/UART_Bridge.c **** 
1033:.\Generated_Source\PSoC5/UART_Bridge.c ****                 }
1034:.\Generated_Source\PSoC5/UART_Bridge.c **** 
1035:.\Generated_Source\PSoC5/UART_Bridge.c ****                 /* Enable Tx interrupt. */
1036:.\Generated_Source\PSoC5/UART_Bridge.c ****                 #if(UART_Bridge_TX_INTERRUPT_ENABLED)
1037:.\Generated_Source\PSoC5/UART_Bridge.c ****                     UART_Bridge_EnableTxInt();
1038:.\Generated_Source\PSoC5/UART_Bridge.c ****                 #endif /* End UART_Bridge_TX_INTERRUPT_ENABLED */
1039:.\Generated_Source\PSoC5/UART_Bridge.c **** 
1040:.\Generated_Source\PSoC5/UART_Bridge.c ****             #else /* UART_Bridge_TXBUFFERSIZE > UART_Bridge_FIFO_LENGTH */
1041:.\Generated_Source\PSoC5/UART_Bridge.c **** 
1042:.\Generated_Source\PSoC5/UART_Bridge.c ****                 /* Add directly to the FIFO. */
1043:.\Generated_Source\PSoC5/UART_Bridge.c ****                 UART_Bridge_TXDATA_REG = txDataByte;
1044:.\Generated_Source\PSoC5/UART_Bridge.c **** 
1045:.\Generated_Source\PSoC5/UART_Bridge.c ****             #endif /* End UART_Bridge_TXBUFFERSIZE > UART_Bridge_FIFO_LENGTH */
1046:.\Generated_Source\PSoC5/UART_Bridge.c ****         }
1047:.\Generated_Source\PSoC5/UART_Bridge.c ****     }
 659              		.loc 1 1047 0
ARM GAS  C:\DOCUME~1\ADMINI~1\LOCALS~1\Temp\cc7EA4qV.s 			page 31


 660 0040 BDE87040 		pop	{r4, r5, r6, lr}
 661              		.loc 1 1037 0
 662 0044 FFF7FEBF 		b	UART_Bridge_EnableTxInt
 663              	.LVL35:
 664              	.L78:
 665 0048 70BD     		pop	{r4, r5, r6, pc}
 666              	.L80:
 667 004a 00BF     		.align	2
 668              	.L79:
 669 004c 00000000 		.word	.LANCHOR0
 670 0050 62640040 		.word	1073767522
 671 0054 42640040 		.word	1073767490
 672 0058 00000000 		.word	UART_Bridge_txBuffer
 673              		.cfi_endproc
 674              	.LFE21:
 675              		.size	UART_Bridge_WriteTxData, .-UART_Bridge_WriteTxData
 676              		.section	.text.UART_Bridge_ReadTxStatus,"ax",%progbits
 677              		.align	1
 678              		.global	UART_Bridge_ReadTxStatus
 679              		.thumb
 680              		.thumb_func
 681              		.type	UART_Bridge_ReadTxStatus, %function
 682              	UART_Bridge_ReadTxStatus:
 683              	.LFB22:
1048:.\Generated_Source\PSoC5/UART_Bridge.c **** 
1049:.\Generated_Source\PSoC5/UART_Bridge.c **** 
1050:.\Generated_Source\PSoC5/UART_Bridge.c ****     /*******************************************************************************
1051:.\Generated_Source\PSoC5/UART_Bridge.c ****     * Function Name: UART_Bridge_ReadTxStatus
1052:.\Generated_Source\PSoC5/UART_Bridge.c ****     ********************************************************************************
1053:.\Generated_Source\PSoC5/UART_Bridge.c ****     *
1054:.\Generated_Source\PSoC5/UART_Bridge.c ****     * Summary:
1055:.\Generated_Source\PSoC5/UART_Bridge.c ****     *  Read the status register for the component
1056:.\Generated_Source\PSoC5/UART_Bridge.c ****     *
1057:.\Generated_Source\PSoC5/UART_Bridge.c ****     * Parameters:
1058:.\Generated_Source\PSoC5/UART_Bridge.c ****     *  None.
1059:.\Generated_Source\PSoC5/UART_Bridge.c ****     *
1060:.\Generated_Source\PSoC5/UART_Bridge.c ****     * Return:
1061:.\Generated_Source\PSoC5/UART_Bridge.c ****     *  Contents of the status register
1062:.\Generated_Source\PSoC5/UART_Bridge.c ****     *
1063:.\Generated_Source\PSoC5/UART_Bridge.c ****     * Theory:
1064:.\Generated_Source\PSoC5/UART_Bridge.c ****     *  This function reads the status register which is clear on read. It is up to
1065:.\Generated_Source\PSoC5/UART_Bridge.c ****     *  the user to handle all bits in this return value accordingly, even if the bit
1066:.\Generated_Source\PSoC5/UART_Bridge.c ****     *  was not enabled as an interrupt source the event happened and must be handled
1067:.\Generated_Source\PSoC5/UART_Bridge.c ****     *  accordingly.
1068:.\Generated_Source\PSoC5/UART_Bridge.c ****     *
1069:.\Generated_Source\PSoC5/UART_Bridge.c ****     *******************************************************************************/
1070:.\Generated_Source\PSoC5/UART_Bridge.c ****     uint8 UART_Bridge_ReadTxStatus(void) 
1071:.\Generated_Source\PSoC5/UART_Bridge.c ****     {
 684              		.loc 1 1071 0
 685              		.cfi_startproc
 686              		@ args = 0, pretend = 0, frame = 0
 687              		@ frame_needed = 0, uses_anonymous_args = 0
 688              		@ link register save eliminated.
1072:.\Generated_Source\PSoC5/UART_Bridge.c ****         return(UART_Bridge_TXSTATUS_REG);
 689              		.loc 1 1072 0
 690 0000 014B     		ldr	r3, .L83
 691 0002 1878     		ldrb	r0, [r3, #0]	@ zero_extendqisi2
ARM GAS  C:\DOCUME~1\ADMINI~1\LOCALS~1\Temp\cc7EA4qV.s 			page 32


1073:.\Generated_Source\PSoC5/UART_Bridge.c ****     }
 692              		.loc 1 1073 0
 693 0004 7047     		bx	lr
 694              	.L84:
 695 0006 00BF     		.align	2
 696              	.L83:
 697 0008 62640040 		.word	1073767522
 698              		.cfi_endproc
 699              	.LFE22:
 700              		.size	UART_Bridge_ReadTxStatus, .-UART_Bridge_ReadTxStatus
 701              		.section	.text.UART_Bridge_PutChar,"ax",%progbits
 702              		.align	1
 703              		.global	UART_Bridge_PutChar
 704              		.thumb
 705              		.thumb_func
 706              		.type	UART_Bridge_PutChar, %function
 707              	UART_Bridge_PutChar:
 708              	.LFB23:
1074:.\Generated_Source\PSoC5/UART_Bridge.c **** 
1075:.\Generated_Source\PSoC5/UART_Bridge.c **** 
1076:.\Generated_Source\PSoC5/UART_Bridge.c ****     /*******************************************************************************
1077:.\Generated_Source\PSoC5/UART_Bridge.c ****     * Function Name: UART_Bridge_PutChar
1078:.\Generated_Source\PSoC5/UART_Bridge.c ****     ********************************************************************************
1079:.\Generated_Source\PSoC5/UART_Bridge.c ****     *
1080:.\Generated_Source\PSoC5/UART_Bridge.c ****     * Summary:
1081:.\Generated_Source\PSoC5/UART_Bridge.c ****     *  Wait to send byte until TX register or buffer has room.
1082:.\Generated_Source\PSoC5/UART_Bridge.c ****     *
1083:.\Generated_Source\PSoC5/UART_Bridge.c ****     * Parameters:
1084:.\Generated_Source\PSoC5/UART_Bridge.c ****     *  txDataByte: The 8-bit data value to send across the UART.
1085:.\Generated_Source\PSoC5/UART_Bridge.c ****     *
1086:.\Generated_Source\PSoC5/UART_Bridge.c ****     * Return:
1087:.\Generated_Source\PSoC5/UART_Bridge.c ****     *  None.
1088:.\Generated_Source\PSoC5/UART_Bridge.c ****     *
1089:.\Generated_Source\PSoC5/UART_Bridge.c ****     * Global Variables:
1090:.\Generated_Source\PSoC5/UART_Bridge.c ****     *  UART_Bridge_txBuffer - RAM buffer pointer for save data for transmission
1091:.\Generated_Source\PSoC5/UART_Bridge.c ****     *  UART_Bridge_txBufferWrite - cyclic index for write to txBuffer,
1092:.\Generated_Source\PSoC5/UART_Bridge.c ****     *     checked to identify free space in txBuffer and incremented after each byte
1093:.\Generated_Source\PSoC5/UART_Bridge.c ****     *     saved to buffer.
1094:.\Generated_Source\PSoC5/UART_Bridge.c ****     *  UART_Bridge_txBufferRead - cyclic index for read from txBuffer,
1095:.\Generated_Source\PSoC5/UART_Bridge.c ****     *     checked to identify free space in txBuffer.
1096:.\Generated_Source\PSoC5/UART_Bridge.c ****     *  UART_Bridge_initVar - checked to identify that the component has been
1097:.\Generated_Source\PSoC5/UART_Bridge.c ****     *     initialized.
1098:.\Generated_Source\PSoC5/UART_Bridge.c ****     *
1099:.\Generated_Source\PSoC5/UART_Bridge.c ****     * Reentrant:
1100:.\Generated_Source\PSoC5/UART_Bridge.c ****     *  No.
1101:.\Generated_Source\PSoC5/UART_Bridge.c ****     *
1102:.\Generated_Source\PSoC5/UART_Bridge.c ****     * Theory:
1103:.\Generated_Source\PSoC5/UART_Bridge.c ****     *  Allows the user to transmit any byte of data in a single transfer
1104:.\Generated_Source\PSoC5/UART_Bridge.c ****     *
1105:.\Generated_Source\PSoC5/UART_Bridge.c ****     *******************************************************************************/
1106:.\Generated_Source\PSoC5/UART_Bridge.c ****     void UART_Bridge_PutChar(uint8 txDataByte) 
1107:.\Generated_Source\PSoC5/UART_Bridge.c ****     {
 709              		.loc 1 1107 0
 710              		.cfi_startproc
 711              		@ args = 0, pretend = 0, frame = 0
 712              		@ frame_needed = 0, uses_anonymous_args = 0
 713              		@ link register save eliminated.
ARM GAS  C:\DOCUME~1\ADMINI~1\LOCALS~1\Temp\cc7EA4qV.s 			page 33


 714              	.LVL36:
1108:.\Generated_Source\PSoC5/UART_Bridge.c ****             #if(UART_Bridge_TXBUFFERSIZE > UART_Bridge_FIFO_LENGTH)
1109:.\Generated_Source\PSoC5/UART_Bridge.c ****                 /* The temporary output pointer is used since it takes two instructions
1110:.\Generated_Source\PSoC5/UART_Bridge.c ****                 *  to increment with a wrap, and we can't risk doing that with the real
1111:.\Generated_Source\PSoC5/UART_Bridge.c ****                 *  pointer and getting an interrupt in between instructions.
1112:.\Generated_Source\PSoC5/UART_Bridge.c ****                 */
1113:.\Generated_Source\PSoC5/UART_Bridge.c ****                 uint8 loc_txBufferWrite;
1114:.\Generated_Source\PSoC5/UART_Bridge.c ****                 uint8 loc_txBufferRead;
1115:.\Generated_Source\PSoC5/UART_Bridge.c **** 
1116:.\Generated_Source\PSoC5/UART_Bridge.c ****                 do{
1117:.\Generated_Source\PSoC5/UART_Bridge.c ****                     /* Block if software buffer is full, so we don't overwrite. */
1118:.\Generated_Source\PSoC5/UART_Bridge.c ****                     #if ((UART_Bridge_TXBUFFERSIZE > UART_Bridge_MAX_BYTE_VALUE) && (CY_PSOC3))
1119:.\Generated_Source\PSoC5/UART_Bridge.c ****                         /* Disable TX interrupt to protect variables that could change on interrupt
1120:.\Generated_Source\PSoC5/UART_Bridge.c ****                         CyIntDisable(UART_Bridge_TX_VECT_NUM);
1121:.\Generated_Source\PSoC5/UART_Bridge.c ****                     #endif /* End TXBUFFERSIZE > 255 */
1122:.\Generated_Source\PSoC5/UART_Bridge.c ****                     loc_txBufferWrite = UART_Bridge_txBufferWrite;
 715              		.loc 1 1122 0
 716 0000 124B     		ldr	r3, .L93
 717 0002 9B79     		ldrb	r3, [r3, #6]	@ zero_extendqisi2
 718              	.LVL37:
 719              	.L88:
1123:.\Generated_Source\PSoC5/UART_Bridge.c ****                     loc_txBufferRead = UART_Bridge_txBufferRead;
 720              		.loc 1 1123 0
 721 0004 114A     		ldr	r2, .L93
 722              	.LVL38:
 723 0006 5279     		ldrb	r2, [r2, #5]	@ zero_extendqisi2
1124:.\Generated_Source\PSoC5/UART_Bridge.c ****                     #if ((UART_Bridge_TXBUFFERSIZE > UART_Bridge_MAX_BYTE_VALUE) && (CY_PSOC3))
1125:.\Generated_Source\PSoC5/UART_Bridge.c ****                         /* Enable interrupt to continue transmission */
1126:.\Generated_Source\PSoC5/UART_Bridge.c ****                         CyIntEnable(UART_Bridge_TX_VECT_NUM);
1127:.\Generated_Source\PSoC5/UART_Bridge.c ****                     #endif /* End TXBUFFERSIZE > 255 */
1128:.\Generated_Source\PSoC5/UART_Bridge.c ****                 }while( (loc_txBufferWrite < loc_txBufferRead) ? (loc_txBufferWrite == (loc_txBuffe
1129:.\Generated_Source\PSoC5/UART_Bridge.c ****                                         ((loc_txBufferWrite - loc_txBufferRead) ==
1130:.\Generated_Source\PSoC5/UART_Bridge.c ****                                         (uint8)(UART_Bridge_TXBUFFERSIZE - 1u)) );
 724              		.loc 1 1130 0
 725 0008 9342     		cmp	r3, r2
 726              	.LVL39:
 727 000a 05D2     		bcs	.L86
 728 000c 511E     		subs	r1, r2, #1
 729 000e 8B42     		cmp	r3, r1
 730 0010 14BF     		ite	ne
 731 0012 0021     		movne	r1, #0
 732 0014 0121     		moveq	r1, #1
 733 0016 04E0     		b	.L87
 734              	.L86:
 735 0018 991A     		subs	r1, r3, r2
 736 001a 7F29     		cmp	r1, #127
 737 001c 14BF     		ite	ne
 738 001e 0021     		movne	r1, #0
 739 0020 0121     		moveq	r1, #1
 740              	.L87:
 741 0022 0029     		cmp	r1, #0
 742 0024 EED1     		bne	.L88
1131:.\Generated_Source\PSoC5/UART_Bridge.c **** 
1132:.\Generated_Source\PSoC5/UART_Bridge.c ****                 if( (loc_txBufferRead == loc_txBufferWrite) &&
 743              		.loc 1 1132 0
 744 0026 9A42     		cmp	r2, r3
 745 0028 07D1     		bne	.L89
ARM GAS  C:\DOCUME~1\ADMINI~1\LOCALS~1\Temp\cc7EA4qV.s 			page 34


1133:.\Generated_Source\PSoC5/UART_Bridge.c ****                     ((UART_Bridge_TXSTATUS_REG & UART_Bridge_TX_STS_FIFO_FULL) == 0u) )
 746              		.loc 1 1133 0
 747 002a 094A     		ldr	r2, .L93+4
 748              	.LVL40:
 749 002c 1278     		ldrb	r2, [r2, #0]	@ zero_extendqisi2
 750              		.loc 1 1132 0
 751 002e 12F0040F 		tst	r2, #4
 752 0032 02D1     		bne	.L89
1134:.\Generated_Source\PSoC5/UART_Bridge.c ****                 {
1135:.\Generated_Source\PSoC5/UART_Bridge.c ****                     /* Add directly to the FIFO. */
1136:.\Generated_Source\PSoC5/UART_Bridge.c ****                     UART_Bridge_TXDATA_REG = txDataByte;
 753              		.loc 1 1136 0
 754 0034 074B     		ldr	r3, .L93+8
 755              	.LVL41:
 756 0036 1870     		strb	r0, [r3, #0]
 757              		.loc 1 1132 0
 758 0038 7047     		bx	lr
 759              	.LVL42:
 760              	.L89:
1137:.\Generated_Source\PSoC5/UART_Bridge.c ****                 }
1138:.\Generated_Source\PSoC5/UART_Bridge.c ****                 else
1139:.\Generated_Source\PSoC5/UART_Bridge.c ****                 {
1140:.\Generated_Source\PSoC5/UART_Bridge.c ****                     if(loc_txBufferWrite >= UART_Bridge_TXBUFFERSIZE)
 761              		.loc 1 1140 0
 762 003a 5AB2     		sxtb	r2, r3
 763              	.LVL43:
 764 003c 23EAE273 		bic	r3, r3, r2, asr #31
 765              	.LVL44:
1141:.\Generated_Source\PSoC5/UART_Bridge.c ****                     {
1142:.\Generated_Source\PSoC5/UART_Bridge.c ****                         loc_txBufferWrite = 0u;
1143:.\Generated_Source\PSoC5/UART_Bridge.c ****                     }
1144:.\Generated_Source\PSoC5/UART_Bridge.c ****                     /* Add to the software buffer. */
1145:.\Generated_Source\PSoC5/UART_Bridge.c ****                     UART_Bridge_txBuffer[loc_txBufferWrite] = txDataByte;
 766              		.loc 1 1145 0
 767 0040 054A     		ldr	r2, .L93+12
 768 0042 D054     		strb	r0, [r2, r3]
1146:.\Generated_Source\PSoC5/UART_Bridge.c ****                     loc_txBufferWrite++;
1147:.\Generated_Source\PSoC5/UART_Bridge.c **** 
1148:.\Generated_Source\PSoC5/UART_Bridge.c ****                     /* Finally, update the real output pointer */
1149:.\Generated_Source\PSoC5/UART_Bridge.c ****                     #if ((UART_Bridge_TXBUFFERSIZE > UART_Bridge_MAX_BYTE_VALUE) && (CY_PSOC3))
1150:.\Generated_Source\PSoC5/UART_Bridge.c ****                         CyIntDisable(UART_Bridge_TX_VECT_NUM);
1151:.\Generated_Source\PSoC5/UART_Bridge.c ****                     #endif /* End TXBUFFERSIZE > 255 */
1152:.\Generated_Source\PSoC5/UART_Bridge.c ****                     UART_Bridge_txBufferWrite = loc_txBufferWrite;
 769              		.loc 1 1152 0
 770 0044 014A     		ldr	r2, .L93
 771 0046 0133     		adds	r3, r3, #1
 772              	.LVL45:
 773 0048 9371     		strb	r3, [r2, #6]
 774 004a 7047     		bx	lr
 775              	.L94:
 776              		.align	2
 777              	.L93:
 778 004c 00000000 		.word	.LANCHOR0
 779 0050 62640040 		.word	1073767522
 780 0054 42640040 		.word	1073767490
 781 0058 00000000 		.word	UART_Bridge_txBuffer
 782              		.cfi_endproc
ARM GAS  C:\DOCUME~1\ADMINI~1\LOCALS~1\Temp\cc7EA4qV.s 			page 35


 783              	.LFE23:
 784              		.size	UART_Bridge_PutChar, .-UART_Bridge_PutChar
 785              		.section	.text.UART_Bridge_PutString,"ax",%progbits
 786              		.align	1
 787              		.global	UART_Bridge_PutString
 788              		.thumb
 789              		.thumb_func
 790              		.type	UART_Bridge_PutString, %function
 791              	UART_Bridge_PutString:
 792              	.LFB24:
1153:.\Generated_Source\PSoC5/UART_Bridge.c ****                     #if ((UART_Bridge_TXBUFFERSIZE > UART_Bridge_MAX_BYTE_VALUE) && (CY_PSOC3))
1154:.\Generated_Source\PSoC5/UART_Bridge.c ****                         CyIntEnable(UART_Bridge_TX_VECT_NUM);
1155:.\Generated_Source\PSoC5/UART_Bridge.c ****                     #endif /* End TXBUFFERSIZE > 255 */
1156:.\Generated_Source\PSoC5/UART_Bridge.c ****                 }
1157:.\Generated_Source\PSoC5/UART_Bridge.c **** 
1158:.\Generated_Source\PSoC5/UART_Bridge.c ****             #else /* UART_Bridge_TXBUFFERSIZE > UART_Bridge_FIFO_LENGTH */
1159:.\Generated_Source\PSoC5/UART_Bridge.c **** 
1160:.\Generated_Source\PSoC5/UART_Bridge.c ****                 while((UART_Bridge_TXSTATUS_REG & UART_Bridge_TX_STS_FIFO_FULL) != 0u)
1161:.\Generated_Source\PSoC5/UART_Bridge.c ****                 {
1162:.\Generated_Source\PSoC5/UART_Bridge.c ****                     ; /* Wait for room in the FIFO. */
1163:.\Generated_Source\PSoC5/UART_Bridge.c ****                 }
1164:.\Generated_Source\PSoC5/UART_Bridge.c **** 
1165:.\Generated_Source\PSoC5/UART_Bridge.c ****                 /* Add directly to the FIFO. */
1166:.\Generated_Source\PSoC5/UART_Bridge.c ****                 UART_Bridge_TXDATA_REG = txDataByte;
1167:.\Generated_Source\PSoC5/UART_Bridge.c **** 
1168:.\Generated_Source\PSoC5/UART_Bridge.c ****             #endif /* End UART_Bridge_TXBUFFERSIZE > UART_Bridge_FIFO_LENGTH */
1169:.\Generated_Source\PSoC5/UART_Bridge.c ****     }
1170:.\Generated_Source\PSoC5/UART_Bridge.c **** 
1171:.\Generated_Source\PSoC5/UART_Bridge.c **** 
1172:.\Generated_Source\PSoC5/UART_Bridge.c ****     /*******************************************************************************
1173:.\Generated_Source\PSoC5/UART_Bridge.c ****     * Function Name: UART_Bridge_PutString
1174:.\Generated_Source\PSoC5/UART_Bridge.c ****     ********************************************************************************
1175:.\Generated_Source\PSoC5/UART_Bridge.c ****     *
1176:.\Generated_Source\PSoC5/UART_Bridge.c ****     * Summary:
1177:.\Generated_Source\PSoC5/UART_Bridge.c ****     *  Write a Sequence of bytes on the Transmit line. Data comes from RAM or ROM.
1178:.\Generated_Source\PSoC5/UART_Bridge.c ****     *
1179:.\Generated_Source\PSoC5/UART_Bridge.c ****     * Parameters:
1180:.\Generated_Source\PSoC5/UART_Bridge.c ****     *  string: char pointer to character string of Data to Send.
1181:.\Generated_Source\PSoC5/UART_Bridge.c ****     *
1182:.\Generated_Source\PSoC5/UART_Bridge.c ****     * Return:
1183:.\Generated_Source\PSoC5/UART_Bridge.c ****     *  None.
1184:.\Generated_Source\PSoC5/UART_Bridge.c ****     *
1185:.\Generated_Source\PSoC5/UART_Bridge.c ****     * Global Variables:
1186:.\Generated_Source\PSoC5/UART_Bridge.c ****     *  UART_Bridge_initVar - checked to identify that the component has been
1187:.\Generated_Source\PSoC5/UART_Bridge.c ****     *     initialized.
1188:.\Generated_Source\PSoC5/UART_Bridge.c ****     *
1189:.\Generated_Source\PSoC5/UART_Bridge.c ****     * Reentrant:
1190:.\Generated_Source\PSoC5/UART_Bridge.c ****     *  No.
1191:.\Generated_Source\PSoC5/UART_Bridge.c ****     *
1192:.\Generated_Source\PSoC5/UART_Bridge.c ****     * Theory:
1193:.\Generated_Source\PSoC5/UART_Bridge.c ****     *  This function will block if there is not enough memory to place the whole
1194:.\Generated_Source\PSoC5/UART_Bridge.c ****     *  string, it will block until the entire string has been written to the
1195:.\Generated_Source\PSoC5/UART_Bridge.c ****     *  transmit buffer.
1196:.\Generated_Source\PSoC5/UART_Bridge.c ****     *
1197:.\Generated_Source\PSoC5/UART_Bridge.c ****     *******************************************************************************/
1198:.\Generated_Source\PSoC5/UART_Bridge.c ****     void UART_Bridge_PutString(const char8 string[]) 
1199:.\Generated_Source\PSoC5/UART_Bridge.c ****     {
ARM GAS  C:\DOCUME~1\ADMINI~1\LOCALS~1\Temp\cc7EA4qV.s 			page 36


 793              		.loc 1 1199 0
 794              		.cfi_startproc
 795              		@ args = 0, pretend = 0, frame = 0
 796              		@ frame_needed = 0, uses_anonymous_args = 0
 797              	.LVL46:
 798 0000 38B5     		push	{r3, r4, r5, lr}
 799              	.LCFI5:
 800              		.cfi_def_cfa_offset 16
1200:.\Generated_Source\PSoC5/UART_Bridge.c ****         uint16 buf_index = 0u;
1201:.\Generated_Source\PSoC5/UART_Bridge.c ****         /* If not Initialized then skip this function*/
1202:.\Generated_Source\PSoC5/UART_Bridge.c ****         if(UART_Bridge_initVar != 0u)
 801              		.loc 1 1202 0
 802 0002 074B     		ldr	r3, .L100
 803              		.cfi_offset 14, -4
 804              		.cfi_offset 5, -8
 805              		.cfi_offset 4, -12
 806              		.cfi_offset 3, -16
 807              		.loc 1 1199 0
 808 0004 0546     		mov	r5, r0
 809              		.loc 1 1202 0
 810 0006 1B79     		ldrb	r3, [r3, #4]	@ zero_extendqisi2
 811 0008 43B1     		cbz	r3, .L99
 812              	.LVL47:
 813 000a 0024     		movs	r4, #0
 814              	.LVL48:
 815 000c 03E0     		b	.L97
 816              	.LVL49:
 817              	.L98:
1203:.\Generated_Source\PSoC5/UART_Bridge.c ****         {
1204:.\Generated_Source\PSoC5/UART_Bridge.c ****             /* This is a blocking function, it will not exit until all data is sent*/
1205:.\Generated_Source\PSoC5/UART_Bridge.c ****             while(string[buf_index] != (char8)0)
1206:.\Generated_Source\PSoC5/UART_Bridge.c ****             {
1207:.\Generated_Source\PSoC5/UART_Bridge.c ****                 UART_Bridge_PutChar((uint8)string[buf_index]);
 818              		.loc 1 1207 0
 819 000e FFF7FEFF 		bl	UART_Bridge_PutChar
1208:.\Generated_Source\PSoC5/UART_Bridge.c ****                 buf_index++;
 820              		.loc 1 1208 0
 821 0012 0134     		adds	r4, r4, #1
 822              	.LVL50:
 823 0014 A4B2     		uxth	r4, r4
 824              	.LVL51:
 825              	.L97:
 826              		.loc 1 1205 0
 827 0016 285D     		ldrb	r0, [r5, r4]	@ zero_extendqisi2
 828 0018 0028     		cmp	r0, #0
 829 001a F8D1     		bne	.L98
 830              	.LVL52:
 831              	.L99:
 832 001c 38BD     		pop	{r3, r4, r5, pc}
 833              	.L101:
 834 001e 00BF     		.align	2
 835              	.L100:
 836 0020 00000000 		.word	.LANCHOR0
 837              		.cfi_endproc
 838              	.LFE24:
 839              		.size	UART_Bridge_PutString, .-UART_Bridge_PutString
 840              		.section	.text.UART_Bridge_PutArray,"ax",%progbits
ARM GAS  C:\DOCUME~1\ADMINI~1\LOCALS~1\Temp\cc7EA4qV.s 			page 37


 841              		.align	1
 842              		.global	UART_Bridge_PutArray
 843              		.thumb
 844              		.thumb_func
 845              		.type	UART_Bridge_PutArray, %function
 846              	UART_Bridge_PutArray:
 847              	.LFB25:
1209:.\Generated_Source\PSoC5/UART_Bridge.c ****             }
1210:.\Generated_Source\PSoC5/UART_Bridge.c ****         }
1211:.\Generated_Source\PSoC5/UART_Bridge.c ****     }
1212:.\Generated_Source\PSoC5/UART_Bridge.c **** 
1213:.\Generated_Source\PSoC5/UART_Bridge.c **** 
1214:.\Generated_Source\PSoC5/UART_Bridge.c ****     /*******************************************************************************
1215:.\Generated_Source\PSoC5/UART_Bridge.c ****     * Function Name: UART_Bridge_PutArray
1216:.\Generated_Source\PSoC5/UART_Bridge.c ****     ********************************************************************************
1217:.\Generated_Source\PSoC5/UART_Bridge.c ****     *
1218:.\Generated_Source\PSoC5/UART_Bridge.c ****     * Summary:
1219:.\Generated_Source\PSoC5/UART_Bridge.c ****     *  Write a Sequence of bytes on the Transmit line. Data comes from RAM or ROM.
1220:.\Generated_Source\PSoC5/UART_Bridge.c ****     *
1221:.\Generated_Source\PSoC5/UART_Bridge.c ****     * Parameters:
1222:.\Generated_Source\PSoC5/UART_Bridge.c ****     *  string: Address of the memory array residing in RAM or ROM.
1223:.\Generated_Source\PSoC5/UART_Bridge.c ****     *  byteCount: Number of Bytes to be transmitted.
1224:.\Generated_Source\PSoC5/UART_Bridge.c ****     *
1225:.\Generated_Source\PSoC5/UART_Bridge.c ****     * Return:
1226:.\Generated_Source\PSoC5/UART_Bridge.c ****     *  None.
1227:.\Generated_Source\PSoC5/UART_Bridge.c ****     *
1228:.\Generated_Source\PSoC5/UART_Bridge.c ****     * Global Variables:
1229:.\Generated_Source\PSoC5/UART_Bridge.c ****     *  UART_Bridge_initVar - checked to identify that the component has been
1230:.\Generated_Source\PSoC5/UART_Bridge.c ****     *     initialized.
1231:.\Generated_Source\PSoC5/UART_Bridge.c ****     *
1232:.\Generated_Source\PSoC5/UART_Bridge.c ****     * Reentrant:
1233:.\Generated_Source\PSoC5/UART_Bridge.c ****     *  No.
1234:.\Generated_Source\PSoC5/UART_Bridge.c ****     *
1235:.\Generated_Source\PSoC5/UART_Bridge.c ****     *******************************************************************************/
1236:.\Generated_Source\PSoC5/UART_Bridge.c ****     void UART_Bridge_PutArray(const uint8 string[], uint8 byteCount)
1237:.\Generated_Source\PSoC5/UART_Bridge.c ****                                                                     
1238:.\Generated_Source\PSoC5/UART_Bridge.c ****     {
 848              		.loc 1 1238 0
 849              		.cfi_startproc
 850              		@ args = 0, pretend = 0, frame = 0
 851              		@ frame_needed = 0, uses_anonymous_args = 0
 852              	.LVL53:
 853 0000 70B5     		push	{r4, r5, r6, lr}
 854              	.LCFI6:
 855              		.cfi_def_cfa_offset 16
1239:.\Generated_Source\PSoC5/UART_Bridge.c ****         uint8 buf_index = 0u;
1240:.\Generated_Source\PSoC5/UART_Bridge.c ****         /* If not Initialized then skip this function*/
1241:.\Generated_Source\PSoC5/UART_Bridge.c ****         if(UART_Bridge_initVar != 0u)
 856              		.loc 1 1241 0
 857 0002 074B     		ldr	r3, .L106
 858              		.loc 1 1238 0
 859 0004 0446     		mov	r4, r0
 860              		.cfi_offset 14, -4
 861              		.cfi_offset 6, -8
 862              		.cfi_offset 5, -12
 863              		.cfi_offset 4, -16
 864              		.loc 1 1241 0
ARM GAS  C:\DOCUME~1\ADMINI~1\LOCALS~1\Temp\cc7EA4qV.s 			page 38


 865 0006 1B79     		ldrb	r3, [r3, #4]	@ zero_extendqisi2
 866              		.loc 1 1238 0
 867 0008 0E46     		mov	r6, r1
 868              		.loc 1 1241 0
 869 000a 3BB1     		cbz	r3, .L105
 870              	.LVL54:
 871 000c 0025     		movs	r5, #0
 872              	.L104:
1242:.\Generated_Source\PSoC5/UART_Bridge.c ****         {
1243:.\Generated_Source\PSoC5/UART_Bridge.c ****             do
1244:.\Generated_Source\PSoC5/UART_Bridge.c ****             {
1245:.\Generated_Source\PSoC5/UART_Bridge.c ****                 UART_Bridge_PutChar(string[buf_index]);
 873              		.loc 1 1245 0
 874 000e 605D     		ldrb	r0, [r4, r5]	@ zero_extendqisi2
 875 0010 0135     		adds	r5, r5, #1
 876 0012 FFF7FEFF 		bl	UART_Bridge_PutChar
1246:.\Generated_Source\PSoC5/UART_Bridge.c ****                 buf_index++;
1247:.\Generated_Source\PSoC5/UART_Bridge.c ****             }while(buf_index < byteCount);
 877              		.loc 1 1247 0
 878 0016 EBB2     		uxtb	r3, r5
 879 0018 B342     		cmp	r3, r6
 880 001a F8D3     		bcc	.L104
 881              	.LVL55:
 882              	.L105:
 883 001c 70BD     		pop	{r4, r5, r6, pc}
 884              	.L107:
 885 001e 00BF     		.align	2
 886              	.L106:
 887 0020 00000000 		.word	.LANCHOR0
 888              		.cfi_endproc
 889              	.LFE25:
 890              		.size	UART_Bridge_PutArray, .-UART_Bridge_PutArray
 891              		.section	.text.UART_Bridge_PutCRLF,"ax",%progbits
 892              		.align	1
 893              		.global	UART_Bridge_PutCRLF
 894              		.thumb
 895              		.thumb_func
 896              		.type	UART_Bridge_PutCRLF, %function
 897              	UART_Bridge_PutCRLF:
 898              	.LFB26:
1248:.\Generated_Source\PSoC5/UART_Bridge.c ****         }
1249:.\Generated_Source\PSoC5/UART_Bridge.c ****     }
1250:.\Generated_Source\PSoC5/UART_Bridge.c **** 
1251:.\Generated_Source\PSoC5/UART_Bridge.c **** 
1252:.\Generated_Source\PSoC5/UART_Bridge.c ****     /*******************************************************************************
1253:.\Generated_Source\PSoC5/UART_Bridge.c ****     * Function Name: UART_Bridge_PutCRLF
1254:.\Generated_Source\PSoC5/UART_Bridge.c ****     ********************************************************************************
1255:.\Generated_Source\PSoC5/UART_Bridge.c ****     *
1256:.\Generated_Source\PSoC5/UART_Bridge.c ****     * Summary:
1257:.\Generated_Source\PSoC5/UART_Bridge.c ****     *  Write a character and then carriage return and line feed.
1258:.\Generated_Source\PSoC5/UART_Bridge.c ****     *
1259:.\Generated_Source\PSoC5/UART_Bridge.c ****     * Parameters:
1260:.\Generated_Source\PSoC5/UART_Bridge.c ****     *  txDataByte: uint8 Character to send.
1261:.\Generated_Source\PSoC5/UART_Bridge.c ****     *
1262:.\Generated_Source\PSoC5/UART_Bridge.c ****     * Return:
1263:.\Generated_Source\PSoC5/UART_Bridge.c ****     *  None.
1264:.\Generated_Source\PSoC5/UART_Bridge.c ****     *
ARM GAS  C:\DOCUME~1\ADMINI~1\LOCALS~1\Temp\cc7EA4qV.s 			page 39


1265:.\Generated_Source\PSoC5/UART_Bridge.c ****     * Global Variables:
1266:.\Generated_Source\PSoC5/UART_Bridge.c ****     *  UART_Bridge_initVar - checked to identify that the component has been
1267:.\Generated_Source\PSoC5/UART_Bridge.c ****     *     initialized.
1268:.\Generated_Source\PSoC5/UART_Bridge.c ****     *
1269:.\Generated_Source\PSoC5/UART_Bridge.c ****     * Reentrant:
1270:.\Generated_Source\PSoC5/UART_Bridge.c ****     *  No.
1271:.\Generated_Source\PSoC5/UART_Bridge.c ****     *
1272:.\Generated_Source\PSoC5/UART_Bridge.c ****     *******************************************************************************/
1273:.\Generated_Source\PSoC5/UART_Bridge.c ****     void UART_Bridge_PutCRLF(uint8 txDataByte) 
1274:.\Generated_Source\PSoC5/UART_Bridge.c ****     {
 899              		.loc 1 1274 0
 900              		.cfi_startproc
 901              		@ args = 0, pretend = 0, frame = 0
 902              		@ frame_needed = 0, uses_anonymous_args = 0
 903              	.LVL56:
 904 0000 10B5     		push	{r4, lr}
 905              	.LCFI7:
 906              		.cfi_def_cfa_offset 8
1275:.\Generated_Source\PSoC5/UART_Bridge.c ****         /* If not Initialized then skip this function*/
1276:.\Generated_Source\PSoC5/UART_Bridge.c ****         if(UART_Bridge_initVar != 0u)
 907              		.loc 1 1276 0
 908 0002 074B     		ldr	r3, .L111
 909 0004 1B79     		ldrb	r3, [r3, #4]	@ zero_extendqisi2
 910 0006 4BB1     		cbz	r3, .L110
 911              		.cfi_offset 14, -4
 912              		.cfi_offset 4, -8
1277:.\Generated_Source\PSoC5/UART_Bridge.c ****         {
1278:.\Generated_Source\PSoC5/UART_Bridge.c ****             UART_Bridge_PutChar(txDataByte);
 913              		.loc 1 1278 0
 914 0008 FFF7FEFF 		bl	UART_Bridge_PutChar
 915              	.LVL57:
1279:.\Generated_Source\PSoC5/UART_Bridge.c ****             UART_Bridge_PutChar(0x0Du);
 916              		.loc 1 1279 0
 917 000c 0D20     		movs	r0, #13
 918 000e FFF7FEFF 		bl	UART_Bridge_PutChar
1280:.\Generated_Source\PSoC5/UART_Bridge.c ****             UART_Bridge_PutChar(0x0Au);
 919              		.loc 1 1280 0
 920 0012 0A20     		movs	r0, #10
1281:.\Generated_Source\PSoC5/UART_Bridge.c ****         }
1282:.\Generated_Source\PSoC5/UART_Bridge.c ****     }
 921              		.loc 1 1282 0
 922 0014 BDE81040 		pop	{r4, lr}
 923              		.loc 1 1280 0
 924 0018 FFF7FEBF 		b	UART_Bridge_PutChar
 925              	.LVL58:
 926              	.L110:
 927 001c 10BD     		pop	{r4, pc}
 928              	.L112:
 929 001e 00BF     		.align	2
 930              	.L111:
 931 0020 00000000 		.word	.LANCHOR0
 932              		.cfi_endproc
 933              	.LFE26:
 934              		.size	UART_Bridge_PutCRLF, .-UART_Bridge_PutCRLF
 935              		.section	.text.UART_Bridge_GetTxBufferSize,"ax",%progbits
 936              		.align	1
 937              		.global	UART_Bridge_GetTxBufferSize
ARM GAS  C:\DOCUME~1\ADMINI~1\LOCALS~1\Temp\cc7EA4qV.s 			page 40


 938              		.thumb
 939              		.thumb_func
 940              		.type	UART_Bridge_GetTxBufferSize, %function
 941              	UART_Bridge_GetTxBufferSize:
 942              	.LFB27:
1283:.\Generated_Source\PSoC5/UART_Bridge.c **** 
1284:.\Generated_Source\PSoC5/UART_Bridge.c **** 
1285:.\Generated_Source\PSoC5/UART_Bridge.c ****     /*******************************************************************************
1286:.\Generated_Source\PSoC5/UART_Bridge.c ****     * Function Name: UART_Bridge_GetTxBufferSize
1287:.\Generated_Source\PSoC5/UART_Bridge.c ****     ********************************************************************************
1288:.\Generated_Source\PSoC5/UART_Bridge.c ****     *
1289:.\Generated_Source\PSoC5/UART_Bridge.c ****     * Summary:
1290:.\Generated_Source\PSoC5/UART_Bridge.c ****     *  Determine the amount of space left in the TX buffer and return the count in
1291:.\Generated_Source\PSoC5/UART_Bridge.c ****     *  bytes
1292:.\Generated_Source\PSoC5/UART_Bridge.c ****     *
1293:.\Generated_Source\PSoC5/UART_Bridge.c ****     * Parameters:
1294:.\Generated_Source\PSoC5/UART_Bridge.c ****     *  None.
1295:.\Generated_Source\PSoC5/UART_Bridge.c ****     *
1296:.\Generated_Source\PSoC5/UART_Bridge.c ****     * Return:
1297:.\Generated_Source\PSoC5/UART_Bridge.c ****     *  Integer count of the number of bytes left in the TX buffer
1298:.\Generated_Source\PSoC5/UART_Bridge.c ****     *
1299:.\Generated_Source\PSoC5/UART_Bridge.c ****     * Global Variables:
1300:.\Generated_Source\PSoC5/UART_Bridge.c ****     *  UART_Bridge_txBufferWrite - used to calculate left space.
1301:.\Generated_Source\PSoC5/UART_Bridge.c ****     *  UART_Bridge_txBufferRead - used to calculate left space.
1302:.\Generated_Source\PSoC5/UART_Bridge.c ****     *
1303:.\Generated_Source\PSoC5/UART_Bridge.c ****     * Reentrant:
1304:.\Generated_Source\PSoC5/UART_Bridge.c ****     *  No.
1305:.\Generated_Source\PSoC5/UART_Bridge.c ****     *
1306:.\Generated_Source\PSoC5/UART_Bridge.c ****     * Theory:
1307:.\Generated_Source\PSoC5/UART_Bridge.c ****     *  Allows the user to find out how full the TX Buffer is.
1308:.\Generated_Source\PSoC5/UART_Bridge.c ****     *
1309:.\Generated_Source\PSoC5/UART_Bridge.c ****     *******************************************************************************/
1310:.\Generated_Source\PSoC5/UART_Bridge.c ****     uint8 UART_Bridge_GetTxBufferSize(void)
1311:.\Generated_Source\PSoC5/UART_Bridge.c ****                                                             
1312:.\Generated_Source\PSoC5/UART_Bridge.c ****     {
 943              		.loc 1 1312 0
 944              		.cfi_startproc
 945              		@ args = 0, pretend = 0, frame = 0
 946              		@ frame_needed = 0, uses_anonymous_args = 0
 947 0000 10B5     		push	{r4, lr}
 948              	.LCFI8:
 949              		.cfi_def_cfa_offset 8
1313:.\Generated_Source\PSoC5/UART_Bridge.c ****         uint8 size;
1314:.\Generated_Source\PSoC5/UART_Bridge.c **** 
1315:.\Generated_Source\PSoC5/UART_Bridge.c ****         #if(UART_Bridge_TXBUFFERSIZE > UART_Bridge_FIFO_LENGTH)
1316:.\Generated_Source\PSoC5/UART_Bridge.c **** 
1317:.\Generated_Source\PSoC5/UART_Bridge.c ****             /* Disable Tx interrupt. */
1318:.\Generated_Source\PSoC5/UART_Bridge.c ****             /* Protect variables that could change on interrupt. */
1319:.\Generated_Source\PSoC5/UART_Bridge.c ****             #if(UART_Bridge_TX_INTERRUPT_ENABLED)
1320:.\Generated_Source\PSoC5/UART_Bridge.c ****                 UART_Bridge_DisableTxInt();
 950              		.loc 1 1320 0
 951              		.cfi_offset 14, -4
 952              		.cfi_offset 4, -8
 953 0002 FFF7FEFF 		bl	UART_Bridge_DisableTxInt
1321:.\Generated_Source\PSoC5/UART_Bridge.c ****             #endif /* End UART_Bridge_TX_INTERRUPT_ENABLED */
1322:.\Generated_Source\PSoC5/UART_Bridge.c **** 
1323:.\Generated_Source\PSoC5/UART_Bridge.c ****             if(UART_Bridge_txBufferRead == UART_Bridge_txBufferWrite)
ARM GAS  C:\DOCUME~1\ADMINI~1\LOCALS~1\Temp\cc7EA4qV.s 			page 41


 954              		.loc 1 1323 0
 955 0006 0B4B     		ldr	r3, .L119
 956 0008 5979     		ldrb	r1, [r3, #5]	@ zero_extendqisi2
 957 000a 9A79     		ldrb	r2, [r3, #6]	@ zero_extendqisi2
 958 000c 9142     		cmp	r1, r2
 959 000e 01D1     		bne	.L114
 960 0010 0024     		movs	r4, #0
 961              	.LVL59:
 962 0012 0AE0     		b	.L115
 963              	.LVL60:
 964              	.L114:
1324:.\Generated_Source\PSoC5/UART_Bridge.c ****             {
1325:.\Generated_Source\PSoC5/UART_Bridge.c ****                 size = 0u;
1326:.\Generated_Source\PSoC5/UART_Bridge.c ****             }
1327:.\Generated_Source\PSoC5/UART_Bridge.c ****             else if(UART_Bridge_txBufferRead < UART_Bridge_txBufferWrite)
 965              		.loc 1 1327 0
 966 0014 5979     		ldrb	r1, [r3, #5]	@ zero_extendqisi2
 967 0016 9142     		cmp	r1, r2
 968 0018 02D2     		bcs	.L116
1328:.\Generated_Source\PSoC5/UART_Bridge.c ****             {
1329:.\Generated_Source\PSoC5/UART_Bridge.c ****                 size = (UART_Bridge_txBufferWrite - UART_Bridge_txBufferRead);
 969              		.loc 1 1329 0
 970 001a 5C79     		ldrb	r4, [r3, #5]	@ zero_extendqisi2
 971 001c 141B     		subs	r4, r2, r4
 972 001e 03E0     		b	.L118
 973              	.L116:
1330:.\Generated_Source\PSoC5/UART_Bridge.c ****             }
1331:.\Generated_Source\PSoC5/UART_Bridge.c ****             else
1332:.\Generated_Source\PSoC5/UART_Bridge.c ****             {
1333:.\Generated_Source\PSoC5/UART_Bridge.c ****                 size = (UART_Bridge_TXBUFFERSIZE - UART_Bridge_txBufferRead) + UART_Bridge_txBuffer
 974              		.loc 1 1333 0
 975 0020 5B79     		ldrb	r3, [r3, #5]	@ zero_extendqisi2
 976 0022 A2F18004 		sub	r4, r2, #128
 977 0026 E41A     		subs	r4, r4, r3
 978              	.L118:
 979 0028 E4B2     		uxtb	r4, r4
 980              	.LVL61:
 981              	.L115:
1334:.\Generated_Source\PSoC5/UART_Bridge.c ****             }
1335:.\Generated_Source\PSoC5/UART_Bridge.c **** 
1336:.\Generated_Source\PSoC5/UART_Bridge.c ****             /* Enable Tx interrupt. */
1337:.\Generated_Source\PSoC5/UART_Bridge.c ****             #if(UART_Bridge_TX_INTERRUPT_ENABLED)
1338:.\Generated_Source\PSoC5/UART_Bridge.c ****                 UART_Bridge_EnableTxInt();
 982              		.loc 1 1338 0
 983 002a FFF7FEFF 		bl	UART_Bridge_EnableTxInt
1339:.\Generated_Source\PSoC5/UART_Bridge.c ****             #endif /* End UART_Bridge_TX_INTERRUPT_ENABLED */
1340:.\Generated_Source\PSoC5/UART_Bridge.c **** 
1341:.\Generated_Source\PSoC5/UART_Bridge.c ****         #else /* UART_Bridge_TXBUFFERSIZE > UART_Bridge_FIFO_LENGTH */
1342:.\Generated_Source\PSoC5/UART_Bridge.c **** 
1343:.\Generated_Source\PSoC5/UART_Bridge.c ****             size = UART_Bridge_TXSTATUS_REG;
1344:.\Generated_Source\PSoC5/UART_Bridge.c **** 
1345:.\Generated_Source\PSoC5/UART_Bridge.c ****             /* Is the fifo is full. */
1346:.\Generated_Source\PSoC5/UART_Bridge.c ****             if((size & UART_Bridge_TX_STS_FIFO_FULL) != 0u)
1347:.\Generated_Source\PSoC5/UART_Bridge.c ****             {
1348:.\Generated_Source\PSoC5/UART_Bridge.c ****                 size = UART_Bridge_FIFO_LENGTH;
1349:.\Generated_Source\PSoC5/UART_Bridge.c ****             }
1350:.\Generated_Source\PSoC5/UART_Bridge.c ****             else if((size & UART_Bridge_TX_STS_FIFO_EMPTY) != 0u)
ARM GAS  C:\DOCUME~1\ADMINI~1\LOCALS~1\Temp\cc7EA4qV.s 			page 42


1351:.\Generated_Source\PSoC5/UART_Bridge.c ****             {
1352:.\Generated_Source\PSoC5/UART_Bridge.c ****                 size = 0u;
1353:.\Generated_Source\PSoC5/UART_Bridge.c ****             }
1354:.\Generated_Source\PSoC5/UART_Bridge.c ****             else
1355:.\Generated_Source\PSoC5/UART_Bridge.c ****             {
1356:.\Generated_Source\PSoC5/UART_Bridge.c ****                 /* We only know there is data in the fifo. */
1357:.\Generated_Source\PSoC5/UART_Bridge.c ****                 size = 1u;
1358:.\Generated_Source\PSoC5/UART_Bridge.c ****             }
1359:.\Generated_Source\PSoC5/UART_Bridge.c **** 
1360:.\Generated_Source\PSoC5/UART_Bridge.c ****         #endif /* End UART_Bridge_TXBUFFERSIZE > UART_Bridge_FIFO_LENGTH */
1361:.\Generated_Source\PSoC5/UART_Bridge.c **** 
1362:.\Generated_Source\PSoC5/UART_Bridge.c ****         return(size);
1363:.\Generated_Source\PSoC5/UART_Bridge.c ****     }
 984              		.loc 1 1363 0
 985 002e 2046     		mov	r0, r4
 986 0030 10BD     		pop	{r4, pc}
 987              	.L120:
 988 0032 00BF     		.align	2
 989              	.L119:
 990 0034 00000000 		.word	.LANCHOR0
 991              		.cfi_endproc
 992              	.LFE27:
 993              		.size	UART_Bridge_GetTxBufferSize, .-UART_Bridge_GetTxBufferSize
 994              		.section	.text.UART_Bridge_SendBreak,"ax",%progbits
 995              		.align	1
 996              		.global	UART_Bridge_SendBreak
 997              		.thumb
 998              		.thumb_func
 999              		.type	UART_Bridge_SendBreak, %function
 1000              	UART_Bridge_SendBreak:
 1001              	.LFB29:
1364:.\Generated_Source\PSoC5/UART_Bridge.c **** 
1365:.\Generated_Source\PSoC5/UART_Bridge.c **** 
1366:.\Generated_Source\PSoC5/UART_Bridge.c ****     /*******************************************************************************
1367:.\Generated_Source\PSoC5/UART_Bridge.c ****     * Function Name: UART_Bridge_ClearTxBuffer
1368:.\Generated_Source\PSoC5/UART_Bridge.c ****     ********************************************************************************
1369:.\Generated_Source\PSoC5/UART_Bridge.c ****     *
1370:.\Generated_Source\PSoC5/UART_Bridge.c ****     * Summary:
1371:.\Generated_Source\PSoC5/UART_Bridge.c ****     *  Clears the TX RAM buffer by setting the read and write pointers both to zero.
1372:.\Generated_Source\PSoC5/UART_Bridge.c ****     *  Clears the hardware TX FIFO.  Any data present in the FIFO will not be sent.
1373:.\Generated_Source\PSoC5/UART_Bridge.c ****     *
1374:.\Generated_Source\PSoC5/UART_Bridge.c ****     * Parameters:
1375:.\Generated_Source\PSoC5/UART_Bridge.c ****     *  None.
1376:.\Generated_Source\PSoC5/UART_Bridge.c ****     *
1377:.\Generated_Source\PSoC5/UART_Bridge.c ****     * Return:
1378:.\Generated_Source\PSoC5/UART_Bridge.c ****     *  None.
1379:.\Generated_Source\PSoC5/UART_Bridge.c ****     *
1380:.\Generated_Source\PSoC5/UART_Bridge.c ****     * Global Variables:
1381:.\Generated_Source\PSoC5/UART_Bridge.c ****     *  UART_Bridge_txBufferWrite - cleared to zero.
1382:.\Generated_Source\PSoC5/UART_Bridge.c ****     *  UART_Bridge_txBufferRead - cleared to zero.
1383:.\Generated_Source\PSoC5/UART_Bridge.c ****     *
1384:.\Generated_Source\PSoC5/UART_Bridge.c ****     * Reentrant:
1385:.\Generated_Source\PSoC5/UART_Bridge.c ****     *  No.
1386:.\Generated_Source\PSoC5/UART_Bridge.c ****     *
1387:.\Generated_Source\PSoC5/UART_Bridge.c ****     * Theory:
1388:.\Generated_Source\PSoC5/UART_Bridge.c ****     *  Setting the pointers to zero makes the system believe there is no data to
1389:.\Generated_Source\PSoC5/UART_Bridge.c ****     *  read and writing will resume at address 0 overwriting any data that may have
ARM GAS  C:\DOCUME~1\ADMINI~1\LOCALS~1\Temp\cc7EA4qV.s 			page 43


1390:.\Generated_Source\PSoC5/UART_Bridge.c ****     *  remained in the RAM.
1391:.\Generated_Source\PSoC5/UART_Bridge.c ****     *
1392:.\Generated_Source\PSoC5/UART_Bridge.c ****     * Side Effects:
1393:.\Generated_Source\PSoC5/UART_Bridge.c ****     *  Any received data not read from the RAM buffer will be lost when overwritten.
1394:.\Generated_Source\PSoC5/UART_Bridge.c ****     *
1395:.\Generated_Source\PSoC5/UART_Bridge.c ****     *******************************************************************************/
1396:.\Generated_Source\PSoC5/UART_Bridge.c ****     void UART_Bridge_ClearTxBuffer(void) 
1397:.\Generated_Source\PSoC5/UART_Bridge.c ****     {
1398:.\Generated_Source\PSoC5/UART_Bridge.c ****         uint8 enableInterrupts;
1399:.\Generated_Source\PSoC5/UART_Bridge.c **** 
1400:.\Generated_Source\PSoC5/UART_Bridge.c ****         /* Enter critical section */
1401:.\Generated_Source\PSoC5/UART_Bridge.c ****         enableInterrupts = CyEnterCriticalSection();
1402:.\Generated_Source\PSoC5/UART_Bridge.c ****         /* clear the HW FIFO */
1403:.\Generated_Source\PSoC5/UART_Bridge.c ****         UART_Bridge_TXDATA_AUX_CTL_REG |=  UART_Bridge_TX_FIFO_CLR;
1404:.\Generated_Source\PSoC5/UART_Bridge.c ****         UART_Bridge_TXDATA_AUX_CTL_REG &= (uint8)~UART_Bridge_TX_FIFO_CLR;
1405:.\Generated_Source\PSoC5/UART_Bridge.c ****         /* Exit critical section */
1406:.\Generated_Source\PSoC5/UART_Bridge.c ****         CyExitCriticalSection(enableInterrupts);
1407:.\Generated_Source\PSoC5/UART_Bridge.c **** 
1408:.\Generated_Source\PSoC5/UART_Bridge.c ****         #if(UART_Bridge_TXBUFFERSIZE > UART_Bridge_FIFO_LENGTH)
1409:.\Generated_Source\PSoC5/UART_Bridge.c **** 
1410:.\Generated_Source\PSoC5/UART_Bridge.c ****             /* Disable Tx interrupt. */
1411:.\Generated_Source\PSoC5/UART_Bridge.c ****             /* Protect variables that could change on interrupt. */
1412:.\Generated_Source\PSoC5/UART_Bridge.c ****             #if(UART_Bridge_TX_INTERRUPT_ENABLED)
1413:.\Generated_Source\PSoC5/UART_Bridge.c ****                 UART_Bridge_DisableTxInt();
1414:.\Generated_Source\PSoC5/UART_Bridge.c ****             #endif /* End UART_Bridge_TX_INTERRUPT_ENABLED */
1415:.\Generated_Source\PSoC5/UART_Bridge.c **** 
1416:.\Generated_Source\PSoC5/UART_Bridge.c ****             UART_Bridge_txBufferRead = 0u;
1417:.\Generated_Source\PSoC5/UART_Bridge.c ****             UART_Bridge_txBufferWrite = 0u;
1418:.\Generated_Source\PSoC5/UART_Bridge.c **** 
1419:.\Generated_Source\PSoC5/UART_Bridge.c ****             /* Enable Tx interrupt. */
1420:.\Generated_Source\PSoC5/UART_Bridge.c ****             #if(UART_Bridge_TX_INTERRUPT_ENABLED)
1421:.\Generated_Source\PSoC5/UART_Bridge.c ****                 UART_Bridge_EnableTxInt();
1422:.\Generated_Source\PSoC5/UART_Bridge.c ****             #endif /* End UART_Bridge_TX_INTERRUPT_ENABLED */
1423:.\Generated_Source\PSoC5/UART_Bridge.c **** 
1424:.\Generated_Source\PSoC5/UART_Bridge.c ****         #endif /* End UART_Bridge_TXBUFFERSIZE > UART_Bridge_FIFO_LENGTH */
1425:.\Generated_Source\PSoC5/UART_Bridge.c ****     }
1426:.\Generated_Source\PSoC5/UART_Bridge.c **** 
1427:.\Generated_Source\PSoC5/UART_Bridge.c **** 
1428:.\Generated_Source\PSoC5/UART_Bridge.c ****     /*******************************************************************************
1429:.\Generated_Source\PSoC5/UART_Bridge.c ****     * Function Name: UART_Bridge_SendBreak
1430:.\Generated_Source\PSoC5/UART_Bridge.c ****     ********************************************************************************
1431:.\Generated_Source\PSoC5/UART_Bridge.c ****     *
1432:.\Generated_Source\PSoC5/UART_Bridge.c ****     * Summary:
1433:.\Generated_Source\PSoC5/UART_Bridge.c ****     *  Write a Break command to the UART
1434:.\Generated_Source\PSoC5/UART_Bridge.c ****     *
1435:.\Generated_Source\PSoC5/UART_Bridge.c ****     * Parameters:
1436:.\Generated_Source\PSoC5/UART_Bridge.c ****     *  uint8 retMode:  Wait mode,
1437:.\Generated_Source\PSoC5/UART_Bridge.c ****     *   0 - Initialize registers for Break, sends the Break signal and return
1438:.\Generated_Source\PSoC5/UART_Bridge.c ****     *       imediately.
1439:.\Generated_Source\PSoC5/UART_Bridge.c ****     *   1 - Wait until Break sending is complete, reinitialize registers to normal
1440:.\Generated_Source\PSoC5/UART_Bridge.c ****     *       transmission mode then return.
1441:.\Generated_Source\PSoC5/UART_Bridge.c ****     *   2 - Reinitialize registers to normal transmission mode then return.
1442:.\Generated_Source\PSoC5/UART_Bridge.c ****     *   3 - both steps: 0 and 1
1443:.\Generated_Source\PSoC5/UART_Bridge.c ****     *       init registers for Break, send Break signal
1444:.\Generated_Source\PSoC5/UART_Bridge.c ****     *       wait until Break sending is complete, reinit registers to normal
1445:.\Generated_Source\PSoC5/UART_Bridge.c ****     *       transmission mode then return.
1446:.\Generated_Source\PSoC5/UART_Bridge.c ****     *
ARM GAS  C:\DOCUME~1\ADMINI~1\LOCALS~1\Temp\cc7EA4qV.s 			page 44


1447:.\Generated_Source\PSoC5/UART_Bridge.c ****     * Return:
1448:.\Generated_Source\PSoC5/UART_Bridge.c ****     *  None.
1449:.\Generated_Source\PSoC5/UART_Bridge.c ****     *
1450:.\Generated_Source\PSoC5/UART_Bridge.c ****     * Global Variables:
1451:.\Generated_Source\PSoC5/UART_Bridge.c ****     *  UART_Bridge_initVar - checked to identify that the component has been
1452:.\Generated_Source\PSoC5/UART_Bridge.c ****     *     initialized.
1453:.\Generated_Source\PSoC5/UART_Bridge.c ****     *  tx_period - static variable, used for keeping TX period configuration.
1454:.\Generated_Source\PSoC5/UART_Bridge.c ****     *
1455:.\Generated_Source\PSoC5/UART_Bridge.c ****     * Reentrant:
1456:.\Generated_Source\PSoC5/UART_Bridge.c ****     *  No.
1457:.\Generated_Source\PSoC5/UART_Bridge.c ****     *
1458:.\Generated_Source\PSoC5/UART_Bridge.c ****     * Theory:
1459:.\Generated_Source\PSoC5/UART_Bridge.c ****     *  SendBreak function initializes registers to send 13-bit break signal. It is
1460:.\Generated_Source\PSoC5/UART_Bridge.c ****     *  important to return the registers configuration to normal for continue 8-bit
1461:.\Generated_Source\PSoC5/UART_Bridge.c ****     *  operation.
1462:.\Generated_Source\PSoC5/UART_Bridge.c ****     *  Trere are 3 variants for this API usage:
1463:.\Generated_Source\PSoC5/UART_Bridge.c ****     *  1) SendBreak(3) - function will send the Break signal and take care on the
1464:.\Generated_Source\PSoC5/UART_Bridge.c ****     *     configuration returning. Funcition will block CPU untill transmition
1465:.\Generated_Source\PSoC5/UART_Bridge.c ****     *     complete.
1466:.\Generated_Source\PSoC5/UART_Bridge.c ****     *  2) User may want to use bloking time if UART configured to the low speed
1467:.\Generated_Source\PSoC5/UART_Bridge.c ****     *     operation
1468:.\Generated_Source\PSoC5/UART_Bridge.c ****     *     Emample for this case:
1469:.\Generated_Source\PSoC5/UART_Bridge.c ****     *     SendBreak(0);     - init Break signal transmition
1470:.\Generated_Source\PSoC5/UART_Bridge.c ****     *         Add your code here to use CPU time
1471:.\Generated_Source\PSoC5/UART_Bridge.c ****     *     SendBreak(1);     - complete Break operation
1472:.\Generated_Source\PSoC5/UART_Bridge.c ****     *  3) Same to 2) but user may want to init and use the interrupt for complete
1473:.\Generated_Source\PSoC5/UART_Bridge.c ****     *     break operation.
1474:.\Generated_Source\PSoC5/UART_Bridge.c ****     *     Example for this case:
1475:.\Generated_Source\PSoC5/UART_Bridge.c ****     *     Init TX interrupt whith "TX - On TX Complete" parameter
1476:.\Generated_Source\PSoC5/UART_Bridge.c ****     *     SendBreak(0);     - init Break signal transmition
1477:.\Generated_Source\PSoC5/UART_Bridge.c ****     *         Add your code here to use CPU time
1478:.\Generated_Source\PSoC5/UART_Bridge.c ****     *     When interrupt appear with UART_TX_STS_COMPLETE status:
1479:.\Generated_Source\PSoC5/UART_Bridge.c ****     *     SendBreak(2);     - complete Break operation
1480:.\Generated_Source\PSoC5/UART_Bridge.c ****     *
1481:.\Generated_Source\PSoC5/UART_Bridge.c ****     * Side Effects:
1482:.\Generated_Source\PSoC5/UART_Bridge.c ****     *   Uses static variable to keep registers configuration.
1483:.\Generated_Source\PSoC5/UART_Bridge.c ****     *
1484:.\Generated_Source\PSoC5/UART_Bridge.c ****     *******************************************************************************/
1485:.\Generated_Source\PSoC5/UART_Bridge.c ****     void UART_Bridge_SendBreak(uint8 retMode) 
1486:.\Generated_Source\PSoC5/UART_Bridge.c ****     {
 1002              		.loc 1 1486 0
 1003              		.cfi_startproc
 1004              		@ args = 0, pretend = 0, frame = 0
 1005              		@ frame_needed = 0, uses_anonymous_args = 0
 1006              		@ link register save eliminated.
 1007              	.LVL62:
1487:.\Generated_Source\PSoC5/UART_Bridge.c **** 
1488:.\Generated_Source\PSoC5/UART_Bridge.c ****         /* If not Initialized then skip this function*/
1489:.\Generated_Source\PSoC5/UART_Bridge.c ****         if(UART_Bridge_initVar != 0u)
 1008              		.loc 1 1489 0
 1009 0000 124B     		ldr	r3, .L129
 1010 0002 1B79     		ldrb	r3, [r3, #4]	@ zero_extendqisi2
 1011 0004 0BB3     		cbz	r3, .L128
 1012              	.LBB2:
1490:.\Generated_Source\PSoC5/UART_Bridge.c ****         {
1491:.\Generated_Source\PSoC5/UART_Bridge.c ****             /*Set the Counter to 13-bits and transmit a 00 byte*/
1492:.\Generated_Source\PSoC5/UART_Bridge.c ****             /*When that is done then reset the counter value back*/
ARM GAS  C:\DOCUME~1\ADMINI~1\LOCALS~1\Temp\cc7EA4qV.s 			page 45


1493:.\Generated_Source\PSoC5/UART_Bridge.c ****             uint8 tmpStat;
1494:.\Generated_Source\PSoC5/UART_Bridge.c **** 
1495:.\Generated_Source\PSoC5/UART_Bridge.c ****             #if(UART_Bridge_HD_ENABLED) /* Half Duplex mode*/
1496:.\Generated_Source\PSoC5/UART_Bridge.c **** 
1497:.\Generated_Source\PSoC5/UART_Bridge.c ****                 if( (retMode == UART_Bridge_SEND_BREAK) ||
1498:.\Generated_Source\PSoC5/UART_Bridge.c ****                     (retMode == UART_Bridge_SEND_WAIT_REINIT ) )
1499:.\Generated_Source\PSoC5/UART_Bridge.c ****                 {
1500:.\Generated_Source\PSoC5/UART_Bridge.c ****                     /* CTRL_HD_SEND_BREAK - sends break bits in HD mode*/
1501:.\Generated_Source\PSoC5/UART_Bridge.c ****                     UART_Bridge_WriteControlRegister(UART_Bridge_ReadControlRegister() |
1502:.\Generated_Source\PSoC5/UART_Bridge.c ****                                                           UART_Bridge_CTRL_HD_SEND_BREAK);
1503:.\Generated_Source\PSoC5/UART_Bridge.c ****                     /* Send zeros*/
1504:.\Generated_Source\PSoC5/UART_Bridge.c ****                     UART_Bridge_TXDATA_REG = 0u;
1505:.\Generated_Source\PSoC5/UART_Bridge.c **** 
1506:.\Generated_Source\PSoC5/UART_Bridge.c ****                     do /*wait until transmit starts*/
1507:.\Generated_Source\PSoC5/UART_Bridge.c ****                     {
1508:.\Generated_Source\PSoC5/UART_Bridge.c ****                         tmpStat = UART_Bridge_TXSTATUS_REG;
1509:.\Generated_Source\PSoC5/UART_Bridge.c ****                     }while((tmpStat & UART_Bridge_TX_STS_FIFO_EMPTY) != 0u);
1510:.\Generated_Source\PSoC5/UART_Bridge.c ****                 }
1511:.\Generated_Source\PSoC5/UART_Bridge.c **** 
1512:.\Generated_Source\PSoC5/UART_Bridge.c ****                 if( (retMode == UART_Bridge_WAIT_FOR_COMPLETE_REINIT) ||
1513:.\Generated_Source\PSoC5/UART_Bridge.c ****                     (retMode == UART_Bridge_SEND_WAIT_REINIT) )
1514:.\Generated_Source\PSoC5/UART_Bridge.c ****                 {
1515:.\Generated_Source\PSoC5/UART_Bridge.c ****                     do /*wait until transmit complete*/
1516:.\Generated_Source\PSoC5/UART_Bridge.c ****                     {
1517:.\Generated_Source\PSoC5/UART_Bridge.c ****                         tmpStat = UART_Bridge_TXSTATUS_REG;
1518:.\Generated_Source\PSoC5/UART_Bridge.c ****                     }while(((uint8)~tmpStat & UART_Bridge_TX_STS_COMPLETE) != 0u);
1519:.\Generated_Source\PSoC5/UART_Bridge.c ****                 }
1520:.\Generated_Source\PSoC5/UART_Bridge.c **** 
1521:.\Generated_Source\PSoC5/UART_Bridge.c ****                 if( (retMode == UART_Bridge_WAIT_FOR_COMPLETE_REINIT) ||
1522:.\Generated_Source\PSoC5/UART_Bridge.c ****                     (retMode == UART_Bridge_REINIT) ||
1523:.\Generated_Source\PSoC5/UART_Bridge.c ****                     (retMode == UART_Bridge_SEND_WAIT_REINIT) )
1524:.\Generated_Source\PSoC5/UART_Bridge.c ****                 {
1525:.\Generated_Source\PSoC5/UART_Bridge.c ****                     UART_Bridge_WriteControlRegister(UART_Bridge_ReadControlRegister() &
1526:.\Generated_Source\PSoC5/UART_Bridge.c ****                                                   (uint8)~UART_Bridge_CTRL_HD_SEND_BREAK);
1527:.\Generated_Source\PSoC5/UART_Bridge.c ****                 }
1528:.\Generated_Source\PSoC5/UART_Bridge.c **** 
1529:.\Generated_Source\PSoC5/UART_Bridge.c ****             #else /* UART_Bridge_HD_ENABLED Full Duplex mode */
1530:.\Generated_Source\PSoC5/UART_Bridge.c **** 
1531:.\Generated_Source\PSoC5/UART_Bridge.c ****                 static uint8 tx_period;
1532:.\Generated_Source\PSoC5/UART_Bridge.c **** 
1533:.\Generated_Source\PSoC5/UART_Bridge.c ****                 if( (retMode == UART_Bridge_SEND_BREAK) ||
 1013              		.loc 1 1533 0
 1014 0006 08B1     		cbz	r0, .L123
 1015 0008 0328     		cmp	r0, #3
 1016 000a 0DD1     		bne	.L124
 1017              	.L123:
1534:.\Generated_Source\PSoC5/UART_Bridge.c ****                     (retMode == UART_Bridge_SEND_WAIT_REINIT) )
1535:.\Generated_Source\PSoC5/UART_Bridge.c ****                 {
1536:.\Generated_Source\PSoC5/UART_Bridge.c ****                     /* CTRL_HD_SEND_BREAK - skip to send parity bit at Break signal in Full Duplex 
1537:.\Generated_Source\PSoC5/UART_Bridge.c ****                     #if( (UART_Bridge_PARITY_TYPE != UART_Bridge__B_UART__NONE_REVB) || \
1538:.\Generated_Source\PSoC5/UART_Bridge.c ****                                         (UART_Bridge_PARITY_TYPE_SW != 0u) )
1539:.\Generated_Source\PSoC5/UART_Bridge.c ****                         UART_Bridge_WriteControlRegister(UART_Bridge_ReadControlRegister() |
1540:.\Generated_Source\PSoC5/UART_Bridge.c ****                                                               UART_Bridge_CTRL_HD_SEND_BREAK);
1541:.\Generated_Source\PSoC5/UART_Bridge.c ****                     #endif /* End UART_Bridge_PARITY_TYPE != UART_Bridge__B_UART__NONE_REVB  */
1542:.\Generated_Source\PSoC5/UART_Bridge.c **** 
1543:.\Generated_Source\PSoC5/UART_Bridge.c ****                     #if(UART_Bridge_TXCLKGEN_DP)
1544:.\Generated_Source\PSoC5/UART_Bridge.c ****                         tx_period = UART_Bridge_TXBITCLKTX_COMPLETE_REG;
ARM GAS  C:\DOCUME~1\ADMINI~1\LOCALS~1\Temp\cc7EA4qV.s 			page 46


 1018              		.loc 1 1544 0
 1019 000c 104B     		ldr	r3, .L129+4
 1020 000e 0F4A     		ldr	r2, .L129
 1021 0010 1978     		ldrb	r1, [r3, #0]	@ zero_extendqisi2
 1022 0012 D171     		strb	r1, [r2, #7]
1545:.\Generated_Source\PSoC5/UART_Bridge.c ****                         UART_Bridge_TXBITCLKTX_COMPLETE_REG = UART_Bridge_TXBITCTR_BREAKBITS;
 1023              		.loc 1 1545 0
 1024 0014 6722     		movs	r2, #103
 1025 0016 1A70     		strb	r2, [r3, #0]
1546:.\Generated_Source\PSoC5/UART_Bridge.c ****                     #else
1547:.\Generated_Source\PSoC5/UART_Bridge.c ****                         tx_period = UART_Bridge_TXBITCTR_PERIOD_REG;
1548:.\Generated_Source\PSoC5/UART_Bridge.c ****                         UART_Bridge_TXBITCTR_PERIOD_REG = UART_Bridge_TXBITCTR_BREAKBITS8X;
1549:.\Generated_Source\PSoC5/UART_Bridge.c ****                     #endif /* End UART_Bridge_TXCLKGEN_DP */
1550:.\Generated_Source\PSoC5/UART_Bridge.c **** 
1551:.\Generated_Source\PSoC5/UART_Bridge.c ****                     /* Send zeros*/
1552:.\Generated_Source\PSoC5/UART_Bridge.c ****                     UART_Bridge_TXDATA_REG = 0u;
 1026              		.loc 1 1552 0
 1027 0018 673A     		subs	r2, r2, #103
 1028 001a 0C33     		adds	r3, r3, #12
 1029 001c 1A70     		strb	r2, [r3, #0]
 1030              	.L125:
1553:.\Generated_Source\PSoC5/UART_Bridge.c **** 
1554:.\Generated_Source\PSoC5/UART_Bridge.c ****                     do /* wait until transmit starts */
1555:.\Generated_Source\PSoC5/UART_Bridge.c ****                     {
1556:.\Generated_Source\PSoC5/UART_Bridge.c ****                         tmpStat = UART_Bridge_TXSTATUS_REG;
 1031              		.loc 1 1556 0
 1032 001e 0D4B     		ldr	r3, .L129+8
 1033 0020 1B78     		ldrb	r3, [r3, #0]	@ zero_extendqisi2
1557:.\Generated_Source\PSoC5/UART_Bridge.c ****                     }while((tmpStat & UART_Bridge_TX_STS_FIFO_EMPTY) != 0u);
 1034              		.loc 1 1557 0
 1035 0022 13F0020F 		tst	r3, #2
 1036 0026 FAD1     		bne	.L125
 1037              	.L124:
1558:.\Generated_Source\PSoC5/UART_Bridge.c ****                 }
1559:.\Generated_Source\PSoC5/UART_Bridge.c **** 
1560:.\Generated_Source\PSoC5/UART_Bridge.c ****                 if( (retMode == UART_Bridge_WAIT_FOR_COMPLETE_REINIT) ||
 1038              		.loc 1 1560 0
 1039 0028 0128     		cmp	r0, #1
 1040 002a 01D0     		beq	.L126
 1041 002c 0328     		cmp	r0, #3
 1042 002e 04D1     		bne	.L127
 1043              	.L126:
1561:.\Generated_Source\PSoC5/UART_Bridge.c ****                     (retMode == UART_Bridge_SEND_WAIT_REINIT) )
1562:.\Generated_Source\PSoC5/UART_Bridge.c ****                 {
1563:.\Generated_Source\PSoC5/UART_Bridge.c ****                     do /*wait until transmit complete*/
1564:.\Generated_Source\PSoC5/UART_Bridge.c ****                     {
1565:.\Generated_Source\PSoC5/UART_Bridge.c ****                         tmpStat = UART_Bridge_TXSTATUS_REG;
 1044              		.loc 1 1565 0
 1045 0030 084B     		ldr	r3, .L129+8
 1046 0032 1B78     		ldrb	r3, [r3, #0]	@ zero_extendqisi2
1566:.\Generated_Source\PSoC5/UART_Bridge.c ****                     }while(((uint8)~tmpStat & UART_Bridge_TX_STS_COMPLETE) != 0u);
 1047              		.loc 1 1566 0
 1048 0034 13F0010F 		tst	r3, #1
 1049 0038 FAD0     		beq	.L126
 1050              	.L127:
1567:.\Generated_Source\PSoC5/UART_Bridge.c ****                 }
1568:.\Generated_Source\PSoC5/UART_Bridge.c **** 
ARM GAS  C:\DOCUME~1\ADMINI~1\LOCALS~1\Temp\cc7EA4qV.s 			page 47


1569:.\Generated_Source\PSoC5/UART_Bridge.c ****                 if( (retMode == UART_Bridge_WAIT_FOR_COMPLETE_REINIT) ||
 1051              		.loc 1 1569 0
 1052 003a 0138     		subs	r0, r0, #1
 1053              	.LVL63:
 1054 003c C0B2     		uxtb	r0, r0
 1055 003e 0228     		cmp	r0, #2
 1056 0040 03D8     		bhi	.L128
1570:.\Generated_Source\PSoC5/UART_Bridge.c ****                     (retMode == UART_Bridge_REINIT) ||
1571:.\Generated_Source\PSoC5/UART_Bridge.c ****                     (retMode == UART_Bridge_SEND_WAIT_REINIT) )
1572:.\Generated_Source\PSoC5/UART_Bridge.c ****                 {
1573:.\Generated_Source\PSoC5/UART_Bridge.c **** 
1574:.\Generated_Source\PSoC5/UART_Bridge.c ****                     #if(UART_Bridge_TXCLKGEN_DP)
1575:.\Generated_Source\PSoC5/UART_Bridge.c ****                         UART_Bridge_TXBITCLKTX_COMPLETE_REG = tx_period;
 1057              		.loc 1 1575 0
 1058 0042 024B     		ldr	r3, .L129
 1059 0044 DA79     		ldrb	r2, [r3, #7]	@ zero_extendqisi2
 1060 0046 024B     		ldr	r3, .L129+4
 1061 0048 1A70     		strb	r2, [r3, #0]
 1062              	.LVL64:
 1063              	.L128:
 1064 004a 7047     		bx	lr
 1065              	.L130:
 1066              		.align	2
 1067              	.L129:
 1068 004c 00000000 		.word	.LANCHOR0
 1069 0050 36640040 		.word	1073767478
 1070 0054 62640040 		.word	1073767522
 1071              	.LBE2:
 1072              		.cfi_endproc
 1073              	.LFE29:
 1074              		.size	UART_Bridge_SendBreak, .-UART_Bridge_SendBreak
 1075              		.section	.text.UART_Bridge_SetTxAddressMode,"ax",%progbits
 1076              		.align	1
 1077              		.global	UART_Bridge_SetTxAddressMode
 1078              		.thumb
 1079              		.thumb_func
 1080              		.type	UART_Bridge_SetTxAddressMode, %function
 1081              	UART_Bridge_SetTxAddressMode:
 1082              	.LFB30:
1576:.\Generated_Source\PSoC5/UART_Bridge.c ****                     #else
1577:.\Generated_Source\PSoC5/UART_Bridge.c ****                         UART_Bridge_TXBITCTR_PERIOD_REG = tx_period;
1578:.\Generated_Source\PSoC5/UART_Bridge.c ****                     #endif /* End UART_Bridge_TXCLKGEN_DP */
1579:.\Generated_Source\PSoC5/UART_Bridge.c **** 
1580:.\Generated_Source\PSoC5/UART_Bridge.c ****                     #if( (UART_Bridge_PARITY_TYPE != UART_Bridge__B_UART__NONE_REVB) || \
1581:.\Generated_Source\PSoC5/UART_Bridge.c ****                          (UART_Bridge_PARITY_TYPE_SW != 0u) )
1582:.\Generated_Source\PSoC5/UART_Bridge.c ****                         UART_Bridge_WriteControlRegister(UART_Bridge_ReadControlRegister() &
1583:.\Generated_Source\PSoC5/UART_Bridge.c ****                                                       (uint8)~UART_Bridge_CTRL_HD_SEND_BREAK);
1584:.\Generated_Source\PSoC5/UART_Bridge.c ****                     #endif /* End UART_Bridge_PARITY_TYPE != NONE */
1585:.\Generated_Source\PSoC5/UART_Bridge.c ****                 }
1586:.\Generated_Source\PSoC5/UART_Bridge.c ****             #endif    /* End UART_Bridge_HD_ENABLED */
1587:.\Generated_Source\PSoC5/UART_Bridge.c ****         }
1588:.\Generated_Source\PSoC5/UART_Bridge.c ****     }
1589:.\Generated_Source\PSoC5/UART_Bridge.c **** 
1590:.\Generated_Source\PSoC5/UART_Bridge.c **** 
1591:.\Generated_Source\PSoC5/UART_Bridge.c ****     /*******************************************************************************
1592:.\Generated_Source\PSoC5/UART_Bridge.c ****     * Function Name: UART_Bridge_SetTxAddressMode
1593:.\Generated_Source\PSoC5/UART_Bridge.c ****     ********************************************************************************
ARM GAS  C:\DOCUME~1\ADMINI~1\LOCALS~1\Temp\cc7EA4qV.s 			page 48


1594:.\Generated_Source\PSoC5/UART_Bridge.c ****     *
1595:.\Generated_Source\PSoC5/UART_Bridge.c ****     * Summary:
1596:.\Generated_Source\PSoC5/UART_Bridge.c ****     *  Set the transmit addressing mode
1597:.\Generated_Source\PSoC5/UART_Bridge.c ****     *
1598:.\Generated_Source\PSoC5/UART_Bridge.c ****     * Parameters:
1599:.\Generated_Source\PSoC5/UART_Bridge.c ****     *  addressMode: 0 -> Space
1600:.\Generated_Source\PSoC5/UART_Bridge.c ****     *               1 -> Mark
1601:.\Generated_Source\PSoC5/UART_Bridge.c ****     *
1602:.\Generated_Source\PSoC5/UART_Bridge.c ****     * Return:
1603:.\Generated_Source\PSoC5/UART_Bridge.c ****     *  None.
1604:.\Generated_Source\PSoC5/UART_Bridge.c ****     *
1605:.\Generated_Source\PSoC5/UART_Bridge.c ****     *******************************************************************************/
1606:.\Generated_Source\PSoC5/UART_Bridge.c ****     void UART_Bridge_SetTxAddressMode(uint8 addressMode) 
1607:.\Generated_Source\PSoC5/UART_Bridge.c ****     {
 1083              		.loc 1 1607 0
 1084              		.cfi_startproc
 1085              		@ args = 0, pretend = 0, frame = 0
 1086              		@ frame_needed = 0, uses_anonymous_args = 0
 1087              		@ link register save eliminated.
 1088              	.LVL65:
1608:.\Generated_Source\PSoC5/UART_Bridge.c ****         /* Mark/Space sending enable*/
1609:.\Generated_Source\PSoC5/UART_Bridge.c ****         if(addressMode != 0u)
1610:.\Generated_Source\PSoC5/UART_Bridge.c ****         {
1611:.\Generated_Source\PSoC5/UART_Bridge.c ****             #if( UART_Bridge_CONTROL_REG_REMOVED == 0u )
1612:.\Generated_Source\PSoC5/UART_Bridge.c ****                 UART_Bridge_WriteControlRegister(UART_Bridge_ReadControlRegister() |
1613:.\Generated_Source\PSoC5/UART_Bridge.c ****                                                       UART_Bridge_CTRL_MARK);
1614:.\Generated_Source\PSoC5/UART_Bridge.c ****             #endif /* End UART_Bridge_CONTROL_REG_REMOVED == 0u */
1615:.\Generated_Source\PSoC5/UART_Bridge.c ****         }
1616:.\Generated_Source\PSoC5/UART_Bridge.c ****         else
1617:.\Generated_Source\PSoC5/UART_Bridge.c ****         {
1618:.\Generated_Source\PSoC5/UART_Bridge.c ****             #if( UART_Bridge_CONTROL_REG_REMOVED == 0u )
1619:.\Generated_Source\PSoC5/UART_Bridge.c ****                 UART_Bridge_WriteControlRegister(UART_Bridge_ReadControlRegister() &
1620:.\Generated_Source\PSoC5/UART_Bridge.c ****                                                     (uint8)~UART_Bridge_CTRL_MARK);
1621:.\Generated_Source\PSoC5/UART_Bridge.c ****             #endif /* End UART_Bridge_CONTROL_REG_REMOVED == 0u */
1622:.\Generated_Source\PSoC5/UART_Bridge.c ****         }
1623:.\Generated_Source\PSoC5/UART_Bridge.c ****     }
 1089              		.loc 1 1623 0
 1090 0000 7047     		bx	lr
 1091              		.cfi_endproc
 1092              	.LFE30:
 1093              		.size	UART_Bridge_SetTxAddressMode, .-UART_Bridge_SetTxAddressMode
 1094              		.section	.text.UART_Bridge_ClearTxBuffer,"ax",%progbits
 1095              		.align	1
 1096              		.global	UART_Bridge_ClearTxBuffer
 1097              		.thumb
 1098              		.thumb_func
 1099              		.type	UART_Bridge_ClearTxBuffer, %function
 1100              	UART_Bridge_ClearTxBuffer:
 1101              	.LFB28:
 1102              		.loc 1 1397 0
 1103              		.cfi_startproc
 1104              		@ args = 0, pretend = 0, frame = 0
 1105              		@ frame_needed = 0, uses_anonymous_args = 0
 1106 0000 10B5     		push	{r4, lr}
 1107              	.LCFI9:
 1108              		.cfi_def_cfa_offset 8
 1109              		.loc 1 1401 0
ARM GAS  C:\DOCUME~1\ADMINI~1\LOCALS~1\Temp\cc7EA4qV.s 			page 49


 1110              		.cfi_offset 14, -4
 1111              		.cfi_offset 4, -8
 1112 0002 FFF7FEFF 		bl	CyEnterCriticalSection
 1113              		.loc 1 1403 0
 1114 0006 0A4B     		ldr	r3, .L135
 1115 0008 1A78     		ldrb	r2, [r3, #0]	@ zero_extendqisi2
 1116 000a 42F00102 		orr	r2, r2, #1
 1117 000e 1A70     		strb	r2, [r3, #0]
 1118              		.loc 1 1404 0
 1119 0010 1A78     		ldrb	r2, [r3, #0]	@ zero_extendqisi2
 1120 0012 02F0FE02 		and	r2, r2, #254
 1121 0016 1A70     		strb	r2, [r3, #0]
 1122              		.loc 1 1406 0
 1123 0018 FFF7FEFF 		bl	CyExitCriticalSection
 1124              		.loc 1 1413 0
 1125 001c FFF7FEFF 		bl	UART_Bridge_DisableTxInt
 1126              		.loc 1 1416 0
 1127 0020 044B     		ldr	r3, .L135+4
 1128 0022 0022     		movs	r2, #0
 1129 0024 5A71     		strb	r2, [r3, #5]
 1130              		.loc 1 1417 0
 1131 0026 9A71     		strb	r2, [r3, #6]
 1132              		.loc 1 1425 0
 1133 0028 BDE81040 		pop	{r4, lr}
 1134              		.loc 1 1421 0
 1135 002c FFF7FEBF 		b	UART_Bridge_EnableTxInt
 1136              	.L136:
 1137              		.align	2
 1138              	.L135:
 1139 0030 92640040 		.word	1073767570
 1140 0034 00000000 		.word	.LANCHOR0
 1141              		.cfi_endproc
 1142              	.LFE28:
 1143              		.size	UART_Bridge_ClearTxBuffer, .-UART_Bridge_ClearTxBuffer
 1144              		.section	.text.UART_Bridge_ClearRxBuffer,"ax",%progbits
 1145              		.align	1
 1146              		.global	UART_Bridge_ClearRxBuffer
 1147              		.thumb
 1148              		.thumb_func
 1149              		.type	UART_Bridge_ClearRxBuffer, %function
 1150              	UART_Bridge_ClearRxBuffer:
 1151              	.LFB14:
 1152              		.loc 1 772 0
 1153              		.cfi_startproc
 1154              		@ args = 0, pretend = 0, frame = 0
 1155              		@ frame_needed = 0, uses_anonymous_args = 0
 1156 0000 10B5     		push	{r4, lr}
 1157              	.LCFI10:
 1158              		.cfi_def_cfa_offset 8
 1159              		.loc 1 777 0
 1160              		.cfi_offset 14, -4
 1161              		.cfi_offset 4, -8
 1162 0002 FFF7FEFF 		bl	CyEnterCriticalSection
 1163              		.loc 1 778 0
 1164 0006 0B4B     		ldr	r3, .L139
 1165 0008 1A78     		ldrb	r2, [r3, #0]	@ zero_extendqisi2
 1166 000a 42F00102 		orr	r2, r2, #1
ARM GAS  C:\DOCUME~1\ADMINI~1\LOCALS~1\Temp\cc7EA4qV.s 			page 50


 1167 000e 1A70     		strb	r2, [r3, #0]
 1168              		.loc 1 779 0
 1169 0010 1A78     		ldrb	r2, [r3, #0]	@ zero_extendqisi2
 1170 0012 02F0FE02 		and	r2, r2, #254
 1171 0016 1A70     		strb	r2, [r3, #0]
 1172              		.loc 1 781 0
 1173 0018 FFF7FEFF 		bl	CyExitCriticalSection
 1174              		.loc 1 787 0
 1175 001c FFF7FEFF 		bl	UART_Bridge_DisableRxInt
 1176              		.loc 1 790 0
 1177 0020 054B     		ldr	r3, .L139+4
 1178 0022 0022     		movs	r2, #0
 1179 0024 1A70     		strb	r2, [r3, #0]
 1180              		.loc 1 791 0
 1181 0026 5A70     		strb	r2, [r3, #1]
 1182              		.loc 1 792 0
 1183 0028 9A70     		strb	r2, [r3, #2]
 1184              		.loc 1 793 0
 1185 002a DA70     		strb	r2, [r3, #3]
 1186              		.loc 1 801 0
 1187 002c BDE81040 		pop	{r4, lr}
 1188              		.loc 1 797 0
 1189 0030 FFF7FEBF 		b	UART_Bridge_EnableRxInt
 1190              	.L140:
 1191              		.align	2
 1192              	.L139:
 1193 0034 90640040 		.word	1073767568
 1194 0038 00000000 		.word	.LANCHOR0
 1195              		.cfi_endproc
 1196              	.LFE14:
 1197              		.size	UART_Bridge_ClearRxBuffer, .-UART_Bridge_ClearRxBuffer
 1198              		.section	.text.UART_Bridge_Stop,"ax",%progbits
 1199              		.align	1
 1200              		.global	UART_Bridge_Stop
 1201              		.thumb
 1202              		.thumb_func
 1203              		.type	UART_Bridge_Stop, %function
 1204              	UART_Bridge_Stop:
 1205              	.LFB3:
 1206              		.loc 1 228 0
 1207              		.cfi_startproc
 1208              		@ args = 0, pretend = 0, frame = 0
 1209              		@ frame_needed = 0, uses_anonymous_args = 0
 1210 0000 10B5     		push	{r4, lr}
 1211              	.LCFI11:
 1212              		.cfi_def_cfa_offset 8
 1213              		.loc 1 230 0
 1214              		.cfi_offset 14, -4
 1215              		.cfi_offset 4, -8
 1216 0002 FFF7FEFF 		bl	CyEnterCriticalSection
 1217              		.loc 1 234 0
 1218 0006 0C4B     		ldr	r3, .L143
 1219              		.loc 1 230 0
 1220 0008 0446     		mov	r4, r0
 1221              		.loc 1 234 0
 1222 000a 1A78     		ldrb	r2, [r3, #0]	@ zero_extendqisi2
 1223 000c 02F0DF02 		and	r2, r2, #223
ARM GAS  C:\DOCUME~1\ADMINI~1\LOCALS~1\Temp\cc7EA4qV.s 			page 51


 1224 0010 1A70     		strb	r2, [r3, #0]
 1225              		.loc 1 250 0
 1226 0012 0A4B     		ldr	r3, .L143+4
 1227 0014 1A78     		ldrb	r2, [r3, #0]	@ zero_extendqisi2
 1228 0016 02F0EF02 		and	r2, r2, #239
 1229 001a 1A70     		strb	r2, [r3, #0]
 1230              		.loc 1 252 0
 1231 001c FFF7FEFF 		bl	UART_Bridge_DisableRxInt
 1232              		.loc 1 257 0
 1233 0020 074B     		ldr	r3, .L143+8
 1234 0022 1A78     		ldrb	r2, [r3, #0]	@ zero_extendqisi2
 1235 0024 02F0EF02 		and	r2, r2, #239
 1236 0028 1A70     		strb	r2, [r3, #0]
 1237              		.loc 1 259 0
 1238 002a FFF7FEFF 		bl	UART_Bridge_DisableTxInt
 1239              		.loc 1 263 0
 1240 002e 2046     		mov	r0, r4
 1241              		.loc 1 264 0
 1242 0030 BDE81040 		pop	{r4, lr}
 1243              		.loc 1 263 0
 1244 0034 FFF7FEBF 		b	CyExitCriticalSection
 1245              	.L144:
 1246              		.align	2
 1247              	.L143:
 1248 0038 97650040 		.word	1073767831
 1249 003c 94640040 		.word	1073767572
 1250 0040 92640040 		.word	1073767570
 1251              		.cfi_endproc
 1252              	.LFE3:
 1253              		.size	UART_Bridge_Stop, .-UART_Bridge_Stop
 1254              		.section	.text.UART_Bridge_Enable,"ax",%progbits
 1255              		.align	1
 1256              		.global	UART_Bridge_Enable
 1257              		.thumb
 1258              		.thumb_func
 1259              		.type	UART_Bridge_Enable, %function
 1260              	UART_Bridge_Enable:
 1261              	.LFB2:
 1262              		.loc 1 175 0
 1263              		.cfi_startproc
 1264              		@ args = 0, pretend = 0, frame = 0
 1265              		@ frame_needed = 0, uses_anonymous_args = 0
 1266 0000 10B5     		push	{r4, lr}
 1267              	.LCFI12:
 1268              		.cfi_def_cfa_offset 8
 1269              		.loc 1 177 0
 1270              		.cfi_offset 14, -4
 1271              		.cfi_offset 4, -8
 1272 0002 FFF7FEFF 		bl	CyEnterCriticalSection
 1273              		.loc 1 181 0
 1274 0006 0C4B     		ldr	r3, .L147
 1275 0008 1A78     		ldrb	r2, [r3, #0]	@ zero_extendqisi2
 1276 000a 42F02002 		orr	r2, r2, #32
 1277 000e 1A70     		strb	r2, [r3, #0]
 1278              		.loc 1 183 0
 1279 0010 0A4B     		ldr	r3, .L147+4
 1280 0012 1A78     		ldrb	r2, [r3, #0]	@ zero_extendqisi2
ARM GAS  C:\DOCUME~1\ADMINI~1\LOCALS~1\Temp\cc7EA4qV.s 			page 52


 1281 0014 42F01002 		orr	r2, r2, #16
 1282 0018 1A70     		strb	r2, [r3, #0]
 1283              		.loc 1 185 0
 1284 001a 094B     		ldr	r3, .L147+8
 1285 001c 0222     		movs	r2, #2
 1286 001e 1A60     		str	r2, [r3, #0]
 1287              		.loc 1 198 0
 1288 0020 084A     		ldr	r2, .L147+12
 1289 0022 1178     		ldrb	r1, [r2, #0]	@ zero_extendqisi2
 1290 0024 41F01001 		orr	r1, r1, #16
 1291 0028 1170     		strb	r1, [r2, #0]
 1292              		.loc 1 200 0
 1293 002a 0422     		movs	r2, #4
 1294 002c 1A60     		str	r2, [r3, #0]
 1295              		.loc 1 210 0
 1296 002e BDE81040 		pop	{r4, lr}
 1297              		.loc 1 209 0
 1298 0032 FFF7FEBF 		b	CyExitCriticalSection
 1299              	.L148:
 1300 0036 00BF     		.align	2
 1301              	.L147:
 1302 0038 97650040 		.word	1073767831
 1303 003c 94640040 		.word	1073767572
 1304 0040 00E100E0 		.word	-536813312
 1305 0044 92640040 		.word	1073767570
 1306              		.cfi_endproc
 1307              	.LFE2:
 1308              		.size	UART_Bridge_Enable, .-UART_Bridge_Enable
 1309              		.section	.text.UART_Bridge_Init,"ax",%progbits
 1310              		.align	1
 1311              		.global	UART_Bridge_Init
 1312              		.thumb
 1313              		.thumb_func
 1314              		.type	UART_Bridge_Init, %function
 1315              	UART_Bridge_Init:
 1316              	.LFB1:
 1317              		.loc 1 102 0
 1318              		.cfi_startproc
 1319              		@ args = 0, pretend = 0, frame = 0
 1320              		@ frame_needed = 0, uses_anonymous_args = 0
 1321 0000 08B5     		push	{r3, lr}
 1322              	.LCFI13:
 1323              		.cfi_def_cfa_offset 8
 1324              		.loc 1 107 0
 1325 0002 1049     		ldr	r1, .L151
 1326 0004 0120     		movs	r0, #1
 1327              		.cfi_offset 14, -4
 1328              		.cfi_offset 3, -8
 1329 0006 FFF7FEFF 		bl	CyIntSetVector
 1330              		.loc 1 108 0
 1331 000a 0120     		movs	r0, #1
 1332 000c 0421     		movs	r1, #4
 1333 000e FFF7FEFF 		bl	CyIntSetPriority
 1334              		.loc 1 118 0
 1335 0012 0D4B     		ldr	r3, .L151+4
 1336 0014 7222     		movs	r2, #114
 1337 0016 1A70     		strb	r2, [r3, #0]
ARM GAS  C:\DOCUME~1\ADMINI~1\LOCALS~1\Temp\cc7EA4qV.s 			page 53


 1338              		.loc 1 120 0
 1339 0018 0C4B     		ldr	r3, .L151+8
 1340 001a 523A     		subs	r2, r2, #82
 1341 001c 1A70     		strb	r2, [r3, #0]
 1342              		.loc 1 126 0
 1343 001e 0C49     		ldr	r1, .L151+12
 1344 0020 0220     		movs	r0, #2
 1345 0022 FFF7FEFF 		bl	CyIntSetVector
 1346              		.loc 1 127 0
 1347 0026 0220     		movs	r0, #2
 1348 0028 0421     		movs	r1, #4
 1349 002a FFF7FEFF 		bl	CyIntSetPriority
 1350              		.loc 1 132 0
 1351 002e 094B     		ldr	r3, .L151+16
 1352 0030 0722     		movs	r2, #7
 1353 0032 1A70     		strb	r2, [r3, #0]
 1354              		.loc 1 133 0
 1355 0034 4132     		adds	r2, r2, #65
 1356 0036 1033     		adds	r3, r3, #16
 1357 0038 1A70     		strb	r2, [r3, #0]
 1358              		.loc 1 142 0
 1359 003a 463A     		subs	r2, r2, #70
 1360 003c 4C33     		adds	r3, r3, #76
 1361 003e 1A70     		strb	r2, [r3, #0]
 1362              		.loc 1 154 0
 1363 0040 08BD     		pop	{r3, pc}
 1364              	.L152:
 1365 0042 00BF     		.align	2
 1366              	.L151:
 1367 0044 00000000 		.word	UART_Bridge_RXISR
 1368 0048 87650040 		.word	1073767815
 1369 004c 84640040 		.word	1073767556
 1370 0050 00000000 		.word	UART_Bridge_TXISR
 1371 0054 26640040 		.word	1073767462
 1372              		.cfi_endproc
 1373              	.LFE1:
 1374              		.size	UART_Bridge_Init, .-UART_Bridge_Init
 1375              		.section	.text.UART_Bridge_Start,"ax",%progbits
 1376              		.align	1
 1377              		.global	UART_Bridge_Start
 1378              		.thumb
 1379              		.thumb_func
 1380              		.type	UART_Bridge_Start, %function
 1381              	UART_Bridge_Start:
 1382              	.LFB0:
 1383              		.loc 1 74 0
 1384              		.cfi_startproc
 1385              		@ args = 0, pretend = 0, frame = 0
 1386              		@ frame_needed = 0, uses_anonymous_args = 0
 1387 0000 10B5     		push	{r4, lr}
 1388              	.LCFI14:
 1389              		.cfi_def_cfa_offset 8
 1390              		.loc 1 76 0
 1391 0002 054C     		ldr	r4, .L156
 1392              		.cfi_offset 14, -4
 1393              		.cfi_offset 4, -8
 1394 0004 2379     		ldrb	r3, [r4, #4]	@ zero_extendqisi2
ARM GAS  C:\DOCUME~1\ADMINI~1\LOCALS~1\Temp\cc7EA4qV.s 			page 54


 1395 0006 1BB9     		cbnz	r3, .L154
 1396              		.loc 1 78 0
 1397 0008 FFF7FEFF 		bl	UART_Bridge_Init
 1398              		.loc 1 79 0
 1399 000c 0123     		movs	r3, #1
 1400 000e 2371     		strb	r3, [r4, #4]
 1401              	.L154:
 1402              		.loc 1 82 0
 1403 0010 BDE81040 		pop	{r4, lr}
 1404              		.loc 1 81 0
 1405 0014 FFF7FEBF 		b	UART_Bridge_Enable
 1406              	.L157:
 1407              		.align	2
 1408              	.L156:
 1409 0018 00000000 		.word	.LANCHOR0
 1410              		.cfi_endproc
 1411              	.LFE0:
 1412              		.size	UART_Bridge_Start, .-UART_Bridge_Start
 1413              		.global	UART_Bridge_initVar
 1414              		.global	UART_Bridge_txBufferRead
 1415              		.global	UART_Bridge_txBufferWrite
 1416              		.global	UART_Bridge_rxBufferRead
 1417              		.global	UART_Bridge_rxBufferWrite
 1418              		.global	UART_Bridge_rxBufferLoopDetect
 1419              		.global	UART_Bridge_rxBufferOverflow
 1420              		.comm	UART_Bridge_txBuffer,128,4
 1421              		.comm	UART_Bridge_rxBuffer,128,4
 1422              		.bss
 1423              		.set	.LANCHOR0,. + 0
 1424              		.type	UART_Bridge_rxBufferRead, %object
 1425              		.size	UART_Bridge_rxBufferRead, 1
 1426              	UART_Bridge_rxBufferRead:
 1427 0000 00       		.space	1
 1428              		.type	UART_Bridge_rxBufferWrite, %object
 1429              		.size	UART_Bridge_rxBufferWrite, 1
 1430              	UART_Bridge_rxBufferWrite:
 1431 0001 00       		.space	1
 1432              		.type	UART_Bridge_rxBufferLoopDetect, %object
 1433              		.size	UART_Bridge_rxBufferLoopDetect, 1
 1434              	UART_Bridge_rxBufferLoopDetect:
 1435 0002 00       		.space	1
 1436              		.type	UART_Bridge_rxBufferOverflow, %object
 1437              		.size	UART_Bridge_rxBufferOverflow, 1
 1438              	UART_Bridge_rxBufferOverflow:
 1439 0003 00       		.space	1
 1440              		.type	UART_Bridge_initVar, %object
 1441              		.size	UART_Bridge_initVar, 1
 1442              	UART_Bridge_initVar:
 1443 0004 00       		.space	1
 1444              		.type	UART_Bridge_txBufferRead, %object
 1445              		.size	UART_Bridge_txBufferRead, 1
 1446              	UART_Bridge_txBufferRead:
 1447 0005 00       		.space	1
 1448              		.type	UART_Bridge_txBufferWrite, %object
 1449              		.size	UART_Bridge_txBufferWrite, 1
 1450              	UART_Bridge_txBufferWrite:
 1451 0006 00       		.space	1
ARM GAS  C:\DOCUME~1\ADMINI~1\LOCALS~1\Temp\cc7EA4qV.s 			page 55


 1452              		.type	tx_period.2355, %object
 1453              		.size	tx_period.2355, 1
 1454              	tx_period.2355:
 1455 0007 00       		.space	1
 1456              		.text
 1457              	.Letext0:
 1458              		.section	.debug_loc,"",%progbits
 1459              	.Ldebug_loc0:
 1460              	.LLST5:
 1461 0000 00000000 		.4byte	.LFB9
 1462 0004 02000000 		.4byte	.LCFI0
 1463 0008 0100     		.2byte	0x1
 1464 000a 5D       		.byte	0x5d
 1465 000b 02000000 		.4byte	.LCFI0
 1466 000f 48000000 		.4byte	.LFE9
 1467 0013 0200     		.2byte	0x2
 1468 0015 7D       		.byte	0x7d
 1469 0016 08       		.sleb128 8
 1470 0017 00000000 		.4byte	0x0
 1471 001b 00000000 		.4byte	0x0
 1472              	.LLST6:
 1473 001f 12000000 		.4byte	.LVL2
 1474 0023 1A000000 		.4byte	.LVL3
 1475 0027 0100     		.2byte	0x1
 1476 0029 53       		.byte	0x53
 1477 002a 1C000000 		.4byte	.LVL4
 1478 002e 1E000000 		.4byte	.LVL5
 1479 0032 0100     		.2byte	0x1
 1480 0034 53       		.byte	0x53
 1481 0035 1E000000 		.4byte	.LVL5
 1482 0039 22000000 		.4byte	.LVL6
 1483 003d 0100     		.2byte	0x1
 1484 003f 52       		.byte	0x52
 1485 0040 22000000 		.4byte	.LVL6
 1486 0044 28000000 		.4byte	.LVL7
 1487 0048 0100     		.2byte	0x1
 1488 004a 53       		.byte	0x53
 1489 004b 30000000 		.4byte	.LVL8
 1490 004f 32000000 		.4byte	.LVL9
 1491 0053 0100     		.2byte	0x1
 1492 0055 53       		.byte	0x53
 1493 0056 00000000 		.4byte	0x0
 1494 005a 00000000 		.4byte	0x0
 1495              	.LLST7:
 1496 005e 12000000 		.4byte	.LVL2
 1497 0062 38000000 		.4byte	.LVL10
 1498 0066 0100     		.2byte	0x1
 1499 0068 51       		.byte	0x51
 1500 0069 00000000 		.4byte	0x0
 1501 006d 00000000 		.4byte	0x0
 1502              	.LLST9:
 1503 0071 0A000000 		.4byte	.LVL12
 1504 0075 16000000 		.4byte	.LVL14
 1505 0079 0100     		.2byte	0x1
 1506 007b 50       		.byte	0x50
 1507 007c 00000000 		.4byte	0x0
 1508 0080 00000000 		.4byte	0x0
ARM GAS  C:\DOCUME~1\ADMINI~1\LOCALS~1\Temp\cc7EA4qV.s 			page 56


 1509              	.LLST10:
 1510 0084 00000000 		.4byte	.LFB11
 1511 0088 02000000 		.4byte	.LCFI1
 1512 008c 0100     		.2byte	0x1
 1513 008e 5D       		.byte	0x5d
 1514 008f 02000000 		.4byte	.LCFI1
 1515 0093 60000000 		.4byte	.LFE11
 1516 0097 0200     		.2byte	0x2
 1517 0099 7D       		.byte	0x7d
 1518 009a 08       		.sleb128 8
 1519 009b 00000000 		.4byte	0x0
 1520 009f 00000000 		.4byte	0x0
 1521              	.LLST11:
 1522 00a3 38000000 		.4byte	.LVL23
 1523 00a7 4A000000 		.4byte	.LVL25
 1524 00ab 0100     		.2byte	0x1
 1525 00ad 53       		.byte	0x53
 1526 00ae 00000000 		.4byte	0x0
 1527 00b2 00000000 		.4byte	0x0
 1528              	.LLST12:
 1529 00b6 12000000 		.4byte	.LVL15
 1530 00ba 1A000000 		.4byte	.LVL16
 1531 00be 0100     		.2byte	0x1
 1532 00c0 53       		.byte	0x53
 1533 00c1 1C000000 		.4byte	.LVL17
 1534 00c5 1E000000 		.4byte	.LVL18
 1535 00c9 0100     		.2byte	0x1
 1536 00cb 53       		.byte	0x53
 1537 00cc 1E000000 		.4byte	.LVL18
 1538 00d0 22000000 		.4byte	.LVL19
 1539 00d4 0100     		.2byte	0x1
 1540 00d6 52       		.byte	0x52
 1541 00d7 22000000 		.4byte	.LVL19
 1542 00db 28000000 		.4byte	.LVL20
 1543 00df 0100     		.2byte	0x1
 1544 00e1 53       		.byte	0x53
 1545 00e2 30000000 		.4byte	.LVL21
 1546 00e6 32000000 		.4byte	.LVL22
 1547 00ea 0100     		.2byte	0x1
 1548 00ec 53       		.byte	0x53
 1549 00ed 00000000 		.4byte	0x0
 1550 00f1 00000000 		.4byte	0x0
 1551              	.LLST13:
 1552 00f5 12000000 		.4byte	.LVL15
 1553 00f9 4A000000 		.4byte	.LVL25
 1554 00fd 0100     		.2byte	0x1
 1555 00ff 51       		.byte	0x51
 1556 0100 00000000 		.4byte	0x0
 1557 0104 00000000 		.4byte	0x0
 1558              	.LLST14:
 1559 0108 00000000 		.4byte	.LFB12
 1560 010c 02000000 		.4byte	.LCFI2
 1561 0110 0100     		.2byte	0x1
 1562 0112 5D       		.byte	0x5d
 1563 0113 02000000 		.4byte	.LCFI2
 1564 0117 14000000 		.4byte	.LFE12
 1565 011b 0200     		.2byte	0x2
ARM GAS  C:\DOCUME~1\ADMINI~1\LOCALS~1\Temp\cc7EA4qV.s 			page 57


 1566 011d 7D       		.byte	0x7d
 1567 011e 08       		.sleb128 8
 1568 011f 00000000 		.4byte	0x0
 1569 0123 00000000 		.4byte	0x0
 1570              	.LLST15:
 1571 0127 00000000 		.4byte	.LFB13
 1572 012b 02000000 		.4byte	.LCFI3
 1573 012f 0100     		.2byte	0x1
 1574 0131 5D       		.byte	0x5d
 1575 0132 02000000 		.4byte	.LCFI3
 1576 0136 3C000000 		.4byte	.LFE13
 1577 013a 0200     		.2byte	0x2
 1578 013c 7D       		.byte	0x7d
 1579 013d 08       		.sleb128 8
 1580 013e 00000000 		.4byte	0x0
 1581 0142 00000000 		.4byte	0x0
 1582              	.LLST16:
 1583 0146 1A000000 		.4byte	.LVL26
 1584 014a 1C000000 		.4byte	.LVL27
 1585 014e 0100     		.2byte	0x1
 1586 0150 54       		.byte	0x54
 1587 0151 2E000000 		.4byte	.LVL28
 1588 0155 3C000000 		.4byte	.LFE13
 1589 0159 0100     		.2byte	0x1
 1590 015b 54       		.byte	0x54
 1591 015c 00000000 		.4byte	0x0
 1592 0160 00000000 		.4byte	0x0
 1593              	.LLST23:
 1594 0164 00000000 		.4byte	.LFB21
 1595 0168 02000000 		.4byte	.LCFI4
 1596 016c 0100     		.2byte	0x1
 1597 016e 5D       		.byte	0x5d
 1598 016f 02000000 		.4byte	.LCFI4
 1599 0173 5C000000 		.4byte	.LFE21
 1600 0177 0200     		.2byte	0x2
 1601 0179 7D       		.byte	0x7d
 1602 017a 10       		.sleb128 16
 1603 017b 00000000 		.4byte	0x0
 1604 017f 00000000 		.4byte	0x0
 1605              	.LLST24:
 1606 0183 00000000 		.4byte	.LVL33
 1607 0187 0C000000 		.4byte	.LVL34
 1608 018b 0100     		.2byte	0x1
 1609 018d 50       		.byte	0x50
 1610 018e 0C000000 		.4byte	.LVL34
 1611 0192 5C000000 		.4byte	.LFE21
 1612 0196 0100     		.2byte	0x1
 1613 0198 55       		.byte	0x55
 1614 0199 00000000 		.4byte	0x0
 1615 019d 00000000 		.4byte	0x0
 1616              	.LLST27:
 1617 01a1 04000000 		.4byte	.LVL37
 1618 01a5 36000000 		.4byte	.LVL41
 1619 01a9 0100     		.2byte	0x1
 1620 01ab 53       		.byte	0x53
 1621 01ac 3A000000 		.4byte	.LVL42
 1622 01b0 3C000000 		.4byte	.LVL43
ARM GAS  C:\DOCUME~1\ADMINI~1\LOCALS~1\Temp\cc7EA4qV.s 			page 58


 1623 01b4 0100     		.2byte	0x1
 1624 01b6 53       		.byte	0x53
 1625 01b7 3C000000 		.4byte	.LVL43
 1626 01bb 40000000 		.4byte	.LVL44
 1627 01bf 0100     		.2byte	0x1
 1628 01c1 52       		.byte	0x52
 1629 01c2 40000000 		.4byte	.LVL44
 1630 01c6 48000000 		.4byte	.LVL45
 1631 01ca 0100     		.2byte	0x1
 1632 01cc 53       		.byte	0x53
 1633 01cd 00000000 		.4byte	0x0
 1634 01d1 00000000 		.4byte	0x0
 1635              	.LLST28:
 1636 01d5 04000000 		.4byte	.LVL37
 1637 01d9 06000000 		.4byte	.LVL38
 1638 01dd 0100     		.2byte	0x1
 1639 01df 52       		.byte	0x52
 1640 01e0 0A000000 		.4byte	.LVL39
 1641 01e4 2C000000 		.4byte	.LVL40
 1642 01e8 0100     		.2byte	0x1
 1643 01ea 52       		.byte	0x52
 1644 01eb 3A000000 		.4byte	.LVL42
 1645 01ef 3C000000 		.4byte	.LVL43
 1646 01f3 0100     		.2byte	0x1
 1647 01f5 52       		.byte	0x52
 1648 01f6 00000000 		.4byte	0x0
 1649 01fa 00000000 		.4byte	0x0
 1650              	.LLST29:
 1651 01fe 00000000 		.4byte	.LFB24
 1652 0202 02000000 		.4byte	.LCFI5
 1653 0206 0100     		.2byte	0x1
 1654 0208 5D       		.byte	0x5d
 1655 0209 02000000 		.4byte	.LCFI5
 1656 020d 24000000 		.4byte	.LFE24
 1657 0211 0200     		.2byte	0x2
 1658 0213 7D       		.byte	0x7d
 1659 0214 10       		.sleb128 16
 1660 0215 00000000 		.4byte	0x0
 1661 0219 00000000 		.4byte	0x0
 1662              	.LLST30:
 1663 021d 00000000 		.4byte	.LVL46
 1664 0221 0A000000 		.4byte	.LVL47
 1665 0225 0100     		.2byte	0x1
 1666 0227 50       		.byte	0x50
 1667 0228 0A000000 		.4byte	.LVL47
 1668 022c 24000000 		.4byte	.LFE24
 1669 0230 0100     		.2byte	0x1
 1670 0232 55       		.byte	0x55
 1671 0233 00000000 		.4byte	0x0
 1672 0237 00000000 		.4byte	0x0
 1673              	.LLST31:
 1674 023b 0C000000 		.4byte	.LVL48
 1675 023f 14000000 		.4byte	.LVL50
 1676 0243 0100     		.2byte	0x1
 1677 0245 54       		.byte	0x54
 1678 0246 16000000 		.4byte	.LVL51
 1679 024a 24000000 		.4byte	.LFE24
ARM GAS  C:\DOCUME~1\ADMINI~1\LOCALS~1\Temp\cc7EA4qV.s 			page 59


 1680 024e 0100     		.2byte	0x1
 1681 0250 54       		.byte	0x54
 1682 0251 00000000 		.4byte	0x0
 1683 0255 00000000 		.4byte	0x0
 1684              	.LLST32:
 1685 0259 00000000 		.4byte	.LFB25
 1686 025d 02000000 		.4byte	.LCFI6
 1687 0261 0100     		.2byte	0x1
 1688 0263 5D       		.byte	0x5d
 1689 0264 02000000 		.4byte	.LCFI6
 1690 0268 24000000 		.4byte	.LFE25
 1691 026c 0200     		.2byte	0x2
 1692 026e 7D       		.byte	0x7d
 1693 026f 10       		.sleb128 16
 1694 0270 00000000 		.4byte	0x0
 1695 0274 00000000 		.4byte	0x0
 1696              	.LLST33:
 1697 0278 00000000 		.4byte	.LVL53
 1698 027c 0C000000 		.4byte	.LVL54
 1699 0280 0100     		.2byte	0x1
 1700 0282 50       		.byte	0x50
 1701 0283 0C000000 		.4byte	.LVL54
 1702 0287 24000000 		.4byte	.LFE25
 1703 028b 0100     		.2byte	0x1
 1704 028d 54       		.byte	0x54
 1705 028e 00000000 		.4byte	0x0
 1706 0292 00000000 		.4byte	0x0
 1707              	.LLST34:
 1708 0296 00000000 		.4byte	.LVL53
 1709 029a 0C000000 		.4byte	.LVL54
 1710 029e 0100     		.2byte	0x1
 1711 02a0 51       		.byte	0x51
 1712 02a1 0C000000 		.4byte	.LVL54
 1713 02a5 24000000 		.4byte	.LFE25
 1714 02a9 0100     		.2byte	0x1
 1715 02ab 56       		.byte	0x56
 1716 02ac 00000000 		.4byte	0x0
 1717 02b0 00000000 		.4byte	0x0
 1718              	.LLST35:
 1719 02b4 00000000 		.4byte	.LFB26
 1720 02b8 02000000 		.4byte	.LCFI7
 1721 02bc 0100     		.2byte	0x1
 1722 02be 5D       		.byte	0x5d
 1723 02bf 02000000 		.4byte	.LCFI7
 1724 02c3 24000000 		.4byte	.LFE26
 1725 02c7 0200     		.2byte	0x2
 1726 02c9 7D       		.byte	0x7d
 1727 02ca 08       		.sleb128 8
 1728 02cb 00000000 		.4byte	0x0
 1729 02cf 00000000 		.4byte	0x0
 1730              	.LLST36:
 1731 02d3 00000000 		.4byte	.LVL56
 1732 02d7 0C000000 		.4byte	.LVL57
 1733 02db 0100     		.2byte	0x1
 1734 02dd 50       		.byte	0x50
 1735 02de 1C000000 		.4byte	.LVL58
 1736 02e2 24000000 		.4byte	.LFE26
ARM GAS  C:\DOCUME~1\ADMINI~1\LOCALS~1\Temp\cc7EA4qV.s 			page 60


 1737 02e6 0100     		.2byte	0x1
 1738 02e8 50       		.byte	0x50
 1739 02e9 00000000 		.4byte	0x0
 1740 02ed 00000000 		.4byte	0x0
 1741              	.LLST37:
 1742 02f1 00000000 		.4byte	.LFB27
 1743 02f5 02000000 		.4byte	.LCFI8
 1744 02f9 0100     		.2byte	0x1
 1745 02fb 5D       		.byte	0x5d
 1746 02fc 02000000 		.4byte	.LCFI8
 1747 0300 38000000 		.4byte	.LFE27
 1748 0304 0200     		.2byte	0x2
 1749 0306 7D       		.byte	0x7d
 1750 0307 08       		.sleb128 8
 1751 0308 00000000 		.4byte	0x0
 1752 030c 00000000 		.4byte	0x0
 1753              	.LLST38:
 1754 0310 12000000 		.4byte	.LVL59
 1755 0314 14000000 		.4byte	.LVL60
 1756 0318 0100     		.2byte	0x1
 1757 031a 54       		.byte	0x54
 1758 031b 2A000000 		.4byte	.LVL61
 1759 031f 38000000 		.4byte	.LFE27
 1760 0323 0100     		.2byte	0x1
 1761 0325 54       		.byte	0x54
 1762 0326 00000000 		.4byte	0x0
 1763 032a 00000000 		.4byte	0x0
 1764              	.LLST40:
 1765 032e 00000000 		.4byte	.LVL62
 1766 0332 3C000000 		.4byte	.LVL63
 1767 0336 0100     		.2byte	0x1
 1768 0338 50       		.byte	0x50
 1769 0339 4A000000 		.4byte	.LVL64
 1770 033d 58000000 		.4byte	.LFE29
 1771 0341 0100     		.2byte	0x1
 1772 0343 50       		.byte	0x50
 1773 0344 00000000 		.4byte	0x0
 1774 0348 00000000 		.4byte	0x0
 1775              	.LLST42:
 1776 034c 00000000 		.4byte	.LFB28
 1777 0350 02000000 		.4byte	.LCFI9
 1778 0354 0100     		.2byte	0x1
 1779 0356 5D       		.byte	0x5d
 1780 0357 02000000 		.4byte	.LCFI9
 1781 035b 38000000 		.4byte	.LFE28
 1782 035f 0200     		.2byte	0x2
 1783 0361 7D       		.byte	0x7d
 1784 0362 08       		.sleb128 8
 1785 0363 00000000 		.4byte	0x0
 1786 0367 00000000 		.4byte	0x0
 1787              	.LLST43:
 1788 036b 00000000 		.4byte	.LFB14
 1789 036f 02000000 		.4byte	.LCFI10
 1790 0373 0100     		.2byte	0x1
 1791 0375 5D       		.byte	0x5d
 1792 0376 02000000 		.4byte	.LCFI10
 1793 037a 3C000000 		.4byte	.LFE14
ARM GAS  C:\DOCUME~1\ADMINI~1\LOCALS~1\Temp\cc7EA4qV.s 			page 61


 1794 037e 0200     		.2byte	0x2
 1795 0380 7D       		.byte	0x7d
 1796 0381 08       		.sleb128 8
 1797 0382 00000000 		.4byte	0x0
 1798 0386 00000000 		.4byte	0x0
 1799              	.LLST44:
 1800 038a 00000000 		.4byte	.LFB3
 1801 038e 02000000 		.4byte	.LCFI11
 1802 0392 0100     		.2byte	0x1
 1803 0394 5D       		.byte	0x5d
 1804 0395 02000000 		.4byte	.LCFI11
 1805 0399 44000000 		.4byte	.LFE3
 1806 039d 0200     		.2byte	0x2
 1807 039f 7D       		.byte	0x7d
 1808 03a0 08       		.sleb128 8
 1809 03a1 00000000 		.4byte	0x0
 1810 03a5 00000000 		.4byte	0x0
 1811              	.LLST45:
 1812 03a9 00000000 		.4byte	.LFB2
 1813 03ad 02000000 		.4byte	.LCFI12
 1814 03b1 0100     		.2byte	0x1
 1815 03b3 5D       		.byte	0x5d
 1816 03b4 02000000 		.4byte	.LCFI12
 1817 03b8 48000000 		.4byte	.LFE2
 1818 03bc 0200     		.2byte	0x2
 1819 03be 7D       		.byte	0x7d
 1820 03bf 08       		.sleb128 8
 1821 03c0 00000000 		.4byte	0x0
 1822 03c4 00000000 		.4byte	0x0
 1823              	.LLST46:
 1824 03c8 00000000 		.4byte	.LFB1
 1825 03cc 02000000 		.4byte	.LCFI13
 1826 03d0 0100     		.2byte	0x1
 1827 03d2 5D       		.byte	0x5d
 1828 03d3 02000000 		.4byte	.LCFI13
 1829 03d7 58000000 		.4byte	.LFE1
 1830 03db 0200     		.2byte	0x2
 1831 03dd 7D       		.byte	0x7d
 1832 03de 08       		.sleb128 8
 1833 03df 00000000 		.4byte	0x0
 1834 03e3 00000000 		.4byte	0x0
 1835              	.LLST47:
 1836 03e7 00000000 		.4byte	.LFB0
 1837 03eb 02000000 		.4byte	.LCFI14
 1838 03ef 0100     		.2byte	0x1
 1839 03f1 5D       		.byte	0x5d
 1840 03f2 02000000 		.4byte	.LCFI14
 1841 03f6 1C000000 		.4byte	.LFE0
 1842 03fa 0200     		.2byte	0x2
 1843 03fc 7D       		.byte	0x7d
 1844 03fd 08       		.sleb128 8
 1845 03fe 00000000 		.4byte	0x0
 1846 0402 00000000 		.4byte	0x0
 1847              		.file 2 ".\\Generated_Source\\PSoC5\\/cytypes.h"
 1848              		.section	.debug_info
 1849 0000 8E060000 		.4byte	0x68e
 1850 0004 0200     		.2byte	0x2
ARM GAS  C:\DOCUME~1\ADMINI~1\LOCALS~1\Temp\cc7EA4qV.s 			page 62


 1851 0006 00000000 		.4byte	.Ldebug_abbrev0
 1852 000a 04       		.byte	0x4
 1853 000b 01       		.uleb128 0x1
 1854 000c 9F000000 		.4byte	.LASF75
 1855 0010 01       		.byte	0x1
 1856 0011 37020000 		.4byte	.LASF76
 1857 0015 4A000000 		.4byte	.LASF77
 1858 0019 00000000 		.4byte	0x0
 1859 001d 00000000 		.4byte	0x0
 1860 0021 00000000 		.4byte	.Ldebug_ranges0+0x0
 1861 0025 00000000 		.4byte	.Ldebug_line0
 1862 0029 02       		.uleb128 0x2
 1863 002a 01       		.byte	0x1
 1864 002b 06       		.byte	0x6
 1865 002c D1000000 		.4byte	.LASF0
 1866 0030 02       		.uleb128 0x2
 1867 0031 01       		.byte	0x1
 1868 0032 08       		.byte	0x8
 1869 0033 17040000 		.4byte	.LASF1
 1870 0037 02       		.uleb128 0x2
 1871 0038 02       		.byte	0x2
 1872 0039 05       		.byte	0x5
 1873 003a 25040000 		.4byte	.LASF2
 1874 003e 02       		.uleb128 0x2
 1875 003f 02       		.byte	0x2
 1876 0040 07       		.byte	0x7
 1877 0041 78020000 		.4byte	.LASF3
 1878 0045 02       		.uleb128 0x2
 1879 0046 04       		.byte	0x4
 1880 0047 05       		.byte	0x5
 1881 0048 F1000000 		.4byte	.LASF4
 1882 004c 02       		.uleb128 0x2
 1883 004d 04       		.byte	0x4
 1884 004e 07       		.byte	0x7
 1885 004f E2010000 		.4byte	.LASF5
 1886 0053 02       		.uleb128 0x2
 1887 0054 08       		.byte	0x8
 1888 0055 05       		.byte	0x5
 1889 0056 C3000000 		.4byte	.LASF6
 1890 005a 02       		.uleb128 0x2
 1891 005b 08       		.byte	0x8
 1892 005c 07       		.byte	0x7
 1893 005d 88000000 		.4byte	.LASF7
 1894 0061 03       		.uleb128 0x3
 1895 0062 04       		.byte	0x4
 1896 0063 05       		.byte	0x5
 1897 0064 696E7400 		.ascii	"int\000"
 1898 0068 02       		.uleb128 0x2
 1899 0069 04       		.byte	0x4
 1900 006a 07       		.byte	0x7
 1901 006b D5010000 		.4byte	.LASF8
 1902 006f 04       		.uleb128 0x4
 1903 0070 FA000000 		.4byte	.LASF9
 1904 0074 02       		.byte	0x2
 1905 0075 4C       		.byte	0x4c
 1906 0076 30000000 		.4byte	0x30
 1907 007a 04       		.uleb128 0x4
ARM GAS  C:\DOCUME~1\ADMINI~1\LOCALS~1\Temp\cc7EA4qV.s 			page 63


 1908 007b 00000000 		.4byte	.LASF10
 1909 007f 02       		.byte	0x2
 1910 0080 4D       		.byte	0x4d
 1911 0081 3E000000 		.4byte	0x3e
 1912 0085 02       		.uleb128 0x2
 1913 0086 04       		.byte	0x4
 1914 0087 04       		.byte	0x4
 1915 0088 FD030000 		.4byte	.LASF11
 1916 008c 02       		.uleb128 0x2
 1917 008d 08       		.byte	0x8
 1918 008e 04       		.byte	0x4
 1919 008f 19010000 		.4byte	.LASF12
 1920 0093 04       		.uleb128 0x4
 1921 0094 90040000 		.4byte	.LASF13
 1922 0098 02       		.byte	0x2
 1923 0099 5D       		.byte	0x5d
 1924 009a 9E000000 		.4byte	0x9e
 1925 009e 02       		.uleb128 0x2
 1926 009f 01       		.byte	0x1
 1927 00a0 08       		.byte	0x8
 1928 00a1 71040000 		.4byte	.LASF14
 1929 00a5 05       		.uleb128 0x5
 1930 00a6 6F000000 		.4byte	0x6f
 1931 00aa 06       		.uleb128 0x6
 1932 00ab 04       		.byte	0x4
 1933 00ac 07       		.byte	0x7
 1934 00ad 07       		.uleb128 0x7
 1935 00ae 01       		.byte	0x1
 1936 00af 1B050000 		.4byte	.LASF29
 1937 00b3 01       		.byte	0x1
 1938 00b4 1901     		.2byte	0x119
 1939 00b6 01       		.byte	0x1
 1940 00b7 6F000000 		.4byte	0x6f
 1941 00bb 00000000 		.4byte	.LFB4
 1942 00bf 04000000 		.4byte	.LFE4
 1943 00c3 01       		.byte	0x1
 1944 00c4 5D       		.byte	0x5d
 1945 00c5 08       		.uleb128 0x8
 1946 00c6 01       		.byte	0x1
 1947 00c7 73030000 		.4byte	.LASF17
 1948 00cb 01       		.byte	0x1
 1949 00cc 3101     		.2byte	0x131
 1950 00ce 01       		.byte	0x1
 1951 00cf 00000000 		.4byte	.LFB5
 1952 00d3 02000000 		.4byte	.LFE5
 1953 00d7 01       		.byte	0x1
 1954 00d8 5D       		.byte	0x5d
 1955 00d9 EC000000 		.4byte	0xec
 1956 00dd 09       		.uleb128 0x9
 1957 00de 54010000 		.4byte	.LASF19
 1958 00e2 01       		.byte	0x1
 1959 00e3 3101     		.2byte	0x131
 1960 00e5 6F000000 		.4byte	0x6f
 1961 00e9 01       		.byte	0x1
 1962 00ea 50       		.byte	0x50
 1963 00eb 00       		.byte	0x0
 1964 00ec 0A       		.uleb128 0xa
ARM GAS  C:\DOCUME~1\ADMINI~1\LOCALS~1\Temp\cc7EA4qV.s 			page 64


 1965 00ed 01       		.byte	0x1
 1966 00ee AB000000 		.4byte	.LASF15
 1967 00f2 01       		.byte	0x1
 1968 00f3 5001     		.2byte	0x150
 1969 00f5 01       		.byte	0x1
 1970 00f6 00000000 		.4byte	.LFB6
 1971 00fa 0C000000 		.4byte	.LFE6
 1972 00fe 01       		.byte	0x1
 1973 00ff 5D       		.byte	0x5d
 1974 0100 0A       		.uleb128 0xa
 1975 0101 01       		.byte	0x1
 1976 0102 95010000 		.4byte	.LASF16
 1977 0106 01       		.byte	0x1
 1978 0107 6701     		.2byte	0x167
 1979 0109 01       		.byte	0x1
 1980 010a 00000000 		.4byte	.LFB7
 1981 010e 0C000000 		.4byte	.LFE7
 1982 0112 01       		.byte	0x1
 1983 0113 5D       		.byte	0x5d
 1984 0114 08       		.uleb128 0x8
 1985 0115 01       		.byte	0x1
 1986 0116 19000000 		.4byte	.LASF18
 1987 011a 01       		.byte	0x1
 1988 011b 8101     		.2byte	0x181
 1989 011d 01       		.byte	0x1
 1990 011e 00000000 		.4byte	.LFB8
 1991 0122 0C000000 		.4byte	.LFE8
 1992 0126 01       		.byte	0x1
 1993 0127 5D       		.byte	0x5d
 1994 0128 3B010000 		.4byte	0x13b
 1995 012c 09       		.uleb128 0x9
 1996 012d ED020000 		.4byte	.LASF20
 1997 0131 01       		.byte	0x1
 1998 0132 8101     		.2byte	0x181
 1999 0134 6F000000 		.4byte	0x6f
 2000 0138 01       		.byte	0x1
 2001 0139 50       		.byte	0x50
 2002 013a 00       		.byte	0x0
 2003 013b 0B       		.uleb128 0xb
 2004 013c 01       		.byte	0x1
 2005 013d 2C010000 		.4byte	.LASF24
 2006 0141 01       		.byte	0x1
 2007 0142 A201     		.2byte	0x1a2
 2008 0144 01       		.byte	0x1
 2009 0145 6F000000 		.4byte	0x6f
 2010 0149 00000000 		.4byte	.LFB9
 2011 014d 48000000 		.4byte	.LFE9
 2012 0151 00000000 		.4byte	.LLST5
 2013 0155 88010000 		.4byte	0x188
 2014 0159 0C       		.uleb128 0xc
 2015 015a 56040000 		.4byte	.LASF21
 2016 015e 01       		.byte	0x1
 2017 015f A401     		.2byte	0x1a4
 2018 0161 6F000000 		.4byte	0x6f
 2019 0165 01       		.byte	0x1
 2020 0166 54       		.byte	0x54
 2021 0167 0D       		.uleb128 0xd
ARM GAS  C:\DOCUME~1\ADMINI~1\LOCALS~1\Temp\cc7EA4qV.s 			page 65


 2022 0168 B5020000 		.4byte	.LASF22
 2023 016c 01       		.byte	0x1
 2024 016d A701     		.2byte	0x1a7
 2025 016f 6F000000 		.4byte	0x6f
 2026 0173 1F000000 		.4byte	.LLST6
 2027 0177 0D       		.uleb128 0xd
 2028 0178 07000000 		.4byte	.LASF23
 2029 017c 01       		.byte	0x1
 2030 017d A801     		.2byte	0x1a8
 2031 017f 6F000000 		.4byte	0x6f
 2032 0183 5E000000 		.4byte	.LLST7
 2033 0187 00       		.byte	0x0
 2034 0188 0E       		.uleb128 0xe
 2035 0189 01       		.byte	0x1
 2036 018a C8030000 		.4byte	.LASF25
 2037 018e 01       		.byte	0x1
 2038 018f FD01     		.2byte	0x1fd
 2039 0191 01       		.byte	0x1
 2040 0192 6F000000 		.4byte	0x6f
 2041 0196 00000000 		.4byte	.LFB10
 2042 019a 20000000 		.4byte	.LFE10
 2043 019e 01       		.byte	0x1
 2044 019f 5D       		.byte	0x5d
 2045 01a0 B5010000 		.4byte	0x1b5
 2046 01a4 0D       		.uleb128 0xd
 2047 01a5 14050000 		.4byte	.LASF26
 2048 01a9 01       		.byte	0x1
 2049 01aa FF01     		.2byte	0x1ff
 2050 01ac 6F000000 		.4byte	0x6f
 2051 01b0 71000000 		.4byte	.LLST9
 2052 01b4 00       		.byte	0x0
 2053 01b5 0B       		.uleb128 0xb
 2054 01b6 01       		.byte	0x1
 2055 01b7 03040000 		.4byte	.LASF27
 2056 01bb 01       		.byte	0x1
 2057 01bc 2C02     		.2byte	0x22c
 2058 01be 01       		.byte	0x1
 2059 01bf 6F000000 		.4byte	0x6f
 2060 01c3 00000000 		.4byte	.LFB11
 2061 01c7 60000000 		.4byte	.LFE11
 2062 01cb 84000000 		.4byte	.LLST10
 2063 01cf 12020000 		.4byte	0x212
 2064 01d3 0C       		.uleb128 0xc
 2065 01d4 56040000 		.4byte	.LASF21
 2066 01d8 01       		.byte	0x1
 2067 01d9 2E02     		.2byte	0x22e
 2068 01db 6F000000 		.4byte	0x6f
 2069 01df 01       		.byte	0x1
 2070 01e0 54       		.byte	0x54
 2071 01e1 0D       		.uleb128 0xd
 2072 01e2 53050000 		.4byte	.LASF28
 2073 01e6 01       		.byte	0x1
 2074 01e7 2F02     		.2byte	0x22f
 2075 01e9 6F000000 		.4byte	0x6f
 2076 01ed A3000000 		.4byte	.LLST11
 2077 01f1 0D       		.uleb128 0xd
 2078 01f2 B5020000 		.4byte	.LASF22
ARM GAS  C:\DOCUME~1\ADMINI~1\LOCALS~1\Temp\cc7EA4qV.s 			page 66


 2079 01f6 01       		.byte	0x1
 2080 01f7 3202     		.2byte	0x232
 2081 01f9 6F000000 		.4byte	0x6f
 2082 01fd B6000000 		.4byte	.LLST12
 2083 0201 0D       		.uleb128 0xd
 2084 0202 07000000 		.4byte	.LASF23
 2085 0206 01       		.byte	0x1
 2086 0207 3302     		.2byte	0x233
 2087 0209 6F000000 		.4byte	0x6f
 2088 020d F5000000 		.4byte	.LLST13
 2089 0211 00       		.byte	0x0
 2090 0212 0F       		.uleb128 0xf
 2091 0213 01       		.byte	0x1
 2092 0214 DD000000 		.4byte	.LASF30
 2093 0218 01       		.byte	0x1
 2094 0219 9202     		.2byte	0x292
 2095 021b 01       		.byte	0x1
 2096 021c 7A000000 		.4byte	0x7a
 2097 0220 00000000 		.4byte	.LFB12
 2098 0224 14000000 		.4byte	.LFE12
 2099 0228 08010000 		.4byte	.LLST14
 2100 022c 0B       		.uleb128 0xb
 2101 022d 01       		.byte	0x1
 2102 022e AF040000 		.4byte	.LASF31
 2103 0232 01       		.byte	0x1
 2104 0233 B302     		.2byte	0x2b3
 2105 0235 01       		.byte	0x1
 2106 0236 6F000000 		.4byte	0x6f
 2107 023a 00000000 		.4byte	.LFB13
 2108 023e 3C000000 		.4byte	.LFE13
 2109 0242 27010000 		.4byte	.LLST15
 2110 0246 5B020000 		.4byte	0x25b
 2111 024a 0D       		.uleb128 0xd
 2112 024b 73020000 		.4byte	.LASF32
 2113 024f 01       		.byte	0x1
 2114 0250 B602     		.2byte	0x2b6
 2115 0252 6F000000 		.4byte	0x6f
 2116 0256 46010000 		.4byte	.LLST16
 2117 025a 00       		.byte	0x0
 2118 025b 08       		.uleb128 0x8
 2119 025c 01       		.byte	0x1
 2120 025d 6E050000 		.4byte	.LASF33
 2121 0261 01       		.byte	0x1
 2122 0262 4003     		.2byte	0x340
 2123 0264 01       		.byte	0x1
 2124 0265 00000000 		.4byte	.LFB15
 2125 0269 02000000 		.4byte	.LFE15
 2126 026d 01       		.byte	0x1
 2127 026e 5D       		.byte	0x5d
 2128 026f 82020000 		.4byte	0x282
 2129 0273 09       		.uleb128 0x9
 2130 0274 20010000 		.4byte	.LASF34
 2131 0278 01       		.byte	0x1
 2132 0279 4003     		.2byte	0x340
 2133 027b 6F000000 		.4byte	0x6f
 2134 027f 01       		.byte	0x1
 2135 0280 50       		.byte	0x50
ARM GAS  C:\DOCUME~1\ADMINI~1\LOCALS~1\Temp\cc7EA4qV.s 			page 67


 2136 0281 00       		.byte	0x0
 2137 0282 08       		.uleb128 0x8
 2138 0283 01       		.byte	0x1
 2139 0284 94030000 		.4byte	.LASF35
 2140 0288 01       		.byte	0x1
 2141 0289 6503     		.2byte	0x365
 2142 028b 01       		.byte	0x1
 2143 028c 00000000 		.4byte	.LFB16
 2144 0290 0C000000 		.4byte	.LFE16
 2145 0294 01       		.byte	0x1
 2146 0295 5D       		.byte	0x5d
 2147 0296 A9020000 		.4byte	0x2a9
 2148 029a 09       		.uleb128 0x9
 2149 029b 39030000 		.4byte	.LASF36
 2150 029f 01       		.byte	0x1
 2151 02a0 6503     		.2byte	0x365
 2152 02a2 6F000000 		.4byte	0x6f
 2153 02a6 01       		.byte	0x1
 2154 02a7 50       		.byte	0x50
 2155 02a8 00       		.byte	0x0
 2156 02a9 08       		.uleb128 0x8
 2157 02aa 01       		.byte	0x1
 2158 02ab AE030000 		.4byte	.LASF37
 2159 02af 01       		.byte	0x1
 2160 02b0 7A03     		.2byte	0x37a
 2161 02b2 01       		.byte	0x1
 2162 02b3 00000000 		.4byte	.LFB17
 2163 02b7 0C000000 		.4byte	.LFE17
 2164 02bb 01       		.byte	0x1
 2165 02bc 5D       		.byte	0x5d
 2166 02bd D0020000 		.4byte	0x2d0
 2167 02c1 09       		.uleb128 0x9
 2168 02c2 39030000 		.4byte	.LASF36
 2169 02c6 01       		.byte	0x1
 2170 02c7 7A03     		.2byte	0x37a
 2171 02c9 6F000000 		.4byte	0x6f
 2172 02cd 01       		.byte	0x1
 2173 02ce 50       		.byte	0x50
 2174 02cf 00       		.byte	0x0
 2175 02d0 0A       		.uleb128 0xa
 2176 02d1 01       		.byte	0x1
 2177 02d2 1F020000 		.4byte	.LASF38
 2178 02d6 01       		.byte	0x1
 2179 02d7 9703     		.2byte	0x397
 2180 02d9 01       		.byte	0x1
 2181 02da 00000000 		.4byte	.LFB18
 2182 02de 0C000000 		.4byte	.LFE18
 2183 02e2 01       		.byte	0x1
 2184 02e3 5D       		.byte	0x5d
 2185 02e4 0A       		.uleb128 0xa
 2186 02e5 01       		.byte	0x1
 2187 02e6 5A030000 		.4byte	.LASF39
 2188 02ea 01       		.byte	0x1
 2189 02eb AE03     		.2byte	0x3ae
 2190 02ed 01       		.byte	0x1
 2191 02ee 00000000 		.4byte	.LFB19
 2192 02f2 0C000000 		.4byte	.LFE19
ARM GAS  C:\DOCUME~1\ADMINI~1\LOCALS~1\Temp\cc7EA4qV.s 			page 68


 2193 02f6 01       		.byte	0x1
 2194 02f7 5D       		.byte	0x5d
 2195 02f8 08       		.uleb128 0x8
 2196 02f9 01       		.byte	0x1
 2197 02fa AE010000 		.4byte	.LASF40
 2198 02fe 01       		.byte	0x1
 2199 02ff C803     		.2byte	0x3c8
 2200 0301 01       		.byte	0x1
 2201 0302 00000000 		.4byte	.LFB20
 2202 0306 0C000000 		.4byte	.LFE20
 2203 030a 01       		.byte	0x1
 2204 030b 5D       		.byte	0x5d
 2205 030c 1F030000 		.4byte	0x31f
 2206 0310 09       		.uleb128 0x9
 2207 0311 ED020000 		.4byte	.LASF20
 2208 0315 01       		.byte	0x1
 2209 0316 C803     		.2byte	0x3c8
 2210 0318 6F000000 		.4byte	0x6f
 2211 031c 01       		.byte	0x1
 2212 031d 50       		.byte	0x50
 2213 031e 00       		.byte	0x0
 2214 031f 10       		.uleb128 0x10
 2215 0320 01       		.byte	0x1
 2216 0321 3B050000 		.4byte	.LASF41
 2217 0325 01       		.byte	0x1
 2218 0326 EA03     		.2byte	0x3ea
 2219 0328 01       		.byte	0x1
 2220 0329 00000000 		.4byte	.LFB21
 2221 032d 5C000000 		.4byte	.LFE21
 2222 0331 64010000 		.4byte	.LLST23
 2223 0335 4A030000 		.4byte	0x34a
 2224 0339 11       		.uleb128 0x11
 2225 033a 38000000 		.4byte	.LASF42
 2226 033e 01       		.byte	0x1
 2227 033f EA03     		.2byte	0x3ea
 2228 0341 6F000000 		.4byte	0x6f
 2229 0345 83010000 		.4byte	.LLST24
 2230 0349 00       		.byte	0x0
 2231 034a 07       		.uleb128 0x7
 2232 034b 01       		.byte	0x1
 2233 034c 41030000 		.4byte	.LASF43
 2234 0350 01       		.byte	0x1
 2235 0351 2E04     		.2byte	0x42e
 2236 0353 01       		.byte	0x1
 2237 0354 6F000000 		.4byte	0x6f
 2238 0358 00000000 		.4byte	.LFB22
 2239 035c 0C000000 		.4byte	.LFE22
 2240 0360 01       		.byte	0x1
 2241 0361 5D       		.byte	0x5d
 2242 0362 08       		.uleb128 0x8
 2243 0363 01       		.byte	0x1
 2244 0364 5D040000 		.4byte	.LASF44
 2245 0368 01       		.byte	0x1
 2246 0369 5204     		.2byte	0x452
 2247 036b 01       		.byte	0x1
 2248 036c 00000000 		.4byte	.LFB23
 2249 0370 5C000000 		.4byte	.LFE23
ARM GAS  C:\DOCUME~1\ADMINI~1\LOCALS~1\Temp\cc7EA4qV.s 			page 69


 2250 0374 01       		.byte	0x1
 2251 0375 5D       		.byte	0x5d
 2252 0376 A9030000 		.4byte	0x3a9
 2253 037a 09       		.uleb128 0x9
 2254 037b 38000000 		.4byte	.LASF42
 2255 037f 01       		.byte	0x1
 2256 0380 5204     		.2byte	0x452
 2257 0382 6F000000 		.4byte	0x6f
 2258 0386 01       		.byte	0x1
 2259 0387 50       		.byte	0x50
 2260 0388 0D       		.uleb128 0xd
 2261 0389 27030000 		.4byte	.LASF45
 2262 038d 01       		.byte	0x1
 2263 038e 5904     		.2byte	0x459
 2264 0390 6F000000 		.4byte	0x6f
 2265 0394 A1010000 		.4byte	.LLST27
 2266 0398 0D       		.uleb128 0xd
 2267 0399 0E020000 		.4byte	.LASF46
 2268 039d 01       		.byte	0x1
 2269 039e 5A04     		.2byte	0x45a
 2270 03a0 6F000000 		.4byte	0x6f
 2271 03a4 D5010000 		.4byte	.LLST28
 2272 03a8 00       		.byte	0x0
 2273 03a9 10       		.uleb128 0x10
 2274 03aa 01       		.byte	0x1
 2275 03ab 11030000 		.4byte	.LASF47
 2276 03af 01       		.byte	0x1
 2277 03b0 AE04     		.2byte	0x4ae
 2278 03b2 01       		.byte	0x1
 2279 03b3 00000000 		.4byte	.LFB24
 2280 03b7 24000000 		.4byte	.LFE24
 2281 03bb FE010000 		.4byte	.LLST29
 2282 03bf E4030000 		.4byte	0x3e4
 2283 03c3 11       		.uleb128 0x11
 2284 03c4 43000000 		.4byte	.LASF48
 2285 03c8 01       		.byte	0x1
 2286 03c9 AE04     		.2byte	0x4ae
 2287 03cb E4030000 		.4byte	0x3e4
 2288 03cf 1D020000 		.4byte	.LLST30
 2289 03d3 0D       		.uleb128 0xd
 2290 03d4 A5050000 		.4byte	.LASF49
 2291 03d8 01       		.byte	0x1
 2292 03d9 B004     		.2byte	0x4b0
 2293 03db 7A000000 		.4byte	0x7a
 2294 03df 3B020000 		.4byte	.LLST31
 2295 03e3 00       		.byte	0x0
 2296 03e4 12       		.uleb128 0x12
 2297 03e5 04       		.byte	0x4
 2298 03e6 EA030000 		.4byte	0x3ea
 2299 03ea 13       		.uleb128 0x13
 2300 03eb 93000000 		.4byte	0x93
 2301 03ef 10       		.uleb128 0x10
 2302 03f0 01       		.byte	0x1
 2303 03f1 F4020000 		.4byte	.LASF50
 2304 03f5 01       		.byte	0x1
 2305 03f6 D404     		.2byte	0x4d4
 2306 03f8 01       		.byte	0x1
ARM GAS  C:\DOCUME~1\ADMINI~1\LOCALS~1\Temp\cc7EA4qV.s 			page 70


 2307 03f9 00000000 		.4byte	.LFB25
 2308 03fd 24000000 		.4byte	.LFE25
 2309 0401 59020000 		.4byte	.LLST32
 2310 0405 36040000 		.4byte	0x436
 2311 0409 11       		.uleb128 0x11
 2312 040a 43000000 		.4byte	.LASF48
 2313 040e 01       		.byte	0x1
 2314 040f D404     		.2byte	0x4d4
 2315 0411 36040000 		.4byte	0x436
 2316 0415 78020000 		.4byte	.LLST33
 2317 0419 11       		.uleb128 0x11
 2318 041a 2F040000 		.4byte	.LASF51
 2319 041e 01       		.byte	0x1
 2320 041f D404     		.2byte	0x4d4
 2321 0421 6F000000 		.4byte	0x6f
 2322 0425 96020000 		.4byte	.LLST34
 2323 0429 14       		.uleb128 0x14
 2324 042a A5050000 		.4byte	.LASF49
 2325 042e 01       		.byte	0x1
 2326 042f D704     		.2byte	0x4d7
 2327 0431 6F000000 		.4byte	0x6f
 2328 0435 00       		.byte	0x0
 2329 0436 12       		.uleb128 0x12
 2330 0437 04       		.byte	0x4
 2331 0438 3C040000 		.4byte	0x43c
 2332 043c 13       		.uleb128 0x13
 2333 043d 6F000000 		.4byte	0x6f
 2334 0441 10       		.uleb128 0x10
 2335 0442 01       		.byte	0x1
 2336 0443 DC040000 		.4byte	.LASF52
 2337 0447 01       		.byte	0x1
 2338 0448 F904     		.2byte	0x4f9
 2339 044a 01       		.byte	0x1
 2340 044b 00000000 		.4byte	.LFB26
 2341 044f 24000000 		.4byte	.LFE26
 2342 0453 B4020000 		.4byte	.LLST35
 2343 0457 6C040000 		.4byte	0x46c
 2344 045b 11       		.uleb128 0x11
 2345 045c 38000000 		.4byte	.LASF42
 2346 0460 01       		.byte	0x1
 2347 0461 F904     		.2byte	0x4f9
 2348 0463 6F000000 		.4byte	0x6f
 2349 0467 D3020000 		.4byte	.LLST36
 2350 046b 00       		.byte	0x0
 2351 046c 0B       		.uleb128 0xb
 2352 046d 01       		.byte	0x1
 2353 046e E1030000 		.4byte	.LASF53
 2354 0472 01       		.byte	0x1
 2355 0473 1E05     		.2byte	0x51e
 2356 0475 01       		.byte	0x1
 2357 0476 6F000000 		.4byte	0x6f
 2358 047a 00000000 		.4byte	.LFB27
 2359 047e 38000000 		.4byte	.LFE27
 2360 0482 F1020000 		.4byte	.LLST37
 2361 0486 9B040000 		.4byte	0x49b
 2362 048a 0D       		.uleb128 0xd
 2363 048b 73020000 		.4byte	.LASF32
ARM GAS  C:\DOCUME~1\ADMINI~1\LOCALS~1\Temp\cc7EA4qV.s 			page 71


 2364 048f 01       		.byte	0x1
 2365 0490 2105     		.2byte	0x521
 2366 0492 6F000000 		.4byte	0x6f
 2367 0496 10030000 		.4byte	.LLST38
 2368 049a 00       		.byte	0x0
 2369 049b 08       		.uleb128 0x8
 2370 049c 01       		.byte	0x1
 2371 049d 9F020000 		.4byte	.LASF54
 2372 04a1 01       		.byte	0x1
 2373 04a2 CD05     		.2byte	0x5cd
 2374 04a4 01       		.byte	0x1
 2375 04a5 00000000 		.4byte	.LFB29
 2376 04a9 58000000 		.4byte	.LFE29
 2377 04ad 01       		.byte	0x1
 2378 04ae 5D       		.byte	0x5d
 2379 04af EC040000 		.4byte	0x4ec
 2380 04b3 11       		.uleb128 0x11
 2381 04b4 CD010000 		.4byte	.LASF55
 2382 04b8 01       		.byte	0x1
 2383 04b9 CD05     		.2byte	0x5cd
 2384 04bb 6F000000 		.4byte	0x6f
 2385 04bf 2E030000 		.4byte	.LLST40
 2386 04c3 15       		.uleb128 0x15
 2387 04c4 06000000 		.4byte	.LBB2
 2388 04c8 58000000 		.4byte	.LBE2
 2389 04cc 14       		.uleb128 0x14
 2390 04cd 09030000 		.4byte	.LASF56
 2391 04d1 01       		.byte	0x1
 2392 04d2 D505     		.2byte	0x5d5
 2393 04d4 6F000000 		.4byte	0x6f
 2394 04d8 0C       		.uleb128 0xc
 2395 04d9 E3020000 		.4byte	.LASF57
 2396 04dd 01       		.byte	0x1
 2397 04de FB05     		.2byte	0x5fb
 2398 04e0 6F000000 		.4byte	0x6f
 2399 04e4 05       		.byte	0x5
 2400 04e5 03       		.byte	0x3
 2401 04e6 07000000 		.4byte	tx_period.2355
 2402 04ea 00       		.byte	0x0
 2403 04eb 00       		.byte	0x0
 2404 04ec 08       		.uleb128 0x8
 2405 04ed 01       		.byte	0x1
 2406 04ee 39040000 		.4byte	.LASF58
 2407 04f2 01       		.byte	0x1
 2408 04f3 4606     		.2byte	0x646
 2409 04f5 01       		.byte	0x1
 2410 04f6 00000000 		.4byte	.LFB30
 2411 04fa 02000000 		.4byte	.LFE30
 2412 04fe 01       		.byte	0x1
 2413 04ff 5D       		.byte	0x5d
 2414 0500 13050000 		.4byte	0x513
 2415 0504 09       		.uleb128 0x9
 2416 0505 20010000 		.4byte	.LASF34
 2417 0509 01       		.byte	0x1
 2418 050a 4606     		.2byte	0x646
 2419 050c 6F000000 		.4byte	0x6f
 2420 0510 01       		.byte	0x1
ARM GAS  C:\DOCUME~1\ADMINI~1\LOCALS~1\Temp\cc7EA4qV.s 			page 72


 2421 0511 50       		.byte	0x50
 2422 0512 00       		.byte	0x0
 2423 0513 10       		.uleb128 0x10
 2424 0514 01       		.byte	0x1
 2425 0515 F4010000 		.4byte	.LASF59
 2426 0519 01       		.byte	0x1
 2427 051a 7405     		.2byte	0x574
 2428 051c 01       		.byte	0x1
 2429 051d 00000000 		.4byte	.LFB28
 2430 0521 38000000 		.4byte	.LFE28
 2431 0525 4C030000 		.4byte	.LLST42
 2432 0529 3A050000 		.4byte	0x53a
 2433 052d 14       		.uleb128 0x14
 2434 052e 03050000 		.4byte	.LASF60
 2435 0532 01       		.byte	0x1
 2436 0533 7605     		.2byte	0x576
 2437 0535 6F000000 		.4byte	0x6f
 2438 0539 00       		.byte	0x0
 2439 053a 10       		.uleb128 0x10
 2440 053b 01       		.byte	0x1
 2441 053c 8B050000 		.4byte	.LASF61
 2442 0540 01       		.byte	0x1
 2443 0541 0303     		.2byte	0x303
 2444 0543 01       		.byte	0x1
 2445 0544 00000000 		.4byte	.LFB14
 2446 0548 3C000000 		.4byte	.LFE14
 2447 054c 6B030000 		.4byte	.LLST43
 2448 0550 61050000 		.4byte	0x561
 2449 0554 14       		.uleb128 0x14
 2450 0555 03050000 		.4byte	.LASF60
 2451 0559 01       		.byte	0x1
 2452 055a 0503     		.2byte	0x305
 2453 055c 6F000000 		.4byte	0x6f
 2454 0560 00       		.byte	0x0
 2455 0561 16       		.uleb128 0x16
 2456 0562 01       		.byte	0x1
 2457 0563 CB040000 		.4byte	.LASF62
 2458 0567 01       		.byte	0x1
 2459 0568 E3       		.byte	0xe3
 2460 0569 01       		.byte	0x1
 2461 056a 00000000 		.4byte	.LFB3
 2462 056e 44000000 		.4byte	.LFE3
 2463 0572 8A030000 		.4byte	.LLST44
 2464 0576 86050000 		.4byte	0x586
 2465 057a 17       		.uleb128 0x17
 2466 057b 03050000 		.4byte	.LASF60
 2467 057f 01       		.byte	0x1
 2468 0580 E5       		.byte	0xe5
 2469 0581 6F000000 		.4byte	0x6f
 2470 0585 00       		.byte	0x0
 2471 0586 16       		.uleb128 0x16
 2472 0587 01       		.byte	0x1
 2473 0588 F0040000 		.4byte	.LASF63
 2474 058c 01       		.byte	0x1
 2475 058d AE       		.byte	0xae
 2476 058e 01       		.byte	0x1
 2477 058f 00000000 		.4byte	.LFB2
ARM GAS  C:\DOCUME~1\ADMINI~1\LOCALS~1\Temp\cc7EA4qV.s 			page 73


 2478 0593 48000000 		.4byte	.LFE2
 2479 0597 A9030000 		.4byte	.LLST45
 2480 059b AB050000 		.4byte	0x5ab
 2481 059f 17       		.uleb128 0x17
 2482 05a0 03050000 		.4byte	.LASF60
 2483 05a4 01       		.byte	0x1
 2484 05a5 B0       		.byte	0xb0
 2485 05a6 6F000000 		.4byte	0x6f
 2486 05aa 00       		.byte	0x0
 2487 05ab 18       		.uleb128 0x18
 2488 05ac 01       		.byte	0x1
 2489 05ad 43010000 		.4byte	.LASF64
 2490 05b1 01       		.byte	0x1
 2491 05b2 65       		.byte	0x65
 2492 05b3 01       		.byte	0x1
 2493 05b4 00000000 		.4byte	.LFB1
 2494 05b8 58000000 		.4byte	.LFE1
 2495 05bc C8030000 		.4byte	.LLST46
 2496 05c0 18       		.uleb128 0x18
 2497 05c1 01       		.byte	0x1
 2498 05c2 5C050000 		.4byte	.LASF65
 2499 05c6 01       		.byte	0x1
 2500 05c7 49       		.byte	0x49
 2501 05c8 01       		.byte	0x1
 2502 05c9 00000000 		.4byte	.LFB0
 2503 05cd 1C000000 		.4byte	.LFE0
 2504 05d1 E7030000 		.4byte	.LLST47
 2505 05d5 19       		.uleb128 0x19
 2506 05d6 8B020000 		.4byte	.LASF66
 2507 05da 01       		.byte	0x1
 2508 05db 1C       		.byte	0x1c
 2509 05dc 6F000000 		.4byte	0x6f
 2510 05e0 01       		.byte	0x1
 2511 05e1 05       		.byte	0x5
 2512 05e2 03       		.byte	0x3
 2513 05e3 00000000 		.4byte	UART_Bridge_initVar
 2514 05e7 1A       		.uleb128 0x1a
 2515 05e8 6F000000 		.4byte	0x6f
 2516 05ec F7050000 		.4byte	0x5f7
 2517 05f0 1B       		.uleb128 0x1b
 2518 05f1 AA000000 		.4byte	0xaa
 2519 05f5 7F       		.byte	0x7f
 2520 05f6 00       		.byte	0x0
 2521 05f7 19       		.uleb128 0x19
 2522 05f8 5E020000 		.4byte	.LASF67
 2523 05fc 01       		.byte	0x1
 2524 05fd 1E       		.byte	0x1e
 2525 05fe 09060000 		.4byte	0x609
 2526 0602 01       		.byte	0x1
 2527 0603 05       		.byte	0x5
 2528 0604 03       		.byte	0x3
 2529 0605 00000000 		.4byte	UART_Bridge_txBuffer
 2530 0609 05       		.uleb128 0x5
 2531 060a E7050000 		.4byte	0x5e7
 2532 060e 19       		.uleb128 0x19
 2533 060f 00010000 		.4byte	.LASF68
 2534 0613 01       		.byte	0x1
ARM GAS  C:\DOCUME~1\ADMINI~1\LOCALS~1\Temp\cc7EA4qV.s 			page 74


 2535 0614 1F       		.byte	0x1f
 2536 0615 A5000000 		.4byte	0xa5
 2537 0619 01       		.byte	0x1
 2538 061a 05       		.byte	0x5
 2539 061b 03       		.byte	0x3
 2540 061c 00000000 		.4byte	UART_Bridge_txBufferRead
 2541 0620 19       		.uleb128 0x19
 2542 0621 76040000 		.4byte	.LASF69
 2543 0625 01       		.byte	0x1
 2544 0626 20       		.byte	0x20
 2545 0627 6F000000 		.4byte	0x6f
 2546 062b 01       		.byte	0x1
 2547 062c 05       		.byte	0x5
 2548 062d 03       		.byte	0x3
 2549 062e 00000000 		.4byte	UART_Bridge_txBufferWrite
 2550 0632 19       		.uleb128 0x19
 2551 0633 AF050000 		.4byte	.LASF70
 2552 0637 01       		.byte	0x1
 2553 0638 24       		.byte	0x24
 2554 0639 44060000 		.4byte	0x644
 2555 063d 01       		.byte	0x1
 2556 063e 05       		.byte	0x5
 2557 063f 03       		.byte	0x3
 2558 0640 00000000 		.4byte	UART_Bridge_rxBuffer
 2559 0644 05       		.uleb128 0x5
 2560 0645 E7050000 		.4byte	0x5e7
 2561 0649 19       		.uleb128 0x19
 2562 064a 96040000 		.4byte	.LASF71
 2563 064e 01       		.byte	0x1
 2564 064f 25       		.byte	0x25
 2565 0650 A5000000 		.4byte	0xa5
 2566 0654 01       		.byte	0x1
 2567 0655 05       		.byte	0x5
 2568 0656 03       		.byte	0x3
 2569 0657 00000000 		.4byte	UART_Bridge_rxBufferRead
 2570 065b 19       		.uleb128 0x19
 2571 065c 5C010000 		.4byte	.LASF72
 2572 0660 01       		.byte	0x1
 2573 0661 26       		.byte	0x26
 2574 0662 A5000000 		.4byte	0xa5
 2575 0666 01       		.byte	0x1
 2576 0667 05       		.byte	0x5
 2577 0668 03       		.byte	0x3
 2578 0669 00000000 		.4byte	UART_Bridge_rxBufferWrite
 2579 066d 19       		.uleb128 0x19
 2580 066e 76010000 		.4byte	.LASF73
 2581 0672 01       		.byte	0x1
 2582 0673 27       		.byte	0x27
 2583 0674 A5000000 		.4byte	0xa5
 2584 0678 01       		.byte	0x1
 2585 0679 05       		.byte	0x5
 2586 067a 03       		.byte	0x3
 2587 067b 00000000 		.4byte	UART_Bridge_rxBufferLoopDetect
 2588 067f 19       		.uleb128 0x19
 2589 0680 C6020000 		.4byte	.LASF74
 2590 0684 01       		.byte	0x1
 2591 0685 28       		.byte	0x28
ARM GAS  C:\DOCUME~1\ADMINI~1\LOCALS~1\Temp\cc7EA4qV.s 			page 75


 2592 0686 A5000000 		.4byte	0xa5
 2593 068a 01       		.byte	0x1
 2594 068b 05       		.byte	0x5
 2595 068c 03       		.byte	0x3
 2596 068d 00000000 		.4byte	UART_Bridge_rxBufferOverflow
 2597 0691 00       		.byte	0x0
 2598              		.section	.debug_abbrev
 2599 0000 01       		.uleb128 0x1
 2600 0001 11       		.uleb128 0x11
 2601 0002 01       		.byte	0x1
 2602 0003 25       		.uleb128 0x25
 2603 0004 0E       		.uleb128 0xe
 2604 0005 13       		.uleb128 0x13
 2605 0006 0B       		.uleb128 0xb
 2606 0007 03       		.uleb128 0x3
 2607 0008 0E       		.uleb128 0xe
 2608 0009 1B       		.uleb128 0x1b
 2609 000a 0E       		.uleb128 0xe
 2610 000b 11       		.uleb128 0x11
 2611 000c 01       		.uleb128 0x1
 2612 000d 52       		.uleb128 0x52
 2613 000e 01       		.uleb128 0x1
 2614 000f 55       		.uleb128 0x55
 2615 0010 06       		.uleb128 0x6
 2616 0011 10       		.uleb128 0x10
 2617 0012 06       		.uleb128 0x6
 2618 0013 00       		.byte	0x0
 2619 0014 00       		.byte	0x0
 2620 0015 02       		.uleb128 0x2
 2621 0016 24       		.uleb128 0x24
 2622 0017 00       		.byte	0x0
 2623 0018 0B       		.uleb128 0xb
 2624 0019 0B       		.uleb128 0xb
 2625 001a 3E       		.uleb128 0x3e
 2626 001b 0B       		.uleb128 0xb
 2627 001c 03       		.uleb128 0x3
 2628 001d 0E       		.uleb128 0xe
 2629 001e 00       		.byte	0x0
 2630 001f 00       		.byte	0x0
 2631 0020 03       		.uleb128 0x3
 2632 0021 24       		.uleb128 0x24
 2633 0022 00       		.byte	0x0
 2634 0023 0B       		.uleb128 0xb
 2635 0024 0B       		.uleb128 0xb
 2636 0025 3E       		.uleb128 0x3e
 2637 0026 0B       		.uleb128 0xb
 2638 0027 03       		.uleb128 0x3
 2639 0028 08       		.uleb128 0x8
 2640 0029 00       		.byte	0x0
 2641 002a 00       		.byte	0x0
 2642 002b 04       		.uleb128 0x4
 2643 002c 16       		.uleb128 0x16
 2644 002d 00       		.byte	0x0
 2645 002e 03       		.uleb128 0x3
 2646 002f 0E       		.uleb128 0xe
 2647 0030 3A       		.uleb128 0x3a
 2648 0031 0B       		.uleb128 0xb
ARM GAS  C:\DOCUME~1\ADMINI~1\LOCALS~1\Temp\cc7EA4qV.s 			page 76


 2649 0032 3B       		.uleb128 0x3b
 2650 0033 0B       		.uleb128 0xb
 2651 0034 49       		.uleb128 0x49
 2652 0035 13       		.uleb128 0x13
 2653 0036 00       		.byte	0x0
 2654 0037 00       		.byte	0x0
 2655 0038 05       		.uleb128 0x5
 2656 0039 35       		.uleb128 0x35
 2657 003a 00       		.byte	0x0
 2658 003b 49       		.uleb128 0x49
 2659 003c 13       		.uleb128 0x13
 2660 003d 00       		.byte	0x0
 2661 003e 00       		.byte	0x0
 2662 003f 06       		.uleb128 0x6
 2663 0040 24       		.uleb128 0x24
 2664 0041 00       		.byte	0x0
 2665 0042 0B       		.uleb128 0xb
 2666 0043 0B       		.uleb128 0xb
 2667 0044 3E       		.uleb128 0x3e
 2668 0045 0B       		.uleb128 0xb
 2669 0046 00       		.byte	0x0
 2670 0047 00       		.byte	0x0
 2671 0048 07       		.uleb128 0x7
 2672 0049 2E       		.uleb128 0x2e
 2673 004a 00       		.byte	0x0
 2674 004b 3F       		.uleb128 0x3f
 2675 004c 0C       		.uleb128 0xc
 2676 004d 03       		.uleb128 0x3
 2677 004e 0E       		.uleb128 0xe
 2678 004f 3A       		.uleb128 0x3a
 2679 0050 0B       		.uleb128 0xb
 2680 0051 3B       		.uleb128 0x3b
 2681 0052 05       		.uleb128 0x5
 2682 0053 27       		.uleb128 0x27
 2683 0054 0C       		.uleb128 0xc
 2684 0055 49       		.uleb128 0x49
 2685 0056 13       		.uleb128 0x13
 2686 0057 11       		.uleb128 0x11
 2687 0058 01       		.uleb128 0x1
 2688 0059 12       		.uleb128 0x12
 2689 005a 01       		.uleb128 0x1
 2690 005b 40       		.uleb128 0x40
 2691 005c 0A       		.uleb128 0xa
 2692 005d 00       		.byte	0x0
 2693 005e 00       		.byte	0x0
 2694 005f 08       		.uleb128 0x8
 2695 0060 2E       		.uleb128 0x2e
 2696 0061 01       		.byte	0x1
 2697 0062 3F       		.uleb128 0x3f
 2698 0063 0C       		.uleb128 0xc
 2699 0064 03       		.uleb128 0x3
 2700 0065 0E       		.uleb128 0xe
 2701 0066 3A       		.uleb128 0x3a
 2702 0067 0B       		.uleb128 0xb
 2703 0068 3B       		.uleb128 0x3b
 2704 0069 05       		.uleb128 0x5
 2705 006a 27       		.uleb128 0x27
ARM GAS  C:\DOCUME~1\ADMINI~1\LOCALS~1\Temp\cc7EA4qV.s 			page 77


 2706 006b 0C       		.uleb128 0xc
 2707 006c 11       		.uleb128 0x11
 2708 006d 01       		.uleb128 0x1
 2709 006e 12       		.uleb128 0x12
 2710 006f 01       		.uleb128 0x1
 2711 0070 40       		.uleb128 0x40
 2712 0071 0A       		.uleb128 0xa
 2713 0072 01       		.uleb128 0x1
 2714 0073 13       		.uleb128 0x13
 2715 0074 00       		.byte	0x0
 2716 0075 00       		.byte	0x0
 2717 0076 09       		.uleb128 0x9
 2718 0077 05       		.uleb128 0x5
 2719 0078 00       		.byte	0x0
 2720 0079 03       		.uleb128 0x3
 2721 007a 0E       		.uleb128 0xe
 2722 007b 3A       		.uleb128 0x3a
 2723 007c 0B       		.uleb128 0xb
 2724 007d 3B       		.uleb128 0x3b
 2725 007e 05       		.uleb128 0x5
 2726 007f 49       		.uleb128 0x49
 2727 0080 13       		.uleb128 0x13
 2728 0081 02       		.uleb128 0x2
 2729 0082 0A       		.uleb128 0xa
 2730 0083 00       		.byte	0x0
 2731 0084 00       		.byte	0x0
 2732 0085 0A       		.uleb128 0xa
 2733 0086 2E       		.uleb128 0x2e
 2734 0087 00       		.byte	0x0
 2735 0088 3F       		.uleb128 0x3f
 2736 0089 0C       		.uleb128 0xc
 2737 008a 03       		.uleb128 0x3
 2738 008b 0E       		.uleb128 0xe
 2739 008c 3A       		.uleb128 0x3a
 2740 008d 0B       		.uleb128 0xb
 2741 008e 3B       		.uleb128 0x3b
 2742 008f 05       		.uleb128 0x5
 2743 0090 27       		.uleb128 0x27
 2744 0091 0C       		.uleb128 0xc
 2745 0092 11       		.uleb128 0x11
 2746 0093 01       		.uleb128 0x1
 2747 0094 12       		.uleb128 0x12
 2748 0095 01       		.uleb128 0x1
 2749 0096 40       		.uleb128 0x40
 2750 0097 0A       		.uleb128 0xa
 2751 0098 00       		.byte	0x0
 2752 0099 00       		.byte	0x0
 2753 009a 0B       		.uleb128 0xb
 2754 009b 2E       		.uleb128 0x2e
 2755 009c 01       		.byte	0x1
 2756 009d 3F       		.uleb128 0x3f
 2757 009e 0C       		.uleb128 0xc
 2758 009f 03       		.uleb128 0x3
 2759 00a0 0E       		.uleb128 0xe
 2760 00a1 3A       		.uleb128 0x3a
 2761 00a2 0B       		.uleb128 0xb
 2762 00a3 3B       		.uleb128 0x3b
ARM GAS  C:\DOCUME~1\ADMINI~1\LOCALS~1\Temp\cc7EA4qV.s 			page 78


 2763 00a4 05       		.uleb128 0x5
 2764 00a5 27       		.uleb128 0x27
 2765 00a6 0C       		.uleb128 0xc
 2766 00a7 49       		.uleb128 0x49
 2767 00a8 13       		.uleb128 0x13
 2768 00a9 11       		.uleb128 0x11
 2769 00aa 01       		.uleb128 0x1
 2770 00ab 12       		.uleb128 0x12
 2771 00ac 01       		.uleb128 0x1
 2772 00ad 40       		.uleb128 0x40
 2773 00ae 06       		.uleb128 0x6
 2774 00af 01       		.uleb128 0x1
 2775 00b0 13       		.uleb128 0x13
 2776 00b1 00       		.byte	0x0
 2777 00b2 00       		.byte	0x0
 2778 00b3 0C       		.uleb128 0xc
 2779 00b4 34       		.uleb128 0x34
 2780 00b5 00       		.byte	0x0
 2781 00b6 03       		.uleb128 0x3
 2782 00b7 0E       		.uleb128 0xe
 2783 00b8 3A       		.uleb128 0x3a
 2784 00b9 0B       		.uleb128 0xb
 2785 00ba 3B       		.uleb128 0x3b
 2786 00bb 05       		.uleb128 0x5
 2787 00bc 49       		.uleb128 0x49
 2788 00bd 13       		.uleb128 0x13
 2789 00be 02       		.uleb128 0x2
 2790 00bf 0A       		.uleb128 0xa
 2791 00c0 00       		.byte	0x0
 2792 00c1 00       		.byte	0x0
 2793 00c2 0D       		.uleb128 0xd
 2794 00c3 34       		.uleb128 0x34
 2795 00c4 00       		.byte	0x0
 2796 00c5 03       		.uleb128 0x3
 2797 00c6 0E       		.uleb128 0xe
 2798 00c7 3A       		.uleb128 0x3a
 2799 00c8 0B       		.uleb128 0xb
 2800 00c9 3B       		.uleb128 0x3b
 2801 00ca 05       		.uleb128 0x5
 2802 00cb 49       		.uleb128 0x49
 2803 00cc 13       		.uleb128 0x13
 2804 00cd 02       		.uleb128 0x2
 2805 00ce 06       		.uleb128 0x6
 2806 00cf 00       		.byte	0x0
 2807 00d0 00       		.byte	0x0
 2808 00d1 0E       		.uleb128 0xe
 2809 00d2 2E       		.uleb128 0x2e
 2810 00d3 01       		.byte	0x1
 2811 00d4 3F       		.uleb128 0x3f
 2812 00d5 0C       		.uleb128 0xc
 2813 00d6 03       		.uleb128 0x3
 2814 00d7 0E       		.uleb128 0xe
 2815 00d8 3A       		.uleb128 0x3a
 2816 00d9 0B       		.uleb128 0xb
 2817 00da 3B       		.uleb128 0x3b
 2818 00db 05       		.uleb128 0x5
 2819 00dc 27       		.uleb128 0x27
ARM GAS  C:\DOCUME~1\ADMINI~1\LOCALS~1\Temp\cc7EA4qV.s 			page 79


 2820 00dd 0C       		.uleb128 0xc
 2821 00de 49       		.uleb128 0x49
 2822 00df 13       		.uleb128 0x13
 2823 00e0 11       		.uleb128 0x11
 2824 00e1 01       		.uleb128 0x1
 2825 00e2 12       		.uleb128 0x12
 2826 00e3 01       		.uleb128 0x1
 2827 00e4 40       		.uleb128 0x40
 2828 00e5 0A       		.uleb128 0xa
 2829 00e6 01       		.uleb128 0x1
 2830 00e7 13       		.uleb128 0x13
 2831 00e8 00       		.byte	0x0
 2832 00e9 00       		.byte	0x0
 2833 00ea 0F       		.uleb128 0xf
 2834 00eb 2E       		.uleb128 0x2e
 2835 00ec 00       		.byte	0x0
 2836 00ed 3F       		.uleb128 0x3f
 2837 00ee 0C       		.uleb128 0xc
 2838 00ef 03       		.uleb128 0x3
 2839 00f0 0E       		.uleb128 0xe
 2840 00f1 3A       		.uleb128 0x3a
 2841 00f2 0B       		.uleb128 0xb
 2842 00f3 3B       		.uleb128 0x3b
 2843 00f4 05       		.uleb128 0x5
 2844 00f5 27       		.uleb128 0x27
 2845 00f6 0C       		.uleb128 0xc
 2846 00f7 49       		.uleb128 0x49
 2847 00f8 13       		.uleb128 0x13
 2848 00f9 11       		.uleb128 0x11
 2849 00fa 01       		.uleb128 0x1
 2850 00fb 12       		.uleb128 0x12
 2851 00fc 01       		.uleb128 0x1
 2852 00fd 40       		.uleb128 0x40
 2853 00fe 06       		.uleb128 0x6
 2854 00ff 00       		.byte	0x0
 2855 0100 00       		.byte	0x0
 2856 0101 10       		.uleb128 0x10
 2857 0102 2E       		.uleb128 0x2e
 2858 0103 01       		.byte	0x1
 2859 0104 3F       		.uleb128 0x3f
 2860 0105 0C       		.uleb128 0xc
 2861 0106 03       		.uleb128 0x3
 2862 0107 0E       		.uleb128 0xe
 2863 0108 3A       		.uleb128 0x3a
 2864 0109 0B       		.uleb128 0xb
 2865 010a 3B       		.uleb128 0x3b
 2866 010b 05       		.uleb128 0x5
 2867 010c 27       		.uleb128 0x27
 2868 010d 0C       		.uleb128 0xc
 2869 010e 11       		.uleb128 0x11
 2870 010f 01       		.uleb128 0x1
 2871 0110 12       		.uleb128 0x12
 2872 0111 01       		.uleb128 0x1
 2873 0112 40       		.uleb128 0x40
 2874 0113 06       		.uleb128 0x6
 2875 0114 01       		.uleb128 0x1
 2876 0115 13       		.uleb128 0x13
ARM GAS  C:\DOCUME~1\ADMINI~1\LOCALS~1\Temp\cc7EA4qV.s 			page 80


 2877 0116 00       		.byte	0x0
 2878 0117 00       		.byte	0x0
 2879 0118 11       		.uleb128 0x11
 2880 0119 05       		.uleb128 0x5
 2881 011a 00       		.byte	0x0
 2882 011b 03       		.uleb128 0x3
 2883 011c 0E       		.uleb128 0xe
 2884 011d 3A       		.uleb128 0x3a
 2885 011e 0B       		.uleb128 0xb
 2886 011f 3B       		.uleb128 0x3b
 2887 0120 05       		.uleb128 0x5
 2888 0121 49       		.uleb128 0x49
 2889 0122 13       		.uleb128 0x13
 2890 0123 02       		.uleb128 0x2
 2891 0124 06       		.uleb128 0x6
 2892 0125 00       		.byte	0x0
 2893 0126 00       		.byte	0x0
 2894 0127 12       		.uleb128 0x12
 2895 0128 0F       		.uleb128 0xf
 2896 0129 00       		.byte	0x0
 2897 012a 0B       		.uleb128 0xb
 2898 012b 0B       		.uleb128 0xb
 2899 012c 49       		.uleb128 0x49
 2900 012d 13       		.uleb128 0x13
 2901 012e 00       		.byte	0x0
 2902 012f 00       		.byte	0x0
 2903 0130 13       		.uleb128 0x13
 2904 0131 26       		.uleb128 0x26
 2905 0132 00       		.byte	0x0
 2906 0133 49       		.uleb128 0x49
 2907 0134 13       		.uleb128 0x13
 2908 0135 00       		.byte	0x0
 2909 0136 00       		.byte	0x0
 2910 0137 14       		.uleb128 0x14
 2911 0138 34       		.uleb128 0x34
 2912 0139 00       		.byte	0x0
 2913 013a 03       		.uleb128 0x3
 2914 013b 0E       		.uleb128 0xe
 2915 013c 3A       		.uleb128 0x3a
 2916 013d 0B       		.uleb128 0xb
 2917 013e 3B       		.uleb128 0x3b
 2918 013f 05       		.uleb128 0x5
 2919 0140 49       		.uleb128 0x49
 2920 0141 13       		.uleb128 0x13
 2921 0142 00       		.byte	0x0
 2922 0143 00       		.byte	0x0
 2923 0144 15       		.uleb128 0x15
 2924 0145 0B       		.uleb128 0xb
 2925 0146 01       		.byte	0x1
 2926 0147 11       		.uleb128 0x11
 2927 0148 01       		.uleb128 0x1
 2928 0149 12       		.uleb128 0x12
 2929 014a 01       		.uleb128 0x1
 2930 014b 00       		.byte	0x0
 2931 014c 00       		.byte	0x0
 2932 014d 16       		.uleb128 0x16
 2933 014e 2E       		.uleb128 0x2e
ARM GAS  C:\DOCUME~1\ADMINI~1\LOCALS~1\Temp\cc7EA4qV.s 			page 81


 2934 014f 01       		.byte	0x1
 2935 0150 3F       		.uleb128 0x3f
 2936 0151 0C       		.uleb128 0xc
 2937 0152 03       		.uleb128 0x3
 2938 0153 0E       		.uleb128 0xe
 2939 0154 3A       		.uleb128 0x3a
 2940 0155 0B       		.uleb128 0xb
 2941 0156 3B       		.uleb128 0x3b
 2942 0157 0B       		.uleb128 0xb
 2943 0158 27       		.uleb128 0x27
 2944 0159 0C       		.uleb128 0xc
 2945 015a 11       		.uleb128 0x11
 2946 015b 01       		.uleb128 0x1
 2947 015c 12       		.uleb128 0x12
 2948 015d 01       		.uleb128 0x1
 2949 015e 40       		.uleb128 0x40
 2950 015f 06       		.uleb128 0x6
 2951 0160 01       		.uleb128 0x1
 2952 0161 13       		.uleb128 0x13
 2953 0162 00       		.byte	0x0
 2954 0163 00       		.byte	0x0
 2955 0164 17       		.uleb128 0x17
 2956 0165 34       		.uleb128 0x34
 2957 0166 00       		.byte	0x0
 2958 0167 03       		.uleb128 0x3
 2959 0168 0E       		.uleb128 0xe
 2960 0169 3A       		.uleb128 0x3a
 2961 016a 0B       		.uleb128 0xb
 2962 016b 3B       		.uleb128 0x3b
 2963 016c 0B       		.uleb128 0xb
 2964 016d 49       		.uleb128 0x49
 2965 016e 13       		.uleb128 0x13
 2966 016f 00       		.byte	0x0
 2967 0170 00       		.byte	0x0
 2968 0171 18       		.uleb128 0x18
 2969 0172 2E       		.uleb128 0x2e
 2970 0173 00       		.byte	0x0
 2971 0174 3F       		.uleb128 0x3f
 2972 0175 0C       		.uleb128 0xc
 2973 0176 03       		.uleb128 0x3
 2974 0177 0E       		.uleb128 0xe
 2975 0178 3A       		.uleb128 0x3a
 2976 0179 0B       		.uleb128 0xb
 2977 017a 3B       		.uleb128 0x3b
 2978 017b 0B       		.uleb128 0xb
 2979 017c 27       		.uleb128 0x27
 2980 017d 0C       		.uleb128 0xc
 2981 017e 11       		.uleb128 0x11
 2982 017f 01       		.uleb128 0x1
 2983 0180 12       		.uleb128 0x12
 2984 0181 01       		.uleb128 0x1
 2985 0182 40       		.uleb128 0x40
 2986 0183 06       		.uleb128 0x6
 2987 0184 00       		.byte	0x0
 2988 0185 00       		.byte	0x0
 2989 0186 19       		.uleb128 0x19
 2990 0187 34       		.uleb128 0x34
ARM GAS  C:\DOCUME~1\ADMINI~1\LOCALS~1\Temp\cc7EA4qV.s 			page 82


 2991 0188 00       		.byte	0x0
 2992 0189 03       		.uleb128 0x3
 2993 018a 0E       		.uleb128 0xe
 2994 018b 3A       		.uleb128 0x3a
 2995 018c 0B       		.uleb128 0xb
 2996 018d 3B       		.uleb128 0x3b
 2997 018e 0B       		.uleb128 0xb
 2998 018f 49       		.uleb128 0x49
 2999 0190 13       		.uleb128 0x13
 3000 0191 3F       		.uleb128 0x3f
 3001 0192 0C       		.uleb128 0xc
 3002 0193 02       		.uleb128 0x2
 3003 0194 0A       		.uleb128 0xa
 3004 0195 00       		.byte	0x0
 3005 0196 00       		.byte	0x0
 3006 0197 1A       		.uleb128 0x1a
 3007 0198 01       		.uleb128 0x1
 3008 0199 01       		.byte	0x1
 3009 019a 49       		.uleb128 0x49
 3010 019b 13       		.uleb128 0x13
 3011 019c 01       		.uleb128 0x1
 3012 019d 13       		.uleb128 0x13
 3013 019e 00       		.byte	0x0
 3014 019f 00       		.byte	0x0
 3015 01a0 1B       		.uleb128 0x1b
 3016 01a1 21       		.uleb128 0x21
 3017 01a2 00       		.byte	0x0
 3018 01a3 49       		.uleb128 0x49
 3019 01a4 13       		.uleb128 0x13
 3020 01a5 2F       		.uleb128 0x2f
 3021 01a6 0B       		.uleb128 0xb
 3022 01a7 00       		.byte	0x0
 3023 01a8 00       		.byte	0x0
 3024 01a9 00       		.byte	0x0
 3025              		.section	.debug_pubnames,"",%progbits
 3026 0000 82040000 		.4byte	0x482
 3027 0004 0200     		.2byte	0x2
 3028 0006 00000000 		.4byte	.Ldebug_info0
 3029 000a 92060000 		.4byte	0x692
 3030 000e AD000000 		.4byte	0xad
 3031 0012 55415254 		.ascii	"UART_Bridge_ReadControlRegister\000"
 3031      5F427269 
 3031      6467655F 
 3031      52656164 
 3031      436F6E74 
 3032 0032 C5000000 		.4byte	0xc5
 3033 0036 55415254 		.ascii	"UART_Bridge_WriteControlRegister\000"
 3033      5F427269 
 3033      6467655F 
 3033      57726974 
 3033      65436F6E 
 3034 0057 EC000000 		.4byte	0xec
 3035 005b 55415254 		.ascii	"UART_Bridge_EnableRxInt\000"
 3035      5F427269 
 3035      6467655F 
 3035      456E6162 
 3035      6C655278 
ARM GAS  C:\DOCUME~1\ADMINI~1\LOCALS~1\Temp\cc7EA4qV.s 			page 83


 3036 0073 00010000 		.4byte	0x100
 3037 0077 55415254 		.ascii	"UART_Bridge_DisableRxInt\000"
 3037      5F427269 
 3037      6467655F 
 3037      44697361 
 3037      626C6552 
 3038 0090 14010000 		.4byte	0x114
 3039 0094 55415254 		.ascii	"UART_Bridge_SetRxInterruptMode\000"
 3039      5F427269 
 3039      6467655F 
 3039      53657452 
 3039      78496E74 
 3040 00b3 3B010000 		.4byte	0x13b
 3041 00b7 55415254 		.ascii	"UART_Bridge_ReadRxData\000"
 3041      5F427269 
 3041      6467655F 
 3041      52656164 
 3041      52784461 
 3042 00ce 88010000 		.4byte	0x188
 3043 00d2 55415254 		.ascii	"UART_Bridge_ReadRxStatus\000"
 3043      5F427269 
 3043      6467655F 
 3043      52656164 
 3043      52785374 
 3044 00eb B5010000 		.4byte	0x1b5
 3045 00ef 55415254 		.ascii	"UART_Bridge_GetChar\000"
 3045      5F427269 
 3045      6467655F 
 3045      47657443 
 3045      68617200 
 3046 0103 12020000 		.4byte	0x212
 3047 0107 55415254 		.ascii	"UART_Bridge_GetByte\000"
 3047      5F427269 
 3047      6467655F 
 3047      47657442 
 3047      79746500 
 3048 011b 2C020000 		.4byte	0x22c
 3049 011f 55415254 		.ascii	"UART_Bridge_GetRxBufferSize\000"
 3049      5F427269 
 3049      6467655F 
 3049      47657452 
 3049      78427566 
 3050 013b 5B020000 		.4byte	0x25b
 3051 013f 55415254 		.ascii	"UART_Bridge_SetRxAddressMode\000"
 3051      5F427269 
 3051      6467655F 
 3051      53657452 
 3051      78416464 
 3052 015c 82020000 		.4byte	0x282
 3053 0160 55415254 		.ascii	"UART_Bridge_SetRxAddress1\000"
 3053      5F427269 
 3053      6467655F 
 3053      53657452 
 3053      78416464 
 3054 017a A9020000 		.4byte	0x2a9
 3055 017e 55415254 		.ascii	"UART_Bridge_SetRxAddress2\000"
 3055      5F427269 
ARM GAS  C:\DOCUME~1\ADMINI~1\LOCALS~1\Temp\cc7EA4qV.s 			page 84


 3055      6467655F 
 3055      53657452 
 3055      78416464 
 3056 0198 D0020000 		.4byte	0x2d0
 3057 019c 55415254 		.ascii	"UART_Bridge_EnableTxInt\000"
 3057      5F427269 
 3057      6467655F 
 3057      456E6162 
 3057      6C655478 
 3058 01b4 E4020000 		.4byte	0x2e4
 3059 01b8 55415254 		.ascii	"UART_Bridge_DisableTxInt\000"
 3059      5F427269 
 3059      6467655F 
 3059      44697361 
 3059      626C6554 
 3060 01d1 F8020000 		.4byte	0x2f8
 3061 01d5 55415254 		.ascii	"UART_Bridge_SetTxInterruptMode\000"
 3061      5F427269 
 3061      6467655F 
 3061      53657454 
 3061      78496E74 
 3062 01f4 1F030000 		.4byte	0x31f
 3063 01f8 55415254 		.ascii	"UART_Bridge_WriteTxData\000"
 3063      5F427269 
 3063      6467655F 
 3063      57726974 
 3063      65547844 
 3064 0210 4A030000 		.4byte	0x34a
 3065 0214 55415254 		.ascii	"UART_Bridge_ReadTxStatus\000"
 3065      5F427269 
 3065      6467655F 
 3065      52656164 
 3065      54785374 
 3066 022d 62030000 		.4byte	0x362
 3067 0231 55415254 		.ascii	"UART_Bridge_PutChar\000"
 3067      5F427269 
 3067      6467655F 
 3067      50757443 
 3067      68617200 
 3068 0245 A9030000 		.4byte	0x3a9
 3069 0249 55415254 		.ascii	"UART_Bridge_PutString\000"
 3069      5F427269 
 3069      6467655F 
 3069      50757453 
 3069      7472696E 
 3070 025f EF030000 		.4byte	0x3ef
 3071 0263 55415254 		.ascii	"UART_Bridge_PutArray\000"
 3071      5F427269 
 3071      6467655F 
 3071      50757441 
 3071      72726179 
 3072 0278 41040000 		.4byte	0x441
 3073 027c 55415254 		.ascii	"UART_Bridge_PutCRLF\000"
 3073      5F427269 
 3073      6467655F 
 3073      50757443 
 3073      524C4600 
ARM GAS  C:\DOCUME~1\ADMINI~1\LOCALS~1\Temp\cc7EA4qV.s 			page 85


 3074 0290 6C040000 		.4byte	0x46c
 3075 0294 55415254 		.ascii	"UART_Bridge_GetTxBufferSize\000"
 3075      5F427269 
 3075      6467655F 
 3075      47657454 
 3075      78427566 
 3076 02b0 9B040000 		.4byte	0x49b
 3077 02b4 55415254 		.ascii	"UART_Bridge_SendBreak\000"
 3077      5F427269 
 3077      6467655F 
 3077      53656E64 
 3077      42726561 
 3078 02ca EC040000 		.4byte	0x4ec
 3079 02ce 55415254 		.ascii	"UART_Bridge_SetTxAddressMode\000"
 3079      5F427269 
 3079      6467655F 
 3079      53657454 
 3079      78416464 
 3080 02eb 13050000 		.4byte	0x513
 3081 02ef 55415254 		.ascii	"UART_Bridge_ClearTxBuffer\000"
 3081      5F427269 
 3081      6467655F 
 3081      436C6561 
 3081      72547842 
 3082 0309 3A050000 		.4byte	0x53a
 3083 030d 55415254 		.ascii	"UART_Bridge_ClearRxBuffer\000"
 3083      5F427269 
 3083      6467655F 
 3083      436C6561 
 3083      72527842 
 3084 0327 61050000 		.4byte	0x561
 3085 032b 55415254 		.ascii	"UART_Bridge_Stop\000"
 3085      5F427269 
 3085      6467655F 
 3085      53746F70 
 3085      00
 3086 033c 86050000 		.4byte	0x586
 3087 0340 55415254 		.ascii	"UART_Bridge_Enable\000"
 3087      5F427269 
 3087      6467655F 
 3087      456E6162 
 3087      6C6500
 3088 0353 AB050000 		.4byte	0x5ab
 3089 0357 55415254 		.ascii	"UART_Bridge_Init\000"
 3089      5F427269 
 3089      6467655F 
 3089      496E6974 
 3089      00
 3090 0368 C0050000 		.4byte	0x5c0
 3091 036c 55415254 		.ascii	"UART_Bridge_Start\000"
 3091      5F427269 
 3091      6467655F 
 3091      53746172 
 3091      7400
 3092 037e D5050000 		.4byte	0x5d5
 3093 0382 55415254 		.ascii	"UART_Bridge_initVar\000"
 3093      5F427269 
ARM GAS  C:\DOCUME~1\ADMINI~1\LOCALS~1\Temp\cc7EA4qV.s 			page 86


 3093      6467655F 
 3093      696E6974 
 3093      56617200 
 3094 0396 F7050000 		.4byte	0x5f7
 3095 039a 55415254 		.ascii	"UART_Bridge_txBuffer\000"
 3095      5F427269 
 3095      6467655F 
 3095      74784275 
 3095      66666572 
 3096 03af 0E060000 		.4byte	0x60e
 3097 03b3 55415254 		.ascii	"UART_Bridge_txBufferRead\000"
 3097      5F427269 
 3097      6467655F 
 3097      74784275 
 3097      66666572 
 3098 03cc 20060000 		.4byte	0x620
 3099 03d0 55415254 		.ascii	"UART_Bridge_txBufferWrite\000"
 3099      5F427269 
 3099      6467655F 
 3099      74784275 
 3099      66666572 
 3100 03ea 32060000 		.4byte	0x632
 3101 03ee 55415254 		.ascii	"UART_Bridge_rxBuffer\000"
 3101      5F427269 
 3101      6467655F 
 3101      72784275 
 3101      66666572 
 3102 0403 49060000 		.4byte	0x649
 3103 0407 55415254 		.ascii	"UART_Bridge_rxBufferRead\000"
 3103      5F427269 
 3103      6467655F 
 3103      72784275 
 3103      66666572 
 3104 0420 5B060000 		.4byte	0x65b
 3105 0424 55415254 		.ascii	"UART_Bridge_rxBufferWrite\000"
 3105      5F427269 
 3105      6467655F 
 3105      72784275 
 3105      66666572 
 3106 043e 6D060000 		.4byte	0x66d
 3107 0442 55415254 		.ascii	"UART_Bridge_rxBufferLoopDetect\000"
 3107      5F427269 
 3107      6467655F 
 3107      72784275 
 3107      66666572 
 3108 0461 7F060000 		.4byte	0x67f
 3109 0465 55415254 		.ascii	"UART_Bridge_rxBufferOverflow\000"
 3109      5F427269 
 3109      6467655F 
 3109      72784275 
 3109      66666572 
 3110 0482 00000000 		.4byte	0x0
 3111              		.section	.debug_aranges,"",%progbits
 3112 0000 0C010000 		.4byte	0x10c
 3113 0004 0200     		.2byte	0x2
 3114 0006 00000000 		.4byte	.Ldebug_info0
 3115 000a 04       		.byte	0x4
ARM GAS  C:\DOCUME~1\ADMINI~1\LOCALS~1\Temp\cc7EA4qV.s 			page 87


 3116 000b 00       		.byte	0x0
 3117 000c 0000     		.2byte	0x0
 3118 000e 0000     		.2byte	0x0
 3119 0010 00000000 		.4byte	.LFB4
 3120 0014 04000000 		.4byte	.LFE4-.LFB4
 3121 0018 00000000 		.4byte	.LFB5
 3122 001c 02000000 		.4byte	.LFE5-.LFB5
 3123 0020 00000000 		.4byte	.LFB6
 3124 0024 0C000000 		.4byte	.LFE6-.LFB6
 3125 0028 00000000 		.4byte	.LFB7
 3126 002c 0C000000 		.4byte	.LFE7-.LFB7
 3127 0030 00000000 		.4byte	.LFB8
 3128 0034 0C000000 		.4byte	.LFE8-.LFB8
 3129 0038 00000000 		.4byte	.LFB9
 3130 003c 48000000 		.4byte	.LFE9-.LFB9
 3131 0040 00000000 		.4byte	.LFB10
 3132 0044 20000000 		.4byte	.LFE10-.LFB10
 3133 0048 00000000 		.4byte	.LFB11
 3134 004c 60000000 		.4byte	.LFE11-.LFB11
 3135 0050 00000000 		.4byte	.LFB12
 3136 0054 14000000 		.4byte	.LFE12-.LFB12
 3137 0058 00000000 		.4byte	.LFB13
 3138 005c 3C000000 		.4byte	.LFE13-.LFB13
 3139 0060 00000000 		.4byte	.LFB15
 3140 0064 02000000 		.4byte	.LFE15-.LFB15
 3141 0068 00000000 		.4byte	.LFB16
 3142 006c 0C000000 		.4byte	.LFE16-.LFB16
 3143 0070 00000000 		.4byte	.LFB17
 3144 0074 0C000000 		.4byte	.LFE17-.LFB17
 3145 0078 00000000 		.4byte	.LFB18
 3146 007c 0C000000 		.4byte	.LFE18-.LFB18
 3147 0080 00000000 		.4byte	.LFB19
 3148 0084 0C000000 		.4byte	.LFE19-.LFB19
 3149 0088 00000000 		.4byte	.LFB20
 3150 008c 0C000000 		.4byte	.LFE20-.LFB20
 3151 0090 00000000 		.4byte	.LFB21
 3152 0094 5C000000 		.4byte	.LFE21-.LFB21
 3153 0098 00000000 		.4byte	.LFB22
 3154 009c 0C000000 		.4byte	.LFE22-.LFB22
 3155 00a0 00000000 		.4byte	.LFB23
 3156 00a4 5C000000 		.4byte	.LFE23-.LFB23
 3157 00a8 00000000 		.4byte	.LFB24
 3158 00ac 24000000 		.4byte	.LFE24-.LFB24
 3159 00b0 00000000 		.4byte	.LFB25
 3160 00b4 24000000 		.4byte	.LFE25-.LFB25
 3161 00b8 00000000 		.4byte	.LFB26
 3162 00bc 24000000 		.4byte	.LFE26-.LFB26
 3163 00c0 00000000 		.4byte	.LFB27
 3164 00c4 38000000 		.4byte	.LFE27-.LFB27
 3165 00c8 00000000 		.4byte	.LFB29
 3166 00cc 58000000 		.4byte	.LFE29-.LFB29
 3167 00d0 00000000 		.4byte	.LFB30
 3168 00d4 02000000 		.4byte	.LFE30-.LFB30
 3169 00d8 00000000 		.4byte	.LFB28
 3170 00dc 38000000 		.4byte	.LFE28-.LFB28
 3171 00e0 00000000 		.4byte	.LFB14
 3172 00e4 3C000000 		.4byte	.LFE14-.LFB14
ARM GAS  C:\DOCUME~1\ADMINI~1\LOCALS~1\Temp\cc7EA4qV.s 			page 88


 3173 00e8 00000000 		.4byte	.LFB3
 3174 00ec 44000000 		.4byte	.LFE3-.LFB3
 3175 00f0 00000000 		.4byte	.LFB2
 3176 00f4 48000000 		.4byte	.LFE2-.LFB2
 3177 00f8 00000000 		.4byte	.LFB1
 3178 00fc 58000000 		.4byte	.LFE1-.LFB1
 3179 0100 00000000 		.4byte	.LFB0
 3180 0104 1C000000 		.4byte	.LFE0-.LFB0
 3181 0108 00000000 		.4byte	0x0
 3182 010c 00000000 		.4byte	0x0
 3183              		.section	.debug_ranges,"",%progbits
 3184              	.Ldebug_ranges0:
 3185 0000 00000000 		.4byte	.Ltext0
 3186 0004 00000000 		.4byte	.Letext0
 3187 0008 00000000 		.4byte	.LFB4
 3188 000c 04000000 		.4byte	.LFE4
 3189 0010 00000000 		.4byte	.LFB5
 3190 0014 02000000 		.4byte	.LFE5
 3191 0018 00000000 		.4byte	.LFB6
 3192 001c 0C000000 		.4byte	.LFE6
 3193 0020 00000000 		.4byte	.LFB7
 3194 0024 0C000000 		.4byte	.LFE7
 3195 0028 00000000 		.4byte	.LFB8
 3196 002c 0C000000 		.4byte	.LFE8
 3197 0030 00000000 		.4byte	.LFB9
 3198 0034 48000000 		.4byte	.LFE9
 3199 0038 00000000 		.4byte	.LFB10
 3200 003c 20000000 		.4byte	.LFE10
 3201 0040 00000000 		.4byte	.LFB11
 3202 0044 60000000 		.4byte	.LFE11
 3203 0048 00000000 		.4byte	.LFB12
 3204 004c 14000000 		.4byte	.LFE12
 3205 0050 00000000 		.4byte	.LFB13
 3206 0054 3C000000 		.4byte	.LFE13
 3207 0058 00000000 		.4byte	.LFB15
 3208 005c 02000000 		.4byte	.LFE15
 3209 0060 00000000 		.4byte	.LFB16
 3210 0064 0C000000 		.4byte	.LFE16
 3211 0068 00000000 		.4byte	.LFB17
 3212 006c 0C000000 		.4byte	.LFE17
 3213 0070 00000000 		.4byte	.LFB18
 3214 0074 0C000000 		.4byte	.LFE18
 3215 0078 00000000 		.4byte	.LFB19
 3216 007c 0C000000 		.4byte	.LFE19
 3217 0080 00000000 		.4byte	.LFB20
 3218 0084 0C000000 		.4byte	.LFE20
 3219 0088 00000000 		.4byte	.LFB21
 3220 008c 5C000000 		.4byte	.LFE21
 3221 0090 00000000 		.4byte	.LFB22
 3222 0094 0C000000 		.4byte	.LFE22
 3223 0098 00000000 		.4byte	.LFB23
 3224 009c 5C000000 		.4byte	.LFE23
 3225 00a0 00000000 		.4byte	.LFB24
 3226 00a4 24000000 		.4byte	.LFE24
 3227 00a8 00000000 		.4byte	.LFB25
 3228 00ac 24000000 		.4byte	.LFE25
 3229 00b0 00000000 		.4byte	.LFB26
ARM GAS  C:\DOCUME~1\ADMINI~1\LOCALS~1\Temp\cc7EA4qV.s 			page 89


 3230 00b4 24000000 		.4byte	.LFE26
 3231 00b8 00000000 		.4byte	.LFB27
 3232 00bc 38000000 		.4byte	.LFE27
 3233 00c0 00000000 		.4byte	.LFB29
 3234 00c4 58000000 		.4byte	.LFE29
 3235 00c8 00000000 		.4byte	.LFB30
 3236 00cc 02000000 		.4byte	.LFE30
 3237 00d0 00000000 		.4byte	.LFB28
 3238 00d4 38000000 		.4byte	.LFE28
 3239 00d8 00000000 		.4byte	.LFB14
 3240 00dc 3C000000 		.4byte	.LFE14
 3241 00e0 00000000 		.4byte	.LFB3
 3242 00e4 44000000 		.4byte	.LFE3
 3243 00e8 00000000 		.4byte	.LFB2
 3244 00ec 48000000 		.4byte	.LFE2
 3245 00f0 00000000 		.4byte	.LFB1
 3246 00f4 58000000 		.4byte	.LFE1
 3247 00f8 00000000 		.4byte	.LFB0
 3248 00fc 1C000000 		.4byte	.LFE0
 3249 0100 00000000 		.4byte	0x0
 3250 0104 00000000 		.4byte	0x0
 3251              		.section	.debug_str,"MS",%progbits,1
 3252              	.LASF10:
 3253 0000 75696E74 		.ascii	"uint16\000"
 3253      313600
 3254              	.LASF23:
 3255 0007 6C6F635F 		.ascii	"loc_rxBufferWrite\000"
 3255      72784275 
 3255      66666572 
 3255      57726974 
 3255      6500
 3256              	.LASF18:
 3257 0019 55415254 		.ascii	"UART_Bridge_SetRxInterruptMode\000"
 3257      5F427269 
 3257      6467655F 
 3257      53657452 
 3257      78496E74 
 3258              	.LASF42:
 3259 0038 74784461 		.ascii	"txDataByte\000"
 3259      74614279 
 3259      746500
 3260              	.LASF48:
 3261 0043 73747269 		.ascii	"string\000"
 3261      6E6700
 3262              	.LASF77:
 3263 004a 5C5C7073 		.ascii	"\\\\psf\\Home\\Desktop\\KitProg version 2_03\\KitPr"
 3263      665C486F 
 3263      6D655C44 
 3263      65736B74 
 3263      6F705C4B 
 3264 0077 6F675C4B 		.ascii	"og\\KitProg.cydsn\000"
 3264      69745072 
 3264      6F672E63 
 3264      7964736E 
 3264      00
 3265              	.LASF7:
 3266 0088 6C6F6E67 		.ascii	"long long unsigned int\000"
ARM GAS  C:\DOCUME~1\ADMINI~1\LOCALS~1\Temp\cc7EA4qV.s 			page 90


 3266      206C6F6E 
 3266      6720756E 
 3266      7369676E 
 3266      65642069 
 3267              	.LASF75:
 3268 009f 474E5520 		.ascii	"GNU C 4.4.1\000"
 3268      4320342E 
 3268      342E3100 
 3269              	.LASF15:
 3270 00ab 55415254 		.ascii	"UART_Bridge_EnableRxInt\000"
 3270      5F427269 
 3270      6467655F 
 3270      456E6162 
 3270      6C655278 
 3271              	.LASF6:
 3272 00c3 6C6F6E67 		.ascii	"long long int\000"
 3272      206C6F6E 
 3272      6720696E 
 3272      7400
 3273              	.LASF0:
 3274 00d1 7369676E 		.ascii	"signed char\000"
 3274      65642063 
 3274      68617200 
 3275              	.LASF30:
 3276 00dd 55415254 		.ascii	"UART_Bridge_GetByte\000"
 3276      5F427269 
 3276      6467655F 
 3276      47657442 
 3276      79746500 
 3277              	.LASF4:
 3278 00f1 6C6F6E67 		.ascii	"long int\000"
 3278      20696E74 
 3278      00
 3279              	.LASF9:
 3280 00fa 75696E74 		.ascii	"uint8\000"
 3280      3800
 3281              	.LASF68:
 3282 0100 55415254 		.ascii	"UART_Bridge_txBufferRead\000"
 3282      5F427269 
 3282      6467655F 
 3282      74784275 
 3282      66666572 
 3283              	.LASF12:
 3284 0119 646F7562 		.ascii	"double\000"
 3284      6C6500
 3285              	.LASF34:
 3286 0120 61646472 		.ascii	"addressMode\000"
 3286      6573734D 
 3286      6F646500 
 3287              	.LASF24:
 3288 012c 55415254 		.ascii	"UART_Bridge_ReadRxData\000"
 3288      5F427269 
 3288      6467655F 
 3288      52656164 
 3288      52784461 
 3289              	.LASF64:
 3290 0143 55415254 		.ascii	"UART_Bridge_Init\000"
ARM GAS  C:\DOCUME~1\ADMINI~1\LOCALS~1\Temp\cc7EA4qV.s 			page 91


 3290      5F427269 
 3290      6467655F 
 3290      496E6974 
 3290      00
 3291              	.LASF19:
 3292 0154 636F6E74 		.ascii	"control\000"
 3292      726F6C00 
 3293              	.LASF72:
 3294 015c 55415254 		.ascii	"UART_Bridge_rxBufferWrite\000"
 3294      5F427269 
 3294      6467655F 
 3294      72784275 
 3294      66666572 
 3295              	.LASF73:
 3296 0176 55415254 		.ascii	"UART_Bridge_rxBufferLoopDetect\000"
 3296      5F427269 
 3296      6467655F 
 3296      72784275 
 3296      66666572 
 3297              	.LASF16:
 3298 0195 55415254 		.ascii	"UART_Bridge_DisableRxInt\000"
 3298      5F427269 
 3298      6467655F 
 3298      44697361 
 3298      626C6552 
 3299              	.LASF40:
 3300 01ae 55415254 		.ascii	"UART_Bridge_SetTxInterruptMode\000"
 3300      5F427269 
 3300      6467655F 
 3300      53657454 
 3300      78496E74 
 3301              	.LASF55:
 3302 01cd 7265744D 		.ascii	"retMode\000"
 3302      6F646500 
 3303              	.LASF8:
 3304 01d5 756E7369 		.ascii	"unsigned int\000"
 3304      676E6564 
 3304      20696E74 
 3304      00
 3305              	.LASF5:
 3306 01e2 6C6F6E67 		.ascii	"long unsigned int\000"
 3306      20756E73 
 3306      69676E65 
 3306      6420696E 
 3306      7400
 3307              	.LASF59:
 3308 01f4 55415254 		.ascii	"UART_Bridge_ClearTxBuffer\000"
 3308      5F427269 
 3308      6467655F 
 3308      436C6561 
 3308      72547842 
 3309              	.LASF46:
 3310 020e 6C6F635F 		.ascii	"loc_txBufferRead\000"
 3310      74784275 
 3310      66666572 
 3310      52656164 
 3310      00
ARM GAS  C:\DOCUME~1\ADMINI~1\LOCALS~1\Temp\cc7EA4qV.s 			page 92


 3311              	.LASF38:
 3312 021f 55415254 		.ascii	"UART_Bridge_EnableTxInt\000"
 3312      5F427269 
 3312      6467655F 
 3312      456E6162 
 3312      6C655478 
 3313              	.LASF76:
 3314 0237 2E5C4765 		.ascii	".\\Generated_Source\\PSoC5\\UART_Bridge.c\000"
 3314      6E657261 
 3314      7465645F 
 3314      536F7572 
 3314      63655C50 
 3315              	.LASF67:
 3316 025e 55415254 		.ascii	"UART_Bridge_txBuffer\000"
 3316      5F427269 
 3316      6467655F 
 3316      74784275 
 3316      66666572 
 3317              	.LASF32:
 3318 0273 73697A65 		.ascii	"size\000"
 3318      00
 3319              	.LASF3:
 3320 0278 73686F72 		.ascii	"short unsigned int\000"
 3320      7420756E 
 3320      7369676E 
 3320      65642069 
 3320      6E7400
 3321              	.LASF66:
 3322 028b 55415254 		.ascii	"UART_Bridge_initVar\000"
 3322      5F427269 
 3322      6467655F 
 3322      696E6974 
 3322      56617200 
 3323              	.LASF54:
 3324 029f 55415254 		.ascii	"UART_Bridge_SendBreak\000"
 3324      5F427269 
 3324      6467655F 
 3324      53656E64 
 3324      42726561 
 3325              	.LASF22:
 3326 02b5 6C6F635F 		.ascii	"loc_rxBufferRead\000"
 3326      72784275 
 3326      66666572 
 3326      52656164 
 3326      00
 3327              	.LASF74:
 3328 02c6 55415254 		.ascii	"UART_Bridge_rxBufferOverflow\000"
 3328      5F427269 
 3328      6467655F 
 3328      72784275 
 3328      66666572 
 3329              	.LASF57:
 3330 02e3 74785F70 		.ascii	"tx_period\000"
 3330      6572696F 
 3330      6400
 3331              	.LASF20:
 3332 02ed 696E7453 		.ascii	"intSrc\000"
ARM GAS  C:\DOCUME~1\ADMINI~1\LOCALS~1\Temp\cc7EA4qV.s 			page 93


 3332      726300
 3333              	.LASF50:
 3334 02f4 55415254 		.ascii	"UART_Bridge_PutArray\000"
 3334      5F427269 
 3334      6467655F 
 3334      50757441 
 3334      72726179 
 3335              	.LASF56:
 3336 0309 746D7053 		.ascii	"tmpStat\000"
 3336      74617400 
 3337              	.LASF47:
 3338 0311 55415254 		.ascii	"UART_Bridge_PutString\000"
 3338      5F427269 
 3338      6467655F 
 3338      50757453 
 3338      7472696E 
 3339              	.LASF45:
 3340 0327 6C6F635F 		.ascii	"loc_txBufferWrite\000"
 3340      74784275 
 3340      66666572 
 3340      57726974 
 3340      6500
 3341              	.LASF36:
 3342 0339 61646472 		.ascii	"address\000"
 3342      65737300 
 3343              	.LASF43:
 3344 0341 55415254 		.ascii	"UART_Bridge_ReadTxStatus\000"
 3344      5F427269 
 3344      6467655F 
 3344      52656164 
 3344      54785374 
 3345              	.LASF39:
 3346 035a 55415254 		.ascii	"UART_Bridge_DisableTxInt\000"
 3346      5F427269 
 3346      6467655F 
 3346      44697361 
 3346      626C6554 
 3347              	.LASF17:
 3348 0373 55415254 		.ascii	"UART_Bridge_WriteControlRegister\000"
 3348      5F427269 
 3348      6467655F 
 3348      57726974 
 3348      65436F6E 
 3349              	.LASF35:
 3350 0394 55415254 		.ascii	"UART_Bridge_SetRxAddress1\000"
 3350      5F427269 
 3350      6467655F 
 3350      53657452 
 3350      78416464 
 3351              	.LASF37:
 3352 03ae 55415254 		.ascii	"UART_Bridge_SetRxAddress2\000"
 3352      5F427269 
 3352      6467655F 
 3352      53657452 
 3352      78416464 
 3353              	.LASF25:
 3354 03c8 55415254 		.ascii	"UART_Bridge_ReadRxStatus\000"
ARM GAS  C:\DOCUME~1\ADMINI~1\LOCALS~1\Temp\cc7EA4qV.s 			page 94


 3354      5F427269 
 3354      6467655F 
 3354      52656164 
 3354      52785374 
 3355              	.LASF53:
 3356 03e1 55415254 		.ascii	"UART_Bridge_GetTxBufferSize\000"
 3356      5F427269 
 3356      6467655F 
 3356      47657454 
 3356      78427566 
 3357              	.LASF11:
 3358 03fd 666C6F61 		.ascii	"float\000"
 3358      7400
 3359              	.LASF27:
 3360 0403 55415254 		.ascii	"UART_Bridge_GetChar\000"
 3360      5F427269 
 3360      6467655F 
 3360      47657443 
 3360      68617200 
 3361              	.LASF1:
 3362 0417 756E7369 		.ascii	"unsigned char\000"
 3362      676E6564 
 3362      20636861 
 3362      7200
 3363              	.LASF2:
 3364 0425 73686F72 		.ascii	"short int\000"
 3364      7420696E 
 3364      7400
 3365              	.LASF51:
 3366 042f 62797465 		.ascii	"byteCount\000"
 3366      436F756E 
 3366      7400
 3367              	.LASF58:
 3368 0439 55415254 		.ascii	"UART_Bridge_SetTxAddressMode\000"
 3368      5F427269 
 3368      6467655F 
 3368      53657454 
 3368      78416464 
 3369              	.LASF21:
 3370 0456 72784461 		.ascii	"rxData\000"
 3370      746100
 3371              	.LASF44:
 3372 045d 55415254 		.ascii	"UART_Bridge_PutChar\000"
 3372      5F427269 
 3372      6467655F 
 3372      50757443 
 3372      68617200 
 3373              	.LASF14:
 3374 0471 63686172 		.ascii	"char\000"
 3374      00
 3375              	.LASF69:
 3376 0476 55415254 		.ascii	"UART_Bridge_txBufferWrite\000"
 3376      5F427269 
 3376      6467655F 
 3376      74784275 
 3376      66666572 
 3377              	.LASF13:
ARM GAS  C:\DOCUME~1\ADMINI~1\LOCALS~1\Temp\cc7EA4qV.s 			page 95


 3378 0490 63686172 		.ascii	"char8\000"
 3378      3800
 3379              	.LASF71:
 3380 0496 55415254 		.ascii	"UART_Bridge_rxBufferRead\000"
 3380      5F427269 
 3380      6467655F 
 3380      72784275 
 3380      66666572 
 3381              	.LASF31:
 3382 04af 55415254 		.ascii	"UART_Bridge_GetRxBufferSize\000"
 3382      5F427269 
 3382      6467655F 
 3382      47657452 
 3382      78427566 
 3383              	.LASF62:
 3384 04cb 55415254 		.ascii	"UART_Bridge_Stop\000"
 3384      5F427269 
 3384      6467655F 
 3384      53746F70 
 3384      00
 3385              	.LASF52:
 3386 04dc 55415254 		.ascii	"UART_Bridge_PutCRLF\000"
 3386      5F427269 
 3386      6467655F 
 3386      50757443 
 3386      524C4600 
 3387              	.LASF63:
 3388 04f0 55415254 		.ascii	"UART_Bridge_Enable\000"
 3388      5F427269 
 3388      6467655F 
 3388      456E6162 
 3388      6C6500
 3389              	.LASF60:
 3390 0503 656E6162 		.ascii	"enableInterrupts\000"
 3390      6C65496E 
 3390      74657272 
 3390      75707473 
 3390      00
 3391              	.LASF26:
 3392 0514 73746174 		.ascii	"status\000"
 3392      757300
 3393              	.LASF29:
 3394 051b 55415254 		.ascii	"UART_Bridge_ReadControlRegister\000"
 3394      5F427269 
 3394      6467655F 
 3394      52656164 
 3394      436F6E74 
 3395              	.LASF41:
 3396 053b 55415254 		.ascii	"UART_Bridge_WriteTxData\000"
 3396      5F427269 
 3396      6467655F 
 3396      57726974 
 3396      65547844 
 3397              	.LASF28:
 3398 0553 72785374 		.ascii	"rxStatus\000"
 3398      61747573 
 3398      00
ARM GAS  C:\DOCUME~1\ADMINI~1\LOCALS~1\Temp\cc7EA4qV.s 			page 96


 3399              	.LASF65:
 3400 055c 55415254 		.ascii	"UART_Bridge_Start\000"
 3400      5F427269 
 3400      6467655F 
 3400      53746172 
 3400      7400
 3401              	.LASF33:
 3402 056e 55415254 		.ascii	"UART_Bridge_SetRxAddressMode\000"
 3402      5F427269 
 3402      6467655F 
 3402      53657452 
 3402      78416464 
 3403              	.LASF61:
 3404 058b 55415254 		.ascii	"UART_Bridge_ClearRxBuffer\000"
 3404      5F427269 
 3404      6467655F 
 3404      436C6561 
 3404      72527842 
 3405              	.LASF49:
 3406 05a5 6275665F 		.ascii	"buf_index\000"
 3406      696E6465 
 3406      7800
 3407              	.LASF70:
 3408 05af 55415254 		.ascii	"UART_Bridge_rxBuffer\000"
 3408      5F427269 
 3408      6467655F 
 3408      72784275 
 3408      66666572 
 3409              		.ident	"GCC: (Sourcery G++ Lite 2010q1-188) 4.4.1"
