ARM GAS  C:\DOCUME~1\ADMINI~1\LOCALS~1\Temp\ccsC3cDp.s 			page 1


   1              		.syntax unified
   2              		.cpu cortex-m3
   3              		.fpu softvfp
   4              		.eabi_attribute 20, 1
   5              		.eabi_attribute 21, 1
   6              		.eabi_attribute 23, 3
   7              		.eabi_attribute 24, 1
   8              		.eabi_attribute 25, 1
   9              		.eabi_attribute 26, 1
  10              		.eabi_attribute 30, 4
  11              		.eabi_attribute 18, 4
  12              		.thumb
  13              		.file	"USBFS_commandinterface.c"
  20 0000 B7000000 		.text
  20      02007000 
  20      00000201 
  20      FB0E0D00 
  20      01010101 
  21              	.Ltext0:
  22              		.cfi_sections	.debug_frame
  23              		.section	.text.ProgramInit,"ax",%progbits
  24              		.align	1
  25              		.global	ProgramInit
  26              		.thumb
  27              		.thumb_func
  28              		.type	ProgramInit, %function
  29              	ProgramInit:
  30              	.LFB29:
  31              		.file 1 ".\\USBFS_commandinterface.c"
   1:.\USBFS_commandinterface.c **** /*****************************************************************************
   2:.\USBFS_commandinterface.c **** * File Name: USBFS_commandInterface.c
   3:.\USBFS_commandinterface.c **** *
   4:.\USBFS_commandinterface.c **** * Version 2.03
   5:.\USBFS_commandinterface.c **** *
   6:.\USBFS_commandinterface.c **** * Description: Handles the USB control endpoint comands.
   7:.\USBFS_commandinterface.c **** *
   8:.\USBFS_commandinterface.c **** * Owner:
   9:.\USBFS_commandinterface.c **** *	Ranjith M, Applications Engineer (rnjt@cypress.com)
  10:.\USBFS_commandinterface.c **** *
  11:.\USBFS_commandinterface.c **** * Related Document:
  12:.\USBFS_commandinterface.c **** * 	001-85925 - CY8CKIT-042 PSoC 4 Pioneer Kit IROS
  13:.\USBFS_commandinterface.c **** *	RNJT#18
  14:.\USBFS_commandinterface.c **** *
  15:.\USBFS_commandinterface.c **** * Hardware Dependency:
  16:.\USBFS_commandinterface.c **** * 	CY8CKIT-042 (KitProg) 
  17:.\USBFS_commandinterface.c **** *
  18:.\USBFS_commandinterface.c **** * Code Tested With:
  19:.\USBFS_commandinterface.c **** * 	Creator 2.2
  20:.\USBFS_commandinterface.c **** *	GCC1 4.4.1
  21:.\USBFS_commandinterface.c **** *	CY8CKIT-042 Rev 1
  22:.\USBFS_commandinterface.c **** *
ARM GAS  C:\DOCUME~1\ADMINI~1\LOCALS~1\Temp\ccsC3cDp.s 			page 2


  23:.\USBFS_commandinterface.c **** ******************************************************************************
  24:.\USBFS_commandinterface.c **** * Copyright (2013), Cypress Semiconductor Corporation.
  25:.\USBFS_commandinterface.c **** ******************************************************************************
  26:.\USBFS_commandinterface.c **** * This software is owned by Cypress Semiconductor Corporation (Cypress) and is
  27:.\USBFS_commandinterface.c **** * protected by and subject to worldwide patent protection (United States and
  28:.\USBFS_commandinterface.c **** * foreign), United States copyright laws and international treaty provisions.
  29:.\USBFS_commandinterface.c **** * Cypress hereby grants to licensee a personal, non-exclusive, non-transferable
  30:.\USBFS_commandinterface.c **** * license to copy, use, modify, create derivative works of, and compile the
  31:.\USBFS_commandinterface.c **** * Cypress Source Code and derivative works for the sole purpose of creating
  32:.\USBFS_commandinterface.c **** * custom software in support of licensee product to be used only in conjunction
  33:.\USBFS_commandinterface.c **** * with a Cypress integrated circuit as specified in the applicable agreement.
  34:.\USBFS_commandinterface.c **** * Any reproduction, modification, translation, compilation, or representation of
  35:.\USBFS_commandinterface.c **** * this software except as specified above is prohibited without the express
  36:.\USBFS_commandinterface.c **** * written permission of Cypress.
  37:.\USBFS_commandinterface.c **** *
  38:.\USBFS_commandinterface.c **** * Disclaimer: CYPRESS MAKES NO WARRANTY OF ANY KIND, EXPRESS OR IMPLIED, WITH
  39:.\USBFS_commandinterface.c **** * REGARD TO THIS MATERIAL, INCLUDING, BUT NOT LIMITED TO, THE IMPLIED
  40:.\USBFS_commandinterface.c **** * WARRANTIES OF MERCHANTABILITY AND FITNESS FOR A PARTICULAR PURPOSE.
  41:.\USBFS_commandinterface.c **** * Cypress reserves the right to make changes without further notice to the
  42:.\USBFS_commandinterface.c **** * materials described herein. Cypress does not assume any liability arising out
  43:.\USBFS_commandinterface.c **** * of the application or use of any product or circuit described herein. Cypress
  44:.\USBFS_commandinterface.c **** * does not authorize its products for use as critical components in life-support
  45:.\USBFS_commandinterface.c **** * systems where a malfunction or failure may reasonably be expected to result in
  46:.\USBFS_commandinterface.c **** * significant injury to the user. The inclusion of Cypress' product in a life-
  47:.\USBFS_commandinterface.c **** * support systems application implies that the manufacturer assumes all risk of
  48:.\USBFS_commandinterface.c **** * such use and in doing so indemnifies Cypress against all charges. Use may be
  49:.\USBFS_commandinterface.c **** * limited by and subject to the applicable Cypress software license agreement.
  50:.\USBFS_commandinterface.c **** *****************************************************************************/
  51:.\USBFS_commandinterface.c **** /* This module contains code that attempts to combine the functionality of the 2 
  52:.\USBFS_commandinterface.c **** * chip solution employed in the PSoC MiniProgrammer.  That device uses a 66113 
  53:.\USBFS_commandinterface.c **** * for the USB interface and a 27543 to program the target device.  Communication
  54:.\USBFS_commandinterface.c **** * between the 66113 and 27543 is generally via a parallel bus although there is 
  55:.\USBFS_commandinterface.c **** * also an ISSP connection so that the 27543 can be field reprogrammed via the 
  56:.\USBFS_commandinterface.c **** * 66113.  Note that the 66113 is an OTP part.
  57:.\USBFS_commandinterface.c **** *
  58:.\USBFS_commandinterface.c **** * Communication between the PSoC Programmer GUI and the 66113 is mainly via 
  59:.\USBFS_commandinterface.c **** * "no data" control transfers.  So, an example control transfer's data may 
  60:.\USBFS_commandinterface.c **** * look like the following (in hex) C0 02 07 01 00 01 00 01	
  61:.\USBFS_commandinterface.c **** * the C0 is the "Device to Host Vendor Request", 02 is bRequest - in our case, 
  62:.\USBFS_commandinterface.c **** * a write.  the 07 01 will show up on the CATC as a Big Endian wValue - we only
  63:.\USBFS_commandinterface.c **** * care about the raw bytes.  So, the 07 is the command and the 01 is the mode.
  64:.\USBFS_commandinterface.c **** * The 66113 code takes care of commands 1 thru 6 internally. Command 7 is passed
  65:.\USBFS_commandinterface.c **** * on to the 27543 via the parallel interface.  Since we are emulating the 27543, 
  66:.\USBFS_commandinterface.c **** * we will need to add code to handle command #7 here.
  67:.\USBFS_commandinterface.c **** *****************************************************************************/
  68:.\USBFS_commandinterface.c **** 
  69:.\USBFS_commandinterface.c **** #include "kitprog.h"
  70:.\USBFS_commandinterface.c **** 
  71:.\USBFS_commandinterface.c **** /*****************************************************************************
  72:.\USBFS_commandinterface.c **** * Local Function Prototypes
  73:.\USBFS_commandinterface.c **** *****************************************************************************/
  74:.\USBFS_commandinterface.c **** void ProgramInit(void);
  75:.\USBFS_commandinterface.c **** void VendorCmd(void);
  76:.\USBFS_commandinterface.c **** /*****************************************************************************
  77:.\USBFS_commandinterface.c **** * Local Global Variable Declarations
  78:.\USBFS_commandinterface.c **** ******************************************************************************/
  79:.\USBFS_commandinterface.c **** uint8 pendingOp;
ARM GAS  C:\DOCUME~1\ADMINI~1\LOCALS~1\Temp\ccsC3cDp.s 			page 3


  80:.\USBFS_commandinterface.c **** uint8 fTcBusy;
  81:.\USBFS_commandinterface.c **** uint8 pifData[2];
  82:.\USBFS_commandinterface.c **** uint8 pifBuf[64];
  83:.\USBFS_commandinterface.c **** uint8 progMode;
  84:.\USBFS_commandinterface.c **** /*******************************************************************************/
  85:.\USBFS_commandinterface.c **** extern volatile T_USBFS_TD USBFS_currentTD;
  86:.\USBFS_commandinterface.c **** /*******************************************************************************
  87:.\USBFS_commandinterface.c **** * Function Name: ProgramInit()
  88:.\USBFS_commandinterface.c **** ********************************************************************************
  89:.\USBFS_commandinterface.c **** * Summary: Initializes the variables for the programming operation.
  90:.\USBFS_commandinterface.c **** *   
  91:.\USBFS_commandinterface.c **** *
  92:.\USBFS_commandinterface.c **** * Parameters:
  93:.\USBFS_commandinterface.c **** *  void
  94:.\USBFS_commandinterface.c **** *
  95:.\USBFS_commandinterface.c **** * Return:
  96:.\USBFS_commandinterface.c **** *  void
  97:.\USBFS_commandinterface.c **** *
  98:.\USBFS_commandinterface.c **** * Global Variables:
  99:.\USBFS_commandinterface.c **** * pendingOp	: Clears the flag which indicattes any pending programming operation
 100:.\USBFS_commandinterface.c **** *
 101:.\USBFS_commandinterface.c **** * fTcBust	: Clears the busy flag which indicates the PC that the PSoC 5LP is 
 102:.\USBFS_commandinterface.c **** * currently busy in a programming operation
 103:.\USBFS_commandinterface.c **** *
 104:.\USBFS_commandinterface.c **** *******************************************************************************/
 105:.\USBFS_commandinterface.c **** void ProgramInit(void)
 106:.\USBFS_commandinterface.c **** {
  32              		.loc 1 106 0
  33              		.cfi_startproc
  34              		@ args = 0, pretend = 0, frame = 0
  35              		@ frame_needed = 0, uses_anonymous_args = 0
  36              		@ link register save eliminated.
 107:.\USBFS_commandinterface.c ****     pendingOp = CLEAR_OP;
  37              		.loc 1 107 0
  38 0000 024A     		ldr	r2, .L3
  39 0002 0023     		movs	r3, #0
  40 0004 1370     		strb	r3, [r2, #0]
 108:.\USBFS_commandinterface.c ****     fTcBusy = CLEAR_BUSY;
  41              		.loc 1 108 0
  42 0006 024A     		ldr	r2, .L3+4
  43 0008 1370     		strb	r3, [r2, #0]
 109:.\USBFS_commandinterface.c **** }
  44              		.loc 1 109 0
  45 000a 7047     		bx	lr
  46              	.L4:
  47              		.align	2
  48              	.L3:
  49 000c 00000000 		.word	pendingOp
  50 0010 00000000 		.word	fTcBusy
  51              		.cfi_endproc
  52              	.LFE29:
  53              		.size	ProgramInit, .-ProgramInit
  54              		.section	.text.VendorCmd,"ax",%progbits
  55              		.align	1
  56              		.global	VendorCmd
  57              		.thumb
  58              		.thumb_func
ARM GAS  C:\DOCUME~1\ADMINI~1\LOCALS~1\Temp\ccsC3cDp.s 			page 4


  59              		.type	VendorCmd, %function
  60              	VendorCmd:
  61              	.LFB30:
 110:.\USBFS_commandinterface.c **** /*******************************************************************************
 111:.\USBFS_commandinterface.c **** * Function Name: VendorCmd()
 112:.\USBFS_commandinterface.c **** ********************************************************************************
 113:.\USBFS_commandinterface.c **** * Summary:
 114:.\USBFS_commandinterface.c **** * Entry point from the USBFS user module. Called inside the function 
 115:.\USBFS_commandinterface.c **** * USBFS_HandleVendorRqst() defined inside USBFS_vnd.c
 116:.\USBFS_commandinterface.c **** *
 117:.\USBFS_commandinterface.c **** * Parameters:
 118:.\USBFS_commandinterface.c **** *  void
 119:.\USBFS_commandinterface.c **** *
 120:.\USBFS_commandinterface.c **** * Return:
 121:.\USBFS_commandinterface.c **** *  void
 122:.\USBFS_commandinterface.c **** *
 123:.\USBFS_commandinterface.c **** * Global Variables: 
 124:.\USBFS_commandinterface.c **** * pifBuf	: Bufer to send data to through the USB control endpoint
 125:.\USBFS_commandinterface.c **** * pifData	: Buffer to store commands received through the USB control endpoint
 126:.\USBFS_commandinterface.c **** * progMode	: Next programming operation to be performed
 127:.\USBFS_commandinterface.c **** * 
 128:.\USBFS_commandinterface.c **** ******************************************************************************/
 129:.\USBFS_commandinterface.c **** void VendorCmd(void)
 130:.\USBFS_commandinterface.c **** {
  62              		.loc 1 130 0
  63              		.cfi_startproc
  64              		@ args = 0, pretend = 0, frame = 8
  65              		@ frame_needed = 0, uses_anonymous_args = 0
  66 0000 13B5     		push	{r0, r1, r4, lr}
  67              	.LCFI0:
  68              		.cfi_def_cfa_offset 16
 131:.\USBFS_commandinterface.c **** 	/* Varaible to store ACK to be send to the USB packet */
 132:.\USBFS_commandinterface.c ****     uint8 progRes;
 133:.\USBFS_commandinterface.c **** 	/* Varaible to store the data which indicates whether the received command is a programming comman
 134:.\USBFS_commandinterface.c **** 	uint8 progCmd;
 135:.\USBFS_commandinterface.c **** 	progRes = USB_OK_ACK;
 136:.\USBFS_commandinterface.c ****     
 137:.\USBFS_commandinterface.c **** 	/* If executing a previous instruction, initiate a zero length USB transfer */
 138:.\USBFS_commandinterface.c **** 	if(fTcBusy == SET_BUSY)
  69              		.loc 1 138 0
  70 0002 1B4A     		ldr	r2, .L11
  71 0004 1378     		ldrb	r3, [r2, #0]	@ zero_extendqisi2
  72 0006 012B     		cmp	r3, #1
  73 0008 1A4B     		ldr	r3, .L11+4
  74 000a 03D1     		bne	.L6
  75              		.cfi_offset 14, -4
  76              		.cfi_offset 4, -8
  77              		.cfi_offset 1, -12
  78              		.cfi_offset 0, -16
 139:.\USBFS_commandinterface.c **** 	{
 140:.\USBFS_commandinterface.c **** 		USBFS_currentTD.count = 0;
  79              		.loc 1 140 0
  80 000c 4FF00002 		mov	r2, #0	@ movhi
  81 0010 1A80     		strh	r2, [r3, #0]	@ movhi
  82 0012 2CE0     		b	.L9
  83              	.L6:
 141:.\USBFS_commandinterface.c **** 	} 
ARM GAS  C:\DOCUME~1\ADMINI~1\LOCALS~1\Temp\ccsC3cDp.s 			page 5


 142:.\USBFS_commandinterface.c ****     else 
 143:.\USBFS_commandinterface.c ****     {
 144:.\USBFS_commandinterface.c **** 		/* Extract the count of bytes received. */
 145:.\USBFS_commandinterface.c **** 		USBFS_currentTD.count = ((uint16)CY_GET_REG8(USBFS_EP0_DR6_PTR)) + 
  84              		.loc 1 145 0
  85 0014 1849     		ldr	r1, .L11+8
 146:.\USBFS_commandinterface.c ****                                   ((uint16)CY_GET_REG8(USBFS_EP0_DR7_PTR)<<8);
  86              		.loc 1 146 0
  87 0016 1948     		ldr	r0, .L11+12
  88              		.loc 1 145 0
  89 0018 0978     		ldrb	r1, [r1, #0]	@ zero_extendqisi2
  90              		.loc 1 146 0
  91 001a 0078     		ldrb	r0, [r0, #0]	@ zero_extendqisi2
  92              		.loc 1 145 0
  93 001c 01EB0021 		add	r1, r1, r0, lsl #8
  94 0020 89B2     		uxth	r1, r1
  95 0022 1980     		strh	r1, [r3, #0]	@ movhi
 147:.\USBFS_commandinterface.c **** 
 148:.\USBFS_commandinterface.c **** 		/* If a read operation, set the data pointer to the databuffer address. */
 149:.\USBFS_commandinterface.c ****         if(CY_GET_REG8(USBFS_EP0_DR1_PTR) == READ_CMD)
  96              		.loc 1 149 0
  97 0024 1649     		ldr	r1, .L11+16
  98 0026 0878     		ldrb	r0, [r1, #0]	@ zero_extendqisi2
  99 0028 0128     		cmp	r0, #1
 100 002a 02D1     		bne	.L8
 150:.\USBFS_commandinterface.c ****         {
 151:.\USBFS_commandinterface.c ****             USBFS_currentTD.pData = &pifBuf[0];
 101              		.loc 1 151 0
 102 002c 154A     		ldr	r2, .L11+20
 103 002e 5A60     		str	r2, [r3, #4]
 104 0030 1DE0     		b	.L9
 105              	.L8:
 152:.\USBFS_commandinterface.c ****         } 
 153:.\USBFS_commandinterface.c **** 		/* If a write operation, extract the commands from the USB control endpoint registers */
 154:.\USBFS_commandinterface.c ****         else if(CY_GET_REG8(USBFS_EP0_DR1_PTR) == WRITE_CMD)
 106              		.loc 1 154 0
 107 0032 0978     		ldrb	r1, [r1, #0]	@ zero_extendqisi2
 108 0034 0229     		cmp	r1, #2
 109 0036 1AD1     		bne	.L9
 155:.\USBFS_commandinterface.c ****         {
 156:.\USBFS_commandinterface.c ****             /* Acknowledge the command */
 157:.\USBFS_commandinterface.c **** 			USBFS_currentTD.pData = &progRes;
 110              		.loc 1 157 0
 111 0038 0DF10701 		add	r1, sp, #7
 112 003c 5960     		str	r1, [r3, #4]
 158:.\USBFS_commandinterface.c **** 			
 159:.\USBFS_commandinterface.c **** 			/* progCmd checks if the command is a programing command. */
 160:.\USBFS_commandinterface.c ****             progCmd  = CY_GET_REG8(USBFS_EP0_DR2_PTR);
 113              		.loc 1 160 0
 114 003e 124B     		ldr	r3, .L11+24
 161:.\USBFS_commandinterface.c **** 			
 162:.\USBFS_commandinterface.c **** 			/* progMode stores the programming operation type */
 163:.\USBFS_commandinterface.c ****             progMode = CY_GET_REG8(USBFS_EP0_DR3_PTR);
 115              		.loc 1 163 0
 116 0040 1249     		ldr	r1, .L11+28
 117              		.loc 1 160 0
 118 0042 1878     		ldrb	r0, [r3, #0]	@ zero_extendqisi2
ARM GAS  C:\DOCUME~1\ADMINI~1\LOCALS~1\Temp\ccsC3cDp.s 			page 6


 119              		.loc 1 163 0
 120 0044 0133     		adds	r3, r3, #1
 121 0046 1B78     		ldrb	r3, [r3, #0]	@ zero_extendqisi2
 164:.\USBFS_commandinterface.c **** 			
 165:.\USBFS_commandinterface.c **** 			/* Array pifData stores the values such as the aquire mode (Reset/Powercycle), device to be acqu
 166:.\USBFS_commandinterface.c **** 			* number of retries before declaring the programming operation to have failed, and the protocol 
 167:.\USBFS_commandinterface.c **** 			* depend on the current value of the variable progMode */
 168:.\USBFS_commandinterface.c ****             pifData[0] = CY_GET_REG8(USBFS_EP0_DR4_PTR);
 169:.\USBFS_commandinterface.c ****             pifData[1]  = CY_GET_REG8(USBFS_EP0_DR5_PTR);
 122              		.loc 1 169 0
 123 0048 114C     		ldr	r4, .L11+32
 124              		.loc 1 163 0
 125 004a 0B70     		strb	r3, [r1, #0]
 126              		.loc 1 168 0
 127 004c 1149     		ldr	r1, .L11+36
 170:.\USBFS_commandinterface.c ****             
 171:.\USBFS_commandinterface.c **** 			/* If the command is a programming command */
 172:.\USBFS_commandinterface.c ****             if(progCmd == PROGRAM_CMD)
 128              		.loc 1 172 0
 129 004e 0728     		cmp	r0, #7
 130              		.loc 1 168 0
 131 0050 91F800C0 		ldrb	ip, [r1, #0]	@ zero_extendqisi2
 132 0054 1049     		ldr	r1, .L11+40
 133 0056 81F800C0 		strb	ip, [r1, #0]
 134              		.loc 1 169 0
 135 005a 94F800C0 		ldrb	ip, [r4, #0]	@ zero_extendqisi2
 136 005e 81F801C0 		strb	ip, [r1, #1]
 137              		.loc 1 172 0
 138 0062 04D1     		bne	.L9
 173:.\USBFS_commandinterface.c ****             {	
 174:.\USBFS_commandinterface.c ****                 if(progMode != CMD_BUFFER)
 139              		.loc 1 174 0
 140 0064 1BB1     		cbz	r3, .L9
 175:.\USBFS_commandinterface.c ****                 {
 176:.\USBFS_commandinterface.c ****                     /* Pass the command to pending operation */
 177:.\USBFS_commandinterface.c **** 					pendingOp = progMode;
 141              		.loc 1 177 0
 142 0066 0D49     		ldr	r1, .L11+44
 143 0068 0B70     		strb	r3, [r1, #0]
 178:.\USBFS_commandinterface.c **** 					
 179:.\USBFS_commandinterface.c ****                     /* Set the busy flag */
 180:.\USBFS_commandinterface.c ****                     fTcBusy = SET_BUSY;				
 144              		.loc 1 180 0
 145 006a 0123     		movs	r3, #1
 146 006c 1370     		strb	r3, [r2, #0]
 147              	.L9:
 181:.\USBFS_commandinterface.c ****                 }
 182:.\USBFS_commandinterface.c ****             }
 183:.\USBFS_commandinterface.c ****         } 
 184:.\USBFS_commandinterface.c ****         else 
 185:.\USBFS_commandinterface.c ****         {
 186:.\USBFS_commandinterface.c **** 			/* do nothing */
 187:.\USBFS_commandinterface.c ****         }
 188:.\USBFS_commandinterface.c **** 	
 189:.\USBFS_commandinterface.c ****     }
 190:.\USBFS_commandinterface.c **** 	return;
 191:.\USBFS_commandinterface.c **** }
ARM GAS  C:\DOCUME~1\ADMINI~1\LOCALS~1\Temp\ccsC3cDp.s 			page 7


 148              		.loc 1 191 0
 149 006e 1CBD     		pop	{r2, r3, r4, pc}
 150              	.L12:
 151              		.align	2
 152              	.L11:
 153 0070 00000000 		.word	fTcBusy
 154 0074 00000000 		.word	USBFS_currentTD
 155 0078 06600040 		.word	1073766406
 156 007c 07600040 		.word	1073766407
 157 0080 01600040 		.word	1073766401
 158 0084 00000000 		.word	pifBuf
 159 0088 02600040 		.word	1073766402
 160 008c 00000000 		.word	progMode
 161 0090 05600040 		.word	1073766405
 162 0094 04600040 		.word	1073766404
 163 0098 00000000 		.word	pifData
 164 009c 00000000 		.word	pendingOp
 165              		.cfi_endproc
 166              	.LFE30:
 167              		.size	VendorCmd, .-VendorCmd
 168              		.comm	pendingOp,1,1
 169              		.comm	fTcBusy,1,1
 170              		.comm	pifData,2,4
 171              		.comm	pifBuf,64,4
 172              		.comm	progMode,1,1
 173              		.text
 174              	.Letext0: