ARM GAS  C:\DOCUME~1\ADMINI~1\LOCALS~1\Temp\ccWPJVzv.s 			page 1


   1              		.syntax unified
   2              		.cpu cortex-m3
   3              		.fpu softvfp
   4              		.eabi_attribute 20, 1
   5              		.eabi_attribute 21, 1
   6              		.eabi_attribute 23, 3
   7              		.eabi_attribute 24, 1
   8              		.eabi_attribute 25, 1
   9              		.eabi_attribute 26, 1
  10              		.eabi_attribute 30, 4
  11              		.eabi_attribute 18, 4
  12              		.thumb
  13              		.file	"USBFS_Dm.c"
  20 0000 AE000000 		.text
  20      02006100 
  20      00000201 
  20      FB0E0D00 
  20      01010101 
  21              	.Ltext0:
  22              		.cfi_sections	.debug_frame
  23              		.section	.text.USBFS_Dm_Write,"ax",%progbits
  24              		.align	1
  25              		.global	USBFS_Dm_Write
  26              		.thumb
  27              		.thumb_func
  28              		.type	USBFS_Dm_Write, %function
  29              	USBFS_Dm_Write:
  30              	.LFB0:
  31              		.file 1 ".\\Generated_Source\\PSoC5\\USBFS_Dm.c"
   1:.\Generated_Source\PSoC5/USBFS_Dm.c **** /*******************************************************************************
   2:.\Generated_Source\PSoC5/USBFS_Dm.c **** * File Name: USBFS_Dm.c  
   3:.\Generated_Source\PSoC5/USBFS_Dm.c **** * Version 1.80
   4:.\Generated_Source\PSoC5/USBFS_Dm.c **** *
   5:.\Generated_Source\PSoC5/USBFS_Dm.c **** * Description:
   6:.\Generated_Source\PSoC5/USBFS_Dm.c **** *  This file contains API to enable firmware control of a Pins component.
   7:.\Generated_Source\PSoC5/USBFS_Dm.c **** *
   8:.\Generated_Source\PSoC5/USBFS_Dm.c **** * Note:
   9:.\Generated_Source\PSoC5/USBFS_Dm.c **** *
  10:.\Generated_Source\PSoC5/USBFS_Dm.c **** ********************************************************************************
  11:.\Generated_Source\PSoC5/USBFS_Dm.c **** * Copyright 2008-2012, Cypress Semiconductor Corporation.  All rights reserved.
  12:.\Generated_Source\PSoC5/USBFS_Dm.c **** * You may use this file only in accordance with the license, terms, conditions, 
  13:.\Generated_Source\PSoC5/USBFS_Dm.c **** * disclaimers, and limitations in the end user license agreement accompanying 
  14:.\Generated_Source\PSoC5/USBFS_Dm.c **** * the software package with which this file was provided.
  15:.\Generated_Source\PSoC5/USBFS_Dm.c **** *******************************************************************************/
  16:.\Generated_Source\PSoC5/USBFS_Dm.c **** 
  17:.\Generated_Source\PSoC5/USBFS_Dm.c **** #include "cytypes.h"
  18:.\Generated_Source\PSoC5/USBFS_Dm.c **** #include "USBFS_Dm.h"
  19:.\Generated_Source\PSoC5/USBFS_Dm.c **** 
  20:.\Generated_Source\PSoC5/USBFS_Dm.c **** /* APIs are not generated for P15[7:6] on PSoC 5 */
  21:.\Generated_Source\PSoC5/USBFS_Dm.c **** #if !(CY_PSOC5A &&\
  22:.\Generated_Source\PSoC5/USBFS_Dm.c **** 	 USBFS_Dm__PORT == 15 && ((USBFS_Dm__MASK & 0xC0) != 0))
ARM GAS  C:\DOCUME~1\ADMINI~1\LOCALS~1\Temp\ccWPJVzv.s 			page 2


  23:.\Generated_Source\PSoC5/USBFS_Dm.c **** 
  24:.\Generated_Source\PSoC5/USBFS_Dm.c **** 
  25:.\Generated_Source\PSoC5/USBFS_Dm.c **** /*******************************************************************************
  26:.\Generated_Source\PSoC5/USBFS_Dm.c **** * Function Name: USBFS_Dm_Write
  27:.\Generated_Source\PSoC5/USBFS_Dm.c **** ********************************************************************************
  28:.\Generated_Source\PSoC5/USBFS_Dm.c **** *
  29:.\Generated_Source\PSoC5/USBFS_Dm.c **** * Summary:
  30:.\Generated_Source\PSoC5/USBFS_Dm.c **** *  Assign a new value to the digital port's data output register.  
  31:.\Generated_Source\PSoC5/USBFS_Dm.c **** *
  32:.\Generated_Source\PSoC5/USBFS_Dm.c **** * Parameters:  
  33:.\Generated_Source\PSoC5/USBFS_Dm.c **** *  prtValue:  The value to be assigned to the Digital Port. 
  34:.\Generated_Source\PSoC5/USBFS_Dm.c **** *
  35:.\Generated_Source\PSoC5/USBFS_Dm.c **** * Return: 
  36:.\Generated_Source\PSoC5/USBFS_Dm.c **** *  None
  37:.\Generated_Source\PSoC5/USBFS_Dm.c **** *  
  38:.\Generated_Source\PSoC5/USBFS_Dm.c **** *******************************************************************************/
  39:.\Generated_Source\PSoC5/USBFS_Dm.c **** void USBFS_Dm_Write(uint8 value) 
  40:.\Generated_Source\PSoC5/USBFS_Dm.c **** {
  32              		.loc 1 40 0
  33              		.cfi_startproc
  34              		@ args = 0, pretend = 0, frame = 0
  35              		@ frame_needed = 0, uses_anonymous_args = 0
  36              		@ link register save eliminated.
  37              	.LVL0:
  41:.\Generated_Source\PSoC5/USBFS_Dm.c ****     uint8 staticBits = (USBFS_Dm_DR & (uint8)(~USBFS_Dm_MASK));
  38              		.loc 1 41 0
  39 0000 044B     		ldr	r3, .L3
  40 0002 1A78     		ldrb	r2, [r3, #0]	@ zero_extendqisi2
  42:.\Generated_Source\PSoC5/USBFS_Dm.c ****     USBFS_Dm_DR = staticBits | ((uint8)(value << USBFS_Dm_SHIFT) & USBFS_Dm_MASK);
  41              		.loc 1 42 0
  42 0004 02F07F02 		and	r2, r2, #127
  43 0008 42EAC012 		orr	r2, r2, r0, lsl #7
  44 000c D2B2     		uxtb	r2, r2
  45 000e 1A70     		strb	r2, [r3, #0]
  43:.\Generated_Source\PSoC5/USBFS_Dm.c **** }
  46              		.loc 1 43 0
  47 0010 7047     		bx	lr
  48              	.L4:
  49 0012 00BF     		.align	2
  50              	.L3:
  51 0014 F0510040 		.word	1073762800
  52              		.cfi_endproc
  53              	.LFE0:
  54              		.size	USBFS_Dm_Write, .-USBFS_Dm_Write
  55              		.section	.text.USBFS_Dm_SetDriveMode,"ax",%progbits
  56              		.align	1
  57              		.global	USBFS_Dm_SetDriveMode
  58              		.thumb
  59              		.thumb_func
  60              		.type	USBFS_Dm_SetDriveMode, %function
  61              	USBFS_Dm_SetDriveMode:
  62              	.LFB1:
  44:.\Generated_Source\PSoC5/USBFS_Dm.c **** 
  45:.\Generated_Source\PSoC5/USBFS_Dm.c **** 
  46:.\Generated_Source\PSoC5/USBFS_Dm.c **** /*******************************************************************************
  47:.\Generated_Source\PSoC5/USBFS_Dm.c **** * Function Name: USBFS_Dm_SetDriveMode
  48:.\Generated_Source\PSoC5/USBFS_Dm.c **** ********************************************************************************
ARM GAS  C:\DOCUME~1\ADMINI~1\LOCALS~1\Temp\ccWPJVzv.s 			page 3


  49:.\Generated_Source\PSoC5/USBFS_Dm.c **** *
  50:.\Generated_Source\PSoC5/USBFS_Dm.c **** * Summary:
  51:.\Generated_Source\PSoC5/USBFS_Dm.c **** *  Change the drive mode on the pins of the port.
  52:.\Generated_Source\PSoC5/USBFS_Dm.c **** * 
  53:.\Generated_Source\PSoC5/USBFS_Dm.c **** * Parameters:  
  54:.\Generated_Source\PSoC5/USBFS_Dm.c **** *  mode:  Change the pins to this drive mode.
  55:.\Generated_Source\PSoC5/USBFS_Dm.c **** *
  56:.\Generated_Source\PSoC5/USBFS_Dm.c **** * Return: 
  57:.\Generated_Source\PSoC5/USBFS_Dm.c **** *  None
  58:.\Generated_Source\PSoC5/USBFS_Dm.c **** *
  59:.\Generated_Source\PSoC5/USBFS_Dm.c **** *******************************************************************************/
  60:.\Generated_Source\PSoC5/USBFS_Dm.c **** void USBFS_Dm_SetDriveMode(uint8 mode) 
  61:.\Generated_Source\PSoC5/USBFS_Dm.c **** {
  63              		.loc 1 61 0
  64              		.cfi_startproc
  65              		@ args = 0, pretend = 0, frame = 0
  66              		@ frame_needed = 0, uses_anonymous_args = 0
  67              		@ link register save eliminated.
  68              	.LVL1:
  62:.\Generated_Source\PSoC5/USBFS_Dm.c **** 	CyPins_SetPinDriveMode(USBFS_Dm_0, mode);
  69              		.loc 1 62 0
  70 0000 044B     		ldr	r3, .L7
  71 0002 00F00E00 		and	r0, r0, #14
  72              	.LVL2:
  73 0006 1A78     		ldrb	r2, [r3, #0]	@ zero_extendqisi2
  74 0008 02F0F102 		and	r2, r2, #241
  75 000c 40EA0202 		orr	r2, r0, r2
  76 0010 1A70     		strb	r2, [r3, #0]
  63:.\Generated_Source\PSoC5/USBFS_Dm.c **** }
  77              		.loc 1 63 0
  78 0012 7047     		bx	lr
  79              	.L8:
  80              		.align	2
  81              	.L7:
  82 0014 7F500040 		.word	1073762431
  83              		.cfi_endproc
  84              	.LFE1:
  85              		.size	USBFS_Dm_SetDriveMode, .-USBFS_Dm_SetDriveMode
  86              		.section	.text.USBFS_Dm_Read,"ax",%progbits
  87              		.align	1
  88              		.global	USBFS_Dm_Read
  89              		.thumb
  90              		.thumb_func
  91              		.type	USBFS_Dm_Read, %function
  92              	USBFS_Dm_Read:
  93              	.LFB2:
  64:.\Generated_Source\PSoC5/USBFS_Dm.c **** 
  65:.\Generated_Source\PSoC5/USBFS_Dm.c **** 
  66:.\Generated_Source\PSoC5/USBFS_Dm.c **** /*******************************************************************************
  67:.\Generated_Source\PSoC5/USBFS_Dm.c **** * Function Name: USBFS_Dm_Read
  68:.\Generated_Source\PSoC5/USBFS_Dm.c **** ********************************************************************************
  69:.\Generated_Source\PSoC5/USBFS_Dm.c **** *
  70:.\Generated_Source\PSoC5/USBFS_Dm.c **** * Summary:
  71:.\Generated_Source\PSoC5/USBFS_Dm.c **** *  Read the current value on the pins of the Digital Port in right justified 
  72:.\Generated_Source\PSoC5/USBFS_Dm.c **** *  form.
  73:.\Generated_Source\PSoC5/USBFS_Dm.c **** *
  74:.\Generated_Source\PSoC5/USBFS_Dm.c **** * Parameters:  
ARM GAS  C:\DOCUME~1\ADMINI~1\LOCALS~1\Temp\ccWPJVzv.s 			page 4


  75:.\Generated_Source\PSoC5/USBFS_Dm.c **** *  None
  76:.\Generated_Source\PSoC5/USBFS_Dm.c **** *
  77:.\Generated_Source\PSoC5/USBFS_Dm.c **** * Return: 
  78:.\Generated_Source\PSoC5/USBFS_Dm.c **** *  Returns the current value of the Digital Port as a right justified number
  79:.\Generated_Source\PSoC5/USBFS_Dm.c **** *  
  80:.\Generated_Source\PSoC5/USBFS_Dm.c **** * Note:
  81:.\Generated_Source\PSoC5/USBFS_Dm.c **** *  Macro USBFS_Dm_ReadPS calls this function. 
  82:.\Generated_Source\PSoC5/USBFS_Dm.c **** *  
  83:.\Generated_Source\PSoC5/USBFS_Dm.c **** *******************************************************************************/
  84:.\Generated_Source\PSoC5/USBFS_Dm.c **** uint8 USBFS_Dm_Read(void) 
  85:.\Generated_Source\PSoC5/USBFS_Dm.c **** {
  94              		.loc 1 85 0
  95              		.cfi_startproc
  96              		@ args = 0, pretend = 0, frame = 0
  97              		@ frame_needed = 0, uses_anonymous_args = 0
  98              		@ link register save eliminated.
  86:.\Generated_Source\PSoC5/USBFS_Dm.c ****     return (USBFS_Dm_PS & USBFS_Dm_MASK) >> USBFS_Dm_SHIFT;
  99              		.loc 1 86 0
 100 0000 014B     		ldr	r3, .L11
 101 0002 1878     		ldrb	r0, [r3, #0]	@ zero_extendqisi2
  87:.\Generated_Source\PSoC5/USBFS_Dm.c **** }
 102              		.loc 1 87 0
 103 0004 C009     		lsrs	r0, r0, #7
 104 0006 7047     		bx	lr
 105              	.L12:
 106              		.align	2
 107              	.L11:
 108 0008 F1510040 		.word	1073762801
 109              		.cfi_endproc
 110              	.LFE2:
 111              		.size	USBFS_Dm_Read, .-USBFS_Dm_Read
 112              		.section	.text.USBFS_Dm_ReadDataReg,"ax",%progbits
 113              		.align	1
 114              		.global	USBFS_Dm_ReadDataReg
 115              		.thumb
 116              		.thumb_func
 117              		.type	USBFS_Dm_ReadDataReg, %function
 118              	USBFS_Dm_ReadDataReg:
 119              	.LFB3:
  88:.\Generated_Source\PSoC5/USBFS_Dm.c **** 
  89:.\Generated_Source\PSoC5/USBFS_Dm.c **** 
  90:.\Generated_Source\PSoC5/USBFS_Dm.c **** /*******************************************************************************
  91:.\Generated_Source\PSoC5/USBFS_Dm.c **** * Function Name: USBFS_Dm_ReadDataReg
  92:.\Generated_Source\PSoC5/USBFS_Dm.c **** ********************************************************************************
  93:.\Generated_Source\PSoC5/USBFS_Dm.c **** *
  94:.\Generated_Source\PSoC5/USBFS_Dm.c **** * Summary:
  95:.\Generated_Source\PSoC5/USBFS_Dm.c **** *  Read the current value assigned to a Digital Port's data output register
  96:.\Generated_Source\PSoC5/USBFS_Dm.c **** *
  97:.\Generated_Source\PSoC5/USBFS_Dm.c **** * Parameters:  
  98:.\Generated_Source\PSoC5/USBFS_Dm.c **** *  None 
  99:.\Generated_Source\PSoC5/USBFS_Dm.c **** *
 100:.\Generated_Source\PSoC5/USBFS_Dm.c **** * Return: 
 101:.\Generated_Source\PSoC5/USBFS_Dm.c **** *  Returns the current value assigned to the Digital Port's data output register
 102:.\Generated_Source\PSoC5/USBFS_Dm.c **** *  
 103:.\Generated_Source\PSoC5/USBFS_Dm.c **** *******************************************************************************/
 104:.\Generated_Source\PSoC5/USBFS_Dm.c **** uint8 USBFS_Dm_ReadDataReg(void) 
 105:.\Generated_Source\PSoC5/USBFS_Dm.c **** {
ARM GAS  C:\DOCUME~1\ADMINI~1\LOCALS~1\Temp\ccWPJVzv.s 			page 5


 120              		.loc 1 105 0
 121              		.cfi_startproc
 122              		@ args = 0, pretend = 0, frame = 0
 123              		@ frame_needed = 0, uses_anonymous_args = 0
 124              		@ link register save eliminated.
 106:.\Generated_Source\PSoC5/USBFS_Dm.c ****     return (USBFS_Dm_DR & USBFS_Dm_MASK) >> USBFS_Dm_SHIFT;
 125              		.loc 1 106 0
 126 0000 014B     		ldr	r3, .L15
 127 0002 1878     		ldrb	r0, [r3, #0]	@ zero_extendqisi2
 107:.\Generated_Source\PSoC5/USBFS_Dm.c **** }
 128              		.loc 1 107 0
 129 0004 C009     		lsrs	r0, r0, #7
 130 0006 7047     		bx	lr
 131              	.L16:
 132              		.align	2
 133              	.L15:
 134 0008 F0510040 		.word	1073762800
 135              		.cfi_endproc
 136              	.LFE3:
 137              		.size	USBFS_Dm_ReadDataReg, .-USBFS_Dm_ReadDataReg
 138              		.text
 139              	.Letext0: