ARM GAS  C:\DOCUME~1\ADMINI~1\LOCALS~1\Temp\ccqF2cmD.s 			page 1


   1              		.syntax unified
   2              		.cpu cortex-m3
   3              		.fpu softvfp
   4              		.eabi_attribute 20, 1
   5              		.eabi_attribute 21, 1
   6              		.eabi_attribute 23, 3
   7              		.eabi_attribute 24, 1
   8              		.eabi_attribute 25, 1
   9              		.eabi_attribute 26, 1
  10              		.eabi_attribute 30, 4
  11              		.eabi_attribute 18, 4
  12              		.thumb
  13              		.file	"USBFS_pm.c"
  20 0000 37010000 		.text
  20      02007900 
  20      00000201 
  20      FB0E0D00 
  20      01010101 
  21              	.Ltext0:
  22              		.cfi_sections	.debug_frame
  23              		.section	.text.USBFS_DP_ISR,"ax",%progbits
  24              		.align	1
  25              		.global	USBFS_DP_ISR
  26              		.thumb
  27              		.thumb_func
  28              		.type	USBFS_DP_ISR, %function
  29              	USBFS_DP_ISR:
  30              	.LFB29:
  31              		.file 1 ".\\Generated_Source\\PSoC5\\USBFS_pm.c"
   1:.\Generated_Source\PSoC5/USBFS_pm.c **** /*******************************************************************************
   2:.\Generated_Source\PSoC5/USBFS_pm.c **** * File Name: USBFS_pm.c
   3:.\Generated_Source\PSoC5/USBFS_pm.c **** * Version 2.50
   4:.\Generated_Source\PSoC5/USBFS_pm.c **** *
   5:.\Generated_Source\PSoC5/USBFS_pm.c **** * Description:
   6:.\Generated_Source\PSoC5/USBFS_pm.c **** *  This file provides Suspend/Resume APIs functionality.
   7:.\Generated_Source\PSoC5/USBFS_pm.c **** *
   8:.\Generated_Source\PSoC5/USBFS_pm.c **** * Note:
   9:.\Generated_Source\PSoC5/USBFS_pm.c **** *
  10:.\Generated_Source\PSoC5/USBFS_pm.c **** ********************************************************************************
  11:.\Generated_Source\PSoC5/USBFS_pm.c **** * Copyright 2008-2012, Cypress Semiconductor Corporation.  All rights reserved.
  12:.\Generated_Source\PSoC5/USBFS_pm.c **** * You may use this file only in accordance with the license, terms, conditions,
  13:.\Generated_Source\PSoC5/USBFS_pm.c **** * disclaimers, and limitations in the end user license agreement accompanying
  14:.\Generated_Source\PSoC5/USBFS_pm.c **** * the software package with which this file was provided.
  15:.\Generated_Source\PSoC5/USBFS_pm.c **** *******************************************************************************/
  16:.\Generated_Source\PSoC5/USBFS_pm.c **** 
  17:.\Generated_Source\PSoC5/USBFS_pm.c **** #include <device.h>
  18:.\Generated_Source\PSoC5/USBFS_pm.c **** #include "USBFS.h"
  19:.\Generated_Source\PSoC5/USBFS_pm.c **** 
  20:.\Generated_Source\PSoC5/USBFS_pm.c **** 
  21:.\Generated_Source\PSoC5/USBFS_pm.c **** /***************************************
  22:.\Generated_Source\PSoC5/USBFS_pm.c **** * Custom Declarations
ARM GAS  C:\DOCUME~1\ADMINI~1\LOCALS~1\Temp\ccqF2cmD.s 			page 2


  23:.\Generated_Source\PSoC5/USBFS_pm.c **** ***************************************/
  24:.\Generated_Source\PSoC5/USBFS_pm.c **** /* `#START PM_CUSTOM_DECLARATIONS` Place your declaration here */
  25:.\Generated_Source\PSoC5/USBFS_pm.c **** 
  26:.\Generated_Source\PSoC5/USBFS_pm.c **** /* `#END` */
  27:.\Generated_Source\PSoC5/USBFS_pm.c **** 
  28:.\Generated_Source\PSoC5/USBFS_pm.c **** 
  29:.\Generated_Source\PSoC5/USBFS_pm.c **** /***************************************
  30:.\Generated_Source\PSoC5/USBFS_pm.c **** * Local data allocation
  31:.\Generated_Source\PSoC5/USBFS_pm.c **** ***************************************/
  32:.\Generated_Source\PSoC5/USBFS_pm.c **** 
  33:.\Generated_Source\PSoC5/USBFS_pm.c **** static USBFS_BACKUP_STRUCT  USBFS_backup;
  34:.\Generated_Source\PSoC5/USBFS_pm.c **** 
  35:.\Generated_Source\PSoC5/USBFS_pm.c **** 
  36:.\Generated_Source\PSoC5/USBFS_pm.c **** /***************************************
  37:.\Generated_Source\PSoC5/USBFS_pm.c **** * External data references
  38:.\Generated_Source\PSoC5/USBFS_pm.c **** ***************************************/
  39:.\Generated_Source\PSoC5/USBFS_pm.c **** 
  40:.\Generated_Source\PSoC5/USBFS_pm.c **** extern volatile uint8 USBFS_configuration;
  41:.\Generated_Source\PSoC5/USBFS_pm.c **** 
  42:.\Generated_Source\PSoC5/USBFS_pm.c **** 
  43:.\Generated_Source\PSoC5/USBFS_pm.c **** /***************************************
  44:.\Generated_Source\PSoC5/USBFS_pm.c **** * External function references
  45:.\Generated_Source\PSoC5/USBFS_pm.c **** ***************************************/
  46:.\Generated_Source\PSoC5/USBFS_pm.c **** 
  47:.\Generated_Source\PSoC5/USBFS_pm.c **** extern void USBFS_ConfigReg(void) ;
  48:.\Generated_Source\PSoC5/USBFS_pm.c **** #if(USBFS_EP_MM != USBFS__EP_MANUAL)
  49:.\Generated_Source\PSoC5/USBFS_pm.c ****     extern void USBFS_Stop_DMA(uint8 epNumber) ;
  50:.\Generated_Source\PSoC5/USBFS_pm.c **** #endif   /* End USBFS_EP_MM != USBFS__EP_MANUAL */
  51:.\Generated_Source\PSoC5/USBFS_pm.c **** 
  52:.\Generated_Source\PSoC5/USBFS_pm.c **** #if((USBFS_DP_ISR_REMOVE == 0u) && (!CY_PSOC5A))
  53:.\Generated_Source\PSoC5/USBFS_pm.c **** 
  54:.\Generated_Source\PSoC5/USBFS_pm.c **** 
  55:.\Generated_Source\PSoC5/USBFS_pm.c ****     /*******************************************************************************
  56:.\Generated_Source\PSoC5/USBFS_pm.c ****     * Function Name: USBFS_DP_Interrupt
  57:.\Generated_Source\PSoC5/USBFS_pm.c ****     ********************************************************************************
  58:.\Generated_Source\PSoC5/USBFS_pm.c ****     *
  59:.\Generated_Source\PSoC5/USBFS_pm.c ****     * Summary:
  60:.\Generated_Source\PSoC5/USBFS_pm.c ****     *  This Interrupt Service Routine handles DP pin changes for wake-up from
  61:.\Generated_Source\PSoC5/USBFS_pm.c ****     *  the sleep mode.
  62:.\Generated_Source\PSoC5/USBFS_pm.c ****     *
  63:.\Generated_Source\PSoC5/USBFS_pm.c ****     * Parameters:
  64:.\Generated_Source\PSoC5/USBFS_pm.c ****     *  None.
  65:.\Generated_Source\PSoC5/USBFS_pm.c ****     *
  66:.\Generated_Source\PSoC5/USBFS_pm.c ****     * Return:
  67:.\Generated_Source\PSoC5/USBFS_pm.c ****     *  None.
  68:.\Generated_Source\PSoC5/USBFS_pm.c ****     *
  69:.\Generated_Source\PSoC5/USBFS_pm.c ****     *******************************************************************************/
  70:.\Generated_Source\PSoC5/USBFS_pm.c ****     CY_ISR(USBFS_DP_ISR)
  71:.\Generated_Source\PSoC5/USBFS_pm.c ****     {
  32              		.loc 1 71 0
  33              		.cfi_startproc
  34              		@ args = 0, pretend = 0, frame = 0
  35              		@ frame_needed = 0, uses_anonymous_args = 0
  36              		@ link register save eliminated.
  72:.\Generated_Source\PSoC5/USBFS_pm.c ****         /* `#START DP_USER_CODE` Place your code here */
  73:.\Generated_Source\PSoC5/USBFS_pm.c **** 
  74:.\Generated_Source\PSoC5/USBFS_pm.c ****         /* `#END` */
ARM GAS  C:\DOCUME~1\ADMINI~1\LOCALS~1\Temp\ccqF2cmD.s 			page 3


  75:.\Generated_Source\PSoC5/USBFS_pm.c **** 
  76:.\Generated_Source\PSoC5/USBFS_pm.c ****         /* Clears active interrupt */
  77:.\Generated_Source\PSoC5/USBFS_pm.c ****         CY_GET_REG8(USBFS_DP_INTSTAT_PTR);
  37              		.loc 1 77 0
  38 0000 014B     		ldr	r3, .L3
  39 0002 1B78     		ldrb	r3, [r3, #0]	@ zero_extendqisi2
  78:.\Generated_Source\PSoC5/USBFS_pm.c ****     }
  40              		.loc 1 78 0
  41 0004 7047     		bx	lr
  42              	.L4:
  43 0006 00BF     		.align	2
  44              	.L3:
  45 0008 8F450040 		.word	1073759631
  46              		.cfi_endproc
  47              	.LFE29:
  48              		.size	USBFS_DP_ISR, .-USBFS_DP_ISR
  49              		.section	.text.USBFS_SaveConfig,"ax",%progbits
  50              		.align	1
  51              		.global	USBFS_SaveConfig
  52              		.thumb
  53              		.thumb_func
  54              		.type	USBFS_SaveConfig, %function
  55              	USBFS_SaveConfig:
  56              	.LFB30:
  79:.\Generated_Source\PSoC5/USBFS_pm.c **** 
  80:.\Generated_Source\PSoC5/USBFS_pm.c **** #endif /* (USBFS_DP_ISR_REMOVE == 0u) && (!CY_PSOC5A) */
  81:.\Generated_Source\PSoC5/USBFS_pm.c **** 
  82:.\Generated_Source\PSoC5/USBFS_pm.c **** 
  83:.\Generated_Source\PSoC5/USBFS_pm.c **** /*******************************************************************************
  84:.\Generated_Source\PSoC5/USBFS_pm.c **** * Function Name: USBFS_SaveConfig
  85:.\Generated_Source\PSoC5/USBFS_pm.c **** ********************************************************************************
  86:.\Generated_Source\PSoC5/USBFS_pm.c **** *
  87:.\Generated_Source\PSoC5/USBFS_pm.c **** * Summary:
  88:.\Generated_Source\PSoC5/USBFS_pm.c **** *  Saves the current user configuration.
  89:.\Generated_Source\PSoC5/USBFS_pm.c **** *
  90:.\Generated_Source\PSoC5/USBFS_pm.c **** * Parameters:
  91:.\Generated_Source\PSoC5/USBFS_pm.c **** *  None.
  92:.\Generated_Source\PSoC5/USBFS_pm.c **** *
  93:.\Generated_Source\PSoC5/USBFS_pm.c **** * Return:
  94:.\Generated_Source\PSoC5/USBFS_pm.c **** *  None.
  95:.\Generated_Source\PSoC5/USBFS_pm.c **** *
  96:.\Generated_Source\PSoC5/USBFS_pm.c **** * Reentrant:
  97:.\Generated_Source\PSoC5/USBFS_pm.c **** *  No.
  98:.\Generated_Source\PSoC5/USBFS_pm.c **** *
  99:.\Generated_Source\PSoC5/USBFS_pm.c **** *******************************************************************************/
 100:.\Generated_Source\PSoC5/USBFS_pm.c **** void USBFS_SaveConfig(void) 
 101:.\Generated_Source\PSoC5/USBFS_pm.c **** {
  57              		.loc 1 101 0
  58              		.cfi_startproc
  59              		@ args = 0, pretend = 0, frame = 0
  60              		@ frame_needed = 0, uses_anonymous_args = 0
  61              		@ link register save eliminated.
 102:.\Generated_Source\PSoC5/USBFS_pm.c **** 
 103:.\Generated_Source\PSoC5/USBFS_pm.c **** }
  62              		.loc 1 103 0
  63 0000 7047     		bx	lr
  64              		.cfi_endproc
ARM GAS  C:\DOCUME~1\ADMINI~1\LOCALS~1\Temp\ccqF2cmD.s 			page 4


  65              	.LFE30:
  66              		.size	USBFS_SaveConfig, .-USBFS_SaveConfig
  67              		.section	.text.USBFS_Suspend,"ax",%progbits
  68              		.align	1
  69              		.global	USBFS_Suspend
  70              		.thumb
  71              		.thumb_func
  72              		.type	USBFS_Suspend, %function
  73              	USBFS_Suspend:
  74              	.LFB32:
 104:.\Generated_Source\PSoC5/USBFS_pm.c **** 
 105:.\Generated_Source\PSoC5/USBFS_pm.c **** 
 106:.\Generated_Source\PSoC5/USBFS_pm.c **** /*******************************************************************************
 107:.\Generated_Source\PSoC5/USBFS_pm.c **** * Function Name: USBFS_RestoreConfig
 108:.\Generated_Source\PSoC5/USBFS_pm.c **** ********************************************************************************
 109:.\Generated_Source\PSoC5/USBFS_pm.c **** *
 110:.\Generated_Source\PSoC5/USBFS_pm.c **** * Summary:
 111:.\Generated_Source\PSoC5/USBFS_pm.c **** *  Restores the current user configuration.
 112:.\Generated_Source\PSoC5/USBFS_pm.c **** *
 113:.\Generated_Source\PSoC5/USBFS_pm.c **** * Parameters:
 114:.\Generated_Source\PSoC5/USBFS_pm.c **** *  None.
 115:.\Generated_Source\PSoC5/USBFS_pm.c **** *
 116:.\Generated_Source\PSoC5/USBFS_pm.c **** * Return:
 117:.\Generated_Source\PSoC5/USBFS_pm.c **** *  None.
 118:.\Generated_Source\PSoC5/USBFS_pm.c **** *
 119:.\Generated_Source\PSoC5/USBFS_pm.c **** * Reentrant:
 120:.\Generated_Source\PSoC5/USBFS_pm.c **** *  No.
 121:.\Generated_Source\PSoC5/USBFS_pm.c **** *
 122:.\Generated_Source\PSoC5/USBFS_pm.c **** *******************************************************************************/
 123:.\Generated_Source\PSoC5/USBFS_pm.c **** void USBFS_RestoreConfig(void) 
 124:.\Generated_Source\PSoC5/USBFS_pm.c **** {
 125:.\Generated_Source\PSoC5/USBFS_pm.c ****     if(USBFS_configuration != 0)
 126:.\Generated_Source\PSoC5/USBFS_pm.c ****     {
 127:.\Generated_Source\PSoC5/USBFS_pm.c ****         USBFS_ConfigReg();    
 128:.\Generated_Source\PSoC5/USBFS_pm.c ****     }
 129:.\Generated_Source\PSoC5/USBFS_pm.c **** }
 130:.\Generated_Source\PSoC5/USBFS_pm.c **** 
 131:.\Generated_Source\PSoC5/USBFS_pm.c **** 
 132:.\Generated_Source\PSoC5/USBFS_pm.c **** /*******************************************************************************
 133:.\Generated_Source\PSoC5/USBFS_pm.c **** * Function Name: USBFS_Suspend
 134:.\Generated_Source\PSoC5/USBFS_pm.c **** ********************************************************************************
 135:.\Generated_Source\PSoC5/USBFS_pm.c **** *
 136:.\Generated_Source\PSoC5/USBFS_pm.c **** * Summary:
 137:.\Generated_Source\PSoC5/USBFS_pm.c **** *  This function disables the USBFS block and prepares for power donwn mode.
 138:.\Generated_Source\PSoC5/USBFS_pm.c **** *
 139:.\Generated_Source\PSoC5/USBFS_pm.c **** * Parameters:
 140:.\Generated_Source\PSoC5/USBFS_pm.c **** *  None.
 141:.\Generated_Source\PSoC5/USBFS_pm.c **** *
 142:.\Generated_Source\PSoC5/USBFS_pm.c **** * Return:
 143:.\Generated_Source\PSoC5/USBFS_pm.c **** *   None.
 144:.\Generated_Source\PSoC5/USBFS_pm.c **** *
 145:.\Generated_Source\PSoC5/USBFS_pm.c **** * Global variables:
 146:.\Generated_Source\PSoC5/USBFS_pm.c **** *  USBFS_backup.enable:  modified.
 147:.\Generated_Source\PSoC5/USBFS_pm.c **** *
 148:.\Generated_Source\PSoC5/USBFS_pm.c **** * Reentrant:
 149:.\Generated_Source\PSoC5/USBFS_pm.c **** *  No.
 150:.\Generated_Source\PSoC5/USBFS_pm.c **** *
ARM GAS  C:\DOCUME~1\ADMINI~1\LOCALS~1\Temp\ccqF2cmD.s 			page 5


 151:.\Generated_Source\PSoC5/USBFS_pm.c **** *******************************************************************************/
 152:.\Generated_Source\PSoC5/USBFS_pm.c **** void USBFS_Suspend(void) 
 153:.\Generated_Source\PSoC5/USBFS_pm.c **** {
  75              		.loc 1 153 0
  76              		.cfi_startproc
  77              		@ args = 0, pretend = 0, frame = 0
  78              		@ frame_needed = 0, uses_anonymous_args = 0
  79 0000 2DE9F041 		push	{r4, r5, r6, r7, r8, lr}
  80              	.LCFI0:
  81              		.cfi_def_cfa_offset 24
 154:.\Generated_Source\PSoC5/USBFS_pm.c ****     uint8 enableInterrupts;
 155:.\Generated_Source\PSoC5/USBFS_pm.c ****     enableInterrupts = CyEnterCriticalSection();
  82              		.loc 1 155 0
  83              		.cfi_offset 14, -4
  84              		.cfi_offset 8, -8
  85              		.cfi_offset 7, -12
  86              		.cfi_offset 6, -16
  87              		.cfi_offset 5, -20
  88              		.cfi_offset 4, -24
  89 0004 FFF7FEFF 		bl	CyEnterCriticalSection
 156:.\Generated_Source\PSoC5/USBFS_pm.c **** 
 157:.\Generated_Source\PSoC5/USBFS_pm.c ****     if((CY_GET_REG8(USBFS_CR0_PTR) & USBFS_CR0_ENABLE) != 0u)
  90              		.loc 1 157 0
  91 0008 294F     		ldr	r7, .L12
  92              		.loc 1 155 0
  93 000a 8046     		mov	r8, r0
  94              	.LVL0:
  95              		.loc 1 157 0
  96 000c 3B78     		ldrb	r3, [r7, #0]	@ zero_extendqisi2
  97 000e 294D     		ldr	r5, .L12+4
  98 0010 13F0800F 		tst	r3, #128
  99 0014 37D0     		beq	.L8
 158:.\Generated_Source\PSoC5/USBFS_pm.c ****     {   /* USB block is enabled */
 159:.\Generated_Source\PSoC5/USBFS_pm.c ****         USBFS_backup.enableState = 1u;
 100              		.loc 1 159 0
 101 0016 0126     		movs	r6, #1
 160:.\Generated_Source\PSoC5/USBFS_pm.c **** 
 161:.\Generated_Source\PSoC5/USBFS_pm.c ****         #if(USBFS_EP_MM != USBFS__EP_MANUAL)
 162:.\Generated_Source\PSoC5/USBFS_pm.c ****             USBFS_Stop_DMA(USBFS_MAX_EP);     /* Stop all DMAs */
 163:.\Generated_Source\PSoC5/USBFS_pm.c ****         #endif   /* End USBFS_EP_MM != USBFS__EP_MANUAL */
 164:.\Generated_Source\PSoC5/USBFS_pm.c **** 
 165:.\Generated_Source\PSoC5/USBFS_pm.c ****         #if(CY_PSOC5A)
 166:.\Generated_Source\PSoC5/USBFS_pm.c ****             /* Disable USBIO block */
 167:.\Generated_Source\PSoC5/USBFS_pm.c ****             USBFS_PM_AVAIL_CR_REG &= ~USBFS_PM_AVAIL_EN_FSUSBIO;
 168:.\Generated_Source\PSoC5/USBFS_pm.c ****         #endif /* End CY_PSOC5A */
 169:.\Generated_Source\PSoC5/USBFS_pm.c **** 
 170:.\Generated_Source\PSoC5/USBFS_pm.c ****         /* Power Down Sequencing for USBIO for TO4*/
 171:.\Generated_Source\PSoC5/USBFS_pm.c ****         #if(!CY_PSOC5A)
 172:.\Generated_Source\PSoC5/USBFS_pm.c ****             /* Ensure USB transmit enable is low (USB_USBIO_CR0.ten). - Manual Transmission - Disab
 173:.\Generated_Source\PSoC5/USBFS_pm.c ****             USBFS_USBIO_CR0_REG &= ~USBFS_USBIO_CR0_TEN;
 102              		.loc 1 173 0
 103 0018 274B     		ldr	r3, .L12+8
 104              		.loc 1 159 0
 105 001a 2E70     		strb	r6, [r5, #0]
 106              		.loc 1 173 0
 107 001c 1A78     		ldrb	r2, [r3, #0]	@ zero_extendqisi2
 174:.\Generated_Source\PSoC5/USBFS_pm.c ****             CyDelayUs(0);  /*~50ns delay */
ARM GAS  C:\DOCUME~1\ADMINI~1\LOCALS~1\Temp\ccqF2cmD.s 			page 6


 175:.\Generated_Source\PSoC5/USBFS_pm.c **** 
 176:.\Generated_Source\PSoC5/USBFS_pm.c ****             /* Disable the USBIO by asserting PM.USB_CR0.fsusbio_pd_n(Inverted) and pd_pullup_hv(In
 177:.\Generated_Source\PSoC5/USBFS_pm.c ****             USBFS_PM_USB_CR0_REG &= \
 108              		.loc 1 177 0
 109 001e 274C     		ldr	r4, .L12+12
 110              		.loc 1 173 0
 111 0020 02F07F02 		and	r2, r2, #127
 112 0024 1A70     		strb	r2, [r3, #0]
 113              		.loc 1 174 0
 114 0026 0020     		movs	r0, #0
 115 0028 FFF7FEFF 		bl	CyDelayUs
 116              		.loc 1 177 0
 117 002c 2378     		ldrb	r3, [r4, #0]	@ zero_extendqisi2
 178:.\Generated_Source\PSoC5/USBFS_pm.c ****                                     ~(USBFS_PM_USB_CR0_PD_N | USBFS_PM_USB_CR0_PD_PULLUP_N);
 179:.\Generated_Source\PSoC5/USBFS_pm.c ****          #endif /* End !CY_PSOC5A */
 180:.\Generated_Source\PSoC5/USBFS_pm.c **** 
 181:.\Generated_Source\PSoC5/USBFS_pm.c ****         /* Disable the SIE */
 182:.\Generated_Source\PSoC5/USBFS_pm.c ****         USBFS_CR0_REG &= ~USBFS_CR0_ENABLE;
 183:.\Generated_Source\PSoC5/USBFS_pm.c **** 
 184:.\Generated_Source\PSoC5/USBFS_pm.c ****         #if(!CY_PSOC5A)
 185:.\Generated_Source\PSoC5/USBFS_pm.c ****             CyDelayUs(0);  /*~50ns delay */
 118              		.loc 1 185 0
 119 002e 0020     		movs	r0, #0
 120              		.loc 1 177 0
 121 0030 03F0F903 		and	r3, r3, #249
 122 0034 2370     		strb	r3, [r4, #0]
 123              		.loc 1 182 0
 124 0036 3B78     		ldrb	r3, [r7, #0]	@ zero_extendqisi2
 125 0038 03F07F03 		and	r3, r3, #127
 126 003c 3B70     		strb	r3, [r7, #0]
 127              		.loc 1 185 0
 128 003e FFF7FEFF 		bl	CyDelayUs
 186:.\Generated_Source\PSoC5/USBFS_pm.c ****             /* Store mode and Disable VRegulator*/
 187:.\Generated_Source\PSoC5/USBFS_pm.c ****             USBFS_backup.mode = USBFS_CR1_REG & USBFS_CR1_REG_ENABLE;
 129              		.loc 1 187 0
 130 0042 1F4B     		ldr	r3, .L12+16
 188:.\Generated_Source\PSoC5/USBFS_pm.c ****             USBFS_CR1_REG &= ~USBFS_CR1_REG_ENABLE;
 189:.\Generated_Source\PSoC5/USBFS_pm.c **** 
 190:.\Generated_Source\PSoC5/USBFS_pm.c ****             CyDelayUs(1);  /* 0.5 us min delay */
 131              		.loc 1 190 0
 132 0044 3046     		mov	r0, r6
 133              		.loc 1 187 0
 134 0046 1A78     		ldrb	r2, [r3, #0]	@ zero_extendqisi2
 135 0048 3240     		ands	r2, r2, r6
 136 004a 6A70     		strb	r2, [r5, #1]
 137              		.loc 1 188 0
 138 004c 1A78     		ldrb	r2, [r3, #0]	@ zero_extendqisi2
 139 004e 02F0FE02 		and	r2, r2, #254
 140 0052 1A70     		strb	r2, [r3, #0]
 141              		.loc 1 190 0
 142 0054 FFF7FEFF 		bl	CyDelayUs
 191:.\Generated_Source\PSoC5/USBFS_pm.c ****             /* Disable the USBIO reference by setting PM.USB_CR0.fsusbio_ref_en.*/
 192:.\Generated_Source\PSoC5/USBFS_pm.c ****             USBFS_PM_USB_CR0_REG &= ~USBFS_PM_USB_CR0_REF_EN;
 143              		.loc 1 192 0
 144 0058 2378     		ldrb	r3, [r4, #0]	@ zero_extendqisi2
 193:.\Generated_Source\PSoC5/USBFS_pm.c **** 
 194:.\Generated_Source\PSoC5/USBFS_pm.c ****             /* Switch DP and DM terminals to GPIO mode and disconnect 1.5k pullup*/
ARM GAS  C:\DOCUME~1\ADMINI~1\LOCALS~1\Temp\ccqF2cmD.s 			page 7


 195:.\Generated_Source\PSoC5/USBFS_pm.c ****             USBFS_USBIO_CR1_REG |= USBFS_USBIO_CR1_IOMODE;
 196:.\Generated_Source\PSoC5/USBFS_pm.c **** 
 197:.\Generated_Source\PSoC5/USBFS_pm.c ****         #endif /* End !CY_PSOC5A*/
 198:.\Generated_Source\PSoC5/USBFS_pm.c **** 
 199:.\Generated_Source\PSoC5/USBFS_pm.c ****         /* Disable USB in ACT PM */
 200:.\Generated_Source\PSoC5/USBFS_pm.c ****         USBFS_PM_ACT_CFG_REG &= ~USBFS_PM_ACT_EN_FSUSB;
 201:.\Generated_Source\PSoC5/USBFS_pm.c ****         /* Disable USB block for Standby Power Mode */
 202:.\Generated_Source\PSoC5/USBFS_pm.c ****         USBFS_PM_STBY_CFG_REG &= ~USBFS_PM_STBY_EN_FSUSB;
 203:.\Generated_Source\PSoC5/USBFS_pm.c ****         CyDelayUs(1); /* min  0.5us delay required */
 145              		.loc 1 203 0
 146 005a 3046     		mov	r0, r6
 147              		.loc 1 192 0
 148 005c 03F0FE03 		and	r3, r3, #254
 149 0060 2370     		strb	r3, [r4, #0]
 150              		.loc 1 195 0
 151 0062 184B     		ldr	r3, .L12+20
 152 0064 1A78     		ldrb	r2, [r3, #0]	@ zero_extendqisi2
 153 0066 42F02002 		orr	r2, r2, #32
 154 006a 1A70     		strb	r2, [r3, #0]
 155              		.loc 1 200 0
 156 006c 164B     		ldr	r3, .L12+24
 157 006e 1A78     		ldrb	r2, [r3, #0]	@ zero_extendqisi2
 158 0070 02F0FE02 		and	r2, r2, #254
 159 0074 1A70     		strb	r2, [r3, #0]
 160              		.loc 1 202 0
 161 0076 1033     		adds	r3, r3, #16
 162 0078 1A78     		ldrb	r2, [r3, #0]	@ zero_extendqisi2
 163 007a 02F0FE02 		and	r2, r2, #254
 164 007e 1A70     		strb	r2, [r3, #0]
 165              		.loc 1 203 0
 166 0080 FFF7FEFF 		bl	CyDelayUs
 167 0084 01E0     		b	.L9
 168              	.L8:
 204:.\Generated_Source\PSoC5/USBFS_pm.c **** 
 205:.\Generated_Source\PSoC5/USBFS_pm.c ****     }
 206:.\Generated_Source\PSoC5/USBFS_pm.c ****     else
 207:.\Generated_Source\PSoC5/USBFS_pm.c ****     {
 208:.\Generated_Source\PSoC5/USBFS_pm.c ****         USBFS_backup.enableState = 0u;
 169              		.loc 1 208 0
 170 0086 0023     		movs	r3, #0
 171 0088 2B70     		strb	r3, [r5, #0]
 172              	.L9:
 209:.\Generated_Source\PSoC5/USBFS_pm.c ****     }
 210:.\Generated_Source\PSoC5/USBFS_pm.c ****     CyExitCriticalSection(enableInterrupts);
 173              		.loc 1 210 0
 174 008a 4046     		mov	r0, r8
 175 008c FFF7FEFF 		bl	CyExitCriticalSection
 211:.\Generated_Source\PSoC5/USBFS_pm.c **** 
 212:.\Generated_Source\PSoC5/USBFS_pm.c ****     /* Set the DP Interrupt for wake-up from sleep mode. */
 213:.\Generated_Source\PSoC5/USBFS_pm.c ****     #if((USBFS_DP_ISR_REMOVE == 0u) && (!CY_PSOC5A))
 214:.\Generated_Source\PSoC5/USBFS_pm.c ****         CyIntSetVector(USBFS_DP_INTC_VECT_NUM,   USBFS_DP_ISR);
 176              		.loc 1 214 0
 177 0090 0E49     		ldr	r1, .L12+28
 178 0092 0C20     		movs	r0, #12
 179 0094 FFF7FEFF 		bl	CyIntSetVector
 215:.\Generated_Source\PSoC5/USBFS_pm.c ****         CyIntSetPriority(USBFS_DP_INTC_VECT_NUM, USBFS_DP_INTC_PRIOR);
 180              		.loc 1 215 0
ARM GAS  C:\DOCUME~1\ADMINI~1\LOCALS~1\Temp\ccqF2cmD.s 			page 8


 181 0098 0C20     		movs	r0, #12
 182 009a 0621     		movs	r1, #6
 183 009c FFF7FEFF 		bl	CyIntSetPriority
 216:.\Generated_Source\PSoC5/USBFS_pm.c ****         CyIntClearPending(USBFS_DP_INTC_VECT_NUM);
 184              		.loc 1 216 0
 185 00a0 0B4A     		ldr	r2, .L12+32
 186 00a2 4FF48053 		mov	r3, #4096
 187 00a6 1360     		str	r3, [r2, #0]
 217:.\Generated_Source\PSoC5/USBFS_pm.c ****         CyIntEnable(USBFS_DP_INTC_VECT_NUM);
 188              		.loc 1 217 0
 189 00a8 0A4A     		ldr	r2, .L12+36
 190 00aa 1360     		str	r3, [r2, #0]
 218:.\Generated_Source\PSoC5/USBFS_pm.c ****     #endif /* (USBFS_DP_ISR_REMOVE == 0u) && (!CY_PSOC5A) */
 219:.\Generated_Source\PSoC5/USBFS_pm.c **** 
 220:.\Generated_Source\PSoC5/USBFS_pm.c **** }
 191              		.loc 1 220 0
 192 00ac BDE8F081 		pop	{r4, r5, r6, r7, r8, pc}
 193              	.L13:
 194              		.align	2
 195              	.L12:
 196 00b0 08600040 		.word	1073766408
 197 00b4 00000000 		.word	.LANCHOR0
 198 00b8 10600040 		.word	1073766416
 199 00bc 94430040 		.word	1073759124
 200 00c0 09600040 		.word	1073766409
 201 00c4 12600040 		.word	1073766418
 202 00c8 A5430040 		.word	1073759141
 203 00cc 00000000 		.word	USBFS_DP_ISR
 204 00d0 80E200E0 		.word	-536812928
 205 00d4 00E100E0 		.word	-536813312
 206              		.cfi_endproc
 207              	.LFE32:
 208              		.size	USBFS_Suspend, .-USBFS_Suspend
 209              		.section	.text.USBFS_RestoreConfig,"ax",%progbits
 210              		.align	1
 211              		.global	USBFS_RestoreConfig
 212              		.thumb
 213              		.thumb_func
 214              		.type	USBFS_RestoreConfig, %function
 215              	USBFS_RestoreConfig:
 216              	.LFB31:
 217              		.loc 1 124 0
 218              		.cfi_startproc
 219              		@ args = 0, pretend = 0, frame = 0
 220              		@ frame_needed = 0, uses_anonymous_args = 0
 221              		@ link register save eliminated.
 222              		.loc 1 125 0
 223 0000 024B     		ldr	r3, .L17
 224 0002 1B78     		ldrb	r3, [r3, #0]	@ zero_extendqisi2
 225 0004 0BB1     		cbz	r3, .L16
 226              		.loc 1 129 0
 227              		.loc 1 127 0
 228 0006 FFF7FEBF 		b	USBFS_ConfigReg
 229              	.L16:
 230 000a 7047     		bx	lr
 231              	.L18:
 232              		.align	2
ARM GAS  C:\DOCUME~1\ADMINI~1\LOCALS~1\Temp\ccqF2cmD.s 			page 9


 233              	.L17:
 234 000c 00000000 		.word	USBFS_configuration
 235              		.cfi_endproc
 236              	.LFE31:
 237              		.size	USBFS_RestoreConfig, .-USBFS_RestoreConfig
 238              		.section	.text.USBFS_Resume,"ax",%progbits
 239              		.align	1
 240              		.global	USBFS_Resume
 241              		.thumb
 242              		.thumb_func
 243              		.type	USBFS_Resume, %function
 244              	USBFS_Resume:
 245              	.LFB33:
 221:.\Generated_Source\PSoC5/USBFS_pm.c **** 
 222:.\Generated_Source\PSoC5/USBFS_pm.c **** 
 223:.\Generated_Source\PSoC5/USBFS_pm.c **** /*******************************************************************************
 224:.\Generated_Source\PSoC5/USBFS_pm.c **** * Function Name: USBFS_Resume
 225:.\Generated_Source\PSoC5/USBFS_pm.c **** ********************************************************************************
 226:.\Generated_Source\PSoC5/USBFS_pm.c **** *
 227:.\Generated_Source\PSoC5/USBFS_pm.c **** * Summary:
 228:.\Generated_Source\PSoC5/USBFS_pm.c **** *  This function enables the USBFS block after power down mode.
 229:.\Generated_Source\PSoC5/USBFS_pm.c **** *
 230:.\Generated_Source\PSoC5/USBFS_pm.c **** * Parameters:
 231:.\Generated_Source\PSoC5/USBFS_pm.c **** *  None.
 232:.\Generated_Source\PSoC5/USBFS_pm.c **** *
 233:.\Generated_Source\PSoC5/USBFS_pm.c **** * Return:
 234:.\Generated_Source\PSoC5/USBFS_pm.c **** *  None.
 235:.\Generated_Source\PSoC5/USBFS_pm.c **** *
 236:.\Generated_Source\PSoC5/USBFS_pm.c **** * Global variables:
 237:.\Generated_Source\PSoC5/USBFS_pm.c **** *  USBFS_backup - checked.
 238:.\Generated_Source\PSoC5/USBFS_pm.c **** *
 239:.\Generated_Source\PSoC5/USBFS_pm.c **** * Reentrant:
 240:.\Generated_Source\PSoC5/USBFS_pm.c **** *  No.
 241:.\Generated_Source\PSoC5/USBFS_pm.c **** *
 242:.\Generated_Source\PSoC5/USBFS_pm.c **** *******************************************************************************/
 243:.\Generated_Source\PSoC5/USBFS_pm.c **** void USBFS_Resume(void) 
 244:.\Generated_Source\PSoC5/USBFS_pm.c **** {
 246              		.loc 1 244 0
 247              		.cfi_startproc
 248              		@ args = 0, pretend = 0, frame = 0
 249              		@ frame_needed = 0, uses_anonymous_args = 0
 250 0000 70B5     		push	{r4, r5, r6, lr}
 251              	.LCFI1:
 252              		.cfi_def_cfa_offset 16
 245:.\Generated_Source\PSoC5/USBFS_pm.c ****     uint8 enableInterrupts;
 246:.\Generated_Source\PSoC5/USBFS_pm.c ****     enableInterrupts = CyEnterCriticalSection();
 253              		.loc 1 246 0
 254              		.cfi_offset 14, -4
 255              		.cfi_offset 6, -8
 256              		.cfi_offset 5, -12
 257              		.cfi_offset 4, -16
 258 0002 FFF7FEFF 		bl	CyEnterCriticalSection
 247:.\Generated_Source\PSoC5/USBFS_pm.c **** 
 248:.\Generated_Source\PSoC5/USBFS_pm.c ****     if(USBFS_backup.enableState != 0u)
 259              		.loc 1 248 0
 260 0006 244D     		ldr	r5, .L22
 261              		.loc 1 246 0
ARM GAS  C:\DOCUME~1\ADMINI~1\LOCALS~1\Temp\ccqF2cmD.s 			page 10


 262 0008 0646     		mov	r6, r0
 263              	.LVL1:
 264              		.loc 1 248 0
 265 000a 2B78     		ldrb	r3, [r5, #0]	@ zero_extendqisi2
 266 000c 002B     		cmp	r3, #0
 267 000e 3ED0     		beq	.L20
 249:.\Generated_Source\PSoC5/USBFS_pm.c ****     {
 250:.\Generated_Source\PSoC5/USBFS_pm.c ****         #if((USBFS_DP_ISR_REMOVE == 0u) && (!CY_PSOC5A))
 251:.\Generated_Source\PSoC5/USBFS_pm.c ****             CyIntDisable(USBFS_DP_INTC_VECT_NUM);
 268              		.loc 1 251 0
 269 0010 224B     		ldr	r3, .L22+4
 270 0012 4FF48052 		mov	r2, #4096
 271 0016 1A60     		str	r2, [r3, #0]
 252:.\Generated_Source\PSoC5/USBFS_pm.c ****         #endif /* End USBFS_DP_ISR_REMOVE */
 253:.\Generated_Source\PSoC5/USBFS_pm.c **** 
 254:.\Generated_Source\PSoC5/USBFS_pm.c ****         #if(CY_PSOC5A)
 255:.\Generated_Source\PSoC5/USBFS_pm.c ****             /* Enable USBIO block */
 256:.\Generated_Source\PSoC5/USBFS_pm.c ****             USBFS_PM_AVAIL_CR_REG |= USBFS_PM_AVAIL_EN_FSUSBIO;
 257:.\Generated_Source\PSoC5/USBFS_pm.c **** 
 258:.\Generated_Source\PSoC5/USBFS_pm.c ****             /* Bus Reset Length, It has correct default value in ES3 */
 259:.\Generated_Source\PSoC5/USBFS_pm.c ****             USBFS_BUS_RST_CNT_REG = USBFS_BUS_RST_COUNT;
 260:.\Generated_Source\PSoC5/USBFS_pm.c ****         #endif /* End CY_PSOC5A */
 261:.\Generated_Source\PSoC5/USBFS_pm.c **** 
 262:.\Generated_Source\PSoC5/USBFS_pm.c ****         /* Enable USB block */
 263:.\Generated_Source\PSoC5/USBFS_pm.c ****         USBFS_PM_ACT_CFG_REG |= USBFS_PM_ACT_EN_FSUSB;
 272              		.loc 1 263 0
 273 0018 214B     		ldr	r3, .L22+8
 264:.\Generated_Source\PSoC5/USBFS_pm.c ****         /* Enable USB block for Standby Power Mode */
 265:.\Generated_Source\PSoC5/USBFS_pm.c ****         USBFS_PM_STBY_CFG_REG |= USBFS_PM_STBY_EN_FSUSB;
 266:.\Generated_Source\PSoC5/USBFS_pm.c ****         /* Enable core clock */
 267:.\Generated_Source\PSoC5/USBFS_pm.c ****         USBFS_USB_CLK_EN_REG |= USBFS_USB_CLK_ENABLE;
 268:.\Generated_Source\PSoC5/USBFS_pm.c **** 
 269:.\Generated_Source\PSoC5/USBFS_pm.c ****         /* USBIO Wakeup Sequencing for TO4 */
 270:.\Generated_Source\PSoC5/USBFS_pm.c ****         #if (!CY_PSOC5A)
 271:.\Generated_Source\PSoC5/USBFS_pm.c ****             /* Enable the USBIO reference by setting PM.USB_CR0.fsusbio_ref_en.*/
 272:.\Generated_Source\PSoC5/USBFS_pm.c ****             USBFS_PM_USB_CR0_REG |= USBFS_PM_USB_CR0_REF_EN;
 274              		.loc 1 272 0
 275 001a 224C     		ldr	r4, .L22+12
 276              		.loc 1 263 0
 277 001c 1A78     		ldrb	r2, [r3, #0]	@ zero_extendqisi2
 273:.\Generated_Source\PSoC5/USBFS_pm.c ****             /* The reference will be available ~40us after power restored */
 274:.\Generated_Source\PSoC5/USBFS_pm.c ****             CyDelayUs(40);
 278              		.loc 1 274 0
 279 001e 2820     		movs	r0, #40
 280              		.loc 1 263 0
 281 0020 42F00102 		orr	r2, r2, #1
 282 0024 1A70     		strb	r2, [r3, #0]
 283              		.loc 1 265 0
 284 0026 1033     		adds	r3, r3, #16
 285 0028 1A78     		ldrb	r2, [r3, #0]	@ zero_extendqisi2
 286 002a 42F00102 		orr	r2, r2, #1
 287 002e 1A70     		strb	r2, [r3, #0]
 288              		.loc 1 267 0
 289 0030 1D4B     		ldr	r3, .L22+16
 290 0032 1A78     		ldrb	r2, [r3, #0]	@ zero_extendqisi2
 291 0034 42F00102 		orr	r2, r2, #1
 292 0038 1A70     		strb	r2, [r3, #0]
ARM GAS  C:\DOCUME~1\ADMINI~1\LOCALS~1\Temp\ccqF2cmD.s 			page 11


 293              		.loc 1 272 0
 294 003a 2378     		ldrb	r3, [r4, #0]	@ zero_extendqisi2
 295 003c 43F00103 		orr	r3, r3, #1
 296 0040 2370     		strb	r3, [r4, #0]
 297              		.loc 1 274 0
 298 0042 FFF7FEFF 		bl	CyDelayUs
 275:.\Generated_Source\PSoC5/USBFS_pm.c ****             /* Return VRegulator*/
 276:.\Generated_Source\PSoC5/USBFS_pm.c ****             USBFS_CR1_REG |= USBFS_backup.mode;
 299              		.loc 1 276 0
 300 0046 194B     		ldr	r3, .L22+20
 301 0048 6A78     		ldrb	r2, [r5, #1]	@ zero_extendqisi2
 302 004a 1978     		ldrb	r1, [r3, #0]	@ zero_extendqisi2
 277:.\Generated_Source\PSoC5/USBFS_pm.c ****             CyDelayUs(0);  /*~50ns delay */
 303              		.loc 1 277 0
 304 004c 0020     		movs	r0, #0
 305              		.loc 1 276 0
 306 004e 41EA0202 		orr	r2, r1, r2
 307 0052 1A70     		strb	r2, [r3, #0]
 308              		.loc 1 277 0
 309 0054 FFF7FEFF 		bl	CyDelayUs
 278:.\Generated_Source\PSoC5/USBFS_pm.c ****             /* Enable USBIO */
 279:.\Generated_Source\PSoC5/USBFS_pm.c ****             USBFS_PM_USB_CR0_REG |= USBFS_PM_USB_CR0_PD_N;
 310              		.loc 1 279 0
 311 0058 2378     		ldrb	r3, [r4, #0]	@ zero_extendqisi2
 280:.\Generated_Source\PSoC5/USBFS_pm.c ****             CyDelayUs(2);
 312              		.loc 1 280 0
 313 005a 0220     		movs	r0, #2
 314              		.loc 1 279 0
 315 005c 43F00203 		orr	r3, r3, #2
 316 0060 2370     		strb	r3, [r4, #0]
 317              		.loc 1 280 0
 318 0062 FFF7FEFF 		bl	CyDelayUs
 281:.\Generated_Source\PSoC5/USBFS_pm.c ****             /* Set the USBIO pull-up enable */
 282:.\Generated_Source\PSoC5/USBFS_pm.c ****             USBFS_PM_USB_CR0_REG |= USBFS_PM_USB_CR0_PD_PULLUP_N;
 319              		.loc 1 282 0
 320 0066 2378     		ldrb	r3, [r4, #0]	@ zero_extendqisi2
 283:.\Generated_Source\PSoC5/USBFS_pm.c ****         #endif /* End !CY_PSOC5A */
 284:.\Generated_Source\PSoC5/USBFS_pm.c **** 
 285:.\Generated_Source\PSoC5/USBFS_pm.c ****         /* Reinit Arbiter congiguration for DMA transfers */
 286:.\Generated_Source\PSoC5/USBFS_pm.c ****         #if(USBFS_EP_MM != USBFS__EP_MANUAL)
 287:.\Generated_Source\PSoC5/USBFS_pm.c ****             /* usb arb interrupt enable */
 288:.\Generated_Source\PSoC5/USBFS_pm.c ****             USBFS_ARB_INT_EN_REG = USBFS_ARB_INT_MASK;
 289:.\Generated_Source\PSoC5/USBFS_pm.c ****             #if(USBFS_EP_MM == USBFS__EP_DMAMANUAL)
 290:.\Generated_Source\PSoC5/USBFS_pm.c ****                 USBFS_ARB_CFG_REG = USBFS_ARB_CFG_MANUAL_DMA;
 291:.\Generated_Source\PSoC5/USBFS_pm.c ****             #endif   /* End USBFS_EP_MM == USBFS__EP_DMAMANUAL */
 292:.\Generated_Source\PSoC5/USBFS_pm.c ****             #if(USBFS_EP_MM == USBFS__EP_DMAAUTO)
 293:.\Generated_Source\PSoC5/USBFS_pm.c ****                 /*Set cfg cmplt this rises DMA request when the full configuration is done */
 294:.\Generated_Source\PSoC5/USBFS_pm.c ****                 USBFS_ARB_CFG_REG = USBFS_ARB_CFG_AUTO_DMA | USBFS_ARB_CFG_AUTO_MEM;
 295:.\Generated_Source\PSoC5/USBFS_pm.c ****             #endif   /* End USBFS_EP_MM == USBFS__EP_DMAAUTO */
 296:.\Generated_Source\PSoC5/USBFS_pm.c ****         #endif   /* End USBFS_EP_MM != USBFS__EP_MANUAL */
 297:.\Generated_Source\PSoC5/USBFS_pm.c **** 
 298:.\Generated_Source\PSoC5/USBFS_pm.c ****         /* STALL_IN_OUT */
 299:.\Generated_Source\PSoC5/USBFS_pm.c ****         CY_SET_REG8(USBFS_EP0_CR_PTR, USBFS_MODE_STALL_IN_OUT);
 321              		.loc 1 299 0
 322 0068 0322     		movs	r2, #3
 323              		.loc 1 282 0
 324 006a 43F00403 		orr	r3, r3, #4
ARM GAS  C:\DOCUME~1\ADMINI~1\LOCALS~1\Temp\ccqF2cmD.s 			page 12


 325 006e 2370     		strb	r3, [r4, #0]
 326              		.loc 1 299 0
 327 0070 0F4B     		ldr	r3, .L22+24
 300:.\Generated_Source\PSoC5/USBFS_pm.c ****         /* Enable the SIE with a last address */
 301:.\Generated_Source\PSoC5/USBFS_pm.c ****         USBFS_CR0_REG |= USBFS_CR0_ENABLE;
 302:.\Generated_Source\PSoC5/USBFS_pm.c ****         CyDelayCycles(1);
 328              		.loc 1 302 0
 329 0072 0120     		movs	r0, #1
 330              		.loc 1 299 0
 331 0074 1A70     		strb	r2, [r3, #0]
 332              		.loc 1 301 0
 333 0076 203B     		subs	r3, r3, #32
 334 0078 1A78     		ldrb	r2, [r3, #0]	@ zero_extendqisi2
 335 007a 42F08002 		orr	r2, r2, #128
 336 007e 1A70     		strb	r2, [r3, #0]
 337              		.loc 1 302 0
 338 0080 FFF7FEFF 		bl	CyDelayCycles
 303:.\Generated_Source\PSoC5/USBFS_pm.c ****         /* Finally, Enable d+ pullup and select iomode to USB mode*/
 304:.\Generated_Source\PSoC5/USBFS_pm.c ****         CY_SET_REG8(USBFS_USBIO_CR1_PTR, USBFS_USBIO_CR1_USBPUEN);
 339              		.loc 1 304 0
 340 0084 0B4B     		ldr	r3, .L22+28
 341 0086 0422     		movs	r2, #4
 342 0088 1A70     		strb	r2, [r3, #0]
 305:.\Generated_Source\PSoC5/USBFS_pm.c **** 
 306:.\Generated_Source\PSoC5/USBFS_pm.c ****         /* Restore USB register settings */
 307:.\Generated_Source\PSoC5/USBFS_pm.c ****         USBFS_RestoreConfig();
 343              		.loc 1 307 0
 344 008a FFF7FEFF 		bl	USBFS_RestoreConfig
 345              	.L20:
 308:.\Generated_Source\PSoC5/USBFS_pm.c ****     
 309:.\Generated_Source\PSoC5/USBFS_pm.c ****     }
 310:.\Generated_Source\PSoC5/USBFS_pm.c ****     CyExitCriticalSection(enableInterrupts);
 346              		.loc 1 310 0
 347 008e 3046     		mov	r0, r6
 311:.\Generated_Source\PSoC5/USBFS_pm.c **** }
 348              		.loc 1 311 0
 349 0090 BDE87040 		pop	{r4, r5, r6, lr}
 350              		.loc 1 310 0
 351 0094 FFF7FEBF 		b	CyExitCriticalSection
 352              	.L23:
 353              		.align	2
 354              	.L22:
 355 0098 00000000 		.word	.LANCHOR0
 356 009c 80E100E0 		.word	-536813184
 357 00a0 A5430040 		.word	1073759141
 358 00a4 94430040 		.word	1073759124
 359 00a8 9D600040 		.word	1073766557
 360 00ac 09600040 		.word	1073766409
 361 00b0 28600040 		.word	1073766440
 362 00b4 12600040 		.word	1073766418
 363              		.cfi_endproc
 364              	.LFE33:
 365              		.size	USBFS_Resume, .-USBFS_Resume
 366              		.bss
 367              		.align	2
 368              		.set	.LANCHOR0,. + 0
 369              		.type	USBFS_backup, %object
ARM GAS  C:\DOCUME~1\ADMINI~1\LOCALS~1\Temp\ccqF2cmD.s 			page 13


 370              		.size	USBFS_backup, 2
 371              	USBFS_backup:
 372 0000 0000     		.space	2
 373 0002 0000     		.text
 374              	.Letext0: