ARM GAS  C:\DOCUME~1\ADMINI~1\LOCALS~1\Temp\ccmT2vFq.s 			page 1


   1              		.syntax unified
   2              		.cpu cortex-m3
   3              		.fpu softvfp
   4              		.eabi_attribute 20, 1
   5              		.eabi_attribute 21, 1
   6              		.eabi_attribute 23, 3
   7              		.eabi_attribute 24, 1
   8              		.eabi_attribute 25, 1
   9              		.eabi_attribute 26, 1
  10              		.eabi_attribute 30, 4
  11              		.eabi_attribute 18, 4
  12              		.thumb
  13              		.file	"USBUART.c"
  20 0000 C9000000 		.text
  20      02008200 
  20      00000201 
  20      FB0E0D00 
  20      01010101 
  21              	.Ltext0:
  22              		.cfi_sections	.debug_frame
  23              		.section	.text.USBUARTStart,"ax",%progbits
  24              		.align	1
  25              		.global	USBUARTStart
  26              		.thumb
  27              		.thumb_func
  28              		.type	USBUARTStart, %function
  29              	USBUARTStart:
  30              	.LFB31:
  31              		.file 1 ".\\USBUART.c"
   1:.\USBUART.c   **** /*****************************************************************************
   2:.\USBUART.c   **** * File Name: USBUART.c
   3:.\USBUART.c   **** * Version 2.03
   4:.\USBUART.c   **** *
   5:.\USBUART.c   **** * Description:
   6:.\USBUART.c   **** *  This file provides the source code to handle USBUART Bridge functionality
   7:.\USBUART.c   **** *
   8:.\USBUART.c   **** * Owner:
   9:.\USBUART.c   **** *	Sree Harsha Angara, Applications Engineer (sreh@cypress.com)
  10:.\USBUART.c   **** *
  11:.\USBUART.c   **** * Related Document:
  12:.\USBUART.c   **** * 	001-85925 CY8CKIT-042 IROS
  13:.\USBUART.c   **** *
  14:.\USBUART.c   **** * Hardware Dependency:
  15:.\USBUART.c   **** * 	CY8CKIT-042 REV 1 
  16:.\USBUART.c   **** *
  17:.\USBUART.c   **** * Code Tested With:
  18:.\USBUART.c   **** * 	Creator 2.2
  19:.\USBUART.c   **** *	GCC1 4.4.1
  20:.\USBUART.c   **** *	CY8CKIT-042 REV 1
  21:.\USBUART.c   **** * 
  22:.\USBUART.c   **** ******************************************************************************
ARM GAS  C:\DOCUME~1\ADMINI~1\LOCALS~1\Temp\ccmT2vFq.s 			page 2


  23:.\USBUART.c   **** * Copyright (2013), Cypress Semiconductor Corporation.
  24:.\USBUART.c   **** ******************************************************************************
  25:.\USBUART.c   **** * This software is owned by Cypress Semiconductor Corporation (Cypress) and is
  26:.\USBUART.c   **** * protected by and subject to worldwide patent protection (United States and
  27:.\USBUART.c   **** * foreign), United States copyright laws and international treaty provisions.
  28:.\USBUART.c   **** * Cypress hereby grants to licensee a personal, non-exclusive, non-transferable
  29:.\USBUART.c   **** * license to copy, use, modify, create derivative works of, and compile the
  30:.\USBUART.c   **** * Cypress Source Code and derivative works for the sole purpose of creating
  31:.\USBUART.c   **** * custom software in support of licensee product to be used only in conjunction
  32:.\USBUART.c   **** * with a Cypress integrated circuit as specified in the applicable agreement.
  33:.\USBUART.c   **** * Any reproduction, modification, translation, compilation, or representation of
  34:.\USBUART.c   **** * this software except as specified above is prohibited without the express
  35:.\USBUART.c   **** * written permission of Cypress.
  36:.\USBUART.c   **** *
  37:.\USBUART.c   **** * Disclaimer: CYPRESS MAKES NO WARRANTY OF ANY KIND, EXPRESS OR IMPLIED, WITH
  38:.\USBUART.c   **** * REGARD TO THIS MATERIAL, INCLUDING, BUT NOT LIMITED TO, THE IMPLIED
  39:.\USBUART.c   **** * WARRANTIES OF MERCHANTABILITY AND FITNESS FOR A PARTICULAR PURPOSE.
  40:.\USBUART.c   **** * Cypress reserves the right to make changes without further notice to the
  41:.\USBUART.c   **** * materials described herein. Cypress does not assume any liability arising out
  42:.\USBUART.c   **** * of the application or use of any product or circuit described herein. Cypress
  43:.\USBUART.c   **** * does not authorize its products for use as critical components in life-support
  44:.\USBUART.c   **** * systems where a malfunction or failure may reasonably be expected to result in
  45:.\USBUART.c   **** * significant injury to the user. The inclusion of Cypress' product in a life-
  46:.\USBUART.c   **** * support systems application implies that the manufacturer assumes all risk of
  47:.\USBUART.c   **** * such use and in doing so indemnifies Cypress against all charges. Use may be
  48:.\USBUART.c   **** * limited by and subject to the applicable Cypress software license agreement.
  49:.\USBUART.c   **** *****************************************************************************/
  50:.\USBUART.c   **** 
  51:.\USBUART.c   **** #include "kitprog.h"
  52:.\USBUART.c   **** 
  53:.\USBUART.c   **** /*******************************************************************************
  54:.\USBUART.c   **** * Macro Name: CheckLine
  55:.\USBUART.c   **** ********************************************************************************
  56:.\USBUART.c   **** * Summary:
  57:.\USBUART.c   **** * Checks for line change, Reconfigures the UART clock to match host baud rate
  58:.\USBUART.c   **** *******************************************************************************/
  59:.\USBUART.c   **** 
  60:.\USBUART.c   **** #define CheckLine() {																				\
  61:.\USBUART.c   **** 																									\
  62:.\USBUART.c   **** 	uint32 dDTERate;																				\
  63:.\USBUART.c   **** 	uint16 wDivider;																				\
  64:.\USBUART.c   **** 																									\
  65:.\USBUART.c   **** 	if(USBFS_IsLineChanged())																		\
  66:.\USBUART.c   **** 	{																								\
  67:.\USBUART.c   **** 		/* Get Baud Rate */																			\
  68:.\USBUART.c   **** 		dDTERate = USBFS_GetDTERate();  															\
  69:.\USBUART.c   **** 																									\
  70:.\USBUART.c   **** 		/* Check for Baud Rate Upper Limit */														\
  71:.\USBUART.c   **** 		if(dDTERate > 115200)																		\
  72:.\USBUART.c   **** 		{																							\
  73:.\USBUART.c   **** 			dDTERate  = 115200;																		\
  74:.\USBUART.c   **** 		}																							\
  75:.\USBUART.c   **** 																									\
  76:.\USBUART.c   **** 		/* Check for Baud Rate Lower Limit */														\
  77:.\USBUART.c   **** 		if(dDTERate < 1200)																			\
  78:.\USBUART.c   **** 		{																							\
  79:.\USBUART.c   **** 			dDTERate  = 1200;																		\
ARM GAS  C:\DOCUME~1\ADMINI~1\LOCALS~1\Temp\ccmT2vFq.s 			page 3


  80:.\USBUART.c   **** 		}																							\
  81:.\USBUART.c   **** 																									\
  82:.\USBUART.c   **** 		/* Sets the required Clock divider for UART */												\
  83:.\USBUART.c   **** 		switch(dDTERate)																			\
  84:.\USBUART.c   **** 	    {																							\
  85:.\USBUART.c   **** 																									\
  86:.\USBUART.c   **** 			case 115200:																			\
  87:.\USBUART.c   **** 	            wDivider = DIVIDER115200;															\
  88:.\USBUART.c   **** 	            break;																				\
  89:.\USBUART.c   **** 	        case 57600:																				\
  90:.\USBUART.c   **** 	            wDivider = DIVIDER57600;															\
  91:.\USBUART.c   **** 	            break;																				\
  92:.\USBUART.c   **** 	        case 38400:																				\
  93:.\USBUART.c   **** 	            wDivider = DIVIDER38400;															\
  94:.\USBUART.c   **** 	            break;																				\
  95:.\USBUART.c   **** 	        case 19200:																				\
  96:.\USBUART.c   **** 	            wDivider = DIVIDER19200;															\
  97:.\USBUART.c   **** 	            break;																				\
  98:.\USBUART.c   **** 	        case 9600:																				\
  99:.\USBUART.c   **** 	            wDivider = DIVIDER9600;																\
 100:.\USBUART.c   **** 	            break;																				\
 101:.\USBUART.c   **** 	        case 4800:																				\
 102:.\USBUART.c   **** 	            wDivider = DIVIDER4800;																\
 103:.\USBUART.c   **** 	            break;																				\
 104:.\USBUART.c   **** 	        case 2400:																				\
 105:.\USBUART.c   **** 	            wDivider = DIVIDER2400;																\
 106:.\USBUART.c   **** 	            break;																				\
 107:.\USBUART.c   **** 	        case 1200:																				\
 108:.\USBUART.c   **** 	            wDivider = DIVIDER1200;																\
 109:.\USBUART.c   **** 	            break;																				\
 110:.\USBUART.c   **** 	        default: 																				\
 111:.\USBUART.c   **** 	            wDivider = DIVIDER115200;															\
 112:.\USBUART.c   **** 	            break;																				\
 113:.\USBUART.c   **** 	    }																							\
 114:.\USBUART.c   **** 																									\
 115:.\USBUART.c   **** 		/* Stop UART for new Clock */																\
 116:.\USBUART.c   **** 	    UART_Bridge_Stop();   																		\
 117:.\USBUART.c   **** 	    																							\
 118:.\USBUART.c   **** 		/* Set new Clock Frequency */																\
 119:.\USBUART.c   **** 		Clock_UART_SetDivider(wDivider-1);															\
 120:.\USBUART.c   **** 	    																							\
 121:.\USBUART.c   **** 		/* Restart UART */																			\
 122:.\USBUART.c   **** 		UART_Bridge_Start();																		\
 123:.\USBUART.c   **** 		UART_Bridge_ClearRxBuffer();																\
 124:.\USBUART.c   **** 		UART_Bridge_ClearTxBuffer();																\
 125:.\USBUART.c   **** 	}																								\
 126:.\USBUART.c   **** }																									
 127:.\USBUART.c   **** 
 128:.\USBUART.c   **** /*******************************************************************************
 129:.\USBUART.c   **** * Macro Name: USBUARTTransmit
 130:.\USBUART.c   **** ********************************************************************************
 131:.\USBUART.c   **** * Summary:
 132:.\USBUART.c   **** * Checks if USB host has sent data and transfers it to the UART Transmitter 
 133:.\USBUART.c   **** *
 134:.\USBUART.c   **** *******************************************************************************/
 135:.\USBUART.c   **** 
 136:.\USBUART.c   **** #define USBUARTTransmit()   {																		\
ARM GAS  C:\DOCUME~1\ADMINI~1\LOCALS~1\Temp\ccmT2vFq.s 			page 4


 137:.\USBUART.c   **** 																									\
 138:.\USBUART.c   **** 	uint8 size;																						\
 139:.\USBUART.c   **** 	uint8 buffer[64]; 																				\
 140:.\USBUART.c   **** 																									\
 141:.\USBUART.c   **** 	/* Check for USB host packet */																	\
 142:.\USBUART.c   **** 	if(USBFS_GetEPState(UART_OUT_EP))						 										\
 143:.\USBUART.c   **** 	{  																								\
 144:.\USBUART.c   **** 		/* Get size of packet */ 																	\
 145:.\USBUART.c   **** 		size = USBFS_GetEPCount(UART_OUT_EP);										  				\
 146:.\USBUART.c   **** 																									\
 147:.\USBUART.c   **** 		/* Read from USB Buffer */ 																	\
 148:.\USBUART.c   **** 		USBFS_ReadOutEP(UART_OUT_EP,&buffer[0],size);												\
 149:.\USBUART.c   **** 																									\
 150:.\USBUART.c   **** 		/* Send to UART Tx */																		\
 151:.\USBUART.c   **** 		UART_Bridge_PutArray(&buffer[0] , size);								 					\
 152:.\USBUART.c   **** 	}																								\
 153:.\USBUART.c   **** }
 154:.\USBUART.c   **** 
 155:.\USBUART.c   **** 
 156:.\USBUART.c   **** /*******************************************************************************
 157:.\USBUART.c   **** * Macro Name: USBUARTReceive
 158:.\USBUART.c   **** ********************************************************************************
 159:.\USBUART.c   **** * Summary:
 160:.\USBUART.c   **** * Checks if the UART has received data and sends it to the USB host 
 161:.\USBUART.c   **** *******************************************************************************/
 162:.\USBUART.c   **** 
 163:.\USBUART.c   **** #define USBUARTReceive() {																											\
 164:.\USBUART.c   **** 																																	\
 165:.\USBUART.c   **** 	uint8 wCount; 																													\
 166:.\USBUART.c   **** 	uint8 wRxBufferRead;																											\
 167:.\USBUART.c   **** 	uint8 bIndex;																													\
 168:.\USBUART.c   **** 																																	\
 169:.\USBUART.c   **** 	if(UART_Bridge_ReadRxStatus() == UART_Bridge_RX_STS_SOFT_BUFF_OVER)																\
 170:.\USBUART.c   **** 	{																																\
 171:.\USBUART.c   **** 		UART_Bridge_ClearRxBuffer();																								\
 172:.\USBUART.c   **** 	}																																\
 173:.\USBUART.c   **** 																																	\
 174:.\USBUART.c   **** 	/* Get the Received UART data size */																							\
 175:.\USBUART.c   **** 	wCount = UART_Bridge_GetRxBufferSize();                  		 																\
 176:.\USBUART.c   **** 																																	\
 177:.\USBUART.c   **** 	/* Check if Rx has data and USB has finished sending old data */																\
 178:.\USBUART.c   **** 	if( (wCount != 0) && 																											\
 179:.\USBUART.c   **** 	( USBFS_bGetEPState(UART_IN_EP) == USBFS_IN_BUFFER_EMPTY ))																		\
 180:.\USBUART.c   **** 	{																																\
 181:.\USBUART.c   **** 	    /* Limit data size to USB EP Packet Size */																					\
 182:.\USBUART.c   **** 		if( wCount > USBINPACKETSIZE )																								\
 183:.\USBUART.c   **** 	    {																															\
 184:.\USBUART.c   **** 	        wCount = USBINPACKETSIZE;                       																		\
 185:.\USBUART.c   **** 	    }																															\
 186:.\USBUART.c   **** 	    																															\
 187:.\USBUART.c   **** 	    /* Read current Rx Buffer pointer to a temporary pointer */ 																\
 188:.\USBUART.c   **** 		wRxBufferRead = UART_Bridge_rxBufferRead;																					\
 189:.\USBUART.c   **** 	    																															\
 190:.\USBUART.c   **** 	    for( bIndex = 0; bIndex < wCount; bIndex++, wRxBufferRead++)																\
 191:.\USBUART.c   **** 	    {																															\
 192:.\USBUART.c   **** 	        /* Reset temporary Buffer pointer on overflow */ 																		\
 193:.\USBUART.c   **** 	        if(wRxBufferRead >= UART_Bridge_RXBUFFERSIZE)																			\
ARM GAS  C:\DOCUME~1\ADMINI~1\LOCALS~1\Temp\ccmT2vFq.s 			page 5


 194:.\USBUART.c   **** 	        {																														\
 195:.\USBUART.c   **** 	            wRxBufferRead = 0u;																									\
 196:.\USBUART.c   **** 	        }																														\
 197:.\USBUART.c   **** 			/*Load from UART RX Buffer to USB */ 																					\
 198:.\USBUART.c   **** 	        CY_SET_REG8((uint8 *)USBUART_INEP_WRITE_DATA_PTR,  UART_Bridge_rxBuffer[wRxBufferRead]); 	
 199:.\USBUART.c   **** 	    }																															\
 200:.\USBUART.c   **** 	  																																\
 201:.\USBUART.c   **** 		/* Send out data */																											\
 202:.\USBUART.c   **** 	    TransmittoUSBHost();                  																						\
 203:.\USBUART.c   **** 																																	\
 204:.\USBUART.c   **** 		/* Load new Rx Buffer Pointer */																							\
 205:.\USBUART.c   **** 	    UART_Bridge_rxBufferRead = wRxBufferRead;																					\
 206:.\USBUART.c   **** 		UART_Bridge_rxBufferLoopDetect = 0;																							\
 207:.\USBUART.c   **** 																																	\
 208:.\USBUART.c   **** 	}																																\
 209:.\USBUART.c   **** }
 210:.\USBUART.c   **** 
 211:.\USBUART.c   **** 
 212:.\USBUART.c   **** 
 213:.\USBUART.c   **** /*******************************************************************************
 214:.\USBUART.c   **** * Macro Name: TransmittoUSBHost
 215:.\USBUART.c   **** ********************************************************************************
 216:.\USBUART.c   **** * Summary:
 217:.\USBUART.c   **** * Sets registers to transmit from USB INEP Buffer
 218:.\USBUART.c   **** *
 219:.\USBUART.c   **** *******************************************************************************/
 220:.\USBUART.c   **** 
 221:.\USBUART.c   **** #define TransmittoUSBHost() {																		\
 222:.\USBUART.c   ****     																								\
 223:.\USBUART.c   **** 	/* Write WAx */ 																				\
 224:.\USBUART.c   ****     CY_SET_REG8(USBUART_INEP_WRITE_PTR,     USBFS_EP[UART_IN_EP].buffOffset & 0xFFu);				\
 225:.\USBUART.c   ****     CY_SET_REG8(USBUART_INEP_WRITE_MSB_PTR, (USBFS_EP[UART_IN_EP].buffOffset >> 8u));				\
 226:.\USBUART.c   ****     																								\
 227:.\USBUART.c   **** 	/* Set the count and data toggle */																\
 228:.\USBUART.c   ****     CY_SET_REG8(USBUART_INEP_CNT0_PTR, (wCount >> 8u) | (USBFS_EP[UART_IN_EP].epToggle)); 			\
 229:.\USBUART.c   ****     CY_SET_REG8(USBUART_INEP_CNT1_PTR,  wCount & 0xFFu); 											\
 230:.\USBUART.c   ****     																								\
 231:.\USBUART.c   **** 	/* Write the RAx */ 																			\
 232:.\USBUART.c   ****     CY_SET_REG8(USBUART_INEP_READ_PTR,     USBFS_EP[UART_IN_EP].buffOffset & 0xFFu); 				\
 233:.\USBUART.c   ****     CY_SET_REG8(USBUART_INEP_READ_MSB_PTR, (USBFS_EP[UART_IN_EP].buffOffset >> 8u)); 				\
 234:.\USBUART.c   **** 																									\
 235:.\USBUART.c   **** 	USBFS_EP[USBFS_EP6].apiEpState = USBFS_NO_EVENT_PENDING; 										\
 236:.\USBUART.c   ****     																								\
 237:.\USBUART.c   **** 	/* Write the Mode register */ 																	\
 238:.\USBUART.c   ****     CY_SET_REG8(USBUART_INEP_MODE_REG_PTR, USBFS_EP[UART_IN_EP].epMode); 							\
 239:.\USBUART.c   **** }
 240:.\USBUART.c   **** 
 241:.\USBUART.c   **** 
 242:.\USBUART.c   **** /*******************************************************************************
 243:.\USBUART.c   **** * Function Name: UARTBridgeComm()
 244:.\USBUART.c   **** ********************************************************************************
 245:.\USBUART.c   **** * Summary:
 246:.\USBUART.c   **** * This function handles the USB-UART bridge interface.
 247:.\USBUART.c   **** * It handles,
 248:.\USBUART.c   **** * a) Selection of UART clock based on host baud rate
 249:.\USBUART.c   **** * b) Transmit host packet to UART TX
 250:.\USBUART.c   **** * c) Transmit UART RX packet to host
ARM GAS  C:\DOCUME~1\ADMINI~1\LOCALS~1\Temp\ccmT2vFq.s 			page 6


 251:.\USBUART.c   **** *
 252:.\USBUART.c   **** * Parameters:
 253:.\USBUART.c   **** *  void
 254:.\USBUART.c   **** *
 255:.\USBUART.c   **** * Return:
 256:.\USBUART.c   **** *  void
 257:.\USBUART.c   **** *
 258:.\USBUART.c   **** *******************************************************************************/
 259:.\USBUART.c   **** 
 260:.\USBUART.c   **** void UARTBridgeComm (void)
 261:.\USBUART.c   **** {
 262:.\USBUART.c   **** 	/* Check for Line configuration change, Reconfigure UART based on host parameters */
 263:.\USBUART.c   **** 	CheckLine();
 264:.\USBUART.c   **** 	
 265:.\USBUART.c   **** 	/* USB to UART Transmit */
 266:.\USBUART.c   **** 	USBUARTTransmit();
 267:.\USBUART.c   **** 	
 268:.\USBUART.c   ****     /* UART to USB Receive */
 269:.\USBUART.c   **** 	USBUARTReceive();
 270:.\USBUART.c   **** 
 271:.\USBUART.c   **** 	return;
 272:.\USBUART.c   **** 
 273:.\USBUART.c   **** }
 274:.\USBUART.c   **** 
 275:.\USBUART.c   **** 
 276:.\USBUART.c   **** /*******************************************************************************
 277:.\USBUART.c   **** * Function Name: USBUARTInit()
 278:.\USBUART.c   **** ********************************************************************************
 279:.\USBUART.c   **** * Summary:
 280:.\USBUART.c   **** * Starts the UART, sets Tx Pin to HiZ to save power during enumeration
 281:.\USBUART.c   **** *
 282:.\USBUART.c   **** * Parameters:
 283:.\USBUART.c   **** *  void
 284:.\USBUART.c   **** *
 285:.\USBUART.c   **** * Return:
 286:.\USBUART.c   **** *  void
 287:.\USBUART.c   **** *
 288:.\USBUART.c   **** *******************************************************************************/
 289:.\USBUART.c   **** 
 290:.\USBUART.c   **** void USBUARTInit (void)
 291:.\USBUART.c   **** {
 292:.\USBUART.c   **** 
 293:.\USBUART.c   **** 	UART_Bridge_Start();
 294:.\USBUART.c   **** 	Pin_UART_Tx_SetDriveMode(Pin_UART_Tx_DM_DIG_HIZ);
 295:.\USBUART.c   **** 
 296:.\USBUART.c   **** }
 297:.\USBUART.c   **** 
 298:.\USBUART.c   **** /*******************************************************************************
 299:.\USBUART.c   **** * Function Name: USBUARTStart()
 300:.\USBUART.c   **** ********************************************************************************
 301:.\USBUART.c   **** * Summary:
 302:.\USBUART.c   **** * Initializes CDC Interface, Sets Tx Pin to Strong Drive
 303:.\USBUART.c   **** *
 304:.\USBUART.c   **** * Parameters:
 305:.\USBUART.c   **** *  void
 306:.\USBUART.c   **** *
 307:.\USBUART.c   **** * Return:
ARM GAS  C:\DOCUME~1\ADMINI~1\LOCALS~1\Temp\ccmT2vFq.s 			page 7


 308:.\USBUART.c   **** *  void
 309:.\USBUART.c   **** *
 310:.\USBUART.c   **** *******************************************************************************/
 311:.\USBUART.c   **** 
 312:.\USBUART.c   **** void USBUARTStart (void)
 313:.\USBUART.c   **** {
  32              		.loc 1 313 0
  33              		.cfi_startproc
  34              		@ args = 0, pretend = 0, frame = 0
  35              		@ frame_needed = 0, uses_anonymous_args = 0
  36 0000 10B5     		push	{r4, lr}
  37              	.LCFI0:
  38              		.cfi_def_cfa_offset 8
 314:.\USBUART.c   **** 	/* Initialize CDC Interface for USB-UART Bridge */
 315:.\USBUART.c   **** 	USBFS_CDC_Init();
  39              		.loc 1 315 0
  40              		.cfi_offset 14, -4
  41              		.cfi_offset 4, -8
  42 0002 FFF7FEFF 		bl	USBFS_CDC_Init
 316:.\USBUART.c   **** 	Pin_UART_Tx_SetDriveMode(Pin_UART_Tx_DM_STRONG);
  43              		.loc 1 316 0
  44 0006 0C20     		movs	r0, #12
 317:.\USBUART.c   **** 
 318:.\USBUART.c   **** }
  45              		.loc 1 318 0
  46 0008 BDE81040 		pop	{r4, lr}
  47              		.loc 1 316 0
  48 000c FFF7FEBF 		b	Pin_UART_Tx_SetDriveMode
  49              		.cfi_endproc
  50              	.LFE31:
  51              		.size	USBUARTStart, .-USBUARTStart
  52              		.section	.text.USBUARTInit,"ax",%progbits
  53              		.align	1
  54              		.global	USBUARTInit
  55              		.thumb
  56              		.thumb_func
  57              		.type	USBUARTInit, %function
  58              	USBUARTInit:
  59              	.LFB30:
  60              		.loc 1 291 0
  61              		.cfi_startproc
  62              		@ args = 0, pretend = 0, frame = 0
  63              		@ frame_needed = 0, uses_anonymous_args = 0
  64 0000 10B5     		push	{r4, lr}
  65              	.LCFI1:
  66              		.cfi_def_cfa_offset 8
  67              		.loc 1 293 0
  68              		.cfi_offset 14, -4
  69              		.cfi_offset 4, -8
  70 0002 FFF7FEFF 		bl	UART_Bridge_Start
  71              		.loc 1 294 0
  72 0006 0220     		movs	r0, #2
  73              		.loc 1 296 0
  74 0008 BDE81040 		pop	{r4, lr}
  75              		.loc 1 294 0
  76 000c FFF7FEBF 		b	Pin_UART_Tx_SetDriveMode
  77              		.cfi_endproc
ARM GAS  C:\DOCUME~1\ADMINI~1\LOCALS~1\Temp\ccmT2vFq.s 			page 8


  78              	.LFE30:
  79              		.size	USBUARTInit, .-USBUARTInit
  80              		.section	.text.UARTBridgeComm,"ax",%progbits
  81              		.align	1
  82              		.global	UARTBridgeComm
  83              		.thumb
  84              		.thumb_func
  85              		.type	UARTBridgeComm, %function
  86              	UARTBridgeComm:
  87              	.LFB29:
  88              		.loc 1 261 0
  89              		.cfi_startproc
  90              		@ args = 0, pretend = 0, frame = 64
  91              		@ frame_needed = 0, uses_anonymous_args = 0
  92 0000 30B5     		push	{r4, r5, lr}
  93              	.LCFI2:
  94              		.cfi_def_cfa_offset 12
  95 0002 91B0     		sub	sp, sp, #68
  96              	.LCFI3:
  97              		.cfi_def_cfa_offset 80
  98              	.LBB2:
  99              		.loc 1 263 0
 100              		.cfi_offset 14, -4
 101              		.cfi_offset 5, -8
 102              		.cfi_offset 4, -12
 103 0004 FFF7FEFF 		bl	USBFS_IsLineChanged
 104 0008 0028     		cmp	r0, #0
 105 000a 3FD0     		beq	.L6
 106 000c FFF7FEFF 		bl	USBFS_GetDTERate
 107 0010 B0F5E13F 		cmp	r0, #115200
 108              	.LVL0:
 109 0014 1CD8     		bhi	.L7
 110 0016 B0F5966F 		cmp	r0, #1200
 111 001a 28D3     		bcc	.L8
 112 001c B0F5165F 		cmp	r0, #9600
 113 0020 1CD0     		beq	.L11
 114 0022 09D8     		bhi	.L15
 115 0024 B0F5166F 		cmp	r0, #2400
 116 0028 1ED0     		beq	.L9
 117 002a B0F5965F 		cmp	r0, #4800
 118 002e 18D0     		beq	.L10
 119 0030 B0F5966F 		cmp	r0, #1200
 120 0034 0CD1     		bne	.L7
 121 0036 1AE0     		b	.L8
 122              	.L15:
 123 0038 B0F5164F 		cmp	r0, #38400
 124 003c 0AD0     		beq	.L13
 125 003e B0F5614F 		cmp	r0, #57600
 126 0042 03D0     		beq	.L14
 127 0044 B0F5964F 		cmp	r0, #19200
 128 0048 02D1     		bne	.L7
 129 004a 05E0     		b	.L25
 130              	.L14:
 131 004c 3424     		movs	r4, #52
 132              	.LVL1:
 133 004e 10E0     		b	.L16
 134              	.LVL2:
ARM GAS  C:\DOCUME~1\ADMINI~1\LOCALS~1\Temp\ccmT2vFq.s 			page 9


 135              	.L7:
 136 0050 1A24     		movs	r4, #26
 137              	.LVL3:
 138 0052 0EE0     		b	.L16
 139              	.LVL4:
 140              	.L13:
 141 0054 4E24     		movs	r4, #78
 142              	.LVL5:
 143 0056 0CE0     		b	.L16
 144              	.LVL6:
 145              	.L25:
 146 0058 9C24     		movs	r4, #156
 147              	.LVL7:
 148 005a 0AE0     		b	.L16
 149              	.LVL8:
 150              	.L11:
 151 005c 4FF49C74 		mov	r4, #312
 152              	.LVL9:
 153 0060 07E0     		b	.L16
 154              	.LVL10:
 155              	.L10:
 156 0062 40F27124 		movw	r4, #625
 157              	.LVL11:
 158 0066 04E0     		b	.L16
 159              	.LVL12:
 160              	.L9:
 161 0068 40F2E244 		movw	r4, #1250
 162              	.LVL13:
 163 006c 01E0     		b	.L16
 164              	.LVL14:
 165              	.L8:
 166 006e 40F6C414 		movw	r4, #2500
 167              	.LVL15:
 168              	.L16:
 169 0072 FFF7FEFF 		bl	UART_Bridge_Stop
 170              	.LVL16:
 171 0076 601E     		subs	r0, r4, #1
 172 0078 80B2     		uxth	r0, r0
 173 007a 0121     		movs	r1, #1
 174 007c FFF7FEFF 		bl	Clock_UART_SetDividerRegister
 175 0080 FFF7FEFF 		bl	UART_Bridge_Start
 176 0084 FFF7FEFF 		bl	UART_Bridge_ClearRxBuffer
 177 0088 FFF7FEFF 		bl	UART_Bridge_ClearTxBuffer
 178              	.L6:
 179              	.LBE2:
 180              	.LBB3:
 181              		.loc 1 266 0
 182 008c 0720     		movs	r0, #7
 183 008e FFF7FEFF 		bl	USBFS_GetEPState
 184 0092 68B1     		cbz	r0, .L17
 185 0094 0720     		movs	r0, #7
 186 0096 FFF7FEFF 		bl	USBFS_GetEPCount
 187 009a C4B2     		uxtb	r4, r0
 188              	.LVL17:
 189 009c 6946     		mov	r1, sp
 190 009e 0720     		movs	r0, #7
 191 00a0 2246     		mov	r2, r4
ARM GAS  C:\DOCUME~1\ADMINI~1\LOCALS~1\Temp\ccmT2vFq.s 			page 10


 192 00a2 FFF7FEFF 		bl	USBFS_ReadOutEP
 193 00a6 6846     		mov	r0, sp
 194 00a8 2146     		mov	r1, r4
 195 00aa 6D46     		mov	r5, sp
 196 00ac FFF7FEFF 		bl	UART_Bridge_PutArray
 197              	.LVL18:
 198              	.L17:
 199              	.LBE3:
 200              	.LBB4:
 201              		.loc 1 269 0
 202 00b0 FFF7FEFF 		bl	UART_Bridge_ReadRxStatus
 203 00b4 8028     		cmp	r0, #128
 204 00b6 01D1     		bne	.L18
 205 00b8 FFF7FEFF 		bl	UART_Bridge_ClearRxBuffer
 206              	.L18:
 207 00bc FFF7FEFF 		bl	UART_Bridge_GetRxBufferSize
 208 00c0 0446     		mov	r4, r0
 209              	.LVL19:
 210 00c2 0028     		cmp	r0, #0
 211 00c4 40D0     		beq	.L22
 212 00c6 0620     		movs	r0, #6
 213 00c8 FFF7FEFF 		bl	USBFS_GetEPState
 214 00cc 0128     		cmp	r0, #1
 215 00ce 3BD1     		bne	.L22
 216 00d0 1E4B     		ldr	r3, .L26
 217 00d2 402C     		cmp	r4, #64
 218 00d4 28BF     		it	cs
 219 00d6 4024     		movcs	r4, #64
 220 00d8 1B78     		ldrb	r3, [r3, #0]	@ zero_extendqisi2
 221 00da E4B2     		uxtb	r4, r4
 222              	.LVL20:
 223 00dc 0022     		movs	r2, #0
 224              	.LVL21:
 225              	.L21:
 226 00de 59B2     		sxtb	r1, r3
 227              	.LVL22:
 228 00e0 23EAE173 		bic	r3, r3, r1, asr #31
 229              	.LVL23:
 230 00e4 1A49     		ldr	r1, .L26+4
 231 00e6 0132     		adds	r2, r2, #1
 232              	.LVL24:
 233 00e8 C85C     		ldrb	r0, [r1, r3]	@ zero_extendqisi2
 234 00ea D2B2     		uxtb	r2, r2
 235              	.LVL25:
 236 00ec 1949     		ldr	r1, .L26+8
 237 00ee 0133     		adds	r3, r3, #1
 238              	.LVL26:
 239 00f0 A242     		cmp	r2, r4
 240 00f2 0870     		strb	r0, [r1, #0]
 241 00f4 DBB2     		uxtb	r3, r3
 242              	.LVL27:
 243 00f6 F2D3     		bcc	.L21
 244 00f8 174A     		ldr	r2, .L26+12
 245              	.LVL28:
 246 00fa 0439     		subs	r1, r1, #4
 247 00fc B2F84E00 		ldrh	r0, [r2, #78]
 248 0100 C0B2     		uxtb	r0, r0
ARM GAS  C:\DOCUME~1\ADMINI~1\LOCALS~1\Temp\ccmT2vFq.s 			page 11


 249 0102 0870     		strb	r0, [r1, #0]
 250 0104 B2F84E00 		ldrh	r0, [r2, #78]
 251 0108 0131     		adds	r1, r1, #1
 252 010a 80B2     		uxth	r0, r0
 253 010c 000A     		lsrs	r0, r0, #8
 254 010e 0870     		strb	r0, [r1, #0]
 255 0110 92F84B00 		ldrb	r0, [r2, #75]	@ zero_extendqisi2
 256 0114 7939     		subs	r1, r1, #121
 257 0116 0870     		strb	r0, [r1, #0]
 258 0118 0131     		adds	r1, r1, #1
 259 011a 0C70     		strb	r4, [r1, #0]
 260 011c B2F84E00 		ldrh	r0, [r2, #78]
 261 0120 7931     		adds	r1, r1, #121
 262 0122 C0B2     		uxtb	r0, r0
 263 0124 0870     		strb	r0, [r1, #0]
 264 0126 B2F84E00 		ldrh	r0, [r2, #78]
 265 012a 0131     		adds	r1, r1, #1
 266 012c 80B2     		uxth	r0, r0
 267 012e 000A     		lsrs	r0, r0, #8
 268 0130 0870     		strb	r0, [r1, #0]
 269 0132 0021     		movs	r1, #0
 270 0134 82F84910 		strb	r1, [r2, #73]
 271 0138 92F84D00 		ldrb	r0, [r2, #77]	@ zero_extendqisi2
 272 013c 074A     		ldr	r2, .L26+16
 273 013e 1070     		strb	r0, [r2, #0]
 274 0140 024A     		ldr	r2, .L26
 275 0142 1370     		strb	r3, [r2, #0]
 276 0144 064B     		ldr	r3, .L26+20
 277              	.LVL29:
 278 0146 1970     		strb	r1, [r3, #0]
 279              	.L22:
 280              	.LBE4:
 281              		.loc 1 273 0
 282 0148 11B0     		add	sp, sp, #68
 283 014a 30BD     		pop	{r4, r5, pc}
 284              	.L27:
 285              		.align	2
 286              	.L26:
 287 014c 00000000 		.word	UART_Bridge_rxBufferRead
 288 0150 00000000 		.word	UART_Bridge_rxBuffer
 289 0154 D8600040 		.word	1073766616
 290 0158 00000000 		.word	USBFS_EP
 291 015c 5E600040 		.word	1073766494
 292 0160 00000000 		.word	UART_Bridge_rxBufferLoopDetect
 293              		.cfi_endproc
 294              	.LFE29:
 295              		.size	UARTBridgeComm, .-UARTBridgeComm
 296              		.text
 297              	.Letext0: