ARM GAS  C:\DOCUME~1\ADMINI~1\LOCALS~1\Temp\cc02lNry.s 			page 1


   1              		.syntax unified
   2              		.cpu cortex-m3
   3              		.fpu softvfp
   4              		.eabi_attribute 20, 1
   5              		.eabi_attribute 21, 1
   6              		.eabi_attribute 23, 3
   7              		.eabi_attribute 24, 1
   8              		.eabi_attribute 25, 1
   9              		.eabi_attribute 26, 1
  10              		.eabi_attribute 30, 4
  11              		.eabi_attribute 18, 4
  12              		.thumb
  13              		.file	"version.c"
  20 0000 C8000000 		.text
  20      02005600 
  20      00000201 
  20      FB0E0D00 
  20      01010101 
  21              	.Ltext0:
  22              		.cfi_sections	.debug_frame
  23              		.section	.text.GetHWVersion,"ax",%progbits
  24              		.align	1
  25              		.global	GetHWVersion
  26              		.thumb
  27              		.thumb_func
  28              		.type	GetHWVersion, %function
  29              	GetHWVersion:
  30              	.LFB30:
  31              		.file 1 ".\\version.c"
   1:.\version.c   **** /*****************************************************************************
   2:.\version.c   **** * File Name: version.c
   3:.\version.c   **** * Version 2.03
   4:.\version.c   **** *
   5:.\version.c   **** * Description:
   6:.\version.c   **** *  This file provides the source code to handle version information.
   7:.\version.c   **** *
   8:.\version.c   **** * Owner:
   9:.\version.c   **** *	Ranjith M, Applications Engineer (rnjt@cypress.com)
  10:.\version.c   **** *
  11:.\version.c   **** * Related Document:
  12:.\version.c   **** * 	001-85925 - CY8CKIT-042 PSoC 4 Pioneer Kit IROS
  13:.\version.c   **** *
  14:.\version.c   **** * Hardware Dependency:
  15:.\version.c   **** * 	CY8CKIT-042 (KitProg) 
  16:.\version.c   **** *
  17:.\version.c   **** * Code Tested With:
  18:.\version.c   **** * 	Creator 2.2
  19:.\version.c   **** *	GCC1 4.4.1
  20:.\version.c   **** *	CY8CKIT-042 Rev 1
  21:.\version.c   **** *
  22:.\version.c   **** ******************************************************************************
ARM GAS  C:\DOCUME~1\ADMINI~1\LOCALS~1\Temp\cc02lNry.s 			page 2


  23:.\version.c   **** * Copyright (2013), Cypress Semiconductor Corporation.
  24:.\version.c   **** ******************************************************************************
  25:.\version.c   **** * This software is owned by Cypress Semiconductor Corporation (Cypress) and is
  26:.\version.c   **** * protected by and subject to worldwide patent protection (United States and
  27:.\version.c   **** * foreign), United States copyright laws and international treaty provisions.
  28:.\version.c   **** * Cypress hereby grants to licensee a personal, non-exclusive, non-transferable
  29:.\version.c   **** * license to copy, use, modify, create derivative works of, and compile the
  30:.\version.c   **** * Cypress Source Code and derivative works for the sole purpose of creating
  31:.\version.c   **** * custom software in support of licensee product to be used only in conjunction
  32:.\version.c   **** * with a Cypress integrated circuit as specified in the applicable agreement.
  33:.\version.c   **** * Any reproduction, modification, translation, compilation, or representation of
  34:.\version.c   **** * this software except as specified above is prohibited without the express
  35:.\version.c   **** * written permission of Cypress.
  36:.\version.c   **** *
  37:.\version.c   **** * Disclaimer: CYPRESS MAKES NO WARRANTY OF ANY KIND, EXPRESS OR IMPLIED, WITH
  38:.\version.c   **** * REGARD TO THIS MATERIAL, INCLUDING, BUT NOT LIMITED TO, THE IMPLIED
  39:.\version.c   **** * WARRANTIES OF MERCHANTABILITY AND FITNESS FOR A PARTICULAR PURPOSE.
  40:.\version.c   **** * Cypress reserves the right to make changes without further notice to the
  41:.\version.c   **** * materials described herein. Cypress does not assume any liability arising out
  42:.\version.c   **** * of the application or use of any product or circuit described herein. Cypress
  43:.\version.c   **** * does not authorize its products for use as critical components in life-support
  44:.\version.c   **** * systems where a malfunction or failure may reasonably be expected to result in
  45:.\version.c   **** * significant injury to the user. The inclusion of Cypress' product in a life-
  46:.\version.c   **** * support systems application implies that the manufacturer assumes all risk of
  47:.\version.c   **** * such use and in doing so indemnifies Cypress against all charges. Use may be
  48:.\version.c   **** * limited by and subject to the applicable Cypress software license agreement.
  49:.\version.c   **** *****************************************************************************/
  50:.\version.c   **** 
  51:.\version.c   **** #include "kitprog.h"
  52:.\version.c   **** 
  53:.\version.c   **** /*****************************************************************************
  54:.\version.c   **** * Local Function Prototypes
  55:.\version.c   **** *****************************************************************************/
  56:.\version.c   **** static uint8 CheckHWVerPerPin(uint8 bValuePullup, uint8 bValuePullDwn);
  57:.\version.c   **** 
  58:.\version.c   **** /*****************************************************************************
  59:.\version.c   **** * Global Variable Declarations
  60:.\version.c   **** *****************************************************************************/
  61:.\version.c   **** uint8 kitProgHWVersion = 0;
  62:.\version.c   **** /*****************************************************************************
  63:.\version.c   **** * Local Global Variable Declarations
  64:.\version.c   **** *****************************************************************************/
  65:.\version.c   **** 
  66:.\version.c   **** volatile struct{
  67:.\version.c   ****     uint8 signature[16]; 
  68:.\version.c   ****     uint8 verMajor;
  69:.\version.c   ****     uint8 verMinor;
  70:.\version.c   **** }version = 
  71:.\version.c   **** {
  72:.\version.c   **** 	/* Signature retained due to compatibility requirements with the programmer. */
  73:.\version.c   ****     "Cypress-TTBridge", 
  74:.\version.c   ****     VER_MAJOR, 
  75:.\version.c   ****     VER_MINOR,
  76:.\version.c   **** };
  77:.\version.c   **** 
  78:.\version.c   **** 
  79:.\version.c   **** /*******************************************************************************
ARM GAS  C:\DOCUME~1\ADMINI~1\LOCALS~1\Temp\cc02lNry.s 			page 3


  80:.\version.c   **** * The Hardware verison pins are either connected to the ground or left floating.
  81:.\version.c   **** * There are 6 hardware revision pins, P2[6:1]. A floating pin is equivalent to a 0
  82:.\version.c   **** * and a grounded pin equivalent to 1 in version calculcation. So, if all pins 
  83:.\version.c   **** * are floating, hardware revision is 000000b (=0x00). The number of versions can
  84:.\version.c   **** * thus go upto 111111b (=0x3F).
  85:.\version.c   **** * ------------------------------------------------------------------------------
  86:.\version.c   **** 
  87:.\version.c   **** ********************************************************************************/
  88:.\version.c   **** 
  89:.\version.c   **** /*******************************************************************************
  90:.\version.c   **** * Function Name: CheckHWVerPerPin()
  91:.\version.c   **** ********************************************************************************
  92:.\version.c   **** * Summary:
  93:.\version.c   **** * Checks whether the pins are floating or grounded.
  94:.\version.c   **** *
  95:.\version.c   **** * Parameters:
  96:.\version.c   **** *  void
  97:.\version.c   **** *
  98:.\version.c   **** * Return:
  99:.\version.c   **** *  void
 100:.\version.c   **** *
 101:.\version.c   **** *******************************************************************************/
 102:.\version.c   **** uint8 CheckHWVerPerPin(uint8 bValuePullup, uint8 bValuePullDwn)
 103:.\version.c   **** {
 104:.\version.c   ****     uint8 bHwVer = NOT_CONNECTED;
 105:.\version.c   ****     
 106:.\version.c   ****     if(bValuePullup != 0 && bValuePullDwn == 0)
 107:.\version.c   ****     {
 108:.\version.c   ****         /* Follows pull up/down, so it is floating */
 109:.\version.c   ****         bHwVer = NOT_CONNECTED;
 110:.\version.c   ****     }
 111:.\version.c   ****     else if(bValuePullup == 0 && bValuePullDwn == 0) 
 112:.\version.c   ****     {
 113:.\version.c   ****         /* Always LOW, so it is GND */
 114:.\version.c   ****         bHwVer = GROUND;
 115:.\version.c   ****     }
 116:.\version.c   ****     else
 117:.\version.c   ****     {
 118:.\version.c   ****         /* Shall not be here because these lines are never pulled up in the hardware */
 119:.\version.c   ****     }
 120:.\version.c   ****     
 121:.\version.c   ****     return bHwVer;
 122:.\version.c   **** }
 123:.\version.c   **** 
 124:.\version.c   **** /*******************************************************************************
 125:.\version.c   **** * Function Name: GetHWVersion()
 126:.\version.c   **** ********************************************************************************
 127:.\version.c   **** * Summary:
 128:.\version.c   **** * Calculates the hardware version of the KitProg board.
 129:.\version.c   **** *
 130:.\version.c   **** * Parameters:
 131:.\version.c   **** *  void
 132:.\version.c   **** *
 133:.\version.c   **** * Return:
 134:.\version.c   **** *  void
 135:.\version.c   **** *
 136:.\version.c   **** *******************************************************************************/
ARM GAS  C:\DOCUME~1\ADMINI~1\LOCALS~1\Temp\cc02lNry.s 			page 4


 137:.\version.c   **** void GetHWVersion(void)
 138:.\version.c   **** {
  32              		.loc 1 138 0
  33              		.cfi_startproc
  34              		@ args = 0, pretend = 0, frame = 16
  35              		@ frame_needed = 0, uses_anonymous_args = 0
  36 0000 2DE9F045 		push	{r4, r5, r6, r7, r8, sl, lr}
  37              	.LCFI0:
  38              		.cfi_def_cfa_offset 28
 139:.\version.c   ****     uint8 bValuePullUp[6];
 140:.\version.c   ****     uint8 bValuePullDwn[6];
 141:.\version.c   **** 	uint8 sigCheck[16];
 142:.\version.c   **** 	uint8 verCheck;
 143:.\version.c   **** 	uint8 index = 0;
 144:.\version.c   **** 	uint8 ver = 0;
 145:.\version.c   ****     
 146:.\version.c   **** 	/* To avoid the signature value being optimized out by the compiler. */
 147:.\version.c   **** 	sigCheck[0] = version.signature[0];
  39              		.loc 1 147 0
  40 0004 734B     		ldr	r3, .L7
 148:.\version.c   **** 	verCheck = version.verMajor + version.verMinor;
 149:.\version.c   **** 
 150:.\version.c   **** 	
 151:.\version.c   ****     /* Drive pins resistive pull up and down */
 152:.\version.c   ****     CyPins_SetPinDriveMode(Pin_HWVersionA_0, Pin_HWVersionA_DM_RES_UPDWN);
  41              		.loc 1 152 0
  42 0006 DFF8E4A1 		ldr	sl, .L7+24
  43              		.cfi_offset 14, -4
  44              		.cfi_offset 10, -8
  45              		.cfi_offset 8, -12
  46              		.cfi_offset 7, -16
  47              		.cfi_offset 6, -20
  48              		.cfi_offset 5, -24
  49              		.cfi_offset 4, -28
  50              		.loc 1 147 0
  51 000a 1A78     		ldrb	r2, [r3, #0]	@ zero_extendqisi2
  52              		.loc 1 148 0
  53 000c 1A7C     		ldrb	r2, [r3, #16]	@ zero_extendqisi2
  54 000e 5B7C     		ldrb	r3, [r3, #17]	@ zero_extendqisi2
  55              		.loc 1 152 0
  56 0010 9AF80030 		ldrb	r3, [sl, #0]	@ zero_extendqisi2
 153:.\version.c   **** 	CyPins_SetPinDriveMode(Pin_HWVersionB_0, Pin_HWVersionB_DM_RES_UPDWN);
  57              		.loc 1 153 0
  58 0014 DFF8D881 		ldr	r8, .L7+28
  59              		.loc 1 152 0
  60 0018 43F00E03 		orr	r3, r3, #14
  61 001c 8AF80030 		strb	r3, [sl, #0]
  62              		.loc 1 153 0
  63 0020 98F80030 		ldrb	r3, [r8, #0]	@ zero_extendqisi2
 154:.\version.c   **** 	CyPins_SetPinDriveMode(Pin_HWVersionC_0, Pin_HWVersionC_DM_RES_UPDWN);
  64              		.loc 1 154 0
  65 0024 6C4F     		ldr	r7, .L7+4
  66              		.loc 1 153 0
  67 0026 43F00E03 		orr	r3, r3, #14
  68 002a 88F80030 		strb	r3, [r8, #0]
  69              		.loc 1 154 0
  70 002e 3B78     		ldrb	r3, [r7, #0]	@ zero_extendqisi2
ARM GAS  C:\DOCUME~1\ADMINI~1\LOCALS~1\Temp\cc02lNry.s 			page 5


 155:.\version.c   **** 	CyPins_SetPinDriveMode(Pin_HWVersionD_0, Pin_HWVersionD_DM_RES_UPDWN);
  71              		.loc 1 155 0
  72 0030 6A4E     		ldr	r6, .L7+8
  73              		.loc 1 154 0
  74 0032 43F00E03 		orr	r3, r3, #14
  75 0036 3B70     		strb	r3, [r7, #0]
  76              		.loc 1 155 0
  77 0038 3378     		ldrb	r3, [r6, #0]	@ zero_extendqisi2
 156:.\version.c   **** 	CyPins_SetPinDriveMode(Pin_HWVersionE_0, Pin_HWVersionE_DM_RES_UPDWN);
  78              		.loc 1 156 0
  79 003a 694D     		ldr	r5, .L7+12
  80              		.loc 1 155 0
  81 003c 43F00E03 		orr	r3, r3, #14
  82 0040 3370     		strb	r3, [r6, #0]
  83              		.loc 1 156 0
  84 0042 2B78     		ldrb	r3, [r5, #0]	@ zero_extendqisi2
 157:.\version.c   **** 	CyPins_SetPinDriveMode(Pin_HWVersionF_0, Pin_HWVersionF_DM_RES_UPDWN);
  85              		.loc 1 157 0
  86 0044 674C     		ldr	r4, .L7+16
  87              		.loc 1 156 0
  88 0046 43F00E03 		orr	r3, r3, #14
  89 004a 2B70     		strb	r3, [r5, #0]
  90              		.loc 1 157 0
  91 004c 2378     		ldrb	r3, [r4, #0]	@ zero_extendqisi2
  92              		.loc 1 138 0
  93 004e 85B0     		sub	sp, sp, #20
  94              	.LCFI1:
  95              		.cfi_def_cfa_offset 48
  96              		.loc 1 157 0
  97 0050 43F00E03 		orr	r3, r3, #14
  98 0054 2370     		strb	r3, [r4, #0]
 158:.\version.c   **** 
 159:.\version.c   **** 	/* Set and Clear the pin to check whether the pins are floating or grounded. */
 160:.\version.c   **** 	/* Set the pins */
 161:.\version.c   ****     CyPins_SetPin(Pin_HWVersionA_0);
  99              		.loc 1 161 0
 100 0056 9AF80030 		ldrb	r3, [sl, #0]	@ zero_extendqisi2
 162:.\version.c   **** 	CyPins_SetPin(Pin_HWVersionB_0);
 163:.\version.c   **** 	CyPins_SetPin(Pin_HWVersionC_0);
 164:.\version.c   **** 	CyPins_SetPin(Pin_HWVersionD_0);
 165:.\version.c   **** 	CyPins_SetPin(Pin_HWVersionE_0);
 166:.\version.c   **** 	CyPins_SetPin(Pin_HWVersionF_0);
 167:.\version.c   **** 	
 168:.\version.c   ****     CyDelay(10);
 101              		.loc 1 168 0
 102 005a 0A20     		movs	r0, #10
 103              		.loc 1 161 0
 104 005c 43F00103 		orr	r3, r3, #1
 105 0060 8AF80030 		strb	r3, [sl, #0]
 106              		.loc 1 162 0
 107 0064 98F80030 		ldrb	r3, [r8, #0]	@ zero_extendqisi2
 108 0068 43F00103 		orr	r3, r3, #1
 109 006c 88F80030 		strb	r3, [r8, #0]
 110              		.loc 1 163 0
 111 0070 3B78     		ldrb	r3, [r7, #0]	@ zero_extendqisi2
 112 0072 43F00103 		orr	r3, r3, #1
 113 0076 3B70     		strb	r3, [r7, #0]
ARM GAS  C:\DOCUME~1\ADMINI~1\LOCALS~1\Temp\cc02lNry.s 			page 6


 114              		.loc 1 164 0
 115 0078 3378     		ldrb	r3, [r6, #0]	@ zero_extendqisi2
 116 007a 43F00103 		orr	r3, r3, #1
 117 007e 3370     		strb	r3, [r6, #0]
 118              		.loc 1 165 0
 119 0080 2B78     		ldrb	r3, [r5, #0]	@ zero_extendqisi2
 120 0082 43F00103 		orr	r3, r3, #1
 121 0086 2B70     		strb	r3, [r5, #0]
 122              		.loc 1 166 0
 123 0088 2378     		ldrb	r3, [r4, #0]	@ zero_extendqisi2
 124 008a 43F00103 		orr	r3, r3, #1
 125 008e 2370     		strb	r3, [r4, #0]
 126              		.loc 1 168 0
 127 0090 FFF7FEFF 		bl	CyDelay
 169:.\version.c   **** 	/* Read back the pins */
 170:.\version.c   **** 	bValuePullUp[0] = CyPins_ReadPin(Pin_HWVersionA_0);
 128              		.loc 1 170 0
 129 0094 9AF80030 		ldrb	r3, [sl, #0]	@ zero_extendqisi2
 171:.\version.c   **** 	bValuePullUp[1] = CyPins_ReadPin(Pin_HWVersionB_0);
 172:.\version.c   **** 	bValuePullUp[2] = CyPins_ReadPin(Pin_HWVersionC_0);
 173:.\version.c   **** 	bValuePullUp[3] = CyPins_ReadPin(Pin_HWVersionD_0);
 174:.\version.c   **** 	bValuePullUp[4] = CyPins_ReadPin(Pin_HWVersionE_0);
 175:.\version.c   **** 	bValuePullUp[5] = CyPins_ReadPin(Pin_HWVersionF_0);
 176:.\version.c   **** 	
 177:.\version.c   **** 	/* Clear the pins */
 178:.\version.c   ****     CyPins_ClearPin(Pin_HWVersionA_0);
 179:.\version.c   **** 	CyPins_ClearPin(Pin_HWVersionB_0);
 180:.\version.c   **** 	CyPins_ClearPin(Pin_HWVersionC_0);
 181:.\version.c   **** 	CyPins_ClearPin(Pin_HWVersionD_0);
 182:.\version.c   **** 	CyPins_ClearPin(Pin_HWVersionE_0);
 183:.\version.c   **** 	CyPins_ClearPin(Pin_HWVersionF_0);
 184:.\version.c   ****     
 185:.\version.c   **** 	CyDelay(10);
 130              		.loc 1 185 0
 131 0098 0A20     		movs	r0, #10
 132              		.loc 1 170 0
 133 009a 03F01003 		and	r3, r3, #16
 134 009e 8DF80830 		strb	r3, [sp, #8]
 135              		.loc 1 171 0
 136 00a2 98F80030 		ldrb	r3, [r8, #0]	@ zero_extendqisi2
 137 00a6 03F01003 		and	r3, r3, #16
 138 00aa 8DF80930 		strb	r3, [sp, #9]
 139              		.loc 1 172 0
 140 00ae 3B78     		ldrb	r3, [r7, #0]	@ zero_extendqisi2
 141 00b0 03F01003 		and	r3, r3, #16
 142 00b4 8DF80A30 		strb	r3, [sp, #10]
 143              		.loc 1 173 0
 144 00b8 3378     		ldrb	r3, [r6, #0]	@ zero_extendqisi2
 145 00ba 03F01003 		and	r3, r3, #16
 146 00be 8DF80B30 		strb	r3, [sp, #11]
 147              		.loc 1 174 0
 148 00c2 2B78     		ldrb	r3, [r5, #0]	@ zero_extendqisi2
 149 00c4 03F01003 		and	r3, r3, #16
 150 00c8 8DF80C30 		strb	r3, [sp, #12]
 151              		.loc 1 175 0
 152 00cc 2378     		ldrb	r3, [r4, #0]	@ zero_extendqisi2
 153 00ce 03F01003 		and	r3, r3, #16
ARM GAS  C:\DOCUME~1\ADMINI~1\LOCALS~1\Temp\cc02lNry.s 			page 7


 154 00d2 8DF80D30 		strb	r3, [sp, #13]
 155              		.loc 1 178 0
 156 00d6 9AF80030 		ldrb	r3, [sl, #0]	@ zero_extendqisi2
 157 00da 03F0FE03 		and	r3, r3, #254
 158 00de 8AF80030 		strb	r3, [sl, #0]
 159              		.loc 1 179 0
 160 00e2 98F80030 		ldrb	r3, [r8, #0]	@ zero_extendqisi2
 161 00e6 03F0FE03 		and	r3, r3, #254
 162 00ea 88F80030 		strb	r3, [r8, #0]
 163              		.loc 1 180 0
 164 00ee 3B78     		ldrb	r3, [r7, #0]	@ zero_extendqisi2
 165 00f0 03F0FE03 		and	r3, r3, #254
 166 00f4 3B70     		strb	r3, [r7, #0]
 167              		.loc 1 181 0
 168 00f6 3378     		ldrb	r3, [r6, #0]	@ zero_extendqisi2
 169 00f8 03F0FE03 		and	r3, r3, #254
 170 00fc 3370     		strb	r3, [r6, #0]
 171              		.loc 1 182 0
 172 00fe 2B78     		ldrb	r3, [r5, #0]	@ zero_extendqisi2
 173 0100 03F0FE03 		and	r3, r3, #254
 174 0104 2B70     		strb	r3, [r5, #0]
 175              		.loc 1 183 0
 176 0106 2378     		ldrb	r3, [r4, #0]	@ zero_extendqisi2
 177 0108 03F0FE03 		and	r3, r3, #254
 178 010c 2370     		strb	r3, [r4, #0]
 179              		.loc 1 185 0
 180 010e FFF7FEFF 		bl	CyDelay
 186:.\version.c   **** 	/* Read back the pins */
 187:.\version.c   **** 	bValuePullDwn[0] = CyPins_ReadPin(Pin_HWVersionA_0);
 181              		.loc 1 187 0
 182 0112 9AF80030 		ldrb	r3, [sl, #0]	@ zero_extendqisi2
 183 0116 03F01003 		and	r3, r3, #16
 184 011a 8DF80030 		strb	r3, [sp, #0]
 188:.\version.c   **** 	bValuePullDwn[1] = CyPins_ReadPin(Pin_HWVersionB_0);
 185              		.loc 1 188 0
 186 011e 98F80030 		ldrb	r3, [r8, #0]	@ zero_extendqisi2
 187 0122 03F01003 		and	r3, r3, #16
 188 0126 8DF80130 		strb	r3, [sp, #1]
 189:.\version.c   **** 	bValuePullDwn[2] = CyPins_ReadPin(Pin_HWVersionC_0);
 189              		.loc 1 189 0
 190 012a 3B78     		ldrb	r3, [r7, #0]	@ zero_extendqisi2
 191 012c 03F01003 		and	r3, r3, #16
 192 0130 8DF80230 		strb	r3, [sp, #2]
 190:.\version.c   **** 	bValuePullDwn[3] = CyPins_ReadPin(Pin_HWVersionD_0);
 193              		.loc 1 190 0
 194 0134 3378     		ldrb	r3, [r6, #0]	@ zero_extendqisi2
 195 0136 03F01003 		and	r3, r3, #16
 196 013a 8DF80330 		strb	r3, [sp, #3]
 191:.\version.c   **** 	bValuePullDwn[4] = CyPins_ReadPin(Pin_HWVersionE_0);
 197              		.loc 1 191 0
 198 013e 2B78     		ldrb	r3, [r5, #0]	@ zero_extendqisi2
 199 0140 03F01003 		and	r3, r3, #16
 200 0144 8DF80430 		strb	r3, [sp, #4]
 192:.\version.c   **** 	bValuePullDwn[5] = CyPins_ReadPin(Pin_HWVersionF_0);
 201              		.loc 1 192 0
 202 0148 2378     		ldrb	r3, [r4, #0]	@ zero_extendqisi2
 203 014a 03F01003 		and	r3, r3, #16
ARM GAS  C:\DOCUME~1\ADMINI~1\LOCALS~1\Temp\cc02lNry.s 			page 8


 204 014e 8DF80530 		strb	r3, [sp, #5]
 193:.\version.c   ****     
 194:.\version.c   ****     /* Drive to Hi-Z to save power */
 195:.\version.c   ****     CyPins_SetPinDriveMode(Pin_HWVersionA_0, Pin_HWVersionA_DM_DIG_HIZ);
 205              		.loc 1 195 0
 206 0152 9AF80030 		ldrb	r3, [sl, #0]	@ zero_extendqisi2
 207 0156 03F0F103 		and	r3, r3, #241
 208 015a 43F00203 		orr	r3, r3, #2
 209 015e 8AF80030 		strb	r3, [sl, #0]
 196:.\version.c   **** 	CyPins_SetPinDriveMode(Pin_HWVersionB_0, Pin_HWVersionB_DM_DIG_HIZ);
 210              		.loc 1 196 0
 211 0162 98F80030 		ldrb	r3, [r8, #0]	@ zero_extendqisi2
 212 0166 03F0F103 		and	r3, r3, #241
 213 016a 43F00203 		orr	r3, r3, #2
 214 016e 88F80030 		strb	r3, [r8, #0]
 197:.\version.c   **** 	CyPins_SetPinDriveMode(Pin_HWVersionC_0, Pin_HWVersionC_DM_DIG_HIZ);
 215              		.loc 1 197 0
 216 0172 3B78     		ldrb	r3, [r7, #0]	@ zero_extendqisi2
 217 0174 03F0F103 		and	r3, r3, #241
 218 0178 43F00203 		orr	r3, r3, #2
 219 017c 3B70     		strb	r3, [r7, #0]
 198:.\version.c   **** 	CyPins_SetPinDriveMode(Pin_HWVersionD_0, Pin_HWVersionD_DM_DIG_HIZ);
 220              		.loc 1 198 0
 221 017e 3378     		ldrb	r3, [r6, #0]	@ zero_extendqisi2
 222 0180 03F0F103 		and	r3, r3, #241
 223 0184 43F00203 		orr	r3, r3, #2
 224 0188 3370     		strb	r3, [r6, #0]
 199:.\version.c   **** 	CyPins_SetPinDriveMode(Pin_HWVersionE_0, Pin_HWVersionE_DM_DIG_HIZ);
 225              		.loc 1 199 0
 226 018a 2B78     		ldrb	r3, [r5, #0]	@ zero_extendqisi2
 227 018c 03F0F103 		and	r3, r3, #241
 228 0190 43F00203 		orr	r3, r3, #2
 229 0194 2B70     		strb	r3, [r5, #0]
 200:.\version.c   **** 	CyPins_SetPinDriveMode(Pin_HWVersionF_0, Pin_HWVersionF_DM_DIG_HIZ);
 230              		.loc 1 200 0
 231 0196 2378     		ldrb	r3, [r4, #0]	@ zero_extendqisi2
 232 0198 03F0F103 		and	r3, r3, #241
 233 019c 43F00203 		orr	r3, r3, #2
 234 01a0 2370     		strb	r3, [r4, #0]
 235 01a2 0023     		movs	r3, #0
 236 01a4 1A46     		mov	r2, r3
 237              	.LVL0:
 238              	.L4:
 239              	.LBB4:
 240              	.LBB5:
 241              		.loc 1 106 0
 242 01a6 02A8     		add	r0, sp, #8
 243 01a8 C05C     		ldrb	r0, [r0, r3]	@ zero_extendqisi2
 244              	.LBE5:
 245              	.LBE4:
 201:.\version.c   ****     
 202:.\version.c   ****     
 203:.\version.c   **** 	/* Calculate the HW version */
 204:.\version.c   **** 	for(index = 0; index < 6; index++)
 205:.\version.c   **** 	{
 206:.\version.c   ****     	ver = ver + ((CheckHWVerPerPin(bValuePullUp[index], bValuePullDwn[index]) - 1) * (0x01 << inde
 246              		.loc 1 206 0
ARM GAS  C:\DOCUME~1\ADMINI~1\LOCALS~1\Temp\cc02lNry.s 			page 9


 247 01aa 1DF80310 		ldrb	r1, [sp, r3]	@ zero_extendqisi2
 248              	.LBB7:
 249              	.LBB6:
 250              		.loc 1 106 0
 251 01ae 10B9     		cbnz	r0, .L2
 252              		.loc 1 111 0
 253 01b0 09B9     		cbnz	r1, .L2
 254 01b2 0231     		adds	r1, r1, #2
 255              	.LVL1:
 256 01b4 00E0     		b	.L3
 257              	.LVL2:
 258              	.L2:
 259 01b6 0121     		movs	r1, #1
 260              	.LVL3:
 261              	.L3:
 262              	.LBE6:
 263              	.LBE7:
 264              		.loc 1 206 0
 265 01b8 0139     		subs	r1, r1, #1
 266              	.LVL4:
 267 01ba 9940     		lsls	r1, r1, r3
 268 01bc 0133     		adds	r3, r3, #1
 269 01be 5218     		adds	r2, r2, r1
 270              	.LVL5:
 271              		.loc 1 204 0
 272 01c0 062B     		cmp	r3, #6
 273              		.loc 1 206 0
 274 01c2 D2B2     		uxtb	r2, r2
 275              	.LVL6:
 276              		.loc 1 204 0
 277 01c4 EFD1     		bne	.L4
 207:.\version.c   **** 	}
 208:.\version.c   **** 					 
 209:.\version.c   **** 	kitProgHWVersion = ver - 1;
 278              		.loc 1 209 0
 279 01c6 084B     		ldr	r3, .L7+20
 280 01c8 013A     		subs	r2, r2, #1
 281              	.LVL7:
 282 01ca 1A70     		strb	r2, [r3, #0]
 210:.\version.c   **** 	return;
 211:.\version.c   **** }
 283              		.loc 1 211 0
 284 01cc 05B0     		add	sp, sp, #20
 285 01ce BDE8F085 		pop	{r4, r5, r6, r7, r8, sl, pc}
 286              	.L8:
 287 01d2 00BF     		.align	2
 288              	.L7:
 289 01d4 00000000 		.word	.LANCHOR0
 290 01d8 06500040 		.word	1073762310
 291 01dc 07500040 		.word	1073762311
 292 01e0 1A500040 		.word	1073762330
 293 01e4 1B500040 		.word	1073762331
 294 01e8 00000000 		.word	.LANCHOR1
 295 01ec 04500040 		.word	1073762308
 296 01f0 05500040 		.word	1073762309
 297              		.cfi_endproc
 298              	.LFE30:
ARM GAS  C:\DOCUME~1\ADMINI~1\LOCALS~1\Temp\cc02lNry.s 			page 10


 299              		.size	GetHWVersion, .-GetHWVersion
 300              		.global	kitProgHWVersion
 301              		.global	version
 302              		.data
 303              		.align	2
 304              		.set	.LANCHOR0,. + 0
 305              		.type	version, %object
 306              		.size	version, 18
 307              	version:
 308 0000 43797072 		.ascii	"Cypress-TTBridge"
 308      6573732D 
 308      54544272 
 308      69646765 
 309 0010 02       		.byte	2
 310 0011 03       		.byte	3
 311 0012 0000     		.bss
 312              		.set	.LANCHOR1,. + 0
 313              		.type	kitProgHWVersion, %object
 314              		.size	kitProgHWVersion, 1
 315              	kitProgHWVersion:
 316 0000 00       		.space	1
 317              		.text
 318              	.Letext0: